# near model CODE resource
# jump table entries: 2216-2222 (7 of them)
00000000  4E56 0000                link       A6, 0
00000004  4E5E                     unlink     A6
00000006  4E75                     rts
fn00000008:
00000008  4E56 0000                link       A6, 0
0000000C  4AAD FF58                tst.l      [A5 - 0xA8]
00000010  670A                     beq        +0xC /* 0000001C */
00000012  2F2D FF58                move.l     -[A7], [A5 - 0xA8]
00000016  4EBA 010A                jsr        [PC + 0x10A /* 00000122 */]
0000001A  584F                     addq.w     A7, 4
label0000001C:
0000001C  2B6E 0008 FF58           move.l     [A5 - 0xA8], [A6 + 0x8]
00000022  2F2E 0008                move.l     -[A7], [A6 + 0x8]
00000026  4EBA 00FA                jsr        [PC + 0xFA /* 00000122 */]
0000002A  584F                     addq.w     A7, 4
0000002C  3F3C 0001                move.w     -[A7], 0x1
00000030  4EAD 0832                jsr        [A5 + 0x832 /* export_258, CODE:0 @ 00000000 */]
00000034  544F                     addq.w     A7, 2
00000036  4E5E                     unlink     A6
00000038  4E75                     rts
0000003A  4E56 0000                link       A6, 0
0000003E  2F0B                     move.l     -[A7], A3
00000040  266D FF58                movea.l    A3, [A5 - 0xA8]
00000044  260B                     move.l     D3, A3
00000046  6708                     beq        +0xA /* 00000050 */
00000048  2F0B                     move.l     -[A7], A3
0000004A  4EBA 00D6                jsr        [PC + 0xD6 /* 00000122 */]
0000004E  584F                     addq.w     A7, 4
label00000050:
00000050  42AD FF58                clr.l      [A5 - 0xA8]
00000054  4267                     clr.w      -[A7]
00000056  4EAD 0832                jsr        [A5 + 0x832 /* export_258, CODE:0 @ 00000000 */]
0000005A  544F                     addq.w     A7, 2
0000005C  200B                     move.l     D0, A3
0000005E  265F                     movea.l    A3, [A7]+
00000060  4E5E                     unlink     A6
00000062  4E75                     rts
00000064  4E56 FFFA                link       A6, -0x0006
00000068  48E7 0F18                movem.l    -[A7], D4,D5,D6,D7,A3,A4
0000006C  266E 0008                movea.l    A3, [A6 + 0x8]
00000070  286E 000C                movea.l    A4, [A6 + 0xC]
00000074  3D7C 0001 FFFE           move.w     [A6 - 0x2], 0x1
0000007A  246B 0008                movea.l    A2, [A3 + 0x8]
0000007E  3F2A 000E                move.w     -[A7], [A2 + 0xE]
00000082  4EAD 08E2                jsr        [A5 + 0x8E2 /* export_280, CODE:0 @ 00000000 */]
00000086  544F                     addq.w     A7, 2
00000088  3800                     move.w     D4, D0
0000008A  3F00                     move.w     -[A7], D0
0000008C  4267                     clr.w      -[A7]
0000008E  2F2D FF68                move.l     -[A7], [A5 - 0x98]
00000092  A960                     syscall    GetControlValue/GetCtlValue
00000094  301F                     move.w     D0, [A7]+
00000096  361F                     move.w     D3, [A7]+
00000098  3A03                     move.w     D5, D3
0000009A  9A40                     sub.w      D5, D0
0000009C  3605                     move.w     D3, D5
0000009E  ED43                     asl        D3.w, 6
000000A0  D67C 0020                add.w      D3, 0x20 /* ' ' */
000000A4  3943 0002                move.w     [A4 + 0x2], D3
000000A8  362C 0002                move.w     D3, [A4 + 0x2]
000000AC  D67C 0020                add.w      D3, 0x20 /* ' ' */
000000B0  3943 0006                move.w     [A4 + 0x6], D3
000000B4  7E00                     moveq.l    D7, 0x00
000000B6  48C4                     ext.l      D4
000000B8  2604                     move.l     D3, D4
000000BA  E583                     asl        D3, 2
000000BC  45ED FF3C                lea.l      A2, [A5 - 0xC4]
000000C0  2D72 3800 FFFA           move.l     [A6 - 0x6], [A2 + D3]
label000000C6:
000000C6  4AAE FFFA                tst.l      [A6 - 0x6]
000000CA  6716                     beq        +0x18 /* 000000E2 */
000000CC  246E FFFA                movea.l    A2, [A6 - 0x6]
000000D0  B5CB                     cmpa.l     A2, A3
000000D2  6602                     bne        +0x4 /* 000000D6 */
000000D4  3C07                     move.w     D6, D7
label000000D6:
000000D6  5247                     addq.w     D7, 1
000000D8  246E FFFA                movea.l    A2, [A6 - 0x6]
000000DC  2D52 FFFA                move.l     [A6 - 0x6], [A2]
000000E0  60E4                     bra        -0x1A /* 000000C6 */
label000000E2:
000000E2  3607                     move.w     D3, D7
000000E4  5343                     subq.w     D3, 1
000000E6  9646                     sub.w      D3, D6
000000E8  3F03                     move.w     -[A7], D3
000000EA  4267                     clr.w      -[A7]
000000EC  2F2D FF64                move.l     -[A7], [A5 - 0x9C]
000000F0  A960                     syscall    GetControlValue/GetCtlValue
000000F2  301F                     move.w     D0, [A7]+
000000F4  361F                     move.w     D3, [A7]+
000000F6  9640                     sub.w      D3, D0
000000F8  ED43                     asl        D3.w, 6
000000FA  3C03                     move.w     D6, D3
000000FC  DC7C 0020                add.w      D6, 0x20 /* ' ' */
00000100  BC7C 0020                cmp.w      D6, 0x20 /* ' ' */
00000104  6C04                     bge        +0x6 /* 0000010A */
00000106  426E FFFE                clr.w      [A6 - 0x2]
label0000010A:
0000010A  3886                     move.w     [A4], D6
0000010C  3606                     move.w     D3, D6
0000010E  D67C 0020                add.w      D3, 0x20 /* ' ' */
00000112  3943 0004                move.w     [A4 + 0x4], D3
00000116  302E FFFE                move.w     D0, [A6 - 0x2]
0000011A  4CDF 18F0                movem.l    D4,D5,D6,D7,A3,A4, [A7]+
0000011E  4E5E                     unlink     A6
00000120  4E75                     rts
fn00000122:
00000122  4E56 FFEA                link       A6, -0x0016
00000126  246E 0008                movea.l    A2, [A6 + 0x8]
0000012A  2F2A 0004                move.l     -[A7], [A2 + 0x4]
0000012E  A9A2                     syscall    LoadResource
00000130  486E FFF8                pea.l      [A6 - 0x8]
00000134  2F2E 0008                move.l     -[A7], [A6 + 0x8]
00000138  4EAD 08DA                jsr        [A5 + 0x8DA /* export_279, CODE:0 @ 00000000 */]
0000013C  504F                     addq.w     A7, 8
0000013E  246E 0008                movea.l    A2, [A6 + 0x8]
00000142  226A 0004                movea.l    A1, [A2 + 0x4]
00000146  2611                     move.l     D3, [A1]
00000148  D6BC 0000 0080           add.l      D3, 0x80
0000014E  2D43 FFEA                move.l     [A6 - 0x16], D3
00000152  45EE FFF0                lea.l      A2, [A6 - 0x10]
00000156  43EE FFF8                lea.l      A1, [A6 - 0x8]
0000015A  24D9                     move.l     [A2]+, [A1]+
0000015C  24D9                     move.l     [A2]+, [A1]+
0000015E  3D7C 0004 FFEE           move.w     [A6 - 0x12], 0x4
00000164  486E FFEA                pea.l      [A6 - 0x16]
00000168  246D F6E4                movea.l    A2, [A5 - 0x91C]
0000016C  548A                     addq.l     A2, 2
0000016E  2F0A                     move.l     -[A7], A2
00000170  486E FFF8                pea.l      [A6 - 0x8]
00000174  486E FFF8                pea.l      [A6 - 0x8]
00000178  3F3C 0002                move.w     -[A7], 0x2
0000017C  42A7                     clr.l      -[A7]
0000017E  A8EC                     syscall    CopyBits
00000180  486E FFF8                pea.l      [A6 - 0x8]
00000184  2F2E 0008                move.l     -[A7], [A6 + 0x8]
00000188  4EAD 08EA                jsr        [A5 + 0x8EA /* export_281, CODE:0 @ 00000000 */]
0000018C  504F                     addq.w     A7, 8
0000018E  486E FFF8                pea.l      [A6 - 0x8]
00000192  A8A4                     syscall    InvertRect
00000194  4E5E                     unlink     A6
00000196  4E75                     rts
00000198  4E56 FFFC                link       A6, -0x0004
0000019C  48E7 1020                movem.l    -[A7], D3,A2
000001A0  486E FFFC                pea.l      [A6 - 0x4]
000001A4  A874                     syscall    GetPort
000001A6  4267                     clr.w      -[A7]
000001A8  4EAD 08B2                jsr        [A5 + 0x8B2 /* export_274, CODE:0 @ 00000000 */]
000001AC  544F                     addq.w     A7, 2
000001AE  2F2E FFFC                move.l     -[A7], [A6 - 0x4]
000001B2  A873                     syscall    SetPort
000001B4  4CDF 0408                movem.l    D3,A2, [A7]+
000001B8  4E5E                     unlink     A6
000001BA  4E75                     rts
000001BC  4E56 FFD0                link       A6, -0x0030
000001C0  48E7 0F18                movem.l    -[A7], D4,D5,D6,D7,A3,A4
000001C4  2F2D F6E4                move.l     -[A7], [A5 - 0x91C]
000001C8  A873                     syscall    SetPort
000001CA  45EE FFE4                lea.l      A2, [A6 - 0x1C]
000001CE  43EE 0008                lea.l      A1, [A6 + 0x8]
000001D2  24D9                     move.l     [A2]+, [A1]+
000001D4  486E FFE4                pea.l      [A6 - 0x1C]
000001D8  A871                     syscall    GlobalToLocal
000001DA  4267                     clr.w      -[A7]
000001DC  2F2D FF68                move.l     -[A7], [A5 - 0x98]
000001E0  A960                     syscall    GetControlValue/GetCtlValue
000001E2  301F                     move.w     D0, [A7]+
000001E4  3800                     move.w     D4, D0
label000001E6:
000001E6  B87C 0007                cmp.w      D4, 0x7
000001EA  6C00 0084                bge        +0x86 /* 00000270 */
000001EE  48C4                     ext.l      D4
000001F0  2604                     move.l     D3, D4
000001F2  E583                     asl        D3, 2
000001F4  45ED FF3C                lea.l      A2, [A5 - 0xC4]
000001F8  2672 3800                movea.l    A3, [A2 + D3]
label000001FC:
000001FC  260B                     move.l     D3, A3
000001FE  6766                     beq        +0x68 /* 00000266 */
00000200  2F2B 0004                move.l     -[A7], [A3 + 0x4]
00000204  A9A2                     syscall    LoadResource
00000206  486E FFE8                pea.l      [A6 - 0x18]
0000020A  2F0B                     move.l     -[A7], A3
0000020C  4EAD 08DA                jsr        [A5 + 0x8DA /* export_279, CODE:0 @ 00000000 */]
00000210  504F                     addq.w     A7, 8
00000212  4A40                     tst.w      D0
00000214  674C                     beq        +0x4E /* 00000262 */
00000216  4267                     clr.w      -[A7]
00000218  2F2E FFE4                move.l     -[A7], [A6 - 0x1C]
0000021C  486E FFE8                pea.l      [A6 - 0x18]
00000220  A8AD                     syscall    PtInRect
00000222  101F                     move.b     D0, [A7]+
00000224  4A00                     tst.b      D0
00000226  673A                     beq        +0x3C /* 00000262 */
00000228  246B 0004                movea.l    A2, [A3 + 0x4]
0000022C  2612                     move.l     D3, [A2]
0000022E  D6BC 0000 0080           add.l      D3, 0x80
00000234  2D43 FFDC                move.l     [A6 - 0x24], D3
00000238  362E FFE4                move.w     D3, [A6 - 0x1C]
0000023C  966E FFE8                sub.w      D3, [A6 - 0x18]
00000240  48C3                     ext.l      D3
00000242  E583                     asl        D3, 2
00000244  D7AE FFDC                add.l      [A6 - 0x24], D3
00000248  4267                     clr.w      -[A7]
0000024A  2F2E FFDC                move.l     -[A7], [A6 - 0x24]
0000024E  362E FFE6                move.w     D3, [A6 - 0x1A]
00000252  966E FFEA                sub.w      D3, [A6 - 0x16]
00000256  48C3                     ext.l      D3
00000258  2F03                     move.l     -[A7], D3
0000025A  A85D                     syscall    BitTst
0000025C  101F                     move.b     D0, [A7]+
0000025E  4A00                     tst.b      D0
00000260  6604                     bne        +0x6 /* 00000266 */
label00000262:
00000262  2653                     movea.l    A3, [A3]
00000264  6096                     bra        -0x68 /* 000001FC */
label00000266:
00000266  260B                     move.l     D3, A3
00000268  6606                     bne        +0x8 /* 00000270 */
0000026A  5244                     addq.w     D4, 1
0000026C  6000 FF78                bra        -0x86 /* 000001E6 */
label00000270:
00000270  260B                     move.l     D3, A3
00000272  660E                     bne        +0x10 /* 00000282 */
00000274  4EAD 08D2                jsr        [A5 + 0x8D2 /* export_278, CODE:0 @ 00000000 */]
00000278  7000                     moveq.l    D0, 0x00
label0000027A:
0000027A  4CDF 18F0                movem.l    D4,D5,D6,D7,A3,A4, [A7]+
0000027E  4E5E                     unlink     A6
00000280  4E75                     rts
label00000282:
00000282  4AAD FF58                tst.l      [A5 - 0xA8]
00000286  671E                     beq        +0x20 /* 000002A6 */
00000288  4A6D F6EC                tst.w      [A5 - 0x914]
0000028C  6718                     beq        +0x1A /* 000002A6 */
0000028E  246D FF58                movea.l    A2, [A5 - 0xA8]
00000292  B5CB                     cmpa.l     A2, A3
00000294  6610                     bne        +0x12 /* 000002A6 */
00000296  4EAD 08D2                jsr        [A5 + 0x8D2 /* export_278, CODE:0 @ 00000000 */]
0000029A  246E 000C                movea.l    A2, [A6 + 0xC]
0000029E  24AB 0008                move.l     [A2], [A3 + 0x8]
000002A2  7001                     moveq.l    D0, 0x01
000002A4  60D4                     bra        -0x2A /* 0000027A */
label000002A6:
000002A6  B7ED FF58                cmpa.l     A3, [A5 - 0xA8]
000002AA  670C                     beq        +0xE /* 000002B8 */
000002AC  4EAD 08D2                jsr        [A5 + 0x8D2 /* export_278, CODE:0 @ 00000000 */]
000002B0  2F0B                     move.l     -[A7], A3
000002B2  4EBA FD54                jsr        [PC - 0x2AC /* 00000008 */]
000002B6  584F                     addq.w     A7, 4
label000002B8:
000002B8  486E FFE0                pea.l      [A6 - 0x20]
000002BC  A972                     syscall    GetMouse
000002BE  4267                     clr.w      -[A7]
000002C0  A973                     syscall    StillDown
000002C2  101F                     move.b     D0, [A7]+
000002C4  4880                     ext.w      D0
000002C6  3800                     move.w     D4, D0
000002C8  4A40                     tst.w      D0
000002CA  6750                     beq        +0x52 /* 0000031C */
000002CC  362E FFE2                move.w     D3, [A6 - 0x1E]
000002D0  966E FFE6                sub.w      D3, [A6 - 0x1A]
000002D4  B67C 0000                cmp.w      D3, 0x0
000002D8  6F0A                     ble        +0xC /* 000002E4 */
000002DA  362E FFE2                move.w     D3, [A6 - 0x1E]
000002DE  966E FFE6                sub.w      D3, [A6 - 0x1A]
000002E2  600A                     bra        +0xC /* 000002EE */
label000002E4:
000002E4  362E FFE2                move.w     D3, [A6 - 0x1E]
000002E8  966E FFE6                sub.w      D3, [A6 - 0x1A]
000002EC  4443                     neg.w      D3
label000002EE:
000002EE  B67C 0004                cmp.w      D3, 0x4
000002F2  6C28                     bge        +0x2A /* 0000031C */
000002F4  362E FFE0                move.w     D3, [A6 - 0x20]
000002F8  966E FFE4                sub.w      D3, [A6 - 0x1C]
000002FC  B67C 0000                cmp.w      D3, 0x0
00000300  6F0A                     ble        +0xC /* 0000030C */
00000302  362E FFE0                move.w     D3, [A6 - 0x20]
00000306  966E FFE4                sub.w      D3, [A6 - 0x1C]
0000030A  600A                     bra        +0xC /* 00000316 */
label0000030C:
0000030C  362E FFE0                move.w     D3, [A6 - 0x20]
00000310  966E FFE4                sub.w      D3, [A6 - 0x1C]
00000314  4443                     neg.w      D3
label00000316:
00000316  B67C 0004                cmp.w      D3, 0x4
0000031A  6D9C                     blt        -0x62 /* 000002B8 */
label0000031C:
0000031C  4A44                     tst.w      D4
0000031E  6606                     bne        +0x8 /* 00000326 */
00000320  7000                     moveq.l    D0, 0x00
00000322  6000 FF56                bra        -0xA8 /* 0000027A */
label00000326:
00000326  4267                     clr.w      -[A7]
00000328  246D F6E4                movea.l    A2, [A5 - 0x91C]
0000032C  226A 0076                movea.l    A1, [A2 + 0x76]
00000330  2451                     movea.l    A2, [A1]
00000332  548A                     addq.l     A2, 2
00000334  2F0A                     move.l     -[A7], A2
00000336  246D F6DC                movea.l    A2, [A5 - 0x924]
0000033A  226A 0076                movea.l    A1, [A2 + 0x76]
0000033E  2451                     movea.l    A2, [A1]
00000340  548A                     addq.l     A2, 2
00000342  2F0A                     move.l     -[A7], A2
00000344  486E FFF8                pea.l      [A6 - 0x8]
00000348  A8AA                     syscall    SectRect
0000034A  101F                     move.b     D0, [A7]+
0000034C  4267                     clr.w      -[A7]
0000034E  486E FFF8                pea.l      [A6 - 0x8]
00000352  A8AE                     syscall    EmptyRect
00000354  101F                     move.b     D0, [A7]+
00000356  4A00                     tst.b      D0
00000358  6628                     bne        +0x2A /* 00000382 */
0000035A  2F2D F6DC                move.l     -[A7], [A5 - 0x924]
0000035E  A91F                     syscall    SelectWindow
label00000360:
00000360  4267                     clr.w      -[A7]
00000362  3F3C 0140                move.w     -[A7], 0x140
00000366  486E FFD0                pea.l      [A6 - 0x30]
0000036A  A970                     syscall    GetNextEvent
0000036C  101F                     move.b     D0, [A7]+
0000036E  4A00                     tst.b      D0
00000370  670C                     beq        +0xE /* 0000037E */
00000372  486E FFD0                pea.l      [A6 - 0x30]
00000376  4EAD 0032                jsr        [A5 + 0x32 /* export_2, CODE:0 @ 00000000 */]
0000037A  584F                     addq.w     A7, 4
0000037C  60E2                     bra        -0x1C /* 00000360 */
label0000037E:
0000037E  4EAD 0152                jsr        [A5 + 0x152 /* export_38, CODE:0 @ 00000000 */]
label00000382:
00000382  42A7                     clr.l      -[A7]
00000384  A8D8                     syscall    NewRgn
00000386  201F                     move.l     D0, [A7]+
00000388  2840                     movea.l    A4, D0
0000038A  42A7                     clr.l      -[A7]
0000038C  A8D8                     syscall    NewRgn
0000038E  201F                     move.l     D0, [A7]+
00000390  2A00                     move.l     D5, D0
00000392  A8DA                     syscall    OpenRgn
00000394  486E FFE8                pea.l      [A6 - 0x18]
00000398  A8A1                     syscall    FrameRect
0000039A  486E FFF8                pea.l      [A6 - 0x8]
0000039E  2F0B                     move.l     -[A7], A3
000003A0  4EAD 08EA                jsr        [A5 + 0x8EA /* export_281, CODE:0 @ 00000000 */]
000003A4  504F                     addq.w     A7, 8
000003A6  596E FFF8                subq.w     [A6 - 0x8], 4
000003AA  486E FFF8                pea.l      [A6 - 0x8]
000003AE  A8A1                     syscall    FrameRect
000003B0  2F0C                     move.l     -[A7], A4
000003B2  A8DB                     syscall    CloseRgn
000003B4  2F2D F702                move.l     -[A7], [A5 - 0x8FE]
000003B8  A873                     syscall    SetPort
000003BA  2F05                     move.l     -[A7], D5
000003BC  A87A                     syscall    GetClip
000003BE  486D F6F2                pea.l      [A5 - 0x90E]
000003C2  A87B                     syscall    ClipRect
000003C4  246D F6E4                movea.l    A2, [A5 - 0x91C]
000003C8  226A 0076                movea.l    A1, [A2 + 0x76]
000003CC  2C11                     move.l     D6, [A1]
000003CE  5486                     addq.l     D6, 2
000003D0  2F0C                     move.l     -[A7], A4
000003D2  2446                     movea.l    A2, D6
000003D4  3F2A 0002                move.w     -[A7], [A2 + 0x2]
000003D8  2446                     movea.l    A2, D6
000003DA  3F12                     move.w     -[A7], [A2]
000003DC  A8E0                     syscall    OffsetRgn/OfsetRgn
000003DE  486E FFF0                pea.l      [A6 - 0x10]
000003E2  4267                     clr.w      -[A7]
000003E4  3F3C 0014                move.w     -[A7], 0x14
000003E8  3F2D F6F8                move.w     -[A7], [A5 - 0x908]
000003EC  3F2D F6F6                move.w     -[A7], [A5 - 0x90A]
000003F0  A8A7                     syscall    SetRect
000003F2  45EE FFF8                lea.l      A2, [A6 - 0x8]
000003F6  43EE FFF0                lea.l      A1, [A6 - 0x10]
000003FA  24D9                     move.l     [A2]+, [A1]+
000003FC  24D9                     move.l     [A2]+, [A1]+
000003FE  45EE FFE8                lea.l      A2, [A6 - 0x18]
00000402  2C0A                     move.l     D6, A2
00000404  2446                     movea.l    A2, D6
00000406  362E FFE4                move.w     D3, [A6 - 0x1C]
0000040A  9652                     sub.w      D3, [A2]
0000040C  D76E FFF8                add.w      [A6 - 0x8], D3
00000410  2446                     movea.l    A2, D6
00000412  362E FFE6                move.w     D3, [A6 - 0x1A]
00000416  966A 0002                sub.w      D3, [A2 + 0x2]
0000041A  D76E FFFA                add.w      [A6 - 0x6], D3
0000041E  2446                     movea.l    A2, D6
00000420  362E FFE4                move.w     D3, [A6 - 0x1C]
00000424  966A 0004                sub.w      D3, [A2 + 0x4]
00000428  D76E FFFC                add.w      [A6 - 0x4], D3
0000042C  2446                     movea.l    A2, D6
0000042E  362E FFE6                move.w     D3, [A6 - 0x1A]
00000432  966A 0006                sub.w      D3, [A2 + 0x6]
00000436  D76E FFFE                add.w      [A6 - 0x2], D3
0000043A  42A7                     clr.l      -[A7]
0000043C  2F0C                     move.l     -[A7], A4
0000043E  2F2E 0008                move.l     -[A7], [A6 + 0x8]
00000442  486E FFF8                pea.l      [A6 - 0x8]
00000446  486E FFF0                pea.l      [A6 - 0x10]
0000044A  4267                     clr.w      -[A7]
0000044C  487A FD4A                pea.l      [PC - 0x2B6 /* 00000198, value 0x4E56FFFC */]
00000450  A905                     syscall    DragGrayRgn
00000452  201F                     move.l     D0, [A7]+
00000454  2E00                     move.l     D7, D0
00000456  2F05                     move.l     -[A7], D5
00000458  A879                     syscall    SetClip
0000045A  2F0C                     move.l     -[A7], A4
0000045C  A8D9                     syscall    DisposRgn/DisposeRgn
0000045E  2F05                     move.l     -[A7], D5
00000460  A8D9                     syscall    DisposRgn/DisposeRgn
00000462  2F2D F6E4                move.l     -[A7], [A5 - 0x91C]
00000466  A873                     syscall    SetPort
00000468  4EAD 08D2                jsr        [A5 + 0x8D2 /* export_278, CODE:0 @ 00000000 */]
0000046C  4267                     clr.w      -[A7]
0000046E  2F07                     move.l     -[A7], D7
00000470  A86A                     syscall    HiWord
00000472  301F                     move.w     D0, [A7]+
00000474  B07C 8000                cmp.w      D0, 0x8000
00000478  6758                     beq        +0x5A /* 000004D2 */
0000047A  4267                     clr.w      -[A7]
0000047C  2F07                     move.l     -[A7], D7
0000047E  A86A                     syscall    HiWord
00000480  301F                     move.w     D0, [A7]+
00000482  D16E 0008                add.w      [A6 + 0x8], D0
00000486  4267                     clr.w      -[A7]
00000488  2F07                     move.l     -[A7], D7
0000048A  A86B                     syscall    LoWord
0000048C  301F                     move.w     D0, [A7]+
0000048E  D16E 000A                add.w      [A6 + 0xA], D0
00000492  4267                     clr.w      -[A7]
00000494  2F2E 0008                move.l     -[A7], [A6 + 0x8]
00000498  486E FFDC                pea.l      [A6 - 0x24]
0000049C  A92C                     syscall    FindWindow
0000049E  301F                     move.w     D0, [A7]+
000004A0  B07C 0003                cmp.w      D0, 0x3
000004A4  6628                     bne        +0x2A /* 000004CE */
000004A6  246E FFDC                movea.l    A2, [A6 - 0x24]
000004AA  B5ED F6DC                cmpa.l     A2, [A5 - 0x924]
000004AE  661E                     bne        +0x20 /* 000004CE */
000004B0  246E 000C                movea.l    A2, [A6 + 0xC]
000004B4  24AB 0008                move.l     [A2], [A3 + 0x8]
000004B8  0C6D 0190 FF2C           cmpi.w     [A5 - 0xD4], 0x190
000004BE  6D06                     blt        +0x8 /* 000004C6 */
000004C0  303C 0001                move.w     D0, 0x1
000004C4  6002                     bra        +0x4 /* 000004C8 */
label000004C6:
000004C6  4240                     clr.w      D0
label000004C8:
000004C8  5440                     addq.w     D0, 2
000004CA  6000 FDAE                bra        -0x250 /* 0000027A */
label000004CE:
000004CE  4EAD 068A                jsr        [A5 + 0x68A /* export_205, CODE:0 @ 00000000 */]
label000004D2:
000004D2  7000                     moveq.l    D0, 0x00
000004D4  6000 FDA4                bra        -0x25A /* 0000027A */
000004D8  4E56 FFF8                link       A6, -0x0008
000004DC  48E7 0018                movem.l    -[A7], A3,A4
000004E0  266E 0008                movea.l    A3, [A6 + 0x8]
000004E4  3F2B 000E                move.w     -[A7], [A3 + 0xE]
000004E8  4EAD 08E2                jsr        [A5 + 0x8E2 /* export_280, CODE:0 @ 00000000 */]
000004EC  544F                     addq.w     A7, 2
000004EE  48C0                     ext.l      D0
000004F0  E580                     asl        D0, 2
000004F2  45ED FF3C                lea.l      A2, [A5 - 0xC4]
000004F6  2872 0800                movea.l    A4, [A2 + D0]
label000004FA:
000004FA  260C                     move.l     D3, A4
000004FC  675C                     beq        +0x5E /* 0000055A */
000004FE  246C 0008                movea.l    A2, [A4 + 0x8]
00000502  B5CB                     cmpa.l     A2, A3
00000504  6650                     bne        +0x52 /* 00000556 */
00000506  2F2D F6E4                move.l     -[A7], [A5 - 0x91C]
0000050A  A873                     syscall    SetPort
0000050C  486E FFF8                pea.l      [A6 - 0x8]
00000510  2F0C                     move.l     -[A7], A4
00000512  6148                     bsr        +0x4A /* 0000055C */
00000514  504F                     addq.w     A7, 8
00000516  486E FFF8                pea.l      [A6 - 0x8]
0000051A  A928                     syscall    InvalRect
0000051C  486E FFF8                pea.l      [A6 - 0x8]
00000520  2F0C                     move.l     -[A7], A4
00000522  4EAD 08DA                jsr        [A5 + 0x8DA /* export_279, CODE:0 @ 00000000 */]
00000526  504F                     addq.w     A7, 8
00000528  4A40                     tst.w      D0
0000052A  6706                     beq        +0x8 /* 00000532 */
0000052C  486E FFF8                pea.l      [A6 - 0x8]
00000530  A928                     syscall    InvalRect
label00000532:
00000532  42A7                     clr.l      -[A7]
00000534  2F3C 4943 4E23           move.l     -[A7], 0x49434E23 /* 'ICN#' */
0000053A  2F2C 0008                move.l     -[A7], [A4 + 0x8]
0000053E  4EAD 0442                jsr        [A5 + 0x442 /* export_132, CODE:0 @ 00000000 */]
00000542  584F                     addq.w     A7, 4
00000544  3F00                     move.w     -[A7], D0
00000546  A9A0                     syscall    GetResource
00000548  201F                     move.l     D0, [A7]+
0000054A  2940 0004                move.l     [A4 + 0x4], D0
label0000054E:
0000054E  4CDF 1800                movem.l    A3,A4, [A7]+
00000552  4E5E                     unlink     A6
00000554  4E75                     rts
label00000556:
00000556  2854                     movea.l    A4, [A4]
00000558  60A0                     bra        -0x5E /* 000004FA */
label0000055A:
0000055A  60F2                     bra        -0xC /* 0000054E */
fn0000055C:
0000055C  4E56 FFF8                link       A6, -0x0008
00000560  48E7 0018                movem.l    -[A7], A3,A4
00000564  266E 0008                movea.l    A3, [A6 + 0x8]
00000568  286E 000C                movea.l    A4, [A6 + 0xC]
0000056C  486E FFF8                pea.l      [A6 - 0x8]
00000570  2F0B                     move.l     -[A7], A3
00000572  4EAD 08DA                jsr        [A5 + 0x8DA /* export_279, CODE:0 @ 00000000 */]
00000576  504F                     addq.w     A7, 8
00000578  362E FFFC                move.w     D3, [A6 - 0x4]
0000057C  5843                     addq.w     D3, 4
0000057E  3883                     move.w     [A4], D3
00000580  362E FFFA                move.w     D3, [A6 - 0x6]
00000584  967C 0010                sub.w      D3, 0x10
00000588  3943 0002                move.w     [A4 + 0x2], D3
0000058C  3614                     move.w     D3, [A4]
0000058E  D67C 0018                add.w      D3, 0x18
00000592  3943 0004                move.w     [A4 + 0x4], D3
00000596  362C 0002                move.w     D3, [A4 + 0x2]
0000059A  D67C 0040                add.w      D3, 0x40 /* '@' */
0000059E  3943 0006                move.w     [A4 + 0x6], D3
000005A2  4CDF 1800                movem.l    A3,A4, [A7]+
000005A6  4E5E                     unlink     A6
000005A8  4E75                     rts
000005AA  4E56 0000                link       A6, 0
000005AE  2F04                     move.l     -[A7], D4
000005B0  302E 0008                move.w     D0, [A6 + 0x8]
000005B4  601E                     bra        +0x20 /* 000005D4 */
000005B6  603E                     bra        +0x40 /* 000005F6 */
label000005B8:
000005B8  7800                     moveq.l    D4, 0x00
000005BA  603A                     bra        +0x3C /* 000005F6 */
label000005BC:
000005BC  7801                     moveq.l    D4, 0x01
000005BE  6036                     bra        +0x38 /* 000005F6 */
label000005C0:
000005C0  7802                     moveq.l    D4, 0x02
000005C2  6032                     bra        +0x34 /* 000005F6 */
label000005C4:
000005C4  7803                     moveq.l    D4, 0x03
000005C6  602E                     bra        +0x30 /* 000005F6 */
label000005C8:
000005C8  7804                     moveq.l    D4, 0x04
000005CA  602A                     bra        +0x2C /* 000005F6 */
label000005CC:
000005CC  7805                     moveq.l    D4, 0x05
000005CE  6026                     bra        +0x28 /* 000005F6 */
label000005D0:
000005D0  7806                     moveq.l    D4, 0x06
000005D2  6022                     bra        +0x24 /* 000005F6 */
label000005D4:
000005D4  907C 0021                sub.w      D0, 0x21 /* '!' */
000005D8  67EA                     beq        -0x14 /* 000005C4 */
000005DA  907C 000E                sub.w      D0, 0xE
000005DE  67EC                     beq        -0x12 /* 000005CC */
000005E0  907C 000B                sub.w      D0, 0xB
000005E4  67DA                     beq        -0x24 /* 000005C0 */
000005E6  5B40                     subq.w     D0, 5
000005E8  67DE                     beq        -0x20 /* 000005C8 */
000005EA  907C 001E                sub.w      D0, 0x1E
000005EE  67CC                     beq        -0x32 /* 000005BC */
000005F0  5940                     subq.w     D0, 4
000005F2  67C4                     beq        -0x3A /* 000005B8 */
000005F4  60DA                     bra        -0x24 /* 000005D0 */
label000005F6:
000005F6  3004                     move.w     D0, D4
000005F8  281F                     move.l     D4, [A7]+
000005FA  4E5E                     unlink     A6
000005FC  4E75                     rts
