# near model CODE resource
# jump table entries: 1496-1499 (4 of them)
00000000  4E56 0000                link       A6, 0
00000004  4E5E                     unlink     A6
00000006  4E75                     rts
00000008  4E56 0000                link       A6, 0
0000000C  48E7 0810                movem.l    -[A7], D4,A3
00000010  266E 0008                movea.l    A3, [A6 + 0x8]
00000014  78FF                     moveq.l    D4, 0xFFFFFFFF
00000016  0C6B 003D 000E           cmpi.w     [A3 + 0xE], 0x3D /* '=' */
0000001C  670E                     beq        +0x10 /* 0000002C */
0000001E  487A 00D2                pea.l      [PC + 0xD2 /* 000000F2, value 0x796F7520 'you ', cstring "you can\'t put that on your fin"... */]
00000022  4EAD 0502                jsr        [A5 + 0x502 /* export_156, CODE:0 @ 00000000 */]
00000026  584F                     addq.w     A7, 4
00000028  6000 00C0                bra        +0xC2 /* 000000EA */
label0000002C:
0000002C  2F0B                     move.l     -[A7], A3
0000002E  4EAD 074A                jsr        [A5 + 0x74A /* export_229, CODE:0 @ 00000000 */]
00000032  584F                     addq.w     A7, 4
00000034  4A40                     tst.w      D0
00000036  6600 00B2                bne        +0xB4 /* 000000EA */
0000003A  4AAD FF00                tst.l      [A5 - 0x100]
0000003E  6602                     bne        +0x4 /* 00000042 */
00000040  7800                     moveq.l    D4, 0x00
label00000042:
00000042  4AAD FF04                tst.l      [A5 - 0xFC]
00000046  6602                     bne        +0x4 /* 0000004A */
00000048  7801                     moveq.l    D4, 0x01
label0000004A:
0000004A  4AAD FF00                tst.l      [A5 - 0x100]
0000004E  6612                     bne        +0x14 /* 00000062 */
00000050  4AAD FF04                tst.l      [A5 - 0xFC]
00000054  660C                     bne        +0xE /* 00000062 */
00000056  3F3C 0002                move.w     -[A7], 0x2
0000005A  4EAD 0522                jsr        [A5 + 0x522 /* export_160, CODE:0 @ 00000000 */]
0000005E  544F                     addq.w     A7, 2
00000060  3800                     move.w     D4, D0
label00000062:
00000062  B87C 0000                cmp.w      D4, 0x0
00000066  6C0C                     bge        +0xE /* 00000074 */
00000068  487A 00AA                pea.l      [PC + 0xAA /* 00000114, value 0x796F7520 'you ', cstring "you already have a ring on each"... */]
0000006C  4EAD 0502                jsr        [A5 + 0x502 /* export_156, CODE:0 @ 00000000 */]
00000070  584F                     addq.w     A7, 4
00000072  6076                     bra        +0x78 /* 000000EA */
label00000074:
00000074  2F0B                     move.l     -[A7], A3
00000076  4EAD 0762                jsr        [A5 + 0x762 /* export_232, CODE:0 @ 00000000 */]
0000007A  584F                     addq.w     A7, 4
0000007C  4A40                     tst.w      D0
0000007E  670A                     beq        +0xC /* 0000008A */
00000080  7001                     moveq.l    D0, 0x01
label00000082:
00000082  4CDF 0810                movem.l    D4,A3, [A7]+
00000086  4E5E                     unlink     A6
00000088  4E75                     rts
label0000008A:
0000008A  3F3C 0001                move.w     -[A7], 0x1
0000008E  2F0B                     move.l     -[A7], A3
00000090  4EAD 049A                jsr        [A5 + 0x49A /* export_143, CODE:0 @ 00000000 */]
00000094  5C4F                     addq.w     A7, 6
00000096  48C4                     ext.l      D4
00000098  2604                     move.l     D3, D4
0000009A  E583                     asl        D3, 2
0000009C  45ED FF00                lea.l      A2, [A5 - 0x100]
000000A0  258B 3800                move.l     [A2 + D3], A3
000000A4  302B 0020                move.w     D0, [A3 + 0x20]
000000A8  6018                     bra        +0x1A /* 000000C2 */
label000000AA:
000000AA  3F2B 0026                move.w     -[A7], [A3 + 0x26]
000000AE  4EAD 072A                jsr        [A5 + 0x72A /* export_225, CODE:0 @ 00000000 */]
000000B2  544F                     addq.w     A7, 2
000000B4  6018                     bra        +0x1A /* 000000CE */
label000000B6:
000000B6  4EAD 0632                jsr        [A5 + 0x632 /* export_194, CODE:0 @ 00000000 */]
000000BA  6012                     bra        +0x14 /* 000000CE */
label000000BC:
000000BC  4EAD 0742                jsr        [A5 + 0x742 /* export_228, CODE:0 @ 00000000 */]
000000C0  600C                     bra        +0xE /* 000000CE */
label000000C2:
000000C2  5340                     subq.w     D0, 1
000000C4  67E4                     beq        -0x1A /* 000000AA */
000000C6  5740                     subq.w     D0, 3
000000C8  67EC                     beq        -0x12 /* 000000B6 */
000000CA  5540                     subq.w     D0, 2
000000CC  67EE                     beq        -0x10 /* 000000BC */
label000000CE:
000000CE  3F3C 0001                move.w     -[A7], 0x1
000000D2  2F0B                     move.l     -[A7], A3
000000D4  4EAD 078A                jsr        [A5 + 0x78A /* export_237, CODE:0 @ 00000000 */]
000000D8  5C4F                     addq.w     A7, 6
000000DA  2F00                     move.l     -[A7], D0
000000DC  487A 005B                pea.l      [PC + 0x5B /* 00000139, value 0x796F7520 'you ', cstring "you are now wearing %s" */]
000000E0  4EAD 0502                jsr        [A5 + 0x502 /* export_156, CODE:0 @ 00000000 */]
000000E4  504F                     addq.w     A7, 8
000000E6  7001                     moveq.l    D0, 0x01
000000E8  6098                     bra        -0x66 /* 00000082 */
label000000EA:
000000EA  422D E471                clr.b      [A5 - 0x1B8F]
000000EE  7000                     moveq.l    D0, 0x00
000000F0  6090                     bra        -0x6E /* 00000082 */
000000F2  796F                     moveq.l    D4, 0x6F
000000F4  7520                     moveq.l    D2, 0x20
000000F6  6361                     bls        +0x63 /* 00000159 */
000000F8  6E27                     bgt        +0x29 /* 00000121 */
000000FA  7420                     moveq.l    D2, 0x20
000000FC  7075                     moveq.l    D0, 0x75
000000FE  7420                     moveq.l    D2, 0x20
00000100  7468                     moveq.l    D2, 0x68
00000102  6174                     bsr        +0x76 /* 00000178 */
00000104  206F 6E20                movea.l    A0, [A7 + 0x6E20]
00000108  796F                     moveq.l    D4, 0x6F
0000010A  7572                     moveq.l    D2, 0x72
0000010C  2066                     movea.l    A0, -[A6]
0000010E  696E                     bvs        +0x70 /* 0000017E */
00000110  6765                     beq        +0x67 /* 00000177 */
00000112  7200                     moveq.l    D1, 0x00
00000114  796F                     moveq.l    D4, 0x6F
00000116  7520                     moveq.l    D2, 0x20
00000118  616C                     bsr        +0x6E /* 00000186 */
0000011A  7265                     moveq.l    D1, 0x65
0000011C  6164                     bsr        +0x66 /* 00000182 */
0000011E  7920                     moveq.l    D4, 0x20
00000120  6861                     bvc        +0x63 /* 00000183 */
00000122  7665                     moveq.l    D3, 0x65
00000124  2061                     movea.l    A0, -[A1]
00000126  2072 696E                movea.l    A0, <<invalid full ext with IS == 1 and I/IS == 6>>
0000012A  6720                     beq        +0x22 /* 0000014C */
0000012C  6F6E                     ble        +0x70 /* 0000019C */
0000012E  2065                     movea.l    A0, -[A5]
00000130  6163                     bsr        +0x65 /* 00000195 */
00000132  6820                     bvc        +0x22 /* 00000154 */
00000134  6861                     bvc        +0x63 /* 00000197 */
00000136  6E64                     bgt        +0x66 /* 0000019C */
00000138  0079 6F75 2061 7265      ori.w      [0x20617265], 0x6F75 /* 'ou' */
00000140  206E 6F77                movea.l    A0, [A6 + 0x6F77]
00000144  2077 6561 7269           movea.l    A0, [[A7 + 0x7269]]
0000014A  6E67                     bgt        +0x69 /* 000001B3 */
label0000014C:
0000014C  2025                     move.l     D0, -[A5]
0000014E  7300                     moveq.l    D1, 0x00
00000150  4E56 0000                link       A6, 0
label00000154:
00000154  48E7 0810                movem.l    -[A7], D4,A3
00000158  266E 0008                movea.l    A3, [A6 + 0x8]
0000015C  B7ED FF00                cmpa.l     A3, [A5 - 0x100]
00000160  6604                     bne        +0x6 /* 00000166 */
00000162  7800                     moveq.l    D4, 0x00
00000164  6014                     bra        +0x16 /* 0000017A */
label00000166:
00000166  B7ED FF04                cmpa.l     A3, [A5 - 0xFC]
0000016A  6604                     bne        +0x6 /* 00000170 */
0000016C  7801                     moveq.l    D4, 0x01
0000016E  600A                     bra        +0xC /* 0000017A */
label00000170:
00000170  7000                     moveq.l    D0, 0x00
label00000172:
00000172  4CDF 0810                movem.l    D4,A3, [A7]+
00000176  4E5E                     unlink     A6
fn00000178:
00000178  4E75                     rts
label0000017A:
0000017A  2F0B                     move.l     -[A7], A3
0000017C  4EAD 05E2                jsr        [A5 + 0x5E2 /* export_184, CODE:0 @ 00000000 */]
// begin alternate branch 0000017E-00000180
label0000017E:
0000017E  05E2                     .incomplete
// end alternate branch 0000017E-00000180
label0000017E: // (misaligned)
00000180  584F                     addq.w     A7, 4
fn00000182:
00000182  4A40                     tst.w      D0
00000184  671C                     beq        +0x1E /* 000001A2 */
fn00000186:
00000186  3F3C 0001                move.w     -[A7], 0x1
0000018A  2F0B                     move.l     -[A7], A3
0000018C  4EAD 078A                jsr        [A5 + 0x78A /* export_237, CODE:0 @ 00000000 */]
00000190  5C4F                     addq.w     A7, 6
00000192  2F00                     move.l     -[A7], D0
00000194  487A 0010                pea.l      [PC + 0x10 /* 000001A6, value 0x596F7520 'You ', cstring "You were wearing %s" */]
00000198  4EAD 0502                jsr        [A5 + 0x502 /* export_156, CODE:0 @ 00000000 */]
label0000019C:
0000019C  504F                     addq.w     A7, 8
0000019E  7001                     moveq.l    D0, 0x01
000001A0  60D0                     bra        -0x2E /* 00000172 */
label000001A2:
000001A2  7000                     moveq.l    D0, 0x00
000001A4  60CC                     bra        -0x32 /* 00000172 */
000001A6  596F 7520                subq.w     [A7 + 0x7520], 4
000001AA  7765                     moveq.l    D3, 0x65
000001AC  7265                     moveq.l    D1, 0x65
000001AE  2077 6561 7269           movea.l    A0, [[A7 + 0x7269]]
000001B4  6E67                     bgt        +0x69 /* 0000021D */
000001B6  2025                     move.l     D0, -[A5]
000001B8  7300                     moveq.l    D1, 0x00
000001BA  4E56 0000                link       A6, 0
000001BE  2F04                     move.l     -[A7], D4
000001C0  382E 0008                move.w     D4, [A6 + 0x8]
000001C4  48C4                     ext.l      D4
000001C6  2604                     move.l     D3, D4
000001C8  E583                     asl        D3, 2
000001CA  45ED FF00                lea.l      A2, [A5 - 0x100]
000001CE  4AB2 3800                tst.l      [A2 + D3]
000001D2  6608                     bne        +0xA /* 000001DC */
000001D4  7000                     moveq.l    D0, 0x00
label000001D6:
000001D6  281F                     move.l     D4, [A7]+
000001D8  4E5E                     unlink     A6
000001DA  4E75                     rts
label000001DC:
000001DC  48C4                     ext.l      D4
000001DE  2604                     move.l     D3, D4
000001E0  E583                     asl        D3, 2
000001E2  45ED FF00                lea.l      A2, [A5 - 0x100]
000001E6  2272 3800                movea.l    A1, [A2 + D3]
000001EA  3029 0020                move.w     D0, [A1 + 0x20]
000001EE  607E                     bra        +0x80 /* 0000026E */
000001F0  7002                     moveq.l    D0, 0x02
000001F2  60E2                     bra        -0x1C /* 000001D6 */
000001F4  7001                     moveq.l    D0, 0x01
000001F6  60DE                     bra        -0x20 /* 000001D6 */
000001F8  3F3C 0005                move.w     -[A7], 0x5
000001FC  4EAD 0522                jsr        [A5 + 0x522 /* export_160, CODE:0 @ 00000000 */]
00000200  544F                     addq.w     A7, 2
00000202  4A40                     tst.w      D0
00000204  6606                     bne        +0x8 /* 0000020C */
00000206  303C 0001                move.w     D0, 0x1
0000020A  6002                     bra        +0x4 /* 0000020E */
label0000020C:
0000020C  4240                     clr.w      D0
label0000020E:
0000020E  60C6                     bra        -0x38 /* 000001D6 */
00000210  3F3C 0003                move.w     -[A7], 0x3
00000214  4EAD 0522                jsr        [A5 + 0x522 /* export_160, CODE:0 @ 00000000 */]
00000218  544F                     addq.w     A7, 2
0000021A  4A40                     tst.w      D0
0000021C  6606                     bne        +0x8 /* 00000224 */
0000021E  303C 0001                move.w     D0, 0x1
00000222  6002                     bra        +0x4 /* 00000226 */
label00000224:
00000224  4240                     clr.w      D0
label00000226:
00000226  60AE                     bra        -0x50 /* 000001D6 */
00000228  3F3C 0002                move.w     -[A7], 0x2
0000022C  4EAD 0522                jsr        [A5 + 0x522 /* export_160, CODE:0 @ 00000000 */]
00000230  544F                     addq.w     A7, 2
00000232  4440                     neg.w      D0
00000234  60A0                     bra        -0x5E /* 000001D6 */
00000236  3F3C 0005                move.w     -[A7], 0x5
0000023A  4EAD 0522                jsr        [A5 + 0x522 /* export_160, CODE:0 @ 00000000 */]
0000023E  544F                     addq.w     A7, 2
00000240  4A40                     tst.w      D0
00000242  6606                     bne        +0x8 /* 0000024A */
00000244  303C 0001                move.w     D0, 0x1
00000248  6002                     bra        +0x4 /* 0000024C */
label0000024A:
0000024A  4240                     clr.w      D0
label0000024C:
0000024C  6088                     bra        -0x76 /* 000001D6 */
label0000024E:
0000024E  7000                     moveq.l    D0, 0x00
00000250  6084                     bra        -0x7A /* 000001D6 */
00000252  FF78                     .extension 0xF78 <<F/4-5/7>> // unimplemented
00000254  FF78                     .extension 0xF78 <<F/4-5/7>> // unimplemented
00000256  FF78                     .extension 0xF78 <<F/4-5/7>> // unimplemented
00000258  FF7C                     .extension 0xF7C <<F/4-5/7>> // unimplemented
0000025A  FFBA                     .invalid   <<F/6/7>>
0000025C  FFD2                     .invalid   <<F/7/7>>
0000025E  FFD2                     .invalid   <<F/7/7>>
00000260  FF94                     .invalid   <<F/6/7>>
00000262  FF94                     .invalid   <<F/6/7>>
00000264  FF74                     .extension 0xF74 <<F/4-5/7>> // unimplemented
00000266  FFAC                     .invalid   <<F/6/7>>
00000268  FFD2                     .invalid   <<F/7/7>>
0000026A  FF78                     .extension 0xF78 <<F/4-5/7>> // unimplemented
0000026C  FF78                     .extension 0xF78 <<F/4-5/7>> // unimplemented
label0000026E:
0000026E  B07C 000E                cmp.w      D0, 0xE
00000272  64DA                     bcc        -0x24 /* 0000024E */
00000274  E340                     asl        D0.w, 1
00000276  303B 00DA                move.w     D0, [PC + D0.w - 0x26]
0000027A  4EFB 0000                jmp        [PC + D0.w]
0000027E  6000 FF56                bra        -0xA8 /* 000001D6 */
