# near model CODE resource
# jump table entries: 0-97 (98 of them)
label00000000:
00000000  41FA 363C                lea.l      A0, [PC + 0x363C /* 0000363E, value 0x4E56FF70 */]
00000004  2B48 F684                move.l     [A5 - 0x97C], A0
00000008  43ED F228                lea.l      A1, [A5 - 0xDD8]
0000000C  2B49 F688                move.l     [A5 - 0x978], A1
00000010  42A7                     clr.l      -[A7]
00000012  4267                     clr.w      -[A7]
00000014  4EBA 000A                jsr        [PC + 0xA /* 00000020 */]
00000018  5C4F                     addq.w     A7, 6
0000001A  4267                     clr.w      -[A7]
0000001C  4EBA 2FA8                jsr        [PC + 0x2FA8 /* 00002FC6 */]
fn00000020:
00000020  4E56 FEF4                link       A6, -0x010C
00000024  486E FFFE                pea.l      [A6 - 0x2]
00000028  486E FFFC                pea.l      [A6 - 0x4]
0000002C  4EBA 3922                jsr        [PC + 0x3922 /* 00003950 */]
00000030  504F                     addq.w     A7, 8
00000032  0C6E 0001 FFFC           cmpi.w     [A6 - 0x4], 0x1
00000038  6604                     bne        +0x6 /* 0000003E */
0000003A  426E FFFE                clr.w      [A6 - 0x2]
label0000003E:
0000003E  3F2E FFFE                move.w     -[A7], [A6 - 0x2]
00000042  4EAD 0902                jsr        [A5 + 0x902 /* export_284, CODE:0 @ 00000000 */]
00000046  544F                     addq.w     A7, 2
00000048  486D 0902                pea.l      [A5 + 0x902 /* export_284, CODE:0 @ 00000000 */]
0000004C  A9F1                     syscall    UnloadSeg
0000004E  4EAD 0122                jsr        [A5 + 0x122 /* export_32, CODE:0 @ 00000000 */]
00000052  4A6E FFFE                tst.w      [A6 - 0x2]
00000056  6654                     bne        +0x56 /* 000000AC */
00000058  4EAD 0132                jsr        [A5 + 0x132 /* export_34, CODE:0 @ 00000000 */]
0000005C  4267                     clr.w      -[A7]
0000005E  486D 019A                pea.l      [A5 + 0x19A /* export_47, CODE:0 @ 00000000 */]
00000062  4EBA 18C8                jsr        [PC + 0x18C8 /* 0000192C */]
00000066  5C4F                     addq.w     A7, 6
00000068  3F3C 0046                move.w     -[A7], 0x46 /* 'F' */
0000006C  4EAD 075A                jsr        [A5 + 0x75A /* export_231, CODE:0 @ 00000000 */]
00000070  544F                     addq.w     A7, 2
00000072  3F00                     move.w     -[A7], D0
00000074  4267                     clr.w      -[A7]
00000076  487A 1B70                pea.l      [PC + 0x1B70 /* 00001BE8, value 0x4E560000 'NV\0\0', cstring "NV" */]
0000007A  4EAD 0162                jsr        [A5 + 0x162 /* export_40, CODE:0 @ 00000000 */]
0000007E  504F                     addq.w     A7, 8
00000080  4267                     clr.w      -[A7]
00000082  487A 1CF4                pea.l      [PC + 0x1CF4 /* 00001D78, value 0x4E56FFFE */]
00000086  4EBA 18A4                jsr        [PC + 0x18A4 /* 0000192C */]
0000008A  5C4F                     addq.w     A7, 6
0000008C  4267                     clr.w      -[A7]
0000008E  486D 03D2                pea.l      [A5 + 0x3D2 /* export_118, CODE:0 @ 00000000 */]
00000092  4EBA 1898                jsr        [PC + 0x1898 /* 0000192C */]
00000096  5C4F                     addq.w     A7, 6
00000098  4EAD 01C2                jsr        [A5 + 0x1C2 /* export_52, CODE:0 @ 00000000 */]
0000009C  486D F68C                pea.l      [A5 - 0x974]
000000A0  487A 003E                pea.l      [PC + 0x3E /* 000000E0, value 0x48656C6C 'Hell', cstring "Hello %s, welcome to the Dungeo"... */]
000000A4  4EAD 0502                jsr        [A5 + 0x502 /* export_156, CODE:0 @ 00000000 */]
000000A8  504F                     addq.w     A7, 8
000000AA  601C                     bra        +0x1E /* 000000C8 */
label000000AC:
000000AC  486E FEF4                pea.l      [A6 - 0x10C]
000000B0  3F3C 0001                move.w     -[A7], 0x1
000000B4  4EBA 38E0                jsr        [PC + 0x38E0 /* 00003996 */]
000000B8  5C4F                     addq.w     A7, 6
000000BA  3F2E FEF4                move.w     -[A7], [A6 - 0x10C]
000000BE  486E FEFC                pea.l      [A6 - 0x104]
000000C2  4EAD 092A                jsr        [A5 + 0x92A /* export_289, CODE:0 @ 00000000 */]
000000C6  5C4F                     addq.w     A7, 6
label000000C8:
000000C8  2F2D F6DC                move.l     -[A7], [A5 - 0x924]
000000CC  A915                     syscall    ShowWindow
000000CE  2F2D F6E0                move.l     -[A7], [A5 - 0x920]
000000D2  A915                     syscall    ShowWindow
000000D4  2F2D F6E4                move.l     -[A7], [A5 - 0x91C]
000000D8  A915                     syscall    ShowWindow
000000DA  612E                     bsr        +0x30 /* 0000010A */
000000DC  4E5E                     unlink     A6
000000DE  4E75                     rts
000000E0  4865 6C6C 6F20 2573      dc.b       "Hello %s"
000000E8  2C20                     move.l     D6, -[A0]
000000EA  7765                     moveq.l    D3, 0x65
000000EC  6C63                     bge        +0x65 /* 00000151 */
000000EE  6F6D                     ble        +0x6F /* 0000015D */
000000F0  6520                     bcs        +0x22 /* 00000112 */
000000F2  746F                     moveq.l    D2, 0x6F
000000F4  2074 6865                movea.l    A0, [A4 + D6 + 0x65]
000000F8  2044                     movea.l    A0, D4
000000FA  756E                     moveq.l    D2, 0x6E
000000FC  6765                     beq        +0x67 /* 00000163 */
000000FE  6F6E                     ble        +0x70 /* 0000016E */
00000100  7320                     moveq.l    D1, 0x20
00000102  6F66                     ble        +0x68 /* 0000016A */
00000104  2044                     movea.l    A0, D4
00000106  6F6F                     ble        +0x71 /* 00000177 */
00000108  6D00 4E56                blt        +0x4E58 /* 00004F60 */
// begin alternate branch 0000010A-0000010E
fn0000010A:
0000010A  4E56 FFF0                link       A6, -0x0010
// end alternate branch 0000010A-0000010E
fn0000010A: // (misaligned)
0000010C  FFF0                     .invalid   <<F/7/7>>
0000010E  3B7C 003C F23C           move.w     [A5 - 0xDC4], 0x3C /* '<' */
// begin alternate branch 00000112-0000011A
label00000112:
00000112  F23C 3B7C                .invalid   fmove, !rm
00000116  0064 F23E                ori.w      -[A4], 0xF23E
// end alternate branch 00000112-0000011A
label00000112: // (misaligned)
00000114  3B7C 0064 F23E           move.w     [A5 - 0xDC2], 0x64 /* 'd' */
0000011A  362D F6F6                move.w     D3, [A5 - 0x90A]
0000011E  967C 0018                sub.w      D3, 0x18
00000122  3B43 F240                move.w     [A5 - 0xDC0], D3
00000126  3B6D F6F8 F242           move.w     [A5 - 0xDBE], [A5 - 0x908]
label0000012C:
0000012C  4EAD 0122                jsr        [A5 + 0x122 /* export_32, CODE:0 @ 00000000 */]
00000130  4A2D E470                tst.b      [A5 - 0x1B90]
00000134  670C                     beq        +0xE /* 00000142 */
00000136  4EAD 0862                jsr        [A5 + 0x862 /* export_264, CODE:0 @ 00000000 */]
0000013A  4EAD 0122                jsr        [A5 + 0x122 /* export_32, CODE:0 @ 00000000 */]
0000013E  532D E470                subq.b     [A5 - 0x1B90], 1
label00000142:
00000142  4267                     clr.w      -[A7]
00000144  3F3C 0140                move.w     -[A7], 0x140
00000148  486E FFF0                pea.l      [A6 - 0x10]
0000014C  A970                     syscall    GetNextEvent
0000014E  101F                     move.b     D0, [A7]+
00000150  4A00                     tst.b      D0
00000152  662C                     bne        +0x2E /* 00000180 */
00000154  4267                     clr.w      -[A7]
00000156  3F3C FFFF                move.w     -[A7], 0xFFFF
0000015A  486E FFF0                pea.l      [A6 - 0x10]
0000015E  A970                     syscall    GetNextEvent
00000160  101F                     move.b     D0, [A7]+
00000162  4A00                     tst.b      D0
00000164  661A                     bne        +0x1C /* 00000180 */
00000166  A9B4                     syscall    SystemTask
00000168  3F3C 0001                move.w     -[A7], 0x1
// begin alternate branch 0000016A-00000178
label0000016A:
0000016A  0001 4EAD                ori.b      D1, 0xAD
label0000016E:
0000016E  08B2 544F 4AAD           bclr.b     [A2 + D4 * 2 - 0x53], 0x4F /* 'O' */
00000174  F6E8 6706                .extension 0x6E8 <<F/2-3/3>> // unimplemented
// end alternate branch 0000016A-00000178
label0000016A: // (misaligned)
0000016C  4EAD 08B2                jsr        [A5 + 0x8B2 /* export_274, CODE:0 @ 00000000 */]
label0000016E: // (misaligned)
00000170  544F                     addq.w     A7, 2
00000172  4AAD F6E8                tst.l      [A5 - 0x918]
00000176  6706                     beq        +0x8 /* 0000017E */
00000178  2F2D F6E8                move.l     -[A7], [A5 - 0x918]
0000017C  A9DA                     syscall    TEIdle
label0000017E:
0000017E  60AC                     bra        -0x52 /* 0000012C */
label00000180:
00000180  486E FFF0                pea.l      [A6 - 0x10]
00000184  6108                     bsr        +0xA /* 0000018E */
00000186  584F                     addq.w     A7, 4
00000188  60A2                     bra        -0x5C /* 0000012C */
0000018A  4E5E                     unlink     A6
0000018C  4E75                     rts
fn0000018E:
0000018E  4E56 FFF0                link       A6, -0x0010
00000192  48E7 0E10                movem.l    -[A7], D4,D5,D6,A3
00000196  266E 0008                movea.l    A3, [A6 + 0x8]
0000019A  3013                     move.w     D0, [A3]
0000019C  6000 0252                bra        +0x254 /* 000003F0 */
000001A0  42A7                     clr.l      -[A7]
000001A2  A924                     syscall    FrontWindow
000001A4  201F                     move.l     D0, [A7]+
000001A6  2D40 FFF8                move.l     [A6 - 0x8], D0
000001AA  4267                     clr.w      -[A7]
000001AC  2F2B 000A                move.l     -[A7], [A3 + 0xA]
000001B0  486E FFFC                pea.l      [A6 - 0x4]
000001B4  A92C                     syscall    FindWindow
000001B6  301F                     move.w     D0, [A7]+
000001B8  3A00                     move.w     D5, D0
000001BA  6000 0170                bra        +0x172 /* 0000032C */
000001BE  42A7                     clr.l      -[A7]
000001C0  2F2B 000A                move.l     -[A7], [A3 + 0xA]
000001C4  A93D                     syscall    MenuSelect
000001C6  201F                     move.l     D0, [A7]+
000001C8  2F00                     move.l     -[A7], D0
000001CA  4EBA 02F6                jsr        [PC + 0x2F6 /* 000004C2 */]
000001CE  584F                     addq.w     A7, 4
000001D0  6000 016A                bra        +0x16C /* 0000033C */
000001D4  2F0B                     move.l     -[A7], A3
000001D6  2F2E FFFC                move.l     -[A7], [A6 - 0x4]
000001DA  A9B3                     syscall    SystemClick
000001DC  6000 015E                bra        +0x160 /* 0000033C */
000001E0  2F2E FFFC                move.l     -[A7], [A6 - 0x4]
000001E4  2F2B 000A                move.l     -[A7], [A3 + 0xA]
000001E8  486D F6FA                pea.l      [A5 - 0x906]
000001EC  A925                     syscall    DragWindow
000001EE  6000 014C                bra        +0x14E /* 0000033C */
000001F2  4267                     clr.w      -[A7]
000001F4  2F2E FFFC                move.l     -[A7], [A6 - 0x4]
000001F8  2F2B 000A                move.l     -[A7], [A3 + 0xA]
000001FC  A91E                     syscall    TrackGoAway
000001FE  101F                     move.b     D0, [A7]+
00000200  4A00                     tst.b      D0
00000202  6710                     beq        +0x12 /* 00000214 */
00000204  2F2E FFFC                move.l     -[A7], [A6 - 0x4]
00000208  A916                     syscall    HideWindow
0000020A  2F2E FFFC                move.l     -[A7], [A6 - 0x4]
0000020E  4EAD 081A                jsr        [A5 + 0x81A /* export_255, CODE:0 @ 00000000 */]
00000212  584F                     addq.w     A7, 4
label00000214:
00000214  6000 0126                bra        +0x128 /* 0000033C */
00000218  246E FFFC                movea.l    A2, [A6 - 0x4]
0000021C  B5EE FFF8                cmpa.l     A2, [A6 - 0x8]
00000220  6638                     bne        +0x3A /* 0000025A */
00000222  246E FFFC                movea.l    A2, [A6 - 0x4]
00000226  262A 0098                move.l     D3, [A2 + 0x98]
0000022A  C6BC 0000 0100           and.l      D3, 0x100
00000230  6728                     beq        +0x2A /* 0000025A */
00000232  42A7                     clr.l      -[A7]
00000234  2F2E FFFC                move.l     -[A7], [A6 - 0x4]
00000238  2F2B 000A                move.l     -[A7], [A3 + 0xA]
0000023C  486D F23C                pea.l      [A5 - 0xDC4]
00000240  A92B                     syscall    GrowWindow
00000242  201F                     move.l     D0, [A7]+
00000244  2C00                     move.l     D6, D0
00000246  4A80                     tst.l      D0
00000248  670C                     beq        +0xE /* 00000256 */
0000024A  2F06                     move.l     -[A7], D6
0000024C  2F2E FFFC                move.l     -[A7], [A6 - 0x4]
00000250  4EAD 088A                jsr        [A5 + 0x88A /* export_269, CODE:0 @ 00000000 */]
00000254  504F                     addq.w     A7, 8
label00000256:
00000256  6000 00E4                bra        +0xE6 /* 0000033C */
label0000025A:
0000025A  246E FFFC                movea.l    A2, [A6 - 0x4]
0000025E  B5EE FFF8                cmpa.l     A2, [A6 - 0x8]
00000262  670A                     beq        +0xC /* 0000026E */
00000264  2F2E FFFC                move.l     -[A7], [A6 - 0x4]
00000268  A91F                     syscall    SelectWindow
0000026A  6000 00B0                bra        +0xB2 /* 0000031C */
label0000026E:
0000026E  262B 0006                move.l     D3, [A3 + 0x6]
00000272  96AD F6EE                sub.l      D3, [A5 - 0x912]
00000276  2F03                     move.l     -[A7], D3
00000278  4EBA 3758                jsr        [PC + 0x3758 /* 000039D2 */]
0000027C  261F                     move.l     D3, [A7]+
0000027E  B680                     cmp.l      D3, D0
00000280  5DC3                     slt        D3
00000282  C67C 0001                and.w      D3, 0x1
00000286  3B43 F6EC                move.w     [A5 - 0x914], D3
0000028A  2F2E FFFC                move.l     -[A7], [A6 - 0x4]
0000028E  A873                     syscall    SetPort
00000290  45EE FFF0                lea.l      A2, [A6 - 0x10]
00000294  224B                     movea.l    A1, A3
00000296  D3FC 0000 000A           add.l      A1, 0xA /* '\n' */
0000029C  24D9                     move.l     [A2]+, [A1]+
0000029E  486E FFF0                pea.l      [A6 - 0x10]
000002A2  A871                     syscall    GlobalToLocal
000002A4  4267                     clr.w      -[A7]
000002A6  2F2E FFF0                move.l     -[A7], [A6 - 0x10]
000002AA  2F2E FFFC                move.l     -[A7], [A6 - 0x4]
000002AE  486E FFF4                pea.l      [A6 - 0xC]
000002B2  A96C                     syscall    FindControl
000002B4  301F                     move.w     D0, [A7]+
000002B6  3A00                     move.w     D5, D0
000002B8  4A40                     tst.w      D0
000002BA  6722                     beq        +0x24 /* 000002DE */
000002BC  362B 000E                move.w     D3, [A3 + 0xE]
000002C0  C67C 0200                and.w      D3, 0x200
000002C4  3F03                     move.w     -[A7], D3
000002C6  2F2E FFF0                move.l     -[A7], [A6 - 0x10]
000002CA  3F05                     move.w     -[A7], D5
000002CC  2F2E FFF4                move.l     -[A7], [A6 - 0xC]
000002D0  2F2E FFFC                move.l     -[A7], [A6 - 0x4]
000002D4  4EAD 04BA                jsr        [A5 + 0x4BA /* export_147, CODE:0 @ 00000000 */]
000002D8  DEFC 0010                add.w      A7, 0x10
000002DC  603E                     bra        +0x40 /* 0000031C */
label000002DE:
000002DE  246E FFFC                movea.l    A2, [A6 - 0x4]
000002E2  202A 0098                move.l     D0, [A2 + 0x98]
000002E6  C0BC 0000 00FF           and.l      D0, 0xFF
000002EC  6022                     bra        +0x24 /* 00000310 */
label000002EE:
000002EE  2F2B 000A                move.l     -[A7], [A3 + 0xA]
000002F2  4EBA 031A                jsr        [PC + 0x31A /* 0000060E */]
000002F6  584F                     addq.w     A7, 4
000002F8  6022                     bra        +0x24 /* 0000031C */
label000002FA:
000002FA  2F0B                     move.l     -[A7], A3
000002FC  4EBA 1028                jsr        [PC + 0x1028 /* 00001326 */]
00000300  584F                     addq.w     A7, 4
00000302  6018                     bra        +0x1A /* 0000031C */
label00000304:
00000304  2F2B 000A                move.l     -[A7], [A3 + 0xA]
00000308  4EBA 129E                jsr        [PC + 0x129E /* 000015A8 */]
0000030C  584F                     addq.w     A7, 4
0000030E  600C                     bra        +0xE /* 0000031C */
label00000310:
00000310  5340                     subq.w     D0, 1
00000312  67E6                     beq        -0x18 /* 000002FA */
00000314  5340                     subq.w     D0, 1
00000316  67D6                     beq        -0x28 /* 000002EE */
00000318  5340                     subq.w     D0, 1
0000031A  67E8                     beq        -0x16 /* 00000304 */
label0000031C:
0000031C  601E                     bra        +0x20 /* 0000033C */
0000031E  0002 FE84                ori.b      D2, 0x84
00000322  FE9A FF20                .extension 0xE9A <<F/2-3/7>> // unimplemented
00000326  FEA6 FEDE                .extension 0xEA6 <<F/2-3/7>> // unimplemented
0000032A  FEB8 B07C                .extension 0xEB8 <<F/2-3/7>> // unimplemented
// begin alternate branch 0000032C-00000332
label0000032C:
0000032C  B07C 0007                cmp.w      D0, 0x7
00000330  640A                     bcc        +0xC /* 0000033C */
// end alternate branch 0000032C-00000332
label0000032C: // (misaligned)
0000032E  0007 640A                ori.b      D7, 0xA /* '\n' */
00000332  E340                     asl        D0.w, 1
00000334  303B 00E8                move.w     D0, [PC + D0.w - 0x18]
00000338  4EFB 0000                jmp        [PC + D0.w]
label0000033C:
0000033C  6000 00C2                bra        +0xC4 /* 00000400 */
00000340  262B 0002                move.l     D3, [A3 + 0x2]
00000344  C6BC 0000 00FF           and.l      D3, 0xFF
0000034A  3803                     move.w     D4, D3
0000034C  42A7                     clr.l      -[A7]
0000034E  3F04                     move.w     -[A7], D4
00000350  A93E                     syscall    MenuKey
00000352  201F                     move.l     D0, [A7]+
00000354  2C00                     move.l     D6, D0
00000356  4A80                     tst.l      D0
00000358  670A                     beq        +0xC /* 00000364 */
0000035A  2F06                     move.l     -[A7], D6
0000035C  4EBA 0164                jsr        [PC + 0x164 /* 000004C2 */]
00000360  584F                     addq.w     A7, 4
00000362  6050                     bra        +0x52 /* 000003B4 */
label00000364:
00000364  4AAD F6E8                tst.l      [A5 - 0x918]
00000368  670A                     beq        +0xC /* 00000374 */
0000036A  3F04                     move.w     -[A7], D4
0000036C  2F2D F6E8                move.l     -[A7], [A5 - 0x918]
00000370  A9DC                     syscall    TEKey
00000372  6040                     bra        +0x42 /* 000003B4 */
label00000374:
00000374  B87C 0009                cmp.w      D4, 0x9 /* '\t' */
00000378  6636                     bne        +0x38 /* 000003B0 */
0000037A  362B 000E                move.w     D3, [A3 + 0xE]
0000037E  C67C 0400                and.w      D3, 0x400
00000382  6704                     beq        +0x6 /* 00000388 */
00000384  780A                     moveq.l    D4, 0x0A
00000386  6002                     bra        +0x4 /* 0000038A */
label00000388:
00000388  7801                     moveq.l    D4, 0x01
label0000038A:
0000038A  362B 000E                move.w     D3, [A3 + 0xE]
0000038E  C67C 0200                and.w      D3, 0x200
00000392  670E                     beq        +0x10 /* 000003A2 */
00000394  3F3C 0001                move.w     -[A7], 0x1
00000398  3F04                     move.w     -[A7], D4
0000039A  4EAD 04CA                jsr        [A5 + 0x4CA /* export_149, CODE:0 @ 00000000 */]
0000039E  584F                     addq.w     A7, 4
000003A0  600C                     bra        +0xE /* 000003AE */
label000003A2:
000003A2  3F3C 0001                move.w     -[A7], 0x1
000003A6  3F04                     move.w     -[A7], D4
000003A8  4EAD 04C2                jsr        [A5 + 0x4C2 /* export_148, CODE:0 @ 00000000 */]
000003AC  584F                     addq.w     A7, 4
label000003AE:
000003AE  6004                     bra        +0x6 /* 000003B4 */
label000003B0:
000003B0  4EAD 068A                jsr        [A5 + 0x68A /* export_205, CODE:0 @ 00000000 */]
label000003B4:
000003B4  604A                     bra        +0x4C /* 00000400 */
000003B6  3F2B 000E                move.w     -[A7], [A3 + 0xE]
000003BA  2F2B 0002                move.l     -[A7], [A3 + 0x2]
000003BE  4EAD 069A                jsr        [A5 + 0x69A /* export_207, CODE:0 @ 00000000 */]
000003C2  5C4F                     addq.w     A7, 6
000003C4  603A                     bra        +0x3C /* 00000400 */
000003C6  2F2B 0002                move.l     -[A7], [A3 + 0x2]
000003CA  4EAD 06A2                jsr        [A5 + 0x6A2 /* export_208, CODE:0 @ 00000000 */]
000003CE  584F                     addq.w     A7, 4
000003D0  602E                     bra        +0x30 /* 00000400 */
000003D2  42A7                     clr.l      -[A7]
000003D4  A975                     syscall    TickCount
000003D6  201F                     move.l     D0, [A7]+
000003D8  2B40 F6EE                move.l     [A5 - 0x912], D0
000003DC  6022                     bra        +0x24 /* 00000400 */
000003DE  0002 FDA2                ori.b      D2, 0xA2
000003E2  FFD4                     .invalid   <<F/7/7>>
000003E4  FF42                     .extension 0xF42 <<F/4-5/7>> // unimplemented
000003E6  0002 FF42                ori.b      D2, 0x42 /* 'B' */
000003EA  FFC8                     .invalid   <<F/7/7>>
000003EC  0002 FFB8                ori.b      D2, 0xB8
label000003F0:
000003F0  B07C 0009                cmp.w      D0, 0x9 /* '\t' */
000003F4  640A                     bcc        +0xC /* 00000400 */
000003F6  E340                     asl        D0.w, 1
000003F8  303B 00E4                move.w     D0, [PC + D0.w - 0x1C]
000003FC  4EFB 0000                jmp        [PC + D0.w]
label00000400:
00000400  4CDF 0870                movem.l    D4,D5,D6,A3, [A7]+
00000404  4E5E                     unlink     A6
00000406  4E75                     rts
00000408  4E56 FFF0                link       A6, -0x0010
0000040C  4267                     clr.w      -[A7]
0000040E  3F2E 0008                move.w     -[A7], [A6 + 0x8]
00000412  486E FFF0                pea.l      [A6 - 0x10]
00000416  A970                     syscall    GetNextEvent
00000418  101F                     move.b     D0, [A7]+
0000041A  4880                     ext.w      D0
0000041C  4E5E                     unlink     A6
0000041E  4E75                     rts
fn00000420:
00000420  4E56 0000                link       A6, 0
00000424  2F0B                     move.l     -[A7], A3
00000426  266D F702                movea.l    A3, [A5 - 0x8FE]
0000042A  D7FC 0000 0010           add.l      A3, 0x10
00000430  2F2D F702                move.l     -[A7], [A5 - 0x8FE]
00000434  A873                     syscall    SetPort
00000436  246D F702                movea.l    A2, [A5 - 0x8FE]
0000043A  2F2A 0018                move.l     -[A7], [A2 + 0x18]
0000043E  2F0B                     move.l     -[A7], A3
00000440  A8DF                     syscall    RectRgn
00000442  2F0B                     move.l     -[A7], A3
00000444  A87B                     syscall    ClipRect
00000446  2F0B                     move.l     -[A7], A3
00000448  486D F65E                pea.l      [A5 - 0x9A2]
0000044C  A8A5                     syscall    FillRect
0000044E  265F                     movea.l    A3, [A7]+
00000450  4E5E                     unlink     A6
00000452  4E75                     rts
fn00000454:
00000454  4E56 FEEE                link       A6, -0x0112
00000458  61C6                     bsr        -0x38 /* 00000420 */
0000045A  486E FEEE                pea.l      [A6 - 0x112]
0000045E  A976                     syscall    GetKeys
00000460  4267                     clr.w      -[A7]
00000462  486E FEEE                pea.l      [A6 - 0x112]
00000466  2F3C 0000 003D           move.l     -[A7], 0x3D /* '=' */
0000046C  A85D                     syscall    BitTst
0000046E  101F                     move.b     D0, [A7]+
00000470  4A00                     tst.b      D0
00000472  6708                     beq        +0xA /* 0000047C */
00000474  4267                     clr.w      -[A7]
00000476  4EBA 2B4E                jsr        [PC + 0x2B4E /* 00002FC6 */]
0000047A  544F                     addq.w     A7, 2
label0000047C:
0000047C  486E FEFE                pea.l      [A6 - 0x102]
00000480  486E FF00                pea.l      [A6 - 0x100]
00000484  4EBA 22E0                jsr        [PC + 0x22E0 /* 00002766 */]
00000488  504F                     addq.w     A7, 8
0000048A  3F2E FEFE                move.w     -[A7], [A6 - 0x102]
0000048E  486E FF00                pea.l      [A6 - 0x100]
00000492  4EAD 01F2                jsr        [A5 + 0x1F2 /* export_58, CODE:0 @ 00000000 */]
00000496  5C4F                     addq.w     A7, 6
00000498  4A40                     tst.w      D0
0000049A  6708                     beq        +0xA /* 000004A4 */
0000049C  4267                     clr.w      -[A7]
0000049E  4EBA 2B26                jsr        [PC + 0x2B26 /* 00002FC6 */]
000004A2  544F                     addq.w     A7, 2
label000004A4:
000004A4  4EBA 1FE6                jsr        [PC + 0x1FE6 /* 0000248C */]
000004A8  4E5E                     unlink     A6
000004AA  4E75                     rts
000004AC  4E56 0000                link       A6, 0
000004B0  48E7 1020                movem.l    -[A7], D3,A2
000004B4  4267                     clr.w      -[A7]
000004B6  619C                     bsr        -0x62 /* 00000454 */
000004B8  544F                     addq.w     A7, 2
000004BA  4CDF 0408                movem.l    D3,A2, [A7]+
000004BE  4E5E                     unlink     A6
000004C0  4E75                     rts
fn000004C2:
000004C2  4E56 0000                link       A6, 0
000004C6  2F2E 0008                move.l     -[A7], [A6 + 0x8]
000004CA  4EAD 0812                jsr        [A5 + 0x812 /* export_254, CODE:0 @ 00000000 */]
000004CE  584F                     addq.w     A7, 4
000004D0  4A40                     tst.w      D0
000004D2  6708                     beq        +0xA /* 000004DC */
000004D4  4EAD 0122                jsr        [A5 + 0x122 /* export_32, CODE:0 @ 00000000 */]
000004D8  4EBA 11EA                jsr        [PC + 0x11EA /* 000016C4 */]
label000004DC:
000004DC  4E5E                     unlink     A6
000004DE  4E75                     rts
000004E0  4E56 0000                link       A6, 0
000004E4  48E7 0F10                movem.l    -[A7], D4,D5,D6,D7,A3
000004E8  246E 000C                movea.l    A2, [A6 + 0xC]
000004EC  382A 0002                move.w     D4, [A2 + 0x2]
000004F0  246E 000C                movea.l    A2, [A6 + 0xC]
000004F4  3A12                     move.w     D5, [A2]
000004F6  246E 0008                movea.l    A2, [A6 + 0x8]
000004FA  362A 0002                move.w     D3, [A2 + 0x2]
000004FE  B66D F70C                cmp.w      D3, [A5 - 0x8F4]
00000502  6D3E                     blt        +0x40 /* 00000542 */
00000504  246E 0008                movea.l    A2, [A6 + 0x8]
00000508  362A 0002                move.w     D3, [A2 + 0x2]
0000050C  D644                     add.w      D3, D4
0000050E  342D F70C                move.w     D2, [A5 - 0x8F4]
00000512  D46D F71A                add.w      D2, [A5 - 0x8E6]
00000516  B642                     cmp.w      D3, D2
00000518  6E28                     bgt        +0x2A /* 00000542 */
0000051A  246E 0008                movea.l    A2, [A6 + 0x8]
0000051E  3612                     move.w     D3, [A2]
00000520  B66D F70E                cmp.w      D3, [A5 - 0x8F2]
00000524  6D1C                     blt        +0x1E /* 00000542 */
00000526  246E 0008                movea.l    A2, [A6 + 0x8]
0000052A  3612                     move.w     D3, [A2]
0000052C  D645                     add.w      D3, D5
0000052E  342D F70E                move.w     D2, [A5 - 0x8F2]
00000532  D46D F718                add.w      D2, [A5 - 0x8E8]
00000536  B642                     cmp.w      D3, D2
00000538  6E08                     bgt        +0xA /* 00000542 */
label0000053A:
0000053A  4CDF 08F0                movem.l    D4,D5,D6,D7,A3, [A7]+
0000053E  4E5E                     unlink     A6
00000540  4E75                     rts
label00000542:
00000542  362D F716                move.w     D3, [A5 - 0x8EA]
00000546  9645                     sub.w      D3, D5
00000548  48C3                     ext.l      D3
0000054A  87FC 0002                divs.w     D3, 0x2
0000054E  3643                     movea.w    A3, D3
00000550  B67C 0000                cmp.w      D3, 0x0
00000554  6C02                     bge        +0x4 /* 00000558 */
00000556  97CB                     sub.l      A3, A3
label00000558:
00000558  246E 0008                movea.l    A2, [A6 + 0x8]
0000055C  3E12                     move.w     D7, [A2]
0000055E  9E4B                     sub.w      D7, A3
00000560  246E 0008                movea.l    A2, [A6 + 0x8]
00000564  226E 0010                movea.l    A1, [A6 + 0x10]
00000568  362A 0002                move.w     D3, [A2 + 0x2]
0000056C  B669 0002                cmp.w      D3, [A1 + 0x2]
00000570  660E                     bne        +0x10 /* 00000580 */
00000572  246E 0008                movea.l    A2, [A6 + 0x8]
00000576  3C2A 0002                move.w     D6, [A2 + 0x2]
0000057A  5346                     subq.w     D6, 1
0000057C  6000 0082                bra        +0x84 /* 00000600 */
label00000580:
00000580  246E 0008                movea.l    A2, [A6 + 0x8]
00000584  362A 0002                move.w     D3, [A2 + 0x2]
00000588  D644                     add.w      D3, D4
0000058A  5343                     subq.w     D3, 1
0000058C  246E 0010                movea.l    A2, [A6 + 0x10]
00000590  B66A 0002                cmp.w      D3, [A2 + 0x2]
00000594  6612                     bne        +0x14 /* 000005A8 */
00000596  246E 0010                movea.l    A2, [A6 + 0x10]
0000059A  362A 0002                move.w     D3, [A2 + 0x2]
0000059E  5443                     addq.w     D3, 2
000005A0  3C03                     move.w     D6, D3
000005A2  9C6D F714                sub.w      D6, [A5 - 0x8EC]
000005A6  6058                     bra        +0x5A /* 00000600 */
label000005A8:
000005A8  362D F714                move.w     D3, [A5 - 0x8EC]
000005AC  9644                     sub.w      D3, D4
000005AE  48C3                     ext.l      D3
000005B0  87FC 0002                divs.w     D3, 0x2
000005B4  3643                     movea.w    A3, D3
000005B6  B67C 0000                cmp.w      D3, 0x0
000005BA  6C02                     bge        +0x4 /* 000005BE */
000005BC  97CB                     sub.l      A3, A3
label000005BE:
000005BE  246E 0008                movea.l    A2, [A6 + 0x8]
000005C2  3C2A 0002                move.w     D6, [A2 + 0x2]
000005C6  9C4B                     sub.w      D6, A3
000005C8  246E 0008                movea.l    A2, [A6 + 0x8]
000005CC  226E 0010                movea.l    A1, [A6 + 0x10]
000005D0  3612                     move.w     D3, [A2]
000005D2  B651                     cmp.w      D3, [A1]
000005D4  660A                     bne        +0xC /* 000005E0 */
000005D6  246E 0008                movea.l    A2, [A6 + 0x8]
000005DA  3E12                     move.w     D7, [A2]
000005DC  5347                     subq.w     D7, 1
000005DE  6020                     bra        +0x22 /* 00000600 */
label000005E0:
000005E0  246E 0008                movea.l    A2, [A6 + 0x8]
000005E4  3612                     move.w     D3, [A2]
000005E6  D645                     add.w      D3, D5
000005E8  5343                     subq.w     D3, 1
000005EA  246E 0010                movea.l    A2, [A6 + 0x10]
000005EE  B652                     cmp.w      D3, [A2]
000005F0  660E                     bne        +0x10 /* 00000600 */
000005F2  246E 0010                movea.l    A2, [A6 + 0x10]
000005F6  3612                     move.w     D3, [A2]
000005F8  5443                     addq.w     D3, 2
000005FA  3E03                     move.w     D7, D3
000005FC  9E6D F716                sub.w      D7, [A5 - 0x8EA]
label00000600:
00000600  3F06                     move.w     -[A7], D6
00000602  3F07                     move.w     -[A7], D7
00000604  4EBA 03FC                jsr        [PC + 0x3FC /* 00000A02 */]
00000608  584F                     addq.w     A7, 4
0000060A  6000 FF2E                bra        -0xD0 /* 0000053A */
fn0000060E:
0000060E  4E56 FFF8                link       A6, -0x0008
00000612  48E7 0F18                movem.l    -[A7], D4,D5,D6,D7,A3,A4
00000616  2F2D FCB2                move.l     -[A7], [A5 - 0x34E]
0000061A  A873                     syscall    SetPort
0000061C  486E 0008                pea.l      [A6 + 0x8]
00000620  A871                     syscall    GlobalToLocal
00000622  4267                     clr.w      -[A7]
00000624  2F2E 0008                move.l     -[A7], [A6 + 0x8]
00000628  486D FC92                pea.l      [A5 - 0x36E]
0000062C  A8AD                     syscall    PtInRect
0000062E  101F                     move.b     D0, [A7]+
00000630  4A00                     tst.b      D0
00000632  6608                     bne        +0xA /* 0000063C */
label00000634:
00000634  4CDF 18F0                movem.l    D4,D5,D6,D7,A3,A4, [A7]+
00000638  4E5E                     unlink     A6
0000063A  4E75                     rts
label0000063C:
0000063C  4267                     clr.w      -[A7]
0000063E  4EAD 005A                jsr        [A5 + 0x5A /* export_7, CODE:0 @ 00000000 */]
00000642  544F                     addq.w     A7, 2
00000644  42A7                     clr.l      -[A7]
00000646  A8D8                     syscall    NewRgn
00000648  201F                     move.l     D0, [A7]+
0000064A  2640                     movea.l    A3, D0
0000064C  2F0B                     move.l     -[A7], A3
0000064E  486D FC92                pea.l      [A5 - 0x36E]
00000652  A8DF                     syscall    RectRgn
00000654  362E 0008                move.w     D3, [A6 + 0x8]
00000658  5843                     addq.w     D3, 4
0000065A  966D FC92                sub.w      D3, [A5 - 0x36E]
0000065E  3D43 FFF8                move.w     [A6 - 0x8], D3
00000662  362E 000A                move.w     D3, [A6 + 0xA]
00000666  D67C 0017                add.w      D3, 0x17
0000066A  966D FC94                sub.w      D3, [A5 - 0x36C]
0000066E  3D43 FFFA                move.w     [A6 - 0x6], D3
00000672  362E 0008                move.w     D3, [A6 + 0x8]
00000676  D67C 0022                add.w      D3, 0x22 /* '\"' */
0000067A  966D FC96                sub.w      D3, [A5 - 0x36A]
0000067E  5243                     addq.w     D3, 1
00000680  3D43 FFFC                move.w     [A6 - 0x4], D3
00000684  362E 000A                move.w     D3, [A6 + 0xA]
00000688  D67C 003F                add.w      D3, 0x3F /* '?' */
0000068C  966D FC98                sub.w      D3, [A5 - 0x368]
00000690  5243                     addq.w     D3, 1
00000692  3D43 FFFE                move.w     [A6 - 0x2], D3
00000696  42A7                     clr.l      -[A7]
00000698  2F0B                     move.l     -[A7], A3
0000069A  2F2E 0008                move.l     -[A7], [A6 + 0x8]
0000069E  486E FFF8                pea.l      [A6 - 0x8]
000006A2  246D FCB2                movea.l    A2, [A5 - 0x34E]
000006A6  D5FC 0000 0010           add.l      A2, 0x10
000006AC  2F0A                     move.l     -[A7], A2
000006AE  4267                     clr.w      -[A7]
000006B0  42A7                     clr.l      -[A7]
000006B2  A905                     syscall    DragGrayRgn
000006B4  201F                     move.l     D0, [A7]+
000006B6  2800                     move.l     D4, D0
000006B8  2F0B                     move.l     -[A7], A3
000006BA  A8D9                     syscall    DisposRgn/DisposeRgn
000006BC  4267                     clr.w      -[A7]
000006BE  2F04                     move.l     -[A7], D4
000006C0  A86A                     syscall    HiWord
000006C2  301F                     move.w     D0, [A7]+
000006C4  3C00                     move.w     D6, D0
000006C6  B07C 8000                cmp.w      D0, 0x8000
000006CA  6604                     bne        +0x6 /* 000006D0 */
000006CC  6000 FF66                bra        -0x98 /* 00000634 */
label000006D0:
000006D0  4267                     clr.w      -[A7]
000006D2  2F04                     move.l     -[A7], D4
000006D4  A86B                     syscall    LoWord
000006D6  301F                     move.w     D0, [A7]+
000006D8  3A00                     move.w     D5, D0
000006DA  362D F70C                move.w     D3, [A5 - 0x8F4]
000006DE  D646                     add.w      D3, D6
000006E0  3F03                     move.w     -[A7], D3
000006E2  362D F70E                move.w     D3, [A5 - 0x8F2]
000006E6  D645                     add.w      D3, D5
000006E8  3F03                     move.w     -[A7], D3
000006EA  4EBA 0316                jsr        [PC + 0x316 /* 00000A02 */]
000006EE  584F                     addq.w     A7, 4
000006F0  3F3C 0001                move.w     -[A7], 0x1
000006F4  4EAD 005A                jsr        [A5 + 0x5A /* export_7, CODE:0 @ 00000000 */]
000006F8  544F                     addq.w     A7, 2
000006FA  6000 FF38                bra        -0xC6 /* 00000634 */
000006FE  4E56 0000                link       A6, 0
00000702  48E7 0C00                movem.l    -[A7], D4,D5
00000706  4EAD 006A                jsr        [A5 + 0x6A /* export_9, CODE:0 @ 00000000 */]
0000070A  362D F70C                move.w     D3, [A5 - 0x8F4]
0000070E  5243                     addq.w     D3, 1
00000710  342D FCC2                move.w     D2, [A5 - 0x33E]
00000714  B443                     cmp.w      D2, D3
00000716  6F3A                     ble        +0x3C /* 00000752 */
00000718  362D F70C                move.w     D3, [A5 - 0x8F4]
0000071C  D66D F714                add.w      D3, [A5 - 0x8EC]
00000720  5343                     subq.w     D3, 1
00000722  342D FCC2                move.w     D2, [A5 - 0x33E]
00000726  B443                     cmp.w      D2, D3
00000728  6C28                     bge        +0x2A /* 00000752 */
0000072A  362D F70E                move.w     D3, [A5 - 0x8F2]
0000072E  5243                     addq.w     D3, 1
00000730  342D FCC0                move.w     D2, [A5 - 0x340]
00000734  B443                     cmp.w      D2, D3
00000736  6F1A                     ble        +0x1C /* 00000752 */
00000738  362D F70E                move.w     D3, [A5 - 0x8F2]
0000073C  D66D F716                add.w      D3, [A5 - 0x8EA]
00000740  5343                     subq.w     D3, 1
00000742  342D FCC0                move.w     D2, [A5 - 0x340]
00000746  B443                     cmp.w      D2, D3
00000748  6C08                     bge        +0xA /* 00000752 */
label0000074A:
0000074A  4CDF 0030                movem.l    D4,D5, [A7]+
0000074E  4E5E                     unlink     A6
00000750  4E75                     rts
label00000752:
00000752  362D F71A                move.w     D3, [A5 - 0x8E6]
00000756  48C3                     ext.l      D3
00000758  87FC 0002                divs.w     D3, 0x2
0000075C  382D FCC2                move.w     D4, [A5 - 0x33E]
00000760  9843                     sub.w      D4, D3
00000762  362D F718                move.w     D3, [A5 - 0x8E8]
00000766  48C3                     ext.l      D3
00000768  87FC 0002                divs.w     D3, 0x2
0000076C  3A2D FCC0                move.w     D5, [A5 - 0x340]
00000770  9A43                     sub.w      D5, D3
00000772  3F04                     move.w     -[A7], D4
00000774  3F05                     move.w     -[A7], D5
00000776  4EBA 028A                jsr        [PC + 0x28A /* 00000A02 */]
0000077A  584F                     addq.w     A7, 4
0000077C  60CC                     bra        -0x32 /* 0000074A */
fn0000077E:
0000077E  4E56 FFF8                link       A6, -0x0008
00000782  48E7 0F18                movem.l    -[A7], D4,D5,D6,D7,A3,A4
00000786  382D FCA6                move.w     D4, [A5 - 0x35A]
0000078A  3A2D FCA8                move.w     D5, [A5 - 0x358]
0000078E  362D FCC0                move.w     D3, [A5 - 0x340]
00000792  D645                     add.w      D3, D5
00000794  3F03                     move.w     -[A7], D3
00000796  362D FCC2                move.w     D3, [A5 - 0x33E]
0000079A  D644                     add.w      D3, D4
0000079C  3F03                     move.w     -[A7], D3
0000079E  4EBA 01DC                jsr        [PC + 0x1DC /* 0000097C */]
000007A2  584F                     addq.w     A7, 4
000007A4  4A40                     tst.w      D0
000007A6  6600 0094                bne        +0x96 /* 0000083C */
000007AA  3F2D FCA4                move.w     -[A7], [A5 - 0x35C]
000007AE  3F2D FCA2                move.w     -[A7], [A5 - 0x35E]
000007B2  3F2D FCC0                move.w     -[A7], [A5 - 0x340]
000007B6  3F2D FCC2                move.w     -[A7], [A5 - 0x33E]
000007BA  4EAD 0592                jsr        [A5 + 0x592 /* export_174, CODE:0 @ 00000000 */]
000007BE  504F                     addq.w     A7, 8
000007C0  3640                     movea.w    A3, D0
000007C2  3D40 FFFC                move.w     [A6 - 0x4], D0
000007C6  7EFF                     moveq.l    D7, 0xFFFFFFFF
label000007C8:
000007C8  BE7C 0001                cmp.w      D7, 0x1
000007CC  6E60                     bgt        +0x62 /* 0000082E */
000007CE  7CFF                     moveq.l    D6, 0xFFFFFFFF
label000007D0:
000007D0  BC7C 0001                cmp.w      D6, 0x1
000007D4  6E54                     bgt        +0x56 /* 0000082A */
000007D6  4A47                     tst.w      D7
000007D8  6604                     bne        +0x6 /* 000007DE */
000007DA  4A46                     tst.w      D6
000007DC  6748                     beq        +0x4A /* 00000826 */
label000007DE:
000007DE  362D FCC0                move.w     D3, [A5 - 0x340]
000007E2  D646                     add.w      D3, D6
000007E4  3F03                     move.w     -[A7], D3
000007E6  362D FCC2                move.w     D3, [A5 - 0x33E]
000007EA  D647                     add.w      D3, D7
000007EC  3F03                     move.w     -[A7], D3
000007EE  4EBA 018C                jsr        [PC + 0x18C /* 0000097C */]
000007F2  584F                     addq.w     A7, 4
000007F4  4A40                     tst.w      D0
000007F6  672E                     beq        +0x30 /* 00000826 */
000007F8  3F2D FCA4                move.w     -[A7], [A5 - 0x35C]
000007FC  3F2D FCA2                move.w     -[A7], [A5 - 0x35E]
00000800  362D FCC0                move.w     D3, [A5 - 0x340]
00000804  D646                     add.w      D3, D6
00000806  3F03                     move.w     -[A7], D3
00000808  362D FCC2                move.w     D3, [A5 - 0x33E]
0000080C  D647                     add.w      D3, D7
0000080E  3F03                     move.w     -[A7], D3
00000810  4EAD 0592                jsr        [A5 + 0x592 /* export_174, CODE:0 @ 00000000 */]
00000814  504F                     addq.w     A7, 8
00000816  3840                     movea.w    A4, D0
00000818  B8CB                     cmpa.w     A4, A3
0000081A  6C0A                     bge        +0xC /* 00000826 */
0000081C  3D47 FFF8                move.w     [A6 - 0x8], D7
00000820  3D46 FFFA                move.w     [A6 - 0x6], D6
00000824  364C                     movea.w    A3, A4
label00000826:
00000826  5246                     addq.w     D6, 1
00000828  60A6                     bra        -0x58 /* 000007D0 */
label0000082A:
0000082A  5247                     addq.w     D7, 1
0000082C  609A                     bra        -0x64 /* 000007C8 */
label0000082E:
0000082E  B6EE FFFC                cmpa.w     A3, [A6 - 0x4]
00000832  6C08                     bge        +0xA /* 0000083C */
00000834  382E FFF8                move.w     D4, [A6 - 0x8]
00000838  3A2E FFFA                move.w     D5, [A6 - 0x6]
label0000083C:
0000083C  3B44 FCAA                move.w     [A5 - 0x356], D4
00000840  3B45 FCAC                move.w     [A5 - 0x354], D5
00000844  5244                     addq.w     D4, 1
00000846  3604                     move.w     D3, D4
00000848  C7FC 000C                muls.w     D3, 0xC
0000084C  5245                     addq.w     D5, 1
0000084E  3405                     move.w     D2, D5
00000850  48C2                     ext.l      D2
00000852  E582                     asl        D2, 2
00000854  D682                     add.l      D3, D2
00000856  45ED D72C                lea.l      A2, [A5 - 0x28D4]
0000085A  3432 3800                move.w     D2, [A2 + D3]
0000085E  D47C 012C                add.w      D2, 0x12C
00000862  3D42 FFFE                move.w     [A6 - 0x2], D2
00000866  3604                     move.w     D3, D4
00000868  C7FC 000C                muls.w     D3, 0xC
0000086C  48C5                     ext.l      D5
0000086E  2405                     move.l     D2, D5
00000870  E582                     asl        D2, 2
00000872  D682                     add.l      D3, D2
00000874  45ED D72A                lea.l      A2, [A5 - 0x28D6]
00000878  1B72 3800 FCAE           move.b     [A5 - 0x352], [A2 + D3]
0000087E  4A6E 0008                tst.w      [A6 + 0x8]
00000882  6706                     beq        +0x8 /* 0000088A */
00000884  066E 0064 FFFE           addi.w     [A6 - 0x2], 0x64 /* 'd' */
label0000088A:
0000088A  302E FFFE                move.w     D0, [A6 - 0x2]
0000088E  4CDF 18F0                movem.l    D4,D5,D6,D7,A3,A4, [A7]+
00000892  4E5E                     unlink     A6
00000894  4E75                     rts
00000896  4E56 FFFE                link       A6, -0x0002
0000089A  48E7 0F10                movem.l    -[A7], D4,D5,D6,D7,A3
0000089E  2F2D F6DC                move.l     -[A7], [A5 - 0x924]
000008A2  A873                     syscall    SetPort
000008A4  486E 0008                pea.l      [A6 + 0x8]
000008A8  A871                     syscall    GlobalToLocal
000008AA  362E 0008                move.w     D3, [A6 + 0x8]
000008AE  B66D FC9E                cmp.w      D3, [A5 - 0x362]
000008B2  6F0A                     ble        +0xC /* 000008BE */
000008B4  7000                     moveq.l    D0, 0x00
label000008B6:
000008B6  4CDF 08F0                movem.l    D4,D5,D6,D7,A3, [A7]+
000008BA  4E5E                     unlink     A6
000008BC  4E75                     rts
label000008BE:
000008BE  362D F70C                move.w     D3, [A5 - 0x8F4]
000008C2  C6FC 0012                mulu.w     D3, 0x12
000008C6  D66E 0008                add.w      D3, [A6 + 0x8]
000008CA  5543                     subq.w     D3, 2
000008CC  342D FCC2                move.w     D2, [A5 - 0x33E]
000008D0  C4FC 0012                mulu.w     D2, 0x12
000008D4  D47C 0009                add.w      D2, 0x9 /* '\t' */
000008D8  3A03                     move.w     D5, D3
000008DA  9A42                     sub.w      D5, D2
000008DC  362D F70E                move.w     D3, [A5 - 0x8F2]
000008E0  C6FC 0012                mulu.w     D3, 0x12
000008E4  D66E 000A                add.w      D3, [A6 + 0xA]
000008E8  5543                     subq.w     D3, 2
000008EA  342D FCC0                move.w     D2, [A5 - 0x340]
000008EE  C4FC 0012                mulu.w     D2, 0x12
000008F2  D47C 0009                add.w      D2, 0x9 /* '\t' */
000008F6  3C03                     move.w     D6, D3
000008F8  9C42                     sub.w      D6, D2
000008FA  7809                     moveq.l    D4, 0x09
label000008FC:
000008FC  B87C 0002                cmp.w      D4, 0x2
00000900  6F30                     ble        +0x32 /* 00000932 */
00000902  3606                     move.w     D3, D6
00000904  48C3                     ext.l      D3
00000906  87C4                     divs.w     D3, D4
00000908  3F03                     move.w     -[A7], D3
0000090A  4EAD 05C2                jsr        [A5 + 0x5C2 /* export_180, CODE:0 @ 00000000 */]
0000090E  544F                     addq.w     A7, 2
00000910  3640                     movea.w    A3, D0
00000912  3605                     move.w     D3, D5
00000914  48C3                     ext.l      D3
00000916  87C4                     divs.w     D3, D4
00000918  3F03                     move.w     -[A7], D3
0000091A  4EAD 05C2                jsr        [A5 + 0x5C2 /* export_180, CODE:0 @ 00000000 */]
0000091E  544F                     addq.w     A7, 2
00000920  3E00                     move.w     D7, D0
00000922  360B                     move.w     D3, A3
00000924  660C                     bne        +0xE /* 00000932 */
00000926  4A47                     tst.w      D7
00000928  6608                     bne        +0xA /* 00000932 */
0000092A  48C4                     ext.l      D4
0000092C  89FC 0002                divs.w     D4, 0x2
00000930  60CA                     bra        -0x34 /* 000008FC */
label00000932:
00000932  360B                     move.w     D3, A3
00000934  6608                     bne        +0xA /* 0000093E */
00000936  4A47                     tst.w      D7
00000938  6604                     bne        +0x6 /* 0000093E */
0000093A  367C 0001                movea.w    A3, 0x1
label0000093E:
0000093E  362E 000A                move.w     D3, [A6 + 0xA]
00000942  5543                     subq.w     D3, 2
00000944  48C3                     ext.l      D3
00000946  87FC 0012                divs.w     D3, 0x12
0000094A  D66D F70E                add.w      D3, [A5 - 0x8F2]
0000094E  3B43 FCA4                move.w     [A5 - 0x35C], D3
00000952  362E 0008                move.w     D3, [A6 + 0x8]
00000956  5543                     subq.w     D3, 2
00000958  48C3                     ext.l      D3
0000095A  87FC 0012                divs.w     D3, 0x12
0000095E  D66D F70C                add.w      D3, [A5 - 0x8F4]
00000962  3B43 FCA2                move.w     [A5 - 0x35E], D3
00000966  3B47 FCA6                move.w     [A5 - 0x35A], D7
0000096A  3B4B FCA8                move.w     [A5 - 0x358], A3
0000096E  3F2E 000C                move.w     -[A7], [A6 + 0xC]
00000972  4EBA FE0A                jsr        [PC - 0x1F6 /* 0000077E */]
00000976  544F                     addq.w     A7, 2
00000978  6000 FF3C                bra        -0xC2 /* 000008B6 */
fn0000097C:
0000097C  4E56 FFFC                link       A6, -0x0004
00000980  3D6E 0008 FFFE           move.w     [A6 - 0x2], [A6 + 0x8]
00000986  3D6E 000A FFFC           move.w     [A6 - 0x4], [A6 + 0xA]
0000098C  3F2E 000A                move.w     -[A7], [A6 + 0xA]
00000990  3F2E 0008                move.w     -[A7], [A6 + 0x8]
00000994  4EAD 0552                jsr        [A5 + 0x552 /* export_166, CODE:0 @ 00000000 */]
00000998  584F                     addq.w     A7, 4
0000099A  246D FCE8                movea.l    A2, [A5 - 0x318]
0000099E  1632 0000                move.b     D3, [A2 + D0.w]
000009A2  C67C 00FF                and.w      D3, 0xFF
000009A6  3F03                     move.w     -[A7], D3
000009A8  4EAD 058A                jsr        [A5 + 0x58A /* export_173, CODE:0 @ 00000000 */]
000009AC  544F                     addq.w     A7, 2
000009AE  4A40                     tst.w      D0
000009B0  6718                     beq        +0x1A /* 000009CA */
000009B2  486E FFFC                pea.l      [A6 - 0x4]
000009B6  486D FCC0                pea.l      [A5 - 0x340]
000009BA  4EAD 05B2                jsr        [A5 + 0x5B2 /* export_178, CODE:0 @ 00000000 */]
000009BE  504F                     addq.w     A7, 8
000009C0  4A40                     tst.w      D0
000009C2  6706                     beq        +0x8 /* 000009CA */
000009C4  303C 0001                move.w     D0, 0x1
000009C8  6002                     bra        +0x4 /* 000009CC */
label000009CA:
000009CA  4240                     clr.w      D0
label000009CC:
000009CC  4E5E                     unlink     A6
000009CE  4E75                     rts
fn000009D0:
000009D0  4E56 0000                link       A6, 0
000009D4  1B7C 0001 FCAF           move.b     [A5 - 0x351], 0x1
000009DA  3B6D F70C F710           move.w     [A5 - 0x8F0], [A5 - 0x8F4]
000009E0  3B6D F70E F712           move.w     [A5 - 0x8EE], [A5 - 0x8F2]
000009E6  4E5E                     unlink     A6
000009E8  4E75                     rts
fn000009EA:
000009EA  4E56 0000                link       A6, 0
000009EE  422D FCAF                clr.b      [A5 - 0x351]
000009F2  3F2D F710                move.w     -[A7], [A5 - 0x8F0]
000009F6  3F2D F712                move.w     -[A7], [A5 - 0x8EE]
000009FA  6106                     bsr        +0x8 /* 00000A02 */
000009FC  584F                     addq.w     A7, 4
000009FE  4E5E                     unlink     A6
00000A00  4E75                     rts
fn00000A02:
00000A02  4E56 FFFC                link       A6, -0x0004
00000A06  48E7 0F18                movem.l    -[A7], D4,D5,D6,D7,A3,A4
00000A0A  382E 0008                move.w     D4, [A6 + 0x8]
00000A0E  3A2E 000A                move.w     D5, [A6 + 0xA]
00000A12  4A2D FCAF                tst.b      [A5 - 0x351]
00000A16  6710                     beq        +0x12 /* 00000A28 */
00000A18  3B45 F710                move.w     [A5 - 0x8F0], D5
00000A1C  3B44 F712                move.w     [A5 - 0x8EE], D4
label00000A20:
00000A20  4CDF 18F0                movem.l    D4,D5,D6,D7,A3,A4, [A7]+
00000A24  4E5E                     unlink     A6
00000A26  4E75                     rts
label00000A28:
00000A28  3605                     move.w     D3, D5
00000A2A  D66D F714                add.w      D3, [A5 - 0x8EC]
00000A2E  B67C 001E                cmp.w      D3, 0x1E
00000A32  6D0A                     blt        +0xC /* 00000A3E */
00000A34  761E                     moveq.l    D3, 0x1E
00000A36  966D F714                sub.w      D3, [A5 - 0x8EC]
00000A3A  3A03                     move.w     D5, D3
00000A3C  5345                     subq.w     D5, 1
label00000A3E:
00000A3E  3604                     move.w     D3, D4
00000A40  D66D F716                add.w      D3, [A5 - 0x8EA]
00000A44  B67C 0028                cmp.w      D3, 0x28 /* '(' */
00000A48  6D0A                     blt        +0xC /* 00000A54 */
00000A4A  7628                     moveq.l    D3, 0x28
00000A4C  966D F716                sub.w      D3, [A5 - 0x8EA]
00000A50  3803                     move.w     D4, D3
00000A52  5344                     subq.w     D4, 1
label00000A54:
00000A54  BA7C 0000                cmp.w      D5, 0x0
00000A58  6C02                     bge        +0x4 /* 00000A5C */
00000A5A  7A00                     moveq.l    D5, 0x00
label00000A5C:
00000A5C  B87C 0000                cmp.w      D4, 0x0
00000A60  6C02                     bge        +0x4 /* 00000A64 */
00000A62  7800                     moveq.l    D4, 0x00
label00000A64:
00000A64  362D F70C                move.w     D3, [A5 - 0x8F4]
00000A68  9645                     sub.w      D3, D5
00000A6A  3E03                     move.w     D7, D3
00000A6C  CEFC 0012                mulu.w     D7, 0x12
00000A70  362D F70E                move.w     D3, [A5 - 0x8F2]
00000A74  9644                     sub.w      D3, D4
00000A76  3C03                     move.w     D6, D3
00000A78  CCFC 0012                mulu.w     D6, 0x12
00000A7C  4A46                     tst.w      D6
00000A7E  6606                     bne        +0x8 /* 00000A86 */
00000A80  4A47                     tst.w      D7
00000A82  6700 009E                beq        +0xA0 /* 00000B22 */
label00000A86:
00000A86  2F2D F6DC                move.l     -[A7], [A5 - 0x924]
00000A8A  A873                     syscall    SetPort
00000A8C  486D FC9A                pea.l      [A5 - 0x366]
00000A90  A87B                     syscall    ClipRect
00000A92  362D FCA0                move.w     D3, [A5 - 0x360]
00000A96  966D FC9C                sub.w      D3, [A5 - 0x364]
00000A9A  3643                     movea.w    A3, D3
00000A9C  96FC 0013                sub.w      A3, 0x13
00000AA0  362D FC9E                move.w     D3, [A5 - 0x362]
00000AA4  966D FC9A                sub.w      D3, [A5 - 0x366]
00000AA8  3843                     movea.w    A4, D3
00000AAA  98FC 0013                sub.w      A4, 0x13
00000AAE  42A7                     clr.l      -[A7]
00000AB0  A8D8                     syscall    NewRgn
00000AB2  201F                     move.l     D0, [A7]+
00000AB4  2D40 FFFC                move.l     [A6 - 0x4], D0
00000AB8  BC7C 0000                cmp.w      D6, 0x0
00000ABC  6F04                     ble        +0x6 /* 00000AC2 */
00000ABE  3606                     move.w     D3, D6
00000AC0  6004                     bra        +0x6 /* 00000AC6 */
label00000AC2:
00000AC2  3606                     move.w     D3, D6
00000AC4  4443                     neg.w      D3
label00000AC6:
00000AC6  B64B                     cmp.w      D3, A3
00000AC8  6E12                     bgt        +0x14 /* 00000ADC */
00000ACA  BE7C 0000                cmp.w      D7, 0x0
00000ACE  6F04                     ble        +0x6 /* 00000AD4 */
00000AD0  3607                     move.w     D3, D7
00000AD2  6004                     bra        +0x6 /* 00000AD8 */
label00000AD4:
00000AD4  3607                     move.w     D3, D7
00000AD6  4443                     neg.w      D3
label00000AD8:
00000AD8  B64C                     cmp.w      D3, A4
00000ADA  6F12                     ble        +0x14 /* 00000AEE */
label00000ADC:
00000ADC  2F2E FFFC                move.l     -[A7], [A6 - 0x4]
00000AE0  486D FC9A                pea.l      [A5 - 0x366]
00000AE4  A8DF                     syscall    RectRgn
00000AE6  486D FC9A                pea.l      [A5 - 0x366]
00000AEA  A8A3                     syscall    EraseRect
00000AEC  600E                     bra        +0x10 /* 00000AFC */
label00000AEE:
00000AEE  486D FC9A                pea.l      [A5 - 0x366]
00000AF2  3F06                     move.w     -[A7], D6
00000AF4  3F07                     move.w     -[A7], D7
00000AF6  2F2E FFFC                move.l     -[A7], [A6 - 0x4]
00000AFA  A8EF                     syscall    ScrollRect
label00000AFC:
00000AFC  3B45 F70C                move.w     [A5 - 0x8F4], D5
00000B00  3B44 F70E                move.w     [A5 - 0x8F2], D4
00000B04  1B7C 0001 F707           move.b     [A5 - 0x8F9], 0x1
00000B0A  2F2E FFFC                move.l     -[A7], [A6 - 0x4]
00000B0E  A879                     syscall    SetClip
00000B10  4267                     clr.w      -[A7]
00000B12  4EAD 007A                jsr        [A5 + 0x7A /* export_11, CODE:0 @ 00000000 */]
00000B16  544F                     addq.w     A7, 2
00000B18  2F2E FFFC                move.l     -[A7], [A6 - 0x4]
00000B1C  A8D9                     syscall    DisposRgn/DisposeRgn
00000B1E  4EAD 0082                jsr        [A5 + 0x82 /* export_12, CODE:0 @ 00000000 */]
label00000B22:
00000B22  6000 FEFC                bra        -0x102 /* 00000A20 */
00000B26  4E56 0000                link       A6, 0
00000B2A  1B6E 000B F70A           move.b     [A5 - 0x8F6], [A6 + 0xB]
00000B30  1B6E 0009 F70B           move.b     [A5 - 0x8F5], [A6 + 0x9]
00000B36  162D F707                move.b     D3, [A5 - 0x8F9]
00000B3A  C67C 00FF                and.w      D3, 0xFF
00000B3E  C67C 0002                and.w      D3, 0x2
00000B42  671A                     beq        +0x1C /* 00000B5E */
00000B44  2F2D FCB2                move.l     -[A7], [A5 - 0x34E]
00000B48  A873                     syscall    SetPort
00000B4A  362E 000A                move.w     D3, [A6 + 0xA]
00000B4E  D67C 0017                add.w      D3, 0x17
00000B52  3F03                     move.w     -[A7], D3
00000B54  362E 0008                move.w     D3, [A6 + 0x8]
00000B58  5843                     addq.w     D3, 4
00000B5A  3F03                     move.w     -[A7], D3
00000B5C  A893                     syscall    MoveTo
label00000B5E:
00000B5E  162D F707                move.b     D3, [A5 - 0x8F9]
00000B62  C67C 00FF                and.w      D3, 0xFF
00000B66  C67C 0001                and.w      D3, 0x1
00000B6A  6732                     beq        +0x34 /* 00000B9E */
00000B6C  2F2D F6DC                move.l     -[A7], [A5 - 0x924]
00000B70  A873                     syscall    SetPort
00000B72  362E 000A                move.w     D3, [A6 + 0xA]
00000B76  966D F70E                sub.w      D3, [A5 - 0x8F2]
00000B7A  C6FC 0012                mulu.w     D3, 0x12
00000B7E  5443                     addq.w     D3, 2
00000B80  3B43 F71C                move.w     [A5 - 0x8E4], D3
00000B84  3F03                     move.w     -[A7], D3
00000B86  362E 0008                move.w     D3, [A6 + 0x8]
00000B8A  966D F70C                sub.w      D3, [A5 - 0x8F4]
00000B8E  5243                     addq.w     D3, 1
00000B90  C6FC 0012                mulu.w     D3, 0x12
00000B94  5443                     addq.w     D3, 2
00000B96  3B43 F71E                move.w     [A5 - 0x8E2], D3
00000B9A  3F03                     move.w     -[A7], D3
00000B9C  A893                     syscall    MoveTo
label00000B9E:
00000B9E  4E5E                     unlink     A6
00000BA0  4E75                     rts
00000BA2  4E56 FFF8                link       A6, -0x0008
00000BA6  162D F707                move.b     D3, [A5 - 0x8F9]
00000BAA  C67C 00FF                and.w      D3, 0xFF
00000BAE  C67C 0001                and.w      D3, 0x1
00000BB2  670C                     beq        +0xE /* 00000BC0 */
00000BB4  2F2D F6DC                move.l     -[A7], [A5 - 0x924]
00000BB8  A873                     syscall    SetPort
00000BBA  486D FC9A                pea.l      [A5 - 0x366]
00000BBE  A8A3                     syscall    EraseRect
label00000BC0:
00000BC0  162D F707                move.b     D3, [A5 - 0x8F9]
00000BC4  C67C 00FF                and.w      D3, 0xFF
00000BC8  C67C 0002                and.w      D3, 0x2
00000BCC  6730                     beq        +0x32 /* 00000BFE */
00000BCE  2F2D FCB2                move.l     -[A7], [A5 - 0x34E]
00000BD2  A873                     syscall    SetPort
00000BD4  246D FCB2                movea.l    A2, [A5 - 0x34E]
00000BD8  D5FC 0000 0010           add.l      A2, 0x10
00000BDE  2F0A                     move.l     -[A7], A2
00000BE0  A8A3                     syscall    EraseRect
00000BE2  486E FFF8                pea.l      [A6 - 0x8]
00000BE6  3F3C 0015                move.w     -[A7], 0x15
00000BEA  3F3C 0002                move.w     -[A7], 0x2
00000BEE  3F3C 0041                move.w     -[A7], 0x41 /* 'A' */
00000BF2  3F3C 0024                move.w     -[A7], 0x24 /* '$' */
00000BF6  A8A7                     syscall    SetRect
00000BF8  486E FFF8                pea.l      [A6 - 0x8]
00000BFC  A8A1                     syscall    FrameRect
label00000BFE:
00000BFE  3F3C 0020                move.w     -[A7], 0x20 /* ' ' */
00000C02  3F3C 04B0                move.w     -[A7], 0x4B0
00000C06  486D F720                pea.l      [A5 - 0x8E0]
00000C0A  4EAD 0242                jsr        [A5 + 0x242 /* export_68, CODE:0 @ 00000000 */]
00000C0E  504F                     addq.w     A7, 8
00000C10  4267                     clr.w      -[A7]
00000C12  3F3C 00B4                move.w     -[A7], 0xB4
00000C16  486D FBD0                pea.l      [A5 - 0x430]
00000C1A  4EAD 0242                jsr        [A5 + 0x242 /* export_68, CODE:0 @ 00000000 */]
00000C1E  504F                     addq.w     A7, 8
00000C20  426D F70E                clr.w      [A5 - 0x8F2]
00000C24  426D F70C                clr.w      [A5 - 0x8F4]
00000C28  4267                     clr.w      -[A7]
00000C2A  4267                     clr.w      -[A7]
00000C2C  4EAD 008A                jsr        [A5 + 0x8A /* export_13, CODE:0 @ 00000000 */]
00000C30  584F                     addq.w     A7, 4
00000C32  4E5E                     unlink     A6
00000C34  4E75                     rts
00000C36  4E56 FFF8                link       A6, -0x0008
00000C3A  2F04                     move.l     -[A7], D4
00000C3C  102D F70B                move.b     D0, [A5 - 0x8F5]
00000C40  C0BC 0000 00FF           and.l      D0, 0xFF
00000C46  7228                     moveq.l    D1, 0x28
00000C48  4EAD 0282                jsr        [A5 + 0x282 /* export_76, CODE:0 @ 00000000 */]
00000C4C  162D F70A                move.b     D3, [A5 - 0x8F6]
00000C50  C6BC 0000 00FF           and.l      D3, 0xFF
00000C56  D083                     add.l      D0, D3
00000C58  45ED F720                lea.l      A2, [A5 - 0x8E0]
00000C5C  1832 0800                move.b     D4, [A2 + D0]
00000C60  162D F707                move.b     D3, [A5 - 0x8F9]
00000C64  C67C 00FF                and.w      D3, 0xFF
00000C68  C67C 0001                and.w      D3, 0x1
00000C6C  6752                     beq        +0x54 /* 00000CC0 */
00000C6E  2F2D F6DC                move.l     -[A7], [A5 - 0x924]
00000C72  A873                     syscall    SetPort
00000C74  4884                     ext.w      D4
00000C76  162E 0009                move.b     D3, [A6 + 0x9]
00000C7A  4883                     ext.w      D3
00000C7C  B843                     cmp.w      D4, D3
00000C7E  6740                     beq        +0x42 /* 00000CC0 */
00000C80  3D6D F71C FFFA           move.w     [A6 - 0x6], [A5 - 0x8E4]
00000C86  362D F71C                move.w     D3, [A5 - 0x8E4]
00000C8A  D67C 0012                add.w      D3, 0x12
00000C8E  3D43 FFFE                move.w     [A6 - 0x2], D3
00000C92  3D6D F71E FFFC           move.w     [A6 - 0x4], [A5 - 0x8E2]
00000C98  362D F71E                move.w     D3, [A5 - 0x8E2]
00000C9C  967C 0012                sub.w      D3, 0x12
00000CA0  3D43 FFF8                move.w     [A6 - 0x8], D3
00000CA4  486E FFF8                pea.l      [A6 - 0x8]
00000CA8  A8A3                     syscall    EraseRect
00000CAA  162E 0009                move.b     D3, [A6 + 0x9]
00000CAE  4883                     ext.w      D3
00000CB0  B67C 0020                cmp.w      D3, 0x20 /* ' ' */
00000CB4  670A                     beq        +0xC /* 00000CC0 */
00000CB6  162E 0009                move.b     D3, [A6 + 0x9]
00000CBA  4883                     ext.w      D3
00000CBC  3F03                     move.w     -[A7], D3
00000CBE  A883                     syscall    DrawChar
label00000CC0:
00000CC0  162E 0009                move.b     D3, [A6 + 0x9]
00000CC4  4883                     ext.w      D3
00000CC6  B67C 0020                cmp.w      D3, 0x20 /* ' ' */
00000CCA  675C                     beq        +0x5E /* 00000D28 */
00000CCC  162D F707                move.b     D3, [A5 - 0x8F9]
00000CD0  C67C 00FF                and.w      D3, 0xFF
00000CD4  C67C 0002                and.w      D3, 0x2
00000CD8  674E                     beq        +0x50 /* 00000D28 */
00000CDA  162D F70B                move.b     D3, [A5 - 0x8F5]
00000CDE  C67C 00FF                and.w      D3, 0xFF
00000CE2  B66D E4DE                cmp.w      D3, [A5 - 0x1B22]
00000CE6  660E                     bne        +0x10 /* 00000CF6 */
00000CE8  162D F70A                move.b     D3, [A5 - 0x8F6]
00000CEC  C67C 00FF                and.w      D3, 0xFF
00000CF0  B66D E4DC                cmp.w      D3, [A5 - 0x1B24]
00000CF4  6732                     beq        +0x34 /* 00000D28 */
label00000CF6:
00000CF6  2F2D FCB2                move.l     -[A7], [A5 - 0x34E]
00000CFA  A873                     syscall    SetPort
00000CFC  4267                     clr.w      -[A7]
00000CFE  4267                     clr.w      -[A7]
00000D00  A892                     syscall    Line
00000D02  102D F70B                move.b     D0, [A5 - 0x8F5]
00000D06  C0BC 0000 00FF           and.l      D0, 0xFF
00000D0C  7206                     moveq.l    D1, 0x06
00000D0E  4EAD 0282                jsr        [A5 + 0x282 /* export_76, CODE:0 @ 00000000 */]
00000D12  45ED FBD0                lea.l      A2, [A5 - 0x430]
00000D16  D08A                     add.l      D0, A2
00000D18  2F00                     move.l     -[A7], D0
00000D1A  162D F70A                move.b     D3, [A5 - 0x8F6]
00000D1E  C6BC 0000 00FF           and.l      D3, 0xFF
00000D24  2F03                     move.l     -[A7], D3
00000D26  A85E                     syscall    BitSet
label00000D28:
00000D28  102D F70B                move.b     D0, [A5 - 0x8F5]
00000D2C  C0BC 0000 00FF           and.l      D0, 0xFF
00000D32  7228                     moveq.l    D1, 0x28
00000D34  4EAD 0282                jsr        [A5 + 0x282 /* export_76, CODE:0 @ 00000000 */]
00000D38  162D F70A                move.b     D3, [A5 - 0x8F6]
00000D3C  C6BC 0000 00FF           and.l      D3, 0xFF
00000D42  D083                     add.l      D0, D3
00000D44  45ED F720                lea.l      A2, [A5 - 0x8E0]
00000D48  15AE 0009 0800           move.b     [A2 + D0], [A6 + 0x9]
00000D4E  162D F70A                move.b     D3, [A5 - 0x8F6]
00000D52  C67C 00FF                and.w      D3, 0xFF
00000D56  5243                     addq.w     D3, 1
00000D58  3F03                     move.w     -[A7], D3
00000D5A  162D F70B                move.b     D3, [A5 - 0x8F5]
00000D5E  C67C 00FF                and.w      D3, 0xFF
00000D62  3F03                     move.w     -[A7], D3
00000D64  4EAD 008A                jsr        [A5 + 0x8A /* export_13, CODE:0 @ 00000000 */]
00000D68  584F                     addq.w     A7, 4
00000D6A  281F                     move.l     D4, [A7]+
00000D6C  4E5E                     unlink     A6
00000D6E  4E75                     rts
00000D70  4E56 0000                link       A6, 0
label00000D74:
00000D74  246E 0008                movea.l    A2, [A6 + 0x8]
00000D78  4A12                     tst.b      [A2]
00000D7A  6716                     beq        +0x18 /* 00000D92 */
00000D7C  246E 0008                movea.l    A2, [A6 + 0x8]
00000D80  52AE 0008                addq.l     [A6 + 0x8], 1
00000D84  1612                     move.b     D3, [A2]
00000D86  4883                     ext.w      D3
00000D88  3F03                     move.w     -[A7], D3
00000D8A  4EAD 009A                jsr        [A5 + 0x9A /* export_15, CODE:0 @ 00000000 */]
00000D8E  544F                     addq.w     A7, 2
00000D90  60E2                     bra        -0x1C /* 00000D74 */
label00000D92:
00000D92  4E5E                     unlink     A6
00000D94  4E75                     rts
fn00000D96:
00000D96  4E56 0000                link       A6, 0
00000D9A  2F04                     move.l     -[A7], D4
00000D9C  102D F70B                move.b     D0, [A5 - 0x8F5]
00000DA0  C0BC 0000 00FF           and.l      D0, 0xFF
00000DA6  7228                     moveq.l    D1, 0x28
00000DA8  4EAD 0282                jsr        [A5 + 0x282 /* export_76, CODE:0 @ 00000000 */]
00000DAC  162D F70A                move.b     D3, [A5 - 0x8F6]
00000DB0  C6BC 0000 00FF           and.l      D3, 0xFF
00000DB6  D083                     add.l      D0, D3
00000DB8  45ED F720                lea.l      A2, [A5 - 0x8E0]
00000DBC  1632 0800                move.b     D3, [A2 + D0]
00000DC0  1803                     move.b     D4, D3
00000DC2  C67C 00FF                and.w      D3, 0xFF
00000DC6  3003                     move.w     D0, D3
00000DC8  281F                     move.l     D4, [A7]+
00000DCA  4E5E                     unlink     A6
00000DCC  4E75                     rts
00000DCE  4E56 0000                link       A6, 0
00000DD2  3F2E 000A                move.w     -[A7], [A6 + 0xA]
00000DD6  3F2E 0008                move.w     -[A7], [A6 + 0x8]
00000DDA  4EAD 008A                jsr        [A5 + 0x8A /* export_13, CODE:0 @ 00000000 */]
00000DDE  584F                     addq.w     A7, 4
00000DE0  61B4                     bsr        -0x4A /* 00000D96 */
00000DE2  4E5E                     unlink     A6
00000DE4  4E75                     rts
00000DE6  4E56 FFC8                link       A6, -0x0038
00000DEA  48E7 0F18                movem.l    -[A7], D4,D5,D6,D7,A3,A4
00000DEE  246E 0008                movea.l    A2, [A6 + 0x8]
00000DF2  B5ED F6DC                cmpa.l     A2, [A5 - 0x924]
00000DF6  660E                     bne        +0x10 /* 00000E06 */
00000DF8  1B7C 0001 F707           move.b     [A5 - 0x8F9], 0x1
00000DFE  4EAD 0082                jsr        [A5 + 0x82 /* export_12, CODE:0 @ 00000000 */]
00000E02  6000 0084                bra        +0x86 /* 00000E88 */
label00000E06:
00000E06  246E 0008                movea.l    A2, [A6 + 0x8]
00000E0A  B5ED FCB2                cmpa.l     A2, [A5 - 0x34E]
00000E0E  6678                     bne        +0x7A /* 00000E88 */
00000E10  1B7C 0002 F707           move.b     [A5 - 0x8F9], 0x2
00000E16  2F2D FCB2                move.l     -[A7], [A5 - 0x34E]
00000E1A  A873                     syscall    SetPort
00000E1C  162D F708                move.b     D3, [A5 - 0x8F8]
00000E20  C67C 00FF                and.w      D3, 0xFF
00000E24  3D43 FFF8                move.w     [A6 - 0x8], D3
00000E28  422D F708                clr.b      [A5 - 0x8F8]
00000E2C  246D FCB2                movea.l    A2, [A5 - 0x34E]
00000E30  D5FC 0000 0010           add.l      A2, 0x10
00000E36  2F0A                     move.l     -[A7], A2
00000E38  A87B                     syscall    ClipRect
00000E3A  246D FCB2                movea.l    A2, [A5 - 0x34E]
00000E3E  D5FC 0000 0010           add.l      A2, 0x10
00000E44  2F0A                     move.l     -[A7], A2
00000E46  A8A3                     syscall    EraseRect
00000E48  486E FFF0                pea.l      [A6 - 0x10]
00000E4C  3F3C 0015                move.w     -[A7], 0x15
00000E50  3F3C 0002                move.w     -[A7], 0x2
00000E54  3F3C 0041                move.w     -[A7], 0x41 /* 'A' */
00000E58  3F3C 0024                move.w     -[A7], 0x24 /* '$' */
00000E5C  A8A7                     syscall    SetRect
00000E5E  486E FFF0                pea.l      [A6 - 0x10]
00000E62  A8A1                     syscall    FrameRect
00000E64  486D FC84                pea.l      [A5 - 0x37C]
00000E68  246D FCB2                movea.l    A2, [A5 - 0x34E]
00000E6C  548A                     addq.l     A2, 2
00000E6E  2F0A                     move.l     -[A7], A2
00000E70  486D FC8A                pea.l      [A5 - 0x376]
00000E74  486D FC8A                pea.l      [A5 - 0x376]
00000E78  4267                     clr.w      -[A7]
00000E7A  42A7                     clr.l      -[A7]
00000E7C  A8EC                     syscall    CopyBits
00000E7E  3F2E FFF8                move.w     -[A7], [A6 - 0x8]
00000E82  4EAD 005A                jsr        [A5 + 0x5A /* export_7, CODE:0 @ 00000000 */]
00000E86  544F                     addq.w     A7, 2
label00000E88:
00000E88  162D F707                move.b     D3, [A5 - 0x8F9]
00000E8C  C67C 00FF                and.w      D3, 0xFF
00000E90  C67C 0002                and.w      D3, 0x2
00000E94  6600 00FE                bne        +0x100 /* 00000F94 */
00000E98  2F2D F6DC                move.l     -[A7], [A5 - 0x924]
00000E9C  A873                     syscall    SetPort
00000E9E  362D F70C                move.w     D3, [A5 - 0x8F4]
00000EA2  D66D F71A                add.w      D3, [A5 - 0x8E6]
00000EA6  3D43 FFFA                move.w     [A6 - 0x6], D3
00000EAA  B67C 001E                cmp.w      D3, 0x1E
00000EAE  6F06                     ble        +0x8 /* 00000EB6 */
00000EB0  3D7C 001E FFFA           move.w     [A6 - 0x6], 0x1E
label00000EB6:
00000EB6  362D F70E                move.w     D3, [A5 - 0x8F2]
00000EBA  D66D F718                add.w      D3, [A5 - 0x8E8]
00000EBE  3D43 FFFC                move.w     [A6 - 0x4], D3
00000EC2  B67C 0028                cmp.w      D3, 0x28 /* '(' */
00000EC6  6F06                     ble        +0x8 /* 00000ECE */
00000EC8  3D7C 0028 FFFC           move.w     [A6 - 0x4], 0x28 /* '(' */
label00000ECE:
00000ECE  0C6D 0000 F70E           cmpi.w     [A5 - 0x8F2], 0x0
00000ED4  6C04                     bge        +0x6 /* 00000EDA */
00000ED6  7E00                     moveq.l    D7, 0x00
00000ED8  6004                     bra        +0x6 /* 00000EDE */
label00000EDA:
00000EDA  3E2D F70E                move.w     D7, [A5 - 0x8F2]
label00000EDE:
00000EDE  0C6D 0000 F70C           cmpi.w     [A5 - 0x8F4], 0x0
00000EE4  6C06                     bge        +0x8 /* 00000EEC */
00000EE6  426E FFFE                clr.w      [A6 - 0x2]
00000EEA  6006                     bra        +0x8 /* 00000EF2 */
label00000EEC:
00000EEC  3D6D F70C FFFE           move.w     [A6 - 0x2], [A5 - 0x8F4]
label00000EF2:
00000EF2  362E FFFE                move.w     D3, [A6 - 0x2]
00000EF6  B66E FFFA                cmp.w      D3, [A6 - 0x6]
00000EFA  6C00 0098                bge        +0x9A /* 00000F94 */
00000EFE  362E FFFE                move.w     D3, [A6 - 0x2]
00000F02  C7FC 0028                muls.w     D3, 0x28 /* '(' */
00000F06  48C7                     ext.l      D7
00000F08  D687                     add.l      D3, D7
00000F0A  45ED F720                lea.l      A2, [A5 - 0x8E0]
00000F0E  2643                     movea.l    A3, D3
00000F10  D7CA                     add.l      A3, A2
00000F12  362E FFFC                move.w     D3, [A6 - 0x4]
00000F16  48C3                     ext.l      D3
00000F18  2A03                     move.l     D5, D3
00000F1A  DA8B                     add.l      D5, A3
label00000F1C:
00000F1C  1613                     move.b     D3, [A3]
00000F1E  4883                     ext.w      D3
00000F20  B67C 0020                cmp.w      D3, 0x20 /* ' ' */
00000F24  6608                     bne        +0xA /* 00000F2E */
00000F26  B7C5                     cmpa.l     A3, D5
00000F28  6404                     bcc        +0x6 /* 00000F2E */
00000F2A  528B                     addq.l     A3, 1
00000F2C  60EE                     bra        -0x10 /* 00000F1C */
label00000F2E:
00000F2E  B7C5                     cmpa.l     A3, D5
00000F30  645A                     bcc        +0x5C /* 00000F8C */
00000F32  2C0B                     move.l     D6, A3
00000F34  45EE FFC9                lea.l      A2, [A6 - 0x37]
00000F38  280A                     move.l     D4, A2
label00000F3A:
00000F3A  BC85                     cmp.l      D6, D5
00000F3C  641A                     bcc        +0x1C /* 00000F58 */
00000F3E  2446                     movea.l    A2, D6
00000F40  1612                     move.b     D3, [A2]
00000F42  4883                     ext.w      D3
00000F44  B67C 0020                cmp.w      D3, 0x20 /* ' ' */
00000F48  6702                     beq        +0x4 /* 00000F4C */
00000F4A  2846                     movea.l    A4, D6
label00000F4C:
00000F4C  2444                     movea.l    A2, D4
00000F4E  5284                     addq.l     D4, 1
00000F50  2246                     movea.l    A1, D6
00000F52  5286                     addq.l     D6, 1
00000F54  1491                     move.b     [A2], [A1]
00000F56  60E2                     bra        -0x1C /* 00000F3A */
label00000F58:
00000F58  260C                     move.l     D3, A4
00000F5A  968B                     sub.l      D3, A3
00000F5C  5243                     addq.w     D3, 1
00000F5E  1D43 FFC8                move.b     [A6 - 0x38], D3
00000F62  362E FFFE                move.w     D3, [A6 - 0x2]
00000F66  C7FC 0028                muls.w     D3, 0x28 /* '(' */
00000F6A  48C7                     ext.l      D7
00000F6C  D687                     add.l      D3, D7
00000F6E  45ED F720                lea.l      A2, [A5 - 0x8E0]
00000F72  D68A                     add.l      D3, A2
00000F74  240B                     move.l     D2, A3
00000F76  9483                     sub.l      D2, D3
00000F78  D447                     add.w      D2, D7
00000F7A  3F02                     move.w     -[A7], D2
00000F7C  3F2E FFFE                move.w     -[A7], [A6 - 0x2]
00000F80  4EAD 008A                jsr        [A5 + 0x8A /* export_13, CODE:0 @ 00000000 */]
00000F84  584F                     addq.w     A7, 4
00000F86  486E FFC8                pea.l      [A6 - 0x38]
00000F8A  A884                     syscall    DrawString
label00000F8C:
00000F8C  526E FFFE                addq.w     [A6 - 0x2], 1
00000F90  6000 FF60                bra        -0x9E /* 00000EF2 */
label00000F94:
00000F94  1B7C 0003 F707           move.b     [A5 - 0x8F9], 0x3
00000F9A  162D F70A                move.b     D3, [A5 - 0x8F6]
00000F9E  C67C 00FF                and.w      D3, 0xFF
00000FA2  3F03                     move.w     -[A7], D3
00000FA4  162D F70B                move.b     D3, [A5 - 0x8F5]
00000FA8  C67C 00FF                and.w      D3, 0xFF
00000FAC  3F03                     move.w     -[A7], D3
00000FAE  4EAD 008A                jsr        [A5 + 0x8A /* export_13, CODE:0 @ 00000000 */]
00000FB2  584F                     addq.w     A7, 4
00000FB4  4CDF 18F0                movem.l    D4,D5,D6,D7,A3,A4, [A7]+
00000FB8  4E5E                     unlink     A6
00000FBA  4E75                     rts
00000FBC  4E56 0000                link       A6, 0
00000FC0  362D F70E                move.w     D3, [A5 - 0x8F2]
00000FC4  D67C 0016                add.w      D3, 0x16
00000FC8  3B43 FC94                move.w     [A5 - 0x36C], D3
00000FCC  362D F70C                move.w     D3, [A5 - 0x8F4]
00000FD0  5643                     addq.w     D3, 3
00000FD2  3B43 FC92                move.w     [A5 - 0x36E], D3
00000FD6  362D FC94                move.w     D3, [A5 - 0x36C]
00000FDA  D66D F718                add.w      D3, [A5 - 0x8E8]
00000FDE  5443                     addq.w     D3, 2
00000FE0  3B43 FC98                move.w     [A5 - 0x368], D3
00000FE4  362D FC92                move.w     D3, [A5 - 0x36E]
00000FE8  D66D F71A                add.w      D3, [A5 - 0x8E6]
00000FEC  5443                     addq.w     D3, 2
00000FEE  3B43 FC96                move.w     [A5 - 0x36A], D3
00000FF2  162D F708                move.b     D3, [A5 - 0x8F8]
00000FF6  C67C 00FF                and.w      D3, 0xFF
00000FFA  B66E 0008                cmp.w      D3, [A6 + 0x8]
00000FFE  671A                     beq        +0x1C /* 0000101A */
00001000  2F2D FCB2                move.l     -[A7], [A5 - 0x34E]
00001004  A873                     syscall    SetPort
00001006  3F3C 000A                move.w     -[A7], 0xA /* '\n' */
0000100A  A89C                     syscall    PenMode
0000100C  486D F65E                pea.l      [A5 - 0x9A2]
00001010  A89D                     syscall    PenPat
00001012  486D FC92                pea.l      [A5 - 0x36E]
00001016  A8A1                     syscall    FrameRect
00001018  A89E                     syscall    PenNormal
label0000101A:
0000101A  1B6E 0009 F708           move.b     [A5 - 0x8F8], [A6 + 0x9]
00001020  4E5E                     unlink     A6
00001022  4E75                     rts
00001024  4E56 0000                link       A6, 0
00001028  3F2E 000A                move.w     -[A7], [A6 + 0xA]
0000102C  3F2E 0008                move.w     -[A7], [A6 + 0x8]
00001030  4EAD 008A                jsr        [A5 + 0x8A /* export_13, CODE:0 @ 00000000 */]
00001034  584F                     addq.w     A7, 4
00001036  3F2E 000C                move.w     -[A7], [A6 + 0xC]
0000103A  4EAD 009A                jsr        [A5 + 0x9A /* export_15, CODE:0 @ 00000000 */]
0000103E  544F                     addq.w     A7, 2
00001040  4E5E                     unlink     A6
00001042  4E75                     rts
00001044  4E56 0000                link       A6, 0
00001048  1B7C 0003 F707           move.b     [A5 - 0x8F9], 0x3
0000104E  486D FC8A                pea.l      [A5 - 0x376]
00001052  3F3C 0017                move.w     -[A7], 0x17
00001056  3F3C 0004                move.w     -[A7], 0x4
0000105A  3F3C 003F                move.w     -[A7], 0x3F /* '?' */
0000105E  3F3C 0022                move.w     -[A7], 0x22 /* '\"' */
00001062  A8A7                     syscall    SetRect
00001064  45ED FBD0                lea.l      A2, [A5 - 0x430]
00001068  2B4A FC84                move.l     [A5 - 0x37C], A2
0000106C  3B7C 0006 FC88           move.w     [A5 - 0x378], 0x6
00001072  610A                     bsr        +0xC /* 0000107E */
00001074  617C                     bsr        +0x7E /* 000010F2 */
00001076  4EAD 0092                jsr        [A5 + 0x92 /* export_14, CODE:0 @ 00000000 */]
0000107A  4E5E                     unlink     A6
0000107C  4E75                     rts
fn0000107E:
0000107E  4E56 0000                link       A6, 0
00001082  486D FC9A                pea.l      [A5 - 0x366]
00001086  2F2D F6DC                move.l     -[A7], [A5 - 0x924]
0000108A  4EAD 06AA                jsr        [A5 + 0x6AA /* export_209, CODE:0 @ 00000000 */]
0000108E  504F                     addq.w     A7, 8
00001090  546D FC9C                addq.w     [A5 - 0x364], 2
00001094  546D FC9A                addq.w     [A5 - 0x366], 2
00001098  046D 000F FC9E           subi.w     [A5 - 0x362], 0xF
0000109E  362D FCA0                move.w     D3, [A5 - 0x360]
000010A2  966D FC9C                sub.w      D3, [A5 - 0x364]
000010A6  48C3                     ext.l      D3
000010A8  87FC 0012                divs.w     D3, 0x12
000010AC  3B43 F716                move.w     [A5 - 0x8EA], D3
000010B0  362D FC9E                move.w     D3, [A5 - 0x362]
000010B4  966D FC9A                sub.w      D3, [A5 - 0x366]
000010B8  48C3                     ext.l      D3
000010BA  87FC 0012                divs.w     D3, 0x12
000010BE  3B43 F714                move.w     [A5 - 0x8EC], D3
000010C2  362D FCA0                move.w     D3, [A5 - 0x360]
000010C6  966D FC9C                sub.w      D3, [A5 - 0x364]
000010CA  D67C 0011                add.w      D3, 0x11
000010CE  48C3                     ext.l      D3
000010D0  87FC 0012                divs.w     D3, 0x12
000010D4  3B43 F718                move.w     [A5 - 0x8E8], D3
000010D8  362D FC9E                move.w     D3, [A5 - 0x362]
000010DC  966D FC9A                sub.w      D3, [A5 - 0x366]
000010E0  D67C 0011                add.w      D3, 0x11
000010E4  48C3                     ext.l      D3
000010E6  87FC 0012                divs.w     D3, 0x12
000010EA  3B43 F71A                move.w     [A5 - 0x8E6], D3
000010EE  4E5E                     unlink     A6
000010F0  4E75                     rts
fn000010F2:
000010F2  4E56 0000                link       A6, 0
000010F6  2F2D F6DC                move.l     -[A7], [A5 - 0x924]
000010FA  A873                     syscall    SetPort
000010FC  486D FC9A                pea.l      [A5 - 0x366]
00001100  A87B                     syscall    ClipRect
00001102  4E5E                     unlink     A6
00001104  4E75                     rts
00001106  4E56 0000                link       A6, 0
0000110A  4E5E                     unlink     A6
0000110C  4E75                     rts
0000110E  4E56 0000                link       A6, 0
00001112  4E5E                     unlink     A6
00001114  4E75                     rts
00001116  4E56 0000                link       A6, 0
0000111A  2F0B                     move.l     -[A7], A3
0000111C  266E 0008                movea.l    A3, [A6 + 0x8]
label00001120:
00001120  4A13                     tst.b      [A3]
00001122  670E                     beq        +0x10 /* 00001132 */
00001124  244B                     movea.l    A2, A3
00001126  528B                     addq.l     A3, 1
00001128  1612                     move.b     D3, [A2]
0000112A  4883                     ext.w      D3
0000112C  3F03                     move.w     -[A7], D3
0000112E  A883                     syscall    DrawChar
00001130  60EE                     bra        -0x10 /* 00001120 */
label00001132:
00001132  265F                     movea.l    A3, [A7]+
00001134  4E5E                     unlink     A6
00001136  4E75                     rts
fn00001138:
00001138  4E56 FFFE                link       A6, -0x0002
0000113C  426E FFFE                clr.w      [A6 - 0x2]
label00001140:
00001140  0C6E 0053 FFFE           cmpi.w     [A6 - 0x2], 0x53 /* 'S' */
00001146  6C66                     bge        +0x68 /* 000011AE */
00001148  362E FFFE                move.w     D3, [A6 - 0x2]
0000114C  48C3                     ext.l      D3
0000114E  E383                     asl        D3, 1
00001150  246D FF24                movea.l    A2, [A5 - 0xDC]
00001154  4A72 3800                tst.w      [A2 + D3]
00001158  664E                     bne        +0x50 /* 000011A8 */
0000115A  526D E4C6                addq.w     [A5 - 0x1B3A], 1
0000115E  362D E4C6                move.w     D3, [A5 - 0x1B3A]
00001162  B66D E46E                cmp.w      D3, [A5 - 0x1B92]
00001166  6F06                     ble        +0x8 /* 0000116E */
00001168  3B6D E4C6 E46E           move.w     [A5 - 0x1B92], [A5 - 0x1B3A]
label0000116E:
0000116E  362E FFFE                move.w     D3, [A6 - 0x2]
00001172  48C3                     ext.l      D3
00001174  E383                     asl        D3, 1
00001176  246D FF24                movea.l    A2, [A5 - 0xDC]
0000117A  5272 3800                addq.w     [A2 + D3], 1
0000117E  4267                     clr.w      -[A7]
00001180  3F3C 0032                move.w     -[A7], 0x32 /* '2' */
00001184  362E FFFE                move.w     D3, [A6 - 0x2]
00001188  C7FC 0032                muls.w     D3, 0x32 /* '2' */
0000118C  D6AD FF28                add.l      D3, [A5 - 0xD8]
00001190  2F03                     move.l     -[A7], D3
00001192  4EAD 0242                jsr        [A5 + 0x242 /* export_68, CODE:0 @ 00000000 */]
00001196  504F                     addq.w     A7, 8
00001198  302E FFFE                move.w     D0, [A6 - 0x2]
0000119C  C1FC 0032                muls.w     D0, 0x32 /* '2' */
000011A0  D0AD FF28                add.l      D0, [A5 - 0xD8]
label000011A4:
000011A4  4E5E                     unlink     A6
000011A6  4E75                     rts
label000011A8:
000011A8  526E FFFE                addq.w     [A6 - 0x2], 1
000011AC  6092                     bra        -0x6C /* 00001140 */
label000011AE:
000011AE  7000                     moveq.l    D0, 0x00
000011B0  60F2                     bra        -0xC /* 000011A4 */
000011B2  4E56 0000                link       A6, 0
000011B6  48E7 0018                movem.l    -[A7], A3,A4
000011BA  266E 0008                movea.l    A3, [A6 + 0x8]
000011BE  286E 000C                movea.l    A4, [A6 + 0xC]
000011C2  2453                     movea.l    A2, [A3]
000011C4  B5CC                     cmpa.l     A2, A4
000011C6  6602                     bne        +0x4 /* 000011CA */
000011C8  2694                     move.l     [A3], [A4]
label000011CA:
000011CA  4AAC 0004                tst.l      [A4 + 0x4]
000011CE  6706                     beq        +0x8 /* 000011D6 */
000011D0  246C 0004                movea.l    A2, [A4 + 0x4]
000011D4  2494                     move.l     [A2], [A4]
label000011D6:
000011D6  4A94                     tst.l      [A4]
000011D8  6708                     beq        +0xA /* 000011E2 */
000011DA  2454                     movea.l    A2, [A4]
000011DC  256C 0004 0004           move.l     [A2 + 0x4], [A4 + 0x4]
label000011E2:
000011E2  4294                     clr.l      [A4]
000011E4  42AC 0004                clr.l      [A4 + 0x4]
000011E8  4CDF 1800                movem.l    A3,A4, [A7]+
000011EC  4E5E                     unlink     A6
000011EE  4E75                     rts
000011F0  4E56 0000                link       A6, 0
000011F4  48E7 0018                movem.l    -[A7], A3,A4
000011F8  266E 0008                movea.l    A3, [A6 + 0x8]
000011FC  286E 000C                movea.l    A4, [A6 + 0xC]
00001200  4A93                     tst.l      [A3]
00001202  670E                     beq        +0x10 /* 00001212 */
00001204  2893                     move.l     [A4], [A3]
00001206  2453                     movea.l    A2, [A3]
00001208  254C 0004                move.l     [A2 + 0x4], A4
0000120C  42AC 0004                clr.l      [A4 + 0x4]
00001210  6006                     bra        +0x8 /* 00001218 */
label00001212:
00001212  4294                     clr.l      [A4]
00001214  42AC 0004                clr.l      [A4 + 0x4]
label00001218:
00001218  268C                     move.l     [A3], A4
0000121A  4CDF 1800                movem.l    A3,A4, [A7]+
0000121E  4E5E                     unlink     A6
00001220  4E75                     rts
00001222  4E56 0000                link       A6, 0
00001226  48E7 0018                movem.l    -[A7], A3,A4
0000122A  266E 0008                movea.l    A3, [A6 + 0x8]
label0000122E:
0000122E  4A93                     tst.l      [A3]
00001230  670C                     beq        +0xE /* 0000123E */
00001232  2853                     movea.l    A4, [A3]
00001234  2694                     move.l     [A3], [A4]
00001236  2F0C                     move.l     -[A7], A4
00001238  6146                     bsr        +0x48 /* 00001280 */
0000123A  584F                     addq.w     A7, 4
0000123C  60F0                     bra        -0xE /* 0000122E */
label0000123E:
0000123E  4CDF 1800                movem.l    A3,A4, [A7]+
00001242  4E5E                     unlink     A6
00001244  4E75                     rts
00001246  4E56 0000                link       A6, 0
0000124A  2F0B                     move.l     -[A7], A3
0000124C  4EBA FEEA                jsr        [PC - 0x116 /* 00001138 */]
00001250  2640                     movea.l    A3, D0
00001252  4A80                     tst.l      D0
00001254  660C                     bne        +0xE /* 00001262 */
00001256  487A 0018                pea.l      [PC + 0x18 /* 00001270, value 0x6E6F206D 'no m', cstring "no more things!" */]
0000125A  4EAD 0502                jsr        [A5 + 0x502 /* export_156, CODE:0 @ 00000000 */]
0000125E  584F                     addq.w     A7, 4
00001260  6006                     bra        +0x8 /* 00001268 */
label00001262:
00001262  42AB 0004                clr.l      [A3 + 0x4]
00001266  4293                     clr.l      [A3]
label00001268:
00001268  200B                     move.l     D0, A3
0000126A  265F                     movea.l    A3, [A7]+
0000126C  4E5E                     unlink     A6
0000126E  4E75                     rts
00001270  6E6F 206D 6F72 6520      dc.b       "no more "
00001278  7468                     moveq.l    D2, 0x68
0000127A  696E                     bvs        +0x70 /* 000012EA */
0000127C  6773                     beq        +0x75 /* 000012F1 */
0000127E  2100                     move.l     -[A0], D0
fn00001280:
00001280  4E56 FFFE                link       A6, -0x0002
00001284  2F0B                     move.l     -[A7], A3
00001286  266E 0008                movea.l    A3, [A6 + 0x8]
0000128A  B7ED FF28                cmpa.l     A3, [A5 - 0xD8]
0000128E  6554                     bcs        +0x56 /* 000012E4 */
00001290  246D FF28                movea.l    A2, [A5 - 0xD8]
00001294  D5FC 0000 1036           add.l      A2, 0x1036
0000129A  B7CA                     cmpa.l     A3, A2
0000129C  6446                     bcc        +0x48 /* 000012E4 */
0000129E  162B 0008                move.b     D3, [A3 + 0x8]
000012A2  4883                     ext.w      D3
000012A4  4A43                     tst.w      D3
000012A6  6610                     bne        +0x12 /* 000012B8 */
000012A8  4AAB 0010                tst.l      [A3 + 0x10]
000012AC  670A                     beq        +0xC /* 000012B8 */
000012AE  2F2B 0010                move.l     -[A7], [A3 + 0x10]
000012B2  4EAD 02B2                jsr        [A5 + 0x2B2 /* export_82, CODE:0 @ 00000000 */]
000012B6  584F                     addq.w     A7, 4
label000012B8:
000012B8  200B                     move.l     D0, A3
000012BA  90AD FF28                sub.l      D0, [A5 - 0xD8]
000012BE  7232                     moveq.l    D1, 0x32
000012C0  4EAD 027A                jsr        [A5 + 0x27A /* export_75, CODE:0 @ 00000000 */]
000012C4  3D40 FFFE                move.w     [A6 - 0x2], D0
000012C8  536D E4C6                subq.w     [A5 - 0x1B3A], 1
000012CC  362E FFFE                move.w     D3, [A6 - 0x2]
000012D0  48C3                     ext.l      D3
000012D2  E383                     asl        D3, 1
000012D4  246D FF24                movea.l    A2, [A5 - 0xDC]
000012D8  4272 3800                clr.w      [A2 + D3]
000012DC  7001                     moveq.l    D0, 0x01
label000012DE:
000012DE  265F                     movea.l    A3, [A7]+
000012E0  4E5E                     unlink     A6
000012E2  4E75                     rts
label000012E4:
000012E4  7000                     moveq.l    D0, 0x00
000012E6  60F6                     bra        -0x8 /* 000012DE */
000012E8  4E56 0000                link       A6, 0
// begin alternate branch 000012EA-000012EE
label000012EA:
000012EA  0000 2F0B                ori.b      D0, 0xB
// end alternate branch 000012EA-000012EE
label000012EA: // (misaligned)
000012EC  2F0B                     move.l     -[A7], A3
000012EE  42A7                     clr.l      -[A7]
000012F0  A924                     syscall    FrontWindow
000012F2  201F                     move.l     D0, [A7]+
000012F4  2640                     movea.l    A3, D0
000012F6  B0AD F6E4                cmp.l      D0, [A5 - 0x91C]
000012FA  6606                     bne        +0x8 /* 00001302 */
000012FC  4EAD 0432                jsr        [A5 + 0x432 /* export_130, CODE:0 @ 00000000 */]
00001300  600A                     bra        +0xC /* 0000130C */
label00001302:
00001302  487A 000E                pea.l      [PC + 0xE /* 00001312, value 0x4E6F2069 'No i', cstring "No info available." */]
00001306  4EAD 07E2                jsr        [A5 + 0x7E2 /* export_248, CODE:0 @ 00000000 */]
0000130A  584F                     addq.w     A7, 4
label0000130C:
0000130C  265F                     movea.l    A3, [A7]+
0000130E  4E5E                     unlink     A6
00001310  4E75                     rts
00001312  4E6F 2069 6E66 6F20      dc.b       "No info "
0000131A  6176                     bsr        +0x78 /* 00001392 */
0000131C  6169                     bsr        +0x6B /* 00001387 */
0000131E  6C61                     bge        +0x63 /* 00001381 */
00001320  626C                     bhi        +0x6E /* 0000138E */
00001322  652E                     bcs        +0x30 /* 00001352 */
00001324  0000 4E56                ori.b      D0, 0x56 /* 'V' */
// begin alternate branch 00001326-0000132C
fn00001326:
00001326  4E56 0000                link       A6, 0
0000132A  2F04                     move.l     -[A7], D4
// end alternate branch 00001326-0000132C
fn00001326: // (misaligned)
00001328  0000 2F04                ori.b      D0, 0x4
0000132C  42A7                     clr.l      -[A7]
0000132E  4EAD 010A                jsr        [A5 + 0x10A /* export_29, CODE:0 @ 00000000 */]
00001332  584F                     addq.w     A7, 4
00001334  0C6D 0100 FF2C           cmpi.w     [A5 - 0xD4], 0x100
0000133A  6610                     bne        +0x12 /* 0000134C */
0000133C  2F2E 0008                move.l     -[A7], [A6 + 0x8]
00001340  4EAD 035A                jsr        [A5 + 0x35A /* export_103, CODE:0 @ 00000000 */]
00001344  584F                     addq.w     A7, 4
label00001346:
00001346  281F                     move.l     D4, [A7]+
00001348  4E5E                     unlink     A6
0000134A  4E75                     rts
label0000134C:
0000134C  246E 0008                movea.l    A2, [A6 + 0x8]
00001350  362A 000E                move.w     D3, [A2 + 0xE]
// begin alternate branch 00001352-0000135A
label00001352:
00001352  000E C67C                ori.b      A6, 0x7C /* '|' */
00001356  0200 3F03                andi.b     D0, 0x3
// end alternate branch 00001352-0000135A
label00001352: // (misaligned)
00001354  C67C 0200                and.w      D3, 0x200
00001358  3F03                     move.w     -[A7], D3
0000135A  246E 0008                movea.l    A2, [A6 + 0x8]
0000135E  2F2A 000A                move.l     -[A7], [A2 + 0xA]
00001362  4EAD 0072                jsr        [A5 + 0x72 /* export_10, CODE:0 @ 00000000 */]
00001366  5C4F                     addq.w     A7, 6
00001368  4A40                     tst.w      D0
0000136A  6602                     bne        +0x4 /* 0000136E */
0000136C  60D8                     bra        -0x26 /* 00001346 */
label0000136E:
0000136E  1B7C 0001 E471           move.b     [A5 - 0x1B8F], 0x1
00001374  1B7C 0001 E4AF           move.b     [A5 - 0x1B51], 0x1
0000137A  1B7C 0001 E4B1           move.b     [A5 - 0x1B4F], 0x1
00001380  1B7C 0001 E4AE           move.b     [A5 - 0x1B52], 0x1
00001386  4EBA F648                jsr        [PC - 0x9B8 /* 000009D0 */]
label0000138A:
0000138A  4EAD 0122                jsr        [A5 + 0x122 /* export_32, CODE:0 @ 00000000 */]
label0000138E:
0000138E  422D FCF6                clr.b      [A5 - 0x30A]
fn00001392:
00001392  246E 0008                movea.l    A2, [A6 + 0x8]
00001396  362A 000E                move.w     D3, [A2 + 0xE]
0000139A  C67C 0200                and.w      D3, 0x200
0000139E  3F03                     move.w     -[A7], D3
000013A0  4EBA F3DC                jsr        [PC - 0xC24 /* 0000077E */]
000013A4  544F                     addq.w     A7, 2
000013A6  3800                     move.w     D4, D0
000013A8  1B6D FCAE FCF7           move.b     [A5 - 0x309], [A5 - 0x352]
000013AE  0C6D 0000 FCAA           cmpi.w     [A5 - 0x356], 0x0
000013B4  6F06                     ble        +0x8 /* 000013BC */
000013B6  362D FCAA                move.w     D3, [A5 - 0x356]
000013BA  6006                     bra        +0x8 /* 000013C2 */
label000013BC:
000013BC  362D FCAA                move.w     D3, [A5 - 0x356]
000013C0  4443                     neg.w      D3
label000013C2:
000013C2  0C6D 0000 FCAC           cmpi.w     [A5 - 0x354], 0x0
000013C8  6F06                     ble        +0x8 /* 000013D0 */
000013CA  342D FCAC                move.w     D2, [A5 - 0x354]
000013CE  6006                     bra        +0x8 /* 000013D6 */
label000013D0:
000013D0  342D FCAC                move.w     D2, [A5 - 0x354]
000013D4  4442                     neg.w      D2
label000013D6:
000013D6  B642                     cmp.w      D3, D2
000013D8  6614                     bne        +0x16 /* 000013EE */
000013DA  362D FCC0                move.w     D3, [A5 - 0x340]
000013DE  B66D FCA4                cmp.w      D3, [A5 - 0x35C]
000013E2  676E                     beq        +0x70 /* 00001452 */
000013E4  362D FCC2                move.w     D3, [A5 - 0x33E]
000013E8  B66D FCA2                cmp.w      D3, [A5 - 0x35E]
000013EC  6764                     beq        +0x66 /* 00001452 */
label000013EE:
000013EE  362D FCC2                move.w     D3, [A5 - 0x33E]
000013F2  B66D FCA2                cmp.w      D3, [A5 - 0x35E]
000013F6  660A                     bne        +0xC /* 00001402 */
000013F8  362D FCA4                move.w     D3, [A5 - 0x35C]
000013FC  B66D FCC0                cmp.w      D3, [A5 - 0x340]
00001400  6750                     beq        +0x52 /* 00001452 */
label00001402:
00001402  3F04                     move.w     -[A7], D4
00001404  4EAD 08BA                jsr        [A5 + 0x8BA /* export_275, CODE:0 @ 00000000 */]
00001408  544F                     addq.w     A7, 2
0000140A  3F2D FCAC                move.w     -[A7], [A5 - 0x354]
0000140E  3F2D FCAA                move.w     -[A7], [A5 - 0x356]
00001412  4EAD 033A                jsr        [A5 + 0x33A /* export_99, CODE:0 @ 00000000 */]
00001416  584F                     addq.w     A7, 4
00001418  4EAD 0122                jsr        [A5 + 0x122 /* export_32, CODE:0 @ 00000000 */]
0000141C  B87C 0190                cmp.w      D4, 0x190
00001420  6C14                     bge        +0x16 /* 00001436 */
00001422  4A2D FCF6                tst.b      [A5 - 0x30A]
00001426  670E                     beq        +0x10 /* 00001436 */
00001428  162D FCF6                move.b     D3, [A5 - 0x30A]
0000142C  4883                     ext.w      D3
0000142E  3F03                     move.w     -[A7], D3
00001430  4EAD 067A                jsr        [A5 + 0x67A /* export_203, CODE:0 @ 00000000 */]
00001434  544F                     addq.w     A7, 2
label00001436:
00001436  4EAD 0122                jsr        [A5 + 0x122 /* export_32, CODE:0 @ 00000000 */]
0000143A  4EAD 0112                jsr        [A5 + 0x112 /* export_30, CODE:0 @ 00000000 */]
0000143E  4EAD 0122                jsr        [A5 + 0x122 /* export_32, CODE:0 @ 00000000 */]
00001442  4A2D E4B1                tst.b      [A5 - 0x1B4F]
00001446  670A                     beq        +0xC /* 00001452 */
00001448  4A2D E471                tst.b      [A5 - 0x1B8F]
0000144C  6704                     beq        +0x6 /* 00001452 */
0000144E  6000 FF3A                bra        -0xC4 /* 0000138A */
label00001452:
00001452  4EBA F596                jsr        [PC - 0xA6A /* 000009EA */]
00001456  6000 FEEE                bra        -0x110 /* 00001346 */
fn0000145A:
0000145A  4E56 0000                link       A6, 0
0000145E  1B7C 0001 E471           move.b     [A5 - 0x1B8F], 0x1
00001464  246E 0008                movea.l    A2, [A6 + 0x8]
00001468  302A 000E                move.w     D0, [A2 + 0xE]
0000146C  6000 00AA                bra        +0xAC /* 00001518 */
00001470  6000 00CE                bra        +0xD0 /* 00001540 */
label00001474:
00001474  2F2E 0008                move.l     -[A7], [A6 + 0x8]
00001478  4EBA 03CE                jsr        [PC + 0x3CE /* 00001848 */]
0000147C  584F                     addq.w     A7, 4
0000147E  6000 00C0                bra        +0xC2 /* 00001540 */
label00001482:
00001482  2F2E 0008                move.l     -[A7], [A6 + 0x8]
00001486  4EAD 0622                jsr        [A5 + 0x622 /* export_192, CODE:0 @ 00000000 */]
0000148A  584F                     addq.w     A7, 4
0000148C  6000 00B2                bra        +0xB4 /* 00001540 */
label00001490:
00001490  2F2E 0008                move.l     -[A7], [A6 + 0x8]
00001494  4EAD 05F2                jsr        [A5 + 0x5F2 /* export_186, CODE:0 @ 00000000 */]
00001498  584F                     addq.w     A7, 4
0000149A  6000 00A4                bra        +0xA6 /* 00001540 */
label0000149E:
0000149E  2F2E 0008                move.l     -[A7], [A6 + 0x8]
000014A2  4EAD 071A                jsr        [A5 + 0x71A /* export_223, CODE:0 @ 00000000 */]
000014A6  584F                     addq.w     A7, 4
000014A8  1B40 E471                move.b     [A5 - 0x1B8F], D0
000014AC  6000 0092                bra        +0x94 /* 00001540 */
label000014B0:
000014B0  246E 0008                movea.l    A2, [A6 + 0x8]
000014B4  B5ED FF00                cmpa.l     A2, [A5 - 0x100]
000014B8  670A                     beq        +0xC /* 000014C4 */
000014BA  246E 0008                movea.l    A2, [A6 + 0x8]
000014BE  B5ED FF04                cmpa.l     A2, [A5 - 0xFC]
000014C2  6610                     bne        +0x12 /* 000014D4 */
label000014C4:
000014C4  2F2E 0008                move.l     -[A7], [A6 + 0x8]
000014C8  4EAD 060A                jsr        [A5 + 0x60A /* export_189, CODE:0 @ 00000000 */]
000014CC  584F                     addq.w     A7, 4
000014CE  1B40 E471                move.b     [A5 - 0x1B8F], D0
000014D2  600E                     bra        +0x10 /* 000014E2 */
label000014D4:
000014D4  2F2E 0008                move.l     -[A7], [A6 + 0x8]
000014D8  4EAD 0602                jsr        [A5 + 0x602 /* export_188, CODE:0 @ 00000000 */]
000014DC  584F                     addq.w     A7, 4
000014DE  1B40 E471                move.b     [A5 - 0x1B8F], D0
label000014E2:
000014E2  605C                     bra        +0x5E /* 00001540 */
label000014E4:
000014E4  246E 0008                movea.l    A2, [A6 + 0x8]
000014E8  B5ED FEFC                cmpa.l     A2, [A5 - 0x104]
000014EC  6610                     bne        +0x12 /* 000014FE */
000014EE  2F2E 0008                move.l     -[A7], [A6 + 0x8]
000014F2  4EAD 065A                jsr        [A5 + 0x65A /* export_199, CODE:0 @ 00000000 */]
000014F6  584F                     addq.w     A7, 4
000014F8  1B40 E471                move.b     [A5 - 0x1B8F], D0
000014FC  600E                     bra        +0x10 /* 0000150C */
label000014FE:
000014FE  2F2E 0008                move.l     -[A7], [A6 + 0x8]
00001502  4EAD 0652                jsr        [A5 + 0x652 /* export_198, CODE:0 @ 00000000 */]
00001506  584F                     addq.w     A7, 4
00001508  1B40 E471                move.b     [A5 - 0x1B8F], D0
label0000150C:
0000150C  6032                     bra        +0x34 /* 00001540 */
label0000150E:
0000150E  4EAD 068A                jsr        [A5 + 0x68A /* export_205, CODE:0 @ 00000000 */]
00001512  422D E471                clr.b      [A5 - 0x1B8F]
00001516  6028                     bra        +0x2A /* 00001540 */
label00001518:
00001518  907C 0021                sub.w      D0, 0x21 /* '!' */
0000151C  6700 FF64                beq        -0x9A /* 00001482 */
00001520  907C 0019                sub.w      D0, 0x19
00001524  6700 FF4E                beq        -0xB0 /* 00001474 */
00001528  5740                     subq.w     D0, 3
0000152A  6784                     beq        -0x7A /* 000014B0 */
0000152C  5540                     subq.w     D0, 2
0000152E  6700 FF60                beq        -0x9E /* 00001490 */
00001532  907C 001E                sub.w      D0, 0x1E
00001536  67AC                     beq        -0x52 /* 000014E4 */
00001538  5940                     subq.w     D0, 4
0000153A  6700 FF62                beq        -0x9C /* 0000149E */
0000153E  60CE                     bra        -0x30 /* 0000150E */
label00001540:
00001540  4E5E                     unlink     A6
00001542  4E75                     rts
00001544  4E56 0000                link       A6, 0
00001548  2F04                     move.l     -[A7], D4
0000154A  7800                     moveq.l    D4, 0x00
0000154C  4A2D E471                tst.b      [A5 - 0x1B8F]
00001550  6704                     beq        +0x6 /* 00001556 */
00001552  4EAD 0562                jsr        [A5 + 0x562 /* export_168, CODE:0 @ 00000000 */]
label00001556:
00001556  3F3C 0001                move.w     -[A7], 0x1
0000155A  4EAD 013A                jsr        [A5 + 0x13A /* export_35, CODE:0 @ 00000000 */]
0000155E  544F                     addq.w     A7, 2
label00001560:
00001560  4A6D E4C2                tst.w      [A5 - 0x1B3E]
00001564  671C                     beq        +0x1E /* 00001582 */
00001566  7801                     moveq.l    D4, 0x01
00001568  4EAD 0562                jsr        [A5 + 0x562 /* export_168, CODE:0 @ 00000000 */]
0000156C  536D E4C2                subq.w     [A5 - 0x1B3E], 1
00001570  4A6D E4C2                tst.w      [A5 - 0x1B3E]
00001574  660A                     bne        +0xC /* 00001580 */
00001576  487A 001C                pea.l      [PC + 0x1C /* 00001594, value 0x596F7520 'You ', cstring "You can move again." */]
0000157A  4EAD 0502                jsr        [A5 + 0x502 /* export_156, CODE:0 @ 00000000 */]
0000157E  584F                     addq.w     A7, 4
label00001580:
00001580  60DE                     bra        -0x20 /* 00001560 */
label00001582:
00001582  4A44                     tst.w      D4
00001584  6708                     beq        +0xA /* 0000158E */
00001586  4267                     clr.w      -[A7]
00001588  4EAD 013A                jsr        [A5 + 0x13A /* export_35, CODE:0 @ 00000000 */]
0000158C  544F                     addq.w     A7, 2
label0000158E:
0000158E  281F                     move.l     D4, [A7]+
00001590  4E5E                     unlink     A6
00001592  4E75                     rts
00001594  596F 7520 6361 6E20      dc.b       "You can "
0000159C  6D6F                     blt        +0x71 /* 0000160D */
0000159E  7665                     moveq.l    D3, 0x65
000015A0  2061                     movea.l    A0, -[A1]
000015A2  6761                     beq        +0x63 /* 00001605 */
000015A4  696E                     bvs        +0x70 /* 00001614 */
000015A6  2E00                     move.l     D7, D0
fn000015A8:
000015A8  4E56 FFF8                link       A6, -0x0008
000015AC  422D E471                clr.b      [A5 - 0x1B8F]
000015B0  42A7                     clr.l      -[A7]
000015B2  4EAD 010A                jsr        [A5 + 0x10A /* export_29, CODE:0 @ 00000000 */]
000015B6  584F                     addq.w     A7, 4
000015B8  486E FFFC                pea.l      [A6 - 0x4]
000015BC  2F2E 0008                move.l     -[A7], [A6 + 0x8]
000015C0  4EAD 08F2                jsr        [A5 + 0x8F2 /* export_282, CODE:0 @ 00000000 */]
000015C4  504F                     addq.w     A7, 8
000015C6  3D40 FFFA                move.w     [A6 - 0x6], D0
000015CA  4EAD 0122                jsr        [A5 + 0x122 /* export_32, CODE:0 @ 00000000 */]
000015CE  302E FFFA                move.w     D0, [A6 - 0x6]
000015D2  6056                     bra        +0x58 /* 0000162A */
label000015D4:
000015D4  2F2E FFFC                move.l     -[A7], [A6 - 0x4]
000015D8  4EBA FE80                jsr        [PC - 0x180 /* 0000145A */]
000015DC  584F                     addq.w     A7, 4
000015DE  6056                     bra        +0x58 /* 00001636 */
label000015E0:
000015E0  4267                     clr.w      -[A7]
000015E2  2F2E FFFC                move.l     -[A7], [A6 - 0x4]
000015E6  615A                     bsr        +0x5C /* 00001642 */
000015E8  5C4F                     addq.w     A7, 6
000015EA  3F2D FCAC                move.w     -[A7], [A5 - 0x354]
000015EE  3F2D FCAA                move.w     -[A7], [A5 - 0x356]
000015F2  2F2E FFFC                move.l     -[A7], [A6 - 0x4]
000015F6  4EAD 06EA                jsr        [A5 + 0x6EA /* export_217, CODE:0 @ 00000000 */]
000015FA  504F                     addq.w     A7, 8
000015FC  1B40 E471                move.b     [A5 - 0x1B8F], D0
00001600  6034                     bra        +0x36 /* 00001636 */
label00001602:
00001602  3F3C 0001                move.w     -[A7], 0x1
00001606  2F2E FFFC                move.l     -[A7], [A6 - 0x4]
0000160A  6136                     bsr        +0x38 /* 00001642 */
0000160C  5C4F                     addq.w     A7, 6
0000160E  3B6D FCAA E4E2           move.w     [A5 - 0x1B1E], [A5 - 0x356]
label00001614:
00001614  3B6D FCAC E4E0           move.w     [A5 - 0x1B20], [A5 - 0x354]
0000161A  2F2E FFFC                move.l     -[A7], [A6 - 0x4]
0000161E  4EAD 040A                jsr        [A5 + 0x40A /* export_125, CODE:0 @ 00000000 */]
00001622  584F                     addq.w     A7, 4
00001624  1B40 E471                move.b     [A5 - 0x1B8F], D0
00001628  600C                     bra        +0xE /* 00001636 */
label0000162A:
0000162A  5340                     subq.w     D0, 1
0000162C  67A6                     beq        -0x58 /* 000015D4 */
0000162E  5340                     subq.w     D0, 1
00001630  67AE                     beq        -0x50 /* 000015E0 */
00001632  5340                     subq.w     D0, 1
00001634  67CC                     beq        -0x32 /* 00001602 */
label00001636:
00001636  4EAD 0122                jsr        [A5 + 0x122 /* export_32, CODE:0 @ 00000000 */]
0000163A  4EAD 0112                jsr        [A5 + 0x112 /* export_30, CODE:0 @ 00000000 */]
0000163E  4E5E                     unlink     A6
00001640  4E75                     rts
fn00001642:
00001642  4E56 0000                link       A6, 0
00001646  2B6E 0008 F244           move.l     [A5 - 0xDBC], [A6 + 0x8]
0000164C  4AAE 0008                tst.l      [A6 + 0x8]
00001650  6732                     beq        +0x34 /* 00001684 */
00001652  4A6E 000C                tst.w      [A6 + 0xC]
00001656  6708                     beq        +0xA /* 00001660 */
00001658  45FA 003E                lea.l      A2, [PC + 0x3E /* 00001698, value 0x95A6170 '\tZap', pstring "Zap again" */]
0000165C  260A                     move.l     D3, A2
0000165E  6006                     bra        +0x8 /* 00001666 */
label00001660:
00001660  45FA 0041                lea.l      A2, [PC + 0x41 /* 000016A3, value 0xB546872, pstring "Throw Again" */]
00001664  260A                     move.l     D3, A2
label00001666:
00001666  2F03                     move.l     -[A7], D3
00001668  3F3C 0001                move.w     -[A7], 0x1
0000166C  4EBA 0220                jsr        [PC + 0x220 /* 0000188E */]
00001670  5C4F                     addq.w     A7, 6
00001672  3B6E 000C F248           move.w     [A5 - 0xDB8], [A6 + 0xC]
00001678  45ED F24A                lea.l      A2, [A5 - 0xDB6]
0000167C  43ED FCAA                lea.l      A1, [A5 - 0x356]
00001680  24D9                     move.l     [A2]+, [A1]+
00001682  6010                     bra        +0x12 /* 00001694 */
label00001684:
00001684  426D F248                clr.w      [A5 - 0xDB8]
00001688  487A 0026                pea.l      [PC + 0x26 /* 000016B0, value 0x12546872, pstring "Throw or Zap again" */]
0000168C  4267                     clr.w      -[A7]
0000168E  4EBA 01FE                jsr        [PC + 0x1FE /* 0000188E */]
00001692  5C4F                     addq.w     A7, 6
label00001694:
00001694  4E5E                     unlink     A6
00001696  4E75                     rts
00001698  095A                     bchg       [A2]+, D4
0000169A  6170                     bsr        +0x72 /* 0000170C */
0000169C  2061                     movea.l    A0, -[A1]
0000169E  6761                     beq        +0x63 /* 00001701 */
000016A0  696E                     bvs        +0x70 /* 00001710 */
000016A2  000B 5468                ori.b      A3, 0x68 /* 'h' */
000016A6  726F                     moveq.l    D1, 0x6F
000016A8  7720                     moveq.l    D3, 0x20
000016AA  4167                     chk.w      D0, -[A7]
000016AC  6169                     bsr        +0x6B /* 00001717 */
000016AE  6E00 1254                bgt        +0x1256 /* 00002904 */
000016B2  6872                     bvc        +0x74 /* 00001726 */
000016B4  6F77                     ble        +0x79 /* 0000172D */
000016B6  206F 7220                movea.l    A0, [A7 + 0x7220]
000016BA  5A61                     addq.w     -[A1], 5
000016BC  7020                     moveq.l    D0, 0x20
000016BE  6167                     bsr        +0x69 /* 00001727 */
000016C0  6169                     bsr        +0x6B /* 0000172B */
000016C2  6E00 4E56                bgt        +0x4E58 /* 0000651A */
// begin alternate branch 000016C4-000016CE
fn000016C4:
000016C4  4E56 0000                link       A6, 0
000016C8  4AAD F244                tst.l      [A5 - 0xDBC]
000016CC  6742                     beq        +0x44 /* 00001710 */
// end alternate branch 000016C4-000016CE
fn000016C4: // (misaligned)
000016C6  0000 4AAD                ori.b      D0, 0xAD
000016CA  F244 6742                .extension 0x244 <<F/1/1>>, 0x6742 // unimplemented
000016CE  4A6D F248                tst.w      [A5 - 0xDB8]
000016D2  671C                     beq        +0x1E /* 000016F0 */
000016D4  3B6D F24A E4E2           move.w     [A5 - 0x1B1E], [A5 - 0xDB6]
000016DA  3B6D F24C E4E0           move.w     [A5 - 0x1B20], [A5 - 0xDB4]
000016E0  2F2D F244                move.l     -[A7], [A5 - 0xDBC]
000016E4  4EAD 040A                jsr        [A5 + 0x40A /* export_125, CODE:0 @ 00000000 */]
000016E8  584F                     addq.w     A7, 4
000016EA  1B40 E471                move.b     [A5 - 0x1B8F], D0
000016EE  6016                     bra        +0x18 /* 00001706 */
label000016F0:
000016F0  3F2D F24C                move.w     -[A7], [A5 - 0xDB4]
000016F4  3F2D F24A                move.w     -[A7], [A5 - 0xDB6]
000016F8  2F2D F244                move.l     -[A7], [A5 - 0xDBC]
000016FC  4EAD 06EA                jsr        [A5 + 0x6EA /* export_217, CODE:0 @ 00000000 */]
00001700  504F                     addq.w     A7, 8
00001702  1B40 E471                move.b     [A5 - 0x1B8F], D0
label00001706:
00001706  4EAD 0122                jsr        [A5 + 0x122 /* export_32, CODE:0 @ 00000000 */]
0000170A  4EAD 0112                jsr        [A5 + 0x112 /* export_30, CODE:0 @ 00000000 */]
// begin alternate branch 0000170C-0000170E
fn0000170C:
0000170C  0112                     btst       [A2], D0
// end alternate branch 0000170C-0000170E
fn0000170C: // (misaligned)
0000170E  6004                     bra        +0x6 /* 00001714 */
label00001710:
00001710  4EAD 068A                jsr        [A5 + 0x68A /* export_205, CODE:0 @ 00000000 */]
label00001714:
00001714  4E5E                     unlink     A6
00001716  4E75                     rts
00001718  4E56 FFFE                link       A6, -0x0002
0000171C  246E 0008                movea.l    A2, [A6 + 0x8]
00001720  4E92                     jsr        [A2]
00001722  3D40 FFFE                move.w     [A6 - 0x2], D0
label00001726:
00001726  2F2E 0008                move.l     -[A7], [A6 + 0x8]
0000172A  610A                     bsr        +0xC /* 00001736 */
0000172C  584F                     addq.w     A7, 4
0000172E  302E FFFE                move.w     D0, [A6 - 0x2]
00001732  4E5E                     unlink     A6
00001734  4E75                     rts
fn00001736:
00001736  4E56 0000                link       A6, 0
0000173A  2F2E 0008                move.l     -[A7], [A6 + 0x8]
0000173E  A9F1                     syscall    UnloadSeg
00001740  4E5E                     unlink     A6
00001742  4E75                     rts
00001744  4E56 0000                link       A6, 0
00001748  486D 0332                pea.l      [A5 + 0x332 /* export_98, CODE:0 @ 00000000 */]
0000174C  A9F1                     syscall    UnloadSeg
0000174E  486D 0352                pea.l      [A5 + 0x352 /* export_102, CODE:0 @ 00000000 */]
00001752  A9F1                     syscall    UnloadSeg
00001754  486D 0362                pea.l      [A5 + 0x362 /* export_104, CODE:0 @ 00000000 */]
00001758  A9F1                     syscall    UnloadSeg
0000175A  486D 03AA                pea.l      [A5 + 0x3AA /* export_113, CODE:0 @ 00000000 */]
0000175E  A9F1                     syscall    UnloadSeg
00001760  486D 03CA                pea.l      [A5 + 0x3CA /* export_117, CODE:0 @ 00000000 */]
00001764  A9F1                     syscall    UnloadSeg
00001766  486D 03F2                pea.l      [A5 + 0x3F2 /* export_122, CODE:0 @ 00000000 */]
0000176A  A9F1                     syscall    UnloadSeg
0000176C  486D 0422                pea.l      [A5 + 0x422 /* export_128, CODE:0 @ 00000000 */]
00001770  A9F1                     syscall    UnloadSeg
00001772  486D 04A2                pea.l      [A5 + 0x4A2 /* export_144, CODE:0 @ 00000000 */]
00001776  A9F1                     syscall    UnloadSeg
00001778  486D 04D2                pea.l      [A5 + 0x4D2 /* export_150, CODE:0 @ 00000000 */]
0000177C  A9F1                     syscall    UnloadSeg
0000177E  486D 0512                pea.l      [A5 + 0x512 /* export_158, CODE:0 @ 00000000 */]
00001782  A9F1                     syscall    UnloadSeg
00001784  486D 05CA                pea.l      [A5 + 0x5CA /* export_181, CODE:0 @ 00000000 */]
00001788  A9F1                     syscall    UnloadSeg
0000178A  486D 05EA                pea.l      [A5 + 0x5EA /* export_185, CODE:0 @ 00000000 */]
0000178E  A9F1                     syscall    UnloadSeg
00001790  486D 05FA                pea.l      [A5 + 0x5FA /* export_187, CODE:0 @ 00000000 */]
00001794  A9F1                     syscall    UnloadSeg
00001796  486D 061A                pea.l      [A5 + 0x61A /* export_191, CODE:0 @ 00000000 */]
0000179A  A9F1                     syscall    UnloadSeg
0000179C  486D 064A                pea.l      [A5 + 0x64A /* export_197, CODE:0 @ 00000000 */]
000017A0  A9F1                     syscall    UnloadSeg
000017A2  486D 0662                pea.l      [A5 + 0x662 /* export_200, CODE:0 @ 00000000 */]
000017A6  A9F1                     syscall    UnloadSeg
000017A8  486D 0682                pea.l      [A5 + 0x682 /* export_204, CODE:0 @ 00000000 */]
000017AC  A9F1                     syscall    UnloadSeg
000017AE  486D 0692                pea.l      [A5 + 0x692 /* export_206, CODE:0 @ 00000000 */]
000017B2  A9F1                     syscall    UnloadSeg
000017B4  486D 06CA                pea.l      [A5 + 0x6CA /* export_213, CODE:0 @ 00000000 */]
000017B8  A9F1                     syscall    UnloadSeg
000017BA  486D 06E2                pea.l      [A5 + 0x6E2 /* export_216, CODE:0 @ 00000000 */]
000017BE  A9F1                     syscall    UnloadSeg
000017C0  486D 0722                pea.l      [A5 + 0x722 /* export_224, CODE:0 @ 00000000 */]
000017C4  A9F1                     syscall    UnloadSeg
000017C6  486D 077A                pea.l      [A5 + 0x77A /* export_235, CODE:0 @ 00000000 */]
000017CA  A9F1                     syscall    UnloadSeg
000017CC  486D 07B2                pea.l      [A5 + 0x7B2 /* export_242, CODE:0 @ 00000000 */]
000017D0  A9F1                     syscall    UnloadSeg
000017D2  486D 07FA                pea.l      [A5 + 0x7FA /* export_251, CODE:0 @ 00000000 */]
000017D6  A9F1                     syscall    UnloadSeg
000017D8  486D 0842                pea.l      [A5 + 0x842 /* export_260, CODE:0 @ 00000000 */]
000017DC  A9F1                     syscall    UnloadSeg
000017DE  486D 0882                pea.l      [A5 + 0x882 /* export_268, CODE:0 @ 00000000 */]
000017E2  A9F1                     syscall    UnloadSeg
000017E4  486D 08AA                pea.l      [A5 + 0x8AA /* export_273, CODE:0 @ 00000000 */]
000017E8  A9F1                     syscall    UnloadSeg
000017EA  486D 08CA                pea.l      [A5 + 0x8CA /* export_277, CODE:0 @ 00000000 */]
000017EE  A9F1                     syscall    UnloadSeg
000017F0  4E5E                     unlink     A6
000017F2  4E75                     rts
000017F4  4E56 0000                link       A6, 0
000017F8  2F2E 0008                move.l     -[A7], [A6 + 0x8]
000017FC  4EAD 0492                jsr        [A5 + 0x492 /* export_142, CODE:0 @ 00000000 */]
00001800  584F                     addq.w     A7, 4
00001802  486D 0492                pea.l      [A5 + 0x492 /* export_142, CODE:0 @ 00000000 */]
00001806  A9F1                     syscall    UnloadSeg
00001808  4E5E                     unlink     A6
0000180A  4E75                     rts
0000180C  4E56 0000                link       A6, 0
00001810  4EAD 0912                jsr        [A5 + 0x912 /* export_286, CODE:0 @ 00000000 */]
00001814  486D 0912                pea.l      [A5 + 0x912 /* export_286, CODE:0 @ 00000000 */]
00001818  A9F1                     syscall    UnloadSeg
0000181A  4E5E                     unlink     A6
0000181C  4E75                     rts
0000181E  4E56 0000                link       A6, 0
00001822  3F2E 0008                move.w     -[A7], [A6 + 0x8]
00001826  4EAD 093A                jsr        [A5 + 0x93A /* export_291, CODE:0 @ 00000000 */]
0000182A  544F                     addq.w     A7, 2
0000182C  486D 093A                pea.l      [A5 + 0x93A /* export_291, CODE:0 @ 00000000 */]
00001830  A9F1                     syscall    UnloadSeg
00001832  4E5E                     unlink     A6
00001834  4E75                     rts
00001836  4E56 0000                link       A6, 0
0000183A  486D 0942                pea.l      [A5 + 0x942 /* export_292, CODE:0 @ 00000000 */]
0000183E  4EAD 011A                jsr        [A5 + 0x11A /* export_31, CODE:0 @ 00000000 */]
00001842  584F                     addq.w     A7, 4
00001844  4E5E                     unlink     A6
00001846  4E75                     rts
fn00001848:
00001848  4E56 0000                link       A6, 0
0000184C  2F2E 0008                move.l     -[A7], [A6 + 0x8]
00001850  4EAD 094A                jsr        [A5 + 0x94A /* export_293, CODE:0 @ 00000000 */]
00001854  584F                     addq.w     A7, 4
00001856  486D 094A                pea.l      [A5 + 0x94A /* export_293, CODE:0 @ 00000000 */]
0000185A  A9F1                     syscall    UnloadSeg
0000185C  4E5E                     unlink     A6
0000185E  4E75                     rts
00001860  4E56 FFFC                link       A6, -0x0004
00001864  4EAD 0992                jsr        [A5 + 0x992 /* export_302, CODE:0 @ 00000000 */]
00001868  2D40 FFFC                move.l     [A6 - 0x4], D0
0000186C  486D 0992                pea.l      [A5 + 0x992 /* export_302, CODE:0 @ 00000000 */]
00001870  A9F1                     syscall    UnloadSeg
00001872  202E FFFC                move.l     D0, [A6 - 0x4]
00001876  4E5E                     unlink     A6
00001878  4E75                     rts
0000187A  4E56 0000                link       A6, 0
0000187E  486D 0692                pea.l      [A5 + 0x692 /* export_206, CODE:0 @ 00000000 */]
00001882  A9F1                     syscall    UnloadSeg
00001884  486D 0422                pea.l      [A5 + 0x422 /* export_128, CODE:0 @ 00000000 */]
00001888  A9F1                     syscall    UnloadSeg
0000188A  4E5E                     unlink     A6
0000188C  4E75                     rts
fn0000188E:
0000188E  4E56 0000                link       A6, 0
00001892  2F2E 000A                move.l     -[A7], [A6 + 0xA]
00001896  3F2E 0008                move.w     -[A7], [A6 + 0x8]
0000189A  4EAD 0822                jsr        [A5 + 0x822 /* export_256, CODE:0 @ 00000000 */]
0000189E  5C4F                     addq.w     A7, 6
000018A0  486D 0822                pea.l      [A5 + 0x822 /* export_256, CODE:0 @ 00000000 */]
000018A4  A9F1                     syscall    UnloadSeg
000018A6  4E5E                     unlink     A6
000018A8  4E75                     rts
000018AA  4E56 0000                link       A6, 0
000018AE  4E5E                     unlink     A6
000018B0  4E75                     rts
fn000018B2:
000018B2  4E56 0000                link       A6, 0
000018B6  2F0B                     move.l     -[A7], A3
000018B8  45ED F24E                lea.l      A2, [A5 - 0xDB2]
000018BC  264A                     movea.l    A3, A2
label000018BE:
000018BE  45ED F2C6                lea.l      A2, [A5 - 0xD3A]
000018C2  B7CA                     cmpa.l     A3, A2
000018C4  6410                     bcc        +0x12 /* 000018D6 */
000018C6  4A53                     tst.w      [A3]
000018C8  6608                     bne        +0xA /* 000018D2 */
000018CA  200B                     move.l     D0, A3
label000018CC:
000018CC  265F                     movea.l    A3, [A7]+
000018CE  4E5E                     unlink     A6
000018D0  4E75                     rts
label000018D2:
000018D2  5C8B                     addq.l     A3, 6
000018D4  60E8                     bra        -0x16 /* 000018BE */
label000018D6:
000018D6  4A2D E4B3                tst.b      [A5 - 0x1B4D]
000018DA  670A                     beq        +0xC /* 000018E6 */
000018DC  487A 000C                pea.l      [PC + 0xC /* 000018EA, value 0x52616E20 'Ran ', cstring "Ran out of fuse slots" */]
000018E0  4EAD 0502                jsr        [A5 + 0x502 /* export_156, CODE:0 @ 00000000 */]
000018E4  584F                     addq.w     A7, 4
label000018E6:
000018E6  7000                     moveq.l    D0, 0x00
000018E8  60E2                     bra        -0x1C /* 000018CC */
000018EA  5261                     addq.w     -[A1], 1
000018EC  6E20                     bgt        +0x22 /* 0000190E */
000018EE  6F75                     ble        +0x77 /* 00001965 */
000018F0  7420                     moveq.l    D2, 0x20
000018F2  6F66                     ble        +0x68 /* 0000195A */
000018F4  2066                     movea.l    A0, -[A6]
000018F6  7573                     moveq.l    D2, 0x73
000018F8  6520                     bcs        +0x22 /* 0000191A */
000018FA  736C                     moveq.l    D1, 0x6C
000018FC  6F74                     ble        +0x76 /* 00001972 */
000018FE  7300                     moveq.l    D1, 0x00
fn00001900:
00001900  4E56 0000                link       A6, 0
00001904  2F0B                     move.l     -[A7], A3
00001906  45ED F24E                lea.l      A2, [A5 - 0xDB2]
0000190A  264A                     movea.l    A3, A2
label0000190C:
0000190C  45ED F2C6                lea.l      A2, [A5 - 0xD3A]
// begin alternate branch 0000190E-00001912
label0000190E:
0000190E  F2C6 B7CA                .extension 0x2C6 <<F/2-3/1>> // unimplemented
// end alternate branch 0000190E-00001912
label0000190E: // (misaligned)
00001910  B7CA                     cmpa.l     A3, A2
00001912  6414                     bcc        +0x16 /* 00001928 */
00001914  362E 0008                move.w     D3, [A6 + 0x8]
00001918  B653                     cmp.w      D3, [A3]
label0000191A:
0000191A  6608                     bne        +0xA /* 00001924 */
0000191C  200B                     move.l     D0, A3
label0000191E:
0000191E  265F                     movea.l    A3, [A7]+
00001920  4E5E                     unlink     A6
00001922  4E75                     rts
label00001924:
00001924  5C8B                     addq.l     A3, 6
00001926  60E4                     bra        -0x1A /* 0000190C */
label00001928:
00001928  7000                     moveq.l    D0, 0x00
0000192A  60F2                     bra        -0xC /* 0000191E */
fn0000192C:
0000192C  4E56 0000                link       A6, 0
00001930  2F0B                     move.l     -[A7], A3
00001932  4EBA FF7E                jsr        [PC - 0x82 /* 000018B2 */]
00001936  2640                     movea.l    A3, D0
00001938  2F2E 0008                move.l     -[A7], [A6 + 0x8]
0000193C  4EBA 0122                jsr        [PC + 0x122 /* 00001A60 */]
00001940  584F                     addq.w     A7, 4
00001942  3680                     move.w     [A3], D0
00001944  376E 000C 0002           move.w     [A3 + 0x2], [A6 + 0xC]
0000194A  377C FFFF 0004           move.w     [A3 + 0x4], 0xFFFF
00001950  265F                     movea.l    A3, [A7]+
00001952  4E5E                     unlink     A6
00001954  4E75                     rts
00001956  4E56 0000                link       A6, 0
label0000195A:
0000195A  2F0B                     move.l     -[A7], A3
0000195C  45ED F24E                lea.l      A2, [A5 - 0xDB2]
00001960  264A                     movea.l    A3, A2
label00001962:
00001962  45ED F2C6                lea.l      A2, [A5 - 0xD3A]
00001966  B7CA                     cmpa.l     A3, A2
00001968  6426                     bcc        +0x28 /* 00001990 */
0000196A  0C6B FFFF 0004           cmpi.w     [A3 + 0x4], 0xFFFF
00001970  661A                     bne        +0x1C /* 0000198C */
label00001972:
00001972  4A53                     tst.w      [A3]
00001974  6716                     beq        +0x18 /* 0000198C */
00001976  3F2B 0002                move.w     -[A7], [A3 + 0x2]
0000197A  3613                     move.w     D3, [A3]
0000197C  48C3                     ext.l      D3
0000197E  E583                     asl        D3, 2
00001980  45ED EFD4                lea.l      A2, [A5 - 0x102C]
00001984  2272 3800                movea.l    A1, [A2 + D3]
00001988  4E91                     jsr        [A1]
0000198A  544F                     addq.w     A7, 2
label0000198C:
0000198C  5C8B                     addq.l     A3, 6
0000198E  60D2                     bra        -0x2C /* 00001962 */
label00001990:
00001990  265F                     movea.l    A3, [A7]+
00001992  4E5E                     unlink     A6
00001994  4E75                     rts
00001996  4E56 0000                link       A6, 0
0000199A  2F0B                     move.l     -[A7], A3
0000199C  4EBA FF14                jsr        [PC - 0xEC /* 000018B2 */]
000019A0  2640                     movea.l    A3, D0
000019A2  2F2E 0008                move.l     -[A7], [A6 + 0x8]
000019A6  4EBA 00B8                jsr        [PC + 0xB8 /* 00001A60 */]
000019AA  584F                     addq.w     A7, 4
000019AC  3680                     move.w     [A3], D0
000019AE  376E 000C 0002           move.w     [A3 + 0x2], [A6 + 0xC]
000019B4  376E 000E 0004           move.w     [A3 + 0x4], [A6 + 0xE]
000019BA  265F                     movea.l    A3, [A7]+
000019BC  4E5E                     unlink     A6
000019BE  4E75                     rts
000019C0  4E56 0000                link       A6, 0
000019C4  2F0B                     move.l     -[A7], A3
000019C6  2F2E 0008                move.l     -[A7], [A6 + 0x8]
000019CA  4EBA 0094                jsr        [PC + 0x94 /* 00001A60 */]
000019CE  584F                     addq.w     A7, 4
000019D0  3F00                     move.w     -[A7], D0
000019D2  4EBA FF2C                jsr        [PC - 0xD4 /* 00001900 */]
000019D6  544F                     addq.w     A7, 2
000019D8  2640                     movea.l    A3, D0
000019DA  4A80                     tst.l      D0
000019DC  6606                     bne        +0x8 /* 000019E4 */
label000019DE:
000019DE  265F                     movea.l    A3, [A7]+
000019E0  4E5E                     unlink     A6
000019E2  4E75                     rts
label000019E4:
000019E4  362E 000C                move.w     D3, [A6 + 0xC]
000019E8  D76B 0004                add.w      [A3 + 0x4], D3
000019EC  60F0                     bra        -0xE /* 000019DE */
000019EE  4E56 0000                link       A6, 0
000019F2  2F0B                     move.l     -[A7], A3
000019F4  2F2E 0008                move.l     -[A7], [A6 + 0x8]
000019F8  6166                     bsr        +0x68 /* 00001A60 */
000019FA  584F                     addq.w     A7, 4
000019FC  3F00                     move.w     -[A7], D0
000019FE  4EBA FF00                jsr        [PC - 0x100 /* 00001900 */]
00001A02  544F                     addq.w     A7, 2
00001A04  2640                     movea.l    A3, D0
00001A06  4A80                     tst.l      D0
00001A08  6606                     bne        +0x8 /* 00001A10 */
label00001A0A:
00001A0A  265F                     movea.l    A3, [A7]+
00001A0C  4E5E                     unlink     A6
00001A0E  4E75                     rts
label00001A10:
00001A10  4253                     clr.w      [A3]
00001A12  60F6                     bra        -0x8 /* 00001A0A */
00001A14  4E56 0000                link       A6, 0
00001A18  2F0B                     move.l     -[A7], A3
00001A1A  45ED F24E                lea.l      A2, [A5 - 0xDB2]
00001A1E  264A                     movea.l    A3, A2
label00001A20:
00001A20  45ED F2C6                lea.l      A2, [A5 - 0xD3A]
00001A24  B7CA                     cmpa.l     A3, A2
00001A26  6432                     bcc        +0x34 /* 00001A5A */
00001A28  4A53                     tst.w      [A3]
00001A2A  672A                     beq        +0x2C /* 00001A56 */
00001A2C  0C6B 0000 0004           cmpi.w     [A3 + 0x4], 0x0
00001A32  6F22                     ble        +0x24 /* 00001A56 */
00001A34  536B 0004                subq.w     [A3 + 0x4], 1
00001A38  4A6B 0004                tst.w      [A3 + 0x4]
00001A3C  6618                     bne        +0x1A /* 00001A56 */
00001A3E  3F2B 0002                move.w     -[A7], [A3 + 0x2]
00001A42  3613                     move.w     D3, [A3]
00001A44  48C3                     ext.l      D3
00001A46  E583                     asl        D3, 2
00001A48  45ED EFD4                lea.l      A2, [A5 - 0x102C]
00001A4C  2272 3800                movea.l    A1, [A2 + D3]
00001A50  4E91                     jsr        [A1]
00001A52  544F                     addq.w     A7, 2
00001A54  4253                     clr.w      [A3]
label00001A56:
00001A56  5C8B                     addq.l     A3, 6
00001A58  60C6                     bra        -0x38 /* 00001A20 */
label00001A5A:
00001A5A  265F                     movea.l    A3, [A7]+
00001A5C  4E5E                     unlink     A6
00001A5E  4E75                     rts
fn00001A60:
00001A60  4E56 0000                link       A6, 0
00001A64  48E7 0018                movem.l    -[A7], A3,A4
00001A68  266E 0008                movea.l    A3, [A6 + 0x8]
00001A6C  45ED EFD4                lea.l      A2, [A5 - 0x102C]
00001A70  284A                     movea.l    A4, A2
label00001A72:
00001A72  4A94                     tst.l      [A4]
00001A74  671C                     beq        +0x1E /* 00001A92 */
00001A76  2454                     movea.l    A2, [A4]
00001A78  B5CB                     cmpa.l     A2, A3
00001A7A  6612                     bne        +0x14 /* 00001A8E */
00001A7C  200C                     move.l     D0, A4
00001A7E  45ED EFD4                lea.l      A2, [A5 - 0x102C]
00001A82  908A                     sub.l      D0, A2
00001A84  E488                     lsr        D0, 2
label00001A86:
00001A86  4CDF 1800                movem.l    A3,A4, [A7]+
00001A8A  4E5E                     unlink     A6
00001A8C  4E75                     rts
label00001A8E:
00001A8E  588C                     addq.l     A4, 4
00001A90  60E0                     bra        -0x1E /* 00001A72 */
label00001A92:
00001A92  487A 0016                pea.l      [PC + 0x16 /* 00001AAA, value 0x41206E65 'A ne', cstring "A new kind of fuse was experien"... */]
00001A96  4EAD 07E2                jsr        [A5 + 0x7E2 /* export_248, CODE:0 @ 00000000 */]
00001A9A  584F                     addq.w     A7, 4
00001A9C  588C                     addq.l     A4, 4
00001A9E  200C                     move.l     D0, A4
00001AA0  45ED EFD4                lea.l      A2, [A5 - 0x102C]
00001AA4  908A                     sub.l      D0, A2
00001AA6  E488                     lsr        D0, 2
00001AA8  60DC                     bra        -0x22 /* 00001A86 */
00001AAA  4120                     .invalid   0, -[A0] // invalid opcode 4 with b == 4
00001AAC  6E65                     bgt        +0x67 /* 00001B13 */
00001AAE  7720                     moveq.l    D3, 0x20
00001AB0  6B69                     bmi        +0x6B /* 00001B1B */
00001AB2  6E64                     bgt        +0x66 /* 00001B18 */
00001AB4  206F 6620                movea.l    A0, [A7 + 0x6620]
00001AB8  6675                     bne        +0x77 /* 00001B2F */
00001ABA  7365                     moveq.l    D1, 0x65
00001ABC  2077 6173 2065 7870 6... movea.l    A0, [[A7 + 0x20657870] + 0x65726965]
00001AC8  6E63                     bgt        +0x65 /* 00001B2D */
00001ACA  6564                     bcs        +0x66 /* 00001B30 */
00001ACC  2E00                     move.l     D7, D0
00001ACE  4E56 0000                link       A6, 0
00001AD2  3F3C 0078                move.w     -[A7], 0x78 /* 'x' */
00001AD6  486D F24E                pea.l      [A5 - 0xDB2]
00001ADA  4EAD 0932                jsr        [A5 + 0x932 /* export_290, CODE:0 @ 00000000 */]
00001ADE  5C4F                     addq.w     A7, 6
00001AE0  4E5E                     unlink     A6
00001AE2  4E75                     rts
00001AE4  4E56 0000                link       A6, 0
00001AE8  026D FFFD FCCC           andi.w     [A5 - 0x334], 0xFFFD
00001AEE  4E5E                     unlink     A6
00001AF0  4E75                     rts
00001AF2  4E56 0000                link       A6, 0
00001AF6  026D FFF7 FCCC           andi.w     [A5 - 0x334], 0xFFF7
00001AFC  486D FCC0                pea.l      [A5 - 0x340]
00001B00  4EAD 055A                jsr        [A5 + 0x55A /* export_167, CODE:0 @ 00000000 */]
00001B04  584F                     addq.w     A7, 4
00001B06  486D FCC0                pea.l      [A5 - 0x340]
00001B0A  4EAD 0532                jsr        [A5 + 0x532 /* export_162, CODE:0 @ 00000000 */]
00001B0E  584F                     addq.w     A7, 4
00001B10  4267                     clr.w      -[A7]
00001B12  4EAD 013A                jsr        [A5 + 0x13A /* export_35, CODE:0 @ 00000000 */]
00001B16  544F                     addq.w     A7, 2
label00001B18:
00001B18  487A 000C                pea.l      [PC + 0xC /* 00001B26, value 0x54686520 'The ', cstring "The light from your lamp seems "... */]
00001B1C  4EAD 0502                jsr        [A5 + 0x502 /* export_156, CODE:0 @ 00000000 */]
00001B20  584F                     addq.w     A7, 4
00001B22  4E5E                     unlink     A6
00001B24  4E75                     rts
00001B26  5468 6520 6C69 6768      dc.b       "The ligh"
00001B2E  7420                     moveq.l    D2, 0x20
label00001B30:
00001B30  6672                     bne        +0x74 /* 00001BA4 */
00001B32  6F6D                     ble        +0x6F /* 00001BA1 */
00001B34  2079 6F75 7220           movea.l    A0, [0x6F757220]
00001B3A  6C61                     bge        +0x63 /* 00001B9D */
00001B3C  6D70                     blt        +0x72 /* 00001BAE */
00001B3E  2073 6565                movea.l    A0, <<invalid full ext with IS == 1 and I/IS == 5>>
00001B42  6D73                     blt        +0x75 /* 00001BB7 */
00001B44  2064                     movea.l    A0, -[A4]
00001B46  696D                     bvs        +0x6F /* 00001BB5 */
00001B48  6D65                     blt        +0x67 /* 00001BAF */
00001B4A  7220                     moveq.l    D1, 0x20
00001B4C  6E6F                     bgt        +0x71 /* 00001BBD */
00001B4E  772E                     moveq.l    D3, 0x2E
00001B50  0000 4E56                ori.b      D0, 0x56 /* 'V' */
00001B54  0000 48E7                ori.b      D0, 0xE7
00001B58  0C00 382D                cmpi.b     D0, 0x2D /* '-' */
00001B5C  FCD4 3A2D                .extension 0xCD4 <<F/2-3/6>> // unimplemented
00001B60  FCD8 526D                .extension 0xCD8 <<F/2-3/6>> // unimplemented
00001B64  E4CE                     roxr  .w   A6
00001B66  B87C 0008                cmp.w      D4, 0x8
00001B6A  6C14                     bge        +0x16 /* 00001B80 */
00001B6C  3604                     move.w     D3, D4
00001B6E  E343                     asl        D3.w, 1
00001B70  D66D E4CE                add.w      D3, [A5 - 0x1B32]
00001B74  B67C 0014                cmp.w      D3, 0x14
00001B78  6F04                     ble        +0x6 /* 00001B7E */
00001B7A  526D FCD8                addq.w     [A5 - 0x328], 1
label00001B7E:
00001B7E  601A                     bra        +0x1C /* 00001B9A */
label00001B80:
00001B80  0C6D 0003 E4CE           cmpi.w     [A5 - 0x1B32], 0x3
00001B86  6D12                     blt        +0x14 /* 00001B9A */
00001B88  3604                     move.w     D3, D4
00001B8A  5F43                     subq.w     D3, 7
00001B8C  3F03                     move.w     -[A7], D3
00001B8E  4EAD 0522                jsr        [A5 + 0x522 /* export_160, CODE:0 @ 00000000 */]
00001B92  544F                     addq.w     A7, 2
00001B94  5240                     addq.w     D0, 1
00001B96  D16D FCD8                add.w      [A5 - 0x328], D0
label00001B9A:
00001B9A  4AAD FF00                tst.l      [A5 - 0x100]
00001B9E  6710                     beq        +0x12 /* 00001BB0 */
00001BA0  246D FF00                movea.l    A2, [A5 - 0x100]
label00001BA4:
00001BA4  0C6A 0009 0020           cmpi.w     [A2 + 0x20], 0x9 /* '\t' */
00001BAA  6604                     bne        +0x6 /* 00001BB0 */
00001BAC  526D FCD8                addq.w     [A5 - 0x328], 1
// begin alternate branch 00001BAE-00001BB4
label00001BAE:
00001BAE  FCD8 4AAD                .extension 0xCD8 <<F/2-3/6>> // unimplemented
label00001BB0: // (misaligned)
00001BB2  FF04                     .extension 0xF04 <<F/4-5/7>> // unimplemented
// end alternate branch 00001BAE-00001BB4
label00001BAE: // (misaligned)
label00001BB0:
00001BB0  4AAD FF04                tst.l      [A5 - 0xFC]
00001BB4  6710                     beq        +0x12 /* 00001BC6 */
00001BB6  246D FF04                movea.l    A2, [A5 - 0xFC]
00001BBA  0C6A 0009 0020           cmpi.w     [A2 + 0x20], 0x9 /* '\t' */
00001BC0  6604                     bne        +0x6 /* 00001BC6 */
00001BC2  526D FCD8                addq.w     [A5 - 0x328], 1
label00001BC6:
00001BC6  BA6D FCD8                cmp.w      D5, [A5 - 0x328]
00001BCA  6714                     beq        +0x16 /* 00001BE0 */
00001BCC  362D FCD8                move.w     D3, [A5 - 0x328]
00001BD0  B66D FCDE                cmp.w      D3, [A5 - 0x322]
00001BD4  6F06                     ble        +0x8 /* 00001BDC */
00001BD6  3B6D FCDE FCD8           move.w     [A5 - 0x328], [A5 - 0x322]
label00001BDC:
00001BDC  426D E4CE                clr.w      [A5 - 0x1B32]
label00001BE0:
00001BE0  4CDF 0030                movem.l    D4,D5, [A7]+
00001BE4  4E5E                     unlink     A6
00001BE6  4E75                     rts
00001BE8  4E56 0000                link       A6, 0
00001BEC  4267                     clr.w      -[A7]
00001BEE  487A 000C                pea.l      [PC + 0xC /* 00001BFC, value 0x4E560000 'NV\0\0', cstring "NV" */]
00001BF2  4EBA FD38                jsr        [PC - 0x2C8 /* 0000192C */]
00001BF6  5C4F                     addq.w     A7, 6
00001BF8  4E5E                     unlink     A6
00001BFA  4E75                     rts
00001BFC  4E56 0000                link       A6, 0
00001C00  526D F008                addq.w     [A5 - 0xFF8], 1
00001C04  3F3C 0003                move.w     -[A7], 0x3
00001C08  4EAD 0522                jsr        [A5 + 0x522 /* export_160, CODE:0 @ 00000000 */]
00001C0C  544F                     addq.w     A7, 2
00001C0E  5640                     addq.w     D0, 3
00001C10  362D F008                move.w     D3, [A5 - 0xFF8]
00001C14  B640                     cmp.w      D3, D0
00001C16  6D40                     blt        +0x42 /* 00001C58 */
00001C18  3F3C 0006                move.w     -[A7], 0x6
00001C1C  3F3C 0001                move.w     -[A7], 0x1
00001C20  4EAD 051A                jsr        [A5 + 0x51A /* export_159, CODE:0 @ 00000000 */]
00001C24  584F                     addq.w     A7, 4
00001C26  B07C 0004                cmp.w      D0, 0x4
00001C2A  6628                     bne        +0x2A /* 00001C54 */
00001C2C  1B7C 0001 E470           move.b     [A5 - 0x1B90], 0x1
00001C32  487A FFC8                pea.l      [PC - 0x38 /* 00001BFC, value 0x4E560000 'NV\0\0', cstring "NV" */]
00001C36  4EAD 0172                jsr        [A5 + 0x172 /* export_42, CODE:0 @ 00000000 */]
00001C3A  584F                     addq.w     A7, 4
00001C3C  3F3C 0046                move.w     -[A7], 0x46 /* 'F' */
00001C40  4EAD 075A                jsr        [A5 + 0x75A /* export_231, CODE:0 @ 00000000 */]
00001C44  544F                     addq.w     A7, 2
00001C46  3F00                     move.w     -[A7], D0
00001C48  4267                     clr.w      -[A7]
00001C4A  487A FF9C                pea.l      [PC - 0x64 /* 00001BE8, value 0x4E560000 'NV\0\0', cstring "NV" */]
00001C4E  4EAD 0162                jsr        [A5 + 0x162 /* export_40, CODE:0 @ 00000000 */]
00001C52  504F                     addq.w     A7, 8
label00001C54:
00001C54  426D F008                clr.w      [A5 - 0xFF8]
label00001C58:
00001C58  4E5E                     unlink     A6
00001C5A  4E75                     rts
00001C5C  4E56 0000                link       A6, 0
00001C60  026D FEFF FCCC           andi.w     [A5 - 0x334], 0xFEFF
00001C66  487A 000C                pea.l      [PC + 0xC /* 00001C74, value 0x796F7520 'you ', cstring "you feel less confused now" */]
00001C6A  4EAD 0502                jsr        [A5 + 0x502 /* export_156, CODE:0 @ 00000000 */]
00001C6E  584F                     addq.w     A7, 4
00001C70  4E5E                     unlink     A6
00001C72  4E75                     rts
00001C74  796F 7520 6665 656C      dc.b       "you feel"
00001C7C  206C 6573                movea.l    A0, [A4 + 0x6573]
00001C80  7320                     moveq.l    D1, 0x20
00001C82  636F                     bls        +0x71 /* 00001CF3 */
00001C84  6E66                     bgt        +0x68 /* 00001CEC */
00001C86  7573                     moveq.l    D2, 0x73
00001C88  6564                     bcs        +0x66 /* 00001CEE */
00001C8A  206E 6F77                movea.l    A0, [A6 + 0x6F77]
00001C8E  0000 4E56                ori.b      D0, 0x56 /* 'V' */
00001C92  0000 2F0B                ori.b      D0, 0xB
00001C96  266D DE84                movea.l    A3, [A5 - 0x217C]
label00001C9A:
00001C9A  260B                     move.l     D3, A3
00001C9C  6736                     beq        +0x38 /* 00001CD4 */
00001C9E  362B 0016                move.w     D3, [A3 + 0x16]
00001CA2  C67C 0010                and.w      D3, 0x10
00001CA6  6728                     beq        +0x2A /* 00001CD0 */
00001CA8  2F0B                     move.l     -[A7], A3
00001CAA  4EAD 03E2                jsr        [A5 + 0x3E2 /* export_120, CODE:0 @ 00000000 */]
00001CAE  584F                     addq.w     A7, 4
00001CB0  4A40                     tst.w      D0
00001CB2  671C                     beq        +0x1E /* 00001CD0 */
00001CB4  3F2B 000A                move.w     -[A7], [A3 + 0xA]
00001CB8  3F2B 000C                move.w     -[A7], [A3 + 0xC]
00001CBC  4EAD 008A                jsr        [A5 + 0x8A /* export_13, CODE:0 @ 00000000 */]
00001CC0  584F                     addq.w     A7, 4
00001CC2  162B 0011                move.b     D3, [A3 + 0x11]
00001CC6  4883                     ext.w      D3
00001CC8  3F03                     move.w     -[A7], D3
00001CCA  4EAD 009A                jsr        [A5 + 0x9A /* export_15, CODE:0 @ 00000000 */]
00001CCE  544F                     addq.w     A7, 2
label00001CD0:
00001CD0  2653                     movea.l    A3, [A3]
00001CD2  60C6                     bra        -0x38 /* 00001C9A */
label00001CD4:
00001CD4  026D F7FF FCCC           andi.w     [A5 - 0x334], 0xF7FF
00001CDA  265F                     movea.l    A3, [A7]+
00001CDC  4E5E                     unlink     A6
00001CDE  4E75                     rts
00001CE0  4E56 0000                link       A6, 0
00001CE4  362D FCCC                move.w     D3, [A5 - 0x334]
00001CE8  C67C 0001                and.w      D3, 0x1
label00001CEC:
00001CEC  6732                     beq        +0x34 /* 00001D20 */
label00001CEE:
00001CEE  486D 01B2                pea.l      [A5 + 0x1B2 /* export_50, CODE:0 @ 00000000 */]
00001CF2  4EAD 0172                jsr        [A5 + 0x172 /* export_42, CODE:0 @ 00000000 */]
00001CF6  584F                     addq.w     A7, 4
00001CF8  026D FFFE FCCC           andi.w     [A5 - 0x334], 0xFFFE
00001CFE  246D FCE0                movea.l    A2, [A5 - 0x320]
00001D02  362A 000E                move.w     D3, [A2 + 0xE]
00001D06  C67C 0002                and.w      D3, 0x2
00001D0A  660A                     bne        +0xC /* 00001D16 */
00001D0C  486D FCC0                pea.l      [A5 - 0x340]
00001D10  4EAD 0532                jsr        [A5 + 0x532 /* export_162, CODE:0 @ 00000000 */]
00001D14  584F                     addq.w     A7, 4
label00001D16:
00001D16  487A 000C                pea.l      [PC + 0xC /* 00001D24, value 0x74686520 'the ', cstring "the veil of darkness lifts" */]
00001D1A  4EAD 0502                jsr        [A5 + 0x502 /* export_156, CODE:0 @ 00000000 */]
00001D1E  584F                     addq.w     A7, 4
label00001D20:
00001D20  4E5E                     unlink     A6
00001D22  4E75                     rts
00001D24  7468 6520 7665 696C      dc.b       "the veil"
00001D2C  206F 6620                movea.l    A0, [A7 + 0x6620]
00001D30  6461                     bcc        +0x63 /* 00001D93 */
00001D32  726B                     moveq.l    D1, 0x6B
00001D34  6E65                     bgt        +0x67 /* 00001D9B */
00001D36  7373                     moveq.l    D1, 0x73
00001D38  206C 6966                movea.l    A0, [A4 + 0x6966]
00001D3C  7473                     moveq.l    D2, 0x73
00001D3E  0000 4E56                ori.b      D0, 0x56 /* 'V' */
00001D42  0000 026D                ori.b      D0, 0x6D /* 'm' */
00001D46  BFFF                     cmpa.l     A7, <<invalid special address>>
00001D48  FCCC 487A                .extension 0xCCC <<F/2-3/6>> // unimplemented
00001D4C  000C 4EAD                ori.b      A4, 0xAD
00001D50  0502                     btst       D2, D2
00001D52  584F                     addq.w     A7, 4
00001D54  4E5E                     unlink     A6
00001D56  4E75                     rts
00001D58  796F 7520 6665 656C      dc.b       "you feel"
00001D60  2079 6F75 7273           movea.l    A0, [0x6F757273]
00001D66  656C                     bcs        +0x6E /* 00001DD4 */
00001D68  6620                     bne        +0x22 /* 00001D8A */
00001D6A  736C                     moveq.l    D1, 0x6C
00001D6C  6F77                     ble        +0x79 /* 00001DE5 */
00001D6E  696E                     bvs        +0x70 /* 00001DDE */
00001D70  6720                     beq        +0x22 /* 00001D92 */
00001D72  646F                     bcc        +0x71 /* 00001DE3 */
00001D74  776E                     moveq.l    D3, 0x6E
00001D76  0000 4E56                ori.b      D0, 0x56 /* 'V' */
00001D7A  FFFE                     .invalid   <<F/7/7>>
00001D7C  2F04                     move.l     -[A7], D4
00001D7E  0C6D 0000 E4D0           cmpi.w     [A5 - 0x1B30], 0x0
00001D84  6E62                     bgt        +0x64 /* 00001DE8 */
00001D86  362D E4D0                move.w     D3, [A5 - 0x1B30]
label00001D8A:
00001D8A  536D E4D0                subq.w     [A5 - 0x1B30], 1
00001D8E  B67C FCAE                cmp.w      D3, 0xFCAE
label00001D92:
00001D92  6C0A                     bge        +0xC /* 00001D9E */
00001D94  3F3C 0073                move.w     -[A7], 0x73 /* 's' */
00001D98  4EAD 0972                jsr        [A5 + 0x972 /* export_298, CODE:0 @ 00000000 */]
00001D9C  544F                     addq.w     A7, 2
label00001D9E:
00001D9E  4A6D E4C2                tst.w      [A5 - 0x1B3E]
00001DA2  660E                     bne        +0x10 /* 00001DB2 */
00001DA4  3F3C 0005                move.w     -[A7], 0x5
00001DA8  4EAD 0522                jsr        [A5 + 0x522 /* export_160, CODE:0 @ 00000000 */]
00001DAC  544F                     addq.w     A7, 2
00001DAE  4A40                     tst.w      D0
00001DB0  6706                     beq        +0x8 /* 00001DB8 */
label00001DB2:
00001DB2  281F                     move.l     D4, [A7]+
00001DB4  4E5E                     unlink     A6
00001DB6  4E75                     rts
label00001DB8:
00001DB8  3F3C 0008                move.w     -[A7], 0x8
00001DBC  4EAD 0522                jsr        [A5 + 0x522 /* export_160, CODE:0 @ 00000000 */]
00001DC0  544F                     addq.w     A7, 2
00001DC2  5840                     addq.w     D0, 4
00001DC4  D16D E4C2                add.w      [A5 - 0x1B3E], D0
00001DC8  026D FFFB FCCC           andi.w     [A5 - 0x334], 0xFFFB
00001DCE  422D E4B1                clr.b      [A5 - 0x1B4F]
00001DD2  426D E4CA                clr.w      [A5 - 0x1B36]
// begin alternate branch 00001DD4-00001DD6
label00001DD4:
00001DD4  E4CA                     roxr  .w   A2
// end alternate branch 00001DD4-00001DD6
label00001DD4: // (misaligned)
00001DD6  3B7C 0003 E4D4           move.w     [A5 - 0x1B2C], 0x3
00001DDC  487A 0080                pea.l      [PC + 0x80 /* 00001E5E, value 0x796F7520 'you ', cstring "you feel very weak. you faint f"... */]
// begin alternate branch 00001DDE-00001DE4
label00001DDE:
00001DDE  0080 4EAD 0502           ori.l      D0, 0x4EAD0502
// end alternate branch 00001DDE-00001DE4
label00001DDE: // (misaligned)
00001DE0  4EAD 0502                jsr        [A5 + 0x502 /* export_156, CODE:0 @ 00000000 */]
00001DE4  584F                     addq.w     A7, 4
00001DE6  6072                     bra        +0x74 /* 00001E5A */
label00001DE8:
00001DE8  382D E4D0                move.w     D4, [A5 - 0x1B30]
00001DEC  4267                     clr.w      -[A7]
00001DEE  4EAD 0612                jsr        [A5 + 0x612 /* export_190, CODE:0 @ 00000000 */]
00001DF2  544F                     addq.w     A7, 2
00001DF4  3F00                     move.w     -[A7], D0
00001DF6  3F3C 0001                move.w     -[A7], 0x1
00001DFA  4EAD 0612                jsr        [A5 + 0x612 /* export_190, CODE:0 @ 00000000 */]
00001DFE  544F                     addq.w     A7, 2
00001E00  361F                     move.w     D3, [A7]+
00001E02  D640                     add.w      D3, D0
00001E04  5243                     addq.w     D3, 1
00001E06  3D43 FFFE                move.w     [A6 - 0x2], D3
00001E0A  3F3C 0002                move.w     -[A7], 0x2
00001E0E  4EAD 0522                jsr        [A5 + 0x522 /* export_160, CODE:0 @ 00000000 */]
00001E12  544F                     addq.w     A7, 2
00001E14  D06E FFFE                add.w      D0, [A6 - 0x2]
00001E18  916D E4D0                sub.w      [A5 - 0x1B30], D0
00001E1C  0C6D 0096 E4D0           cmpi.w     [A5 - 0x1B30], 0x96
00001E22  6C18                     bge        +0x1A /* 00001E3C */
00001E24  B87C 0096                cmp.w      D4, 0x96
00001E28  6D12                     blt        +0x14 /* 00001E3C */
00001E2A  3B7C 0002 E4D4           move.w     [A5 - 0x1B2C], 0x2
00001E30  487A 005C                pea.l      [PC + 0x5C /* 00001E8E, value 0x796F7520 'you ', cstring "you are starting to feel weak" */]
00001E34  4EAD 0502                jsr        [A5 + 0x502 /* export_156, CODE:0 @ 00000000 */]
00001E38  584F                     addq.w     A7, 4
00001E3A  601E                     bra        +0x20 /* 00001E5A */
label00001E3C:
00001E3C  0C6D 012C E4D0           cmpi.w     [A5 - 0x1B30], 0x12C
00001E42  6C16                     bge        +0x18 /* 00001E5A */
00001E44  B87C 012C                cmp.w      D4, 0x12C
00001E48  6D10                     blt        +0x12 /* 00001E5A */
00001E4A  3B7C 0001 E4D4           move.w     [A5 - 0x1B2C], 0x1
00001E50  487A 005A                pea.l      [PC + 0x5A /* 00001EAC, value 0x796F7520 'you ', cstring "you are starting to get hungry" */]
00001E54  4EAD 0502                jsr        [A5 + 0x502 /* export_156, CODE:0 @ 00000000 */]
00001E58  584F                     addq.w     A7, 4
label00001E5A:
00001E5A  6000 FF56                bra        -0xA8 /* 00001DB2 */
00001E5E  796F                     moveq.l    D4, 0x6F
00001E60  7520                     moveq.l    D2, 0x20
00001E62  6665                     bne        +0x67 /* 00001EC9 */
00001E64  656C                     bcs        +0x6E /* 00001ED2 */
00001E66  2076 6572 7920 7765 616B movea.l    A0, [[A6 + 0x79207765] + 0x616B]
00001E70  2E20                     move.l     D7, -[A0]
00001E72  796F                     moveq.l    D4, 0x6F
00001E74  7520                     moveq.l    D2, 0x20
00001E76  6661                     bne        +0x63 /* 00001ED9 */
00001E78  696E                     bvs        +0x70 /* 00001EE8 */
00001E7A  7420                     moveq.l    D2, 0x20
00001E7C  6672                     bne        +0x74 /* 00001EF0 */
00001E7E  6F6D                     ble        +0x6F /* 00001EED */
00001E80  206C 6163                movea.l    A0, [A4 + 0x6163]
00001E84  6B20                     bmi        +0x22 /* 00001EA6 */
00001E86  6F66                     ble        +0x68 /* 00001EEE */
00001E88  2066                     movea.l    A0, -[A6]
00001E8A  6F6F                     ble        +0x71 /* 00001EFB */
00001E8C  6400 796F                bcc        +0x7971 /* 000097FD */
00001E90  7520                     moveq.l    D2, 0x20
00001E92  6172                     bsr        +0x74 /* 00001F06 */
00001E94  6520                     bcs        +0x22 /* 00001EB6 */
00001E96  7374                     moveq.l    D1, 0x74
00001E98  6172                     bsr        +0x74 /* 00001F0C */
00001E9A  7469                     moveq.l    D2, 0x69
00001E9C  6E67                     bgt        +0x69 /* 00001F05 */
00001E9E  2074 6F20 6665           movea.l    A0, [A4 + 0x6665 + D6 * 8]
00001EA4  656C                     bcs        +0x6E /* 00001F12 */
label00001EA6:
00001EA6  2077 6561 6B00           movea.l    A0, [[A7 + 0x6B00]]
00001EAC  796F                     moveq.l    D4, 0x6F
00001EAE  7520                     moveq.l    D2, 0x20
00001EB0  6172                     bsr        +0x74 /* 00001F24 */
00001EB2  6520                     bcs        +0x22 /* 00001ED4 */
00001EB4  7374                     moveq.l    D1, 0x74
label00001EB6:
00001EB6  6172                     bsr        +0x74 /* 00001F2A */
00001EB8  7469                     moveq.l    D2, 0x69
00001EBA  6E67                     bgt        +0x69 /* 00001F23 */
00001EBC  2074 6F20 6765           movea.l    A0, [A4 + 0x6765 + D6 * 8]
00001EC2  7420                     moveq.l    D2, 0x20
00001EC4  6875                     bvc        +0x77 /* 00001F3B */
00001EC6  6E67                     bgt        +0x69 /* 00001F2F */
00001EC8  7279                     moveq.l    D1, 0x79
00001ECA  0000 4E56                ori.b      D0, 0x56 /* 'V' */
00001ECE  0000 2F04                ori.b      D0, 0x4
label00001ED2:
00001ED2  362D F2C8                move.w     D3, [A5 - 0xD38]
// begin alternate branch 00001ED4-00001EDC
label00001ED4:
00001ED4  F2C8 B66D                .extension 0x2C8 <<F/2-3/1>> // unimplemented
00001ED8  FCD8 6716                .extension 0xCD8 <<F/2-3/6>> // unimplemented
// end alternate branch 00001ED4-00001EDC
label00001ED4: // (misaligned)
00001ED6  B66D FCD8                cmp.w      D3, [A5 - 0x328]
00001EDA  6716                     beq        +0x18 /* 00001EF2 */
00001EDC  3F2D FCDE                move.w     -[A7], [A5 - 0x322]
00001EE0  3F2D FCD8                move.w     -[A7], [A5 - 0x328]
00001EE4  4267                     clr.w      -[A7]
00001EE6  4EBA 02EE                jsr        [PC + 0x2EE /* 000021D6 */]
// begin alternate branch 00001EE8-00001EEA
label00001EE8:
00001EE8  02EE                     .incomplete
// end alternate branch 00001EE8-00001EEA
label00001EE8: // (misaligned)
00001EEA  5C4F                     addq.w     A7, 6
00001EEC  3B6D FCD8 F2C8           move.w     [A5 - 0xD38], [A5 - 0x328]
// begin alternate branch 00001EEE-00001EF2
label00001EEE:
00001EEE  FCD8 F2C8                .extension 0xCD8 <<F/2-3/6>> // unimplemented
// end alternate branch 00001EEE-00001EF2
// begin alternate branch 00001EF0-00001F00
label00001EF0:
00001EF0  F2C8 362D                .extension 0x2C8 <<F/2-3/1>> // unimplemented
label00001EF2: // (misaligned)
00001EF4  FCCE B66D                .extension 0xCCE <<F/2-3/6>> // unimplemented
00001EF8  F03A 6718 3F2D           .pmove3    0xF03A, 0x6718 // unimplemented
00001EFE  E4D6                     roxr  .w   [A6]
// end alternate branch 00001EF0-00001F00
label00001EEE: // (misaligned)
label00001EF0: // (misaligned)
label00001EF2:
00001EF2  362D FCCE                move.w     D3, [A5 - 0x332]
00001EF6  B66D F03A                cmp.w      D3, [A5 - 0xFC6]
00001EFA  6718                     beq        +0x1A /* 00001F14 */
00001EFC  3F2D E4D6                move.w     -[A7], [A5 - 0x1B2A]
00001F00  3F2D FCCE                move.w     -[A7], [A5 - 0x332]
00001F04  3F3C 0001                move.w     -[A7], 0x1
// begin alternate branch 00001F06-00001F0C
fn00001F06:
00001F06  0001 4EBA                ori.b      D1, 0xBA
00001F0A  02CC                     .incomplete
// end alternate branch 00001F06-00001F0C
fn00001F06: // (misaligned)
00001F08  4EBA 02CC                jsr        [PC + 0x2CC /* 000021D6 */]
fn00001F0C:
00001F0C  5C4F                     addq.w     A7, 6
00001F0E  3B6D FCCE F03A           move.w     [A5 - 0xFC6], [A5 - 0x332]
// begin alternate branch 00001F12-00001F18
label00001F12:
00001F12  F03A 4AAD FEFC           .pmove2    0xF03A, 0x4AAD // unimplemented
// end alternate branch 00001F12-00001F18
label00001F12: // (misaligned)
label00001F14:
00001F14  4AAD FEFC                tst.l      [A5 - 0x104]
00001F18  670A                     beq        +0xC /* 00001F24 */
00001F1A  246D FEFC                movea.l    A2, [A5 - 0x104]
00001F1E  382A 0026                move.w     D4, [A2 + 0x26]
00001F22  6004                     bra        +0x6 /* 00001F28 */
fn00001F24:
00001F24  382D FCD6                move.w     D4, [A5 - 0x32A]
label00001F28:
00001F28  4AAD FF00                tst.l      [A5 - 0x100]
// begin alternate branch 00001F2A-00001F2C
fn00001F2A:
00001F2A  FF00                     .extension 0xF00 <<F/4-5/7>> // unimplemented
// end alternate branch 00001F2A-00001F2C
fn00001F2A: // (misaligned)
00001F2C  6712                     beq        +0x14 /* 00001F40 */
00001F2E  246D FF00                movea.l    A2, [A5 - 0x100]
00001F32  4A6A 0020                tst.w      [A2 + 0x20]
00001F36  6608                     bne        +0xA /* 00001F40 */
00001F38  246D FF00                movea.l    A2, [A5 - 0x100]
00001F3C  986A 0026                sub.w      D4, [A2 + 0x26]
label00001F40:
00001F40  4AAD FF04                tst.l      [A5 - 0xFC]
00001F44  6712                     beq        +0x14 /* 00001F58 */
00001F46  246D FF04                movea.l    A2, [A5 - 0xFC]
00001F4A  4A6A 0020                tst.w      [A2 + 0x20]
00001F4E  6608                     bne        +0xA /* 00001F58 */
00001F50  246D FF04                movea.l    A2, [A5 - 0xFC]
00001F54  986A 0026                sub.w      D4, [A2 + 0x26]
label00001F58:
00001F58  362D F038                move.w     D3, [A5 - 0xFC8]
00001F5C  B644                     cmp.w      D3, D4
00001F5E  6708                     beq        +0xA /* 00001F68 */
00001F60  3B44 F038                move.w     [A5 - 0xFC8], D4
00001F64  4EBA 00F0                jsr        [PC + 0xF0 /* 00002056 */]
label00001F68:
00001F68  362D F2CA                move.w     D3, [A5 - 0xD36]
00001F6C  B66D FCD4                cmp.w      D3, [A5 - 0x32C]
00001F70  6708                     beq        +0xA /* 00001F7A */
00001F72  3B6D FCD4 F2CA           move.w     [A5 - 0xD36], [A5 - 0x32C]
00001F78  6140                     bsr        +0x42 /* 00001FBA */
label00001F7A:
00001F7A  362D F2CC                move.w     D3, [A5 - 0xD34]
00001F7E  B66D E4BE                cmp.w      D3, [A5 - 0x1B42]
00001F82  670A                     beq        +0xC /* 00001F8E */
00001F84  3B6D E4BE F2CC           move.w     [A5 - 0xD34], [A5 - 0x1B42]
00001F8A  4EBA 0184                jsr        [PC + 0x184 /* 00002110 */]
label00001F8E:
00001F8E  362D F2C6                move.w     D3, [A5 - 0xD3A]
00001F92  B66D E4D4                cmp.w      D3, [A5 - 0x1B2C]
00001F96  671C                     beq        +0x1E /* 00001FB4 */
00001F98  3B6D E4D4 F2C6           move.w     [A5 - 0xD3A], [A5 - 0x1B2C]
00001F9E  362D E4D4                move.w     D3, [A5 - 0x1B2C]
00001FA2  48C3                     ext.l      D3
00001FA4  E583                     asl        D3, 2
00001FA6  45ED F00A                lea.l      A2, [A5 - 0xFF6]
00001FAA  2F32 3800                move.l     -[A7], [A2 + D3]
00001FAE  4EBA 03C8                jsr        [PC + 0x3C8 /* 00002378 */]
00001FB2  584F                     addq.w     A7, 4
label00001FB4:
00001FB4  281F                     move.l     D4, [A7]+
00001FB6  4E5E                     unlink     A6
00001FB8  4E75                     rts
fn00001FBA:
00001FBA  4E56 FFF4                link       A6, -0x000C
00001FBE  2F2D FF2E                move.l     -[A7], [A5 - 0xD2]
00001FC2  A873                     syscall    SetPort
00001FC4  3F3C 0005                move.w     -[A7], 0x5
00001FC8  A887                     syscall    TextFont
00001FCA  3F3C 000E                move.w     -[A7], 0xE
00001FCE  A88A                     syscall    TextSize
00001FD0  362D FCD4                move.w     D3, [A5 - 0x32C]
00001FD4  5343                     subq.w     D3, 1
00001FD6  48C3                     ext.l      D3
00001FD8  E583                     asl        D3, 2
00001FDA  45ED DD02                lea.l      A2, [A5 - 0x22FE]
00001FDE  2F32 3800                move.l     -[A7], [A2 + D3]
00001FE2  486D F68C                pea.l      [A5 - 0x974]
00001FE6  486D F03C                pea.l      [A5 - 0xFC4]
00001FEA  2F2D FF18                move.l     -[A7], [A5 - 0xE8]
00001FEE  4EAD 024A                jsr        [A5 + 0x24A /* export_69, CODE:0 @ 00000000 */]
00001FF2  DEFC 0010                add.w      A7, 0x10
00001FF6  486E FFF4                pea.l      [A6 - 0xC]
00001FFA  4267                     clr.w      -[A7]
00001FFC  4267                     clr.w      -[A7]
00001FFE  246D FF2E                movea.l    A2, [A5 - 0xD2]
00002002  3F2A 0016                move.w     -[A7], [A2 + 0x16]
00002006  3F3C 001D                move.w     -[A7], 0x1D
0000200A  A8A7                     syscall    SetRect
0000200C  486E FFF4                pea.l      [A6 - 0xC]
00002010  A8A3                     syscall    EraseRect
00002012  3F3C 0004                move.w     -[A7], 0x4
00002016  3F3C 0014                move.w     -[A7], 0x14
0000201A  A893                     syscall    MoveTo
0000201C  2F2D FF18                move.l     -[A7], [A5 - 0xE8]
00002020  4EAD 031A                jsr        [A5 + 0x31A /* export_95, CODE:0 @ 00000000 */]
00002024  584F                     addq.w     A7, 4
00002026  2F00                     move.l     -[A7], D0
00002028  A884                     syscall    DrawString
0000202A  486E FFFC                pea.l      [A6 - 0x4]
0000202E  A89A                     syscall    GetPen
00002030  0C6E 012C FFFE           cmpi.w     [A6 - 0x2], 0x12C
00002036  6F1A                     ble        +0x1C /* 00002052 */
00002038  2F2D FF2E                move.l     -[A7], [A5 - 0xD2]
0000203C  362E FFFE                move.w     D3, [A6 - 0x2]
00002040  5843                     addq.w     D3, 4
00002042  3F03                     move.w     -[A7], D3
00002044  246D FF2E                movea.l    A2, [A5 - 0xD2]
00002048  3F2A 0014                move.w     -[A7], [A2 + 0x14]
0000204C  3F3C 0001                move.w     -[A7], 0x1
00002050  A91D                     syscall    SizeWindow
label00002052:
00002052  4E5E                     unlink     A6
00002054  4E75                     rts
fn00002056:
00002056  4E56 FFEA                link       A6, -0x0016
0000205A  2F0B                     move.l     -[A7], A3
0000205C  2F2D FF2E                move.l     -[A7], [A5 - 0xD2]
00002060  A873                     syscall    SetPort
00002062  486E FFF8                pea.l      [A6 - 0x8]
00002066  3F3C 0004                move.w     -[A7], 0x4
0000206A  3F3C 001E                move.w     -[A7], 0x1E
0000206E  3F3C 0024                move.w     -[A7], 0x24 /* '$' */
00002072  3F3C 003E                move.w     -[A7], 0x3E /* '>' */
00002076  A8A7                     syscall    SetRect
00002078  3D7C 0004 FFF6           move.w     [A6 - 0xA], 0x4
0000207E  42A7                     clr.l      -[A7]
00002080  2F3C 4943 4E23           move.l     -[A7], 0x49434E23 /* 'ICN#' */
00002086  3F3C 008C                move.w     -[A7], 0x8C
0000208A  A9A0                     syscall    GetResource
0000208C  201F                     move.l     D0, [A7]+
0000208E  2640                     movea.l    A3, D0
00002090  2F0B                     move.l     -[A7], A3
00002092  A9A2                     syscall    LoadResource
00002094  2D53 FFF2                move.l     [A6 - 0xE], [A3]
00002098  486E FFF2                pea.l      [A6 - 0xE]
0000209C  246D FF2E                movea.l    A2, [A5 - 0xD2]
000020A0  548A                     addq.l     A2, 2
000020A2  2F0A                     move.l     -[A7], A2
000020A4  486E FFF8                pea.l      [A6 - 0x8]
000020A8  486E FFF8                pea.l      [A6 - 0x8]
000020AC  4267                     clr.w      -[A7]
000020AE  42A7                     clr.l      -[A7]
000020B0  A8EC                     syscall    CopyBits
000020B2  4EBA 03B2                jsr        [PC + 0x3B2 /* 00002466 */]
000020B6  3F3C 0028                move.w     -[A7], 0x28 /* '(' */
000020BA  3F3C 0030                move.w     -[A7], 0x30 /* '0' */
000020BE  A893                     syscall    MoveTo
000020C0  486E FFEA                pea.l      [A6 - 0x16]
000020C4  3F3C 0025                move.w     -[A7], 0x25 /* '%' */
000020C8  3F3C 001E                move.w     -[A7], 0x1E
000020CC  246D FF2E                movea.l    A2, [A5 - 0xD2]
000020D0  3F2A 0016                move.w     -[A7], [A2 + 0x16]
000020D4  3F3C 003E                move.w     -[A7], 0x3E /* '>' */
000020D8  A8A7                     syscall    SetRect
000020DA  486E FFEA                pea.l      [A6 - 0x16]
000020DE  A8A3                     syscall    EraseRect
000020E0  362D F038                move.w     D3, [A5 - 0xFC8]
000020E4  967C 000B                sub.w      D3, 0xB
000020E8  4443                     neg.w      D3
000020EA  3F03                     move.w     -[A7], D3
000020EC  486D F043                pea.l      [A5 - 0xFBD]
000020F0  2F2D FF18                move.l     -[A7], [A5 - 0xE8]
000020F4  4EAD 024A                jsr        [A5 + 0x24A /* export_69, CODE:0 @ 00000000 */]
000020F8  DEFC 000A                add.w      A7, 0xA /* '\n' */
000020FC  2F2D FF18                move.l     -[A7], [A5 - 0xE8]
00002100  4EAD 031A                jsr        [A5 + 0x31A /* export_95, CODE:0 @ 00000000 */]
00002104  584F                     addq.w     A7, 4
00002106  2F00                     move.l     -[A7], D0
00002108  A884                     syscall    DrawString
0000210A  265F                     movea.l    A3, [A7]+
0000210C  4E5E                     unlink     A6
0000210E  4E75                     rts
fn00002110:
00002110  4E56 FFEA                link       A6, -0x0016
00002114  2F0B                     move.l     -[A7], A3
00002116  2F2D FF2E                move.l     -[A7], [A5 - 0xD2]
0000211A  A873                     syscall    SetPort
0000211C  486E FFF8                pea.l      [A6 - 0x8]
00002120  3F3C 0004                move.w     -[A7], 0x4
00002124  3F3C 0050                move.w     -[A7], 0x50 /* 'P' */
00002128  3F3C 0024                move.w     -[A7], 0x24 /* '$' */
0000212C  3F3C 0070                move.w     -[A7], 0x70 /* 'p' */
00002130  A8A7                     syscall    SetRect
00002132  3D7C 0004 FFF6           move.w     [A6 - 0xA], 0x4
00002138  42A7                     clr.l      -[A7]
0000213A  2F3C 4943 4E23           move.l     -[A7], 0x49434E23 /* 'ICN#' */
00002140  3F3C 0086                move.w     -[A7], 0x86
00002144  A9A0                     syscall    GetResource
00002146  201F                     move.l     D0, [A7]+
00002148  2640                     movea.l    A3, D0
0000214A  2F0B                     move.l     -[A7], A3
0000214C  A9A2                     syscall    LoadResource
0000214E  2D53 FFF2                move.l     [A6 - 0xE], [A3]
00002152  486E FFF2                pea.l      [A6 - 0xE]
00002156  246D FF2E                movea.l    A2, [A5 - 0xD2]
0000215A  548A                     addq.l     A2, 2
0000215C  2F0A                     move.l     -[A7], A2
0000215E  486E FFF8                pea.l      [A6 - 0x8]
00002162  486E FFF8                pea.l      [A6 - 0x8]
00002166  4267                     clr.w      -[A7]
00002168  42A7                     clr.l      -[A7]
0000216A  A8EC                     syscall    CopyBits
0000216C  4EBA 02F8                jsr        [PC + 0x2F8 /* 00002466 */]
00002170  3F3C 0028                move.w     -[A7], 0x28 /* '(' */
00002174  3F3C 0060                move.w     -[A7], 0x60 /* '`' */
00002178  A893                     syscall    MoveTo
0000217A  486E FFEA                pea.l      [A6 - 0x16]
0000217E  3F3C 0025                move.w     -[A7], 0x25 /* '%' */
00002182  3F3C 0050                move.w     -[A7], 0x50 /* 'P' */
00002186  246D FF2E                movea.l    A2, [A5 - 0xD2]
0000218A  3F2A 0016                move.w     -[A7], [A2 + 0x16]
0000218E  3F3C 0070                move.w     -[A7], 0x70 /* 'p' */
00002192  A8A7                     syscall    SetRect
00002194  486E FFEA                pea.l      [A6 - 0x16]
00002198  A8A3                     syscall    EraseRect
0000219A  3F2D E4BE                move.w     -[A7], [A5 - 0x1B42]
0000219E  486D F059                pea.l      [A5 - 0xFA7]
000021A2  2F2D FF18                move.l     -[A7], [A5 - 0xE8]
000021A6  4EAD 024A                jsr        [A5 + 0x24A /* export_69, CODE:0 @ 00000000 */]
000021AA  DEFC 000A                add.w      A7, 0xA /* '\n' */
000021AE  2F2D FF18                move.l     -[A7], [A5 - 0xE8]
000021B2  4EAD 031A                jsr        [A5 + 0x31A /* export_95, CODE:0 @ 00000000 */]
000021B6  584F                     addq.w     A7, 4
000021B8  2F00                     move.l     -[A7], D0
000021BA  A884                     syscall    DrawString
000021BC  265F                     movea.l    A3, [A7]+
000021BE  4E5E                     unlink     A6
000021C0  4E75                     rts
000021C2  4E56 0000                link       A6, 0
000021C6  4EBA FDF2                jsr        [PC - 0x20E /* 00001FBA */]
000021CA  4EBA FE8A                jsr        [PC - 0x176 /* 00002056 */]
000021CE  4EBA FF40                jsr        [PC - 0xC0 /* 00002110 */]
000021D2  4E5E                     unlink     A6
000021D4  4E75                     rts
fn000021D6:
000021D6  4E56 FFE6                link       A6, -0x001A
000021DA  48E7 0C10                movem.l    -[A7], D4,D5,A3
000021DE  362E 000A                move.w     D3, [A6 + 0xA]
000021E2  B66E 000C                cmp.w      D3, [A6 + 0xC]
000021E6  6F06                     ble        +0x8 /* 000021EE */
000021E8  3D6E 000A 000C           move.w     [A6 + 0xC], [A6 + 0xA]
label000021EE:
000021EE  362E 0008                move.w     D3, [A6 + 0x8]
000021F2  C7FC 000C                muls.w     D3, 0xC
000021F6  45ED F06A                lea.l      A2, [A5 - 0xF96]
000021FA  2643                     movea.l    A3, D3
000021FC  D7CA                     add.l      A3, A2
000021FE  376E 000A 0002           move.w     [A3 + 0x2], [A6 + 0xA]
00002204  362E 000C                move.w     D3, [A6 + 0xC]
00002208  B66B 0006                cmp.w      D3, [A3 + 0x6]
0000220C  6F18                     ble        +0x1A /* 00002226 */
0000220E  362E 000C                move.w     D3, [A6 + 0xC]
00002212  B66B 0004                cmp.w      D3, [A3 + 0x4]
00002216  6F08                     ble        +0xA /* 00002220 */
00002218  376B 0004 0006           move.w     [A3 + 0x6], [A3 + 0x4]
0000221E  6006                     bra        +0x8 /* 00002226 */
label00002220:
00002220  376E 000C 0006           move.w     [A3 + 0x6], [A6 + 0xC]
label00002226:
00002226  362E 000A                move.w     D3, [A6 + 0xA]
0000222A  B66B 0006                cmp.w      D3, [A3 + 0x6]
0000222E  6F06                     ble        +0x8 /* 00002236 */
00002230  3D6B 0006 000A           move.w     [A6 + 0xA], [A3 + 0x6]
label00002236:
00002236  362E 0008                move.w     D3, [A6 + 0x8]
0000223A  5243                     addq.w     D3, 1
0000223C  3A03                     move.w     D5, D3
0000223E  CAEB 0004                mulu.w     D5, [A3 + 0x4]
00002242  362E 0008                move.w     D3, [A6 + 0x8]
00002246  5243                     addq.w     D3, 1
00002248  C6EE 000A                mulu.w     D3, [A6 + 0xA]
0000224C  3D43 000A                move.w     [A6 + 0xA], D3
00002250  362E 0008                move.w     D3, [A6 + 0x8]
00002254  5243                     addq.w     D3, 1
00002256  C6EB 0006                mulu.w     D3, [A3 + 0x6]
0000225A  3D43 000C                move.w     [A6 + 0xC], D3
0000225E  2F2D F6DC                move.l     -[A7], [A5 - 0x924]
00002262  A873                     syscall    SetPort
00002264  486E FFE6                pea.l      [A6 - 0x1A]
00002268  A898                     syscall    GetPenState
0000226A  4EBA 01FA                jsr        [PC + 0x1FA /* 00002466 */]
0000226E  45EE FFF8                lea.l      A2, [A6 - 0x8]
00002272  226D F6DC                movea.l    A1, [A5 - 0x924]
00002276  D3FC 0000 0010           add.l      A1, 0x10
0000227C  24D9                     move.l     [A2]+, [A1]+
0000227E  24D9                     move.l     [A2]+, [A1]+
00002280  046E 000F FFFE           subi.w     [A6 - 0x2], 0xF
00002286  486E FFF8                pea.l      [A6 - 0x8]
0000228A  A87B                     syscall    ClipRect
0000228C  3F13                     move.w     -[A7], [A3]
0000228E  362E FFFC                move.w     D3, [A6 - 0x4]
00002292  5743                     subq.w     D3, 3
00002294  3F03                     move.w     -[A7], D3
00002296  A893                     syscall    MoveTo
00002298  2F2B 0008                move.l     -[A7], [A3 + 0x8]
0000229C  A884                     syscall    DrawString
0000229E  4267                     clr.w      -[A7]
000022A0  2F2B 0008                move.l     -[A7], [A3 + 0x8]
000022A4  A88C                     syscall    StringWidth
000022A6  301F                     move.w     D0, [A7]+
000022A8  D053                     add.w      D0, [A3]
000022AA  3800                     move.w     D4, D0
000022AC  5844                     addq.w     D4, 4
000022AE  3D44 FFFA                move.w     [A6 - 0x6], D4
000022B2  4EBA 01C4                jsr        [PC + 0x1C4 /* 00002478 */]
000022B6  536E FFFC                subq.w     [A6 - 0x4], 1
000022BA  362E FFFC                move.w     D3, [A6 - 0x4]
000022BE  967C 000C                sub.w      D3, 0xC
000022C2  3D43 FFF8                move.w     [A6 - 0x8], D3
000022C6  3604                     move.w     D3, D4
000022C8  D66E 000A                add.w      D3, [A6 + 0xA]
000022CC  3D43 FFFE                move.w     [A6 - 0x2], D3
000022D0  486E FFF8                pea.l      [A6 - 0x8]
000022D4  486D F666                pea.l      [A5 - 0x99A]
000022D8  A8A5                     syscall    FillRect
000022DA  362E 000A                move.w     D3, [A6 + 0xA]
000022DE  B66E 000C                cmp.w      D3, [A6 + 0xC]
000022E2  671A                     beq        +0x1C /* 000022FE */
000022E4  3D6E FFFE FFFA           move.w     [A6 - 0x6], [A6 - 0x2]
000022EA  3604                     move.w     D3, D4
000022EC  D66E 000C                add.w      D3, [A6 + 0xC]
000022F0  3D43 FFFE                move.w     [A6 - 0x2], D3
000022F4  486E FFF8                pea.l      [A6 - 0x8]
000022F8  486D F66E                pea.l      [A5 - 0x992]
000022FC  A8A5                     syscall    FillRect
label000022FE:
000022FE  362E 000C                move.w     D3, [A6 + 0xC]
00002302  B645                     cmp.w      D3, D5
00002304  6718                     beq        +0x1A /* 0000231E */
00002306  3D6E FFFE FFFA           move.w     [A6 - 0x6], [A6 - 0x2]
0000230C  3604                     move.w     D3, D4
0000230E  D645                     add.w      D3, D5
00002310  3D43 FFFE                move.w     [A6 - 0x2], D3
00002314  486E FFF8                pea.l      [A6 - 0x8]
00002318  486D F65E                pea.l      [A5 - 0x9A2]
0000231C  A8A5                     syscall    FillRect
label0000231E:
0000231E  3D44 FFFA                move.w     [A6 - 0x6], D4
00002322  486E FFF8                pea.l      [A6 - 0x8]
00002326  A8A1                     syscall    FrameRect
00002328  486E FFE6                pea.l      [A6 - 0x1A]
0000232C  A899                     syscall    SetPenState
0000232E  4EAD 0082                jsr        [A5 + 0x82 /* export_12, CODE:0 @ 00000000 */]
00002332  4CDF 0830                movem.l    D4,D5,A3, [A7]+
00002336  4E5E                     unlink     A6
00002338  4E75                     rts
0000233A  4E56 0000                link       A6, 0
0000233E  3F2D F070                move.w     -[A7], [A5 - 0xF90]
00002342  3F2D F06C                move.w     -[A7], [A5 - 0xF94]
00002346  4267                     clr.w      -[A7]
00002348  4EBA FE8C                jsr        [PC - 0x174 /* 000021D6 */]
0000234C  5C4F                     addq.w     A7, 6
0000234E  3F2D F07C                move.w     -[A7], [A5 - 0xF84]
00002352  3F2D F078                move.w     -[A7], [A5 - 0xF88]
00002356  3F3C 0001                move.w     -[A7], 0x1
0000235A  4EBA FE7A                jsr        [PC - 0x186 /* 000021D6 */]
0000235E  5C4F                     addq.w     A7, 6
00002360  362D E4D4                move.w     D3, [A5 - 0x1B2C]
00002364  48C3                     ext.l      D3
00002366  E583                     asl        D3, 2
00002368  45ED F00A                lea.l      A2, [A5 - 0xFF6]
0000236C  2F32 3800                move.l     -[A7], [A2 + D3]
00002370  6106                     bsr        +0x8 /* 00002378 */
00002372  584F                     addq.w     A7, 4
00002374  4E5E                     unlink     A6
00002376  4E75                     rts
fn00002378:
00002378  4E56 FFF8                link       A6, -0x0008
0000237C  48E7 0810                movem.l    -[A7], D4,A3
00002380  266E 0008                movea.l    A3, [A6 + 0x8]
00002384  2F2D F6DC                move.l     -[A7], [A5 - 0x924]
00002388  A873                     syscall    SetPort
0000238A  45EE FFF8                lea.l      A2, [A6 - 0x8]
0000238E  226D F6DC                movea.l    A1, [A5 - 0x924]
00002392  D3FC 0000 0010           add.l      A1, 0x10
00002398  24D9                     move.l     [A2]+, [A1]+
0000239A  24D9                     move.l     [A2]+, [A1]+
0000239C  046E 000F FFFE           subi.w     [A6 - 0x2], 0xF
000023A2  486E FFF8                pea.l      [A6 - 0x8]
000023A6  A87B                     syscall    ClipRect
000023A8  4EBA 00BC                jsr        [PC + 0xBC /* 00002466 */]
000023AC  3D6D F2CE FFFA           move.w     [A6 - 0x6], [A5 - 0xD32]
000023B2  362E FFFC                move.w     D3, [A6 - 0x4]
000023B6  967C 000E                sub.w      D3, 0xE
000023BA  3D43 FFF8                move.w     [A6 - 0x8], D3
000023BE  486E FFF8                pea.l      [A6 - 0x8]
000023C2  A8A3                     syscall    EraseRect
000023C4  362D F2CE                move.w     D3, [A5 - 0xD32]
000023C8  5443                     addq.w     D3, 2
000023CA  3F03                     move.w     -[A7], D3
000023CC  362E FFFC                move.w     D3, [A6 - 0x4]
000023D0  5743                     subq.w     D3, 3
000023D2  3F03                     move.w     -[A7], D3
000023D4  A893                     syscall    MoveTo
000023D6  2F0B                     move.l     -[A7], A3
000023D8  A884                     syscall    DrawString
000023DA  4EBA 009C                jsr        [PC + 0x9C /* 00002478 */]
000023DE  4EAD 0082                jsr        [A5 + 0x82 /* export_12, CODE:0 @ 00000000 */]
000023E2  4CDF 0810                movem.l    D4,A3, [A7]+
000023E6  4E5E                     unlink     A6
000023E8  4E75                     rts
000023EA  4E56 0000                link       A6, 0
000023EE  2F2D F6DC                move.l     -[A7], [A5 - 0x924]
000023F2  A873                     syscall    SetPort
000023F4  6170                     bsr        +0x72 /* 00002466 */
000023F6  3B6E 0008 F06A           move.w     [A5 - 0xF96], [A6 + 0x8]
000023FC  4267                     clr.w      -[A7]
000023FE  2F2D F072                move.l     -[A7], [A5 - 0xF8E]
00002402  A88C                     syscall    StringWidth
00002404  301F                     move.w     D0, [A7]+
00002406  D06E 0008                add.w      D0, [A6 + 0x8]
0000240A  D06D F06E                add.w      D0, [A5 - 0xF92]
0000240E  5040                     addq.w     D0, 8
00002410  3B40 F076                move.w     [A5 - 0xF8A], D0
00002414  246D F6DC                movea.l    A2, [A5 - 0x924]
00002418  362A 0016                move.w     D3, [A2 + 0x16]
0000241C  967C 0014                sub.w      D3, 0x14
00002420  3F03                     move.w     -[A7], D3
00002422  4267                     clr.w      -[A7]
00002424  2F2D F00E                move.l     -[A7], [A5 - 0xFF2]
00002428  A88C                     syscall    StringWidth
0000242A  301F                     move.w     D0, [A7]+
0000242C  361F                     move.w     D3, [A7]+
0000242E  9640                     sub.w      D3, D0
00002430  3B43 F2CE                move.w     [A5 - 0xD32], D3
00002434  4267                     clr.w      -[A7]
00002436  2F2D F07E                move.l     -[A7], [A5 - 0xF82]
0000243A  A88C                     syscall    StringWidth
0000243C  301F                     move.w     D0, [A7]+
0000243E  362D F07A                move.w     D3, [A5 - 0xF86]
00002442  E343                     asl        D3.w, 1
00002444  D043                     add.w      D0, D3
00002446  D06D F076                add.w      D0, [A5 - 0xF8A]
0000244A  5040                     addq.w     D0, 8
0000244C  362D F2CE                move.w     D3, [A5 - 0xD32]
00002450  B640                     cmp.w      D3, D0
00002452  6C0A                     bge        +0xC /* 0000245E */
00002454  246D F6DC                movea.l    A2, [A5 - 0x924]
00002458  3B6A 0016 F2CE           move.w     [A5 - 0xD32], [A2 + 0x16]
label0000245E:
0000245E  4EAD 01D2                jsr        [A5 + 0x1D2 /* export_54, CODE:0 @ 00000000 */]
00002462  4E5E                     unlink     A6
00002464  4E75                     rts
fn00002466:
00002466  4E56 0000                link       A6, 0
0000246A  4267                     clr.w      -[A7]
0000246C  A887                     syscall    TextFont
0000246E  3F3C 000C                move.w     -[A7], 0xC
00002472  A88A                     syscall    TextSize
00002474  4E5E                     unlink     A6
00002476  4E75                     rts
fn00002478:
00002478  4E56 0000                link       A6, 0
0000247C  3F2D FF32                move.w     -[A7], [A5 - 0xCE]
00002480  A887                     syscall    TextFont
00002482  3F3C 0012                move.w     -[A7], 0x12
00002486  A88A                     syscall    TextSize
00002488  4E5E                     unlink     A6
0000248A  4E75                     rts
fn0000248C:
0000248C  2078 02AE                movea.l    A0, [0x000002AE /* ROMBase */]
00002490  4EE8 000A                jmp        [A0 + 0xA]
00002494  206F 0004                movea.l    A0, [A7 + 0x4]
00002498  302F 0008                move.w     D0, [A7 + 0x8]
0000249C  322F 000A                move.w     D1, [A7 + 0xA]
000024A0  5340                     subq.w     D0, 1
000024A2  6B06                     bmi        +0x8 /* 000024AA */
label000024A4:
000024A4  30C1                     move.w     [A0]+, D1
000024A6  51C8 FFFC                dbf        D0, -0x6 /* 000024A4 */
label000024AA:
000024AA  4E75                     rts
000024AC  204F                     movea.l    A0, A7
000024AE  91FC 0000 1000           sub.l      A0, 0x1000
000024B4  A02D                     syscall    SetApplLimit
000024B6  594F                     subq.w     A7, 4
000024B8  A975                     syscall    TickCount
000024BA  584F                     addq.w     A7, 4
000024BC  4E56 FFCA                link       A6, -0x0036
000024C0  203C 0000 06EA           move.l     D0, 0x6EA
000024C6  6B0A                     bmi        +0xC /* 000024D2 */
000024C8  41ED F228                lea.l      A0, [A5 - 0xDD8]
label000024CC:
000024CC  4258                     clr.w      [A0]+
000024CE  51C8 FFFC                dbf        D0, -0x6 /* 000024CC */
label000024D2:
000024D2  594F                     subq.w     A7, 4
000024D4  243C 434F 4445           move.l     D2, 0x434F4445 /* 'CODE' */
000024DA  2F02                     move.l     -[A7], D2
000024DC  3F3C 0001                move.w     -[A7], 0x1
000024E0  A9A0                     syscall    GetResource
000024E2  245F                     movea.l    A2, [A7]+
000024E4  2C12                     move.l     D6, [A2]
000024E6  CCBC 00FF FFFF           and.l      D6, 0xFFFFFF
000024EC  5886                     addq.l     D6, 4
000024EE  41EE FFCA                lea.l      A0, [A6 - 0x36]
000024F2  3178 0900 0018           move.w     [A0 + 0x18], [0x00000900 /* CurApRefNum */]
000024F8  43EE FFFC                lea.l      A1, [A6 - 0x4]
000024FC  323C 0100                move.w     D1, 0x100
00002500  6166                     bsr        +0x68 /* 00002568 */
00002502  670E                     beq        +0x10 /* 00002512 */
00002504  2151 0024                move.l     [A0 + 0x24], [A1]
00002508  45ED D72A                lea.l      A2, [A5 - 0x28D6]
0000250C  214A 0020                move.l     [A0 + 0x20], A2
00002510  A002                     syscall    Read
label00002512:
00002512  323C 0101                move.w     D1, 0x101
00002516  6150                     bsr        +0x52 /* 00002568 */
00002518  6724                     beq        +0x26 /* 0000253E */
0000251A  244D                     movea.l    A2, A5
0000251C  6126                     bsr        +0x28 /* 00002544 */
0000251E  2446                     movea.l    A2, D6
00002520  6122                     bsr        +0x24 /* 00002544 */
00002522  47ED 0004                lea.l      A3, [A5 + 0x4]
00002526  D6F8 0934                add.w      A3, [0x00000934 /* CurJTOffset */]
0000252A  A002                     syscall    Read
0000252C  2211                     move.l     D1, [A1]
0000252E  6B0E                     bmi        +0x10 /* 0000253E */
label00002530:
00002530  A002                     syscall    Read
00002532  2411                     move.l     D2, [A1]
00002534  D48A                     add.l      D2, A2
00002536  2682                     move.l     [A3], D2
00002538  508B                     addq.l     A3, 8
0000253A  51C9 FFF4                dbf        D1, -0xE /* 00002530 */
label0000253E:
0000253E  4E5E                     unlink     A6
00002540  4EFA DABE                jmp        [PC - 0x2542 /* 00000000 */]
fn00002544:
00002544  A002                     syscall    Read
00002546  2611                     move.l     D3, [A1]
00002548  6B04                     bmi        +0x6 /* 0000254E */
0000254A  280D                     move.l     D4, A5
0000254C  610C                     bsr        +0xE /* 0000255A */
label0000254E:
0000254E  A002                     syscall    Read
00002550  2611                     move.l     D3, [A1]
00002552  6B04                     bmi        +0x6 /* 00002558 */
00002554  2806                     move.l     D4, D6
00002556  6102                     bsr        +0x4 /* 0000255A */
label00002558:
00002558  4E75                     rts
fn0000255A:
0000255A  A002                     syscall    Read
0000255C  2A11                     move.l     D5, [A1]
0000255E  D9B2 5800                add.l      [A2 + D5], D4
00002562  51CB FFF6                dbf        D3, -0xC /* 0000255A */
00002566  4E75                     rts
fn00002568:
00002568  2478 0A50                movea.l    A2, [0x00000A50 /* TopMapHndl */]
0000256C  2452                     movea.l    A2, [A2]
0000256E  D4EA 0018                add.w      A2, [A2 + 0x18]
00002572  3012                     move.w     D0, [A2]
00002574  47EA 0002                lea.l      A3, [A2 + 0x2]
label00002578:
00002578  B49B                     cmp.l      D2, [A3]+
0000257A  6706                     beq        +0x8 /* 00002582 */
0000257C  4A9B                     tst.l      [A3]+
0000257E  51C8 FFF8                dbf        D0, -0xA /* 00002578 */
label00002582:
00002582  301B                     move.w     D0, [A3]+
00002584  3653                     movea.w    A3, [A3]
00002586  D7CA                     add.l      A3, A2
label00002588:
00002588  B253                     cmp.w      D1, [A3]
0000258A  670C                     beq        +0xE /* 00002598 */
0000258C  D6FC 000C                add.w      A3, 0xC
00002590  51C8 FFF6                dbf        D0, -0xC /* 00002588 */
00002594  4280                     clr.l      D0
00002596  4E75                     rts
label00002598:
00002598  202B 0004                move.l     D0, [A3 + 0x4]
0000259C  C0BC 00FF FFFF           and.l      D0, 0xFFFFFF
000025A2  2478 0A50                movea.l    A2, [0x00000A50 /* TopMapHndl */]
000025A6  2452                     movea.l    A2, [A2]
000025A8  D092                     add.l      D0, [A2]
000025AA  2149 0020                move.l     [A0 + 0x20], A1
000025AE  217C 0000 0004 0024      move.l     [A0 + 0x24], 0x4
000025B6  317C 0001 002C           move.w     [A0 + 0x2C], 0x1
000025BC  2140 002E                move.l     [A0 + 0x2E], D0
000025C0  A002                     syscall    Read
000025C2  4268 002C                clr.w      [A0 + 0x2C]
000025C6  4A91                     tst.l      [A1]
000025C8  4E75                     rts
000025CA  48E7 0810                movem.l    -[A7], D4,A3
000025CE  382F 000C                move.w     D4, [A7 + 0xC]
000025D2  486D F676                pea.l      [A5 - 0x98A]
000025D6  A86E                     syscall    InitGraf
000025D8  7007                     moveq.l    D0, 0x07
000025DA  01F8                     .incomplete
000025DC  015D                     bchg       [A5]+, D0
000025DE  01F8                     .incomplete
000025E0  021F 4238                andi.b     [A7]+, 0x38 /* '8' */
000025E4  08F2 21FC FFFF           bset.b     <<invalid full ext with IS == 1 and I/IS == 7>>, 0xFC
000025EA  FFFF                     .invalid   <<F/7/7>>
000025EC  09D6                     .incomplete
000025EE  594F                     subq.w     A7, 4
000025F0  3F3C 0010                move.w     -[A7], 0x10
000025F4  A9B8                     syscall    GetPattern
000025F6  205F                     movea.l    A0, [A7]+
000025F8  2050                     movea.l    A0, [A0]
000025FA  21D8 0A3C                move.l     [0x00000A3C /* DeskPattern */], [A0]+
000025FE  21D0 0A40                move.l     [0x00000A40], [A0]
00002602  706C                     moveq.l    D0, 0x6C
00002604  A11E                     syscall    NewPtr, flags=1
00002606  21C8 09DE                move.l     [0x000009DE /* WMgrPort */], A0
0000260A  2F08                     move.l     -[A7], A0
0000260C  A86F                     syscall    OpenPort
0000260E  2678 09DE                movea.l    A3, [0x000009DE /* WMgrPort */]
00002612  2F2B 001C                move.l     -[A7], [A3 + 0x1C]
00002616  42A7                     clr.l      -[A7]
00002618  3F2B 0016                move.w     -[A7], [A3 + 0x16]
0000261C  3F04                     move.w     -[A7], D4
0000261E  A8DE                     syscall    SetRecRgn
00002620  486B 0010                pea.l      [A3 + 0x10]
00002624  2F3C 0010 0010           move.l     -[A7], 0x100010
0000262A  A8B2                     syscall    EraseRoundRect
0000262C  3F2B 0016                move.w     -[A7], [A3 + 0x16]
00002630  7013                     moveq.l    D0, 0x13
00002632  3F00                     move.w     -[A7], D0
00002634  4840                     swap.w     D0
00002636  2F00                     move.l     -[A7], D0
00002638  A893                     syscall    MoveTo
0000263A  A891                     syscall    LineTo
0000263C  598F                     subq.l     A7, 4
0000263E  A8D8                     syscall    NewRgn
00002640  21D7 09EE                move.l     [0x000009EE /* GrayRgn */], [A7]
00002644  2F17                     move.l     -[A7], [A7]
00002646  486B 0010                pea.l      [A3 + 0x10]
0000264A  A8DF                     syscall    RectRgn
0000264C  A879                     syscall    SetClip
0000264E  2F2B 0014                move.l     -[A7], [A3 + 0x14]
00002652  9957                     sub.w      [A7], D4
00002654  A876                     syscall    PortSize
00002656  4267                     clr.w      -[A7]
00002658  3F04                     move.w     -[A7], D4
0000265A  A877                     syscall    MovePortTo
0000265C  42B8 09D6                clr.l      [0x000009D6 /* WindowList */]
00002660  598F                     subq.l     A7, 4
00002662  A8D8                     syscall    NewRgn
00002664  21DF 09F2                move.l     [0x000009F2 /* SaveVisRgn */], [A7]+
00002668  42B8 0A84                clr.l      [0x00000A84 /* GhostWindow */]
0000266C  42B8 0A64                clr.l      [0x00000A64 /* CurActivate */]
00002670  42B8 0A68                clr.l      [0x00000A68 /* CurDeactive */]
00002674  4CDF 0810                movem.l    D4,A3, [A7]+
00002678  4E75                     rts
0000267A  4E56 FFB0                link       A6, -0x0050
0000267E  41EE FFB0                lea.l      A0, [A6 - 0x50]
00002682  216E 0008 0012           move.l     [A0 + 0x12], [A6 + 0x8]
00002688  316E 000C 0016           move.w     [A0 + 0x16], [A6 + 0xC]
0000268E  4268 001A                clr.w      [A0 + 0x1A]
00002692  A008                     syscall    Create/PBHCreate/HCreate
00002694  4A40                     tst.w      D0
00002696  6614                     bne        +0x16 /* 000026AC */
00002698  4268 001C                clr.w      [A0 + 0x1C]
0000269C  A00C                     syscall    GetFileInfo/PBHGetFInfo/HGetFileInfo
0000269E  43E8 0020                lea.l      A1, [A0 + 0x20]
000026A2  22EE 0012                move.l     [A1]+, [A6 + 0x12]
000026A6  22AE 000E                move.l     [A1], [A6 + 0xE]
000026AA  A00D                     syscall    SetFileInfo/PBHSetFInfo/HSetFileInfo
label000026AC:
000026AC  4E5E                     unlink     A6
000026AE  4E75                     rts
000026B0  4E56 FFC0                link       A6, -0x0040
000026B4  41EE FFC0                lea.l      A0, [A6 - 0x40]
000026B8  216E 0008 0012           move.l     [A0 + 0x12], [A6 + 0x8]
000026BE  316E 000C 0016           move.w     [A0 + 0x16], [A6 + 0xC]
000026C4  ADF4                     syscall    ExitToShell, auto_pop
000026C6  4E5E                     unlink     A6
000026C8  4E75                     rts
000026CA  4E56 FFCE                link       A6, -0x0032
000026CE  41EE FFCE                lea.l      A0, [A6 - 0x32]
000026D2  316E 0008 0018           move.w     [A0 + 0x18], [A6 + 0x8]
000026D8  A001                     syscall    Close
000026DA  4E5E                     unlink     A6
000026DC  4E75                     rts
000026DE  4E56 FFCE                link       A6, -0x0032
000026E2  41EE FFCE                lea.l      A0, [A6 - 0x32]
000026E6  216E 0008 0012           move.l     [A0 + 0x12], [A6 + 0x8]
000026EC  316E 000C 0016           move.w     [A0 + 0x16], [A6 + 0xC]
000026F2  4268 001A                clr.w      [A0 + 0x1A]
000026F6  A009                     syscall    Delete/PBHDelete/HDelete
000026F8  4E5E                     unlink     A6
000026FA  4E75                     rts
000026FC  4E56 FFCE                link       A6, -0x0032
00002700  41EE FFCE                lea.l      A0, [A6 - 0x32]
00002704  216E 0008 0012           move.l     [A0 + 0x12], [A6 + 0x8]
0000270A  316E 000C 0016           move.w     [A0 + 0x16], [A6 + 0xC]
00002710  4268 001A                clr.w      [A0 + 0x1A]
00002714  42A8 001C                clr.l      [A0 + 0x1C]
00002718  A000                     syscall    Open/PBHOpen/HOpen
0000271A  226E 000E                movea.l    A1, [A6 + 0xE]
0000271E  32A8 0018                move.w     [A1], [A0 + 0x18]
00002722  4E5E                     unlink     A6
00002724  4E75                     rts
00002726  50C0                     st         D0
00002728  6002                     bra        +0x4 /* 0000272C */
0000272A  51C0                     sf         D0
label0000272C:
0000272C  4E56 FFCE                link       A6, -0x0032
00002730  41EE FFCE                lea.l      A0, [A6 - 0x32]
00002734  316E 0008 0018           move.w     [A0 + 0x18], [A6 + 0x8]
0000273A  226E 000A                movea.l    A1, [A6 + 0xA]
0000273E  2151 0024                move.l     [A0 + 0x24], [A1]
00002742  216E 000E 0020           move.l     [A0 + 0x20], [A6 + 0xE]
00002748  4268 002C                clr.w      [A0 + 0x2C]
0000274C  42A8 002E                clr.l      [A0 + 0x2E]
00002750  4A00                     tst.b      D0
00002752  6604                     bne        +0x6 /* 00002758 */
00002754  A003                     syscall    Write
00002756  6002                     bra        +0x4 /* 0000275A */
label00002758:
00002758  A002                     syscall    Read
label0000275A:
0000275A  226E 000A                movea.l    A1, [A6 + 0xA]
0000275E  22A8 0028                move.l     [A1], [A0 + 0x28]
00002762  4E5E                     unlink     A6
00002764  4E75                     rts
fn00002766:
00002766  4E56 FFC0                link       A6, -0x0040
0000276A  41EE FFC0                lea.l      A0, [A6 - 0x40]
0000276E  216E 0008 0012           move.l     [A0 + 0x12], [A6 + 0x8]
00002774  A014                     syscall    GetVol/PBHGetVol/HGetVol
00002776  226E 000C                movea.l    A1, [A6 + 0xC]
0000277A  32A8 0016                move.w     [A1], [A0 + 0x16]
0000277E  4E5E                     unlink     A6
00002780  4E75                     rts
00002782  206F 0004                movea.l    A0, [A7 + 0x4]
00002786  A04A                     syscall    HNoPurge
00002788  4EFA 09DC                jmp        [PC + 0x9DC /* 00003166 */]
0000278C  206F 0004                movea.l    A0, [A7 + 0x4]
00002790  A049                     syscall    HPurge
00002792  4EFA 09D2                jmp        [PC + 0x9D2 /* 00003166 */]
00002796  202F 0004                move.l     D0, [A7 + 0x4]
0000279A  A04D                     syscall    PurgeMem
0000279C  4EFA 09C8                jmp        [PC + 0x9C8 /* 00003166 */]
000027A0  4E56 0000                link       A6, 0
000027A4  48E7 0C10                movem.l    -[A7], D4,D5,A3
000027A8  266E 0008                movea.l    A3, [A6 + 0x8]
label000027AC:
000027AC  1613                     move.b     D3, [A3]
000027AE  4883                     ext.w      D3
000027B0  B67C 0020                cmp.w      D3, 0x20 /* ' ' */
000027B4  670A                     beq        +0xC /* 000027C0 */
000027B6  1613                     move.b     D3, [A3]
000027B8  4883                     ext.w      D3
000027BA  B67C 0009                cmp.w      D3, 0x9 /* '\t' */
000027BE  6604                     bne        +0x6 /* 000027C4 */
label000027C0:
000027C0  528B                     addq.l     A3, 1
000027C2  60E8                     bra        -0x16 /* 000027AC */
label000027C4:
000027C4  7A00                     moveq.l    D5, 0x00
000027C6  1613                     move.b     D3, [A3]
000027C8  4883                     ext.w      D3
000027CA  B67C 002D                cmp.w      D3, 0x2D /* '-' */
000027CE  6606                     bne        +0x8 /* 000027D6 */
000027D0  7A01                     moveq.l    D5, 0x01
000027D2  528B                     addq.l     A3, 1
000027D4  600C                     bra        +0xE /* 000027E2 */
label000027D6:
000027D6  1613                     move.b     D3, [A3]
000027D8  4883                     ext.w      D3
000027DA  B67C 002B                cmp.w      D3, 0x2B /* '+' */
000027DE  6602                     bne        +0x4 /* 000027E2 */
000027E0  528B                     addq.l     A3, 1
label000027E2:
000027E2  7800                     moveq.l    D4, 0x00
label000027E4:
000027E4  1613                     move.b     D3, [A3]
000027E6  4883                     ext.w      D3
000027E8  5243                     addq.w     D3, 1
000027EA  45ED F19E                lea.l      A2, [A5 - 0xE62]
000027EE  1432 3000                move.b     D2, [A2 + D3.w]
000027F2  4882                     ext.w      D2
000027F4  C47C 0004                and.w      D2, 0x4
000027F8  6718                     beq        +0x1A /* 00002812 */
000027FA  244B                     movea.l    A2, A3
000027FC  528B                     addq.l     A3, 1
000027FE  1612                     move.b     D3, [A2]
00002800  4883                     ext.w      D3
00002802  3404                     move.w     D2, D4
00002804  C4FC 000A                mulu.w     D2, 0xA /* '\n' */
00002808  D642                     add.w      D3, D2
0000280A  3803                     move.w     D4, D3
0000280C  987C 0030                sub.w      D4, 0x30 /* '0' */
00002810  60D2                     bra        -0x2C /* 000027E4 */
label00002812:
00002812  4A45                     tst.w      D5
00002814  6706                     beq        +0x8 /* 0000281C */
00002816  3004                     move.w     D0, D4
00002818  4440                     neg.w      D0
0000281A  6002                     bra        +0x4 /* 0000281E */
label0000281C:
0000281C  3004                     move.w     D0, D4
label0000281E:
0000281E  4CDF 0830                movem.l    D4,D5,A3, [A7]+
00002822  4E5E                     unlink     A6
00002824  4E75                     rts
00002826  206F 0004                movea.l    A0, [A7 + 0x4]
0000282A  302F 0008                move.w     D0, [A7 + 0x8]
0000282E  322F 000A                move.w     D1, [A7 + 0xA]
00002832  5340                     subq.w     D0, 1
00002834  6B06                     bmi        +0x8 /* 0000283C */
label00002836:
00002836  10C1                     move.b     [A0]+, D1
00002838  51C8 FFFC                dbf        D0, -0x6 /* 00002836 */
label0000283C:
0000283C  4E75                     rts
0000283E  4E56 0000                link       A6, 0
00002842  2F04                     move.l     -[A7], D4
00002844  2B6E 0008 F67A           move.l     [A5 - 0x986], [A6 + 0x8]
0000284A  486E 0010                pea.l      [A6 + 0x10]
0000284E  2F2E 000C                move.l     -[A7], [A6 + 0xC]
00002852  487A 001A                pea.l      [PC + 0x1A /* 0000286E, value 0x4E560000 'NV\0\0', cstring "NV" */]
00002856  4EAD 026A                jsr        [A5 + 0x26A /* export_73, CODE:0 @ 00000000 */]
0000285A  DEFC 000C                add.w      A7, 0xC
0000285E  3800                     move.w     D4, D0
00002860  246D F67A                movea.l    A2, [A5 - 0x986]
00002864  4212                     clr.b      [A2]
00002866  3004                     move.w     D0, D4
00002868  281F                     move.l     D4, [A7]+
0000286A  4E5E                     unlink     A6
0000286C  4E75                     rts
0000286E  4E56 0000                link       A6, 0
00002872  246D F67A                movea.l    A2, [A5 - 0x986]
00002876  52AD F67A                addq.l     [A5 - 0x986], 1
0000287A  102E 0009                move.b     D0, [A6 + 0x9]
0000287E  1480                     move.b     [A2], D0
00002880  4880                     ext.w      D0
00002882  C07C 00FF                and.w      D0, 0xFF
00002886  4E5E                     unlink     A6
00002888  4E75                     rts
0000288A  206F 0004                movea.l    A0, [A7 + 0x4]
0000288E  A039                     syscall    ReadDateTime
00002890  2010                     move.l     D0, [A0]
00002892  A9C6                     syscall    SecondsToDate/Secs2Date
00002894  4E75                     rts
00002896  7001                     moveq.l    D0, 0x01
00002898  4EFA 0004                jmp        [PC + 0x4 /* 0000289E */]
0000289C  7002                     moveq.l    D0, 0x02
label0000289E:
0000289E  205F                     movea.l    A0, [A7]+
000028A0  3F00                     move.w     -[A7], D0
000028A2  2F08                     move.l     -[A7], A0
000028A4  ADEA                     syscall    Pack3, auto_pop
000028A6  4E56 FE58                link       A6, -0x01A8
000028AA  48E7 0818                movem.l    -[A7], D4,A3,A4
000028AE  266E 0008                movea.l    A3, [A6 + 0x8]
000028B2  286E 000C                movea.l    A4, [A6 + 0xC]
label000028B6:
000028B6  244C                     movea.l    A2, A4
000028B8  528C                     addq.l     A4, 1
000028BA  1612                     move.b     D3, [A2]
000028BC  4883                     ext.w      D3
000028BE  3803                     move.w     D4, D3
000028C0  4A43                     tst.w      D3
000028C2  6700 02F0                beq        +0x2F2 /* 00002BB4 */
000028C6  B87C 0025                cmp.w      D4, 0x25 /* '%' */
000028CA  6600 02DE                bne        +0x2E0 /* 00002BAA */
000028CE  2D6E 0010 FFEC           move.l     [A6 - 0x14], [A6 + 0x10]
000028D4  422E FE66                clr.b      [A6 - 0x19A]
000028D8  3D7C 0001 FFFE           move.w     [A6 - 0x2], 0x1
000028DE  3D7C 0020 FFFC           move.w     [A6 - 0x4], 0x20 /* ' ' */
000028E4  3D7C 7FFF FFFA           move.w     [A6 - 0x6], 0x7FFF
000028EA  244C                     movea.l    A2, A4
000028EC  528C                     addq.l     A4, 1
000028EE  1612                     move.b     D3, [A2]
000028F0  4883                     ext.w      D3
000028F2  3803                     move.w     D4, D3
000028F4  B67C 002D                cmp.w      D3, 0x2D /* '-' */
000028F8  660E                     bne        +0x10 /* 00002908 */
000028FA  426E FFFE                clr.w      [A6 - 0x2]
000028FE  244C                     movea.l    A2, A4
00002900  528C                     addq.l     A4, 1
00002902  1612                     move.b     D3, [A2]
label00002904:
00002904  4883                     ext.w      D3
00002906  3803                     move.w     D4, D3
label00002908:
00002908  B87C 0030                cmp.w      D4, 0x30 /* '0' */
0000290C  6610                     bne        +0x12 /* 0000291E */
0000290E  3D7C 0030 FFFC           move.w     [A6 - 0x4], 0x30 /* '0' */
00002914  244C                     movea.l    A2, A4
00002916  528C                     addq.l     A4, 1
00002918  1612                     move.b     D3, [A2]
0000291A  4883                     ext.w      D3
0000291C  3803                     move.w     D4, D3
label0000291E:
0000291E  B87C 002A                cmp.w      D4, 0x2A /* '*' */
00002922  6618                     bne        +0x1A /* 0000293C */
00002924  246E 0010                movea.l    A2, [A6 + 0x10]
00002928  54AE 0010                addq.l     [A6 + 0x10], 2
0000292C  3D52 FFF8                move.w     [A6 - 0x8], [A2]
00002930  244C                     movea.l    A2, A4
00002932  528C                     addq.l     A4, 1
00002934  1612                     move.b     D3, [A2]
00002936  4883                     ext.w      D3
00002938  3803                     move.w     D4, D3
0000293A  6036                     bra        +0x38 /* 00002972 */
label0000293C:
0000293C  426E FFF8                clr.w      [A6 - 0x8]
label00002940:
00002940  3604                     move.w     D3, D4
00002942  5243                     addq.w     D3, 1
00002944  45ED F19E                lea.l      A2, [A5 - 0xE62]
00002948  1432 3000                move.b     D2, [A2 + D3.w]
0000294C  4882                     ext.w      D2
0000294E  C47C 0004                and.w      D2, 0x4
00002952  671E                     beq        +0x20 /* 00002972 */
00002954  362E FFF8                move.w     D3, [A6 - 0x8]
00002958  C6FC 000A                mulu.w     D3, 0xA /* '\n' */
0000295C  D644                     add.w      D3, D4
0000295E  967C 0030                sub.w      D3, 0x30 /* '0' */
00002962  3D43 FFF8                move.w     [A6 - 0x8], D3
00002966  244C                     movea.l    A2, A4
00002968  528C                     addq.l     A4, 1
0000296A  1612                     move.b     D3, [A2]
0000296C  4883                     ext.w      D3
0000296E  3803                     move.w     D4, D3
00002970  60CE                     bra        -0x30 /* 00002940 */
label00002972:
00002972  B87C 002E                cmp.w      D4, 0x2E /* '.' */
00002976  665E                     bne        +0x60 /* 000029D6 */
00002978  244C                     movea.l    A2, A4
0000297A  528C                     addq.l     A4, 1
0000297C  1612                     move.b     D3, [A2]
0000297E  4883                     ext.w      D3
00002980  3803                     move.w     D4, D3
00002982  B67C 002A                cmp.w      D3, 0x2A /* '*' */
00002986  6618                     bne        +0x1A /* 000029A0 */
00002988  246E 0010                movea.l    A2, [A6 + 0x10]
0000298C  54AE 0010                addq.l     [A6 + 0x10], 2
00002990  3D52 FFFA                move.w     [A6 - 0x6], [A2]
00002994  244C                     movea.l    A2, A4
00002996  528C                     addq.l     A4, 1
00002998  1612                     move.b     D3, [A2]
0000299A  4883                     ext.w      D3
0000299C  3803                     move.w     D4, D3
0000299E  6036                     bra        +0x38 /* 000029D6 */
label000029A0:
000029A0  426E FFFA                clr.w      [A6 - 0x6]
label000029A4:
000029A4  3604                     move.w     D3, D4
000029A6  5243                     addq.w     D3, 1
000029A8  45ED F19E                lea.l      A2, [A5 - 0xE62]
000029AC  1432 3000                move.b     D2, [A2 + D3.w]
000029B0  4882                     ext.w      D2
000029B2  C47C 0004                and.w      D2, 0x4
000029B6  671E                     beq        +0x20 /* 000029D6 */
000029B8  362E FFFA                move.w     D3, [A6 - 0x6]
000029BC  C6FC 000A                mulu.w     D3, 0xA /* '\n' */
000029C0  D644                     add.w      D3, D4
000029C2  967C 0030                sub.w      D3, 0x30 /* '0' */
000029C6  3D43 FFFA                move.w     [A6 - 0x6], D3
000029CA  244C                     movea.l    A2, A4
000029CC  528C                     addq.l     A4, 1
000029CE  1612                     move.b     D3, [A2]
000029D0  4883                     ext.w      D3
000029D2  3803                     move.w     D4, D3
000029D4  60CE                     bra        -0x30 /* 000029A4 */
label000029D6:
000029D6  B87C 006C                cmp.w      D4, 0x6C /* 'l' */
000029DA  6618                     bne        +0x1A /* 000029F4 */
000029DC  244C                     movea.l    A2, A4
000029DE  528C                     addq.l     A4, 1
000029E0  1612                     move.b     D3, [A2]
000029E2  4883                     ext.w      D3
000029E4  3803                     move.w     D4, D3
000029E6  246E 0010                movea.l    A2, [A6 + 0x10]
000029EA  58AE 0010                addq.l     [A6 + 0x10], 4
000029EE  2D52 FFF4                move.l     [A6 - 0xC], [A2]
000029F2  602C                     bra        +0x2E /* 00002A20 */
label000029F4:
000029F4  B87C 0064                cmp.w      D4, 0x64 /* 'd' */
000029F8  6612                     bne        +0x14 /* 00002A0C */
000029FA  246E 0010                movea.l    A2, [A6 + 0x10]
000029FE  54AE 0010                addq.l     [A6 + 0x10], 2
00002A02  3612                     move.w     D3, [A2]
00002A04  48C3                     ext.l      D3
00002A06  2D43 FFF4                move.l     [A6 - 0xC], D3
00002A0A  6014                     bra        +0x16 /* 00002A20 */
label00002A0C:
00002A0C  246E 0010                movea.l    A2, [A6 + 0x10]
00002A10  54AE 0010                addq.l     [A6 + 0x10], 2
00002A14  3612                     move.w     D3, [A2]
00002A16  4843                     swap.w     D3
00002A18  4243                     clr.w      D3
00002A1A  4843                     swap.w     D3
00002A1C  2D43 FFF4                move.l     [A6 - 0xC], D3
label00002A20:
00002A20  3004                     move.w     D0, D4
00002A22  6000 00DA                bra        +0xDC /* 00002AFE */
label00002A26:
00002A26  486E FE66                pea.l      [A6 - 0x19A]
00002A2A  3F3C 0008                move.w     -[A7], 0x8
00002A2E  2F2E FFF4                move.l     -[A7], [A6 - 0xC]
00002A32  4EBA 0188                jsr        [PC + 0x188 /* 00002BBC */]
00002A36  DEFC 000A                add.w      A7, 0xA /* '\n' */
00002A3A  2D40 FFE8                move.l     [A6 - 0x18], D0
00002A3E  6000 00E2                bra        +0xE4 /* 00002B22 */
label00002A42:
00002A42  0CAE 0000 0000 FFF4      cmpi.l     [A6 - 0xC], 0x0
00002A4A  6C2A                     bge        +0x2C /* 00002A76 */
00002A4C  486E FE66                pea.l      [A6 - 0x19A]
00002A50  3F3C 000A                move.w     -[A7], 0xA /* '\n' */
00002A54  262E FFF4                move.l     D3, [A6 - 0xC]
00002A58  4483                     neg.l      D3
00002A5A  2F03                     move.l     -[A7], D3
00002A5C  4EBA 015E                jsr        [PC + 0x15E /* 00002BBC */]
00002A60  DEFC 000A                add.w      A7, 0xA /* '\n' */
00002A64  2D40 FFE8                move.l     [A6 - 0x18], D0
00002A68  53AE FFE8                subq.l     [A6 - 0x18], 1
00002A6C  246E FFE8                movea.l    A2, [A6 - 0x18]
00002A70  14BC 002D                move.b     [A2], 0x2D /* '-' */
00002A74  6018                     bra        +0x1A /* 00002A8E */
label00002A76:
00002A76  486E FE66                pea.l      [A6 - 0x19A]
00002A7A  3F3C 000A                move.w     -[A7], 0xA /* '\n' */
00002A7E  2F2E FFF4                move.l     -[A7], [A6 - 0xC]
00002A82  4EBA 0138                jsr        [PC + 0x138 /* 00002BBC */]
00002A86  DEFC 000A                add.w      A7, 0xA /* '\n' */
00002A8A  2D40 FFE8                move.l     [A6 - 0x18], D0
label00002A8E:
00002A8E  6000 0092                bra        +0x94 /* 00002B22 */
label00002A92:
00002A92  486E FE66                pea.l      [A6 - 0x19A]
00002A96  3F3C 000A                move.w     -[A7], 0xA /* '\n' */
00002A9A  2F2E FFF4                move.l     -[A7], [A6 - 0xC]
00002A9E  4EBA 011C                jsr        [PC + 0x11C /* 00002BBC */]
00002AA2  DEFC 000A                add.w      A7, 0xA /* '\n' */
00002AA6  2D40 FFE8                move.l     [A6 - 0x18], D0
00002AAA  6076                     bra        +0x78 /* 00002B22 */
label00002AAC:
00002AAC  486E FE66                pea.l      [A6 - 0x19A]
00002AB0  3F3C 0010                move.w     -[A7], 0x10
00002AB4  2F2E FFF4                move.l     -[A7], [A6 - 0xC]
00002AB8  4EBA 0102                jsr        [PC + 0x102 /* 00002BBC */]
00002ABC  DEFC 000A                add.w      A7, 0xA /* '\n' */
00002AC0  2D40 FFE8                move.l     [A6 - 0x18], D0
00002AC4  605C                     bra        +0x5E /* 00002B22 */
label00002AC6:
00002AC6  55AE 0010                subq.l     [A6 + 0x10], 2
00002ACA  246E 0010                movea.l    A2, [A6 + 0x10]
00002ACE  58AE 0010                addq.l     [A6 + 0x10], 4
00002AD2  2D52 FFE8                move.l     [A6 - 0x18], [A2]
00002AD6  2F2E FFE8                move.l     -[A7], [A6 - 0x18]
00002ADA  4EAD 02A2                jsr        [A5 + 0x2A2 /* export_80, CODE:0 @ 00000000 */]
00002ADE  584F                     addq.w     A7, 4
00002AE0  3D40 FFF2                move.w     [A6 - 0xE], D0
00002AE4  6048                     bra        +0x4A /* 00002B2E */
label00002AE6:
00002AE6  382E FFF6                move.w     D4, [A6 - 0xA]
00002AEA  6006                     bra        +0x8 /* 00002AF2 */
label00002AEC:
00002AEC  2D6E FFEC 0010           move.l     [A6 + 0x10], [A6 - 0x14]
label00002AF2:
00002AF2  45EE FE65                lea.l      A2, [A6 - 0x19B]
00002AF6  2D4A FFE8                move.l     [A6 - 0x18], A2
00002AFA  1484                     move.b     [A2], D4
00002AFC  6024                     bra        +0x26 /* 00002B22 */
label00002AFE:
00002AFE  907C 0063                sub.w      D0, 0x63 /* 'c' */
00002B02  67E2                     beq        -0x1C /* 00002AE6 */
00002B04  5340                     subq.w     D0, 1
00002B06  6700 FF3A                beq        -0xC4 /* 00002A42 */
00002B0A  907C 000B                sub.w      D0, 0xB
00002B0E  6700 FF16                beq        -0xE8 /* 00002A26 */
00002B12  5940                     subq.w     D0, 4
00002B14  67B0                     beq        -0x4E /* 00002AC6 */
00002B16  5540                     subq.w     D0, 2
00002B18  6700 FF78                beq        -0x86 /* 00002A92 */
00002B1C  5740                     subq.w     D0, 3
00002B1E  678C                     beq        -0x72 /* 00002AAC */
00002B20  60CA                     bra        -0x34 /* 00002AEC */
label00002B22:
00002B22  45EE FE66                lea.l      A2, [A6 - 0x19A]
00002B26  95EE FFE8                sub.l      A2, [A6 - 0x18]
00002B2A  3D4A FFF2                move.w     [A6 - 0xE], A2
label00002B2E:
00002B2E  362E FFF2                move.w     D3, [A6 - 0xE]
00002B32  B66E FFFA                cmp.w      D3, [A6 - 0x6]
00002B36  6F06                     ble        +0x8 /* 00002B3E */
00002B38  3D6E FFFA FFF2           move.w     [A6 - 0xE], [A6 - 0x6]
label00002B3E:
00002B3E  4A6E FFFE                tst.w      [A6 - 0x2]
00002B42  6718                     beq        +0x1A /* 00002B5C */
label00002B44:
00002B44  362E FFF8                move.w     D3, [A6 - 0x8]
00002B48  536E FFF8                subq.w     [A6 - 0x8], 1
00002B4C  B66E FFF2                cmp.w      D3, [A6 - 0xE]
00002B50  6F0A                     ble        +0xC /* 00002B5C */
00002B52  3F2E FFFC                move.w     -[A7], [A6 - 0x4]
00002B56  4E93                     jsr        [A3]
00002B58  544F                     addq.w     A7, 2
00002B5A  60E8                     bra        -0x16 /* 00002B44 */
label00002B5C:
00002B5C  426E FFF0                clr.w      [A6 - 0x10]
label00002B60:
00002B60  246E FFE8                movea.l    A2, [A6 - 0x18]
00002B64  4A12                     tst.b      [A2]
00002B66  6722                     beq        +0x24 /* 00002B8A */
00002B68  362E FFF0                move.w     D3, [A6 - 0x10]
00002B6C  B66E FFFA                cmp.w      D3, [A6 - 0x6]
00002B70  6C18                     bge        +0x1A /* 00002B8A */
00002B72  246E FFE8                movea.l    A2, [A6 - 0x18]
00002B76  52AE FFE8                addq.l     [A6 - 0x18], 1
00002B7A  1612                     move.b     D3, [A2]
00002B7C  4883                     ext.w      D3
00002B7E  3F03                     move.w     -[A7], D3
00002B80  4E93                     jsr        [A3]
00002B82  544F                     addq.w     A7, 2
00002B84  526E FFF0                addq.w     [A6 - 0x10], 1
00002B88  60D6                     bra        -0x28 /* 00002B60 */
label00002B8A:
00002B8A  4A6E FFFE                tst.w      [A6 - 0x2]
00002B8E  6618                     bne        +0x1A /* 00002BA8 */
label00002B90:
00002B90  362E FFF8                move.w     D3, [A6 - 0x8]
00002B94  536E FFF8                subq.w     [A6 - 0x8], 1
00002B98  B66E FFF2                cmp.w      D3, [A6 - 0xE]
00002B9C  6F0A                     ble        +0xC /* 00002BA8 */
00002B9E  3F3C 0020                move.w     -[A7], 0x20 /* ' ' */
00002BA2  4E93                     jsr        [A3]
00002BA4  544F                     addq.w     A7, 2
00002BA6  60E8                     bra        -0x16 /* 00002B90 */
label00002BA8:
00002BA8  6006                     bra        +0x8 /* 00002BB0 */
label00002BAA:
00002BAA  3F04                     move.w     -[A7], D4
00002BAC  4E93                     jsr        [A3]
00002BAE  544F                     addq.w     A7, 2
label00002BB0:
00002BB0  6000 FD04                bra        -0x2FA /* 000028B6 */
label00002BB4:
00002BB4  4CDF 1810                movem.l    D4,A3,A4, [A7]+
00002BB8  4E5E                     unlink     A6
00002BBA  4E75                     rts
fn00002BBC:
00002BBC  4E56 0000                link       A6, 0
00002BC0  48E7 0E10                movem.l    -[A7], D4,D5,D6,A3
00002BC4  282E 0008                move.l     D4, [A6 + 0x8]
00002BC8  3A2E 000C                move.w     D5, [A6 + 0xC]
00002BCC  266E 000E                movea.l    A3, [A6 + 0xE]
00002BD0  B8BC 0000 0000           cmp.l      D4, 0x0
00002BD6  6C3A                     bge        +0x3C /* 00002C12 */
00002BD8  3C04                     move.w     D6, D4
00002BDA  CC7C 0001                and.w      D6, 0x1
00002BDE  2604                     move.l     D3, D4
00002BE0  E283                     asr        D3, 1
00002BE2  2803                     move.l     D4, D3
00002BE4  C8BC 7FFF FFFF           and.l      D4, 0x7FFFFFFF
00002BEA  538B                     subq.l     A3, 1
00002BEC  2004                     move.l     D0, D4
00002BEE  3205                     move.w     D1, D5
00002BF0  E241                     asr        D1.w, 1
00002BF2  48C1                     ext.l      D1
00002BF4  4EBA 006C                jsr        [PC + 0x6C /* 00002C62 */]
00002BF8  E340                     asl        D0.w, 1
00002BFA  D046                     add.w      D0, D6
00002BFC  45ED F18C                lea.l      A2, [A5 - 0xE74]
00002C00  16B2 0000                move.b     [A3], [A2 + D0.w]
00002C04  2004                     move.l     D0, D4
00002C06  3205                     move.w     D1, D5
00002C08  E241                     asr        D1.w, 1
00002C0A  48C1                     ext.l      D1
00002C0C  4EAD 0272                jsr        [A5 + 0x272 /* export_74, CODE:0 @ 00000000 */]
00002C10  2800                     move.l     D4, D0
label00002C12:
00002C12  538B                     subq.l     A3, 1
00002C14  2004                     move.l     D0, D4
00002C16  48C5                     ext.l      D5
00002C18  2205                     move.l     D1, D5
00002C1A  4EBA 0046                jsr        [PC + 0x46 /* 00002C62 */]
00002C1E  45ED F18C                lea.l      A2, [A5 - 0xE74]
00002C22  16B2 0000                move.b     [A3], [A2 + D0.w]
00002C26  2004                     move.l     D0, D4
00002C28  48C5                     ext.l      D5
00002C2A  2205                     move.l     D1, D5
00002C2C  4EAD 0272                jsr        [A5 + 0x272 /* export_74, CODE:0 @ 00000000 */]
00002C30  2800                     move.l     D4, D0
00002C32  4A80                     tst.l      D0
00002C34  66DC                     bne        -0x22 /* 00002C12 */
00002C36  200B                     move.l     D0, A3
00002C38  4CDF 0870                movem.l    D4,D5,D6,A3, [A7]+
00002C3C  4E5E                     unlink     A6
00002C3E  4E75                     rts
00002C40  2F04                     move.l     -[A7], D4
00002C42  4284                     clr.l      D4
00002C44  4A80                     tst.l      D0
00002C46  6A04                     bpl        +0x6 /* 00002C4C */
00002C48  4480                     neg.l      D0
00002C4A  5244                     addq.w     D4, 1
label00002C4C:
00002C4C  4A81                     tst.l      D1
00002C4E  6A06                     bpl        +0x8 /* 00002C56 */
00002C50  4481                     neg.l      D1
00002C52  0A44 0001                xori.w     D4, 0x1
label00002C56:
00002C56  612E                     bsr        +0x30 /* 00002C86 */
label00002C58:
00002C58  4A44                     tst.w      D4
00002C5A  6702                     beq        +0x4 /* 00002C5E */
00002C5C  4480                     neg.l      D0
label00002C5E:
00002C5E  281F                     move.l     D4, [A7]+
00002C60  4E75                     rts
fn00002C62:
00002C62  2F04                     move.l     -[A7], D4
00002C64  4284                     clr.l      D4
00002C66  4A80                     tst.l      D0
00002C68  6A04                     bpl        +0x6 /* 00002C6E */
00002C6A  4480                     neg.l      D0
00002C6C  5244                     addq.w     D4, 1
label00002C6E:
00002C6E  4A81                     tst.l      D1
00002C70  6A06                     bpl        +0x8 /* 00002C78 */
00002C72  4481                     neg.l      D1
00002C74  0A44 0001                xori.w     D4, 0x1
label00002C78:
00002C78  610C                     bsr        +0xE /* 00002C86 */
00002C7A  2001                     move.l     D0, D1
00002C7C  4EFA FFDA                jmp        [PC - 0x26 /* 00002C58 */]
00002C80  6104                     bsr        +0x6 /* 00002C86 */
00002C82  2001                     move.l     D0, D1
00002C84  4E75                     rts
fn00002C86:
00002C86  48E7 3000                movem.l    -[A7], D2,D3
00002C8A  4841                     swap.w     D1
00002C8C  4A41                     tst.w      D1
00002C8E  6628                     bne        +0x2A /* 00002CB8 */
00002C90  4841                     swap.w     D1
00002C92  4243                     clr.w      D3
00002C94  80C1                     divu.w     D0, D1
00002C96  680E                     bvc        +0x10 /* 00002CA6 */
00002C98  3400                     move.w     D2, D0
00002C9A  4240                     clr.w      D0
00002C9C  4840                     swap.w     D0
00002C9E  80C1                     divu.w     D0, D1
00002CA0  3600                     move.w     D3, D0
00002CA2  3002                     move.w     D0, D2
00002CA4  80C1                     divu.w     D0, D1
label00002CA6:
00002CA6  2200                     move.l     D1, D0
00002CA8  4840                     swap.w     D0
00002CAA  3003                     move.w     D0, D3
00002CAC  4840                     swap.w     D0
00002CAE  4241                     clr.w      D1
00002CB0  4841                     swap.w     D1
00002CB2  4CDF 000C                movem.l    D2,D3, [A7]+
00002CB6  4E75                     rts
label00002CB8:
00002CB8  4841                     swap.w     D1
00002CBA  4282                     clr.l      D2
00002CBC  761F                     moveq.l    D3, 0x1F
label00002CBE:
00002CBE  E380                     asl        D0, 1
00002CC0  E392                     roxl       D2, 1
00002CC2  9481                     sub.l      D2, D1
00002CC4  6B10                     bmi        +0x12 /* 00002CD6 */
label00002CC6:
00002CC6  5280                     addq.l     D0, 1
00002CC8  51CB FFF4                dbf        D3, -0xE /* 00002CBE */
00002CCC  600E                     bra        +0x10 /* 00002CDC */
label00002CCE:
00002CCE  E380                     asl        D0, 1
00002CD0  E392                     roxl       D2, 1
00002CD2  D481                     add.l      D2, D1
00002CD4  6AF0                     bpl        -0xE /* 00002CC6 */
label00002CD6:
00002CD6  51CB FFF6                dbf        D3, -0xC /* 00002CCE */
00002CDA  D481                     add.l      D2, D1
label00002CDC:
00002CDC  2202                     move.l     D1, D2
00002CDE  4CDF 000C                movem.l    D2,D3, [A7]+
00002CE2  4E75                     rts
00002CE4  48E7 3000                movem.l    -[A7], D2,D3
00002CE8  3401                     move.w     D2, D1
00002CEA  C4C0                     mulu.w     D2, D0
00002CEC  2601                     move.l     D3, D1
00002CEE  4843                     swap.w     D3
00002CF0  C6C0                     mulu.w     D3, D0
00002CF2  4843                     swap.w     D3
00002CF4  4243                     clr.w      D3
00002CF6  D483                     add.l      D2, D3
00002CF8  4840                     swap.w     D0
00002CFA  C0C1                     mulu.w     D0, D1
00002CFC  4840                     swap.w     D0
00002CFE  4240                     clr.w      D0
00002D00  D082                     add.l      D0, D2
00002D02  4CDF 000C                movem.l    D2,D3, [A7]+
00002D06  4E75                     rts
00002D08  206F 0004                movea.l    A0, [A7 + 0x4]
00002D0C  2008                     move.l     D0, A0
00002D0E  226F 0008                movea.l    A1, [A7 + 0x8]
00002D12  322F 000C                move.w     D1, [A7 + 0xC]
00002D16  5341                     subq.w     D1, 1
00002D18  6B10                     bmi        +0x12 /* 00002D2A */
label00002D1A:
00002D1A  10D9                     move.b     [A0]+, [A1]+
00002D1C  57C9 FFFC                dbeq       D1, -0x6 /* 00002D1A */
00002D20  5341                     subq.w     D1, 1
00002D22  6B06                     bmi        +0x8 /* 00002D2A */
label00002D24:
00002D24  4218                     clr.b      [A0]+
00002D26  51C9 FFFC                dbf        D1, -0x6 /* 00002D24 */
label00002D2A:
00002D2A  4E75                     rts
00002D2C  4E56 0000                link       A6, 0
00002D30  486E 000C                pea.l      [A6 + 0xC]
00002D34  2F2E 0008                move.l     -[A7], [A6 + 0x8]
00002D38  6106                     bsr        +0x8 /* 00002D40 */
00002D3A  504F                     addq.w     A7, 8
00002D3C  4E5E                     unlink     A6
00002D3E  4E75                     rts
fn00002D40:
00002D40  4E56 FF6A                link       A6, -0x0096
00002D44  48E7 0E18                movem.l    -[A7], D4,D5,D6,A3,A4
00002D48  486E FFBA                pea.l      [A6 - 0x46]
00002D4C  2F2E 0008                move.l     -[A7], [A6 + 0x8]
00002D50  4EBA 0B38                jsr        [PC + 0xB38 /* 0000388A */]
00002D54  504F                     addq.w     A7, 8
00002D56  3D40 FF80                move.w     [A6 - 0x80], D0
00002D5A  4A40                     tst.w      D0
00002D5C  660A                     bne        +0xC /* 00002D68 */
00002D5E  70FF                     moveq.l    D0, 0xFFFFFFFF
label00002D60:
00002D60  4CDF 1870                movem.l    D4,D5,D6,A3,A4, [A7]+
00002D64  4E5E                     unlink     A6
00002D66  4E75                     rts
label00002D68:
00002D68  486E FFBA                pea.l      [A6 - 0x46]
00002D6C  4EAD 031A                jsr        [A5 + 0x31A /* export_95, CODE:0 @ 00000000 */]
00002D70  584F                     addq.w     A7, 4
00002D72  2D40 FF7C                move.l     [A6 - 0x84], D0
00002D76  422E FF84                clr.b      [A6 - 0x7C]
00002D7A  426E FF86                clr.w      [A6 - 0x7A]
00002D7E  4267                     clr.w      -[A7]
00002D80  486E FF6A                pea.l      [A6 - 0x96]
00002D84  4267                     clr.w      -[A7]
00002D86  4EBA 0A4A                jsr        [PC + 0xA4A /* 000037D2 */]
00002D8A  301F                     move.w     D0, [A7]+
00002D8C  3D40 FFFE                move.w     [A6 - 0x2], D0
00002D90  4A40                     tst.w      D0
00002D92  670A                     beq        +0xC /* 00002D9E */
00002D94  3B6E FFFE FFF8           move.w     [A5 - 0x8], [A6 - 0x2]
00002D9A  70FF                     moveq.l    D0, 0xFFFFFFFF
00002D9C  60C2                     bra        -0x3C /* 00002D60 */
label00002D9E:
00002D9E  2C2E FF8A                move.l     D6, [A6 - 0x76]
00002DA2  4AAE FFAA                tst.l      [A6 - 0x56]
00002DA6  6612                     bne        +0x14 /* 00002DBA */
00002DA8  BCBC 5445 5854           cmp.l      D6, 0x54455854 /* 'TEXT' */
00002DAE  670A                     beq        +0xC /* 00002DBA */
00002DB0  3B7C FFFF FFF8           move.w     [A5 - 0x8], 0xFFFF
00002DB6  70FF                     moveq.l    D0, 0xFFFFFFFF
00002DB8  60A6                     bra        -0x58 /* 00002D60 */
label00002DBA:
00002DBA  BCBC 415A 5443           cmp.l      D6, 0x415A5443 /* 'AZTC' */
00002DC0  670A                     beq        +0xC /* 00002DCC */
00002DC2  BCBC 5445 5854           cmp.l      D6, 0x54455854 /* 'TEXT' */
00002DC8  6600 0144                bne        +0x146 /* 00002F0E */
label00002DCC:
00002DCC  7800                     moveq.l    D4, 0x00
00002DCE  3A04                     move.w     D5, D4
label00002DD0:
00002DD0  48C4                     ext.l      D4
00002DD2  2604                     move.l     D3, D4
00002DD4  E583                     asl        D3, 2
00002DD6  246E 000C                movea.l    A2, [A6 + 0xC]
00002DDA  4AB2 3800                tst.l      [A2 + D3]
00002DDE  671C                     beq        +0x1E /* 00002DFC */
00002DE0  48C4                     ext.l      D4
00002DE2  2604                     move.l     D3, D4
00002DE4  E583                     asl        D3, 2
00002DE6  246E 000C                movea.l    A2, [A6 + 0xC]
00002DEA  2F32 3800                move.l     -[A7], [A2 + D3]
00002DEE  4EAD 02A2                jsr        [A5 + 0x2A2 /* export_80, CODE:0 @ 00000000 */]
00002DF2  584F                     addq.w     A7, 4
00002DF4  5240                     addq.w     D0, 1
00002DF6  DA40                     add.w      D5, D0
00002DF8  5244                     addq.w     D4, 1
00002DFA  60D4                     bra        -0x2A /* 00002DD0 */
label00002DFC:
00002DFC  3605                     move.w     D3, D5
00002DFE  5843                     addq.w     D3, 4
00002E00  3F03                     move.w     -[A7], D3
00002E02  4EBA 014C                jsr        [PC + 0x14C /* 00002F50 */]
00002E06  544F                     addq.w     A7, 2
00002E08  2840                     movea.l    A4, D0
00002E0A  2454                     movea.l    A2, [A4]
00002E0C  3484                     move.w     [A2], D4
00002E0E  2454                     movea.l    A2, [A4]
00002E10  3545 0002                move.w     [A2 + 0x2], D5
00002E14  2654                     movea.l    A3, [A4]
00002E16  588B                     addq.l     A3, 4
00002E18  7800                     moveq.l    D4, 0x00
label00002E1A:
00002E1A  48C4                     ext.l      D4
00002E1C  2604                     move.l     D3, D4
00002E1E  E583                     asl        D3, 2
00002E20  246E 000C                movea.l    A2, [A6 + 0xC]
00002E24  4AB2 3800                tst.l      [A2 + D3]
00002E28  6728                     beq        +0x2A /* 00002E52 */
00002E2A  48C4                     ext.l      D4
00002E2C  2604                     move.l     D3, D4
00002E2E  E583                     asl        D3, 2
00002E30  246E 000C                movea.l    A2, [A6 + 0xC]
00002E34  2F32 3800                move.l     -[A7], [A2 + D3]
00002E38  2F0B                     move.l     -[A7], A3
00002E3A  4EAD 02F2                jsr        [A5 + 0x2F2 /* export_90, CODE:0 @ 00000000 */]
00002E3E  504F                     addq.w     A7, 8
00002E40  2F0B                     move.l     -[A7], A3
00002E42  4EAD 02A2                jsr        [A5 + 0x2A2 /* export_80, CODE:0 @ 00000000 */]
00002E46  584F                     addq.w     A7, 4
00002E48  5240                     addq.w     D0, 1
00002E4A  48C0                     ext.l      D0
00002E4C  D7C0                     add.l      A3, D0
00002E4E  5244                     addq.w     D4, 1
00002E50  60C8                     bra        -0x36 /* 00002E1A */
label00002E52:
00002E52  BCBC 5445 5854           cmp.l      D6, 0x54455854 /* 'TEXT' */
00002E58  6600 00AC                bne        +0xAE /* 00002F06 */
00002E5C  2454                     movea.l    A2, [A4]
00002E5E  426A 0002                clr.w      [A2 + 0x2]
00002E62  2478 0A7C                movea.l    A2, [0x00000A7C]
00002E66  2D6A 0030 FFFA           move.l     [A6 - 0x6], [A2 + 0x30]
00002E6C  2478 0A7C                movea.l    A2, [0x00000A7C]
00002E70  2F0A                     move.l     -[A7], A2
00002E72  3F3C 0010                move.w     -[A7], 0x10
00002E76  4EBA 00D8                jsr        [PC + 0xD8 /* 00002F50 */]
00002E7A  544F                     addq.w     A7, 2
00002E7C  245F                     movea.l    A2, [A7]+
00002E7E  2540 0030                move.l     [A2 + 0x30], D0
00002E82  2478 0A7C                movea.l    A2, [0x00000A7C]
00002E86  226A 0030                movea.l    A1, [A2 + 0x30]
00002E8A  2451                     movea.l    A2, [A1]
00002E8C  24AE FFFA                move.l     [A2], [A6 - 0x6]
00002E90  2478 0A7C                movea.l    A2, [0x00000A7C]
00002E94  226A 0030                movea.l    A1, [A2 + 0x30]
00002E98  2D51 FFFA                move.l     [A6 - 0x6], [A1]
00002E9C  246E FFFA                movea.l    A2, [A6 - 0x6]
00002EA0  2278 0A7C                movea.l    A1, [0x00000A7C]
00002EA4  2569 0034 000C           move.l     [A2 + 0xC], [A1 + 0x34]
00002EAA  2478 0A7C                movea.l    A2, [0x00000A7C]
00002EAE  42AA 0034                clr.l      [A2 + 0x34]
00002EB2  246E FFFA                movea.l    A2, [A6 - 0x6]
00002EB6  254C 0006                move.l     [A2 + 0x6], A4
00002EBA  246E FFFA                movea.l    A2, [A6 - 0x6]
00002EBE  2278 0A7C                movea.l    A1, [0x00000A7C]
00002EC2  3569 0024 000A           move.w     [A2 + 0xA], [A1 + 0x24]
00002EC8  4267                     clr.w      -[A7]
00002ECA  2F2E 0008                move.l     -[A7], [A6 + 0x8]
00002ECE  4EAD 02CA                jsr        [A5 + 0x2CA /* export_85, CODE:0 @ 00000000 */]
00002ED2  5C4F                     addq.w     A7, 6
00002ED4  3800                     move.w     D4, D0
00002ED6  2478 0A7C                movea.l    A2, [0x00000A7C]
00002EDA  226A 0030                movea.l    A1, [A2 + 0x30]
00002EDE  2451                     movea.l    A2, [A1]
00002EE0  48C4                     ext.l      D4
00002EE2  2604                     move.l     D3, D4
00002EE4  E383                     asl        D3, 1
00002EE6  226D F688                movea.l    A1, [A5 - 0x978]
00002EEA  3571 3800 0004           move.w     [A2 + 0x4], [A1 + D3]
00002EF0  48C4                     ext.l      D4
00002EF2  2604                     move.l     D3, D4
00002EF4  E383                     asl        D3, 1
00002EF6  246D F688                movea.l    A2, [A5 - 0x978]
00002EFA  4272 3800                clr.w      [A2 + D3]
00002EFE  4267                     clr.w      -[A7]
00002F00  4EBA 0A3C                jsr        [PC + 0xA3C /* 0000393E */]
00002F04  544F                     addq.w     A7, 2
label00002F06:
00002F06  2478 0A7C                movea.l    A2, [0x00000A7C]
00002F0A  254C 001A                move.l     [A2 + 0x1A], A4
label00002F0E:
00002F0E  4AB8 0AEC                tst.l      [0x00000AEC /* AppParmHandle */]
00002F12  670A                     beq        +0xC /* 00002F1E */
00002F14  2F38 0AEC                move.l     -[A7], [0x00000AEC /* AppParmHandle */]
00002F18  4EBA 0074                jsr        [PC + 0x74 /* 00002F8E */]
00002F1C  584F                     addq.w     A7, 4
label00002F1E:
00002F1E  3F3C 0004                move.w     -[A7], 0x4
00002F22  612C                     bsr        +0x2E /* 00002F50 */
00002F24  544F                     addq.w     A7, 2
00002F26  21C0 0AEC                move.l     [0x00000AEC /* AppParmHandle */], D0
00002F2A  2478 0AEC                movea.l    A2, [0x00000AEC /* AppParmHandle */]
00002F2E  2252                     movea.l    A1, [A2]
00002F30  4291                     clr.l      [A1]
00002F32  4267                     clr.w      -[A7]
00002F34  486E FF6A                pea.l      [A6 - 0x96]
00002F38  4267                     clr.w      -[A7]
00002F3A  4EBA 0078                jsr        [PC + 0x78 /* 00002FB4 */]
00002F3E  301F                     move.w     D0, [A7]+
00002F40  4267                     clr.w      -[A7]
00002F42  486E FFBA                pea.l      [A6 - 0x46]
00002F46  4EBA 0A90                jsr        [PC + 0xA90 /* 000039D8 */]
00002F4A  5C4F                     addq.w     A7, 6
00002F4C  6000 FE12                bra        -0x1EC /* 00002D60 */
fn00002F50:
00002F50  4E56 0000                link       A6, 0
00002F54  2F0B                     move.l     -[A7], A3
00002F56  4EBA 0054                jsr        [PC + 0x54 /* 00002FAC */]
00002F5A  2F00                     move.l     -[A7], D0
00002F5C  4EBA 0044                jsr        [PC + 0x44 /* 00002FA2 */]
00002F60  584F                     addq.w     A7, 4
00002F62  362E 0008                move.w     D3, [A6 + 0x8]
00002F66  48C3                     ext.l      D3
00002F68  2F03                     move.l     -[A7], D3
00002F6A  4EBA 002C                jsr        [PC + 0x2C /* 00002F98 */]
00002F6E  584F                     addq.w     A7, 4
00002F70  2640                     movea.l    A3, D0
00002F72  4EBA 0012                jsr        [PC + 0x12 /* 00002F86 */]
00002F76  2F00                     move.l     -[A7], D0
00002F78  4EBA 0028                jsr        [PC + 0x28 /* 00002FA2 */]
00002F7C  584F                     addq.w     A7, 4
00002F7E  200B                     move.l     D0, A3
00002F80  265F                     movea.l    A3, [A7]+
00002F82  4E5E                     unlink     A6
00002F84  4E75                     rts
fn00002F86:
00002F86  2038 02AA                move.l     D0, [0x000002AA /* ApplZone */]
00002F8A  4EFA 01D2                jmp        [PC + 0x1D2 /* 0000315E */]
fn00002F8E:
00002F8E  206F 0004                movea.l    A0, [A7 + 0x4]
00002F92  A023                     syscall    DisposHandle/DisposeHandle
00002F94  4EFA 01D0                jmp        [PC + 0x1D0 /* 00003166 */]
fn00002F98:
00002F98  202F 0004                move.l     D0, [A7 + 0x4]
00002F9C  A122                     syscall    NewHandle, flags=1
00002F9E  4EFA 01B4                jmp        [PC + 0x1B4 /* 00003154 */]
fn00002FA2:
00002FA2  206F 0004                movea.l    A0, [A7 + 0x4]
00002FA6  A01B                     syscall    SetZone
00002FA8  4EFA 01BC                jmp        [PC + 0x1BC /* 00003166 */]
fn00002FAC:
00002FAC  2038 02A6                move.l     D0, [0x000002A6 /* SysZone */]
00002FB0  4EFA 01AC                jmp        [PC + 0x1AC /* 0000315E */]
fn00002FB4:
00002FB4  225F                     movea.l    A1, [A7]+
00002FB6  301F                     move.w     D0, [A7]+
00002FB8  205F                     movea.l    A0, [A7]+
00002FBA  6604                     bne        +0x6 /* 00002FC0 */
00002FBC  A015                     syscall    SetVol/PBHSetVol/HSetVol
00002FBE  6002                     bra        +0x4 /* 00002FC2 */
label00002FC0:
00002FC0  A415                     syscall    SetVol/PBHSetVol/HSetVol, flags=4
label00002FC2:
00002FC2  3E80                     move.w     [A7], D0
00002FC4  4ED1                     jmp        [A1]
fn00002FC6:
00002FC6  4E56 0000                link       A6, 0
00002FCA  2F04                     move.l     -[A7], D4
00002FCC  4AAD F220                tst.l      [A5 - 0xDE0]
00002FD0  6706                     beq        +0x8 /* 00002FD8 */
00002FD2  246D F220                movea.l    A2, [A5 - 0xDE0]
00002FD6  4E92                     jsr        [A2]
label00002FD8:
00002FD8  7800                     moveq.l    D4, 0x00
label00002FDA:
00002FDA  B87C 000A                cmp.w      D4, 0xA /* '\n' */
00002FDE  6C0C                     bge        +0xE /* 00002FEC */
00002FE0  3F04                     move.w     -[A7], D4
00002FE2  4EAD 02D2                jsr        [A5 + 0x2D2 /* export_86, CODE:0 @ 00000000 */]
00002FE6  544F                     addq.w     A7, 2
00002FE8  5244                     addq.w     D4, 1
00002FEA  60EE                     bra        -0x10 /* 00002FDA */
label00002FEC:
00002FEC  3F2E 0008                move.w     -[A7], [A6 + 0x8]
00002FF0  4EBA 094C                jsr        [PC + 0x94C /* 0000393E */]
00002FF4  544F                     addq.w     A7, 2
00002FF6  281F                     move.l     D4, [A7]+
00002FF8  4E5E                     unlink     A6
00002FFA  4E75                     rts
00002FFC  303C 7FFF                move.w     D0, 0x7FFF
00003000  6004                     bra        +0x6 /* 00003006 */
00003002  302F 000C                move.w     D0, [A7 + 0xC]
label00003006:
00003006  5340                     subq.w     D0, 1
00003008  6B14                     bmi        +0x16 /* 0000301E */
0000300A  206F 0004                movea.l    A0, [A7 + 0x4]
0000300E  226F 0008                movea.l    A1, [A7 + 0x8]
label00003012:
00003012  B109                     cmpm.b     [A0]+, [A1]+
00003014  660C                     bne        +0xE /* 00003022 */
00003016  5388                     subq.l     A0, 1
00003018  4A18                     tst.b      [A0]+
0000301A  57C8 FFF6                dbeq       D0, -0xC /* 00003012 */
label0000301E:
0000301E  4240                     clr.w      D0
00003020  4E75                     rts
label00003022:
00003022  6306                     bls        +0x8 /* 0000302A */
00003024  303C 0001                move.w     D0, 0x1
00003028  4E75                     rts
label0000302A:
0000302A  303C FFFF                move.w     D0, 0xFFFF
0000302E  4E75                     rts
00003030  206F 0004                movea.l    A0, [A7 + 0x4]
00003034  2008                     move.l     D0, A0
label00003036:
00003036  4A18                     tst.b      [A0]+
00003038  66FC                     bne        -0x2 /* 00003036 */
0000303A  91C0                     sub.l      A0, D0
0000303C  2008                     move.l     D0, A0
0000303E  5380                     subq.l     D0, 1
00003040  4E75                     rts
00003042  4E56 0000                link       A6, 0
00003046  42AD F67E                clr.l      [A5 - 0x982]
0000304A  2F2E 0008                move.l     -[A7], [A6 + 0x8]
0000304E  4EBA 00FA                jsr        [PC + 0xFA /* 0000314A */]
00003052  584F                     addq.w     A7, 4
00003054  4E5E                     unlink     A6
00003056  4E75                     rts
fn00003058:
00003058  4E56 0000                link       A6, 0
0000305C  42AD F67E                clr.l      [A5 - 0x982]
00003060  362E 0008                move.w     D3, [A6 + 0x8]
00003064  4843                     swap.w     D3
00003066  4243                     clr.w      D3
00003068  4843                     swap.w     D3
0000306A  2F03                     move.l     -[A7], D3
0000306C  4EBA 00DC                jsr        [PC + 0xDC /* 0000314A */]
00003070  584F                     addq.w     A7, 4
00003072  4E5E                     unlink     A6
00003074  4E75                     rts
fn00003076:
00003076  4E56 0000                link       A6, 0
0000307A  2B6E 0008 F67E           move.l     [A5 - 0x982], [A6 + 0x8]
00003080  2F2E 0008                move.l     -[A7], [A6 + 0x8]
00003084  4EBA 00AC                jsr        [PC + 0xAC /* 00003132 */]
00003088  584F                     addq.w     A7, 4
0000308A  3B40 F682                move.w     [A5 - 0x97E], D0
0000308E  2F2E 0008                move.l     -[A7], [A6 + 0x8]
00003092  4EBA 0094                jsr        [PC + 0x94 /* 00003128 */]
00003096  584F                     addq.w     A7, 4
00003098  4EAD 02C2                jsr        [A5 + 0x2C2 /* export_84, CODE:0 @ 00000000 */]
0000309C  4E5E                     unlink     A6
0000309E  4E75                     rts
000030A0  4E56 0000                link       A6, 0
000030A4  2F0B                     move.l     -[A7], A3
000030A6  246D F67E                movea.l    A2, [A5 - 0x982]
000030AA  B5EE 0008                cmpa.l     A2, [A6 + 0x8]
000030AE  6708                     beq        +0xA /* 000030B8 */
000030B0  2F2E 0008                move.l     -[A7], [A6 + 0x8]
000030B4  61C0                     bsr        -0x3E /* 00003076 */
000030B6  584F                     addq.w     A7, 4
label000030B8:
000030B8  3F2E 000C                move.w     -[A7], [A6 + 0xC]
000030BC  619A                     bsr        -0x64 /* 00003058 */
000030BE  544F                     addq.w     A7, 2
000030C0  2640                     movea.l    A3, D0
000030C2  4A80                     tst.l      D0
000030C4  672A                     beq        +0x2C /* 000030F0 */
000030C6  B7EE 0008                cmpa.l     A3, [A6 + 0x8]
000030CA  6724                     beq        +0x26 /* 000030F0 */
000030CC  362E 000C                move.w     D3, [A6 + 0xC]
000030D0  B66D F682                cmp.w      D3, [A5 - 0x97E]
000030D4  6306                     bls        +0x8 /* 000030DC */
000030D6  362D F682                move.w     D3, [A5 - 0x97E]
000030DA  6004                     bra        +0x6 /* 000030E0 */
label000030DC:
000030DC  362E 000C                move.w     D3, [A6 + 0xC]
label000030E0:
000030E0  3F03                     move.w     -[A7], D3
000030E2  2F0B                     move.l     -[A7], A3
000030E4  2F2E 0008                move.l     -[A7], [A6 + 0x8]
000030E8  4EAD 02BA                jsr        [A5 + 0x2BA /* export_83, CODE:0 @ 00000000 */]
000030EC  DEFC 000A                add.w      A7, 0xA /* '\n' */
label000030F0:
000030F0  200B                     move.l     D0, A3
000030F2  265F                     movea.l    A3, [A7]+
000030F4  4E5E                     unlink     A6
000030F6  4E75                     rts
000030F8  206F 0004                movea.l    A0, [A7 + 0x4]
000030FC  226F 0008                movea.l    A1, [A7 + 0x8]
00003100  302F 000C                move.w     D0, [A7 + 0xC]
00003104  B3C8                     cmpa.l     A1, A0
00003106  6602                     bne        +0x4 /* 0000310A */
00003108  4E75                     rts
label0000310A:
0000310A  6310                     bls        +0x12 /* 0000311C */
0000310C  D0C0                     add.w      A0, D0
0000310E  D2C0                     add.w      A1, D0
00003110  5340                     subq.w     D0, 1
00003112  6B06                     bmi        +0x8 /* 0000311A */
label00003114:
00003114  1320                     move.b     -[A1], -[A0]
00003116  51C8 FFFC                dbf        D0, -0x6 /* 00003114 */
label0000311A:
0000311A  4E75                     rts
label0000311C:
0000311C  5340                     subq.w     D0, 1
0000311E  6BFA                     bmi        -0x4 /* 0000311A */
label00003120:
00003120  12D8                     move.b     [A1]+, [A0]+
00003122  51C8 FFFC                dbf        D0, -0x6 /* 00003120 */
00003126  4E75                     rts
fn00003128:
00003128  206F 0004                movea.l    A0, [A7 + 0x4]
0000312C  A01F                     syscall    DisposPtr/DisposePtr
0000312E  4EFA 0036                jmp        [PC + 0x36 /* 00003166 */]
fn00003132:
00003132  206F 0004                movea.l    A0, [A7 + 0x4]
00003136  A021                     syscall    GetPtrSize
00003138  4A80                     tst.l      D0
0000313A  6A04                     bpl        +0x6 /* 00003140 */
0000313C  4EFA 0030                jmp        [PC + 0x30 /* 0000316E */]
label00003140:
00003140  4EFA 001C                jmp        [PC + 0x1C /* 0000315E */]
00003144  302D FFFA                move.w     D0, [A5 - 0x6]
00003148  4E75                     rts
fn0000314A:
0000314A  202F 0004                move.l     D0, [A7 + 0x4]
0000314E  A11E                     syscall    NewPtr, flags=1
00003150  4EFA 0002                jmp        [PC + 0x2 /* 00003154 */]
label00003154:
00003154  43ED FFFA                lea.l      A1, [A5 - 0x6]
00003158  3280                     move.w     [A1], D0
0000315A  2008                     move.l     D0, A0
0000315C  4E75                     rts
label0000315E:
0000315E  43ED FFFA                lea.l      A1, [A5 - 0x6]
00003162  4251                     clr.w      [A1]
00003164  4E75                     rts
label00003166:
00003166  43ED FFFA                lea.l      A1, [A5 - 0x6]
0000316A  3280                     move.w     [A1], D0
0000316C  4E75                     rts
label0000316E:
0000316E  43ED FFFA                lea.l      A1, [A5 - 0x6]
00003172  3280                     move.w     [A1], D0
00003174  4240                     clr.w      D0
00003176  4E75                     rts
00003178  4E56 0000                link       A6, 0
0000317C  4267                     clr.w      -[A7]
0000317E  3F2E 000C                move.w     -[A7], [A6 + 0xC]
00003182  3F3C 0301                move.w     -[A7], 0x301
00003186  2F2E 0008                move.l     -[A7], [A6 + 0x8]
0000318A  6160                     bsr        +0x62 /* 000031EC */
0000318C  DEFC 000A                add.w      A7, 0xA /* '\n' */
00003190  4E5E                     unlink     A6
00003192  4E75                     rts
00003194  4E56 0000                link       A6, 0
00003198  3F3C 0001                move.w     -[A7], 0x1
0000319C  3F2E 000C                move.w     -[A7], [A6 + 0xC]
000031A0  3F3C 0301                move.w     -[A7], 0x301
000031A4  2F2E 0008                move.l     -[A7], [A6 + 0x8]
000031A8  6142                     bsr        +0x44 /* 000031EC */
000031AA  DEFC 000A                add.w      A7, 0xA /* '\n' */
000031AE  4E5E                     unlink     A6
000031B0  4E75                     rts
000031B2  4E56 0000                link       A6, 0
000031B6  4267                     clr.w      -[A7]
000031B8  3F2E 000E                move.w     -[A7], [A6 + 0xE]
000031BC  3F2E 000C                move.w     -[A7], [A6 + 0xC]
000031C0  2F2E 0008                move.l     -[A7], [A6 + 0x8]
000031C4  6126                     bsr        +0x28 /* 000031EC */
000031C6  DEFC 000A                add.w      A7, 0xA /* '\n' */
000031CA  4E5E                     unlink     A6
000031CC  4E75                     rts
000031CE  4E56 0000                link       A6, 0
000031D2  3F3C 0001                move.w     -[A7], 0x1
000031D6  3F2E 000E                move.w     -[A7], [A6 + 0xE]
000031DA  3F2E 000C                move.w     -[A7], [A6 + 0xC]
000031DE  2F2E 0008                move.l     -[A7], [A6 + 0x8]
000031E2  6108                     bsr        +0xA /* 000031EC */
000031E4  DEFC 000A                add.w      A7, 0xA /* '\n' */
000031E8  4E5E                     unlink     A6
000031EA  4E75                     rts
fn000031EC:
000031EC  4E56 FF6C                link       A6, -0x0094
000031F0  48E7 0F18                movem.l    -[A7], D4,D5,D6,D7,A3,A4
000031F4  266E 0008                movea.l    A3, [A6 + 0x8]
000031F8  286D F688                movea.l    A4, [A5 - 0x978]
000031FC  7A00                     moveq.l    D5, 0x00
label000031FE:
000031FE  BA7C 000A                cmp.w      D5, 0xA /* '\n' */
00003202  6C10                     bge        +0x12 /* 00003214 */
00003204  48C5                     ext.l      D5
00003206  2605                     move.l     D3, D5
00003208  E383                     asl        D3, 1
0000320A  4A74 3800                tst.w      [A4 + D3]
0000320E  670A                     beq        +0xC /* 0000321A */
00003210  5245                     addq.w     D5, 1
00003212  60EA                     bra        -0x14 /* 000031FE */
label00003214:
00003214  7EF8                     moveq.l    D7, 0xFFFFFFF8
00003216  6000 0170                bra        +0x172 /* 00003388 */
label0000321A:
0000321A  1613                     move.b     D3, [A3]
0000321C  4883                     ext.w      D3
0000321E  B67C 002E                cmp.w      D3, 0x2E /* '.' */
00003222  6658                     bne        +0x5A /* 0000327C */
00003224  2F0B                     move.l     -[A7], A3
00003226  486E FF6C                pea.l      [A6 - 0x94]
0000322A  4EAD 02F2                jsr        [A5 + 0x2F2 /* export_90, CODE:0 @ 00000000 */]
0000322E  504F                     addq.w     A7, 8
00003230  48C5                     ext.l      D5
00003232  2605                     move.l     D3, D5
00003234  E383                     asl        D3, 1
00003236  D68C                     add.l      D3, A4
00003238  2F03                     move.l     -[A7], D3
0000323A  486E FF6C                pea.l      [A6 - 0x94]
0000323E  4EAD 031A                jsr        [A5 + 0x31A /* export_95, CODE:0 @ 00000000 */]
00003242  584F                     addq.w     A7, 4
00003244  2F00                     move.l     -[A7], D0
00003246  4EBA 0190                jsr        [PC + 0x190 /* 000033D8 */]
0000324A  504F                     addq.w     A7, 8
0000324C  3800                     move.w     D4, D0
0000324E  48C5                     ext.l      D5
00003250  2605                     move.l     D3, D5
00003252  E383                     asl        D3, 1
00003254  0C74 FFDF 3800           cmpi.w     [A4 + D3], 0xFFDF
0000325A  6F18                     ble        +0x1A /* 00003274 */
0000325C  48C5                     ext.l      D5
0000325E  2605                     move.l     D3, D5
00003260  E383                     asl        D3, 1
00003262  0C74 0000 3800           cmpi.w     [A4 + D3], 0x0
00003268  6C0A                     bge        +0xC /* 00003274 */
0000326A  3005                     move.w     D0, D5
label0000326C:
0000326C  4CDF 18F0                movem.l    D4,D5,D6,D7,A3,A4, [A7]+
00003270  4E5E                     unlink     A6
00003272  4E75                     rts
label00003274:
00003274  3F05                     move.w     -[A7], D5
00003276  4EAD 02D2                jsr        [A5 + 0x2D2 /* export_86, CODE:0 @ 00000000 */]
0000327A  544F                     addq.w     A7, 2
label0000327C:
0000327C  486E FF6C                pea.l      [A6 - 0x94]
00003280  2F0B                     move.l     -[A7], A3
00003282  4EBA 0606                jsr        [PC + 0x606 /* 0000388A */]
00003286  504F                     addq.w     A7, 8
00003288  3D40 FFC2                move.w     [A6 - 0x3E], D0
0000328C  4A40                     tst.w      D0
0000328E  6606                     bne        +0x8 /* 00003296 */
00003290  7EFF                     moveq.l    D7, 0xFFFFFFFF
00003292  6000 00F4                bra        +0xF6 /* 00003388 */
label00003296:
00003296  486E FF6C                pea.l      [A6 - 0x94]
0000329A  4EAD 031A                jsr        [A5 + 0x31A /* export_95, CODE:0 @ 00000000 */]
0000329E  584F                     addq.w     A7, 4
label000032A0:
000032A0  45EE FF6C                lea.l      A2, [A6 - 0x94]
000032A4  2D4A FFBE                move.l     [A6 - 0x42], A2
000032A8  422E FFC6                clr.b      [A6 - 0x3A]
000032AC  362E 000C                move.w     D3, [A6 + 0xC]
000032B0  C67C 0003                and.w      D3, 0x3
000032B4  5243                     addq.w     D3, 1
000032B6  1D43 FFC7                move.b     [A6 - 0x39], D3
000032BA  42AE FFC8                clr.l      [A6 - 0x38]
000032BE  4A6E 0010                tst.w      [A6 + 0x10]
000032C2  6712                     beq        +0x14 /* 000032D6 */
000032C4  4267                     clr.w      -[A7]
000032C6  486E FFAC                pea.l      [A6 - 0x54]
000032CA  4267                     clr.w      -[A7]
000032CC  4EBA 0154                jsr        [PC + 0x154 /* 00003422 */]
000032D0  301F                     move.w     D0, [A7]+
000032D2  3800                     move.w     D4, D0
000032D4  6010                     bra        +0x12 /* 000032E6 */
label000032D6:
000032D6  4267                     clr.w      -[A7]
000032D8  486E FFAC                pea.l      [A6 - 0x54]
000032DC  4267                     clr.w      -[A7]
000032DE  4EBA 0130                jsr        [PC + 0x130 /* 00003410 */]
000032E2  301F                     move.w     D0, [A7]+
000032E4  3800                     move.w     D4, D0
label000032E6:
000032E6  B87C FFD2                cmp.w      D4, 0xFFD2
000032EA  6D0C                     blt        +0xE /* 000032F8 */
000032EC  B87C FFD4                cmp.w      D4, 0xFFD4
000032F0  6E06                     bgt        +0x8 /* 000032F8 */
000032F2  3E04                     move.w     D7, D4
000032F4  6000 0092                bra        +0x94 /* 00003388 */
label000032F8:
000032F8  4A44                     tst.w      D4
000032FA  676E                     beq        +0x70 /* 0000336A */
000032FC  362E 000C                move.w     D3, [A6 + 0xC]
00003300  C67C 0100                and.w      D3, 0x100
00003304  6604                     bne        +0x6 /* 0000330A */
00003306  7EFF                     moveq.l    D7, 0xFFFFFFFF
00003308  607E                     bra        +0x80 /* 00003388 */
label0000330A:
0000330A  4267                     clr.w      -[A7]
0000330C  486E FFAC                pea.l      [A6 - 0x54]
00003310  4267                     clr.w      -[A7]
00003312  4EBA 00EA                jsr        [PC + 0xEA /* 000033FE */]
00003316  301F                     move.w     D0, [A7]+
00003318  3E00                     move.w     D7, D0
0000331A  4A40                     tst.w      D0
0000331C  666A                     bne        +0x6C /* 00003388 */
0000331E  426E FFC8                clr.w      [A6 - 0x38]
00003322  4267                     clr.w      -[A7]
00003324  486E FFAC                pea.l      [A6 - 0x54]
00003328  4267                     clr.w      -[A7]
0000332A  4EBA 04A6                jsr        [PC + 0x4A6 /* 000037D2 */]
0000332E  301F                     move.w     D0, [A7]+
00003330  3E00                     move.w     D7, D0
00003332  4A40                     tst.w      D0
00003334  6652                     bne        +0x54 /* 00003388 */
00003336  2D7C 5445 5854 FFCC      move.l     [A6 - 0x34], 0x54455854 /* 'TEXT' */
0000333E  2D7C 3F3F 3F3F FFD0      move.l     [A6 - 0x30], 0x3F3F3F3F /* '????' */
00003346  3D7C 0100 FFD4           move.w     [A6 - 0x2C], 0x100
0000334C  4267                     clr.w      -[A7]
0000334E  486E FFAC                pea.l      [A6 - 0x54]
00003352  4267                     clr.w      -[A7]
00003354  4EBA 048E                jsr        [PC + 0x48E /* 000037E4 */]
00003358  301F                     move.w     D0, [A7]+
0000335A  3E00                     move.w     D7, D0
0000335C  4A40                     tst.w      D0
0000335E  6628                     bne        +0x2A /* 00003388 */
00003360  026E FAFF 000C           andi.w     [A6 + 0xC], 0xFAFF
00003366  6000 FF38                bra        -0xC6 /* 000032A0 */
label0000336A:
0000336A  362E 000C                move.w     D3, [A6 + 0xC]
0000336E  C67C 0500                and.w      D3, 0x500
00003372  B67C 0500                cmp.w      D3, 0x500
00003376  661A                     bne        +0x1C /* 00003392 */
00003378  4267                     clr.w      -[A7]
0000337A  486E FFAC                pea.l      [A6 - 0x54]
0000337E  4267                     clr.w      -[A7]
00003380  4EBA 0146                jsr        [PC + 0x146 /* 000034C8 */]
00003384  301F                     move.w     D0, [A7]+
00003386  7EFB                     moveq.l    D7, 0xFFFFFFFB
label00003388:
00003388  3B47 FFF8                move.w     [A5 - 0x8], D7
0000338C  70FF                     moveq.l    D0, 0xFFFFFFFF
0000338E  6000 FEDC                bra        -0x122 /* 0000326C */
label00003392:
00003392  362E 000C                move.w     D3, [A6 + 0xC]
00003396  C67C 0200                and.w      D3, 0x200
0000339A  6712                     beq        +0x14 /* 000033AE */
0000339C  42AE FFC8                clr.l      [A6 - 0x38]
000033A0  4267                     clr.w      -[A7]
000033A2  486E FFAC                pea.l      [A6 - 0x54]
000033A6  4267                     clr.w      -[A7]
000033A8  4EBA 008A                jsr        [PC + 0x8A /* 00003434 */]
000033AC  301F                     move.w     D0, [A7]+
label000033AE:
000033AE  48C5                     ext.l      D5
000033B0  2605                     move.l     D3, D5
000033B2  E383                     asl        D3, 1
000033B4  39AE FFC4 3800           move.w     [A4 + D3], [A6 - 0x3C]
000033BA  362E 000C                move.w     D3, [A6 + 0xC]
000033BE  C67C 0800                and.w      D3, 0x800
000033C2  670E                     beq        +0x10 /* 000033D2 */
000033C4  3F3C 0002                move.w     -[A7], 0x2
000033C8  42A7                     clr.l      -[A7]
000033CA  3F05                     move.w     -[A7], D5
000033CC  4EBA 010C                jsr        [PC + 0x10C /* 000034DA */]
000033D0  504F                     addq.w     A7, 8
label000033D2:
000033D2  3005                     move.w     D0, D5
000033D4  6000 FE96                bra        -0x168 /* 0000326C */
fn000033D8:
000033D8  4E56 FFCE                link       A6, -0x0032
000033DC  204F                     movea.l    A0, A7
000033DE  216E 0008 0012           move.l     [A0 + 0x12], [A6 + 0x8]
000033E4  4268 0016                clr.w      [A0 + 0x16]
000033E8  4268 001A                clr.w      [A0 + 0x1A]
000033EC  42A8 001C                clr.l      [A0 + 0x1C]
000033F0  A000                     syscall    Open/PBHOpen/HOpen
000033F2  226E 000C                movea.l    A1, [A6 + 0xC]
000033F6  32A8 0018                move.w     [A1], [A0 + 0x18]
000033FA  4E5E                     unlink     A6
000033FC  4E75                     rts
fn000033FE:
000033FE  225F                     movea.l    A1, [A7]+
00003400  301F                     move.w     D0, [A7]+
00003402  205F                     movea.l    A0, [A7]+
00003404  6604                     bne        +0x6 /* 0000340A */
00003406  A008                     syscall    Create/PBHCreate/HCreate
00003408  6002                     bra        +0x4 /* 0000340C */
label0000340A:
0000340A  A408                     syscall    Create/PBHCreate/HCreate, flags=4
label0000340C:
0000340C  3E80                     move.w     [A7], D0
0000340E  4ED1                     jmp        [A1]
fn00003410:
00003410  225F                     movea.l    A1, [A7]+
00003412  301F                     move.w     D0, [A7]+
00003414  205F                     movea.l    A0, [A7]+
00003416  6604                     bne        +0x6 /* 0000341C */
00003418  A000                     syscall    Open/PBHOpen/HOpen
0000341A  6002                     bra        +0x4 /* 0000341E */
label0000341C:
0000341C  A400                     syscall    Open/PBHOpen/HOpen, flags=4
label0000341E:
0000341E  3E80                     move.w     [A7], D0
00003420  4ED1                     jmp        [A1]
fn00003422:
00003422  225F                     movea.l    A1, [A7]+
00003424  301F                     move.w     D0, [A7]+
00003426  205F                     movea.l    A0, [A7]+
00003428  6604                     bne        +0x6 /* 0000342E */
0000342A  A00A                     syscall    OpenRF/PBHOpenRF/HOpenRF
0000342C  6002                     bra        +0x4 /* 00003430 */
label0000342E:
0000342E  A40A                     syscall    OpenRF/PBHOpenRF/HOpenRF, flags=4
label00003430:
00003430  3E80                     move.w     [A7], D0
00003432  4ED1                     jmp        [A1]
fn00003434:
00003434  225F                     movea.l    A1, [A7]+
00003436  301F                     move.w     D0, [A7]+
00003438  205F                     movea.l    A0, [A7]+
0000343A  6604                     bne        +0x6 /* 00003440 */
0000343C  A012                     syscall    SetEOF
0000343E  6002                     bra        +0x4 /* 00003442 */
label00003440:
00003440  A412                     syscall    SetEOF, flags=4
label00003442:
00003442  3E80                     move.w     [A7], D0
00003444  4ED1                     jmp        [A1]
00003446  4E56 FFB0                link       A6, -0x0050
0000344A  48E7 0E10                movem.l    -[A7], D4,D5,D6,A3
0000344E  382E 0008                move.w     D4, [A6 + 0x8]
00003452  266D F688                movea.l    A3, [A5 - 0x978]
00003456  B87C 0000                cmp.w      D4, 0x0
0000345A  6D06                     blt        +0x8 /* 00003462 */
0000345C  B87C 0009                cmp.w      D4, 0x9 /* '\t' */
00003460  6F10                     ble        +0x12 /* 00003472 */
label00003462:
00003462  3B7C FFFD FFF8           move.w     [A5 - 0x8], 0xFFFD
00003468  70FF                     moveq.l    D0, 0xFFFFFFFF
label0000346A:
0000346A  4CDF 0870                movem.l    D4,D5,D6,A3, [A7]+
0000346E  4E5E                     unlink     A6
00003470  4E75                     rts
label00003472:
00003472  48C4                     ext.l      D4
00003474  2604                     move.l     D3, D4
00003476  E383                     asl        D3, 1
00003478  3A33 3800                move.w     D5, [A3 + D3]
0000347C  4A45                     tst.w      D5
0000347E  672E                     beq        +0x30 /* 000034AE */
00003480  BA6D FFFC                cmp.w      D5, [A5 - 0x4]
00003484  6728                     beq        +0x2A /* 000034AE */
00003486  BA7C FFF7                cmp.w      D5, 0xFFF7
0000348A  6D06                     blt        +0x8 /* 00003492 */
0000348C  BA7C FFFA                cmp.w      D5, 0xFFFA
00003490  6F1C                     ble        +0x1E /* 000034AE */
label00003492:
00003492  48C4                     ext.l      D4
00003494  2604                     move.l     D3, D4
00003496  E383                     asl        D3, 1
00003498  3D73 3800 FFC8           move.w     [A6 - 0x38], [A3 + D3]
0000349E  4267                     clr.w      -[A7]
000034A0  486E FFB0                pea.l      [A6 - 0x50]
000034A4  4267                     clr.w      -[A7]
000034A6  4EBA 0020                jsr        [PC + 0x20 /* 000034C8 */]
000034AA  301F                     move.w     D0, [A7]+
000034AC  3C00                     move.w     D6, D0
label000034AE:
000034AE  48C4                     ext.l      D4
000034B0  2604                     move.l     D3, D4
000034B2  E383                     asl        D3, 1
000034B4  4273 3800                clr.w      [A3 + D3]
000034B8  4A46                     tst.w      D6
000034BA  6708                     beq        +0xA /* 000034C4 */
000034BC  3B46 FFF8                move.w     [A5 - 0x8], D6
000034C0  70FF                     moveq.l    D0, 0xFFFFFFFF
000034C2  60A6                     bra        -0x58 /* 0000346A */
label000034C4:
000034C4  7000                     moveq.l    D0, 0x00
000034C6  60A2                     bra        -0x5C /* 0000346A */
fn000034C8:
000034C8  225F                     movea.l    A1, [A7]+
000034CA  301F                     move.w     D0, [A7]+
000034CC  205F                     movea.l    A0, [A7]+
000034CE  6604                     bne        +0x6 /* 000034D4 */
000034D0  A001                     syscall    Close
000034D2  6002                     bra        +0x4 /* 000034D6 */
label000034D4:
000034D4  A401                     syscall    Close, flags=4
label000034D6:
000034D6  3E80                     move.w     [A7], D0
000034D8  4ED1                     jmp        [A1]
fn000034DA:
000034DA  4E56 FFB0                link       A6, -0x0050
000034DE  48E7 0E10                movem.l    -[A7], D4,D5,D6,A3
000034E2  382E 0008                move.w     D4, [A6 + 0x8]
000034E6  266D F688                movea.l    A3, [A5 - 0x978]
000034EA  B87C 0000                cmp.w      D4, 0x0
000034EE  6D12                     blt        +0x14 /* 00003502 */
000034F0  B87C 0009                cmp.w      D4, 0x9 /* '\t' */
000034F4  6E0C                     bgt        +0xE /* 00003502 */
000034F6  48C4                     ext.l      D4
000034F8  2604                     move.l     D3, D4
000034FA  E383                     asl        D3, 1
000034FC  4A73 3800                tst.w      [A3 + D3]
00003500  6610                     bne        +0x12 /* 00003512 */
label00003502:
00003502  3B7C FFFD FFF8           move.w     [A5 - 0x8], 0xFFFD
00003508  70FF                     moveq.l    D0, 0xFFFFFFFF
label0000350A:
0000350A  4CDF 0870                movem.l    D4,D5,D6,A3, [A7]+
0000350E  4E5E                     unlink     A6
00003510  4E75                     rts
label00003512:
00003512  48C4                     ext.l      D4
00003514  2604                     move.l     D3, D4
00003516  E383                     asl        D3, 1
00003518  0C73 0000 3800           cmpi.w     [A3 + D3], 0x0
0000351E  6C04                     bge        +0x6 /* 00003524 */
00003520  7000                     moveq.l    D0, 0x00
00003522  60E6                     bra        -0x18 /* 0000350A */
label00003524:
00003524  48C4                     ext.l      D4
00003526  2604                     move.l     D3, D4
00003528  E383                     asl        D3, 1
0000352A  3D73 3800 FFC8           move.w     [A6 - 0x38], [A3 + D3]
00003530  362E 000E                move.w     D3, [A6 + 0xE]
00003534  45ED F224                lea.l      A2, [A5 - 0xDDC]
00003538  1432 3000                move.b     D2, [A2 + D3.w]
0000353C  4882                     ext.w      D2
0000353E  3D42 FFDC                move.w     [A6 - 0x24], D2
00003542  2D6E 000A FFDE           move.l     [A6 - 0x22], [A6 + 0xA]
00003548  4267                     clr.w      -[A7]
0000354A  486E FFB0                pea.l      [A6 - 0x50]
0000354E  4267                     clr.w      -[A7]
00003550  4EBA 0038                jsr        [PC + 0x38 /* 0000358A */]
00003554  301F                     move.w     D0, [A7]+
00003556  3C00                     move.w     D6, D0
00003558  4A40                     tst.w      D0
0000355A  6708                     beq        +0xA /* 00003564 */
0000355C  3B46 FFF8                move.w     [A5 - 0x8], D6
00003560  70FF                     moveq.l    D0, 0xFFFFFFFF
00003562  60A6                     bra        -0x58 /* 0000350A */
label00003564:
00003564  4267                     clr.w      -[A7]
00003566  486E FFB0                pea.l      [A6 - 0x50]
0000356A  4267                     clr.w      -[A7]
0000356C  4EBA 000A                jsr        [PC + 0xA /* 00003578 */]
00003570  301F                     move.w     D0, [A7]+
00003572  202E FFDE                move.l     D0, [A6 - 0x22]
00003576  6092                     bra        -0x6C /* 0000350A */
fn00003578:
00003578  225F                     movea.l    A1, [A7]+
0000357A  301F                     move.w     D0, [A7]+
0000357C  205F                     movea.l    A0, [A7]+
0000357E  6604                     bne        +0x6 /* 00003584 */
00003580  A018                     syscall    GetFPos
00003582  6002                     bra        +0x4 /* 00003586 */
label00003584:
00003584  A418                     syscall    GetFPos, flags=4
label00003586:
00003586  3E80                     move.w     [A7], D0
00003588  4ED1                     jmp        [A1]
fn0000358A:
0000358A  225F                     movea.l    A1, [A7]+
0000358C  301F                     move.w     D0, [A7]+
0000358E  205F                     movea.l    A0, [A7]+
00003590  6604                     bne        +0x6 /* 00003596 */
00003592  A044                     syscall    SetFPos
00003594  6002                     bra        +0x4 /* 00003598 */
label00003596:
00003596  A444                     syscall    SetFPos, flags=4
label00003598:
00003598  3E80                     move.w     [A7], D0
0000359A  4ED1                     jmp        [A1]
0000359C  4E56 FFB0                link       A6, -0x0050
000035A0  48E7 0E10                movem.l    -[A7], D4,D5,D6,A3
000035A4  382E 0008                move.w     D4, [A6 + 0x8]
000035A8  266D F688                movea.l    A3, [A5 - 0x978]
000035AC  B87C 0000                cmp.w      D4, 0x0
000035B0  6D12                     blt        +0x14 /* 000035C4 */
000035B2  B87C 0009                cmp.w      D4, 0x9 /* '\t' */
000035B6  6E0C                     bgt        +0xE /* 000035C4 */
000035B8  48C4                     ext.l      D4
000035BA  2604                     move.l     D3, D4
000035BC  E383                     asl        D3, 1
000035BE  4A73 3800                tst.w      [A3 + D3]
000035C2  6610                     bne        +0x12 /* 000035D4 */
label000035C4:
000035C4  3B7C FFFD FFF8           move.w     [A5 - 0x8], 0xFFFD
000035CA  70FF                     moveq.l    D0, 0xFFFFFFFF
label000035CC:
000035CC  4CDF 0870                movem.l    D4,D5,D6,A3, [A7]+
000035D0  4E5E                     unlink     A6
000035D2  4E75                     rts
label000035D4:
000035D4  48C4                     ext.l      D4
000035D6  2604                     move.l     D3, D4
000035D8  E383                     asl        D3, 1
000035DA  3D73 3800 FFC8           move.w     [A6 - 0x38], [A3 + D3]
000035E0  2D6E 000A FFD0           move.l     [A6 - 0x30], [A6 + 0xA]
000035E6  362E 000E                move.w     D3, [A6 + 0xE]
000035EA  48C3                     ext.l      D3
000035EC  2D43 FFD4                move.l     [A6 - 0x2C], D3
000035F0  426E FFDC                clr.w      [A6 - 0x24]
000035F4  4267                     clr.w      -[A7]
000035F6  486E FFB0                pea.l      [A6 - 0x50]
000035FA  4267                     clr.w      -[A7]
000035FC  4EBA 002E                jsr        [PC + 0x2E /* 0000362C */]
00003600  301F                     move.w     D0, [A7]+
00003602  3C00                     move.w     D6, D0
00003604  4A40                     tst.w      D0
00003606  671E                     beq        +0x20 /* 00003626 */
00003608  BC7C FFD9                cmp.w      D6, 0xFFD9
0000360C  6718                     beq        +0x1A /* 00003626 */
0000360E  BC7C FFFE                cmp.w      D6, 0xFFFE
00003612  660A                     bne        +0xC /* 0000361E */
00003614  3F3C 0001                move.w     -[A7], 0x1
00003618  4EBA 0312                jsr        [PC + 0x312 /* 0000392C */]
0000361C  544F                     addq.w     A7, 2
label0000361E:
0000361E  3B46 FFF8                move.w     [A5 - 0x8], D6
00003622  70FF                     moveq.l    D0, 0xFFFFFFFF
00003624  60A6                     bra        -0x58 /* 000035CC */
label00003626:
00003626  202E FFD8                move.l     D0, [A6 - 0x28]
0000362A  60A0                     bra        -0x5E /* 000035CC */
fn0000362C:
0000362C  225F                     movea.l    A1, [A7]+
0000362E  301F                     move.w     D0, [A7]+
00003630  205F                     movea.l    A0, [A7]+
00003632  6604                     bne        +0x6 /* 00003638 */
00003634  A002                     syscall    Read
00003636  6002                     bra        +0x4 /* 0000363A */
label00003638:
00003638  A402                     syscall    Read, flags=4
label0000363A:
0000363A  3E80                     move.w     [A7], D0
0000363C  4ED1                     jmp        [A1]
0000363E  4E56 FF70                link       A6, -0x0090
00003642  48E7 0810                movem.l    -[A7], D4,A3
00003646  246E 000C                movea.l    A2, [A6 + 0xC]
0000364A  4212                     clr.b      [A2]
0000364C  3F3C 003A                move.w     -[A7], 0x3A /* ':' */
00003650  2F2E 0008                move.l     -[A7], [A6 + 0x8]
00003654  4EAD 02E2                jsr        [A5 + 0x2E2 /* export_88, CODE:0 @ 00000000 */]
00003658  5C4F                     addq.w     A7, 6
0000365A  2640                     movea.l    A3, D0
0000365C  4A80                     tst.l      D0
0000365E  6620                     bne        +0x22 /* 00003680 */
00003660  45EE FFC0                lea.l      A2, [A6 - 0x40]
00003664  2D4A FF82                move.l     [A6 - 0x7E], A2
00003668  4267                     clr.w      -[A7]
0000366A  486E FF70                pea.l      [A6 - 0x90]
0000366E  4267                     clr.w      -[A7]
00003670  4EBA 014E                jsr        [PC + 0x14E /* 000037C0 */]
00003674  301F                     move.w     D0, [A7]+
00003676  382E FF86                move.w     D4, [A6 - 0x7A]
0000367A  266E 0008                movea.l    A3, [A6 + 0x8]
0000367E  6022                     bra        +0x24 /* 000036A2 */
label00003680:
00003680  4213                     clr.b      [A3]
00003682  2F2E 0008                move.l     -[A7], [A6 + 0x8]
00003686  612A                     bsr        +0x2C /* 000036B2 */
00003688  584F                     addq.w     A7, 4
0000368A  3800                     move.w     D4, D0
0000368C  244B                     movea.l    A2, A3
0000368E  528B                     addq.l     A3, 1
00003690  14BC 003A                move.b     [A2], 0x3A /* ':' */
00003694  4A44                     tst.w      D4
00003696  660A                     bne        +0xC /* 000036A2 */
00003698  7000                     moveq.l    D0, 0x00
label0000369A:
0000369A  4CDF 0810                movem.l    D4,A3, [A7]+
0000369E  4E5E                     unlink     A6
000036A0  4E75                     rts
label000036A2:
000036A2  2F0B                     move.l     -[A7], A3
000036A4  2F2E 000C                move.l     -[A7], [A6 + 0xC]
000036A8  4EAD 02F2                jsr        [A5 + 0x2F2 /* export_90, CODE:0 @ 00000000 */]
000036AC  504F                     addq.w     A7, 8
000036AE  3004                     move.w     D0, D4
000036B0  60E8                     bra        -0x16 /* 0000369A */
fn000036B2:
000036B2  4E56 FF70                link       A6, -0x0090
000036B6  48E7 0C10                movem.l    -[A7], D4,D5,A3
000036BA  266E 0008                movea.l    A3, [A6 + 0x8]
000036BE  162B 0001                move.b     D3, [A3 + 0x1]
000036C2  4883                     ext.w      D3
000036C4  4A43                     tst.w      D3
000036C6  6658                     bne        +0x5A /* 00003720 */
000036C8  1613                     move.b     D3, [A3]
000036CA  4883                     ext.w      D3
000036CC  B67C 0031                cmp.w      D3, 0x31 /* '1' */
000036D0  6D4E                     blt        +0x50 /* 00003720 */
000036D2  1613                     move.b     D3, [A3]
000036D4  4883                     ext.w      D3
000036D6  B67C 0039                cmp.w      D3, 0x39 /* '9' */
000036DA  6E44                     bgt        +0x46 /* 00003720 */
000036DC  1613                     move.b     D3, [A3]
000036DE  4883                     ext.w      D3
000036E0  967C 0030                sub.w      D3, 0x30 /* '0' */
000036E4  3D43 FFC6                move.w     [A6 - 0x3A], D3
000036E8  45EE FF70                lea.l      A2, [A6 - 0x90]
000036EC  2D4A FFC2                move.l     [A6 - 0x3E], A2
000036F0  422E FF70                clr.b      [A6 - 0x90]
000036F4  426E FFCC                clr.w      [A6 - 0x34]
000036F8  4267                     clr.w      -[A7]
000036FA  486E FFB0                pea.l      [A6 - 0x50]
000036FE  4267                     clr.w      -[A7]
00003700  4EAD 030A                jsr        [A5 + 0x30A /* export_93, CODE:0 @ 00000000 */]
00003704  301F                     move.w     D0, [A7]+
00003706  3A00                     move.w     D5, D0
00003708  4A40                     tst.w      D0
0000370A  670E                     beq        +0x10 /* 0000371A */
0000370C  3B45 FFF8                move.w     [A5 - 0x8], D5
00003710  7000                     moveq.l    D0, 0x00
label00003712:
00003712  4CDF 0830                movem.l    D4,D5,A3, [A7]+
00003716  4E5E                     unlink     A6
00003718  4E75                     rts
label0000371A:
0000371A  302E FFC6                move.w     D0, [A6 - 0x3A]
0000371E  60F2                     bra        -0xC /* 00003712 */
label00003720:
00003720  7801                     moveq.l    D4, 0x01
label00003722:
00003722  3D44 FFCC                move.w     [A6 - 0x34], D4
00003726  45EE FF70                lea.l      A2, [A6 - 0x90]
0000372A  2D4A FFC2                move.l     [A6 - 0x3E], A2
0000372E  422E FF70                clr.b      [A6 - 0x90]
00003732  4267                     clr.w      -[A7]
00003734  486E FFB0                pea.l      [A6 - 0x50]
00003738  4267                     clr.w      -[A7]
0000373A  4EAD 030A                jsr        [A5 + 0x30A /* export_93, CODE:0 @ 00000000 */]
0000373E  301F                     move.w     D0, [A7]+
00003740  4A40                     tst.w      D0
00003742  6620                     bne        +0x22 /* 00003764 */
00003744  2F0B                     move.l     -[A7], A3
00003746  486E FF70                pea.l      [A6 - 0x90]
0000374A  4EAD 032A                jsr        [A5 + 0x32A /* export_97, CODE:0 @ 00000000 */]
0000374E  584F                     addq.w     A7, 4
00003750  2F00                     move.l     -[A7], D0
00003752  611A                     bsr        +0x1C /* 0000376E */
00003754  504F                     addq.w     A7, 8
00003756  4A40                     tst.w      D0
00003758  6606                     bne        +0x8 /* 00003760 */
0000375A  302E FFC6                move.w     D0, [A6 - 0x3A]
0000375E  60B2                     bra        -0x4C /* 00003712 */
label00003760:
00003760  5244                     addq.w     D4, 1
00003762  60BE                     bra        -0x40 /* 00003722 */
label00003764:
00003764  3B7C FFDD FFF8           move.w     [A5 - 0x8], 0xFFDD
0000376A  7000                     moveq.l    D0, 0x00
0000376C  60A4                     bra        -0x5A /* 00003712 */
fn0000376E:
0000376E  4E56 0000                link       A6, 0
00003772  48E7 0818                movem.l    -[A7], D4,A3,A4
00003776  266E 0008                movea.l    A3, [A6 + 0x8]
0000377A  286E 000C                movea.l    A4, [A6 + 0xC]
label0000377E:
0000377E  1613                     move.b     D3, [A3]
00003780  4883                     ext.w      D3
00003782  3F03                     move.w     -[A7], D3
00003784  4EAD 0302                jsr        [A5 + 0x302 /* export_92, CODE:0 @ 00000000 */]
00003788  544F                     addq.w     A7, 2
0000378A  3F00                     move.w     -[A7], D0
0000378C  1614                     move.b     D3, [A4]
0000378E  4883                     ext.w      D3
00003790  3F03                     move.w     -[A7], D3
00003792  4EAD 0302                jsr        [A5 + 0x302 /* export_92, CODE:0 @ 00000000 */]
00003796  544F                     addq.w     A7, 2
00003798  361F                     move.w     D3, [A7]+
0000379A  3803                     move.w     D4, D3
0000379C  9840                     sub.w      D4, D0
0000379E  4A44                     tst.w      D4
000037A0  670A                     beq        +0xC /* 000037AC */
000037A2  3004                     move.w     D0, D4
label000037A4:
000037A4  4CDF 1810                movem.l    D4,A3,A4, [A7]+
000037A8  4E5E                     unlink     A6
000037AA  4E75                     rts
label000037AC:
000037AC  244B                     movea.l    A2, A3
000037AE  528B                     addq.l     A3, 1
000037B0  4A12                     tst.b      [A2]
000037B2  6708                     beq        +0xA /* 000037BC */
000037B4  244C                     movea.l    A2, A4
000037B6  528C                     addq.l     A4, 1
000037B8  4A12                     tst.b      [A2]
000037BA  66C2                     bne        -0x3C /* 0000377E */
label000037BC:
000037BC  7000                     moveq.l    D0, 0x00
000037BE  60E4                     bra        -0x1A /* 000037A4 */
fn000037C0:
000037C0  225F                     movea.l    A1, [A7]+
000037C2  301F                     move.w     D0, [A7]+
000037C4  205F                     movea.l    A0, [A7]+
000037C6  6604                     bne        +0x6 /* 000037CC */
000037C8  A014                     syscall    GetVol/PBHGetVol/HGetVol
000037CA  6002                     bra        +0x4 /* 000037CE */
label000037CC:
000037CC  A414                     syscall    GetVol/PBHGetVol/HGetVol, flags=4
label000037CE:
000037CE  3E80                     move.w     [A7], D0
000037D0  4ED1                     jmp        [A1]
fn000037D2:
000037D2  225F                     movea.l    A1, [A7]+
000037D4  301F                     move.w     D0, [A7]+
000037D6  205F                     movea.l    A0, [A7]+
000037D8  6604                     bne        +0x6 /* 000037DE */
000037DA  A00C                     syscall    GetFileInfo/PBHGetFInfo/HGetFileInfo
000037DC  6002                     bra        +0x4 /* 000037E0 */
label000037DE:
000037DE  A40C                     syscall    GetFileInfo/PBHGetFInfo/HGetFileInfo, flags=4
label000037E0:
000037E0  3E80                     move.w     [A7], D0
000037E2  4ED1                     jmp        [A1]
fn000037E4:
000037E4  225F                     movea.l    A1, [A7]+
000037E6  301F                     move.w     D0, [A7]+
000037E8  205F                     movea.l    A0, [A7]+
000037EA  6604                     bne        +0x6 /* 000037F0 */
000037EC  A00D                     syscall    SetFileInfo/PBHSetFInfo/HSetFileInfo
000037EE  6002                     bra        +0x4 /* 000037F2 */
label000037F0:
000037F0  A40D                     syscall    SetFileInfo/PBHSetFInfo/HSetFileInfo, flags=4
label000037F2:
000037F2  3E80                     move.w     [A7], D0
000037F4  4ED1                     jmp        [A1]
000037F6  206F 0004                movea.l    A0, [A7 + 0x4]
000037FA  302F 0008                move.w     D0, [A7 + 0x8]
label000037FE:
000037FE  1218                     move.b     D1, [A0]+
00003800  670A                     beq        +0xC /* 0000380C */
00003802  B200                     cmp.b      D1, D0
00003804  66F8                     bne        -0x6 /* 000037FE */
00003806  2008                     move.l     D0, A0
00003808  5380                     subq.l     D0, 1
0000380A  4E75                     rts
label0000380C:
0000380C  4280                     clr.l      D0
0000380E  4E75                     rts
00003810  303C 7FFF                move.w     D0, 0x7FFF
00003814  6004                     bra        +0x6 /* 0000381A */
00003816  302F 000C                move.w     D0, [A7 + 0xC]
label0000381A:
0000381A  206F 0004                movea.l    A0, [A7 + 0x4]
label0000381E:
0000381E  4A18                     tst.b      [A0]+
00003820  66FC                     bne        -0x2 /* 0000381E */
00003822  5388                     subq.l     A0, 1
00003824  226F 0008                movea.l    A1, [A7 + 0x8]
label00003828:
00003828  10D9                     move.b     [A0]+, [A1]+
0000382A  57C8 FFFC                dbeq       D0, -0x6 /* 00003828 */
0000382E  202F 0004                move.l     D0, [A7 + 0x4]
00003832  4E75                     rts
00003834  206F 0004                movea.l    A0, [A7 + 0x4]
00003838  2008                     move.l     D0, A0
0000383A  226F 0008                movea.l    A1, [A7 + 0x8]
label0000383E:
0000383E  10D9                     move.b     [A0]+, [A1]+
00003840  66FC                     bne        -0x2 /* 0000383E */
00003842  4E75                     rts
00003844  302F 0004                move.w     D0, [A7 + 0x4]
00003848  C07C 00FF                and.w      D0, 0xFF
0000384C  B03C 0060                cmp.b      D0, 0x60 /* '`' */
00003850  630A                     bls        +0xC /* 0000385C */
00003852  B03C 007A                cmp.b      D0, 0x7A /* 'z' */
00003856  6204                     bhi        +0x6 /* 0000385C */
00003858  903C 0020                sub.b      D0, 0x20 /* ' ' */
label0000385C:
0000385C  4E75                     rts
0000385E  302F 0004                move.w     D0, [A7 + 0x4]
00003862  C07C 00FF                and.w      D0, 0xFF
00003866  B03C 0040                cmp.b      D0, 0x40 /* '@' */
0000386A  630A                     bls        +0xC /* 00003876 */
0000386C  B03C 005A                cmp.b      D0, 0x5A /* 'Z' */
00003870  6204                     bhi        +0x6 /* 00003876 */
00003872  D03C 0020                add.b      D0, 0x20 /* ' ' */
label00003876:
00003876  4E75                     rts
00003878  225F                     movea.l    A1, [A7]+
0000387A  301F                     move.w     D0, [A7]+
0000387C  205F                     movea.l    A0, [A7]+
0000387E  6604                     bne        +0x6 /* 00003884 */
00003880  A007                     syscall    GetVolInfo/PBHGetVInfo/HGetVInfo
00003882  6002                     bra        +0x4 /* 00003886 */
label00003884:
00003884  A407                     syscall    GetVolInfo/PBHGetVInfo/HGetVInfo, flags=4
label00003886:
00003886  3E80                     move.w     [A7], D0
00003888  4ED1                     jmp        [A1]
fn0000388A:
0000388A  206D F684                movea.l    A0, [A5 - 0x97C]
0000388E  4ED0                     jmp        [A0]
00003890  4E56 FFB0                link       A6, -0x0050
00003894  48E7 0C10                movem.l    -[A7], D4,D5,A3
00003898  382E 0008                move.w     D4, [A6 + 0x8]
0000389C  266D F688                movea.l    A3, [A5 - 0x978]
000038A0  B87C 0000                cmp.w      D4, 0x0
000038A4  6D12                     blt        +0x14 /* 000038B8 */
000038A6  B87C 0009                cmp.w      D4, 0x9 /* '\t' */
000038AA  6E0C                     bgt        +0xE /* 000038B8 */
000038AC  48C4                     ext.l      D4
000038AE  2604                     move.l     D3, D4
000038B0  E383                     asl        D3, 1
000038B2  4A73 3800                tst.w      [A3 + D3]
000038B6  6610                     bne        +0x12 /* 000038C8 */
label000038B8:
000038B8  3B7C FFFD FFF8           move.w     [A5 - 0x8], 0xFFFD
000038BE  70FF                     moveq.l    D0, 0xFFFFFFFF
label000038C0:
000038C0  4CDF 0830                movem.l    D4,D5,A3, [A7]+
000038C4  4E5E                     unlink     A6
000038C6  4E75                     rts
label000038C8:
000038C8  48C4                     ext.l      D4
000038CA  2604                     move.l     D3, D4
000038CC  E383                     asl        D3, 1
000038CE  3D73 3800 FFC8           move.w     [A6 - 0x38], [A3 + D3]
000038D4  2D6E 000A FFD0           move.l     [A6 - 0x30], [A6 + 0xA]
000038DA  362E 000E                move.w     D3, [A6 + 0xE]
000038DE  48C3                     ext.l      D3
000038E0  2D43 FFD4                move.l     [A6 - 0x2C], D3
000038E4  426E FFDC                clr.w      [A6 - 0x24]
000038E8  4267                     clr.w      -[A7]
000038EA  486E FFB0                pea.l      [A6 - 0x50]
000038EE  4267                     clr.w      -[A7]
000038F0  4EBA 0028                jsr        [PC + 0x28 /* 0000391A */]
000038F4  301F                     move.w     D0, [A7]+
000038F6  3A00                     move.w     D5, D0
000038F8  4A40                     tst.w      D0
000038FA  6718                     beq        +0x1A /* 00003914 */
000038FC  BA7C FFFE                cmp.w      D5, 0xFFFE
00003900  660A                     bne        +0xC /* 0000390C */
00003902  3F3C 0001                move.w     -[A7], 0x1
00003906  4EBA 0024                jsr        [PC + 0x24 /* 0000392C */]
0000390A  544F                     addq.w     A7, 2
label0000390C:
0000390C  3B45 FFF8                move.w     [A5 - 0x8], D5
00003910  70FF                     moveq.l    D0, 0xFFFFFFFF
00003912  60AC                     bra        -0x52 /* 000038C0 */
label00003914:
00003914  202E FFD8                move.l     D0, [A6 - 0x28]
00003918  60A6                     bra        -0x58 /* 000038C0 */
fn0000391A:
0000391A  225F                     movea.l    A1, [A7]+
0000391C  301F                     move.w     D0, [A7]+
0000391E  205F                     movea.l    A0, [A7]+
00003920  6604                     bne        +0x6 /* 00003926 */
00003922  A003                     syscall    Write
00003924  6002                     bra        +0x4 /* 00003928 */
label00003926:
00003926  A403                     syscall    Write, flags=4
label00003928:
00003928  3E80                     move.w     [A7], D0
0000392A  4ED1                     jmp        [A1]
fn0000392C:
0000392C  4E56 0000                link       A6, 0
00003930  3F2E 0008                move.w     -[A7], [A6 + 0x8]
00003934  4EBA 0008                jsr        [PC + 0x8 /* 0000393E */]
00003938  544F                     addq.w     A7, 2
0000393A  4E5E                     unlink     A6
0000393C  4E75                     rts
fn0000393E:
0000393E  4A2D FFFE                tst.b      [A5 - 0x2]
00003942  670A                     beq        +0xC /* 0000394E */
00003944  2078 0A7C                movea.l    A0, [0x00000A7C]
00003948  316F 0004 0018           move.w     [A0 + 0x18], [A7 + 0x4]
label0000394E:
0000394E  A9F4                     syscall    ExitToShell
fn00003950:
00003950  226F 0008                movea.l    A1, [A7 + 0x8]
00003954  4251                     clr.w      [A1]
00003956  2078 0AEC                movea.l    A0, [0x00000AEC /* AppParmHandle */]
0000395A  A025                     syscall    GetHandleSize
0000395C  6F0E                     ble        +0x10 /* 0000396C */
0000395E  2050                     movea.l    A0, [A0]
00003960  226F 0004                movea.l    A1, [A7 + 0x4]
00003964  3298                     move.w     [A1], [A0]+
00003966  226F 0008                movea.l    A1, [A7 + 0x8]
0000396A  3290                     move.w     [A1], [A0]
label0000396C:
0000396C  4E75                     rts
0000396E  206F 0004                movea.l    A0, [A7 + 0x4]
00003972  2248                     movea.l    A1, A0
00003974  103C 0000                move.b     D0, 0x0
label00003978:
00003978  1210                     move.b     D1, [A0]
0000397A  10C0                     move.b     [A0]+, D0
0000397C  1001                     move.b     D0, D1
0000397E  66F8                     bne        -0x6 /* 00003978 */
00003980  5348                     subq.w     A0, 1
00003982  91C9                     sub.l      A0, A1
00003984  2008                     move.l     D0, A0
00003986  1280                     move.b     [A1], D0
00003988  2009                     move.l     D0, A1
0000398A  4E75                     rts
0000398C  202F 0004                move.l     D0, [A7 + 0x4]
00003990  4840                     swap.w     D0
00003992  A032                     syscall    FlushEvents
00003994  4E75                     rts
fn00003996:
00003996  2F0B                     move.l     -[A7], A3
00003998  226F 000A                movea.l    A1, [A7 + 0xA]
0000399C  42A9 0002                clr.l      [A1 + 0x2]
000039A0  2078 0AEC                movea.l    A0, [0x00000AEC /* AppParmHandle */]
000039A4  A025                     syscall    GetHandleSize
000039A6  6F26                     ble        +0x28 /* 000039CE */
000039A8  2450                     movea.l    A2, [A0]
000039AA  544A                     addq.w     A2, 2
000039AC  322F 0008                move.w     D1, [A7 + 0x8]
000039B0  B25A                     cmp.w      D1, [A2]+
000039B2  6E1A                     bgt        +0x1C /* 000039CE */
000039B4  5341                     subq.w     D1, 1
label000039B6:
000039B6  6D16                     blt        +0x18 /* 000039CE */
000039B8  204A                     movea.l    A0, A2
000039BA  7002                     moveq.l    D0, 0x02
000039BC  D028 0008                add.b      D0, [A0 + 0x8]
000039C0  C07C FFFE                and.w      D0, 0xFFFE
000039C4  5040                     addq.w     D0, 8
000039C6  D4C0                     add.w      A2, D0
000039C8  A02E                     syscall    BlockMove/BlockMoveData
000039CA  5341                     subq.w     D1, 1
000039CC  60E8                     bra        -0x16 /* 000039B6 */
label000039CE:
000039CE  265F                     movea.l    A3, [A7]+
000039D0  4E75                     rts
fn000039D2:
000039D2  2038 02F0                move.l     D0, [0x000002F0 /* DoubleTime */]
000039D6  4E75                     rts
fn000039D8:
000039D8  41EF 0004                lea.l      A0, [A7 + 0x4]
000039DC  A9F2                     syscall    Launch/LaunchApplication
000039DE  206F 0004                movea.l    A0, [A7 + 0x4]
000039E2  2248                     movea.l    A1, A0
000039E4  2008                     move.l     D0, A0
000039E6  4241                     clr.w      D1
000039E8  1219                     move.b     D1, [A1]+
000039EA  6002                     bra        +0x4 /* 000039EE */
label000039EC:
000039EC  10D9                     move.b     [A0]+, [A1]+
label000039EE:
000039EE  51C9 FFFC                dbf        D1, -0x6 /* 000039EC */
000039F2  4210                     clr.b      [A0]
000039F4  4E75                     rts
