# near model CODE resource
# jump table entries: 35016-35090 (75 of them)
export_352:
00000000  4E56 0000                link       A6, 0
00000004  2F07                     move.l     -[A7], D7
00000006  2F3C 0000 1440           move.l     -[A7], 0x1440
0000000C  7000                     moveq.l    D0, 0x00
0000000E  102D F523                move.b     D0, [A5 - 0xADD]
00000012  3F00                     move.w     -[A7], D0
00000014  3F3C 0001                move.w     -[A7], 0x1
00000018  70FF                     moveq.l    D0, 0xFFFFFFFF
0000001A  D06D B112                add.w      D0, [A5 - 0x4EEE]
0000001E  3F00                     move.w     -[A7], D0
00000020  4EBA 3442                jsr        [PC + 0x3442 /* 00003464 */]
00000024  3F2D F52A                move.w     -[A7], [A5 - 0xAD6]
00000028  4EAD 0642                jsr        [A5 + 0x642 /* export_196, CODE:3 @ 00003318 */]
0000002C  5240                     addq.w     D0, 1
0000002E  548F                     addq.l     A7, 2
00000030  6700 02EE                beq        +0x2F0 /* 00000320 */
00000034  0C6E 0040 0008           cmpi.w     [A6 + 0x8], 0x40 /* '@' */
0000003A  6700 02E4                beq        +0x2E6 /* 00000320 */
0000003E  7000                     moveq.l    D0, 0x00
00000040  102D F523                move.b     D0, [A5 - 0xADD]
00000044  3F00                     move.w     -[A7], D0
00000046  3F3C 0006                move.w     -[A7], 0x6
0000004A  4EAD 03E2                jsr        [A5 + 0x3E2 /* export_120, CODE:2 @ 00003CEE */]
0000004E  2B40 AA20                move.l     [A5 - 0x55E0], D0
00000052  701D                     moveq.l    D0, 0x1D
00000054  D1AD AA20                add.l      [A5 - 0x55E0], D0
00000058  206D AA20                movea.l    A0, [A5 - 0x55E0]
0000005C  1B50 AA3A                move.b     [A5 - 0x55C6], [A0]
00000060  1B6D AA3A AA3B           move.b     [A5 - 0x55C5], [A5 - 0x55C6]
00000066  7008                     moveq.l    D0, 0x08
00000068  902D AA3B                sub.b      D0, [A5 - 0x55C5]
0000006C  1B40 AA3C                move.b     [A5 - 0x55C4], D0
00000070  72FF                     moveq.l    D1, 0xFFFFFFFF
00000072  E129                     lsl        D1.b, D0
00000074  0201 00FF                andi.b     D1, 0xFF
00000078  1B41 AA3D                move.b     [A5 - 0x55C3], D1
0000007C  1B6D F532 EAA7           move.b     [A5 - 0x1559], [A5 - 0xACE]
00000082  342E 0008                move.w     D2, [A6 + 0x8]
00000086  E54A                     lsl        D2.w, 2
00000088  7000                     moveq.l    D0, 0x00
0000008A  3002                     move.w     D0, D2
0000008C  4870 0804                pea.l      [A0 + D0 + 0x4]
00000090  4EAD 0BFA                jsr        [A5 + 0xBFA /* export_379, CODE:6 @ 00000076 */]
00000094  2B40 AA28                move.l     [A5 - 0x55D8], D0
00000098  4A80                     tst.l      D0
0000009A  508F                     addq.l     A7, 8
0000009C  6700 0282                beq        +0x284 /* 00000320 */
000000A0  206D AA20                movea.l    A0, [A5 - 0x55E0]
000000A4  D1ED AA28                add.l      A0, [A5 - 0x55D8]
000000A8  2B48 AA24                move.l     [A5 - 0x55DC], A0
000000AC  7000                     moveq.l    D0, 0x00
000000AE  1010                     move.b     D0, [A0]
000000B0  3B40 AA34                move.w     [A5 - 0x55CC], D0
000000B4  1B68 0001 AA36           move.b     [A5 - 0x55CA], [A0 + 0x1]
000000BA  4A2D F53E                tst.b      [A5 - 0xAC2]
000000BE  6710                     beq        +0x12 /* 000000D0 */
000000C0  426D F536                clr.w      [A5 - 0xACA]
000000C4  426D F53A                clr.w      [A5 - 0xAC6]
000000C8  426D F538                clr.w      [A5 - 0xAC8]
000000CC  426D F53C                clr.w      [A5 - 0xAC4]
label000000D0:
000000D0  4A2D F53F                tst.b      [A5 - 0xAC1]
000000D4  6706                     beq        +0x8 /* 000000DC */
000000D6  426D AA3E                clr.w      [A5 - 0x55C2]
000000DA  6020                     bra        +0x22 /* 000000FC */
label000000DC:
000000DC  206D AA24                movea.l    A0, [A5 - 0x55DC]
000000E0  1E28 0002                move.b     D7, [A0 + 0x2]
000000E4  0C07 0080                cmpi.b     D7, 0x80
000000E8  6406                     bcc        +0x8 /* 000000F0 */
000000EA  7000                     moveq.l    D0, 0x00
000000EC  1007                     move.b     D0, D7
000000EE  6008                     bra        +0xA /* 000000F8 */
label000000F0:
000000F0  7000                     moveq.l    D0, 0x00
000000F2  1007                     move.b     D0, D7
000000F4  0640 FF00                addi.w     D0, 0xFF00
label000000F8:
000000F8  3B40 AA3E                move.w     [A5 - 0x55C2], D0
label000000FC:
000000FC  206D AA24                movea.l    A0, [A5 - 0x55DC]
00000100  1E28 0003                move.b     D7, [A0 + 0x3]
00000104  0C07 0080                cmpi.b     D7, 0x80
00000108  6406                     bcc        +0x8 /* 00000110 */
0000010A  7000                     moveq.l    D0, 0x00
0000010C  1007                     move.b     D0, D7
0000010E  6008                     bra        +0xA /* 00000118 */
label00000110:
00000110  7000                     moveq.l    D0, 0x00
00000112  1007                     move.b     D0, D7
00000114  0640 FF00                addi.w     D0, 0xFF00
label00000118:
00000118  3B40 AA40                move.w     [A5 - 0x55C0], D0
0000011C  322D AA3E                move.w     D1, [A5 - 0x55C2]
00000120  D36D F528                add.w      [A5 - 0xAD8], D1
00000124  D16D F52A                add.w      [A5 - 0xAD6], D0
00000128  342D F528                move.w     D2, [A5 - 0xAD8]
0000012C  D46D AA34                add.w      D2, [A5 - 0x55CC]
00000130  7001                     moveq.l    D0, 0x01
00000132  D06D F534                add.w      D0, [A5 - 0xACC]
00000136  B042                     cmp.w      D0, D2
00000138  6C14                     bge        +0x16 /* 0000014E */
0000013A  302D AA34                move.w     D0, [A5 - 0x55CC]
0000013E  D16D F528                add.w      [A5 - 0xAD8], D0
00000142  322D AA40                move.w     D1, [A5 - 0x55C0]
00000146  936D F52A                sub.w      [A5 - 0xAD6], D1
0000014A  6000 01D4                bra        +0x1D6 /* 00000320 */
label0000014E:
0000014E  4A6D F528                tst.w      [A5 - 0xAD8]
00000152  6C14                     bge        +0x16 /* 00000168 */
00000154  302D AA34                move.w     D0, [A5 - 0x55CC]
00000158  D16D F528                add.w      [A5 - 0xAD8], D0
0000015C  322D AA40                move.w     D1, [A5 - 0x55C0]
00000160  936D F52A                sub.w      [A5 - 0xAD6], D1
00000164  6000 01BA                bra        +0x1BC /* 00000320 */
label00000168:
00000168  4A2D F53F                tst.b      [A5 - 0xAC1]
0000016C  6704                     beq        +0x6 /* 00000172 */
0000016E  422D F53F                clr.b      [A5 - 0xAC1]
label00000172:
00000172  4A2D F53E                tst.b      [A5 - 0xAC2]
00000176  671C                     beq        +0x1E /* 00000194 */
00000178  3B6D F528 F536           move.w     [A5 - 0xACA], [A5 - 0xAD8]
0000017E  3B6D F52A F53A           move.w     [A5 - 0xAC6], [A5 - 0xAD6]
00000184  3B6D F528 F538           move.w     [A5 - 0xAC8], [A5 - 0xAD8]
0000018A  3B6D F52A F53C           move.w     [A5 - 0xAC4], [A5 - 0xAD6]
00000190  422D F53E                clr.b      [A5 - 0xAC2]
label00000194:
00000194  302D F528                move.w     D0, [A5 - 0xAD8]
00000198  B06D F536                cmp.w      D0, [A5 - 0xACA]
0000019C  6C06                     bge        +0x8 /* 000001A4 */
0000019E  3B6D F528 F536           move.w     [A5 - 0xACA], [A5 - 0xAD8]
label000001A4:
000001A4  302D F52A                move.w     D0, [A5 - 0xAD6]
000001A8  B06D F53A                cmp.w      D0, [A5 - 0xAC6]
000001AC  6C06                     bge        +0x8 /* 000001B4 */
000001AE  3B6D F52A F53A           move.w     [A5 - 0xAC6], [A5 - 0xAD6]
label000001B4:
000001B4  7060                     moveq.l    D0, 0x60
000001B6  C0ED F286                mulu.w     D0, [A5 - 0xD7A]
000001BA  322D F52A                move.w     D1, [A5 - 0xAD6]
000001BE  9275 0920 F28C           sub.w      D1, [A5 - 0xD74 + D0]
000001C4  3B41 AA30                move.w     [A5 - 0x55D0], D1
000001C8  7000                     moveq.l    D0, 0x00
000001CA  102D AA36                move.b     D0, [A5 - 0x55CA]
000001CE  D240                     add.w      D1, D0
000001D0  D26D AA40                add.w      D1, [A5 - 0x55C0]
000001D4  3B41 AA32                move.w     [A5 - 0x55CE], D1
000001D8  4267                     clr.w      -[A7]
000001DA  3F01                     move.w     -[A7], D1
000001DC  3F2D AA30                move.w     -[A7], [A5 - 0x55D0]
000001E0  302D F528                move.w     D0, [A5 - 0xAD8]
000001E4  D06D AA34                add.w      D0, [A5 - 0x55CC]
000001E8  3F00                     move.w     -[A7], D0
000001EA  3F2D F528                move.w     -[A7], [A5 - 0xAD8]
000001EE  3F2D F286                move.w     -[A7], [A5 - 0xD7A]
000001F2  4EAD 04FA                jsr        [A5 + 0x4FA /* export_155, CODE:3 @ 00000406 */]
000001F6  4A6D F286                tst.w      [A5 - 0xD7A]
000001FA  4FEF 000C                lea.l      A7, [A7 + 0xC]
000001FE  6606                     bne        +0x8 /* 00000206 */
00000200  3B7C 0001 F40A           move.w     [A5 - 0xBF6], 0x1
label00000206:
00000206  7001                     moveq.l    D0, 0x01
00000208  D06D F286                add.w      D0, [A5 - 0xD7A]
0000020C  3F00                     move.w     -[A7], D0
0000020E  3F3C 000A                move.w     -[A7], 0xA /* '\n' */
00000212  4EAD 03E2                jsr        [A5 + 0x3E2 /* export_120, CODE:2 @ 00003CEE */]
00000216  7E00                     moveq.l    D7, 0x00
00000218  3E2D AA30                move.w     D7, [A5 - 0x55D0]
0000021C  7260                     moveq.l    D1, 0x60
0000021E  C2ED F286                mulu.w     D1, [A5 - 0xD7A]
00000222  7400                     moveq.l    D2, 0x00
00000224  3435 1920 F296           move.w     D2, [A5 - 0xD6A + D1]
0000022A  D082                     add.l      D0, D2
0000022C  2207                     move.l     D1, D7
0000022E  E589                     lsl        D1, 2
00000230  D287                     add.l      D1, D7
00000232  ED89                     lsl        D1, 6
00000234  306D F528                movea.w    A0, [A5 - 0xAD8]
00000238  D288                     add.l      D1, A0
0000023A  D081                     add.l      D0, D1
0000023C  2B40 EF3E                move.l     [A5 - 0x10C2], D0
00000240  7205                     moveq.l    D1, 0x05
00000242  D26D F286                add.w      D1, [A5 - 0xD7A]
00000246  3E81                     move.w     [A7], D1
00000248  3F3C 000A                move.w     -[A7], 0xA /* '\n' */
0000024C  4EAD 03E2                jsr        [A5 + 0x3E2 /* export_120, CODE:2 @ 00003CEE */]
00000250  7E00                     moveq.l    D7, 0x00
00000252  3E2D AA30                move.w     D7, [A5 - 0x55D0]
00000256  7260                     moveq.l    D1, 0x60
00000258  C2ED F286                mulu.w     D1, [A5 - 0xD7A]
0000025C  7400                     moveq.l    D2, 0x00
0000025E  3435 1920 F296           move.w     D2, [A5 - 0xD6A + D1]
00000264  D082                     add.l      D0, D2
00000266  2207                     move.l     D1, D7
00000268  E589                     lsl        D1, 2
0000026A  D287                     add.l      D1, D7
0000026C  ED89                     lsl        D1, 6
0000026E  306D F528                movea.w    A0, [A5 - 0xAD8]
00000272  D288                     add.l      D1, A0
00000274  D081                     add.l      D0, D1
00000276  2B40 EF3A                move.l     [A5 - 0x10C6], D0
0000027A  2EBC 000A 0009           move.l     [A7], 0xA0009 /* '\n\0\t' */
00000280  4EAD 03E2                jsr        [A5 + 0x3E2 /* export_120, CODE:2 @ 00003CEE */]
00000284  306D F528                movea.w    A0, [A5 - 0xAD8]
00000288  2208                     move.l     D1, A0
0000028A  83FC 0008                divs.w     D1, 0x8
0000028E  306D ECA2                movea.w    A0, [A5 - 0x135E]
00000292  D088                     add.l      D0, A0
00000294  3041                     movea.w    A0, D1
00000296  322D AA30                move.w     D1, [A5 - 0x55D0]
0000029A  E549                     lsl        D1.w, 2
0000029C  D26D AA30                add.w      D1, [A5 - 0x55D0]
000002A0  E749                     lsl        D1.w, 3
000002A2  7400                     moveq.l    D2, 0x00
000002A4  3401                     move.w     D2, D1
000002A6  D088                     add.l      D0, A0
000002A8  D082                     add.l      D0, D2
000002AA  2B40 EF46                move.l     [A5 - 0x10BA], D0
000002AE  7207                     moveq.l    D1, 0x07
000002B0  C26D F528                and.w      D1, [A5 - 0xAD8]
000002B4  1B75 1120 A8E2 AA38      move.b     [A5 - 0x55C8], [A5 - 0x571E + D1]
000002BC  7260                     moveq.l    D1, 0x60
000002BE  C2ED F286                mulu.w     D1, [A5 - 0xD7A]
000002C2  3B75 1920 F290 AA2C      move.w     [A5 - 0x55D4], [A5 - 0xD70 + D1]
000002CA  58AD AA24                addq.l     [A5 - 0x55DC], 4
000002CE  206D AA24                movea.l    A0, [A5 - 0x55DC]
000002D2  52AD AA24                addq.l     [A5 - 0x55DC], 1
000002D6  7200                     moveq.l    D1, 0x00
000002D8  1210                     move.b     D1, [A0]
000002DA  3B41 AA1C                move.w     [A5 - 0x55E4], D1
000002DE  3B7C 0008 AA16           move.w     [A5 - 0x55EA], 0x8
000002E4  4EBA 0040                jsr        [PC + 0x40 /* 00000326 */]
000002E8  302D AA34                move.w     D0, [A5 - 0x55CC]
000002EC  D16D F528                add.w      [A5 - 0xAD8], D0
000002F0  322D F528                move.w     D1, [A5 - 0xAD8]
000002F4  B26D F538                cmp.w      D1, [A5 - 0xAC8]
000002F8  5C8F                     addq.l     A7, 6
000002FA  6F06                     ble        +0x8 /* 00000302 */
000002FC  3B6D F528 F538           move.w     [A5 - 0xAC8], [A5 - 0xAD8]
label00000302:
00000302  7000                     moveq.l    D0, 0x00
00000304  102D AA36                move.b     D0, [A5 - 0x55CA]
00000308  D06D F52A                add.w      D0, [A5 - 0xAD6]
0000030C  3E00                     move.w     D7, D0
0000030E  BE6D F53C                cmp.w      D7, [A5 - 0xAC4]
00000312  6F04                     ble        +0x6 /* 00000318 */
00000314  3B47 F53C                move.w     [A5 - 0xAC4], D7
label00000318:
00000318  302D AA40                move.w     D0, [A5 - 0x55C0]
0000031C  916D F52A                sub.w      [A5 - 0xAD6], D0
label00000320:
00000320  2E1F                     move.l     D7, [A7]+
00000322  4E5E                     unlink     A6
00000324  4E75                     rts
fn00000326:
00000326  2F0C                     move.l     -[A7], A4
00000328  286D EF3E                movea.l    A4, [A5 - 0x10C2]
0000032C  426D AA1A                clr.w      [A5 - 0x55E6]
00000330  6000 00DA                bra        +0xDC /* 0000040C */
label00000334:
00000334  302D AA30                move.w     D0, [A5 - 0x55D0]
00000338  D06D AA1A                add.w      D0, [A5 - 0x55E6]
0000033C  B06D AA2C                cmp.w      D0, [A5 - 0x55D4]
00000340  6400 00C6                bcc        +0xC8 /* 00000408 */
00000344  1B6D AA38 AA37           move.b     [A5 - 0x55C9], [A5 - 0x55C8]
0000034A  422D AA39                clr.b      [A5 - 0x55C7]
0000034E  426D AA18                clr.w      [A5 - 0x55E8]
00000352  6000 009A                bra        +0x9C /* 000003EE */
label00000356:
00000356  7000                     moveq.l    D0, 0x00
00000358  102D AA3D                move.b     D0, [A5 - 0x55C3]
0000035C  C06D AA1C                and.w      D0, [A5 - 0x55E4]
00000360  122D AA3C                move.b     D1, [A5 - 0x55C4]
00000364  E268                     lsr        D0.w, D1
00000366  1B40 AA42                move.b     [A5 - 0x55BE], D0
0000036A  4A00                     tst.b      D0
0000036C  672C                     beq        +0x2E /* 0000039A */
0000036E  4A6D F286                tst.w      [A5 - 0xD7A]
00000372  6616                     bne        +0x18 /* 0000038A */
00000374  4A6D F734                tst.w      [A5 - 0x8CC]
00000378  6610                     bne        +0x12 /* 0000038A */
0000037A  7000                     moveq.l    D0, 0x00
0000037C  102D AA39                move.b     D0, [A5 - 0x55C7]
00000380  122D AA37                move.b     D1, [A5 - 0x55C9]
00000384  8335 0925 EF46           or.b       [[A5 - 0x10BA] + D0], D1
label0000038A:
0000038A  7000                     moveq.l    D0, 0x00
0000038C  102D AA42                move.b     D0, [A5 - 0x55BE]
00000390  206D EF3E                movea.l    A0, [A5 - 0x10C2]
00000394  10B5 0920 EAA6           move.b     [A0], [A5 - 0x155A + D0]
label0000039A:
0000039A  52AD EF3E                addq.l     [A5 - 0x10C2], 1
0000039E  302D AA1C                move.w     D0, [A5 - 0x55E4]
000003A2  122D AA3B                move.b     D1, [A5 - 0x55C5]
000003A6  E368                     lsl        D0.w, D1
000003A8  3B40 AA1C                move.w     [A5 - 0x55E4], D0
000003AC  7400                     moveq.l    D2, 0x00
000003AE  1401                     move.b     D2, D1
000003B0  956D AA16                sub.w      [A5 - 0x55EA], D2
000003B4  4A6D AA16                tst.w      [A5 - 0x55EA]
000003B8  6616                     bne        +0x18 /* 000003D0 */
000003BA  206D AA24                movea.l    A0, [A5 - 0x55DC]
000003BE  52AD AA24                addq.l     [A5 - 0x55DC], 1
000003C2  7000                     moveq.l    D0, 0x00
000003C4  1010                     move.b     D0, [A0]
000003C6  3B40 AA1C                move.w     [A5 - 0x55E4], D0
000003CA  3B7C 0008 AA16           move.w     [A5 - 0x55EA], 0x8
label000003D0:
000003D0  7000                     moveq.l    D0, 0x00
000003D2  102D AA37                move.b     D0, [A5 - 0x55C9]
000003D6  E240                     asr        D0.w, 1
000003D8  1B40 AA37                move.b     [A5 - 0x55C9], D0
000003DC  4A00                     tst.b      D0
000003DE  660A                     bne        +0xC /* 000003EA */
000003E0  1B7C 0080 AA37           move.b     [A5 - 0x55C9], 0x80
000003E6  522D AA39                addq.b     [A5 - 0x55C7], 1
label000003EA:
000003EA  526D AA18                addq.w     [A5 - 0x55E8], 1
label000003EE:
000003EE  302D AA18                move.w     D0, [A5 - 0x55E8]
000003F2  B06D AA34                cmp.w      D0, [A5 - 0x55CC]
000003F6  6500 FF5E                bcs        -0xA0 /* 00000356 */
000003FA  49EC 0140                lea.l      A4, [A4 + 0x140]
000003FE  2B4C EF3E                move.l     [A5 - 0x10C2], A4
00000402  7028                     moveq.l    D0, 0x28
00000404  D1AD EF46                add.l      [A5 - 0x10BA], D0
label00000408:
00000408  526D AA1A                addq.w     [A5 - 0x55E6], 1
label0000040C:
0000040C  7000                     moveq.l    D0, 0x00
0000040E  102D AA36                move.b     D0, [A5 - 0x55CA]
00000412  B06D AA1A                cmp.w      D0, [A5 - 0x55E6]
00000416  6200 FF1C                bhi        -0xE2 /* 00000334 */
0000041A  285F                     movea.l    A4, [A7]+
0000041C  4E75                     rts
export_353:
0000041E  4E56 FFFC                link       A6, -0x0004
00000422  48E7 1F00                movem.l    -[A7], D3,D4,D5,D6,D7
00000426  3E2E 0008                move.w     D7, [A6 + 0x8]
0000042A  3A2E 000A                move.w     D5, [A6 + 0xA]
0000042E  3C2E 000C                move.w     D6, [A6 + 0xC]
00000432  BC47                     cmp.w      D6, D7
00000434  6700 01B6                beq        +0x1B8 /* 000005EC */
00000438  BA6E 000E                cmp.w      D5, [A6 + 0xE]
0000043C  6700 01AE                beq        +0x1B0 /* 000005EC */
00000440  3F05                     move.w     -[A7], D5
00000442  4EAD 0642                jsr        [A5 + 0x642 /* export_196, CODE:3 @ 00003318 */]
00000446  5240                     addq.w     D0, 1
00000448  548F                     addq.l     A7, 2
0000044A  6700 01A0                beq        +0x1A2 /* 000005EC */
0000044E  7060                     moveq.l    D0, 0x60
00000450  C0ED F286                mulu.w     D0, [A5 - 0xD7A]
00000454  3635 0920 F28C           move.w     D3, [A5 - 0xD74 + D0]
0000045A  7060                     moveq.l    D0, 0x60
0000045C  C0ED F286                mulu.w     D0, [A5 - 0xD7A]
00000460  3835 0920 F290           move.w     D4, [A5 - 0xD70 + D0]
00000466  D843                     add.w      D4, D3
00000468  4A6D F286                tst.w      [A5 - 0xD7A]
0000046C  6610                     bne        +0x12 /* 0000047E */
0000046E  302D F296                move.w     D0, [A5 - 0xD6A]
00000472  906D ECA6                sub.w      D0, [A5 - 0x135A]
00000476  3D40 FFFC                move.w     [A6 - 0x4], D0
0000047A  9E40                     sub.w      D7, D0
0000047C  9C40                     sub.w      D6, D0
label0000047E:
0000047E  5246                     addq.w     D6, 1
00000480  4A47                     tst.w      D7
00000482  6C02                     bge        +0x4 /* 00000486 */
00000484  7E00                     moveq.l    D7, 0x00
label00000486:
00000486  4A46                     tst.w      D6
00000488  6C02                     bge        +0x4 /* 0000048C */
0000048A  7C00                     moveq.l    D6, 0x00
label0000048C:
0000048C  0C47 0140                cmpi.w     D7, 0x140
00000490  6E00 015A                bgt        +0x15C /* 000005EC */
00000494  0C46 0140                cmpi.w     D6, 0x140
00000498  6F04                     ble        +0x6 /* 0000049E */
0000049A  3C3C 0140                move.w     D6, 0x140
label0000049E:
0000049E  B86E 000E                cmp.w      D4, [A6 + 0xE]
000004A2  6404                     bcc        +0x6 /* 000004A8 */
000004A4  3D44 000E                move.w     [A6 + 0xE], D4
label000004A8:
000004A8  3805                     move.w     D4, D5
000004AA  9843                     sub.w      D4, D3
000004AC  302E 000E                move.w     D0, [A6 + 0xE]
000004B0  9043                     sub.w      D0, D3
000004B2  3D40 FFFC                move.w     [A6 - 0x4], D0
000004B6  3F3C 4000                move.w     -[A7], 0x4000 /* '@\0' */
000004BA  3F00                     move.w     -[A7], D0
000004BC  3F04                     move.w     -[A7], D4
000004BE  3F06                     move.w     -[A7], D6
000004C0  3F07                     move.w     -[A7], D7
000004C2  3F2D F286                move.w     -[A7], [A5 - 0xD7A]
000004C6  4EAD 04FA                jsr        [A5 + 0x4FA /* export_155, CODE:3 @ 00000406 */]
000004CA  3004                     move.w     D0, D4
000004CC  E548                     lsl        D0.w, 2
000004CE  D044                     add.w      D0, D4
000004D0  ED48                     lsl        D0.w, 6
000004D2  D047                     add.w      D0, D7
000004D4  7260                     moveq.l    D1, 0x60
000004D6  C2ED F286                mulu.w     D1, [A5 - 0xD7A]
000004DA  D075 1920 F296           add.w      D0, [A5 - 0xD6A + D1]
000004E0  3600                     move.w     D3, D0
000004E2  7001                     moveq.l    D0, 0x01
000004E4  D06D F286                add.w      D0, [A5 - 0xD7A]
000004E8  3E80                     move.w     [A7], D0
000004EA  3F3C 000A                move.w     -[A7], 0xA /* '\n' */
000004EE  4EAD 03E2                jsr        [A5 + 0x3E2 /* export_120, CODE:2 @ 00003CEE */]
000004F2  7800                     moveq.l    D4, 0x00
000004F4  3803                     move.w     D4, D3
000004F6  D084                     add.l      D0, D4
000004F8  2B40 EF3E                move.l     [A5 - 0x10C2], D0
000004FC  7205                     moveq.l    D1, 0x05
000004FE  D26D F286                add.w      D1, [A5 - 0xD7A]
00000502  3E81                     move.w     [A7], D1
00000504  3F3C 000A                move.w     -[A7], 0xA /* '\n' */
00000508  4EAD 03E2                jsr        [A5 + 0x3E2 /* export_120, CODE:2 @ 00003CEE */]
0000050C  D084                     add.l      D0, D4
0000050E  2B40 EF3A                move.l     [A5 - 0x10C6], D0
00000512  2EBC 000A 0009           move.l     [A7], 0xA0009 /* '\n\0\t' */
00000518  4EAD 03E2                jsr        [A5 + 0x3E2 /* export_120, CODE:2 @ 00003CEE */]
0000051C  3047                     movea.w    A0, D7
0000051E  2208                     move.l     D1, A0
00000520  83FC 0008                divs.w     D1, 0x8
00000524  306D ECA2                movea.w    A0, [A5 - 0x135E]
00000528  D088                     add.l      D0, A0
0000052A  3041                     movea.w    A0, D1
0000052C  3205                     move.w     D1, D5
0000052E  E549                     lsl        D1.w, 2
00000530  D245                     add.w      D1, D5
00000532  D088                     add.l      D0, A0
00000534  E749                     lsl        D1.w, 3
00000536  3041                     movea.w    A0, D1
00000538  D088                     add.l      D0, A0
0000053A  2B40 EF46                move.l     [A5 - 0x10BA], D0
0000053E  4A6D F286                tst.w      [A5 - 0xD7A]
00000542  4FEF 0010                lea.l      A7, [A7 + 0x10]
00000546  6614                     bne        +0x16 /* 0000055C */
00000548  302D F28C                move.w     D0, [A5 - 0xD74]
0000054C  E548                     lsl        D0.w, 2
0000054E  D06D F28C                add.w      D0, [A5 - 0xD74]
00000552  E748                     lsl        D0.w, 3
00000554  7200                     moveq.l    D1, 0x00
00000556  3200                     move.w     D1, D0
00000558  93AD EF46                sub.l      [A5 - 0x10BA], D1
label0000055C:
0000055C  362E 000E                move.w     D3, [A6 + 0xE]
00000560  9645                     sub.w      D3, D5
00000562  3A06                     move.w     D5, D6
00000564  9A47                     sub.w      D5, D7
00000566  3E05                     move.w     D7, D5
00000568  E44F                     lsr        D7.w, 2
0000056A  5447                     addq.w     D7, 2
0000056C  7060                     moveq.l    D0, 0x60
0000056E  C0ED F286                mulu.w     D0, [A5 - 0xD7A]
00000572  4A35 0920 F294           tst.b      [A5 - 0xD6C + D0]
00000578  674E                     beq        +0x50 /* 000005C8 */
0000057A  4A2D B2D6                tst.b      [A5 - 0x4D2A]
0000057E  6748                     beq        +0x4A /* 000005C8 */
00000580  082D 0001 C93F           btst.b     [A5 - 0x36C1], 0x1
00000586  6740                     beq        +0x42 /* 000005C8 */
00000588  3F03                     move.w     -[A7], D3
0000058A  3F05                     move.w     -[A7], D5
0000058C  2F2D EF3A                move.l     -[A7], [A5 - 0x10C6]
00000590  2F2D EF3E                move.l     -[A7], [A5 - 0x10C2]
00000594  4EAD 0692                jsr        [A5 + 0x692 /* export_206, CODE:3 @ 0000014C */]
00000598  4A6D F286                tst.w      [A5 - 0xD7A]
0000059C  4FEF 000C                lea.l      A7, [A7 + 0xC]
000005A0  664A                     bne        +0x4C /* 000005EC */
000005A2  4A6D F40A                tst.w      [A5 - 0xBF6]
000005A6  6744                     beq        +0x46 /* 000005EC */
000005A8  7C00                     moveq.l    D6, 0x00
000005AA  6016                     bra        +0x18 /* 000005C2 */
label000005AC:
000005AC  3F07                     move.w     -[A7], D7
000005AE  4227                     clr.b      -[A7]
000005B0  2F2D EF46                move.l     -[A7], [A5 - 0x10BA]
000005B4  4EAD 0C02                jsr        [A5 + 0xC02 /* export_380, CODE:6 @ 000000F6 */]
000005B8  7028                     moveq.l    D0, 0x28
000005BA  D1AD EF46                add.l      [A5 - 0x10BA], D0
000005BE  508F                     addq.l     A7, 8
000005C0  5246                     addq.w     D6, 1
label000005C2:
000005C2  B646                     cmp.w      D3, D6
000005C4  62E6                     bhi        -0x18 /* 000005AC */
000005C6  6024                     bra        +0x26 /* 000005EC */
label000005C8:
000005C8  1E2D F533                move.b     D7, [A5 - 0xACD]
000005CC  7C00                     moveq.l    D6, 0x00
000005CE  6018                     bra        +0x1A /* 000005E8 */
label000005D0:
000005D0  3F05                     move.w     -[A7], D5
000005D2  1F07                     move.b     -[A7], D7
000005D4  2F2D EF3E                move.l     -[A7], [A5 - 0x10C2]
000005D8  4EAD 0C02                jsr        [A5 + 0xC02 /* export_380, CODE:6 @ 000000F6 */]
000005DC  06AD 0000 0140 EF3E      addi.l     [A5 - 0x10C2], 0x140
000005E4  508F                     addq.l     A7, 8
000005E6  5246                     addq.w     D6, 1
label000005E8:
000005E8  B646                     cmp.w      D3, D6
000005EA  62E4                     bhi        -0x1A /* 000005D0 */
label000005EC:
000005EC  4CDF 00F8                movem.l    D3,D4,D5,D6,D7, [A7]+
000005F0  4E5E                     unlink     A6
000005F2  4E75                     rts
export_354:
000005F4  4E56 0000                link       A6, 0
000005F8  4A6D F40A                tst.w      [A5 - 0xBF6]
000005FC  673C                     beq        +0x3E /* 0000063A */
000005FE  302E 000A                move.w     D0, [A6 + 0xA]
00000602  B06D F60C                cmp.w      D0, [A5 - 0x9F4]
00000606  6F04                     ble        +0x6 /* 0000060C */
00000608  7000                     moveq.l    D0, 0x00
0000060A  6030                     bra        +0x32 /* 0000063C */
label0000060C:
0000060C  302E 0008                move.w     D0, [A6 + 0x8]
00000610  B06D F618                cmp.w      D0, [A5 - 0x9E8]
00000614  6F04                     ble        +0x6 /* 0000061A */
00000616  7000                     moveq.l    D0, 0x00
00000618  6022                     bra        +0x24 /* 0000063C */
label0000061A:
0000061A  302E 000E                move.w     D0, [A6 + 0xE]
0000061E  B06D F600                cmp.w      D0, [A5 - 0xA00]
00000622  6C04                     bge        +0x6 /* 00000628 */
00000624  7000                     moveq.l    D0, 0x00
00000626  6014                     bra        +0x16 /* 0000063C */
label00000628:
00000628  302E 000C                move.w     D0, [A6 + 0xC]
0000062C  B06D F624                cmp.w      D0, [A5 - 0x9DC]
00000630  6C04                     bge        +0x6 /* 00000636 */
00000632  7000                     moveq.l    D0, 0x00
00000634  6006                     bra        +0x8 /* 0000063C */
label00000636:
00000636  7001                     moveq.l    D0, 0x01
00000638  6002                     bra        +0x4 /* 0000063C */
label0000063A:
0000063A  7000                     moveq.l    D0, 0x00
label0000063C:
0000063C  4E5E                     unlink     A6
0000063E  4E75                     rts
export_351:
00000640  4E56 0000                link       A6, 0
00000644  48E7 0F08                movem.l    -[A7], D4,D5,D6,D7,A4
00000648  3A2E 000E                move.w     D5, [A6 + 0xE]
0000064C  286E 0010                movea.l    A4, [A6 + 0x10]
00000650  306E 0008                movea.w    A0, [A6 + 0x8]
00000654  2E08                     move.l     D7, A0
00000656  8FFC 0008                divs.w     D7, 0x8
0000065A  3005                     move.w     D0, D5
0000065C  E548                     lsl        D0.w, 2
0000065E  D045                     add.w      D0, D5
00000660  E748                     lsl        D0.w, 3
00000662  D047                     add.w      D0, D7
00000664  D8C0                     add.w      A4, D0
00000666  306E 000C                movea.w    A0, [A6 + 0xC]
0000066A  2C08                     move.l     D6, A0
0000066C  8DFC 0008                divs.w     D6, 0x8
00000670  9C47                     sub.w      D6, D7
00000672  3E05                     move.w     D7, D5
00000674  9E6E 000A                sub.w      D7, [A6 + 0xA]
00000678  7A29                     moveq.l    D5, 0x29
0000067A  DA46                     add.w      D5, D6
label0000067C:
0000067C  3806                     move.w     D4, D6
label0000067E:
0000067E  4A1C                     tst.b      [A4]+
00000680  6704                     beq        +0x6 /* 00000686 */
00000682  7001                     moveq.l    D0, 0x01
00000684  6016                     bra        +0x18 /* 0000069C */
label00000686:
00000686  3004                     move.w     D0, D4
00000688  5344                     subq.w     D4, 1
0000068A  4A40                     tst.w      D0
0000068C  66F0                     bne        -0xE /* 0000067E */
0000068E  3045                     movea.w    A0, D5
00000690  99C8                     sub.l      A4, A0
00000692  3007                     move.w     D0, D7
00000694  5347                     subq.w     D7, 1
00000696  4A40                     tst.w      D0
00000698  66E2                     bne        -0x1C /* 0000067C */
0000069A  7000                     moveq.l    D0, 0x00
label0000069C:
0000069C  4CDF 10F0                movem.l    D4,D5,D6,D7,A4, [A7]+
000006A0  4E5E                     unlink     A6
000006A2  4E75                     rts
export_355:
000006A4  4E56 FFFC                link       A6, -0x0004
000006A8  48E7 1F00                movem.l    -[A7], D3,D4,D5,D6,D7
000006AC  382E 0008                move.w     D4, [A6 + 0x8]
000006B0  3E2E 000A                move.w     D7, [A6 + 0xA]
000006B4  362E 000C                move.w     D3, [A6 + 0xC]
000006B8  3F07                     move.w     -[A7], D7
000006BA  4EAD 0642                jsr        [A5 + 0x642 /* export_196, CODE:3 @ 00003318 */]
000006BE  5240                     addq.w     D0, 1
000006C0  548F                     addq.l     A7, 2
000006C2  6700 00F4                beq        +0xF6 /* 000007B8 */
000006C6  7060                     moveq.l    D0, 0x60
000006C8  C0ED F286                mulu.w     D0, [A5 - 0xD7A]
000006CC  3C35 0920 F28C           move.w     D6, [A5 - 0xD74 + D0]
000006D2  7060                     moveq.l    D0, 0x60
000006D4  C0ED F286                mulu.w     D0, [A5 - 0xD7A]
000006D8  3A35 0920 F290           move.w     D5, [A5 - 0xD70 + D0]
000006DE  DA46                     add.w      D5, D6
000006E0  B644                     cmp.w      D3, D4
000006E2  640A                     bcc        +0xC /* 000006EE */
000006E4  3B44 AA1E                move.w     [A5 - 0x55E2], D4
000006E8  3803                     move.w     D4, D3
000006EA  362D AA1E                move.w     D3, [A5 - 0x55E2]
label000006EE:
000006EE  BE6E 000E                cmp.w      D7, [A6 + 0xE]
000006F2  630E                     bls        +0x10 /* 00000702 */
000006F4  3B47 AA1E                move.w     [A5 - 0x55E2], D7
000006F8  3E2E 000E                move.w     D7, [A6 + 0xE]
000006FC  3D6D AA1E 000E           move.w     [A6 + 0xE], [A5 - 0x55E2]
label00000702:
00000702  5243                     addq.w     D3, 1
00000704  526E 000E                addq.w     [A6 + 0xE], 1
00000708  0C44 013F                cmpi.w     D4, 0x13F
0000070C  6200 00AA                bhi        +0xAC /* 000007B8 */
00000710  4A43                     tst.w      D3
00000712  6500 00A4                bcs        +0xA6 /* 000007B8 */
00000716  4A44                     tst.w      D4
00000718  6402                     bcc        +0x4 /* 0000071C */
0000071A  7800                     moveq.l    D4, 0x00
label0000071C:
0000071C  0C43 0140                cmpi.w     D3, 0x140
00000720  6304                     bls        +0x6 /* 00000726 */
00000722  363C 0140                move.w     D3, 0x140
label00000726:
00000726  BA6E 000E                cmp.w      D5, [A6 + 0xE]
0000072A  6404                     bcc        +0x6 /* 00000730 */
0000072C  3D45 000E                move.w     [A6 + 0xE], D5
label00000730:
00000730  3A07                     move.w     D5, D7
00000732  9A46                     sub.w      D5, D6
00000734  302E 000E                move.w     D0, [A6 + 0xE]
00000738  9046                     sub.w      D0, D6
0000073A  3D40 FFFC                move.w     [A6 - 0x4], D0
0000073E  4267                     clr.w      -[A7]
00000740  3F00                     move.w     -[A7], D0
00000742  3F05                     move.w     -[A7], D5
00000744  3F03                     move.w     -[A7], D3
00000746  3F04                     move.w     -[A7], D4
00000748  3F2D F286                move.w     -[A7], [A5 - 0xD7A]
0000074C  4EAD 04FA                jsr        [A5 + 0x4FA /* export_155, CODE:3 @ 00000406 */]
00000750  7001                     moveq.l    D0, 0x01
00000752  D06D F286                add.w      D0, [A5 - 0xD7A]
00000756  3E80                     move.w     [A7], D0
00000758  3F3C 000A                move.w     -[A7], 0xA /* '\n' */
0000075C  4EAD 03E2                jsr        [A5 + 0x3E2 /* export_120, CODE:2 @ 00003CEE */]
00000760  7C00                     moveq.l    D6, 0x00
00000762  3C05                     move.w     D6, D5
00000764  7260                     moveq.l    D1, 0x60
00000766  C2ED F286                mulu.w     D1, [A5 - 0xD7A]
0000076A  7400                     moveq.l    D2, 0x00
0000076C  3435 1920 F296           move.w     D2, [A5 - 0xD6A + D1]
00000772  D082                     add.l      D0, D2
00000774  7200                     moveq.l    D1, 0x00
00000776  3204                     move.w     D1, D4
00000778  2406                     move.l     D2, D6
0000077A  E58A                     lsl        D2, 2
0000077C  D486                     add.l      D2, D6
0000077E  ED8A                     lsl        D2, 6
00000780  D282                     add.l      D1, D2
00000782  D081                     add.l      D0, D1
00000784  2B40 EF3E                move.l     [A5 - 0x10C2], D0
00000788  3C2E 000E                move.w     D6, [A6 + 0xE]
0000078C  9C47                     sub.w      D6, D7
0000078E  3E03                     move.w     D7, D3
00000790  9E44                     sub.w      D7, D4
00000792  7A00                     moveq.l    D5, 0x00
00000794  4FEF 000E                lea.l      A7, [A7 + 0xE]
00000798  601A                     bra        +0x1C /* 000007B4 */
label0000079A:
0000079A  3F07                     move.w     -[A7], D7
0000079C  1F2E 0011                move.b     -[A7], [A6 + 0x11]
000007A0  2F2D EF3E                move.l     -[A7], [A5 - 0x10C2]
000007A4  4EAD 0C02                jsr        [A5 + 0xC02 /* export_380, CODE:6 @ 000000F6 */]
000007A8  06AD 0000 0140 EF3E      addi.l     [A5 - 0x10C2], 0x140
000007B0  508F                     addq.l     A7, 8
000007B2  5245                     addq.w     D5, 1
label000007B4:
000007B4  BC45                     cmp.w      D6, D5
000007B6  62E2                     bhi        -0x1C /* 0000079A */
label000007B8:
000007B8  4CDF 00F8                movem.l    D3,D4,D5,D6,D7, [A7]+
000007BC  4E5E                     unlink     A6
000007BE  4E75                     rts
fn000007C0:
000007C0  4E56 FFFC                link       A6, -0x0004
000007C4  48E7 1F00                movem.l    -[A7], D3,D4,D5,D6,D7
000007C8  382E 0008                move.w     D4, [A6 + 0x8]
000007CC  3E2E 000A                move.w     D7, [A6 + 0xA]
000007D0  362E 000C                move.w     D3, [A6 + 0xC]
000007D4  3F07                     move.w     -[A7], D7
000007D6  4EAD 0642                jsr        [A5 + 0x642 /* export_196, CODE:3 @ 00003318 */]
000007DA  5240                     addq.w     D0, 1
000007DC  548F                     addq.l     A7, 2
000007DE  6700 00F2                beq        +0xF4 /* 000008D2 */
000007E2  7060                     moveq.l    D0, 0x60
000007E4  C0ED F286                mulu.w     D0, [A5 - 0xD7A]
000007E8  3C35 0920 F28C           move.w     D6, [A5 - 0xD74 + D0]
000007EE  7060                     moveq.l    D0, 0x60
000007F0  C0ED F286                mulu.w     D0, [A5 - 0xD7A]
000007F4  3A35 0920 F290           move.w     D5, [A5 - 0xD70 + D0]
000007FA  DA46                     add.w      D5, D6
000007FC  B644                     cmp.w      D3, D4
000007FE  6C0A                     bge        +0xC /* 0000080A */
00000800  3B44 AA1E                move.w     [A5 - 0x55E2], D4
00000804  3803                     move.w     D4, D3
00000806  362D AA1E                move.w     D3, [A5 - 0x55E2]
label0000080A:
0000080A  BE6E 000E                cmp.w      D7, [A6 + 0xE]
0000080E  6F0E                     ble        +0x10 /* 0000081E */
00000810  3B47 AA1E                move.w     [A5 - 0x55E2], D7
00000814  3E2E 000E                move.w     D7, [A6 + 0xE]
00000818  3D6D AA1E 000E           move.w     [A6 + 0xE], [A5 - 0x55E2]
label0000081E:
0000081E  5243                     addq.w     D3, 1
00000820  526E 000E                addq.w     [A6 + 0xE], 1
00000824  0C44 013F                cmpi.w     D4, 0x13F
00000828  6E00 00A8                bgt        +0xAA /* 000008D2 */
0000082C  4A44                     tst.w      D4
0000082E  6C02                     bge        +0x4 /* 00000832 */
00000830  7800                     moveq.l    D4, 0x00
label00000832:
00000832  4A43                     tst.w      D3
00000834  6D00 009C                blt        +0x9E /* 000008D2 */
00000838  0C43 0140                cmpi.w     D3, 0x140
0000083C  6F04                     ble        +0x6 /* 00000842 */
0000083E  363C 0140                move.w     D3, 0x140
label00000842:
00000842  BA6E 000E                cmp.w      D5, [A6 + 0xE]
00000846  6404                     bcc        +0x6 /* 0000084C */
00000848  3D45 000E                move.w     [A6 + 0xE], D5
label0000084C:
0000084C  3A07                     move.w     D5, D7
0000084E  9A46                     sub.w      D5, D6
00000850  302E 000E                move.w     D0, [A6 + 0xE]
00000854  9046                     sub.w      D0, D6
00000856  3D40 FFFC                move.w     [A6 - 0x4], D0
0000085A  4267                     clr.w      -[A7]
0000085C  3F00                     move.w     -[A7], D0
0000085E  3F05                     move.w     -[A7], D5
00000860  3F03                     move.w     -[A7], D3
00000862  3F04                     move.w     -[A7], D4
00000864  3F2D F286                move.w     -[A7], [A5 - 0xD7A]
00000868  4EAD 04FA                jsr        [A5 + 0x4FA /* export_155, CODE:3 @ 00000406 */]
0000086C  7001                     moveq.l    D0, 0x01
0000086E  D06D F286                add.w      D0, [A5 - 0xD7A]
00000872  3E80                     move.w     [A7], D0
00000874  3F3C 000A                move.w     -[A7], 0xA /* '\n' */
00000878  4EAD 03E2                jsr        [A5 + 0x3E2 /* export_120, CODE:2 @ 00003CEE */]
0000087C  7C00                     moveq.l    D6, 0x00
0000087E  3C05                     move.w     D6, D5
00000880  7260                     moveq.l    D1, 0x60
00000882  C2ED F286                mulu.w     D1, [A5 - 0xD7A]
00000886  7400                     moveq.l    D2, 0x00
00000888  3435 1920 F296           move.w     D2, [A5 - 0xD6A + D1]
0000088E  D082                     add.l      D0, D2
00000890  2206                     move.l     D1, D6
00000892  E589                     lsl        D1, 2
00000894  D286                     add.l      D1, D6
00000896  ED89                     lsl        D1, 6
00000898  3044                     movea.w    A0, D4
0000089A  D288                     add.l      D1, A0
0000089C  D081                     add.l      D0, D1
0000089E  2B40 EF3E                move.l     [A5 - 0x10C2], D0
000008A2  3C2E 000E                move.w     D6, [A6 + 0xE]
000008A6  9C47                     sub.w      D6, D7
000008A8  3E03                     move.w     D7, D3
000008AA  9E44                     sub.w      D7, D4
000008AC  7A00                     moveq.l    D5, 0x00
000008AE  4FEF 000E                lea.l      A7, [A7 + 0xE]
000008B2  601A                     bra        +0x1C /* 000008CE */
label000008B4:
000008B4  3F07                     move.w     -[A7], D7
000008B6  1F2E 0011                move.b     -[A7], [A6 + 0x11]
000008BA  2F2D EF3E                move.l     -[A7], [A5 - 0x10C2]
000008BE  4EAD 0C02                jsr        [A5 + 0xC02 /* export_380, CODE:6 @ 000000F6 */]
000008C2  06AD 0000 0140 EF3E      addi.l     [A5 - 0x10C2], 0x140
000008CA  508F                     addq.l     A7, 8
000008CC  5245                     addq.w     D5, 1
label000008CE:
000008CE  BC45                     cmp.w      D6, D5
000008D0  62E2                     bhi        -0x1C /* 000008B4 */
label000008D2:
000008D2  4CDF 00F8                movem.l    D3,D4,D5,D6,D7, [A7]+
000008D6  4E5E                     unlink     A6
000008D8  4E75                     rts
fn000008DA:
000008DA  4E56 0000                link       A6, 0
000008DE  48E7 0700                movem.l    -[A7], D5,D6,D7
000008E2  3E2E 0008                move.w     D7, [A6 + 0x8]
000008E6  3C2E 000A                move.w     D6, [A6 + 0xA]
000008EA  0C47 013F                cmpi.w     D7, 0x13F
000008EE  6E00 00A0                bgt        +0xA2 /* 00000990 */
000008F2  4A47                     tst.w      D7
000008F4  6D00 009A                blt        +0x9C /* 00000990 */
000008F8  4A46                     tst.w      D6
000008FA  6D00 0094                blt        +0x96 /* 00000990 */
000008FE  3F06                     move.w     -[A7], D6
00000900  4EAD 0642                jsr        [A5 + 0x642 /* export_196, CODE:3 @ 00003318 */]
00000904  5240                     addq.w     D0, 1
00000906  548F                     addq.l     A7, 2
00000908  6700 0086                beq        +0x88 /* 00000990 */
0000090C  7060                     moveq.l    D0, 0x60
0000090E  C0ED F286                mulu.w     D0, [A5 - 0xD7A]
00000912  3A06                     move.w     D5, D6
00000914  9A75 0920 F28C           sub.w      D5, [A5 - 0xD74 + D0]
0000091A  4267                     clr.w      -[A7]
0000091C  7001                     moveq.l    D0, 0x01
0000091E  D045                     add.w      D0, D5
00000920  3F00                     move.w     -[A7], D0
00000922  3F05                     move.w     -[A7], D5
00000924  3F07                     move.w     -[A7], D7
00000926  3F07                     move.w     -[A7], D7
00000928  3F2D F286                move.w     -[A7], [A5 - 0xD7A]
0000092C  4EAD 04FA                jsr        [A5 + 0x4FA /* export_155, CODE:3 @ 00000406 */]
00000930  3005                     move.w     D0, D5
00000932  E548                     lsl        D0.w, 2
00000934  D045                     add.w      D0, D5
00000936  ED48                     lsl        D0.w, 6
00000938  D047                     add.w      D0, D7
0000093A  7260                     moveq.l    D1, 0x60
0000093C  C2ED F286                mulu.w     D1, [A5 - 0xD7A]
00000940  D075 1920 F296           add.w      D0, [A5 - 0xD6A + D1]
00000946  3C00                     move.w     D6, D0
00000948  7001                     moveq.l    D0, 0x01
0000094A  D06D F286                add.w      D0, [A5 - 0xD7A]
0000094E  3E80                     move.w     [A7], D0
00000950  3F3C 000A                move.w     -[A7], 0xA /* '\n' */
00000954  4EAD 03E2                jsr        [A5 + 0x3E2 /* export_120, CODE:2 @ 00003CEE */]
00000958  7E00                     moveq.l    D7, 0x00
0000095A  3E06                     move.w     D7, D6
0000095C  D087                     add.l      D0, D7
0000095E  2040                     movea.l    A0, D0
00000960  10AE 000D                move.b     [A0], [A6 + 0xD]
00000964  7060                     moveq.l    D0, 0x60
00000966  C0ED F286                mulu.w     D0, [A5 - 0xD7A]
0000096A  4A35 0920 F294           tst.b      [A5 - 0xD6C + D0]
00000970  4FEF 000E                lea.l      A7, [A7 + 0xE]
00000974  671A                     beq        +0x1C /* 00000990 */
00000976  7005                     moveq.l    D0, 0x05
00000978  D06D F286                add.w      D0, [A5 - 0xD7A]
0000097C  3F00                     move.w     -[A7], D0
0000097E  3F3C 000A                move.w     -[A7], 0xA /* '\n' */
00000982  4EAD 03E2                jsr        [A5 + 0x3E2 /* export_120, CODE:2 @ 00003CEE */]
00000986  D087                     add.l      D0, D7
00000988  2040                     movea.l    A0, D0
0000098A  10AE 000D                move.b     [A0], [A6 + 0xD]
0000098E  588F                     addq.l     A7, 4
label00000990:
00000990  4CDF 00E0                movem.l    D5,D6,D7, [A7]+
00000994  4E5E                     unlink     A6
00000996  4E75                     rts
00000998  4E56 0000                link       A6, 0
0000099C  3F2E 0010                move.w     -[A7], [A6 + 0x10]
000009A0  302E 000E                move.w     D0, [A6 + 0xE]
000009A4  D06D F28C                add.w      D0, [A5 - 0xD74]
000009A8  3F00                     move.w     -[A7], D0
000009AA  302E 000C                move.w     D0, [A6 + 0xC]
000009AE  906D F296                sub.w      D0, [A5 - 0xD6A]
000009B2  3F00                     move.w     -[A7], D0
000009B4  302E 000A                move.w     D0, [A6 + 0xA]
000009B8  D06D F28C                add.w      D0, [A5 - 0xD74]
000009BC  3F00                     move.w     -[A7], D0
000009BE  302E 0008                move.w     D0, [A6 + 0x8]
000009C2  906D F296                sub.w      D0, [A5 - 0xD6A]
000009C6  3F00                     move.w     -[A7], D0
000009C8  4EBA 0006                jsr        [PC + 0x6 /* 000009D0 */]
000009CC  4E5E                     unlink     A6
000009CE  4E75                     rts
fn000009D0:
000009D0  4E56 FFF4                link       A6, -0x000C
000009D4  48E7 1F00                movem.l    -[A7], D3,D4,D5,D6,D7
000009D8  302E 000C                move.w     D0, [A6 + 0xC]
000009DC  906E 0008                sub.w      D0, [A6 + 0x8]
000009E0  3D40 FFFC                move.w     [A6 - 0x4], D0
000009E4  322E 000E                move.w     D1, [A6 + 0xE]
000009E8  926E 000A                sub.w      D1, [A6 + 0xA]
000009EC  3D41 FFFE                move.w     [A6 - 0x2], D1
000009F0  3F00                     move.w     -[A7], D0
000009F2  4EAD 0C2A                jsr        [A5 + 0xC2A /* export_385, CODE:7 @ 0000028C */]
000009F6  3D40 FFFA                move.w     [A6 - 0x6], D0
000009FA  3EAE FFFE                move.w     [A7], [A6 - 0x2]
000009FE  4EAD 0C2A                jsr        [A5 + 0xC2A /* export_385, CODE:7 @ 0000028C */]
00000A02  3C00                     move.w     D6, D0
00000A04  362E FFFA                move.w     D3, [A6 - 0x6]
00000A08  BC6E FFFA                cmp.w      D6, [A6 - 0x6]
00000A0C  548F                     addq.l     A7, 2
00000A0E  6F02                     ble        +0x4 /* 00000A12 */
00000A10  3606                     move.w     D3, D6
label00000A12:
00000A12  382E 0008                move.w     D4, [A6 + 0x8]
00000A16  3A2E 000A                move.w     D5, [A6 + 0xA]
00000A1A  426E FFF8                clr.w      [A6 - 0x8]
00000A1E  7E00                     moveq.l    D7, 0x00
00000A20  3F2E 0010                move.w     -[A7], [A6 + 0x10]
00000A24  3F05                     move.w     -[A7], D5
00000A26  3F04                     move.w     -[A7], D4
00000A28  4EBA FEB0                jsr        [PC - 0x150 /* 000008DA */]
00000A2C  426E FFF6                clr.w      [A6 - 0xA]
00000A30  5C8F                     addq.l     A7, 6
00000A32  6058                     bra        +0x5A /* 00000A8C */
label00000A34:
00000A34  DE6E FFFA                add.w      D7, [A6 - 0x6]
00000A38  DD6E FFF8                add.w      [A6 - 0x8], D6
00000A3C  426E FFF4                clr.w      [A6 - 0xC]
00000A40  B647                     cmp.w      D3, D7
00000A42  6C14                     bge        +0x16 /* 00000A58 */
00000A44  3D7C 0001 FFF4           move.w     [A6 - 0xC], 0x1
00000A4A  9E43                     sub.w      D7, D3
00000A4C  4A6E FFFC                tst.w      [A6 - 0x4]
00000A50  6D04                     blt        +0x6 /* 00000A56 */
00000A52  5244                     addq.w     D4, 1
00000A54  6002                     bra        +0x4 /* 00000A58 */
label00000A56:
00000A56  5344                     subq.w     D4, 1
label00000A58:
00000A58  B66E FFF8                cmp.w      D3, [A6 - 0x8]
00000A5C  6C16                     bge        +0x18 /* 00000A74 */
00000A5E  3D7C 0001 FFF4           move.w     [A6 - 0xC], 0x1
00000A64  976E FFF8                sub.w      [A6 - 0x8], D3
00000A68  4A6E FFFE                tst.w      [A6 - 0x2]
00000A6C  6D04                     blt        +0x6 /* 00000A72 */
00000A6E  5245                     addq.w     D5, 1
00000A70  6002                     bra        +0x4 /* 00000A74 */
label00000A72:
00000A72  5345                     subq.w     D5, 1
label00000A74:
00000A74  4A6E FFF4                tst.w      [A6 - 0xC]
00000A78  670E                     beq        +0x10 /* 00000A88 */
00000A7A  3F2E 0010                move.w     -[A7], [A6 + 0x10]
00000A7E  3F05                     move.w     -[A7], D5
00000A80  3F04                     move.w     -[A7], D4
00000A82  4EBA FE56                jsr        [PC - 0x1AA /* 000008DA */]
00000A86  5C8F                     addq.l     A7, 6
label00000A88:
00000A88  526E FFF6                addq.w     [A6 - 0xA], 1
label00000A8C:
00000A8C  B66E FFF6                cmp.w      D3, [A6 - 0xA]
00000A90  6CA2                     bge        -0x5C /* 00000A34 */
00000A92  4CDF 00F8                movem.l    D3,D4,D5,D6,D7, [A7]+
00000A96  4E5E                     unlink     A6
00000A98  4E75                     rts
export_281:
00000A9A  2B7C A943 DE35 F74C      move.l     [A5 - 0x8B4], 0xA943DE35
00000AA2  2B7C 37A9 ED27 F750      move.l     [A5 - 0x8B0], 0x37A9ED27
00000AAA  4E75                     rts
export_282:
00000AAC  4E56 0000                link       A6, 0
00000AB0  48E7 0300                movem.l    -[A7], D6,D7
00000AB4  7E00                     moveq.l    D7, 0x00
00000AB6  602E                     bra        +0x30 /* 00000AE6 */
label00000AB8:
00000AB8  082D 0005 F74C           btst.b     [A5 - 0x8B4], 0x5
00000ABE  56C0                     sne        D0
00000AC0  4400                     neg.b      D0
00000AC2  49C0                     lea.l      A4, D0
00000AC4  082D 0006 F74C           btst.b     [A5 - 0x8B4], 0x6
00000ACA  56C6                     sne        D6
00000ACC  4406                     neg.b      D6
00000ACE  49C6                     lea.l      A4, D6
00000AD0  B146                     xor.w      D6, D0
00000AD2  202D F74C                move.l     D0, [A5 - 0x8B4]
00000AD6  D080                     add.l      D0, D0
00000AD8  2B40 F74C                move.l     [A5 - 0x8B4], D0
00000ADC  3046                     movea.w    A0, D6
00000ADE  2208                     move.l     D1, A0
00000AE0  D3AD F74C                add.l      [A5 - 0x8B4], D1
00000AE4  5247                     addq.w     D7, 1
label00000AE6:
00000AE6  0C47 0008                cmpi.w     D7, 0x8
00000AEA  6DCC                     blt        -0x32 /* 00000AB8 */
00000AEC  7E00                     moveq.l    D7, 0x00
00000AEE  602E                     bra        +0x30 /* 00000B1E */
label00000AF0:
00000AF0  082D 0005 F750           btst.b     [A5 - 0x8B0], 0x5
00000AF6  56C0                     sne        D0
00000AF8  4400                     neg.b      D0
00000AFA  49C0                     lea.l      A4, D0
00000AFC  082D 0006 F750           btst.b     [A5 - 0x8B0], 0x6
00000B02  56C6                     sne        D6
00000B04  4406                     neg.b      D6
00000B06  49C6                     lea.l      A4, D6
00000B08  B146                     xor.w      D6, D0
00000B0A  202D F750                move.l     D0, [A5 - 0x8B0]
00000B0E  D080                     add.l      D0, D0
00000B10  2B40 F750                move.l     [A5 - 0x8B0], D0
00000B14  3046                     movea.w    A0, D6
00000B16  2208                     move.l     D1, A0
00000B18  D3AD F750                add.l      [A5 - 0x8B0], D1
00000B1C  5247                     addq.w     D7, 1
label00000B1E:
00000B1E  0C47 000D                cmpi.w     D7, 0xD /* '\r' */
00000B22  6DCC                     blt        -0x32 /* 00000AF0 */
00000B24  302D F752                move.w     D0, [A5 - 0x8AE]
00000B28  D06D F74E                add.w      D0, [A5 - 0x8B2]
00000B2C  7200                     moveq.l    D1, 0x00
00000B2E  3200                     move.w     D1, D0
00000B30  306E 0008                movea.w    A0, [A6 + 0x8]
00000B34  7001                     moveq.l    D0, 0x01
00000B36  D088                     add.l      D0, A0
00000B38  4C01 0000                mulu.l     D0, D1
00000B3C  7210                     moveq.l    D1, 0x10
00000B3E  E2A0                     asr        D0, D1
00000B40  4CDF 00C0                movem.l    D6,D7, [A7]+
00000B44  4E5E                     unlink     A6
00000B46  4E75                     rts
export_288:
fn00000B48:
00000B48  4E56 0000                link       A6, 0
00000B4C  48E7 0300                movem.l    -[A7], D6,D7
00000B50  7E02                     moveq.l    D7, 0x02
00000B52  7C01                     moveq.l    D6, 0x01
00000B54  6004                     bra        +0x6 /* 00000B5A */
label00000B56:
00000B56  5246                     addq.w     D6, 1
00000B58  DE87                     add.l      D7, D7
label00000B5A:
00000B5A  2007                     move.l     D0, D7
00000B5C  C0AD AA44                and.l      D0, [A5 - 0x55BC]
00000B60  6706                     beq        +0x8 /* 00000B68 */
00000B62  0C46 0020                cmpi.w     D6, 0x20 /* ' ' */
00000B66  6DEE                     blt        -0x10 /* 00000B56 */
label00000B68:
00000B68  0C46 0020                cmpi.w     D6, 0x20 /* ' ' */
00000B6C  6C4E                     bge        +0x50 /* 00000BBC */
00000B6E  0C6E 0001 000C           cmpi.w     [A6 + 0xC], 0x1
00000B74  6616                     bne        +0x18 /* 00000B8C */
00000B76  2F3C 0000 145D           move.l     -[A7], 0x145D
00000B7C  2F2E 0008                move.l     -[A7], [A6 + 0x8]
00000B80  4EAD 0D12                jsr        [A5 + 0xD12 /* export_414, CODE:7 @ 00002540 */]
00000B84  2B80 6520 AA4A           move.l     [A5 - 0x55B6 + D6 * 4], D0
00000B8A  508F                     addq.l     A7, 8
label00000B8C:
00000B8C  0C6E 0002 000C           cmpi.w     [A6 + 0xC], 0x2
00000B92  6616                     bne        +0x18 /* 00000BAA */
00000B94  2F3C 0000 1461           move.l     -[A7], 0x1461
00000B9A  2F2E 0008                move.l     -[A7], [A6 + 0x8]
00000B9E  4EAD 0D12                jsr        [A5 + 0xD12 /* export_414, CODE:7 @ 00002540 */]
00000BA2  2B80 6520 AA4A           move.l     [A5 - 0x55B6 + D6 * 4], D0
00000BA8  508F                     addq.l     A7, 8
label00000BAA:
00000BAA  4AB5 6520 AA4A           tst.l      [A5 - 0x55B6 + D6 * 4]
00000BB0  6706                     beq        +0x8 /* 00000BB8 */
00000BB2  8FAD AA44                or.l       [A5 - 0x55BC], D7
00000BB6  6002                     bra        +0x4 /* 00000BBA */
label00000BB8:
00000BB8  7CFF                     moveq.l    D6, 0xFFFFFFFF
label00000BBA:
00000BBA  3006                     move.w     D0, D6
label00000BBC:
00000BBC  4CDF 00C0                movem.l    D6,D7, [A7]+
00000BC0  4E5E                     unlink     A6
00000BC2  4E75                     rts
export_289:
fn00000BC4:
00000BC4  4E56 0000                link       A6, 0
00000BC8  2F07                     move.l     -[A7], D7
00000BCA  7E01                     moveq.l    D7, 0x01
00000BCC  102E 0009                move.b     D0, [A6 + 0x9]
00000BD0  E1AF                     lsl        D7, D0
00000BD2  202D AA44                move.l     D0, [A5 - 0x55BC]
00000BD6  C087                     and.l      D0, D7
00000BD8  6718                     beq        +0x1A /* 00000BF2 */
00000BDA  302E 0008                move.w     D0, [A6 + 0x8]
00000BDE  2F35 0520 AA4A           move.l     -[A7], [A5 - 0x55B6 + D0 * 4]
00000BE4  4EAD 0CA2                jsr        [A5 + 0xCA2 /* export_400, CODE:7 @ 00003076 */]
00000BE8  2007                     move.l     D0, D7
00000BEA  4680                     not.l      D0
00000BEC  C1AD AA44                and.l      [A5 - 0x55BC], D0
00000BF0  588F                     addq.l     A7, 4
label00000BF2:
00000BF2  70FF                     moveq.l    D0, 0xFFFFFFFF
00000BF4  2E1F                     move.l     D7, [A7]+
00000BF6  4E5E                     unlink     A6
00000BF8  4E75                     rts
export_290:
fn00000BFA:
00000BFA  4E56 0000                link       A6, 0
00000BFE  302D F756                move.w     D0, [A5 - 0x8AA]
00000C02  4E5E                     unlink     A6
00000C04  4E75                     rts
fn00000C06:
00000C06  4E56 0000                link       A6, 0
00000C0A  426D F756                clr.w      [A5 - 0x8AA]
00000C0E  4E5E                     unlink     A6
00000C10  4E75                     rts
export_291:
00000C12  4E56 0000                link       A6, 0
00000C16  302E 0008                move.w     D0, [A6 + 0x8]
00000C1A  E9F5 0081 0521 AA4A      bfextu     D0, [[A5 - 0x55B6 + D0 * 4]] {2:1}
00000C22  4E5E                     unlink     A6
00000C24  4E75                     rts
export_287:
fn00000C26:
00000C26  4E56 0000                link       A6, 0
00000C2A  3F2E 000E                move.w     -[A7], [A6 + 0xE]
00000C2E  2F2E 000A                move.l     -[A7], [A6 + 0xA]
00000C32  302E 0008                move.w     D0, [A6 + 0x8]
00000C36  2F35 0520 AA4A           move.l     -[A7], [A5 - 0x55B6 + D0 * 4]
00000C3C  4EAD 0CF2                jsr        [A5 + 0xCF2 /* export_410, CODE:7 @ 00002B16 */]
00000C40  4E5E                     unlink     A6
00000C42  4E75                     rts
fn00000C44:
00000C44  4E56 0000                link       A6, 0
00000C48  302E 0008                move.w     D0, [A6 + 0x8]
00000C4C  2F35 0520 AA4A           move.l     -[A7], [A5 - 0x55B6 + D0 * 4]
00000C52  4EAD 0CFA                jsr        [A5 + 0xCFA /* export_411, CODE:7 @ 00002BBA */]
00000C56  4E5E                     unlink     A6
00000C58  4E75                     rts
export_292:
fn00000C5A:
00000C5A  4E56 0000                link       A6, 0
00000C5E  302E 0008                move.w     D0, [A6 + 0x8]
00000C62  2F35 0520 AA4A           move.l     -[A7], [A5 - 0x55B6 + D0 * 4]
00000C68  2F2E 000E                move.l     -[A7], [A6 + 0xE]
00000C6C  4878 0001                push.l     0x1
00000C70  2F2E 000A                move.l     -[A7], [A6 + 0xA]
00000C74  4EAD 0C8A                jsr        [A5 + 0xC8A /* export_397, CODE:7 @ 000029DC */]
00000C78  4FEF 0010                lea.l      A7, [A7 + 0x10]
00000C7C  600E                     bra        +0x10 /* 00000C8C */
label00000C7E:
00000C7E  206E 000A                movea.l    A0, [A6 + 0xA]
00000C82  52AE 000A                addq.l     [A6 + 0xA], 1
00000C86  102D F74A                move.b     D0, [A5 - 0x8B6]
00000C8A  B110                     xor.b      [A0], D0
label00000C8C:
00000C8C  202E 000E                move.l     D0, [A6 + 0xE]
00000C90  53AE 000E                subq.l     [A6 + 0xE], 1
00000C94  4A80                     tst.l      D0
00000C96  66E6                     bne        -0x18 /* 00000C7E */
00000C98  4E5E                     unlink     A6
00000C9A  4E75                     rts
fn00000C9C:
00000C9C  4E56 0000                link       A6, 0
00000CA0  2F07                     move.l     -[A7], D7
00000CA2  302E 0008                move.w     D0, [A6 + 0x8]
00000CA6  2F35 0520 AA4A           move.l     -[A7], [A5 - 0x55B6 + D0 * 4]
00000CAC  2F2E 000E                move.l     -[A7], [A6 + 0xE]
00000CB0  4878 0001                push.l     0x1
00000CB4  2F2E 000A                move.l     -[A7], [A6 + 0xA]
00000CB8  4EAD 0C92                jsr        [A5 + 0xC92 /* export_398, CODE:7 @ 00002C12 */]
00000CBC  2E00                     move.l     D7, D0
00000CBE  BEAE 000E                cmp.l      D7, [A6 + 0xE]
00000CC2  4FEF 0010                lea.l      A7, [A7 + 0x10]
00000CC6  6706                     beq        +0x8 /* 00000CCE */
00000CC8  3B7C 0001 AA48           move.w     [A5 - 0x55B8], 0x1
label00000CCE:
00000CCE  2E1F                     move.l     D7, [A7]+
00000CD0  4E5E                     unlink     A6
00000CD2  4E75                     rts
00000CD4  4E56 0000                link       A6, 0
00000CD8  2F07                     move.l     -[A7], D7
00000CDA  302E 000A                move.w     D0, [A6 + 0xA]
00000CDE  2F35 0520 AA4A           move.l     -[A7], [A5 - 0x55B6 + D0 * 4]
00000CE4  3F2E 0008                move.w     -[A7], [A6 + 0x8]
00000CE8  4EAD 0CB2                jsr        [A5 + 0xCB2 /* export_402, CODE:7 @ 00003C0A */]
00000CEC  3E00                     move.w     D7, D0
00000CEE  BE6E 0008                cmp.w      D7, [A6 + 0x8]
00000CF2  5C8F                     addq.l     A7, 6
00000CF4  6706                     beq        +0x8 /* 00000CFC */
00000CF6  3B7C 0001 AA48           move.w     [A5 - 0x55B8], 0x1
label00000CFC:
00000CFC  2E1F                     move.l     D7, [A7]+
00000CFE  4E5E                     unlink     A6
00000D00  4E75                     rts
00000D02  4E56 0000                link       A6, 0
00000D06  2F07                     move.l     -[A7], D7
00000D08  302E 0008                move.w     D0, [A6 + 0x8]
00000D0C  2F35 0520 AA4A           move.l     -[A7], [A5 - 0x55B6 + D0 * 4]
00000D12  4EAD 0C9A                jsr        [A5 + 0xC9A /* export_399, CODE:7 @ 00002E30 */]
00000D16  1E00                     move.b     D7, D0
00000D18  7000                     moveq.l    D0, 0x00
00000D1A  1007                     move.b     D0, D7
00000D1C  2E2E FFFC                move.l     D7, [A6 - 0x4]
00000D20  4E5E                     unlink     A6
00000D22  4E75                     rts
fn00000D24:
00000D24  4E56 0000                link       A6, 0
00000D28  2F07                     move.l     -[A7], D7
00000D2A  3F2D EC98                move.w     -[A7], [A5 - 0x1368]
00000D2E  4EBA FECA                jsr        [PC - 0x136 /* 00000BFA */]
00000D32  4A40                     tst.w      D0
00000D34  548F                     addq.l     A7, 2
00000D36  6634                     bne        +0x36 /* 00000D6C */
00000D38  102D F74A                move.b     D0, [A5 - 0x8B6]
00000D3C  B12E 0008                xor.b      [A6 + 0x8], D0
00000D40  322D EC98                move.w     D1, [A5 - 0x1368]
00000D44  2F35 1520 AA4A           move.l     -[A7], [A5 - 0x55B6 + D1 * 4]
00000D4A  4878 0001                push.l     0x1
00000D4E  4878 0001                push.l     0x1
00000D52  486E 0008                pea.l      [A6 + 0x8]
00000D56  4EAD 0C92                jsr        [A5 + 0xC92 /* export_398, CODE:7 @ 00002C12 */]
00000D5A  2E00                     move.l     D7, D0
00000D5C  7001                     moveq.l    D0, 0x01
00000D5E  B087                     cmp.l      D0, D7
00000D60  4FEF 0010                lea.l      A7, [A7 + 0x10]
00000D64  6706                     beq        +0x8 /* 00000D6C */
00000D66  3B7C 0001 AA48           move.w     [A5 - 0x55B8], 0x1
label00000D6C:
00000D6C  2E1F                     move.l     D7, [A7]+
00000D6E  4E5E                     unlink     A6
00000D70  4E75                     rts
fn00000D72:
00000D72  4E56 0000                link       A6, 0
00000D76  70FF                     moveq.l    D0, 0xFFFFFFFF
00000D78  C02E 0009                and.b      D0, [A6 + 0x9]
00000D7C  1F00                     move.b     -[A7], D0
00000D7E  4EBA FFA4                jsr        [PC - 0x5C /* 00000D24 */]
00000D82  302E 0008                move.w     D0, [A6 + 0x8]
00000D86  E048                     lsr        D0.w, 8
00000D88  1E80                     move.b     [A7], D0
00000D8A  4EBA FF98                jsr        [PC - 0x68 /* 00000D24 */]
00000D8E  4E5E                     unlink     A6
00000D90  4E75                     rts
fn00000D92:
00000D92  4E56 0000                link       A6, 0
00000D96  70FF                     moveq.l    D0, 0xFFFFFFFF
00000D98  C06E 000A                and.w      D0, [A6 + 0xA]
00000D9C  3F00                     move.w     -[A7], D0
00000D9E  4EBA FFD2                jsr        [PC - 0x2E /* 00000D72 */]
00000DA2  202E 0008                move.l     D0, [A6 + 0x8]
00000DA6  4C7C 0800 0001 0000      divu.l     D0:D0, 0x8000001
00000DAE  3E80                     move.w     [A7], D0
00000DB0  4EBA FFC0                jsr        [PC - 0x40 /* 00000D72 */]
00000DB4  4E5E                     unlink     A6
00000DB6  4E75                     rts
export_283:
fn00000DB8:
00000DB8  4E56 FFFE                link       A6, -0x0002
00000DBC  302D EC98                move.w     D0, [A5 - 0x1368]
00000DC0  2F35 0520 AA4A           move.l     -[A7], [A5 - 0x55B6 + D0 * 4]
00000DC6  4878 0001                push.l     0x1
00000DCA  4878 0001                push.l     0x1
00000DCE  486E FFFF                pea.l      [A6 - 0x1]
00000DD2  4EAD 0C8A                jsr        [A5 + 0xC8A /* export_397, CODE:7 @ 000029DC */]
00000DD6  7000                     moveq.l    D0, 0x00
00000DD8  102D F74A                move.b     D0, [A5 - 0x8B6]
00000DDC  7200                     moveq.l    D1, 0x00
00000DDE  122E FFFF                move.b     D1, [A6 - 0x1]
00000DE2  B340                     xor.w      D0, D1
00000DE4  4E5E                     unlink     A6
00000DE6  4E75                     rts
export_284:
fn00000DE8:
00000DE8  2F07                     move.l     -[A7], D7
00000DEA  4EBA FFCC                jsr        [PC - 0x34 /* 00000DB8 */]
00000DEE  3E00                     move.w     D7, D0
00000DF0  4EBA FFC6                jsr        [PC - 0x3A /* 00000DB8 */]
00000DF4  E148                     lsl        D0.w, 8
00000DF6  D047                     add.w      D0, D7
00000DF8  2E1F                     move.l     D7, [A7]+
00000DFA  4E75                     rts
export_285:
fn00000DFC:
00000DFC  2F07                     move.l     -[A7], D7
00000DFE  4EBA FFE8                jsr        [PC - 0x18 /* 00000DE8 */]
00000E02  7E00                     moveq.l    D7, 0x00
00000E04  3E00                     move.w     D7, D0
00000E06  4EBA FFE0                jsr        [PC - 0x20 /* 00000DE8 */]
00000E0A  7200                     moveq.l    D1, 0x00
00000E0C  3200                     move.w     D1, D0
00000E0E  7010                     moveq.l    D0, 0x10
00000E10  E1A9                     lsl        D1, D0
00000E12  D287                     add.l      D1, D7
00000E14  2001                     move.l     D0, D1
00000E16  2E1F                     move.l     D7, [A7]+
00000E18  4E75                     rts
fn00000E1A:
00000E1A  48E7 0300                movem.l    -[A7], D6,D7
00000E1E  4EBA FF98                jsr        [PC - 0x68 /* 00000DB8 */]
00000E22  3E00                     move.w     D7, D0
00000E24  4EBA FF92                jsr        [PC - 0x6E /* 00000DB8 */]
00000E28  3C00                     move.w     D6, D0
00000E2A  3007                     move.w     D0, D7
00000E2C  E148                     lsl        D0.w, 8
00000E2E  D046                     add.w      D0, D6
00000E30  4CDF 00C0                movem.l    D6,D7, [A7]+
00000E34  4E75                     rts
export_286:
fn00000E36:
00000E36  48E7 0300                movem.l    -[A7], D6,D7
00000E3A  4EBA FFDE                jsr        [PC - 0x22 /* 00000E1A */]
00000E3E  7E00                     moveq.l    D7, 0x00
00000E40  3E00                     move.w     D7, D0
00000E42  4EBA FFD6                jsr        [PC - 0x2A /* 00000E1A */]
00000E46  7C00                     moveq.l    D6, 0x00
00000E48  3C00                     move.w     D6, D0
00000E4A  2007                     move.l     D0, D7
00000E4C  7210                     moveq.l    D1, 0x10
00000E4E  E3A8                     lsl        D0, D1
00000E50  D086                     add.l      D0, D6
00000E52  4CDF 00C0                movem.l    D6,D7, [A7]+
00000E56  4E75                     rts
export_293:
00000E58  4E56 0000                link       A6, 0
00000E5C  48E7 0F18                movem.l    -[A7], D4,D5,D6,D7,A3,A4
00000E60  286E 000A                movea.l    A4, [A6 + 0xA]
00000E64  4A14                     tst.b      [A4]
00000E66  6612                     bne        +0x14 /* 00000E7A */
00000E68  287C 0000 1464           movea.l    A4, 0x1464
00000E6E  7061                     moveq.l    D0, 0x61
00000E70  D02E 0009                add.b      D0, [A6 + 0x9]
00000E74  5300                     subq.b     D0, 1
00000E76  1940 0009                move.b     [A4 + 0x9], D0
label00000E7A:
00000E7A  3F3C FFFF                move.w     -[A7], 0xFFFF
00000E7E  4EAD 065A                jsr        [A5 + 0x65A /* export_199, CODE:3 @ 00003CDA */]
00000E82  3EBC 0002                move.w     [A7], 0x2
00000E86  2F0C                     move.l     -[A7], A4
00000E88  4EBA FCBE                jsr        [PC - 0x342 /* 00000B48 */]
00000E8C  3B40 EC98                move.w     [A5 - 0x1368], D0
00000E90  4A6D 9C4C                tst.w      [A5 - 0x63B4]
00000E94  5C8F                     addq.l     A7, 6
00000E96  670E                     beq        +0x10 /* 00000EA6 */
00000E98  4267                     clr.w      -[A7]
00000E9A  42A7                     clr.l      -[A7]
00000E9C  3F2D 9C4C                move.w     -[A7], [A5 - 0x63B4]
00000EA0  4EAD 0BC2                jsr        [A5 + 0xBC2 /* export_372, CODE:6 @ 00001756 */]
00000EA4  548F                     addq.l     A7, 2
label00000EA6:
00000EA6  0C6D FFFF EC98           cmpi.w     [A5 - 0x1368], 0xFFFF
00000EAC  6606                     bne        +0x8 /* 00000EB4 */
00000EAE  7000                     moveq.l    D0, 0x00
00000EB0  6000 0120                bra        +0x122 /* 00000FD2 */
label00000EB4:
00000EB4  3F3C 0002                move.w     -[A7], 0x2
00000EB8  4EBA 04FA                jsr        [PC + 0x4FA /* 000013B4 */]
00000EBC  7E01                     moveq.l    D7, 0x01
00000EBE  49ED B108                lea.l      A4, [A5 - 0x4EF8]
00000EC2  548F                     addq.l     A7, 2
00000EC4  6020                     bra        +0x22 /* 00000EE6 */
label00000EC6:
00000EC6  4A35 7120 B2A6           tst.b      [A5 - 0x4D5A + D7]
00000ECC  6614                     bne        +0x16 /* 00000EE2 */
00000ECE  7C01                     moveq.l    D6, 0x01
00000ED0  600C                     bra        +0xE /* 00000EDE */
label00000ED2:
00000ED2  3F06                     move.w     -[A7], D6
00000ED4  3F07                     move.w     -[A7], D7
00000ED6  4EBA 0104                jsr        [PC + 0x104 /* 00000FDC */]
00000EDA  588F                     addq.l     A7, 4
00000EDC  5246                     addq.w     D6, 1
label00000EDE:
00000EDE  BC54                     cmp.w      D6, [A4]
00000EE0  6DF0                     blt        -0xE /* 00000ED2 */
label00000EE2:
00000EE2  5247                     addq.w     D7, 1
00000EE4  548C                     addq.l     A4, 2
label00000EE6:
00000EE6  0C47 0010                cmpi.w     D7, 0x10
00000EEA  6DDA                     blt        -0x24 /* 00000EC6 */
00000EEC  3F2D EC98                move.w     -[A7], [A5 - 0x1368]
00000EF0  4EBA FD52                jsr        [PC - 0x2AE /* 00000C44 */]
00000EF4  2A00                     move.l     D5, D0
00000EF6  42A7                     clr.l      -[A7]
00000EF8  4EBA FE98                jsr        [PC - 0x168 /* 00000D92 */]
00000EFC  1EBC 000C                move.b     [A7], 0xC
00000F00  4EBA FE22                jsr        [PC - 0x1DE /* 00000D24 */]
00000F04  1EBC 0001                move.b     [A7], 0x1
00000F08  4EBA FE1A                jsr        [PC - 0x1E6 /* 00000D24 */]
00000F0C  7E01                     moveq.l    D7, 0x01
00000F0E  49ED B1EA                lea.l      A4, [A5 - 0x4E16]
00000F12  47ED B108                lea.l      A3, [A5 - 0x4EF8]
00000F16  5C8F                     addq.l     A7, 6
00000F18  6040                     bra        +0x42 /* 00000F5A */
label00000F1A:
00000F1A  4A35 7120 B2A6           tst.b      [A5 - 0x4D5A + D7]
00000F20  6732                     beq        +0x34 /* 00000F54 */
00000F22  7C01                     moveq.l    D6, 0x01
00000F24  602A                     bra        +0x2C /* 00000F50 */
label00000F26:
00000F26  7800                     moveq.l    D4, 0x00
00000F28  1834 6115                move.b     D4, [[A4] + D6]
00000F2C  3004                     move.w     D0, D4
00000F2E  0240 FF7F                andi.w     D0, 0xFF7F
00000F32  5340                     subq.w     D0, 1
00000F34  6704                     beq        +0x6 /* 00000F3A */
00000F36  4A04                     tst.b      D4
00000F38  6A14                     bpl        +0x16 /* 00000F4E */
label00000F3A:
00000F3A  1F07                     move.b     -[A7], D7
00000F3C  4EBA FDE6                jsr        [PC - 0x21A /* 00000D24 */]
00000F40  1E86                     move.b     [A7], D6
00000F42  4EBA FDE0                jsr        [PC - 0x220 /* 00000D24 */]
00000F46  1E84                     move.b     [A7], D4
00000F48  4EBA FDDA                jsr        [PC - 0x226 /* 00000D24 */]
00000F4C  548F                     addq.l     A7, 2
label00000F4E:
00000F4E  5246                     addq.w     D6, 1
label00000F50:
00000F50  BC53                     cmp.w      D6, [A3]
00000F52  6DD2                     blt        -0x2C /* 00000F26 */
label00000F54:
00000F54  5247                     addq.w     D7, 1
00000F56  588C                     addq.l     A4, 4
00000F58  548B                     addq.l     A3, 2
label00000F5A:
00000F5A  0C47 0010                cmpi.w     D7, 0x10
00000F5E  6DBA                     blt        -0x44 /* 00000F1A */
00000F60  1F3C 00FF                move.b     -[A7], 0xFF
00000F64  4EBA FDBE                jsr        [PC - 0x242 /* 00000D24 */]
00000F68  3EAD EC98                move.w     [A7], [A5 - 0x1368]
00000F6C  4EBA FCD6                jsr        [PC - 0x32A /* 00000C44 */]
00000F70  2E00                     move.l     D7, D0
00000F72  4257                     clr.w      [A7]
00000F74  2F05                     move.l     -[A7], D5
00000F76  3F2D EC98                move.w     -[A7], [A5 - 0x1368]
00000F7A  4EBA FCAA                jsr        [PC - 0x356 /* 00000C26 */]
00000F7E  2007                     move.l     D0, D7
00000F80  9085                     sub.l      D0, D5
00000F82  2E80                     move.l     [A7], D0
00000F84  4EBA FE0C                jsr        [PC - 0x1F4 /* 00000D92 */]
00000F88  4257                     clr.w      [A7]
00000F8A  2F07                     move.l     -[A7], D7
00000F8C  3F2D EC98                move.w     -[A7], [A5 - 0x1368]
00000F90  4EBA FC94                jsr        [PC - 0x36C /* 00000C26 */]
00000F94  4A6D F756                tst.w      [A5 - 0x8AA]
00000F98  4FEF 000E                lea.l      A7, [A7 + 0xE]
00000F9C  6710                     beq        +0x12 /* 00000FAE */
00000F9E  3F2D EC98                move.w     -[A7], [A5 - 0x1368]
00000FA2  4EBA FC20                jsr        [PC - 0x3E0 /* 00000BC4 */]
00000FA6  3B40 EC98                move.w     [A5 - 0x1368], D0
00000FAA  7000                     moveq.l    D0, 0x00
00000FAC  6024                     bra        +0x26 /* 00000FD2 */
label00000FAE:
00000FAE  4A6E 0008                tst.w      [A6 + 0x8]
00000FB2  6608                     bne        +0xA /* 00000FBC */
00000FB4  3B7C FFFF EC98           move.w     [A5 - 0x1368], 0xFFFF
00000FBA  600E                     bra        +0x10 /* 00000FCA */
label00000FBC:
00000FBC  3F2D EC98                move.w     -[A7], [A5 - 0x1368]
00000FC0  4EBA FC02                jsr        [PC - 0x3FE /* 00000BC4 */]
00000FC4  3B40 EC98                move.w     [A5 - 0x1368], D0
00000FC8  548F                     addq.l     A7, 2
label00000FCA:
00000FCA  3B7C 0001 F726           move.w     [A5 - 0x8DA], 0x1
00000FD0  7001                     moveq.l    D0, 0x01
label00000FD2:
00000FD2  4CEE 18F0 FFE8           movem.l    D4,D5,D6,D7,A3,A4, [A6 - 0x18]
00000FD8  4E5E                     unlink     A6
00000FDA  4E75                     rts
fn00000FDC:
00000FDC  4E56 0000                link       A6, 0
00000FE0  48E7 0318                movem.l    -[A7], D6,D7,A3,A4
00000FE4  3E2E 0008                move.w     D7, [A6 + 0x8]
00000FE8  0C47 000C                cmpi.w     D7, 0xC
00000FEC  675A                     beq        +0x5C /* 00001048 */
00000FEE  0C47 000A                cmpi.w     D7, 0xA /* '\n' */
00000FF2  6754                     beq        +0x56 /* 00001048 */
00000FF4  4A35 7120 B2A6           tst.b      [A5 - 0x4D5A + D7]
00000FFA  664C                     bne        +0x4E /* 00001048 */
00000FFC  302E 000A                move.w     D0, [A6 + 0xA]
00001000  48C0                     ext.l      D0
00001002  E588                     lsl        D0, 2
00001004  D0B5 7520 B166           add.l      D0, [A5 - 0x4E9A + D7 * 4]
0000100A  2040                     movea.l    A0, D0
0000100C  2850                     movea.l    A4, [A0]
0000100E  200C                     move.l     D0, A4
00001010  6736                     beq        +0x38 /* 00001048 */
00001012  264C                     movea.l    A3, A4
00001014  2C13                     move.l     D6, [A3]
00001016  2F06                     move.l     -[A7], D6
00001018  4EBA FD78                jsr        [PC - 0x288 /* 00000D92 */]
0000101C  2046                     movea.l    A0, D6
0000101E  4868 FFFC                pea.l      [A0 - 0x4]
00001022  486B 0004                pea.l      [A3 + 0x4]
00001026  3F2D EC98                move.w     -[A7], [A5 - 0x1368]
0000102A  4EBA FC70                jsr        [PC - 0x390 /* 00000C9C */]
0000102E  0C47 0005                cmpi.w     D7, 0x5
00001032  4FEF 000E                lea.l      A7, [A7 + 0xE]
00001036  6610                     bne        +0x12 /* 00001048 */
00001038  302E 000A                move.w     D0, [A6 + 0xA]
0000103C  3F35 0320 C79E           move.w     -[A7], [A5 - 0x3862 + D0 * 2]
00001042  4EBA FD2E                jsr        [PC - 0x2D2 /* 00000D72 */]
00001046  548F                     addq.l     A7, 2
label00001048:
00001048  4CDF 18C0                movem.l    D6,D7,A3,A4, [A7]+
0000104C  4E5E                     unlink     A6
0000104E  4E75                     rts
fn00001050:
00001050  48E7 0700                movem.l    -[A7], D5,D6,D7
00001054  4EBA FDA6                jsr        [PC - 0x25A /* 00000DFC */]
00001058  5D80                     subq.l     D0, 6
0000105A  2E00                     move.l     D7, D0
0000105C  4EBA FD5A                jsr        [PC - 0x2A6 /* 00000DB8 */]
00001060  3C00                     move.w     D6, D0
00001062  4EBA FD54                jsr        [PC - 0x2AC /* 00000DB8 */]
00001066  3A00                     move.w     D5, D0
00001068  2F07                     move.l     -[A7], D7
0000106A  2F07                     move.l     -[A7], D7
0000106C  3F05                     move.w     -[A7], D5
0000106E  3F06                     move.w     -[A7], D6
00001070  4EAD 03EA                jsr        [A5 + 0x3EA /* export_121, CODE:2 @ 00003D92 */]
00001074  588F                     addq.l     A7, 4
00001076  2E80                     move.l     [A7], D0
00001078  3F2D EC98                move.w     -[A7], [A5 - 0x1368]
0000107C  4EBA FBDC                jsr        [PC - 0x424 /* 00000C5A */]
00001080  0C46 0005                cmpi.w     D6, 0x5
00001084  4FEF 000A                lea.l      A7, [A7 + 0xA]
00001088  660A                     bne        +0xC /* 00001094 */
0000108A  4EBA FD5C                jsr        [PC - 0x2A4 /* 00000DE8 */]
0000108E  3B80 5320 C79E           move.w     [A5 - 0x3862 + D5 * 2], D0
label00001094:
00001094  0C46 000C                cmpi.w     D6, 0xC
00001098  660A                     bne        +0xC /* 000010A4 */
0000109A  0C45 0001                cmpi.w     D5, 0x1
0000109E  6604                     bne        +0x6 /* 000010A4 */
000010A0  7000                     moveq.l    D0, 0x00
000010A2  6002                     bra        +0x4 /* 000010A6 */
label000010A4:
000010A4  7001                     moveq.l    D0, 0x01
label000010A6:
000010A6  4CDF 00E0                movem.l    D5,D6,D7, [A7]+
000010AA  4E75                     rts
fn000010AC:
000010AC  48E7 1F08                movem.l    -[A7], D3,D4,D5,D6,D7,A4
000010B0  4EBA 026A                jsr        [PC + 0x26A /* 0000131C */]
label000010B4:
000010B4  4EBA FF9A                jsr        [PC - 0x66 /* 00001050 */]
000010B8  4A40                     tst.w      D0
000010BA  66F8                     bne        -0x6 /* 000010B4 */
000010BC  7E00                     moveq.l    D7, 0x00
000010BE  6000 00A6                bra        +0xA8 /* 00001166 */
label000010C2:
000010C2  2F3C 000C 0001           move.l     -[A7], 0xC0001
000010C8  4EAD 03E2                jsr        [A5 + 0x3E2 /* export_120, CODE:2 @ 00003CEE */]
000010CC  2840                     movea.l    A4, D0
000010CE  7C00                     moveq.l    D6, 0x00
000010D0  588F                     addq.l     A7, 4
000010D2  607A                     bra        +0x7C /* 0000114E */
label000010D4:
000010D4  0C45 0010                cmpi.w     D5, 0x10
000010D8  6458                     bcc        +0x5A /* 00001132 */
000010DA  7000                     moveq.l    D0, 0x00
000010DC  3005                     move.w     D0, D5
000010DE  4A35 0920 B2A6           tst.b      [A5 - 0x4D5A + D0]
000010E4  674C                     beq        +0x4E /* 00001132 */
000010E6  3006                     move.w     D0, D6
000010E8  5246                     addq.w     D6, 1
000010EA  7200                     moveq.l    D1, 0x00
000010EC  3200                     move.w     D1, D0
000010EE  7800                     moveq.l    D4, 0x00
000010F0  1834 1800                move.b     D4, [A4 + D1]
000010F4  3006                     move.w     D0, D6
000010F6  5246                     addq.w     D6, 1
000010F8  7200                     moveq.l    D1, 0x00
000010FA  3200                     move.w     D1, D0
000010FC  7600                     moveq.l    D3, 0x00
000010FE  1634 1800                move.b     D3, [A4 + D1]
00001102  3003                     move.w     D0, D3
00001104  0240 FF7F                andi.w     D0, 0xFF7F
00001108  5340                     subq.w     D0, 1
0000110A  6618                     bne        +0x1A /* 00001124 */
0000110C  3F04                     move.w     -[A7], D4
0000110E  3F05                     move.w     -[A7], D5
00001110  4EAD 042A                jsr        [A5 + 0x42A /* export_129, CODE:2 @ 0000424C */]
00001114  B047                     cmp.w      D0, D7
00001116  588F                     addq.l     A7, 4
00001118  660A                     bne        +0xC /* 00001124 */
0000111A  3F04                     move.w     -[A7], D4
0000111C  3F05                     move.w     -[A7], D5
0000111E  4EAD 066A                jsr        [A5 + 0x66A /* export_201, CODE:3 @ 00004418 */]
00001122  588F                     addq.l     A7, 4
label00001124:
00001124  3F03                     move.w     -[A7], D3
00001126  3F04                     move.w     -[A7], D4
00001128  3F05                     move.w     -[A7], D5
0000112A  4EAD 0402                jsr        [A5 + 0x402 /* export_124, CODE:2 @ 00003F08 */]
0000112E  5C8F                     addq.l     A7, 6
00001130  600E                     bra        +0x10 /* 00001140 */
label00001132:
00001132  3F05                     move.w     -[A7], D5
00001134  2F3C 0000 1470           move.l     -[A7], 0x1470
0000113A  4EBA 2378                jsr        [PC + 0x2378 /* 000034B4 */]
0000113E  5C8F                     addq.l     A7, 6
label00001140:
00001140  2F3C 000C 0001           move.l     -[A7], 0xC0001
00001146  4EAD 03E2                jsr        [A5 + 0x3E2 /* export_120, CODE:2 @ 00003CEE */]
0000114A  2840                     movea.l    A4, D0
0000114C  588F                     addq.l     A7, 4
label0000114E:
0000114E  3006                     move.w     D0, D6
00001150  5246                     addq.w     D6, 1
00001152  7200                     moveq.l    D1, 0x00
00001154  3200                     move.w     D1, D0
00001156  7A00                     moveq.l    D5, 0x00
00001158  1A34 1800                move.b     D5, [A4 + D1]
0000115C  0C45 00FF                cmpi.w     D5, 0xFF
00001160  6600 FF72                bne        -0x8C /* 000010D4 */
00001164  5247                     addq.w     D7, 1
label00001166:
00001166  0C47 0009                cmpi.w     D7, 0x9 /* '\t' */
0000116A  6300 FF56                bls        -0xA8 /* 000010C2 */
0000116E  2F3C 000C 0001           move.l     -[A7], 0xC0001
00001174  4EAD 03F2                jsr        [A5 + 0x3F2 /* export_122, CODE:2 @ 00003D58 */]
00001178  588F                     addq.l     A7, 4
0000117A  4CDF 10F8                movem.l    D3,D4,D5,D6,D7,A4, [A7]+
0000117E  4E75                     rts
export_294:
00001180  4E56 FFC2                link       A6, -0x003E
00001184  48E7 0108                movem.l    -[A7], D7,A4
00001188  286E 000A                movea.l    A4, [A6 + 0xA]
0000118C  4A14                     tst.b      [A4]
0000118E  6612                     bne        +0x14 /* 000011A2 */
00001190  287C 0000 149A           movea.l    A4, 0x149A
00001196  7061                     moveq.l    D0, 0x61
00001198  D02E 0009                add.b      D0, [A6 + 0x9]
0000119C  5300                     subq.b     D0, 1
0000119E  1940 0009                move.b     [A4 + 0x9], D0
label000011A2:
000011A2  3F3C FFFF                move.w     -[A7], 0xFFFF
000011A6  4EAD 065A                jsr        [A5 + 0x65A /* export_199, CODE:3 @ 00003CDA */]
000011AA  3EBC 0001                move.w     [A7], 0x1
000011AE  2F0C                     move.l     -[A7], A4
000011B0  4EBA F996                jsr        [PC - 0x66A /* 00000B48 */]
000011B4  3B40 EC98                move.w     [A5 - 0x1368], D0
000011B8  4A6D 9C4C                tst.w      [A5 - 0x63B4]
000011BC  5C8F                     addq.l     A7, 6
000011BE  670E                     beq        +0x10 /* 000011CE */
000011C0  4267                     clr.w      -[A7]
000011C2  42A7                     clr.l      -[A7]
000011C4  3F2D 9C4C                move.w     -[A7], [A5 - 0x63B4]
000011C8  4EAD 0BC2                jsr        [A5 + 0xBC2 /* export_372, CODE:6 @ 00001756 */]
000011CC  548F                     addq.l     A7, 2
label000011CE:
000011CE  0C6D FFFF EC98           cmpi.w     [A5 - 0x1368], 0xFFFF
000011D4  6606                     bne        +0x8 /* 000011DC */
000011D6  7000                     moveq.l    D0, 0x00
000011D8  6000 0138                bra        +0x13A /* 00001312 */
label000011DC:
000011DC  4878 00A0                push.l     0xA0
000011E0  4267                     clr.w      -[A7]
000011E2  486D C79E                pea.l      [A5 - 0x3862]
000011E6  4EAD 0CAA                jsr        [A5 + 0xCAA /* export_401, CODE:7 @ 00003152 */]
000011EA  4EBA 25DC                jsr        [PC + 0x25DC /* 000037C8 */]
000011EE  7E4B                     moveq.l    D7, 0x4B
000011F0  49ED C9C2                lea.l      A4, [A5 - 0x363E]
000011F4  4FEF 000A                lea.l      A7, [A7 + 0xA]
000011F8  600A                     bra        +0xC /* 00001204 */
label000011FA:
000011FA  3D94 7320 FF2C           move.w     [A6 - 0xD4 + D7 * 2], [A4]
00001200  5247                     addq.w     D7, 1
00001202  548C                     addq.l     A4, 2
label00001204:
00001204  0C47 0063                cmpi.w     D7, 0x63 /* 'c' */
00001208  6FF0                     ble        -0xE /* 000011FA */
0000120A  3007                     move.w     D0, D7
0000120C  5247                     addq.w     D7, 1
0000120E  3DAD C940 02C2           move.w     [A6 + D0.w * 2 - 0x3E], [A5 - 0x36C0]
00001214  3007                     move.w     D0, D7
00001216  5247                     addq.w     D7, 1
00001218  3DAD C992 02C2           move.w     [A6 + D0.w * 2 - 0x3E], [A5 - 0x366E]
0000121E  3007                     move.w     D0, D7
00001220  5247                     addq.w     D7, 1
00001222  3DAD C98E 02C2           move.w     [A6 + D0.w * 2 - 0x3E], [A5 - 0x3672]
00001228  3007                     move.w     D0, D7
0000122A  5247                     addq.w     D7, 1
0000122C  3DAD C97C 02C2           move.w     [A6 + D0.w * 2 - 0x3E], [A5 - 0x3684]
00001232  3F3C 0001                move.w     -[A7], 0x1
00001236  4EBA 017C                jsr        [PC + 0x17C /* 000013B4 */]
0000123A  5240                     addq.w     D0, 1
0000123C  548F                     addq.l     A7, 2
0000123E  6606                     bne        +0x8 /* 00001246 */
00001240  7000                     moveq.l    D0, 0x00
00001242  6000 00CE                bra        +0xD0 /* 00001312 */
label00001246:
00001246  7E4B                     moveq.l    D7, 0x4B
00001248  49ED C9C2                lea.l      A4, [A5 - 0x363E]
0000124C  600A                     bra        +0xC /* 00001258 */
label0000124E:
0000124E  38B6 7320 FF2C           move.w     [A4], [A6 - 0xD4 + D7 * 2]
00001254  5247                     addq.w     D7, 1
00001256  548C                     addq.l     A4, 2
label00001258:
00001258  0C47 0063                cmpi.w     D7, 0x63 /* 'c' */
0000125C  6FF0                     ble        -0xE /* 0000124E */
0000125E  3007                     move.w     D0, D7
00001260  5247                     addq.w     D7, 1
00001262  3B76 02C2 C940           move.w     [A5 - 0x36C0], [A6 + D0.w * 2 - 0x3E]
00001268  3007                     move.w     D0, D7
0000126A  5247                     addq.w     D7, 1
0000126C  3B76 02C2 C992           move.w     [A5 - 0x366E], [A6 + D0.w * 2 - 0x3E]
00001272  3007                     move.w     D0, D7
00001274  5247                     addq.w     D7, 1
00001276  3B76 02C2 C98E           move.w     [A5 - 0x3672], [A6 + D0.w * 2 - 0x3E]
0000127C  3007                     move.w     D0, D7
0000127E  5247                     addq.w     D7, 1
00001280  3B76 02C2 C97C           move.w     [A5 - 0x3684], [A6 + D0.w * 2 - 0x3E]
00001286  4EBA FE24                jsr        [PC - 0x1DC /* 000010AC */]
0000128A  4A6E 0008                tst.w      [A6 + 0x8]
0000128E  6612                     bne        +0x14 /* 000012A2 */
00001290  3F2D EC98                move.w     -[A7], [A5 - 0x1368]
00001294  4EBA F970                jsr        [PC - 0x690 /* 00000C06 */]
00001298  3B7C FFFF EC98           move.w     [A5 - 0x1368], 0xFFFF
0000129E  548F                     addq.l     A7, 2
000012A0  6016                     bra        +0x18 /* 000012B8 */
label000012A2:
000012A2  3F3C FFFF                move.w     -[A7], 0xFFFF
000012A6  4EAD 065A                jsr        [A5 + 0x65A /* export_199, CODE:3 @ 00003CDA */]
000012AA  3EAD EC98                move.w     [A7], [A5 - 0x1368]
000012AE  4EBA F914                jsr        [PC - 0x6EC /* 00000BC4 */]
000012B2  3B40 EC98                move.w     [A5 - 0x1368], D0
000012B6  548F                     addq.l     A7, 2
label000012B8:
000012B8  302D F28C                move.w     D0, [A5 - 0xD74]
000012BC  D06D F290                add.w      D0, [A5 - 0xD70]
000012C0  3F00                     move.w     -[A7], D0
000012C2  3F2D F28E                move.w     -[A7], [A5 - 0xD72]
000012C6  3F2D F28C                move.w     -[A7], [A5 - 0xD74]
000012CA  3F2D F28A                move.w     -[A7], [A5 - 0xD76]
000012CE  4EAD 0632                jsr        [A5 + 0x632 /* export_194, CODE:3 @ 0000316E */]
000012D2  4EAD 0072                jsr        [A5 + 0x72 /* export_10, CODE:2 @ 000008D4 */]
000012D6  4EAD 0652                jsr        [A5 + 0x652 /* export_198, CODE:3 @ 000038E6 */]
000012DA  4EAD 07D2                jsr        [A5 + 0x7D2 /* export_246, CODE:4 @ 000068A8 */]
000012DE  3B7C 0001 F732           move.w     [A5 - 0x8CE], 0x1
000012E4  3EBC 0081                move.w     [A7], 0x81
000012E8  4EAD 0512                jsr        [A5 + 0x512 /* export_158, CODE:3 @ 0000058E */]
000012EC  4EAD 059A                jsr        [A5 + 0x59A /* export_175, CODE:3 @ 000017C4 */]
000012F0  4EAD 05B2                jsr        [A5 + 0x5B2 /* export_178, CODE:3 @ 00001924 */]
000012F4  7000                     moveq.l    D0, 0x00
000012F6  102D EDC6                move.b     D0, [A5 - 0x123A]
000012FA  3E80                     move.w     [A7], D0
000012FC  4EAD 03DA                jsr        [A5 + 0x3DA /* export_119, CODE:2 @ 00003AE0 */]
00001300  42AD EC94                clr.l      [A5 - 0x136C]
00001304  3B7C 0001 F726           move.w     [A5 - 0x8DA], 0x1
0000130A  3B7C 0001 C9B8           move.w     [A5 - 0x3648], 0x1
00001310  7001                     moveq.l    D0, 0x01
label00001312:
00001312  4CEE 1080 FFBA           movem.l    D7,A4, [A6 - 0x46]
00001318  4E5E                     unlink     A6
0000131A  4E75                     rts
export_295:
fn0000131C:
0000131C  48E7 0308                movem.l    -[A7], D6,D7,A4
00001320  7E01                     moveq.l    D7, 0x01
00001322  49ED B108                lea.l      A4, [A5 - 0x4EF8]
00001326  6042                     bra        +0x44 /* 0000136A */
label00001328:
00001328  4A35 7120 B2A6           tst.b      [A5 - 0x4D5A + D7]
0000132E  6622                     bne        +0x24 /* 00001352 */
00001330  7C01                     moveq.l    D6, 0x01
00001332  6018                     bra        +0x1A /* 0000134C */
label00001334:
00001334  0C47 000C                cmpi.w     D7, 0xC
00001338  6710                     beq        +0x12 /* 0000134A */
0000133A  0C46 0002                cmpi.w     D6, 0x2
0000133E  670A                     beq        +0xC /* 0000134A */
00001340  3F06                     move.w     -[A7], D6
00001342  3F07                     move.w     -[A7], D7
00001344  4EAD 03F2                jsr        [A5 + 0x3F2 /* export_122, CODE:2 @ 00003D58 */]
00001348  588F                     addq.l     A7, 4
label0000134A:
0000134A  5246                     addq.w     D6, 1
label0000134C:
0000134C  BC54                     cmp.w      D6, [A4]
0000134E  6DE4                     blt        -0x1A /* 00001334 */
00001350  6014                     bra        +0x16 /* 00001366 */
label00001352:
00001352  7C01                     moveq.l    D6, 0x01
00001354  600C                     bra        +0xE /* 00001362 */
label00001356:
00001356  3F06                     move.w     -[A7], D6
00001358  3F07                     move.w     -[A7], D7
0000135A  4EAD 0432                jsr        [A5 + 0x432 /* export_130, CODE:2 @ 00004296 */]
0000135E  588F                     addq.l     A7, 4
00001360  5246                     addq.w     D6, 1
label00001362:
00001362  BC54                     cmp.w      D6, [A4]
00001364  6DF0                     blt        -0xE /* 00001356 */
label00001366:
00001366  5247                     addq.w     D7, 1
00001368  548C                     addq.l     A4, 2
label0000136A:
0000136A  0C47 0010                cmpi.w     D7, 0x10
0000136E  6DB8                     blt        -0x46 /* 00001328 */
00001370  4CDF 10C0                movem.l    D6,D7,A4, [A7]+
00001374  4E75                     rts
fn00001376:
00001376  1B7C 0001 AADA           move.b     [A5 - 0x5526], 0x1
0000137C  4EBA 0012                jsr        [PC + 0x12 /* 00001390 */]
00001380  0C6D 0016 AAD8           cmpi.w     [A5 - 0x5528], 0x16
00001386  6704                     beq        +0x6 /* 0000138C */
00001388  7000                     moveq.l    D0, 0x00
0000138A  6002                     bra        +0x4 /* 0000138E */
label0000138C:
0000138C  7001                     moveq.l    D0, 0x01
label0000138E:
0000138E  4E75                     rts
fn00001390:
00001390  3B7C 0016 AAD8           move.w     [A5 - 0x5528], 0x16
00001396  3F3C 0028                move.w     -[A7], 0x28 /* '(' */
0000139A  486D AF4E                pea.l      [A5 - 0x50B2]
0000139E  4EBA 0726                jsr        [PC + 0x726 /* 00001AC6 */]
000013A2  3EBC 0002                move.w     [A7], 0x2
000013A6  486D AAD8                pea.l      [A5 - 0x5528]
000013AA  4EBA 071A                jsr        [PC + 0x71A /* 00001AC6 */]
000013AE  4FEF 000A                lea.l      A7, [A7 + 0xA]
000013B2  4E75                     rts
fn000013B4:
000013B4  4E56 0000                link       A6, 0
000013B8  1B6E 0009 AADA           move.b     [A5 - 0x5526], [A6 + 0x9]
000013BE  4EBA FFD0                jsr        [PC - 0x30 /* 00001390 */]
000013C2  0C6D 0016 AAD8           cmpi.w     [A5 - 0x5528], 0x16
000013C8  6720                     beq        +0x22 /* 000013EA */
000013CA  0C2D 0001 AADA           cmpi.b     [A5 - 0x5526], 0x1
000013D0  6618                     bne        +0x1A /* 000013EA */
000013D2  3F2D AAD8                move.w     -[A7], [A5 - 0x5528]
000013D6  3F3C 0016                move.w     -[A7], 0x16
000013DA  2F3C 0000 14A6           move.l     -[A7], 0x14A6
000013E0  4EBA 211A                jsr        [PC + 0x211A /* 000034FC */]
000013E4  70FF                     moveq.l    D0, 0xFFFFFFFF
000013E6  6000 06DA                bra        +0x6DC /* 00001AC2 */
label000013EA:
000013EA  3F3C 0024                move.w     -[A7], 0x24 /* '$' */
000013EE  486D B2B6                pea.l      [A5 - 0x4D4A]
000013F2  4EBA 06D2                jsr        [PC + 0x6D2 /* 00001AC6 */]
000013F6  3EBC 12C0                move.w     [A7], 0x12C0
000013FA  486D B2DA                pea.l      [A5 - 0x4D26]
000013FE  4EBA 06C6                jsr        [PC + 0x6C6 /* 00001AC6 */]
00001402  3EBC 0168                move.w     [A7], 0x168
00001406  486D C59A                pea.l      [A5 - 0x3A66]
0000140A  4EBA 06BA                jsr        [PC + 0x6BA /* 00001AC6 */]
0000140E  3EBC 0001                move.w     [A7], 0x1
00001412  486D C702                pea.l      [A5 - 0x38FE]
00001416  4EBA 06AE                jsr        [PC + 0x6AE /* 00001AC6 */]
0000141A  3EBC 009A                move.w     [A7], 0x9A
0000141E  486D C704                pea.l      [A5 - 0x38FC]
00001422  4EBA 06A2                jsr        [PC + 0x6A2 /* 00001AC6 */]
00001426  3EBC 00E4                move.w     [A7], 0xE4
0000142A  486D C83E                pea.l      [A5 - 0x37C2]
0000142E  4EBA 0696                jsr        [PC + 0x696 /* 00001AC6 */]
00001432  3EBC 0642                move.w     [A7], 0x642
00001436  486D C92C                pea.l      [A5 - 0x36D4]
0000143A  4EBA 068A                jsr        [PC + 0x68A /* 00001AC6 */]
0000143E  3EBC 02A8                move.w     [A7], 0x2A8
00001442  486D CF6E                pea.l      [A5 - 0x3092]
00001446  4EBA 067E                jsr        [PC + 0x67E /* 00001AC6 */]
0000144A  3EBC 0100                move.w     [A7], 0x100
0000144E  486D D216                pea.l      [A5 - 0x2DEA]
00001452  4EBA 0672                jsr        [PC + 0x672 /* 00001AC6 */]
00001456  3EBC 007F                move.w     [A7], 0x7F
0000145A  486D D316                pea.l      [A5 - 0x2CEA]
0000145E  4EBA 0666                jsr        [PC + 0x666 /* 00001AC6 */]
00001462  3EBC 000D                move.w     [A7], 0xD /* '\r' */
00001466  486D D395                pea.l      [A5 - 0x2C6B]
0000146A  4EBA 065A                jsr        [PC + 0x65A /* 00001AC6 */]
0000146E  3EBC 000D                move.w     [A7], 0xD /* '\r' */
00001472  486D D3A2                pea.l      [A5 - 0x2C5E]
00001476  4EBA 064E                jsr        [PC + 0x64E /* 00001AC6 */]
0000147A  3EBC 001A                move.w     [A7], 0x1A
0000147E  486D D3B0                pea.l      [A5 - 0x2C50]
00001482  4EBA 0642                jsr        [PC + 0x642 /* 00001AC6 */]
00001486  3EBC 001A                move.w     [A7], 0x1A
0000148A  486D D3CA                pea.l      [A5 - 0x2C36]
0000148E  4EBA 0636                jsr        [PC + 0x636 /* 00001AC6 */]
00001492  3EBC 001A                move.w     [A7], 0x1A
00001496  486D D3E4                pea.l      [A5 - 0x2C1C]
0000149A  4EBA 062A                jsr        [PC + 0x62A /* 00001AC6 */]
0000149E  3EBC 001A                move.w     [A7], 0x1A
000014A2  486D D3FE                pea.l      [A5 - 0x2C02]
000014A6  4EBA 061E                jsr        [PC + 0x61E /* 00001AC6 */]
000014AA  3EBC 001A                move.w     [A7], 0x1A
000014AE  486D D418                pea.l      [A5 - 0x2BE8]
000014B2  4EBA 0612                jsr        [PC + 0x612 /* 00001AC6 */]
000014B6  3EBC 000D                move.w     [A7], 0xD /* '\r' */
000014BA  486D D432                pea.l      [A5 - 0x2BCE]
000014BE  4EBA 0606                jsr        [PC + 0x606 /* 00001AC6 */]
000014C2  3EBC 000D                move.w     [A7], 0xD /* '\r' */
000014C6  486D D43F                pea.l      [A5 - 0x2BC1]
000014CA  4EBA 05FA                jsr        [PC + 0x5FA /* 00001AC6 */]
000014CE  3EBC 000D                move.w     [A7], 0xD /* '\r' */
000014D2  486D D44C                pea.l      [A5 - 0x2BB4]
000014D6  4EBA 05EE                jsr        [PC + 0x5EE /* 00001AC6 */]
000014DA  3EBC 01A0                move.w     [A7], 0x1A0
000014DE  486D D45A                pea.l      [A5 - 0x2BA6]
000014E2  4EBA 05E2                jsr        [PC + 0x5E2 /* 00001AC6 */]
000014E6  3EBC 000D                move.w     [A7], 0xD /* '\r' */
000014EA  486D D5FA                pea.l      [A5 - 0x2A06]
000014EE  4EBA 05D6                jsr        [PC + 0x5D6 /* 00001AC6 */]
000014F2  3EBC 000D                move.w     [A7], 0xD /* '\r' */
000014F6  486D D607                pea.l      [A5 - 0x29F9]
000014FA  4EBA 05CA                jsr        [PC + 0x5CA /* 00001AC6 */]
000014FE  3EBC 000D                move.w     [A7], 0xD /* '\r' */
00001502  486D D614                pea.l      [A5 - 0x29EC]
00001506  4EBA 05BE                jsr        [PC + 0x5BE /* 00001AC6 */]
0000150A  3EBC 000D                move.w     [A7], 0xD /* '\r' */
0000150E  486D D621                pea.l      [A5 - 0x29DF]
00001512  4EBA 05B2                jsr        [PC + 0x5B2 /* 00001AC6 */]
00001516  4FEF 0066                lea.l      A7, [A7 + 0x66]
0000151A  3F3C 001A                move.w     -[A7], 0x1A
0000151E  486D D62E                pea.l      [A5 - 0x29D2]
00001522  4EBA 05A2                jsr        [PC + 0x5A2 /* 00001AC6 */]
00001526  3EBC 000D                move.w     [A7], 0xD /* '\r' */
0000152A  486D D648                pea.l      [A5 - 0x29B8]
0000152E  4EBA 0596                jsr        [PC + 0x596 /* 00001AC6 */]
00001532  3EBC 000D                move.w     [A7], 0xD /* '\r' */
00001536  486D D655                pea.l      [A5 - 0x29AB]
0000153A  4EBA 058A                jsr        [PC + 0x58A /* 00001AC6 */]
0000153E  3EBC 001A                move.w     [A7], 0x1A
00001542  486D D662                pea.l      [A5 - 0x299E]
00001546  4EBA 057E                jsr        [PC + 0x57E /* 00001AC6 */]
0000154A  3EBC 000D                move.w     [A7], 0xD /* '\r' */
0000154E  486D D67C                pea.l      [A5 - 0x2984]
00001552  4EBA 0572                jsr        [PC + 0x572 /* 00001AC6 */]
00001556  3EBC 000D                move.w     [A7], 0xD /* '\r' */
0000155A  486D D689                pea.l      [A5 - 0x2977]
0000155E  4EBA 0566                jsr        [PC + 0x566 /* 00001AC6 */]
00001562  3EBC 000D                move.w     [A7], 0xD /* '\r' */
00001566  486D D696                pea.l      [A5 - 0x296A]
0000156A  4EBA 055A                jsr        [PC + 0x55A /* 00001AC6 */]
0000156E  3EBC 000D                move.w     [A7], 0xD /* '\r' */
00001572  486D D6A3                pea.l      [A5 - 0x295D]
00001576  4EBA 054E                jsr        [PC + 0x54E /* 00001AC6 */]
0000157A  3EBC 000D                move.w     [A7], 0xD /* '\r' */
0000157E  486D D6B0                pea.l      [A5 - 0x2950]
00001582  4EBA 0542                jsr        [PC + 0x542 /* 00001AC6 */]
00001586  3EBC 000D                move.w     [A7], 0xD /* '\r' */
0000158A  486D D6BD                pea.l      [A5 - 0x2943]
0000158E  4EBA 0536                jsr        [PC + 0x536 /* 00001AC6 */]
00001592  3EBC 000D                move.w     [A7], 0xD /* '\r' */
00001596  486D D6CA                pea.l      [A5 - 0x2936]
0000159A  4EBA 052A                jsr        [PC + 0x52A /* 00001AC6 */]
0000159E  3EBC 000D                move.w     [A7], 0xD /* '\r' */
000015A2  486D D6D7                pea.l      [A5 - 0x2929]
000015A6  4EBA 051E                jsr        [PC + 0x51E /* 00001AC6 */]
000015AA  3EBC 000D                move.w     [A7], 0xD /* '\r' */
000015AE  486D D6E4                pea.l      [A5 - 0x291C]
000015B2  4EBA 0512                jsr        [PC + 0x512 /* 00001AC6 */]
000015B6  3EBC 000D                move.w     [A7], 0xD /* '\r' */
000015BA  486D D6F1                pea.l      [A5 - 0x290F]
000015BE  4EBA 0506                jsr        [PC + 0x506 /* 00001AC6 */]
000015C2  3EBC 000D                move.w     [A7], 0xD /* '\r' */
000015C6  486D D6FE                pea.l      [A5 - 0x2902]
000015CA  4EBA 04FA                jsr        [PC + 0x4FA /* 00001AC6 */]
000015CE  3EBC 000D                move.w     [A7], 0xD /* '\r' */
000015D2  486D D70B                pea.l      [A5 - 0x28F5]
000015D6  4EBA 04EE                jsr        [PC + 0x4EE /* 00001AC6 */]
000015DA  3EBC 000D                move.w     [A7], 0xD /* '\r' */
000015DE  486D D718                pea.l      [A5 - 0x28E8]
000015E2  4EBA 04E2                jsr        [PC + 0x4E2 /* 00001AC6 */]
000015E6  3EBC 000D                move.w     [A7], 0xD /* '\r' */
000015EA  486D D725                pea.l      [A5 - 0x28DB]
000015EE  4EBA 04D6                jsr        [PC + 0x4D6 /* 00001AC6 */]
000015F2  3EBC 000D                move.w     [A7], 0xD /* '\r' */
000015F6  486D D732                pea.l      [A5 - 0x28CE]
000015FA  4EBA 04CA                jsr        [PC + 0x4CA /* 00001AC6 */]
000015FE  3EBC 000D                move.w     [A7], 0xD /* '\r' */
00001602  486D D73F                pea.l      [A5 - 0x28C1]
00001606  4EBA 04BE                jsr        [PC + 0x4BE /* 00001AC6 */]
0000160A  3EBC 000D                move.w     [A7], 0xD /* '\r' */
0000160E  486D D74C                pea.l      [A5 - 0x28B4]
00001612  4EBA 04B2                jsr        [PC + 0x4B2 /* 00001AC6 */]
00001616  3EBC 000D                move.w     [A7], 0xD /* '\r' */
0000161A  486D D759                pea.l      [A5 - 0x28A7]
0000161E  4EBA 04A6                jsr        [PC + 0x4A6 /* 00001AC6 */]
00001622  3EBC 000D                move.w     [A7], 0xD /* '\r' */
00001626  486D D766                pea.l      [A5 - 0x289A]
0000162A  4EBA 049A                jsr        [PC + 0x49A /* 00001AC6 */]
0000162E  3EBC 01A0                move.w     [A7], 0x1A0
00001632  486D D774                pea.l      [A5 - 0x288C]
00001636  4EBA 048E                jsr        [PC + 0x48E /* 00001AC6 */]
0000163A  3EBC 069A                move.w     [A7], 0x69A
0000163E  486D D918                pea.l      [A5 - 0x26E8]
00001642  4EBA 0482                jsr        [PC + 0x482 /* 00001AC6 */]
00001646  4FEF 0066                lea.l      A7, [A7 + 0x66]
0000164A  3F3C 0AF0                move.w     -[A7], 0xAF0
0000164E  486D DFB6                pea.l      [A5 - 0x204A]
00001652  4EBA 0472                jsr        [PC + 0x472 /* 00001AC6 */]
00001656  3EBC 0010                move.w     [A7], 0x10
0000165A  486D EAA6                pea.l      [A5 - 0x155A]
0000165E  4EBA 0466                jsr        [PC + 0x466 /* 00001AC6 */]
00001662  3EBC 0140                move.w     [A7], 0x140
00001666  486D EAB6                pea.l      [A5 - 0x154A]
0000166A  4EBA 045A                jsr        [PC + 0x45A /* 00001AC6 */]
0000166E  3EBC 0098                move.w     [A7], 0x98
00001672  486D EBF6                pea.l      [A5 - 0x140A]
00001676  4EBA 044E                jsr        [PC + 0x44E /* 00001AC6 */]
0000167A  3EBC 0002                move.w     [A7], 0x2
0000167E  486D EC92                pea.l      [A5 - 0x136E]
00001682  4EBA 0442                jsr        [PC + 0x442 /* 00001AC6 */]
00001686  3EBC 0002                move.w     [A7], 0x2
0000168A  486D EC9E                pea.l      [A5 - 0x1362]
0000168E  4EBA 0436                jsr        [PC + 0x436 /* 00001AC6 */]
00001692  3EBC 0002                move.w     [A7], 0x2
00001696  486D ECA0                pea.l      [A5 - 0x1360]
0000169A  4EBA 042A                jsr        [PC + 0x42A /* 00001AC6 */]
0000169E  3EBC 0002                move.w     [A7], 0x2
000016A2  486D ECA2                pea.l      [A5 - 0x135E]
000016A6  4EBA 041E                jsr        [PC + 0x41E /* 00001AC6 */]
000016AA  3EBC 0002                move.w     [A7], 0x2
000016AE  486D ECA4                pea.l      [A5 - 0x135C]
000016B2  4EBA 0412                jsr        [PC + 0x412 /* 00001AC6 */]
000016B6  3EBC 0002                move.w     [A7], 0x2
000016BA  486D ECD4                pea.l      [A5 - 0x132C]
000016BE  4EBA 0406                jsr        [PC + 0x406 /* 00001AC6 */]
000016C2  3EBC 0001                move.w     [A7], 0x1
000016C6  486D ECD6                pea.l      [A5 - 0x132A]
000016CA  4EBA 03FA                jsr        [PC + 0x3FA /* 00001AC6 */]
000016CE  3EBC 0002                move.w     [A7], 0x2
000016D2  486D ECD8                pea.l      [A5 - 0x1328]
000016D6  4EBA 03EE                jsr        [PC + 0x3EE /* 00001AC6 */]
000016DA  3EBC 0001                move.w     [A7], 0x1
000016DE  486D ECDA                pea.l      [A5 - 0x1326]
000016E2  4EBA 03E2                jsr        [PC + 0x3E2 /* 00001AC6 */]
000016E6  3EBC 0002                move.w     [A7], 0x2
000016EA  486D ECDC                pea.l      [A5 - 0x1324]
000016EE  4EBA 03D6                jsr        [PC + 0x3D6 /* 00001AC6 */]
000016F2  3EBC 0002                move.w     [A7], 0x2
000016F6  486D ECDE                pea.l      [A5 - 0x1322]
000016FA  4EBA 03CA                jsr        [PC + 0x3CA /* 00001AC6 */]
000016FE  3EBC 0002                move.w     [A7], 0x2
00001702  486D ECE0                pea.l      [A5 - 0x1320]
00001706  4EBA 03BE                jsr        [PC + 0x3BE /* 00001AC6 */]
0000170A  3EBC 0002                move.w     [A7], 0x2
0000170E  486D ECF8                pea.l      [A5 - 0x1308]
00001712  4EBA 03B2                jsr        [PC + 0x3B2 /* 00001AC6 */]
00001716  3EBC 0002                move.w     [A7], 0x2
0000171A  486D ECFA                pea.l      [A5 - 0x1306]
0000171E  4EBA 03A6                jsr        [PC + 0x3A6 /* 00001AC6 */]
00001722  3EBC 0001                move.w     [A7], 0x1
00001726  486D ECFC                pea.l      [A5 - 0x1304]
0000172A  4EBA 039A                jsr        [PC + 0x39A /* 00001AC6 */]
0000172E  3EBC 0001                move.w     [A7], 0x1
00001732  486D ECFD                pea.l      [A5 - 0x1303]
00001736  4EBA 038E                jsr        [PC + 0x38E /* 00001AC6 */]
0000173A  3EBC 0002                move.w     [A7], 0x2
0000173E  486D ECFE                pea.l      [A5 - 0x1302]
00001742  4EBA 0382                jsr        [PC + 0x382 /* 00001AC6 */]
00001746  3EBC 0002                move.w     [A7], 0x2
0000174A  486D ED00                pea.l      [A5 - 0x1300]
0000174E  4EBA 0376                jsr        [PC + 0x376 /* 00001AC6 */]
00001752  3EBC 0002                move.w     [A7], 0x2
00001756  486D ED02                pea.l      [A5 - 0x12FE]
0000175A  4EBA 036A                jsr        [PC + 0x36A /* 00001AC6 */]
0000175E  3EBC 0001                move.w     [A7], 0x1
00001762  486D ED04                pea.l      [A5 - 0x12FC]
00001766  4EBA 035E                jsr        [PC + 0x35E /* 00001AC6 */]
0000176A  3EBC 0001                move.w     [A7], 0x1
0000176E  486D ED05                pea.l      [A5 - 0x12FB]
00001772  4EBA 0352                jsr        [PC + 0x352 /* 00001AC6 */]
00001776  4FEF 0066                lea.l      A7, [A7 + 0x66]
0000177A  3F3C 0001                move.w     -[A7], 0x1
0000177E  486D ED0A                pea.l      [A5 - 0x12F6]
00001782  4EBA 0342                jsr        [PC + 0x342 /* 00001AC6 */]
00001786  3EBC 0001                move.w     [A7], 0x1
0000178A  486D ED0B                pea.l      [A5 - 0x12F5]
0000178E  4EBA 0336                jsr        [PC + 0x336 /* 00001AC6 */]
00001792  3EBC 0002                move.w     [A7], 0x2
00001796  486D ED0C                pea.l      [A5 - 0x12F4]
0000179A  4EBA 032A                jsr        [PC + 0x32A /* 00001AC6 */]
0000179E  3EBC 0002                move.w     [A7], 0x2
000017A2  486D ED0E                pea.l      [A5 - 0x12F2]
000017A6  4EBA 031E                jsr        [PC + 0x31E /* 00001AC6 */]
000017AA  3EBC 0001                move.w     [A7], 0x1
000017AE  486D ED12                pea.l      [A5 - 0x12EE]
000017B2  4EBA 0312                jsr        [PC + 0x312 /* 00001AC6 */]
000017B6  3EBC 0006                move.w     [A7], 0x6
000017BA  486D ED14                pea.l      [A5 - 0x12EC]
000017BE  4EBA 0306                jsr        [PC + 0x306 /* 00001AC6 */]
000017C2  3EBC 0006                move.w     [A7], 0x6
000017C6  486D ED1A                pea.l      [A5 - 0x12E6]
000017CA  4EBA 02FA                jsr        [PC + 0x2FA /* 00001AC6 */]
000017CE  3EBC 000C                move.w     [A7], 0xC
000017D2  486D ED20                pea.l      [A5 - 0x12E0]
000017D6  4EBA 02EE                jsr        [PC + 0x2EE /* 00001AC6 */]
000017DA  3EBC 000C                move.w     [A7], 0xC
000017DE  486D ED2C                pea.l      [A5 - 0x12D4]
000017E2  4EBA 02E2                jsr        [PC + 0x2E2 /* 00001AC6 */]
000017E6  3EBC 0006                move.w     [A7], 0x6
000017EA  486D ED38                pea.l      [A5 - 0x12C8]
000017EE  4EBA 02D6                jsr        [PC + 0x2D6 /* 00001AC6 */]
000017F2  3EBC 0001                move.w     [A7], 0x1
000017F6  486D ED3E                pea.l      [A5 - 0x12C2]
000017FA  4EBA 02CA                jsr        [PC + 0x2CA /* 00001AC6 */]
000017FE  3EBC 0014                move.w     [A7], 0x14
00001802  486D ED40                pea.l      [A5 - 0x12C0]
00001806  4EBA 02BE                jsr        [PC + 0x2BE /* 00001AC6 */]
0000180A  3EBC 0005                move.w     [A7], 0x5
0000180E  486D ED54                pea.l      [A5 - 0x12AC]
00001812  4EBA 02B2                jsr        [PC + 0x2B2 /* 00001AC6 */]
00001816  3EBC 000A                move.w     [A7], 0xA /* '\n' */
0000181A  486D ED5A                pea.l      [A5 - 0x12A6]
0000181E  4EBA 02A6                jsr        [PC + 0x2A6 /* 00001AC6 */]
00001822  3EBC 003C                move.w     [A7], 0x3C /* '<' */
00001826  486D ED74                pea.l      [A5 - 0x128C]
0000182A  4EBA 029A                jsr        [PC + 0x29A /* 00001AC6 */]
0000182E  3EBC 0001                move.w     [A7], 0x1
00001832  486D EDB0                pea.l      [A5 - 0x1250]
00001836  4EBA 028E                jsr        [PC + 0x28E /* 00001AC6 */]
0000183A  3EBC 0002                move.w     [A7], 0x2
0000183E  486D EDB2                pea.l      [A5 - 0x124E]
00001842  4EBA 0282                jsr        [PC + 0x282 /* 00001AC6 */]
00001846  3EBC 0001                move.w     [A7], 0x1
0000184A  486D EDBA                pea.l      [A5 - 0x1246]
0000184E  4EBA 0276                jsr        [PC + 0x276 /* 00001AC6 */]
00001852  3EBC 0001                move.w     [A7], 0x1
00001856  486D EDBB                pea.l      [A5 - 0x1245]
0000185A  4EBA 026A                jsr        [PC + 0x26A /* 00001AC6 */]
0000185E  3EBC 0001                move.w     [A7], 0x1
00001862  486D EDBC                pea.l      [A5 - 0x1244]
00001866  4EBA 025E                jsr        [PC + 0x25E /* 00001AC6 */]
0000186A  3EBC 0002                move.w     [A7], 0x2
0000186E  486D EDBE                pea.l      [A5 - 0x1242]
00001872  4EBA 0252                jsr        [PC + 0x252 /* 00001AC6 */]
00001876  3EBC 0002                move.w     [A7], 0x2
0000187A  486D EDC0                pea.l      [A5 - 0x1240]
0000187E  4EBA 0246                jsr        [PC + 0x246 /* 00001AC6 */]
00001882  3EBC 0001                move.w     [A7], 0x1
00001886  486D EDC6                pea.l      [A5 - 0x123A]
0000188A  4EBA 023A                jsr        [PC + 0x23A /* 00001AC6 */]
0000188E  3EBC 0002                move.w     [A7], 0x2
00001892  486D EDC8                pea.l      [A5 - 0x1238]
00001896  4EBA 022E                jsr        [PC + 0x22E /* 00001AC6 */]
0000189A  3EBC 0002                move.w     [A7], 0x2
0000189E  486D EDCA                pea.l      [A5 - 0x1236]
000018A2  4EBA 0222                jsr        [PC + 0x222 /* 00001AC6 */]
000018A6  4FEF 0066                lea.l      A7, [A7 + 0x66]
000018AA  3F3C 0001                move.w     -[A7], 0x1
000018AE  486D EDCC                pea.l      [A5 - 0x1234]
000018B2  4EBA 0212                jsr        [PC + 0x212 /* 00001AC6 */]
000018B6  3EBC 0001                move.w     [A7], 0x1
000018BA  486D EDCD                pea.l      [A5 - 0x1233]
000018BE  4EBA 0206                jsr        [PC + 0x206 /* 00001AC6 */]
000018C2  3EBC 0001                move.w     [A7], 0x1
000018C6  486D EDCE                pea.l      [A5 - 0x1232]
000018CA  4EBA 01FA                jsr        [PC + 0x1FA /* 00001AC6 */]
000018CE  3EBC 0002                move.w     [A7], 0x2
000018D2  486D EDF8                pea.l      [A5 - 0x1208]
000018D6  4EBA 01EE                jsr        [PC + 0x1EE /* 00001AC6 */]
000018DA  3EBC 0140                move.w     [A7], 0x140
000018DE  486D EDFA                pea.l      [A5 - 0x1206]
000018E2  4EBA 01E2                jsr        [PC + 0x1E2 /* 00001AC6 */]
000018E6  3EBC 0001                move.w     [A7], 0x1
000018EA  486D EF59                pea.l      [A5 - 0x10A7]
000018EE  4EBA 01D6                jsr        [PC + 0x1D6 /* 00001AC6 */]
000018F2  3EBC 0300                move.w     [A7], 0x300
000018F6  486D EF5A                pea.l      [A5 - 0x10A6]
000018FA  4EBA 01CA                jsr        [PC + 0x1CA /* 00001AC6 */]
000018FE  3EBC 0001                move.w     [A7], 0x1
00001902  486D F284                pea.l      [A5 - 0xD7C]
00001906  4EBA 01BE                jsr        [PC + 0x1BE /* 00001AC6 */]
0000190A  3EBC 0001                move.w     [A7], 0x1
0000190E  486D F285                pea.l      [A5 - 0xD7B]
00001912  4EBA 01B2                jsr        [PC + 0x1B2 /* 00001AC6 */]
00001916  3EBC 0180                move.w     [A7], 0x180
0000191A  486D F28A                pea.l      [A5 - 0xD76]
0000191E  4EBA 01A6                jsr        [PC + 0x1A6 /* 00001AC6 */]
00001922  3EBC 0100                move.w     [A7], 0x100
00001926  486D F422                pea.l      [A5 - 0xBDE]
0000192A  4EBA 019A                jsr        [PC + 0x19A /* 00001AC6 */]
0000192E  3EBC 000C                move.w     [A7], 0xC
00001932  486D F540                pea.l      [A5 - 0xAC0]
00001936  4EBA 018E                jsr        [PC + 0x18E /* 00001AC6 */]
0000193A  3EBC 000C                move.w     [A7], 0xC
0000193E  486D F54C                pea.l      [A5 - 0xAB4]
00001942  4EBA 0182                jsr        [PC + 0x182 /* 00001AC6 */]
00001946  3EBC 000C                move.w     [A7], 0xC
0000194A  486D F558                pea.l      [A5 - 0xAA8]
0000194E  4EBA 0176                jsr        [PC + 0x176 /* 00001AC6 */]
00001952  3EBC 000C                move.w     [A7], 0xC
00001956  486D F564                pea.l      [A5 - 0xA9C]
0000195A  4EBA 016A                jsr        [PC + 0x16A /* 00001AC6 */]
0000195E  3EBC 000C                move.w     [A7], 0xC
00001962  486D F570                pea.l      [A5 - 0xA90]
00001966  4EBA 015E                jsr        [PC + 0x15E /* 00001AC6 */]
0000196A  3EBC 000C                move.w     [A7], 0xC
0000196E  486D F57C                pea.l      [A5 - 0xA84]
00001972  4EBA 0152                jsr        [PC + 0x152 /* 00001AC6 */]
00001976  3EBC 000C                move.w     [A7], 0xC
0000197A  486D F588                pea.l      [A5 - 0xA78]
0000197E  4EBA 0146                jsr        [PC + 0x146 /* 00001AC6 */]
00001982  3EBC 000C                move.w     [A7], 0xC
00001986  486D F594                pea.l      [A5 - 0xA6C]
0000198A  4EBA 013A                jsr        [PC + 0x13A /* 00001AC6 */]
0000198E  3EBC 000C                move.w     [A7], 0xC
00001992  486D F5A0                pea.l      [A5 - 0xA60]
00001996  4EBA 012E                jsr        [PC + 0x12E /* 00001AC6 */]
0000199A  3EBC 000C                move.w     [A7], 0xC
0000199E  486D F5AC                pea.l      [A5 - 0xA54]
000019A2  4EBA 0122                jsr        [PC + 0x122 /* 00001AC6 */]
000019A6  3EBC 000C                move.w     [A7], 0xC
000019AA  486D F5B8                pea.l      [A5 - 0xA48]
000019AE  4EBA 0116                jsr        [PC + 0x116 /* 00001AC6 */]
000019B2  3EBC 000C                move.w     [A7], 0xC
000019B6  486D F5C4                pea.l      [A5 - 0xA3C]
000019BA  4EBA 010A                jsr        [PC + 0x10A /* 00001AC6 */]
000019BE  3EBC 000C                move.w     [A7], 0xC
000019C2  486D F5D0                pea.l      [A5 - 0xA30]
000019C6  4EBA 00FE                jsr        [PC + 0xFE /* 00001AC6 */]
000019CA  3EBC 000C                move.w     [A7], 0xC
000019CE  486D F5DC                pea.l      [A5 - 0xA24]
000019D2  4EBA 00F2                jsr        [PC + 0xF2 /* 00001AC6 */]
000019D6  4FEF 0066                lea.l      A7, [A7 + 0x66]
000019DA  3F3C 000C                move.w     -[A7], 0xC
000019DE  486D F5E8                pea.l      [A5 - 0xA18]
000019E2  4EBA 00E2                jsr        [PC + 0xE2 /* 00001AC6 */]
000019E6  3EBC 000C                move.w     [A7], 0xC
000019EA  486D F5F4                pea.l      [A5 - 0xA0C]
000019EE  4EBA 00D6                jsr        [PC + 0xD6 /* 00001AC6 */]
000019F2  3EBC 000C                move.w     [A7], 0xC
000019F6  486D F600                pea.l      [A5 - 0xA00]
000019FA  4EBA 00CA                jsr        [PC + 0xCA /* 00001AC6 */]
000019FE  3EBC 000C                move.w     [A7], 0xC
00001A02  486D F60C                pea.l      [A5 - 0x9F4]
00001A06  4EBA 00BE                jsr        [PC + 0xBE /* 00001AC6 */]
00001A0A  3EBC 000C                move.w     [A7], 0xC
00001A0E  486D F618                pea.l      [A5 - 0x9E8]
00001A12  4EBA 00B2                jsr        [PC + 0xB2 /* 00001AC6 */]
00001A16  3EBC 000C                move.w     [A7], 0xC
00001A1A  486D F624                pea.l      [A5 - 0x9DC]
00001A1E  4EBA 00A6                jsr        [PC + 0xA6 /* 00001AC6 */]
00001A22  3EBC 0002                move.w     [A7], 0x2
00001A26  486D F722                pea.l      [A5 - 0x8DE]
00001A2A  4EBA 009A                jsr        [PC + 0x9A /* 00001AC6 */]
00001A2E  3EBC 0008                move.w     [A7], 0x8
00001A32  486D F728                pea.l      [A5 - 0x8D8]
00001A36  4EBA 008E                jsr        [PC + 0x8E /* 00001AC6 */]
00001A3A  3EBC 0002                move.w     [A7], 0x2
00001A3E  486D F730                pea.l      [A5 - 0x8D0]
00001A42  4EBA 0082                jsr        [PC + 0x82 /* 00001AC6 */]
00001A46  3EBC 0002                move.w     [A7], 0x2
00001A4A  486D F732                pea.l      [A5 - 0x8CE]
00001A4E  4EBA 0076                jsr        [PC + 0x76 /* 00001AC6 */]
00001A52  3EBC 0001                move.w     [A7], 0x1
00001A56  486D F738                pea.l      [A5 - 0x8C8]
00001A5A  4EBA 006A                jsr        [PC + 0x6A /* 00001AC6 */]
00001A5E  3EBC 0004                move.w     [A7], 0x4
00001A62  486D F74C                pea.l      [A5 - 0x8B4]
00001A66  4EBA 005E                jsr        [PC + 0x5E /* 00001AC6 */]
00001A6A  3EBC 0004                move.w     [A7], 0x4
00001A6E  486D F750                pea.l      [A5 - 0x8B0]
00001A72  4EBA 0052                jsr        [PC + 0x52 /* 00001AC6 */]
00001A76  3EBC 0002                move.w     [A7], 0x2
00001A7A  486D F754                pea.l      [A5 - 0x8AC]
00001A7E  4EBA 0046                jsr        [PC + 0x46 /* 00001AC6 */]
00001A82  3EBC 0002                move.w     [A7], 0x2
00001A86  486D F758                pea.l      [A5 - 0x8A8]
00001A8A  4EBA 003A                jsr        [PC + 0x3A /* 00001AC6 */]
00001A8E  3EBC 0088                move.w     [A7], 0x88
00001A92  486D F75A                pea.l      [A5 - 0x8A6]
00001A96  4EBA 002E                jsr        [PC + 0x2E /* 00001AC6 */]
00001A9A  3EBC 0002                move.w     [A7], 0x2
00001A9E  486D F8F4                pea.l      [A5 - 0x70C]
00001AA2  4EBA 0022                jsr        [PC + 0x22 /* 00001AC6 */]
00001AA6  3EAD C922                move.w     [A7], [A5 - 0x36DE]
00001AAA  2F2D C924                move.l     -[A7], [A5 - 0x36DC]
00001AAE  4EBA 0016                jsr        [PC + 0x16 /* 00001AC6 */]
00001AB2  302D C922                move.w     D0, [A5 - 0x36DE]
00001AB6  E548                     lsl        D0.w, 2
00001AB8  3E80                     move.w     [A7], D0
00001ABA  2F2D C928                move.l     -[A7], [A5 - 0x36D8]
00001ABE  4EBA 0006                jsr        [PC + 0x6 /* 00001AC6 */]
label00001AC2:
00001AC2  4E5E                     unlink     A6
00001AC4  4E75                     rts
fn00001AC6:
00001AC6  4E56 0000                link       A6, 0
00001ACA  102D AADA                move.b     D0, [A5 - 0x5526]
00001ACE  673A                     beq        +0x3C /* 00001B0A */
00001AD0  6B38                     bmi        +0x3A /* 00001B0A */
00001AD2  5500                     subq.b     D0, 2
00001AD4  671C                     beq        +0x1E /* 00001AF2 */
00001AD6  6A32                     bpl        +0x34 /* 00001B0A */
00001AD8  7000                     moveq.l    D0, 0x00
00001ADA  302E 000C                move.w     D0, [A6 + 0xC]
00001ADE  2F00                     move.l     -[A7], D0
00001AE0  2F2E 0008                move.l     -[A7], [A6 + 0x8]
00001AE4  3F2D EC98                move.w     -[A7], [A5 - 0x1368]
00001AE8  4EBA F170                jsr        [PC - 0xE90 /* 00000C5A */]
00001AEC  4FEF 000A                lea.l      A7, [A7 + 0xA]
00001AF0  6018                     bra        +0x1A /* 00001B0A */
label00001AF2:
00001AF2  7000                     moveq.l    D0, 0x00
00001AF4  302E 000C                move.w     D0, [A6 + 0xC]
00001AF8  2F00                     move.l     -[A7], D0
00001AFA  2F2E 0008                move.l     -[A7], [A6 + 0x8]
00001AFE  3F2D EC98                move.w     -[A7], [A5 - 0x1368]
00001B02  4EBA F198                jsr        [PC - 0xE68 /* 00000C9C */]
00001B06  4FEF 000A                lea.l      A7, [A7 + 0xA]
label00001B0A:
00001B0A  4E5E                     unlink     A6
00001B0C  4E75                     rts
export_296:
fn00001B0E:
00001B0E  4E56 0000                link       A6, 0
label00001B12:
00001B12  206E 000C                movea.l    A0, [A6 + 0xC]
00001B16  226E 0008                movea.l    A1, [A6 + 0x8]
00001B1A  52AE 0008                addq.l     [A6 + 0x8], 1
00001B1E  1290                     move.b     [A1], [A0]
00001B20  206E 000C                movea.l    A0, [A6 + 0xC]
00001B24  52AE 000C                addq.l     [A6 + 0xC], 1
00001B28  4A10                     tst.b      [A0]
00001B2A  66E6                     bne        -0x18 /* 00001B12 */
00001B2C  4E5E                     unlink     A6
00001B2E  4E75                     rts
fn00001B30:
00001B30  4E56 FF9C                link       A6, -0x0064
00001B34  2F2E 0008                move.l     -[A7], [A6 + 0x8]
00001B38  486E FF9C                pea.l      [A6 - 0x64]
00001B3C  4EBA FFD0                jsr        [PC - 0x30 /* 00001B0E */]
00001B40  7000                     moveq.l    D0, 0x00
00001B42  102D AF84                move.b     D0, [A5 - 0x507C]
00001B46  3E80                     move.w     [A7], D0
00001B48  302D F290                move.w     D0, [A5 - 0xD70]
00001B4C  E248                     lsr        D0.w, 1
00001B4E  D06D F28C                add.w      D0, [A5 - 0xD74]
00001B52  0640 FFC4                addi.w     D0, 0xFFC4
00001B56  5640                     addq.w     D0, 3
00001B58  5040                     addq.w     D0, 8
00001B5A  3F00                     move.w     -[A7], D0
00001B5C  3F3C 012A                move.w     -[A7], 0x12A
00001B60  302D F290                move.w     D0, [A5 - 0xD70]
00001B64  E248                     lsr        D0.w, 1
00001B66  D06D F28C                add.w      D0, [A5 - 0xD74]
00001B6A  0640 FFC4                addi.w     D0, 0xFFC4
00001B6E  5640                     addq.w     D0, 3
00001B70  3F00                     move.w     -[A7], D0
00001B72  3F3C 0016                move.w     -[A7], 0x16
00001B76  4EBA EC48                jsr        [PC - 0x13B8 /* 000007C0 */]
00001B7A  3EBC 0001                move.w     [A7], 0x1
00001B7E  486E FF9C                pea.l      [A6 - 0x64]
00001B82  7000                     moveq.l    D0, 0x00
00001B84  102D AF7E                move.b     D0, [A5 - 0x5082]
00001B88  3F00                     move.w     -[A7], D0
00001B8A  302D F290                move.w     D0, [A5 - 0xD70]
00001B8E  E248                     lsr        D0.w, 1
00001B90  D06D F28C                add.w      D0, [A5 - 0xD74]
00001B94  0640 FFC4                addi.w     D0, 0xFFC4
00001B98  5640                     addq.w     D0, 3
00001B9A  3F00                     move.w     -[A7], D0
00001B9C  3F3C 00A0                move.w     -[A7], 0xA0
00001BA0  4EBA 0C26                jsr        [PC + 0xC26 /* 000027C8 */]
00001BA4  4E5E                     unlink     A6
00001BA6  4E75                     rts
00001BA8  4E75                     rts
00001BAA  48E7 0108                movem.l    -[A7], D7,A4
00001BAE  3F3C FFFF                move.w     -[A7], 0xFFFF
00001BB2  4EAD 065A                jsr        [A5 + 0x65A /* export_199, CODE:3 @ 00003CDA */]
00001BB6  7E01                     moveq.l    D7, 0x01
00001BB8  49ED ADE6                lea.l      A4, [A5 - 0x521A]
00001BBC  548F                     addq.l     A7, 2
00001BBE  6000 009A                bra        +0x9C /* 00001C5A */
label00001BC2:
00001BC2  302D AADE                move.w     D0, [A5 - 0x5522]
00001BC6  D047                     add.w      D0, D7
00001BC8  3F00                     move.w     -[A7], D0
00001BCA  2F3C 0000 14C2           move.l     -[A7], 0x14C2
00001BD0  486D AAD3                pea.l      [A5 - 0x552D]
00001BD4  4EAD 0CC2                jsr        [A5 + 0xCC2 /* export_404, CODE:7 @ 000048E6 */]
00001BD8  3EBC 0001                move.w     [A7], 0x1
00001BDC  486D AACA                pea.l      [A5 - 0x5536]
00001BE0  4EBA EF66                jsr        [PC - 0x109A /* 00000B48 */]
00001BE4  3B40 EC98                move.w     [A5 - 0x1368], D0
00001BE8  322D AADE                move.w     D1, [A5 - 0x5522]
00001BEC  D247                     add.w      D1, D7
00001BEE  3E81                     move.w     [A7], D1
00001BF0  2F3C 0000 14C8           move.l     -[A7], 0x14C8
00001BF6  2F0C                     move.l     -[A7], A4
00001BF8  4EAD 0CC2                jsr        [A5 + 0xCC2 /* export_404, CODE:7 @ 000048E6 */]
00001BFC  0C6D FFFF EC98           cmpi.w     [A5 - 0x1368], 0xFFFF
00001C02  4FEF 0016                lea.l      A7, [A7 + 0x16]
00001C06  674C                     beq        +0x4E /* 00001C54 */
00001C08  4EBA F76C                jsr        [PC - 0x894 /* 00001376 */]
00001C0C  5340                     subq.w     D0, 1
00001C0E  661E                     bne        +0x20 /* 00001C2E */
00001C10  486D AF4E                pea.l      [A5 - 0x50B2]
00001C14  302D AADE                move.w     D0, [A5 - 0x5522]
00001C18  D047                     add.w      D0, D7
00001C1A  3F00                     move.w     -[A7], D0
00001C1C  2F3C 0000 14CE           move.l     -[A7], 0x14CE
00001C22  2F0C                     move.l     -[A7], A4
00001C24  4EAD 0CC2                jsr        [A5 + 0xCC2 /* export_404, CODE:7 @ 000048E6 */]
00001C28  4FEF 000E                lea.l      A7, [A7 + 0xE]
00001C2C  6018                     bra        +0x1A /* 00001C46 */
label00001C2E:
00001C2E  302D AADE                move.w     D0, [A5 - 0x5522]
00001C32  D047                     add.w      D0, D7
00001C34  3F00                     move.w     -[A7], D0
00001C36  2F3C 0000 14D6           move.l     -[A7], 0x14D6
00001C3C  2F0C                     move.l     -[A7], A4
00001C3E  4EAD 0CC2                jsr        [A5 + 0xCC2 /* export_404, CODE:7 @ 000048E6 */]
00001C42  4FEF 000A                lea.l      A7, [A7 + 0xA]
label00001C46:
00001C46  3F2D EC98                move.w     -[A7], [A5 - 0x1368]
00001C4A  4EBA EF78                jsr        [PC - 0x1088 /* 00000BC4 */]
00001C4E  3B40 EC98                move.w     [A5 - 0x1368], D0
00001C52  548F                     addq.l     A7, 2
label00001C54:
00001C54  5247                     addq.w     D7, 1
00001C56  49EC 0028                lea.l      A4, [A4 + 0x28]
label00001C5A:
00001C5A  0C47 0009                cmpi.w     D7, 0x9 /* '\t' */
00001C5E  6F00 FF62                ble        -0x9C /* 00001BC2 */
00001C62  4CDF 1080                movem.l    D7,A4, [A7]+
00001C66  4E75                     rts
export_297:
fn00001C68:
00001C68  4E56 0000                link       A6, 0
00001C6C  48E7 0708                movem.l    -[A7], D5,D6,D7,A4
00001C70  3A2E 0008                move.w     D5, [A6 + 0x8]
00001C74  3E2E 001E                move.w     D7, [A6 + 0x1E]
00001C78  3C2E 0020                move.w     D6, [A6 + 0x20]
00001C7C  4A47                     tst.w      D7
00001C7E  6C08                     bge        +0xA /* 00001C88 */
00001C80  302E 001A                move.w     D0, [A6 + 0x1A]
00001C84  9047                     sub.w      D0, D7
00001C86  3E00                     move.w     D7, D0
label00001C88:
00001C88  4A46                     tst.w      D6
00001C8A  6C08                     bge        +0xA /* 00001C94 */
00001C8C  302E 001C                move.w     D0, [A6 + 0x1C]
00001C90  9046                     sub.w      D0, D6
00001C92  3C00                     move.w     D6, D0
label00001C94:
00001C94  3845                     movea.w    A4, D5
00001C96  D9CC                     add.l      A4, A4
00001C98  41ED AB0C                lea.l      A0, [A5 - 0x54F4]
00001C9C  D1CC                     add.l      A0, A4
00001C9E  30AE 001A                move.w     [A0], [A6 + 0x1A]
00001CA2  41ED AB48                lea.l      A0, [A5 - 0x54B8]
00001CA6  D1CC                     add.l      A0, A4
00001CA8  30AE 001C                move.w     [A0], [A6 + 0x1C]
00001CAC  41ED AB84                lea.l      A0, [A5 - 0x547C]
00001CB0  D1CC                     add.l      A0, A4
00001CB2  3087                     move.w     [A0], D7
00001CB4  41ED ABC0                lea.l      A0, [A5 - 0x5440]
00001CB8  D1CC                     add.l      A0, A4
00001CBA  3086                     move.w     [A0], D6
00001CBC  2BAE 0022 5520 AD46      move.l     [A5 - 0x52BA + D5 * 4], [A6 + 0x22]
00001CC4  1BAE 0027 5120 ABFC      move.b     [A5 - 0x5404 + D5], [A6 + 0x27]
00001CCC  1BAE 000B 5120 AC1A      move.b     [A5 - 0x53E6 + D5], [A6 + 0xB]
00001CD4  1BAE 000F 5120 AC56      move.b     [A5 - 0x53AA + D5], [A6 + 0xF]
00001CDC  1BAE 0011 5120 AC74      move.b     [A5 - 0x538C + D5], [A6 + 0x11]
00001CE4  1BAE 0013 5120 AC92      move.b     [A5 - 0x536E + D5], [A6 + 0x13]
00001CEC  1BAE 0015 5120 ACB0      move.b     [A5 - 0x5350 + D5], [A6 + 0x15]
00001CF4  1BAE 000D 5120 ACCE      move.b     [A5 - 0x5332 + D5], [A6 + 0xD]
00001CFC  1BAE 0017 5120 ACEC      move.b     [A5 - 0x5314 + D5], [A6 + 0x17]
00001D04  1BAE 0019 5120 AD0A      move.b     [A5 - 0x52F6 + D5], [A6 + 0x19]
00001D0C  1BAE 0029 5120 AD28      move.b     [A5 - 0x52D8 + D5], [A6 + 0x29]
00001D14  4CDF 10E0                movem.l    D5,D6,D7,A4, [A7]+
00001D18  4E5E                     unlink     A6
00001D1A  4E75                     rts
00001D1C  48E7 0108                movem.l    -[A7], D7,A4
00001D20  7E00                     moveq.l    D7, 0x00
00001D22  49ED AB0C                lea.l      A4, [A5 - 0x54F4]
00001D26  6008                     bra        +0xA /* 00001D30 */
label00001D28:
00001D28  38BC FFFF                move.w     [A4], 0xFFFF
00001D2C  5247                     addq.w     D7, 1
00001D2E  548C                     addq.l     A4, 2
label00001D30:
00001D30  0C47 001E                cmpi.w     D7, 0x1E
00001D34  6DF2                     blt        -0xC /* 00001D28 */
00001D36  4A6D AF76                tst.w      [A5 - 0x508A]
00001D3A  6600 0252                bne        +0x254 /* 00001F8E */
00001D3E  2F3C 0001 0001           move.l     -[A7], 0x10001
00001D44  2F3C 0000 14F4           move.l     -[A7], 0x14F4
00001D4A  302D F290                move.w     D0, [A5 - 0xD70]
00001D4E  E248                     lsr        D0.w, 1
00001D50  D06D F28C                add.w      D0, [A5 - 0xD74]
00001D54  0640 003C                addi.w     D0, 0x3C /* '<' */
00001D58  3F00                     move.w     -[A7], D0
00001D5A  3F3C 012C                move.w     -[A7], 0x12C
00001D5E  302D F290                move.w     D0, [A5 - 0xD70]
00001D62  E248                     lsr        D0.w, 1
00001D64  D06D F28C                add.w      D0, [A5 - 0xD74]
00001D68  0640 FFC4                addi.w     D0, 0xFFC4
00001D6C  3F00                     move.w     -[A7], D0
00001D6E  3F3C 0014                move.w     -[A7], 0x14
00001D72  7000                     moveq.l    D0, 0x00
00001D74  102D AF84                move.b     D0, [A5 - 0x507C]
00001D78  3F00                     move.w     -[A7], D0
00001D7A  7000                     moveq.l    D0, 0x00
00001D7C  102D AF86                move.b     D0, [A5 - 0x507A]
00001D80  3F00                     move.w     -[A7], D0
00001D82  7000                     moveq.l    D0, 0x00
00001D84  102D AF7D                move.b     D0, [A5 - 0x5083]
00001D88  3F00                     move.w     -[A7], D0
00001D8A  7000                     moveq.l    D0, 0x00
00001D8C  102D AF7C                move.b     D0, [A5 - 0x5084]
00001D90  3F00                     move.w     -[A7], D0
00001D92  7000                     moveq.l    D0, 0x00
00001D94  102D AF7B                move.b     D0, [A5 - 0x5085]
00001D98  3F00                     move.w     -[A7], D0
00001D9A  7000                     moveq.l    D0, 0x00
00001D9C  102D AF7A                move.b     D0, [A5 - 0x5086]
00001DA0  3F00                     move.w     -[A7], D0
00001DA2  7000                     moveq.l    D0, 0x00
00001DA4  102D AF7E                move.b     D0, [A5 - 0x5082]
00001DA8  3F00                     move.w     -[A7], D0
00001DAA  7000                     moveq.l    D0, 0x00
00001DAC  102D AF84                move.b     D0, [A5 - 0x507C]
00001DB0  3F00                     move.w     -[A7], D0
00001DB2  3F3C 0012                move.w     -[A7], 0x12
00001DB6  4EBA FEB0                jsr        [PC - 0x150 /* 00001C68 */]
00001DBA  2EBC 0001 0001           move.l     [A7], 0x10001
00001DC0  2F2D AF92                move.l     -[A7], [A5 - 0x506E]
00001DC4  2F3C FFCE FFF4           move.l     -[A7], 0xFFCEFFF4
00001DCA  302D F290                move.w     D0, [A5 - 0xD70]
00001DCE  E248                     lsr        D0.w, 1
00001DD0  D06D F28C                add.w      D0, [A5 - 0xD74]
00001DD4  0640 FFC4                addi.w     D0, 0xFFC4
00001DD8  0640 0025                addi.w     D0, 0x25 /* '%' */
00001DDC  3F00                     move.w     -[A7], D0
00001DDE  3F3C 00F2                move.w     -[A7], 0xF2
00001DE2  7000                     moveq.l    D0, 0x00
00001DE4  102D AF87                move.b     D0, [A5 - 0x5079]
00001DE8  3F00                     move.w     -[A7], D0
00001DEA  7000                     moveq.l    D0, 0x00
00001DEC  102D AF86                move.b     D0, [A5 - 0x507A]
00001DF0  3F00                     move.w     -[A7], D0
00001DF2  7000                     moveq.l    D0, 0x00
00001DF4  102D AF83                move.b     D0, [A5 - 0x507D]
00001DF8  3F00                     move.w     -[A7], D0
00001DFA  7000                     moveq.l    D0, 0x00
00001DFC  102D AF82                move.b     D0, [A5 - 0x507E]
00001E00  3F00                     move.w     -[A7], D0
00001E02  7000                     moveq.l    D0, 0x00
00001E04  102D AF81                move.b     D0, [A5 - 0x507F]
00001E08  3F00                     move.w     -[A7], D0
00001E0A  7000                     moveq.l    D0, 0x00
00001E0C  102D AF80                move.b     D0, [A5 - 0x5080]
00001E10  3F00                     move.w     -[A7], D0
00001E12  7000                     moveq.l    D0, 0x00
00001E14  102D AF85                move.b     D0, [A5 - 0x507B]
00001E18  3F00                     move.w     -[A7], D0
00001E1A  7000                     moveq.l    D0, 0x00
00001E1C  102D AF84                move.b     D0, [A5 - 0x507C]
00001E20  3F00                     move.w     -[A7], D0
00001E22  3F3C 000A                move.w     -[A7], 0xA /* '\n' */
00001E26  4EBA FE40                jsr        [PC - 0x1C0 /* 00001C68 */]
00001E2A  2EBC 0001 0001           move.l     [A7], 0x10001
00001E30  2F2D AF96                move.l     -[A7], [A5 - 0x506A]
00001E34  2F3C FFCE FFF4           move.l     -[A7], 0xFFCEFFF4
00001E3A  302D F290                move.w     D0, [A5 - 0xD70]
00001E3E  E248                     lsr        D0.w, 1
00001E40  D06D F28C                add.w      D0, [A5 - 0xD74]
00001E44  0640 FFC4                addi.w     D0, 0xFFC4
00001E48  0640 0025                addi.w     D0, 0x25 /* '%' */
00001E4C  0640 000F                addi.w     D0, 0xF
00001E50  3F00                     move.w     -[A7], D0
00001E52  3F3C 00F2                move.w     -[A7], 0xF2
00001E56  7000                     moveq.l    D0, 0x00
00001E58  102D AF87                move.b     D0, [A5 - 0x5079]
00001E5C  3F00                     move.w     -[A7], D0
00001E5E  7000                     moveq.l    D0, 0x00
00001E60  102D AF86                move.b     D0, [A5 - 0x507A]
00001E64  3F00                     move.w     -[A7], D0
00001E66  7000                     moveq.l    D0, 0x00
00001E68  102D AF83                move.b     D0, [A5 - 0x507D]
00001E6C  3F00                     move.w     -[A7], D0
00001E6E  7000                     moveq.l    D0, 0x00
00001E70  102D AF82                move.b     D0, [A5 - 0x507E]
00001E74  3F00                     move.w     -[A7], D0
00001E76  7000                     moveq.l    D0, 0x00
00001E78  102D AF81                move.b     D0, [A5 - 0x507F]
00001E7C  3F00                     move.w     -[A7], D0
00001E7E  7000                     moveq.l    D0, 0x00
00001E80  102D AF80                move.b     D0, [A5 - 0x5080]
00001E84  3F00                     move.w     -[A7], D0
00001E86  7000                     moveq.l    D0, 0x00
00001E88  102D AF85                move.b     D0, [A5 - 0x507B]
00001E8C  3F00                     move.w     -[A7], D0
00001E8E  7000                     moveq.l    D0, 0x00
00001E90  102D AF84                move.b     D0, [A5 - 0x507C]
00001E94  3F00                     move.w     -[A7], D0
00001E96  3F3C 000B                move.w     -[A7], 0xB
00001E9A  4EBA FDCC                jsr        [PC - 0x234 /* 00001C68 */]
00001E9E  2EBC 0001 0001           move.l     [A7], 0x10001
00001EA4  2F2D AF9A                move.l     -[A7], [A5 - 0x5066]
00001EA8  2F3C FFCE FFF4           move.l     -[A7], 0xFFCEFFF4
00001EAE  302D F290                move.w     D0, [A5 - 0xD70]
00001EB2  E248                     lsr        D0.w, 1
00001EB4  D06D F28C                add.w      D0, [A5 - 0xD74]
00001EB8  0640 FFC4                addi.w     D0, 0xFFC4
00001EBC  0640 0025                addi.w     D0, 0x25 /* '%' */
00001EC0  0640 001E                addi.w     D0, 0x1E
00001EC4  3F00                     move.w     -[A7], D0
00001EC6  3F3C 00F2                move.w     -[A7], 0xF2
00001ECA  7000                     moveq.l    D0, 0x00
00001ECC  102D AF87                move.b     D0, [A5 - 0x5079]
00001ED0  3F00                     move.w     -[A7], D0
00001ED2  7000                     moveq.l    D0, 0x00
00001ED4  102D AF86                move.b     D0, [A5 - 0x507A]
00001ED8  3F00                     move.w     -[A7], D0
00001EDA  7000                     moveq.l    D0, 0x00
00001EDC  102D AF83                move.b     D0, [A5 - 0x507D]
00001EE0  3F00                     move.w     -[A7], D0
00001EE2  7000                     moveq.l    D0, 0x00
00001EE4  102D AF82                move.b     D0, [A5 - 0x507E]
00001EE8  3F00                     move.w     -[A7], D0
00001EEA  7000                     moveq.l    D0, 0x00
00001EEC  102D AF81                move.b     D0, [A5 - 0x507F]
00001EF0  3F00                     move.w     -[A7], D0
00001EF2  7000                     moveq.l    D0, 0x00
00001EF4  102D AF80                move.b     D0, [A5 - 0x5080]
00001EF8  3F00                     move.w     -[A7], D0
00001EFA  7000                     moveq.l    D0, 0x00
00001EFC  102D AF85                move.b     D0, [A5 - 0x507B]
00001F00  3F00                     move.w     -[A7], D0
00001F02  7000                     moveq.l    D0, 0x00
00001F04  102D AF84                move.b     D0, [A5 - 0x507C]
00001F08  3F00                     move.w     -[A7], D0
00001F0A  3F3C 000C                move.w     -[A7], 0xC
00001F0E  4EBA FD58                jsr        [PC - 0x2A8 /* 00001C68 */]
00001F12  4FEF 007C                lea.l      A7, [A7 + 0x7C]
00001F16  2F3C 0001 0001           move.l     -[A7], 0x10001
00001F1C  2F2D AFA2                move.l     -[A7], [A5 - 0x505E]
00001F20  2F3C FFCE FFF4           move.l     -[A7], 0xFFCEFFF4
00001F26  302D F290                move.w     D0, [A5 - 0xD70]
00001F2A  E248                     lsr        D0.w, 1
00001F2C  D06D F28C                add.w      D0, [A5 - 0xD74]
00001F30  0640 FFC4                addi.w     D0, 0xFFC4
00001F34  0640 0025                addi.w     D0, 0x25 /* '%' */
00001F38  0640 002D                addi.w     D0, 0x2D /* '-' */
00001F3C  3F00                     move.w     -[A7], D0
00001F3E  3F3C 00F2                move.w     -[A7], 0xF2
00001F42  7000                     moveq.l    D0, 0x00
00001F44  102D AF87                move.b     D0, [A5 - 0x5079]
00001F48  3F00                     move.w     -[A7], D0
00001F4A  7000                     moveq.l    D0, 0x00
00001F4C  102D AF86                move.b     D0, [A5 - 0x507A]
00001F50  3F00                     move.w     -[A7], D0
00001F52  7000                     moveq.l    D0, 0x00
00001F54  102D AF83                move.b     D0, [A5 - 0x507D]
00001F58  3F00                     move.w     -[A7], D0
00001F5A  7000                     moveq.l    D0, 0x00
00001F5C  102D AF82                move.b     D0, [A5 - 0x507E]
00001F60  3F00                     move.w     -[A7], D0
00001F62  7000                     moveq.l    D0, 0x00
00001F64  102D AF81                move.b     D0, [A5 - 0x507F]
00001F68  3F00                     move.w     -[A7], D0
00001F6A  7000                     moveq.l    D0, 0x00
00001F6C  102D AF80                move.b     D0, [A5 - 0x5080]
00001F70  3F00                     move.w     -[A7], D0
00001F72  7000                     moveq.l    D0, 0x00
00001F74  102D AF85                move.b     D0, [A5 - 0x507B]
00001F78  3F00                     move.w     -[A7], D0
00001F7A  7000                     moveq.l    D0, 0x00
00001F7C  102D AF84                move.b     D0, [A5 - 0x507C]
00001F80  3F00                     move.w     -[A7], D0
00001F82  3F3C 000D                move.w     -[A7], 0xD /* '\r' */
00001F86  4EBA FCE0                jsr        [PC - 0x320 /* 00001C68 */]
00001F8A  4FEF 0022                lea.l      A7, [A7 + 0x22]
label00001F8E:
00001F8E  0C6D 0001 AF76           cmpi.w     [A5 - 0x508A], 0x1
00001F94  670A                     beq        +0xC /* 00001FA0 */
00001F96  0C6D 0002 AF76           cmpi.w     [A5 - 0x508A], 0x2
00001F9C  6600 03F0                bne        +0x3F2 /* 0000238E */
label00001FA0:
00001FA0  2F3C 0001 0001           move.l     -[A7], 0x10001
00001FA6  2F3C 0000 14F6           move.l     -[A7], 0x14F6
00001FAC  302D F290                move.w     D0, [A5 - 0xD70]
00001FB0  E248                     lsr        D0.w, 1
00001FB2  D06D F28C                add.w      D0, [A5 - 0xD74]
00001FB6  0640 003C                addi.w     D0, 0x3C /* '<' */
00001FBA  3F00                     move.w     -[A7], D0
00001FBC  3F3C 012C                move.w     -[A7], 0x12C
00001FC0  302D F290                move.w     D0, [A5 - 0xD70]
00001FC4  E248                     lsr        D0.w, 1
00001FC6  D06D F28C                add.w      D0, [A5 - 0xD74]
00001FCA  0640 FFC4                addi.w     D0, 0xFFC4
00001FCE  3F00                     move.w     -[A7], D0
00001FD0  3F3C 0014                move.w     -[A7], 0x14
00001FD4  7000                     moveq.l    D0, 0x00
00001FD6  102D AF87                move.b     D0, [A5 - 0x5079]
00001FDA  3F00                     move.w     -[A7], D0
00001FDC  7000                     moveq.l    D0, 0x00
00001FDE  102D AF86                move.b     D0, [A5 - 0x507A]
00001FE2  3F00                     move.w     -[A7], D0
00001FE4  7000                     moveq.l    D0, 0x00
00001FE6  102D AF83                move.b     D0, [A5 - 0x507D]
00001FEA  3F00                     move.w     -[A7], D0
00001FEC  7000                     moveq.l    D0, 0x00
00001FEE  102D AF82                move.b     D0, [A5 - 0x507E]
00001FF2  3F00                     move.w     -[A7], D0
00001FF4  7000                     moveq.l    D0, 0x00
00001FF6  102D AF81                move.b     D0, [A5 - 0x507F]
00001FFA  3F00                     move.w     -[A7], D0
00001FFC  7000                     moveq.l    D0, 0x00
00001FFE  102D AF80                move.b     D0, [A5 - 0x5080]
00002002  3F00                     move.w     -[A7], D0
00002004  7000                     moveq.l    D0, 0x00
00002006  102D AF85                move.b     D0, [A5 - 0x507B]
0000200A  3F00                     move.w     -[A7], D0
0000200C  7000                     moveq.l    D0, 0x00
0000200E  102D AF84                move.b     D0, [A5 - 0x507C]
00002012  3F00                     move.w     -[A7], D0
00002014  3F3C 0012                move.w     -[A7], 0x12
00002018  4EBA FC4E                jsr        [PC - 0x3B2 /* 00001C68 */]
0000201C  2EBC 0001 0001           move.l     [A7], 0x10001
00002022  2F3C 0000 14F8           move.l     -[A7], 0x14F8
00002028  2F3C FF46 FF9A           move.l     -[A7], 0xFF46FF9A
0000202E  302D F290                move.w     D0, [A5 - 0xD70]
00002032  E248                     lsr        D0.w, 1
00002034  D06D F28C                add.w      D0, [A5 - 0xD74]
00002038  0640 FFC4                addi.w     D0, 0xFFC4
0000203C  0640 000F                addi.w     D0, 0xF
00002040  5540                     subq.w     D0, 2
00002042  3F00                     move.w     -[A7], D0
00002044  3F3C 001A                move.w     -[A7], 0x1A
00002048  7000                     moveq.l    D0, 0x00
0000204A  102D AF87                move.b     D0, [A5 - 0x5079]
0000204E  3F00                     move.w     -[A7], D0
00002050  7000                     moveq.l    D0, 0x00
00002052  102D AF86                move.b     D0, [A5 - 0x507A]
00002056  3F00                     move.w     -[A7], D0
00002058  7000                     moveq.l    D0, 0x00
0000205A  102D AF82                move.b     D0, [A5 - 0x507E]
0000205E  3F00                     move.w     -[A7], D0
00002060  7000                     moveq.l    D0, 0x00
00002062  102D AF83                move.b     D0, [A5 - 0x507D]
00002066  3F00                     move.w     -[A7], D0
00002068  7000                     moveq.l    D0, 0x00
0000206A  102D AF80                move.b     D0, [A5 - 0x5080]
0000206E  3F00                     move.w     -[A7], D0
00002070  7000                     moveq.l    D0, 0x00
00002072  102D AF81                move.b     D0, [A5 - 0x507F]
00002076  3F00                     move.w     -[A7], D0
00002078  7000                     moveq.l    D0, 0x00
0000207A  102D AF85                move.b     D0, [A5 - 0x507B]
0000207E  3F00                     move.w     -[A7], D0
00002080  7000                     moveq.l    D0, 0x00
00002082  102D AF84                move.b     D0, [A5 - 0x507C]
00002086  3F00                     move.w     -[A7], D0
00002088  3F3C 0013                move.w     -[A7], 0x13
0000208C  4EBA FBDA                jsr        [PC - 0x426 /* 00001C68 */]
00002090  0C6D 0002 AF76           cmpi.w     [A5 - 0x508A], 0x2
00002096  4FEF 0040                lea.l      A7, [A7 + 0x40]
0000209A  6778                     beq        +0x7A /* 00002114 */
0000209C  2F3C 0001 0001           move.l     -[A7], 0x10001
000020A2  2F2D AFA6                move.l     -[A7], [A5 - 0x505A]
000020A6  2F3C FFCE FFF4           move.l     -[A7], 0xFFCEFFF4
000020AC  302D F290                move.w     D0, [A5 - 0xD70]
000020B0  E248                     lsr        D0.w, 1
000020B2  D06D F28C                add.w      D0, [A5 - 0xD74]
000020B6  0640 FFC4                addi.w     D0, 0xFFC4
000020BA  0640 0025                addi.w     D0, 0x25 /* '%' */
000020BE  0640 000F                addi.w     D0, 0xF
000020C2  3F00                     move.w     -[A7], D0
000020C4  3F3C 00F2                move.w     -[A7], 0xF2
000020C8  7000                     moveq.l    D0, 0x00
000020CA  102D AF87                move.b     D0, [A5 - 0x5079]
000020CE  3F00                     move.w     -[A7], D0
000020D0  7000                     moveq.l    D0, 0x00
000020D2  102D AF86                move.b     D0, [A5 - 0x507A]
000020D6  3F00                     move.w     -[A7], D0
000020D8  7000                     moveq.l    D0, 0x00
000020DA  102D AF83                move.b     D0, [A5 - 0x507D]
000020DE  3F00                     move.w     -[A7], D0
000020E0  7000                     moveq.l    D0, 0x00
000020E2  102D AF82                move.b     D0, [A5 - 0x507E]
000020E6  3F00                     move.w     -[A7], D0
000020E8  7000                     moveq.l    D0, 0x00
000020EA  102D AF81                move.b     D0, [A5 - 0x507F]
000020EE  3F00                     move.w     -[A7], D0
000020F0  7000                     moveq.l    D0, 0x00
000020F2  102D AF80                move.b     D0, [A5 - 0x5080]
000020F6  3F00                     move.w     -[A7], D0
000020F8  7000                     moveq.l    D0, 0x00
000020FA  102D AF85                move.b     D0, [A5 - 0x507B]
000020FE  3F00                     move.w     -[A7], D0
00002100  7000                     moveq.l    D0, 0x00
00002102  102D AF84                move.b     D0, [A5 - 0x507C]
00002106  3F00                     move.w     -[A7], D0
00002108  3F3C 000E                move.w     -[A7], 0xE
0000210C  4EBA FB5A                jsr        [PC - 0x4A6 /* 00001C68 */]
00002110  4FEF 0022                lea.l      A7, [A7 + 0x22]
label00002114:
00002114  0C6D 0002 AF76           cmpi.w     [A5 - 0x508A], 0x2
0000211A  667C                     bne        +0x7E /* 00002198 */
0000211C  2F3C 0001 0001           move.l     -[A7], 0x10001
00002122  2F2D AF9E                move.l     -[A7], [A5 - 0x5062]
00002126  2F3C FFCE FFF4           move.l     -[A7], 0xFFCEFFF4
0000212C  302D F290                move.w     D0, [A5 - 0xD70]
00002130  E248                     lsr        D0.w, 1
00002132  D06D F28C                add.w      D0, [A5 - 0xD74]
00002136  0640 FFC4                addi.w     D0, 0xFFC4
0000213A  0640 0025                addi.w     D0, 0x25 /* '%' */
0000213E  0640 000F                addi.w     D0, 0xF
00002142  5E40                     addq.w     D0, 7
00002144  3F00                     move.w     -[A7], D0
00002146  3F3C 00F2                move.w     -[A7], 0xF2
0000214A  7000                     moveq.l    D0, 0x00
0000214C  102D AF87                move.b     D0, [A5 - 0x5079]
00002150  3F00                     move.w     -[A7], D0
00002152  7000                     moveq.l    D0, 0x00
00002154  102D AF86                move.b     D0, [A5 - 0x507A]
00002158  3F00                     move.w     -[A7], D0
0000215A  7000                     moveq.l    D0, 0x00
0000215C  102D AF83                move.b     D0, [A5 - 0x507D]
00002160  3F00                     move.w     -[A7], D0
00002162  7000                     moveq.l    D0, 0x00
00002164  102D AF82                move.b     D0, [A5 - 0x507E]
00002168  3F00                     move.w     -[A7], D0
0000216A  7000                     moveq.l    D0, 0x00
0000216C  102D AF81                move.b     D0, [A5 - 0x507F]
00002170  3F00                     move.w     -[A7], D0
00002172  7000                     moveq.l    D0, 0x00
00002174  102D AF80                move.b     D0, [A5 - 0x5080]
00002178  3F00                     move.w     -[A7], D0
0000217A  7000                     moveq.l    D0, 0x00
0000217C  102D AF85                move.b     D0, [A5 - 0x507B]
00002180  3F00                     move.w     -[A7], D0
00002182  7000                     moveq.l    D0, 0x00
00002184  102D AF84                move.b     D0, [A5 - 0x507C]
00002188  3F00                     move.w     -[A7], D0
0000218A  3F3C 000F                move.w     -[A7], 0xF
0000218E  4EBA FAD8                jsr        [PC - 0x528 /* 00001C68 */]
00002192  4FEF 0022                lea.l      A7, [A7 + 0x22]
00002196  6078                     bra        +0x7A /* 00002210 */
label00002198:
00002198  2F3C 0001 0001           move.l     -[A7], 0x10001
0000219E  2F2D AF9E                move.l     -[A7], [A5 - 0x5062]
000021A2  2F3C FFCE FFF4           move.l     -[A7], 0xFFCEFFF4
000021A8  302D F290                move.w     D0, [A5 - 0xD70]
000021AC  E248                     lsr        D0.w, 1
000021AE  D06D F28C                add.w      D0, [A5 - 0xD74]
000021B2  0640 FFC4                addi.w     D0, 0xFFC4
000021B6  0640 0025                addi.w     D0, 0x25 /* '%' */
000021BA  0640 001E                addi.w     D0, 0x1E
000021BE  3F00                     move.w     -[A7], D0
000021C0  3F3C 00F2                move.w     -[A7], 0xF2
000021C4  7000                     moveq.l    D0, 0x00
000021C6  102D AF87                move.b     D0, [A5 - 0x5079]
000021CA  3F00                     move.w     -[A7], D0
000021CC  7000                     moveq.l    D0, 0x00
000021CE  102D AF86                move.b     D0, [A5 - 0x507A]
000021D2  3F00                     move.w     -[A7], D0
000021D4  7000                     moveq.l    D0, 0x00
000021D6  102D AF83                move.b     D0, [A5 - 0x507D]
000021DA  3F00                     move.w     -[A7], D0
000021DC  7000                     moveq.l    D0, 0x00
000021DE  102D AF82                move.b     D0, [A5 - 0x507E]
000021E2  3F00                     move.w     -[A7], D0
000021E4  7000                     moveq.l    D0, 0x00
000021E6  102D AF81                move.b     D0, [A5 - 0x507F]
000021EA  3F00                     move.w     -[A7], D0
000021EC  7000                     moveq.l    D0, 0x00
000021EE  102D AF80                move.b     D0, [A5 - 0x5080]
000021F2  3F00                     move.w     -[A7], D0
000021F4  7000                     moveq.l    D0, 0x00
000021F6  102D AF85                move.b     D0, [A5 - 0x507B]
000021FA  3F00                     move.w     -[A7], D0
000021FC  7000                     moveq.l    D0, 0x00
000021FE  102D AF84                move.b     D0, [A5 - 0x507C]
00002202  3F00                     move.w     -[A7], D0
00002204  3F3C 000F                move.w     -[A7], 0xF
00002208  4EBA FA5E                jsr        [PC - 0x5A2 /* 00001C68 */]
0000220C  4FEF 0022                lea.l      A7, [A7 + 0x22]
label00002210:
00002210  7E01                     moveq.l    D7, 0x01
00002212  49ED ADE6                lea.l      A4, [A5 - 0x521A]
00002216  607C                     bra        +0x7E /* 00002294 */
label00002218:
00002218  42A7                     clr.l      -[A7]
0000221A  2F0C                     move.l     -[A7], A4
0000221C  2F3C FF4A FFF7           move.l     -[A7], 0xFF4AFFF7
00002222  302D F290                move.w     D0, [A5 - 0xD70]
00002226  E248                     lsr        D0.w, 1
00002228  D06D F28C                add.w      D0, [A5 - 0xD74]
0000222C  0640 FFC4                addi.w     D0, 0xFFC4
00002230  0640 000F                addi.w     D0, 0xF
00002234  72FF                     moveq.l    D1, 0xFFFFFFFF
00002236  D247                     add.w      D1, D7
00002238  C3FC 000B                muls.w     D1, 0xB
0000223C  D041                     add.w      D0, D1
0000223E  3F00                     move.w     -[A7], D0
00002240  3F3C 001C                move.w     -[A7], 0x1C
00002244  7000                     moveq.l    D0, 0x00
00002246  102D AF90                move.b     D0, [A5 - 0x5070]
0000224A  3F00                     move.w     -[A7], D0
0000224C  7000                     moveq.l    D0, 0x00
0000224E  102D AF8F                move.b     D0, [A5 - 0x5071]
00002252  3F00                     move.w     -[A7], D0
00002254  7000                     moveq.l    D0, 0x00
00002256  102D AF84                move.b     D0, [A5 - 0x507C]
0000225A  3F00                     move.w     -[A7], D0
0000225C  7000                     moveq.l    D0, 0x00
0000225E  102D AF84                move.b     D0, [A5 - 0x507C]
00002262  3F00                     move.w     -[A7], D0
00002264  7000                     moveq.l    D0, 0x00
00002266  102D AF84                move.b     D0, [A5 - 0x507C]
0000226A  3F00                     move.w     -[A7], D0
0000226C  7000                     moveq.l    D0, 0x00
0000226E  102D AF84                move.b     D0, [A5 - 0x507C]
00002272  3F00                     move.w     -[A7], D0
00002274  7000                     moveq.l    D0, 0x00
00002276  102D AF8E                move.b     D0, [A5 - 0x5072]
0000227A  3F00                     move.w     -[A7], D0
0000227C  7000                     moveq.l    D0, 0x00
0000227E  102D AF8D                move.b     D0, [A5 - 0x5073]
00002282  3F00                     move.w     -[A7], D0
00002284  3F07                     move.w     -[A7], D7
00002286  4EBA F9E0                jsr        [PC - 0x620 /* 00001C68 */]
0000228A  4FEF 0022                lea.l      A7, [A7 + 0x22]
0000228E  5247                     addq.w     D7, 1
00002290  49EC 0028                lea.l      A4, [A4 + 0x28]
label00002294:
00002294  0C47 0009                cmpi.w     D7, 0x9 /* '\t' */
00002298  6F00 FF7E                ble        -0x80 /* 00002218 */
0000229C  2F3C 0001 0001           move.l     -[A7], 0x10001
000022A2  2F3C 0000 14FA           move.l     -[A7], 0x14FA
000022A8  2F3C FFF0 FFD1           move.l     -[A7], 0xFFF0FFD1
000022AE  302D F290                move.w     D0, [A5 - 0xD70]
000022B2  E248                     lsr        D0.w, 1
000022B4  D06D F28C                add.w      D0, [A5 - 0xD74]
000022B8  0640 FFC4                addi.w     D0, 0xFFC4
000022BC  0640 000F                addi.w     D0, 0xF
000022C0  5440                     addq.w     D0, 2
000022C2  3F00                     move.w     -[A7], D0
000022C4  3F3C 00D8                move.w     -[A7], 0xD8
000022C8  7000                     moveq.l    D0, 0x00
000022CA  102D AF90                move.b     D0, [A5 - 0x5070]
000022CE  3F00                     move.w     -[A7], D0
000022D0  7000                     moveq.l    D0, 0x00
000022D2  102D AF8F                move.b     D0, [A5 - 0x5071]
000022D6  3F00                     move.w     -[A7], D0
000022D8  7000                     moveq.l    D0, 0x00
000022DA  102D AF83                move.b     D0, [A5 - 0x507D]
000022DE  3F00                     move.w     -[A7], D0
000022E0  7000                     moveq.l    D0, 0x00
000022E2  102D AF82                move.b     D0, [A5 - 0x507E]
000022E6  3F00                     move.w     -[A7], D0
000022E8  7000                     moveq.l    D0, 0x00
000022EA  102D AF81                move.b     D0, [A5 - 0x507F]
000022EE  3F00                     move.w     -[A7], D0
000022F0  7000                     moveq.l    D0, 0x00
000022F2  102D AF80                move.b     D0, [A5 - 0x5080]
000022F6  3F00                     move.w     -[A7], D0
000022F8  7000                     moveq.l    D0, 0x00
000022FA  102D AF8E                move.b     D0, [A5 - 0x5072]
000022FE  3F00                     move.w     -[A7], D0
00002300  7000                     moveq.l    D0, 0x00
00002302  102D AF8D                move.b     D0, [A5 - 0x5073]
00002306  3F00                     move.w     -[A7], D0
00002308  3F3C 0010                move.w     -[A7], 0x10
0000230C  4EBA F95A                jsr        [PC - 0x6A6 /* 00001C68 */]
00002310  2EBC 0001 0001           move.l     [A7], 0x10001
00002316  2F3C 0000 14FC           move.l     -[A7], 0x14FC
0000231C  2F3C FFF0 FFD3           move.l     -[A7], 0xFFF0FFD3
00002322  302D F290                move.w     D0, [A5 - 0xD70]
00002326  E248                     lsr        D0.w, 1
00002328  D06D F28C                add.w      D0, [A5 - 0xD74]
0000232C  0640 FFC4                addi.w     D0, 0xFFC4
00002330  0640 000F                addi.w     D0, 0xF
00002334  5440                     addq.w     D0, 2
00002336  0640 0031                addi.w     D0, 0x31 /* '1' */
0000233A  5240                     addq.w     D0, 1
0000233C  3F00                     move.w     -[A7], D0
0000233E  3F3C 00D8                move.w     -[A7], 0xD8
00002342  7000                     moveq.l    D0, 0x00
00002344  102D AF90                move.b     D0, [A5 - 0x5070]
00002348  3F00                     move.w     -[A7], D0
0000234A  7000                     moveq.l    D0, 0x00
0000234C  102D AF8F                move.b     D0, [A5 - 0x5071]
00002350  3F00                     move.w     -[A7], D0
00002352  7000                     moveq.l    D0, 0x00
00002354  102D AF83                move.b     D0, [A5 - 0x507D]
00002358  3F00                     move.w     -[A7], D0
0000235A  7000                     moveq.l    D0, 0x00
0000235C  102D AF82                move.b     D0, [A5 - 0x507E]
00002360  3F00                     move.w     -[A7], D0
00002362  7000                     moveq.l    D0, 0x00
00002364  102D AF81                move.b     D0, [A5 - 0x507F]
00002368  3F00                     move.w     -[A7], D0
0000236A  7000                     moveq.l    D0, 0x00
0000236C  102D AF80                move.b     D0, [A5 - 0x5080]
00002370  3F00                     move.w     -[A7], D0
00002372  7000                     moveq.l    D0, 0x00
00002374  102D AF8E                move.b     D0, [A5 - 0x5072]
00002378  3F00                     move.w     -[A7], D0
0000237A  7000                     moveq.l    D0, 0x00
0000237C  102D AF8D                move.b     D0, [A5 - 0x5073]
00002380  3F00                     move.w     -[A7], D0
00002382  3F3C 0011                move.w     -[A7], 0x11
00002386  4EBA F8E0                jsr        [PC - 0x720 /* 00001C68 */]
0000238A  4FEF 0040                lea.l      A7, [A7 + 0x40]
label0000238E:
0000238E  4CDF 1080                movem.l    D7,A4, [A7]+
00002392  4E75                     rts
00002394  4E56 FFFE                link       A6, -0x0002
00002398  2F07                     move.l     -[A7], D7
0000239A  2F3C 0012 0000           move.l     -[A7], 0x120000
000023A0  4EBA 00E2                jsr        [PC + 0xE2 /* 00002484 */]
000023A4  4A6D AF76                tst.w      [A5 - 0x508A]
000023A8  588F                     addq.l     A7, 4
000023AA  663A                     bne        +0x3C /* 000023E6 */
000023AC  2F3C 000A 0000           move.l     -[A7], 0xA0000 /* '\n\0\0' */
000023B2  4EBA 00D0                jsr        [PC + 0xD0 /* 00002484 */]
000023B6  2EBC 000B 0000           move.l     [A7], 0xB0000
000023BC  4EBA 00C6                jsr        [PC + 0xC6 /* 00002484 */]
000023C0  2EBC 000D 0000           move.l     [A7], 0xD0000 /* '\r\0\0' */
000023C6  4EBA 00BC                jsr        [PC + 0xBC /* 00002484 */]
000023CA  2EBC 000C 0000           move.l     [A7], 0xC0000
000023D0  4EBA 00B2                jsr        [PC + 0xB2 /* 00002484 */]
000023D4  4A6D C992                tst.w      [A5 - 0x366E]
000023D8  588F                     addq.l     A7, 4
000023DA  660A                     bne        +0xC /* 000023E6 */
000023DC  2F2D AFAA                move.l     -[A7], [A5 - 0x5056]
000023E0  4EBA F74E                jsr        [PC - 0x8B2 /* 00001B30 */]
000023E4  588F                     addq.l     A7, 4
label000023E6:
000023E6  0C6D 0001 AF76           cmpi.w     [A5 - 0x508A], 0x1
000023EC  6708                     beq        +0xA /* 000023F6 */
000023EE  0C6D 0002 AF76           cmpi.w     [A5 - 0x508A], 0x2
000023F4  6670                     bne        +0x72 /* 00002466 */
label000023F6:
000023F6  2F3C 0013 0000           move.l     -[A7], 0x130000
000023FC  4EBA 0086                jsr        [PC + 0x86 /* 00002484 */]
00002400  2EBC 000E 0000           move.l     [A7], 0xE0000
00002406  4EBA 007C                jsr        [PC + 0x7C /* 00002484 */]
0000240A  2EBC 000F 0000           move.l     [A7], 0xF0000
00002410  4EBA 0072                jsr        [PC + 0x72 /* 00002484 */]
00002414  7E01                     moveq.l    D7, 0x01
00002416  588F                     addq.l     A7, 4
00002418  600C                     bra        +0xE /* 00002426 */
label0000241A:
0000241A  4267                     clr.w      -[A7]
0000241C  3F07                     move.w     -[A7], D7
0000241E  4EBA 0064                jsr        [PC + 0x64 /* 00002484 */]
00002422  588F                     addq.l     A7, 4
00002424  5247                     addq.w     D7, 1
label00002426:
00002426  0C47 0009                cmpi.w     D7, 0x9 /* '\t' */
0000242A  6FEE                     ble        -0x10 /* 0000241A */
0000242C  2F3C 0010 0000           move.l     -[A7], 0x100000
00002432  4EBA 0050                jsr        [PC + 0x50 /* 00002484 */]
00002436  2EBC 0011 0000           move.l     [A7], 0x110000
0000243C  4EBA 0046                jsr        [PC + 0x46 /* 00002484 */]
00002440  0C6D 0001 AF76           cmpi.w     [A5 - 0x508A], 0x1
00002446  588F                     addq.l     A7, 4
00002448  660A                     bne        +0xC /* 00002454 */
0000244A  2F2D AFC2                move.l     -[A7], [A5 - 0x503E]
0000244E  4EBA F6E0                jsr        [PC - 0x920 /* 00001B30 */]
00002452  588F                     addq.l     A7, 4
label00002454:
00002454  0C6D 0002 AF76           cmpi.w     [A5 - 0x508A], 0x2
0000245A  660A                     bne        +0xC /* 00002466 */
0000245C  2F2D AFC6                move.l     -[A7], [A5 - 0x503A]
00002460  4EBA F6CE                jsr        [PC - 0x932 /* 00001B30 */]
00002464  588F                     addq.l     A7, 4
label00002466:
00002466  4A6D AADC                tst.w      [A5 - 0x5524]
0000246A  670E                     beq        +0x10 /* 0000247A */
0000246C  3F3C 0001                move.w     -[A7], 0x1
00002470  3F2D AADC                move.w     -[A7], [A5 - 0x5524]
00002474  4EBA 000E                jsr        [PC + 0xE /* 00002484 */]
00002478  588F                     addq.l     A7, 4
label0000247A:
0000247A  4EAD 0462                jsr        [A5 + 0x462 /* export_136, CODE:2 @ 00004A10 */]
0000247E  2E1F                     move.l     D7, [A7]+
00002480  4E5E                     unlink     A6
00002482  4E75                     rts
export_298:
fn00002484:
00002484  4E56 FF8A                link       A6, -0x0076
00002488  48E7 1F38                movem.l    -[A7], D3,D4,D5,D6,D7,A2,A3,A4
0000248C  3C2E 0008                move.w     D6, [A6 + 0x8]
00002490  3846                     movea.w    A4, D6
00002492  D9CC                     add.l      A4, A4
00002494  41ED AB0C                lea.l      A0, [A5 - 0x54F4]
00002498  D1CC                     add.l      A0, A4
0000249A  3A10                     move.w     D5, [A0]
0000249C  0C45 FFFF                cmpi.w     D5, 0xFFFF
000024A0  6700 02B8                beq        +0x2BA /* 0000275A */
000024A4  41ED AB48                lea.l      A0, [A5 - 0x54B8]
000024A8  D1CC                     add.l      A0, A4
000024AA  3810                     move.w     D4, [A0]
000024AC  41ED AB84                lea.l      A0, [A5 - 0x547C]
000024B0  D1CC                     add.l      A0, A4
000024B2  3610                     move.w     D3, [A0]
000024B4  41ED ABC0                lea.l      A0, [A5 - 0x5440]
000024B8  D1CC                     add.l      A0, A4
000024BA  3D50 FF90                move.w     [A6 - 0x70], [A0]
000024BE  4A35 6120 AD28           tst.b      [A5 - 0x52D8 + D6]
000024C4  6700 015E                beq        +0x160 /* 00002624 */
000024C8  4A6E 000A                tst.w      [A6 + 0xA]
000024CC  673C                     beq        +0x3E /* 0000250A */
000024CE  7EFF                     moveq.l    D7, 0xFFFFFFFF
000024D0  DE6E FF90                add.w      D7, [A6 - 0x70]
000024D4  70FF                     moveq.l    D0, 0xFFFFFFFF
000024D6  D043                     add.w      D0, D3
000024D8  3D40 FF8E                move.w     [A6 - 0x72], D0
000024DC  7201                     moveq.l    D1, 0x01
000024DE  D244                     add.w      D1, D4
000024E0  3D41 FF8C                move.w     [A6 - 0x74], D1
000024E4  7401                     moveq.l    D2, 0x01
000024E6  D445                     add.w      D2, D5
000024E8  3D42 FF8A                move.w     [A6 - 0x76], D2
000024EC  7000                     moveq.l    D0, 0x00
000024EE  1035 6120 AD0A           move.b     D0, [A5 - 0x52F6 + D6]
000024F4  3F00                     move.w     -[A7], D0
000024F6  3F07                     move.w     -[A7], D7
000024F8  3F2E FF8E                move.w     -[A7], [A6 - 0x72]
000024FC  3F01                     move.w     -[A7], D1
000024FE  3F02                     move.w     -[A7], D2
00002500  4EBA E2BE                jsr        [PC - 0x1D42 /* 000007C0 */]
00002504  4FEF 000A                lea.l      A7, [A7 + 0xA]
00002508  603A                     bra        +0x3C /* 00002544 */
label0000250A:
0000250A  7EFF                     moveq.l    D7, 0xFFFFFFFF
0000250C  DE6E FF90                add.w      D7, [A6 - 0x70]
00002510  70FF                     moveq.l    D0, 0xFFFFFFFF
00002512  D043                     add.w      D0, D3
00002514  3D40 FF8E                move.w     [A6 - 0x72], D0
00002518  7201                     moveq.l    D1, 0x01
0000251A  D244                     add.w      D1, D4
0000251C  3D41 FF8C                move.w     [A6 - 0x74], D1
00002520  7401                     moveq.l    D2, 0x01
00002522  D445                     add.w      D2, D5
00002524  3D42 FF8A                move.w     [A6 - 0x76], D2
00002528  7000                     moveq.l    D0, 0x00
0000252A  1035 6120 AC1A           move.b     D0, [A5 - 0x53E6 + D6]
00002530  3F00                     move.w     -[A7], D0
00002532  3F07                     move.w     -[A7], D7
00002534  3F2E FF8E                move.w     -[A7], [A6 - 0x72]
00002538  3F01                     move.w     -[A7], D1
0000253A  3F02                     move.w     -[A7], D2
0000253C  4EBA E282                jsr        [PC - 0x1D7E /* 000007C0 */]
00002540  4FEF 000A                lea.l      A7, [A7 + 0xA]
label00002544:
00002544  49ED AC56                lea.l      A4, [A5 - 0x53AA]
00002548  D8C6                     add.w      A4, D6
0000254A  7000                     moveq.l    D0, 0x00
0000254C  1014                     move.b     D0, [A4]
0000254E  3F00                     move.w     -[A7], D0
00002550  3F04                     move.w     -[A7], D4
00002552  3F2E FF8E                move.w     -[A7], [A6 - 0x72]
00002556  3F04                     move.w     -[A7], D4
00002558  3F2E FF8A                move.w     -[A7], [A6 - 0x76]
0000255C  4EBA E262                jsr        [PC - 0x1D9E /* 000007C0 */]
00002560  47ED AC74                lea.l      A3, [A5 - 0x538C]
00002564  D6C6                     add.w      A3, D6
00002566  7000                     moveq.l    D0, 0x00
00002568  1013                     move.b     D0, [A3]
0000256A  3E80                     move.w     [A7], D0
0000256C  3F2E FF90                move.w     -[A7], [A6 - 0x70]
00002570  3F2E FF8E                move.w     -[A7], [A6 - 0x72]
00002574  3F2E FF90                move.w     -[A7], [A6 - 0x70]
00002578  3F2E FF8A                move.w     -[A7], [A6 - 0x76]
0000257C  4EBA E242                jsr        [PC - 0x1DBE /* 000007C0 */]
00002580  45ED AC92                lea.l      A2, [A5 - 0x536E]
00002584  D4C6                     add.w      A2, D6
00002586  7000                     moveq.l    D0, 0x00
00002588  1012                     move.b     D0, [A2]
0000258A  3E80                     move.w     [A7], D0
0000258C  3F07                     move.w     -[A7], D7
0000258E  3F05                     move.w     -[A7], D5
00002590  3F2E FF8C                move.w     -[A7], [A6 - 0x74]
00002594  3F05                     move.w     -[A7], D5
00002596  4EBA E228                jsr        [PC - 0x1DD8 /* 000007C0 */]
0000259A  41ED ACB0                lea.l      A0, [A5 - 0x5350]
0000259E  D0C6                     add.w      A0, D6
000025A0  2D48 FF94                move.l     [A6 - 0x6C], A0
000025A4  7000                     moveq.l    D0, 0x00
000025A6  1010                     move.b     D0, [A0]
000025A8  3E80                     move.w     [A7], D0
000025AA  3F07                     move.w     -[A7], D7
000025AC  3F03                     move.w     -[A7], D3
000025AE  3F2E FF8C                move.w     -[A7], [A6 - 0x74]
000025B2  3F03                     move.w     -[A7], D3
000025B4  4EBA E20A                jsr        [PC - 0x1DF6 /* 000007C0 */]
000025B8  7000                     moveq.l    D0, 0x00
000025BA  1014                     move.b     D0, [A4]
000025BC  3E80                     move.w     [A7], D0
000025BE  3F2E FF8C                move.w     -[A7], [A6 - 0x74]
000025C2  3F2E FF8E                move.w     -[A7], [A6 - 0x72]
000025C6  3F2E FF8C                move.w     -[A7], [A6 - 0x74]
000025CA  3F2E FF8A                move.w     -[A7], [A6 - 0x76]
000025CE  4EBA E1F0                jsr        [PC - 0x1E10 /* 000007C0 */]
000025D2  7000                     moveq.l    D0, 0x00
000025D4  1013                     move.b     D0, [A3]
000025D6  3E80                     move.w     [A7], D0
000025D8  3F07                     move.w     -[A7], D7
000025DA  3F2E FF8E                move.w     -[A7], [A6 - 0x72]
000025DE  3F07                     move.w     -[A7], D7
000025E0  3F2E FF8A                move.w     -[A7], [A6 - 0x76]
000025E4  4EBA E1DA                jsr        [PC - 0x1E26 /* 000007C0 */]
000025E8  7000                     moveq.l    D0, 0x00
000025EA  1012                     move.b     D0, [A2]
000025EC  3E80                     move.w     [A7], D0
000025EE  3F07                     move.w     -[A7], D7
000025F0  3F2E FF8A                move.w     -[A7], [A6 - 0x76]
000025F4  3F2E FF8C                move.w     -[A7], [A6 - 0x74]
000025F8  3F2E FF8A                move.w     -[A7], [A6 - 0x76]
000025FC  4EBA E1C2                jsr        [PC - 0x1E3E /* 000007C0 */]
00002600  206E FF94                movea.l    A0, [A6 - 0x6C]
00002604  7000                     moveq.l    D0, 0x00
00002606  1010                     move.b     D0, [A0]
00002608  3E80                     move.w     [A7], D0
0000260A  3F07                     move.w     -[A7], D7
0000260C  3F2E FF8E                move.w     -[A7], [A6 - 0x72]
00002610  3F2E FF8C                move.w     -[A7], [A6 - 0x74]
00002614  3F2E FF8E                move.w     -[A7], [A6 - 0x72]
00002618  4EBA E1A6                jsr        [PC - 0x1E5A /* 000007C0 */]
0000261C  4FEF 0042                lea.l      A7, [A7 + 0x42]
00002620  6000 00A6                bra        +0xA8 /* 000026C8 */
label00002624:
00002624  4A6E 000A                tst.w      [A6 + 0xA]
00002628  671E                     beq        +0x20 /* 00002648 */
0000262A  7000                     moveq.l    D0, 0x00
0000262C  1035 6120 AD0A           move.b     D0, [A5 - 0x52F6 + D6]
00002632  3F00                     move.w     -[A7], D0
00002634  3F2E FF90                move.w     -[A7], [A6 - 0x70]
00002638  3F03                     move.w     -[A7], D3
0000263A  3F04                     move.w     -[A7], D4
0000263C  3F05                     move.w     -[A7], D5
0000263E  4EBA E180                jsr        [PC - 0x1E80 /* 000007C0 */]
00002642  4FEF 000A                lea.l      A7, [A7 + 0xA]
00002646  601C                     bra        +0x1E /* 00002664 */
label00002648:
00002648  7000                     moveq.l    D0, 0x00
0000264A  1035 6120 AC1A           move.b     D0, [A5 - 0x53E6 + D6]
00002650  3F00                     move.w     -[A7], D0
00002652  3F2E FF90                move.w     -[A7], [A6 - 0x70]
00002656  3F03                     move.w     -[A7], D3
00002658  3F04                     move.w     -[A7], D4
0000265A  3F05                     move.w     -[A7], D5
0000265C  4EBA E162                jsr        [PC - 0x1E9E /* 000007C0 */]
00002660  4FEF 000A                lea.l      A7, [A7 + 0xA]
label00002664:
00002664  7000                     moveq.l    D0, 0x00
00002666  1035 6120 AC56           move.b     D0, [A5 - 0x53AA + D6]
0000266C  3F00                     move.w     -[A7], D0
0000266E  3F04                     move.w     -[A7], D4
00002670  3F03                     move.w     -[A7], D3
00002672  3F04                     move.w     -[A7], D4
00002674  3F05                     move.w     -[A7], D5
00002676  4EBA 0184                jsr        [PC + 0x184 /* 000027FC */]
0000267A  7000                     moveq.l    D0, 0x00
0000267C  1035 6120 AC74           move.b     D0, [A5 - 0x538C + D6]
00002682  3E80                     move.w     [A7], D0
00002684  3F2E FF90                move.w     -[A7], [A6 - 0x70]
00002688  3F03                     move.w     -[A7], D3
0000268A  3F2E FF90                move.w     -[A7], [A6 - 0x70]
0000268E  3F05                     move.w     -[A7], D5
00002690  4EBA 016A                jsr        [PC + 0x16A /* 000027FC */]
00002694  7000                     moveq.l    D0, 0x00
00002696  1035 6120 AC92           move.b     D0, [A5 - 0x536E + D6]
0000269C  3E80                     move.w     [A7], D0
0000269E  3F2E FF90                move.w     -[A7], [A6 - 0x70]
000026A2  3F05                     move.w     -[A7], D5
000026A4  3F04                     move.w     -[A7], D4
000026A6  3F05                     move.w     -[A7], D5
000026A8  4EBA 0152                jsr        [PC + 0x152 /* 000027FC */]
000026AC  7000                     moveq.l    D0, 0x00
000026AE  1035 6120 ACB0           move.b     D0, [A5 - 0x5350 + D6]
000026B4  3E80                     move.w     [A7], D0
000026B6  3F2E FF90                move.w     -[A7], [A6 - 0x70]
000026BA  3F03                     move.w     -[A7], D3
000026BC  3F04                     move.w     -[A7], D4
000026BE  3F03                     move.w     -[A7], D3
000026C0  4EBA 013A                jsr        [PC + 0x13A /* 000027FC */]
000026C4  4FEF 0022                lea.l      A7, [A7 + 0x22]
label000026C8:
000026C8  49ED ABFC                lea.l      A4, [A5 - 0x5404]
000026CC  D8C6                     add.w      A4, D6
000026CE  4A14                     tst.b      [A4]
000026D0  6710                     beq        +0x12 /* 000026E2 */
000026D2  3003                     move.w     D0, D3
000026D4  9045                     sub.w      D0, D5
000026D6  48C0                     ext.l      D0
000026D8  81FC 0002                divs.w     D0, 0x2
000026DC  D045                     add.w      D0, D5
000026DE  3E00                     move.w     D7, D0
000026E0  6004                     bra        +0x6 /* 000026E6 */
label000026E2:
000026E2  7E02                     moveq.l    D7, 0x02
000026E4  DE45                     add.w      D7, D5
label000026E6:
000026E6  4A6E 000A                tst.w      [A6 + 0xA]
000026EA  670A                     beq        +0xC /* 000026F6 */
000026EC  7A00                     moveq.l    D5, 0x00
000026EE  1A35 6120 ACEC           move.b     D5, [A5 - 0x5314 + D6]
000026F4  6008                     bra        +0xA /* 000026FE */
label000026F6:
000026F6  7A00                     moveq.l    D5, 0x00
000026F8  1A35 6120 ACCE           move.b     D5, [A5 - 0x5332 + D6]
label000026FE:
000026FE  2F35 6520 AD46           move.l     -[A7], [A5 - 0x52BA + D6 * 4]
00002704  486E FF98                pea.l      [A6 - 0x68]
00002708  4EBA F404                jsr        [PC - 0xBFC /* 00001B0E */]
0000270C  BC6D AADC                cmp.w      D6, [A5 - 0x5524]
00002710  508F                     addq.l     A7, 8
00002712  6618                     bne        +0x1A /* 0000272C */
00002714  0C6D 0001 AF76           cmpi.w     [A5 - 0x508A], 0x1
0000271A  6610                     bne        +0x12 /* 0000272C */
0000271C  2F3C 0000 14FE           move.l     -[A7], 0x14FE
00002722  486E FF98                pea.l      [A6 - 0x68]
00002726  4EAD 0CDA                jsr        [A5 + 0xCDA /* export_407, CODE:7 @ 000049D2 */]
0000272A  508F                     addq.l     A7, 8
label0000272C:
0000272C  3B43 F5E6                move.w     [A5 - 0xA1A], D3
00002730  7000                     moveq.l    D0, 0x00
00002732  1014                     move.b     D0, [A4]
00002734  3F00                     move.w     -[A7], D0
00002736  486E FF98                pea.l      [A6 - 0x68]
0000273A  3F05                     move.w     -[A7], D5
0000273C  302E FF90                move.w     D0, [A6 - 0x70]
00002740  9044                     sub.w      D0, D4
00002742  48C0                     ext.l      D0
00002744  81FC 0002                divs.w     D0, 0x2
00002748  D044                     add.w      D0, D4
0000274A  5740                     subq.w     D0, 3
0000274C  3F00                     move.w     -[A7], D0
0000274E  3F07                     move.w     -[A7], D7
00002750  4EBA 0076                jsr        [PC + 0x76 /* 000027C8 */]
00002754  3B7C 013F F5E6           move.w     [A5 - 0xA1A], 0x13F
label0000275A:
0000275A  4CEE 1CF8 FF6A           movem.l    D3,D4,D5,D6,D7,A2,A3,A4, [A6 - 0x96]
00002760  4E5E                     unlink     A6
00002762  4E75                     rts
00002764  4E56 0000                link       A6, 0
00002768  48E7 0738                movem.l    -[A7], D5,D6,D7,A2,A3,A4
0000276C  7C01                     moveq.l    D6, 0x01
0000276E  49ED ABC2                lea.l      A4, [A5 - 0x543E]
00002772  47ED AB4A                lea.l      A3, [A5 - 0x54B6]
00002776  45ED AB86                lea.l      A2, [A5 - 0x547A]
0000277A  41ED AB0E                lea.l      A0, [A5 - 0x54F2]
0000277E  2E08                     move.l     D7, A0
00002780  6036                     bra        +0x38 /* 000027B8 */
label00002782:
00002782  2047                     movea.l    A0, D7
00002784  3A10                     move.w     D5, [A0]
00002786  0C45 FFFF                cmpi.w     D5, 0xFFFF
0000278A  6722                     beq        +0x24 /* 000027AE */
0000278C  BA6E 0008                cmp.w      D5, [A6 + 0x8]
00002790  6E1C                     bgt        +0x1E /* 000027AE */
00002792  302E 0008                move.w     D0, [A6 + 0x8]
00002796  B052                     cmp.w      D0, [A2]
00002798  6E14                     bgt        +0x16 /* 000027AE */
0000279A  302E 000A                move.w     D0, [A6 + 0xA]
0000279E  B053                     cmp.w      D0, [A3]
000027A0  6D0C                     blt        +0xE /* 000027AE */
000027A2  302E 000A                move.w     D0, [A6 + 0xA]
000027A6  B054                     cmp.w      D0, [A4]
000027A8  6E04                     bgt        +0x6 /* 000027AE */
000027AA  3006                     move.w     D0, D6
000027AC  6012                     bra        +0x14 /* 000027C0 */
label000027AE:
000027AE  5246                     addq.w     D6, 1
000027B0  548C                     addq.l     A4, 2
000027B2  548B                     addq.l     A3, 2
000027B4  548A                     addq.l     A2, 2
000027B6  5487                     addq.l     D7, 2
label000027B8:
000027B8  0C46 001E                cmpi.w     D6, 0x1E
000027BC  6DC4                     blt        -0x3A /* 00002782 */
000027BE  70FF                     moveq.l    D0, 0xFFFFFFFF
label000027C0:
000027C0  4CDF 1CE0                movem.l    D5,D6,D7,A2,A3,A4, [A7]+
000027C4  4E5E                     unlink     A6
000027C6  4E75                     rts
fn000027C8:
000027C8  4E56 0000                link       A6, 0
000027CC  3B6E 0008 F59E           move.w     [A5 - 0xA62], [A6 + 0x8]
000027D2  3B6E 000A F5AA           move.w     [A5 - 0xA56], [A6 + 0xA]
000027D8  3B7C 0001 F5FE           move.w     [A5 - 0xA02], 0x1
000027DE  3B6E 0012 F5CE           move.w     [A5 - 0xA32], [A6 + 0x12]
000027E4  3B6E 000C F5F2           move.w     [A5 - 0xA0E], [A6 + 0xC]
000027EA  2B6E 000E ED06           move.l     [A5 - 0x12FA], [A6 + 0xE]
000027F0  3F3C 0005                move.w     -[A7], 0x5
000027F4  4EAD 0722                jsr        [A5 + 0x722 /* export_224, CODE:4 @ 00005262 */]
000027F8  4E5E                     unlink     A6
000027FA  4E75                     rts
fn000027FC:
000027FC  4E56 0000                link       A6, 0
00002800  48E7 1F00                movem.l    -[A7], D3,D4,D5,D6,D7
00002804  3C2E 0008                move.w     D6, [A6 + 0x8]
00002808  382E 000A                move.w     D4, [A6 + 0xA]
0000280C  3E2E 000C                move.w     D7, [A6 + 0xC]
00002810  3A2E 000E                move.w     D5, [A6 + 0xE]
00002814  362E 0010                move.w     D3, [A6 + 0x10]
00002818  4A47                     tst.w      D7
0000281A  6C06                     bge        +0x8 /* 00002822 */
0000281C  3006                     move.w     D0, D6
0000281E  9047                     sub.w      D0, D7
00002820  3E00                     move.w     D7, D0
label00002822:
00002822  4A45                     tst.w      D5
00002824  6C06                     bge        +0x8 /* 0000282C */
00002826  3004                     move.w     D0, D4
00002828  9045                     sub.w      D0, D5
0000282A  3A00                     move.w     D5, D0
label0000282C:
0000282C  3F03                     move.w     -[A7], D3
0000282E  3F05                     move.w     -[A7], D5
00002830  3F06                     move.w     -[A7], D6
00002832  3F04                     move.w     -[A7], D4
00002834  3F06                     move.w     -[A7], D6
00002836  4EBA E198                jsr        [PC - 0x1E68 /* 000009D0 */]
0000283A  3E83                     move.w     [A7], D3
0000283C  3F05                     move.w     -[A7], D5
0000283E  3F07                     move.w     -[A7], D7
00002840  3F04                     move.w     -[A7], D4
00002842  3F07                     move.w     -[A7], D7
00002844  4EBA E18A                jsr        [PC - 0x1E76 /* 000009D0 */]
00002848  3E83                     move.w     [A7], D3
0000284A  3F04                     move.w     -[A7], D4
0000284C  3F07                     move.w     -[A7], D7
0000284E  3F04                     move.w     -[A7], D4
00002850  3F06                     move.w     -[A7], D6
00002852  4EBA E17C                jsr        [PC - 0x1E84 /* 000009D0 */]
00002856  3E83                     move.w     [A7], D3
00002858  3F05                     move.w     -[A7], D5
0000285A  3F07                     move.w     -[A7], D7
0000285C  3F05                     move.w     -[A7], D5
0000285E  3F06                     move.w     -[A7], D6
00002860  4EBA E16E                jsr        [PC - 0x1E92 /* 000009D0 */]
00002864  4CEE 00F8 FFEC           movem.l    D3,D4,D5,D6,D7, [A6 - 0x14]
0000286A  4E5E                     unlink     A6
0000286C  4E75                     rts
export_299:
0000286E  4E56 FFFA                link       A6, -0x0006
00002872  4E5E                     unlink     A6
00002874  4E75                     rts
export_307:
00002876  2F0C                     move.l     -[A7], A4
00002878  426D EC92                clr.w      [A5 - 0x136E]
0000287C  6010                     bra        +0x12 /* 0000288E */
label0000287E:
0000287E  7012                     moveq.l    D0, 0x12
00002880  C0ED EC92                mulu.w     D0, [A5 - 0x136E]
00002884  4235 0920 C5A9           clr.b      [A5 - 0x3A57 + D0]
0000288A  526D EC92                addq.w     [A5 - 0x136E], 1
label0000288E:
0000288E  0C6D 0014 EC92           cmpi.w     [A5 - 0x136E], 0x14
00002894  65E8                     bcs        -0x16 /* 0000287E */
00002896  1B7C 00FF C702           move.b     [A5 - 0x38FE], 0xFF
0000289C  426D EC92                clr.w      [A5 - 0x136E]
000028A0  6032                     bra        +0x34 /* 000028D4 */
label000028A2:
000028A2  7012                     moveq.l    D0, 0x12
000028A4  C0ED EC92                mulu.w     D0, [A5 - 0x136E]
000028A8  49ED C59A                lea.l      A4, [A5 - 0x3A66]
000028AC  D08C                     add.l      D0, A4
000028AE  2840                     movea.l    A4, D0
000028B0  0C2C 0002 000A           cmpi.b     [A4 + 0xA], 0x2
000028B6  6618                     bne        +0x1A /* 000028D0 */
000028B8  4A2C 000F                tst.b      [A4 + 0xF]
000028BC  6612                     bne        +0x14 /* 000028D0 */
000028BE  1B6D EC93 C702           move.b     [A5 - 0x38FE], [A5 - 0x136D]
000028C4  4EBA 014A                jsr        [PC + 0x14A /* 00002A10 */]
000028C8  4EBA 00F2                jsr        [PC + 0xF2 /* 000029BC */]
000028CC  4EBA 008E                jsr        [PC + 0x8E /* 0000295C */]
label000028D0:
000028D0  526D EC92                addq.w     [A5 - 0x136E], 1
label000028D4:
000028D4  0C6D 0014 EC92           cmpi.w     [A5 - 0x136E], 0x14
000028DA  65C6                     bcs        -0x38 /* 000028A2 */
000028DC  285F                     movea.l    A4, [A7]+
000028DE  4E75                     rts
export_305:
fn000028E0:
000028E0  2F07                     move.l     -[A7], D7
000028E2  206D EC94                movea.l    A0, [A5 - 0x136C]
000028E6  7006                     moveq.l    D0, 0x06
000028E8  D0AD ED6E                add.l      D0, [A5 - 0x1292]
000028EC  B090                     cmp.l      D0, [A0]
000028EE  6716                     beq        +0x18 /* 00002906 */
000028F0  2E2D ED64                move.l     D7, [A5 - 0x129C]
000028F4  9EAD ED6E                sub.l      D7, [A5 - 0x1292]
000028F8  4EBA 0116                jsr        [PC + 0x116 /* 00002A10 */]
000028FC  2007                     move.l     D0, D7
000028FE  D0AD ED6E                add.l      D0, [A5 - 0x1292]
00002902  2B40 ED64                move.l     [A5 - 0x129C], D0
label00002906:
00002906  206D ED64                movea.l    A0, [A5 - 0x129C]
0000290A  52AD ED64                addq.l     [A5 - 0x129C], 1
0000290E  1010                     move.b     D0, [A0]
00002910  2E1F                     move.l     D7, [A7]+
00002912  4E75                     rts
export_304:
fn00002914:
00002914  2F07                     move.l     -[A7], D7
00002916  206D EC94                movea.l    A0, [A5 - 0x136C]
0000291A  7006                     moveq.l    D0, 0x06
0000291C  D0AD ED6E                add.l      D0, [A5 - 0x1292]
00002920  B090                     cmp.l      D0, [A0]
00002922  6716                     beq        +0x18 /* 0000293A */
00002924  2E2D ED64                move.l     D7, [A5 - 0x129C]
00002928  9EAD ED6E                sub.l      D7, [A5 - 0x1292]
0000292C  4EBA 00E2                jsr        [PC + 0xE2 /* 00002A10 */]
00002930  2007                     move.l     D0, D7
00002932  D0AD ED6E                add.l      D0, [A5 - 0x1292]
00002936  2B40 ED64                move.l     [A5 - 0x129C], D0
label0000293A:
0000293A  206D ED64                movea.l    A0, [A5 - 0x129C]
0000293E  52AD ED64                addq.l     [A5 - 0x129C], 1
00002942  1E10                     move.b     D7, [A0]
00002944  206D ED64                movea.l    A0, [A5 - 0x129C]
00002948  52AD ED64                addq.l     [A5 - 0x129C], 1
0000294C  7000                     moveq.l    D0, 0x00
0000294E  1010                     move.b     D0, [A0]
00002950  E148                     lsl        D0.w, 8
00002952  7200                     moveq.l    D1, 0x00
00002954  1207                     move.b     D1, D7
00002956  D041                     add.w      D0, D1
00002958  2E1F                     move.l     D7, [A7]+
0000295A  4E75                     rts
fn0000295C:
0000295C  4E56 FFFC                link       A6, -0x0004
00002960  604C                     bra        +0x4E /* 000029AE */
label00002962:
00002962  4EBA FF7C                jsr        [PC - 0x84 /* 000028E0 */]
00002966  1B40 ED6C                move.b     [A5 - 0x1294], D0
0000296A  2B6D ED64 ED68           move.l     [A5 - 0x1298], [A5 - 0x129C]
00002970  7200                     moveq.l    D1, 0x00
00002972  122D C702                move.b     D1, [A5 - 0x38FE]
00002976  C3FC 0012                muls.w     D1, 0x12
0000297A  1BBC 0001 1920 C5A9      move.b     [A5 - 0x3A57 + D1], 0x1
00002982  4A00                     tst.b      D0
00002984  6508                     bcs        +0xA /* 0000298E */
00002986  0C2D 00FF ED6C           cmpi.b     [A5 - 0x1294], 0xFF
0000298C  6314                     bls        +0x16 /* 000029A2 */
label0000298E:
0000298E  2F3C 0000 1500           move.l     -[A7], 0x1500
00002994  7000                     moveq.l    D0, 0x00
00002996  102D ED6C                move.b     D0, [A5 - 0x1294]
0000299A  2F00                     move.l     -[A7], D0
0000299C  4EAD 084A                jsr        [A5 + 0x84A /* export_261, CODE:4 @ 00001FF0 */]
000029A0  508F                     addq.l     A7, 8
label000029A2:
000029A2  7000                     moveq.l    D0, 0x00
000029A4  102D ED6C                move.b     D0, [A5 - 0x1294]
000029A8  4EB5 0D21 A4E2           jsr        [[A5 - 0x5B1E + D0 * 4]]
label000029AE:
000029AE  0C2D 00FF C702           cmpi.b     [A5 - 0x38FE], 0xFF
000029B4  66AC                     bne        -0x52 /* 00002962 */
000029B6  4E5E                     unlink     A6
000029B8  4E75                     rts
export_308:
fn000029BA:
000029BA  4E75                     rts
fn000029BC:
000029BC  0C2D 00FF C702           cmpi.b     [A5 - 0x38FE], 0xFF
000029C2  6718                     beq        +0x1A /* 000029DC */
000029C4  7000                     moveq.l    D0, 0x00
000029C6  102D C702                move.b     D0, [A5 - 0x38FE]
000029CA  C1FC 0012                muls.w     D0, 0x12
000029CE  2075 0920 C59A           movea.l    A0, [A5 - 0x3A66 + D0]
000029D4  D1ED ED6E                add.l      A0, [A5 - 0x1292]
000029D8  2B48 ED64                move.l     [A5 - 0x129C], A0
label000029DC:
000029DC  4E75                     rts
export_309:
fn000029DE:
000029DE  0C2D 00FF C702           cmpi.b     [A5 - 0x38FE], 0xFF
000029E4  6718                     beq        +0x1A /* 000029FE */
000029E6  202D ED64                move.l     D0, [A5 - 0x129C]
000029EA  90AD ED6E                sub.l      D0, [A5 - 0x1292]
000029EE  7200                     moveq.l    D1, 0x00
000029F0  122D C702                move.b     D1, [A5 - 0x38FE]
000029F4  C3FC 0012                muls.w     D1, 0x12
000029F8  2B80 1920 C59A           move.l     [A5 - 0x3A66 + D1], D0
label000029FE:
000029FE  4E75                     rts
export_310:
00002A00  4EBA FEDE                jsr        [PC - 0x122 /* 000028E0 */]
00002A04  4EBA FEDA                jsr        [PC - 0x126 /* 000028E0 */]
00002A08  4E75                     rts
export_311:
00002A0A  4EBA FED4                jsr        [PC - 0x12C /* 000028E0 */]
00002A0E  4E75                     rts
fn00002A10:
00002A10  4E56 FFFE                link       A6, -0x0002
00002A14  48E7 0308                movem.l    -[A7], D6,D7,A4
00002A18  0C2D 00FF C702           cmpi.b     [A5 - 0x38FE], 0xFF
00002A1E  6700 010C                beq        +0x10E /* 00002B2C */
00002A22  7E00                     moveq.l    D7, 0x00
00002A24  1E2D C702                move.b     D7, [A5 - 0x38FE]
00002A28  7012                     moveq.l    D0, 0x12
00002A2A  C1C7                     muls.w     D0, D7
00002A2C  49ED C59A                lea.l      A4, [A5 - 0x3A66]
00002A30  D08C                     add.l      D0, A4
00002A32  2840                     movea.l    A4, D0
00002A34  7E00                     moveq.l    D7, 0x00
00002A36  1E2C 000B                move.b     D7, [A4 + 0xB]
00002A3A  3C2C 0008                move.w     D6, [A4 + 0x8]
00002A3E  3007                     move.w     D0, D7
00002A40  6700 00BA                beq        +0xBC /* 00002AFC */
00002A44  6B00 00DA                bmi        +0xDC /* 00002B20 */
00002A48  5740                     subq.w     D0, 3
00002A4A  6730                     beq        +0x32 /* 00002A7C */
00002A4C  6A08                     bpl        +0xA /* 00002A56 */
00002A4E  5240                     addq.w     D0, 1
00002A50  6A0C                     bpl        +0xE /* 00002A5E */
00002A52  6000 0080                bra        +0x82 /* 00002AD4 */
label00002A56:
00002A56  5540                     subq.w     D0, 2
00002A58  6A00 00C6                bpl        +0xC8 /* 00002B20 */
00002A5C  6048                     bra        +0x4A /* 00002AA6 */
label00002A5E:
00002A5E  3F06                     move.w     -[A7], D6
00002A60  3F3C 0002                move.w     -[A7], 0x2
00002A64  4EAD 03E2                jsr        [A5 + 0x3E2 /* export_120, CODE:2 @ 00003CEE */]
00002A68  2B40 ED6E                move.l     [A5 - 0x1292], D0
00002A6C  41F5 6525 B16E           lea.l      A0, [[A5 - 0x4E92] + D6 * 4]
00002A72  2B48 EC94                move.l     [A5 - 0x136C], A0
00002A76  588F                     addq.l     A7, 4
00002A78  6000 00B2                bra        +0xB4 /* 00002B2C */
label00002A7C:
00002A7C  7000                     moveq.l    D0, 0x00
00002A7E  102D B2D7                move.b     D0, [A5 - 0x4D29]
00002A82  3F00                     move.w     -[A7], D0
00002A84  3F3C 0001                move.w     -[A7], 0x1
00002A88  4EAD 03E2                jsr        [A5 + 0x3E2 /* export_120, CODE:2 @ 00003CEE */]
00002A8C  2B40 ED6E                move.l     [A5 - 0x1292], D0
00002A90  7200                     moveq.l    D1, 0x00
00002A92  122D B2D7                move.b     D1, [A5 - 0x4D29]
00002A96  E589                     lsl        D1, 2
00002A98  D2AD B16A                add.l      D1, [A5 - 0x4E96]
00002A9C  2B41 EC94                move.l     [A5 - 0x136C], D1
00002AA0  588F                     addq.l     A7, 4
00002AA2  6000 0088                bra        +0x8A /* 00002B2C */
label00002AA6:
00002AA6  3F06                     move.w     -[A7], D6
00002AA8  4EAD 079A                jsr        [A5 + 0x79A /* export_239, CODE:4 @ 000060F8 */]
00002AAC  C1FC 0018                muls.w     D0, 0x18
00002AB0  7C00                     moveq.l    D6, 0x00
00002AB2  1C35 0920 B2F0           move.b     D6, [A5 - 0x4D10 + D0]
00002AB8  3E86                     move.w     [A7], D6
00002ABA  3F3C 000D                move.w     -[A7], 0xD /* '\r' */
00002ABE  4EAD 03E2                jsr        [A5 + 0x3E2 /* export_120, CODE:2 @ 00003CEE */]
00002AC2  2B40 ED6E                move.l     [A5 - 0x1292], D0
00002AC6  41F5 6525 B19A           lea.l      A0, [[A5 - 0x4E66] + D6 * 4]
00002ACC  2B48 EC94                move.l     [A5 - 0x136C], A0
00002AD0  588F                     addq.l     A7, 4
00002AD2  6058                     bra        +0x5A /* 00002B2C */
label00002AD4:
00002AD4  7000                     moveq.l    D0, 0x00
00002AD6  102D B2D7                move.b     D0, [A5 - 0x4D29]
00002ADA  3F00                     move.w     -[A7], D0
00002ADC  3F3C 0001                move.w     -[A7], 0x1
00002AE0  4EAD 03E2                jsr        [A5 + 0x3E2 /* export_120, CODE:2 @ 00003CEE */]
00002AE4  2B40 ED6E                move.l     [A5 - 0x1292], D0
00002AE8  7200                     moveq.l    D1, 0x00
00002AEA  122D B2D7                move.b     D1, [A5 - 0x4D29]
00002AEE  E589                     lsl        D1, 2
00002AF0  D2AD B16A                add.l      D1, [A5 - 0x4E96]
00002AF4  2B41 EC94                move.l     [A5 - 0x136C], D1
00002AF8  588F                     addq.l     A7, 4
00002AFA  6030                     bra        +0x32 /* 00002B2C */
label00002AFC:
00002AFC  3F06                     move.w     -[A7], D6
00002AFE  4EAD 079A                jsr        [A5 + 0x79A /* export_239, CODE:4 @ 000060F8 */]
00002B02  3C00                     move.w     D6, D0
00002B04  3E86                     move.w     [A7], D6
00002B06  3F3C 0005                move.w     -[A7], 0x5
00002B0A  4EAD 03E2                jsr        [A5 + 0x3E2 /* export_120, CODE:2 @ 00003CEE */]
00002B0E  2B40 ED6E                move.l     [A5 - 0x1292], D0
00002B12  41F5 6525 B17A           lea.l      A0, [[A5 - 0x4E86] + D6 * 4]
00002B18  2B48 EC94                move.l     [A5 - 0x136C], A0
00002B1C  588F                     addq.l     A7, 4
00002B1E  600C                     bra        +0xE /* 00002B2C */
label00002B20:
00002B20  2F3C 0000 1514           move.l     -[A7], 0x1514
00002B26  4EBA 098C                jsr        [PC + 0x98C /* 000034B4 */]
00002B2A  588F                     addq.l     A7, 4
label00002B2C:
00002B2C  4CDF 10C0                movem.l    D6,D7,A4, [A7]+
00002B30  4E5E                     unlink     A6
00002B32  4E75                     rts
export_312:
fn00002B34:
00002B34  4E56 0000                link       A6, 0
00002B38  48E7 0338                movem.l    -[A7], D6,D7,A2,A3,A4
00002B3C  3E2E 0008                move.w     D7, [A6 + 0x8]
00002B40  4A47                     tst.w      D7
00002B42  6700 00B6                beq        +0xB8 /* 00002BFA */
00002B46  7C01                     moveq.l    D6, 0x01
00002B48  6066                     bra        +0x68 /* 00002BB0 */
label00002B4A:
00002B4A  7012                     moveq.l    D0, 0x12
00002B4C  C0C6                     mulu.w     D0, D6
00002B4E  49ED C5A2                lea.l      A4, [A5 - 0x3A5E]
00002B52  D08C                     add.l      D0, A4
00002B54  2840                     movea.l    A4, D0
00002B56  7012                     moveq.l    D0, 0x12
00002B58  C0C6                     mulu.w     D0, D6
00002B5A  47ED C59A                lea.l      A3, [A5 - 0x3A66]
00002B5E  D08B                     add.l      D0, A3
00002B60  2640                     movea.l    A3, D0
00002B62  BE54                     cmp.w      D7, [A4]
00002B64  6648                     bne        +0x4A /* 00002BAE */
00002B66  0C2B 0002 000B           cmpi.b     [A3 + 0xB], 0x2
00002B6C  6708                     beq        +0xA /* 00002B76 */
00002B6E  0C2B 0003 000B           cmpi.b     [A3 + 0xB], 0x3
00002B74  6638                     bne        +0x3A /* 00002BAE */
label00002B76:
00002B76  7012                     moveq.l    D0, 0x12
00002B78  C0C6                     mulu.w     D0, D6
00002B7A  45ED C5A4                lea.l      A2, [A5 - 0x3A5C]
00002B7E  D08A                     add.l      D0, A2
00002B80  2440                     movea.l    A2, D0
00002B82  4A12                     tst.b      [A2]
00002B84  6728                     beq        +0x2A /* 00002BAE */
00002B86  4A2B 0010                tst.b      [A3 + 0x10]
00002B8A  670E                     beq        +0x10 /* 00002B9A */
00002B8C  3F14                     move.w     -[A7], [A4]
00002B8E  2F3C 0000 1538           move.l     -[A7], 0x1538
00002B94  4EBA 091E                jsr        [PC + 0x91E /* 000034B4 */]
00002B98  5C8F                     addq.l     A7, 6
label00002B9A:
00002B9A  4254                     clr.w      [A4]
00002B9C  4212                     clr.b      [A2]
00002B9E  7000                     moveq.l    D0, 0x00
00002BA0  102D C702                move.b     D0, [A5 - 0x38FE]
00002BA4  BC40                     cmp.w      D6, D0
00002BA6  6606                     bne        +0x8 /* 00002BAE */
00002BA8  1B7C 00FF C702           move.b     [A5 - 0x38FE], 0xFF
label00002BAE:
00002BAE  5246                     addq.w     D6, 1
label00002BB0:
00002BB0  0C46 0014                cmpi.w     D6, 0x14
00002BB4  6594                     bcs        -0x6A /* 00002B4A */
00002BB6  4A2D EDB0                tst.b      [A5 - 0x1250]
00002BBA  673E                     beq        +0x40 /* 00002BFA */
00002BBC  7C00                     moveq.l    D6, 0x00
00002BBE  6030                     bra        +0x32 /* 00002BF0 */
label00002BC0:
00002BC0  7000                     moveq.l    D0, 0x00
00002BC2  3006                     move.w     D0, D6
00002BC4  49F5 0D20 ED74           lea.l      A4, [A5 - 0x128C + D0 * 4]
00002BCA  BE54                     cmp.w      D7, [A4]
00002BCC  6620                     bne        +0x22 /* 00002BEE */
00002BCE  0C2C 0002 0002           cmpi.b     [A4 + 0x2], 0x2
00002BD4  6708                     beq        +0xA /* 00002BDE */
00002BD6  0C2C 0003 0002           cmpi.b     [A4 + 0x2], 0x3
00002BDC  6610                     bne        +0x12 /* 00002BEE */
label00002BDE:
00002BDE  38BC 00FF                move.w     [A4], 0xFF
00002BE2  197C 00FF 0002           move.b     [A4 + 0x2], 0xFF
00002BE8  197C 00FF 0003           move.b     [A4 + 0x3], 0xFF
label00002BEE:
00002BEE  5246                     addq.w     D6, 1
label00002BF0:
00002BF0  7000                     moveq.l    D0, 0x00
00002BF2  102D EDB0                move.b     D0, [A5 - 0x1250]
00002BF6  B046                     cmp.w      D0, D6
00002BF8  62C6                     bhi        -0x38 /* 00002BC0 */
label00002BFA:
00002BFA  4CDF 1CC0                movem.l    D6,D7,A2,A3,A4, [A7]+
00002BFE  4E5E                     unlink     A6
00002C00  4E75                     rts
export_313:
fn00002C02:
00002C02  4E56 0000                link       A6, 0
00002C06  48E7 0718                movem.l    -[A7], D5,D6,D7,A3,A4
00002C0A  3E2E 0008                move.w     D7, [A6 + 0x8]
00002C0E  4A47                     tst.w      D7
00002C10  6700 00A6                beq        +0xA8 /* 00002CB8 */
00002C14  7C01                     moveq.l    D6, 0x01
00002C16  49ED C5AC                lea.l      A4, [A5 - 0x3A54]
00002C1A  6052                     bra        +0x54 /* 00002C6E */
label00002C1C:
00002C1C  47EC 0008                lea.l      A3, [A4 + 0x8]
00002C20  BE53                     cmp.w      D7, [A3]
00002C22  6644                     bne        +0x46 /* 00002C68 */
00002C24  1A2C 000B                move.b     D5, [A4 + 0xB]
00002C28  0C05 0001                cmpi.b     D5, 0x1
00002C2C  670A                     beq        +0xC /* 00002C38 */
00002C2E  4A05                     tst.b      D5
00002C30  6706                     beq        +0x8 /* 00002C38 */
00002C32  0C05 0004                cmpi.b     D5, 0x4
00002C36  6630                     bne        +0x32 /* 00002C68 */
label00002C38:
00002C38  4A2C 000A                tst.b      [A4 + 0xA]
00002C3C  672A                     beq        +0x2C /* 00002C68 */
00002C3E  4A2C 0010                tst.b      [A4 + 0x10]
00002C42  670E                     beq        +0x10 /* 00002C52 */
00002C44  3F13                     move.w     -[A7], [A3]
00002C46  2F3C 0000 1568           move.l     -[A7], 0x1568
00002C4C  4EBA 0866                jsr        [PC + 0x866 /* 000034B4 */]
00002C50  5C8F                     addq.l     A7, 6
label00002C52:
00002C52  4253                     clr.w      [A3]
00002C54  422C 000A                clr.b      [A4 + 0xA]
00002C58  7000                     moveq.l    D0, 0x00
00002C5A  102D C702                move.b     D0, [A5 - 0x38FE]
00002C5E  BC40                     cmp.w      D6, D0
00002C60  6606                     bne        +0x8 /* 00002C68 */
00002C62  1B7C 00FF C702           move.b     [A5 - 0x38FE], 0xFF
label00002C68:
00002C68  5246                     addq.w     D6, 1
00002C6A  49EC 0012                lea.l      A4, [A4 + 0x12]
label00002C6E:
00002C6E  0C46 0014                cmpi.w     D6, 0x14
00002C72  6DA8                     blt        -0x56 /* 00002C1C */
00002C74  4A2D EDB0                tst.b      [A5 - 0x1250]
00002C78  673E                     beq        +0x40 /* 00002CB8 */
00002C7A  7C00                     moveq.l    D6, 0x00
00002C7C  49ED ED74                lea.l      A4, [A5 - 0x128C]
00002C80  602C                     bra        +0x2E /* 00002CAE */
label00002C82:
00002C82  BE54                     cmp.w      D7, [A4]
00002C84  6624                     bne        +0x26 /* 00002CAA */
00002C86  1A2C 0002                move.b     D5, [A4 + 0x2]
00002C8A  0C05 0001                cmpi.b     D5, 0x1
00002C8E  670A                     beq        +0xC /* 00002C9A */
00002C90  0C05 0004                cmpi.b     D5, 0x4
00002C94  6704                     beq        +0x6 /* 00002C9A */
00002C96  4A05                     tst.b      D5
00002C98  6610                     bne        +0x12 /* 00002CAA */
label00002C9A:
00002C9A  38BC 00FF                move.w     [A4], 0xFF
00002C9E  197C 00FF 0002           move.b     [A4 + 0x2], 0xFF
00002CA4  197C 00FF 0003           move.b     [A4 + 0x3], 0xFF
label00002CAA:
00002CAA  5246                     addq.w     D6, 1
00002CAC  588C                     addq.l     A4, 4
label00002CAE:
00002CAE  7000                     moveq.l    D0, 0x00
00002CB0  102D EDB0                move.b     D0, [A5 - 0x1250]
00002CB4  B046                     cmp.w      D0, D6
00002CB6  6ECA                     bgt        -0x34 /* 00002C82 */
label00002CB8:
00002CB8  4CDF 18E0                movem.l    D5,D6,D7,A3,A4, [A7]+
00002CBC  4E5E                     unlink     A6
00002CBE  4E75                     rts
export_314:
fn00002CC0:
00002CC0  4E56 0000                link       A6, 0
00002CC4  2F07                     move.l     -[A7], D7
00002CC6  4EBA FD16                jsr        [PC - 0x2EA /* 000029DE */]
00002CCA  0C2D 00FF C702           cmpi.b     [A5 - 0x38FE], 0xFF
00002CD0  661E                     bne        +0x20 /* 00002CF0 */
00002CD2  7000                     moveq.l    D0, 0x00
00002CD4  102D EDB0                move.b     D0, [A5 - 0x1250]
00002CD8  3BBC 00FF 0D20 ED74      move.w     [A5 - 0x128C + D0 * 4], 0xFF
00002CE0  7000                     moveq.l    D0, 0x00
00002CE2  102D EDB0                move.b     D0, [A5 - 0x1250]
00002CE6  1BBC 00FF 0D20 ED76      move.b     [A5 - 0x128A + D0 * 4], 0xFF
00002CEE  601A                     bra        +0x1C /* 00002D0A */
label00002CF0:
00002CF0  7000                     moveq.l    D0, 0x00
00002CF2  102D C702                move.b     D0, [A5 - 0x38FE]
00002CF6  C1FC 0012                muls.w     D0, 0x12
00002CFA  7200                     moveq.l    D1, 0x00
00002CFC  122D EDB0                move.b     D1, [A5 - 0x1250]
00002D00  3BB5 0920 C5A2 1D20 ED74 move.w     [A5 - 0x128C + D1 * 4], [A5 - 0x3A5E + D0]
label00002D0A:
00002D0A  7000                     moveq.l    D0, 0x00
00002D0C  102D C702                move.b     D0, [A5 - 0x38FE]
00002D10  C1FC 0012                muls.w     D0, 0x12
00002D14  7200                     moveq.l    D1, 0x00
00002D16  122D EDB0                move.b     D1, [A5 - 0x1250]
00002D1A  1BB5 0920 C5A5 1D20 ED76 move.b     [A5 - 0x128A + D1 * 4], [A5 - 0x3A5B + D0]
00002D24  7000                     moveq.l    D0, 0x00
00002D26  102D EDB0                move.b     D0, [A5 - 0x1250]
00002D2A  1BAD C702 0D20 ED77      move.b     [A5 - 0x1289 + D0 * 4], [A5 - 0x38FE]
00002D32  102D EDB0                move.b     D0, [A5 - 0x1250]
00002D36  522D EDB0                addq.b     [A5 - 0x1250], 1
00002D3A  0C00 000F                cmpi.b     D0, 0xF
00002D3E  650C                     bcs        +0xE /* 00002D4C */
00002D40  2F3C 0000 1598           move.l     -[A7], 0x1598
00002D46  4EBA 076C                jsr        [PC + 0x76C /* 000034B4 */]
00002D4A  588F                     addq.l     A7, 4
label00002D4C:
00002D4C  1B6E 0009 C702           move.b     [A5 - 0x38FE], [A6 + 0x9]
00002D52  4EBA FCBC                jsr        [PC - 0x344 /* 00002A10 */]
00002D56  4EBA FC64                jsr        [PC - 0x39C /* 000029BC */]
00002D5A  4EBA FC00                jsr        [PC - 0x400 /* 0000295C */]
00002D5E  532D EDB0                subq.b     [A5 - 0x1250], 1
00002D62  7000                     moveq.l    D0, 0x00
00002D64  102D EDB0                move.b     D0, [A5 - 0x1250]
00002D68  0C75 00FF 0D20 ED74      cmpi.w     [A5 - 0x128C + D0 * 4], 0xFF
00002D70  6608                     bne        +0xA /* 00002D7A */
label00002D72:
00002D72  1B7C 00FF C702           move.b     [A5 - 0x38FE], 0xFF
00002D78  6062                     bra        +0x64 /* 00002DDC */
label00002D7A:
00002D7A  7000                     moveq.l    D0, 0x00
00002D7C  102D EDB0                move.b     D0, [A5 - 0x1250]
00002D80  7E00                     moveq.l    D7, 0x00
00002D82  1E35 0D20 ED77           move.b     D7, [A5 - 0x1289 + D0 * 4]
00002D88  7000                     moveq.l    D0, 0x00
00002D8A  102D EDB0                move.b     D0, [A5 - 0x1250]
00002D8E  7212                     moveq.l    D1, 0x12
00002D90  C2C7                     mulu.w     D1, D7
00002D92  3235 1920 C5A2           move.w     D1, [A5 - 0x3A5E + D1]
00002D98  B275 0D20 ED74           cmp.w      D1, [A5 - 0x128C + D0 * 4]
00002D9E  66D2                     bne        -0x2C /* 00002D72 */
00002DA0  7000                     moveq.l    D0, 0x00
00002DA2  102D EDB0                move.b     D0, [A5 - 0x1250]
00002DA6  7212                     moveq.l    D1, 0x12
00002DA8  C2C7                     mulu.w     D1, D7
00002DAA  1235 1920 C5A5           move.b     D1, [A5 - 0x3A5B + D1]
00002DB0  B235 0D20 ED76           cmp.b      D1, [A5 - 0x128A + D0 * 4]
00002DB6  66BA                     bne        -0x44 /* 00002D72 */
00002DB8  7012                     moveq.l    D0, 0x12
00002DBA  C0C7                     mulu.w     D0, D7
00002DBC  4A35 0920 C5A4           tst.b      [A5 - 0x3A5C + D0]
00002DC2  67AE                     beq        -0x50 /* 00002D72 */
00002DC4  7012                     moveq.l    D0, 0x12
00002DC6  C0C7                     mulu.w     D0, D7
00002DC8  4A35 0920 C5A8           tst.b      [A5 - 0x3A58 + D0]
00002DCE  66A2                     bne        -0x5C /* 00002D72 */
00002DD0  1B47 C702                move.b     [A5 - 0x38FE], D7
00002DD4  4EBA FC3A                jsr        [PC - 0x3C6 /* 00002A10 */]
00002DD8  4EBA FBE2                jsr        [PC - 0x41E /* 000029BC */]
label00002DDC:
00002DDC  2E1F                     move.l     D7, [A7]+
00002DDE  4E5E                     unlink     A6
00002DE0  4E75                     rts
export_315:
00002DE2  4E56 0000                link       A6, 0
00002DE6  48E7 1F08                movem.l    -[A7], D3,D4,D5,D6,D7,A4
00002DEA  3E2E 0008                move.w     D7, [A6 + 0x8]
00002DEE  4A47                     tst.w      D7
00002DF0  6700 00D8                beq        +0xDA /* 00002ECA */
00002DF4  4A6E 000E                tst.w      [A6 + 0xE]
00002DF8  6608                     bne        +0xA /* 00002E02 */
00002DFA  3F07                     move.w     -[A7], D7
00002DFC  4EBA FE04                jsr        [PC - 0x1FC /* 00002C02 */]
00002E00  548F                     addq.l     A7, 2
label00002E02:
00002E02  3F07                     move.w     -[A7], D7
00002E04  4EAD 07A2                jsr        [A5 + 0x7A2 /* export_240, CODE:4 @ 00006168 */]
00002E08  3C00                     move.w     D6, D0
00002E0A  5240                     addq.w     D0, 1
00002E0C  548F                     addq.l     A7, 2
00002E0E  6616                     bne        +0x18 /* 00002E26 */
00002E10  7000                     moveq.l    D0, 0x00
00002E12  102D B2D7                move.b     D0, [A5 - 0x4D29]
00002E16  3F00                     move.w     -[A7], D0
00002E18  3F07                     move.w     -[A7], D7
00002E1A  2F3C 0000 15B0           move.l     -[A7], 0x15B0
00002E20  4EBA 0692                jsr        [PC + 0x692 /* 000034B4 */]
00002E24  508F                     addq.l     A7, 8
label00002E26:
00002E26  3F07                     move.w     -[A7], D7
00002E28  4EAD 074A                jsr        [A5 + 0x74A /* export_229, CODE:4 @ 00005FEC */]
00002E2C  2A00                     move.l     D5, D0
00002E2E  4EBA 019E                jsr        [PC + 0x19E /* 00002FCE */]
00002E32  3800                     move.w     D4, D0
00002E34  3EAE 000A                move.w     [A7], [A6 + 0xA]
00002E38  3F07                     move.w     -[A7], D7
00002E3A  4EAD 075A                jsr        [A5 + 0x75A /* export_231, CODE:4 @ 00005BE2 */]
00002E3E  3600                     move.w     D3, D0
00002E40  4A43                     tst.w      D3
00002E42  588F                     addq.l     A7, 4
00002E44  6700 0084                beq        +0x86 /* 00002ECA */
00002E48  7012                     moveq.l    D0, 0x12
00002E4A  C1C4                     muls.w     D0, D4
00002E4C  49ED C59A                lea.l      A4, [A5 - 0x3A66]
00002E50  D08C                     add.l      D0, A4
00002E52  2840                     movea.l    A4, D0
00002E54  3947 0008                move.w     [A4 + 0x8], D7
00002E58  7000                     moveq.l    D0, 0x00
00002E5A  3003                     move.w     D0, D3
00002E5C  D085                     add.l      D0, D5
00002E5E  2880                     move.l     [A4], D0
00002E60  197C 0002 000A           move.b     [A4 + 0xA], 0x2
00002E66  1946 000B                move.b     [A4 + 0xB], D6
00002E6A  196E 000D 000C           move.b     [A4 + 0xC], [A6 + 0xD]
00002E70  196E 000F 000D           move.b     [A4 + 0xD], [A6 + 0xF]
00002E76  422C 000E                clr.b      [A4 + 0xE]
00002E7A  4AAE 0010                tst.l      [A6 + 0x10]
00002E7E  6620                     bne        +0x22 /* 00002EA0 */
00002E80  7E00                     moveq.l    D7, 0x00
00002E82  99CC                     sub.l      A4, A4
00002E84  6012                     bra        +0x14 /* 00002E98 */
label00002E86:
00002E86  7022                     moveq.l    D0, 0x22
00002E88  C1C4                     muls.w     D0, D4
00002E8A  41ED CF6E                lea.l      A0, [A5 - 0x3092]
00002E8E  D088                     add.l      D0, A0
00002E90  4274 0800                clr.w      [A4 + D0]
00002E94  5247                     addq.w     D7, 1
00002E96  548C                     addq.l     A4, 2
label00002E98:
00002E98  0C47 0010                cmpi.w     D7, 0x10
00002E9C  6DE8                     blt        -0x16 /* 00002E86 */
00002E9E  6022                     bra        +0x24 /* 00002EC2 */
label00002EA0:
00002EA0  7E00                     moveq.l    D7, 0x00
00002EA2  99CC                     sub.l      A4, A4
00002EA4  6016                     bra        +0x18 /* 00002EBC */
label00002EA6:
00002EA6  7022                     moveq.l    D0, 0x22
00002EA8  C1C4                     muls.w     D0, D4
00002EAA  41ED CF6E                lea.l      A0, [A5 - 0x3092]
00002EAE  D088                     add.l      D0, A0
00002EB0  39B6 C925 0010 0800      move.w     [A4 + D0], [[A6 + 0x10] + A4]
00002EB8  5247                     addq.w     D7, 1
00002EBA  548C                     addq.l     A4, 2
label00002EBC:
00002EBC  0C47 0010                cmpi.w     D7, 0x10
00002EC0  6DE4                     blt        -0x1A /* 00002EA6 */
label00002EC2:
00002EC2  3F04                     move.w     -[A7], D4
00002EC4  4EBA FDFA                jsr        [PC - 0x206 /* 00002CC0 */]
00002EC8  548F                     addq.l     A7, 2
label00002ECA:
00002ECA  4CDF 10F8                movem.l    D3,D4,D5,D6,D7,A4, [A7]+
00002ECE  4E5E                     unlink     A6
00002ED0  4E75                     rts
export_316:
fn00002ED2:
00002ED2  4E56 0000                link       A6, 0
00002ED6  48E7 1F08                movem.l    -[A7], D3,D4,D5,D6,D7,A4
00002EDA  3E2E 0008                move.w     D7, [A6 + 0x8]
00002EDE  4A47                     tst.w      D7
00002EE0  6700 00E2                beq        +0xE4 /* 00002FC4 */
00002EE4  4A6E 000C                tst.w      [A6 + 0xC]
00002EE8  6608                     bne        +0xA /* 00002EF2 */
00002EEA  3F07                     move.w     -[A7], D7
00002EEC  4EBA FC46                jsr        [PC - 0x3BA /* 00002B34 */]
00002EF0  548F                     addq.l     A7, 2
label00002EF2:
00002EF2  7C00                     moveq.l    D6, 0x00
00002EF4  1C2D EC8E                move.b     D6, [A5 - 0x1372]
00002EF8  BC47                     cmp.w      D6, D7
00002EFA  6F16                     ble        +0x18 /* 00002F12 */
00002EFC  3F07                     move.w     -[A7], D7
00002EFE  3F3C 0002                move.w     -[A7], 0x2
00002F02  4EAD 03E2                jsr        [A5 + 0x3E2 /* export_120, CODE:2 @ 00003CEE */]
00002F06  4EBA FAB2                jsr        [PC - 0x54E /* 000029BA */]
00002F0A  7C02                     moveq.l    D6, 0x02
00002F0C  7A08                     moveq.l    D5, 0x08
00002F0E  588F                     addq.l     A7, 4
00002F10  602A                     bra        +0x2C /* 00002F3C */
label00002F12:
00002F12  3007                     move.w     D0, D7
00002F14  9046                     sub.w      D0, D6
00002F16  2A35 0520 C83E           move.l     D5, [A5 - 0x37C2 + D0 * 4]
00002F1C  4A85                     tst.l      D5
00002F1E  6616                     bne        +0x18 /* 00002F36 */
00002F20  7000                     moveq.l    D0, 0x00
00002F22  102D B2D7                move.b     D0, [A5 - 0x4D29]
00002F26  3F00                     move.w     -[A7], D0
00002F28  3F07                     move.w     -[A7], D7
00002F2A  2F3C 0000 15D2           move.l     -[A7], 0x15D2
00002F30  4EBA 0582                jsr        [PC + 0x582 /* 000034B4 */]
00002F34  508F                     addq.l     A7, 8
label00002F36:
00002F36  7009                     moveq.l    D0, 0x09
00002F38  DA80                     add.l      D5, D0
00002F3A  7C03                     moveq.l    D6, 0x03
label00002F3C:
00002F3C  4EBA 0090                jsr        [PC + 0x90 /* 00002FCE */]
00002F40  3800                     move.w     D4, D0
00002F42  7012                     moveq.l    D0, 0x12
00002F44  C0C4                     mulu.w     D0, D4
00002F46  49ED C59A                lea.l      A4, [A5 - 0x3A66]
00002F4A  D08C                     add.l      D0, A4
00002F4C  2840                     movea.l    A4, D0
00002F4E  7600                     moveq.l    D3, 0x00
00002F50  3604                     move.w     D3, D4
00002F52  3947 0008                move.w     [A4 + 0x8], D7
00002F56  2885                     move.l     [A4], D5
00002F58  197C 0002 000A           move.b     [A4 + 0xA], 0x2
00002F5E  1946 000B                move.b     [A4 + 0xB], D6
00002F62  196E 000B 000C           move.b     [A4 + 0xC], [A6 + 0xB]
00002F68  196E 000D 000D           move.b     [A4 + 0xD], [A6 + 0xD]
00002F6E  422C 000E                clr.b      [A4 + 0xE]
00002F72  4AAE 000E                tst.l      [A6 + 0xE]
00002F76  6622                     bne        +0x24 /* 00002F9A */
00002F78  7E00                     moveq.l    D7, 0x00
00002F7A  99CC                     sub.l      A4, A4
00002F7C  6014                     bra        +0x16 /* 00002F92 */
label00002F7E:
00002F7E  7022                     moveq.l    D0, 0x22
00002F80  4C03 0000                mulu.l     D0, D3
00002F84  41ED CF6E                lea.l      A0, [A5 - 0x3092]
00002F88  D088                     add.l      D0, A0
00002F8A  4274 0800                clr.w      [A4 + D0]
00002F8E  5247                     addq.w     D7, 1
00002F90  548C                     addq.l     A4, 2
label00002F92:
00002F92  0C47 0010                cmpi.w     D7, 0x10
00002F96  6DE6                     blt        -0x18 /* 00002F7E */
00002F98  6024                     bra        +0x26 /* 00002FBE */
label00002F9A:
00002F9A  7E00                     moveq.l    D7, 0x00
00002F9C  99CC                     sub.l      A4, A4
00002F9E  6018                     bra        +0x1A /* 00002FB8 */
label00002FA0:
00002FA0  7022                     moveq.l    D0, 0x22
00002FA2  4C03 0000                mulu.l     D0, D3
00002FA6  41ED CF6E                lea.l      A0, [A5 - 0x3092]
00002FAA  D088                     add.l      D0, A0
00002FAC  39B6 C925 000E 0800      move.w     [A4 + D0], [[A6 + 0xE] + A4]
00002FB4  5247                     addq.w     D7, 1
00002FB6  548C                     addq.l     A4, 2
label00002FB8:
00002FB8  0C47 0010                cmpi.w     D7, 0x10
00002FBC  6DE2                     blt        -0x1C /* 00002FA0 */
label00002FBE:
00002FBE  3F04                     move.w     -[A7], D4
00002FC0  4EBA FCFE                jsr        [PC - 0x302 /* 00002CC0 */]
label00002FC4:
00002FC4  4CEE 10F8 FFE8           movem.l    D3,D4,D5,D6,D7,A4, [A6 - 0x18]
00002FCA  4E5E                     unlink     A6
00002FCC  4E75                     rts
export_317:
fn00002FCE:
00002FCE  48E7 0108                movem.l    -[A7], D7,A4
00002FD2  7E01                     moveq.l    D7, 0x01
00002FD4  49ED C5AC                lea.l      A4, [A5 - 0x3A54]
00002FD8  6010                     bra        +0x12 /* 00002FEA */
label00002FDA:
00002FDA  4A2C 000A                tst.b      [A4 + 0xA]
00002FDE  6604                     bne        +0x6 /* 00002FE4 */
00002FE0  3007                     move.w     D0, D7
00002FE2  601C                     bra        +0x1E /* 00003000 */
label00002FE4:
00002FE4  5247                     addq.w     D7, 1
00002FE6  49EC 0012                lea.l      A4, [A4 + 0x12]
label00002FEA:
00002FEA  0C47 0014                cmpi.w     D7, 0x14
00002FEE  6DEA                     blt        -0x14 /* 00002FDA */
00002FF0  3F3C 0014                move.w     -[A7], 0x14
00002FF4  2F3C 0000 15F4           move.l     -[A7], 0x15F4
00002FFA  4EBA 04B8                jsr        [PC + 0x4B8 /* 000034B4 */]
00002FFE  5C8F                     addq.l     A7, 6
label00003000:
00003000  4CDF 1080                movem.l    D7,A4, [A7]+
00003004  4E75                     rts
export_318:
00003006  4E56 0000                link       A6, 0
0000300A  48E7 0118                movem.l    -[A7], D7,A3,A4
0000300E  7E01                     moveq.l    D7, 0x01
00003010  6042                     bra        +0x44 /* 00003054 */
label00003012:
00003012  BE2D C702                cmp.b      D7, [A5 - 0x38FE]
00003016  673A                     beq        +0x3C /* 00003052 */
00003018  7000                     moveq.l    D0, 0x00
0000301A  1007                     move.b     D0, D7
0000301C  C1FC 0012                muls.w     D0, 0x12
00003020  49ED C5A4                lea.l      A4, [A5 - 0x3A5C]
00003024  D08C                     add.l      D0, A4
00003026  2840                     movea.l    A4, D0
00003028  7000                     moveq.l    D0, 0x00
0000302A  1007                     move.b     D0, D7
0000302C  C1FC 0012                muls.w     D0, 0x12
00003030  47ED C59A                lea.l      A3, [A5 - 0x3A66]
00003034  D08B                     add.l      D0, A3
00003036  2640                     movea.l    A3, D0
00003038  4A14                     tst.b      [A4]
0000303A  6716                     beq        +0x18 /* 00003052 */
0000303C  4A2B 000C                tst.b      [A3 + 0xC]
00003040  6708                     beq        +0xA /* 0000304A */
00003042  0C6E 0080 0008           cmpi.w     [A6 + 0x8], 0x80
00003048  6D08                     blt        +0xA /* 00003052 */
label0000304A:
0000304A  0014 0080                ori.b      [A4], 0x80
0000304E  522B 000E                addq.b     [A3 + 0xE], 1
label00003052:
00003052  5207                     addq.b     D7, 1
label00003054:
00003054  0C07 0014                cmpi.b     D7, 0x14
00003058  65B8                     bcs        -0x46 /* 00003012 */
0000305A  7E00                     moveq.l    D7, 0x00
0000305C  600C                     bra        +0xE /* 0000306A */
label0000305E:
0000305E  7000                     moveq.l    D0, 0x00
00003060  1007                     move.b     D0, D7
00003062  5235 0920 ED38           addq.b     [A5 - 0x12C8 + D0], 1
00003068  5207                     addq.b     D7, 1
label0000306A:
0000306A  0C07 0006                cmpi.b     D7, 0x6
0000306E  65EE                     bcs        -0x10 /* 0000305E */
00003070  0C6D 00FF EC90           cmpi.w     [A5 - 0x1370], 0xFF
00003076  6718                     beq        +0x1A /* 00003090 */
00003078  7012                     moveq.l    D0, 0x12
0000307A  C0ED EC90                mulu.w     D0, [A5 - 0x1370]
0000307E  49ED C59A                lea.l      A4, [A5 - 0x3A66]
00003082  D08C                     add.l      D0, A4
00003084  2840                     movea.l    A4, D0
00003086  022C 007F 000A           andi.b     [A4 + 0xA], 0x7F
0000308C  422C 000E                clr.b      [A4 + 0xE]
label00003090:
00003090  4CDF 1880                movem.l    D7,A3,A4, [A7]+
00003094  4E5E                     unlink     A6
00003096  4E75                     rts
export_319:
00003098  48E7 0118                movem.l    -[A7], D7,A3,A4
0000309C  7E01                     moveq.l    D7, 0x01
0000309E  6028                     bra        +0x2A /* 000030C8 */
label000030A0:
000030A0  7012                     moveq.l    D0, 0x12
000030A2  C0C7                     mulu.w     D0, D7
000030A4  49ED C5A4                lea.l      A4, [A5 - 0x3A5C]
000030A8  D08C                     add.l      D0, A4
000030AA  2840                     movea.l    A4, D0
000030AC  7012                     moveq.l    D0, 0x12
000030AE  C0C7                     mulu.w     D0, D7
000030B0  47ED C59A                lea.l      A3, [A5 - 0x3A66]
000030B4  D08B                     add.l      D0, A3
000030B6  2640                     movea.l    A3, D0
000030B8  4A14                     tst.b      [A4]
000030BA  6A0A                     bpl        +0xC /* 000030C6 */
000030BC  532B 000E                subq.b     [A3 + 0xE], 1
000030C0  6604                     bne        +0x6 /* 000030C6 */
000030C2  0214 007F                andi.b     [A4], 0x7F
label000030C6:
000030C6  5247                     addq.w     D7, 1
label000030C8:
000030C8  0C47 0014                cmpi.w     D7, 0x14
000030CC  65D2                     bcs        -0x2C /* 000030A0 */
000030CE  7E00                     moveq.l    D7, 0x00
000030D0  6016                     bra        +0x18 /* 000030E8 */
label000030D2:
000030D2  7000                     moveq.l    D0, 0x00
000030D4  3007                     move.w     D0, D7
000030D6  49ED ED38                lea.l      A4, [A5 - 0x12C8]
000030DA  D08C                     add.l      D0, A4
000030DC  2840                     movea.l    A4, D0
000030DE  5314                     subq.b     [A4], 1
000030E0  4A14                     tst.b      [A4]
000030E2  6C02                     bge        +0x4 /* 000030E6 */
000030E4  4214                     clr.b      [A4]
label000030E6:
000030E6  5247                     addq.w     D7, 1
label000030E8:
000030E8  0C47 0006                cmpi.w     D7, 0x6
000030EC  65E4                     bcs        -0x1A /* 000030D2 */
000030EE  4CDF 1880                movem.l    D7,A3,A4, [A7]+
000030F2  4E75                     rts
export_320:
000030F4  4E56 FFE0                link       A6, -0x0020
000030F8  2F07                     move.l     -[A7], D7
000030FA  3D6E 0008 FFE0           move.w     [A6 - 0x20], [A6 + 0x8]
00003100  3E2D C970                move.w     D7, [A5 - 0x3690]
00003104  6710                     beq        +0x12 /* 00003116 */
00003106  486E FFE0                pea.l      [A6 - 0x20]
0000310A  42A7                     clr.l      -[A7]
0000310C  3F07                     move.w     -[A7], D7
0000310E  4EBA FDC2                jsr        [PC - 0x23E /* 00002ED2 */]
00003112  4FEF 000A                lea.l      A7, [A7 + 0xA]
label00003116:
00003116  2E1F                     move.l     D7, [A7]+
00003118  4E5E                     unlink     A6
0000311A  4E75                     rts
export_301:
fn0000311C:
0000311C  4E56 FFFE                link       A6, -0x0002
00003120  48E7 0300                movem.l    -[A7], D6,D7
00003124  3E2E 0008                move.w     D7, [A6 + 0x8]
00003128  E8C7 0404                bftst      D7 {16:4}
0000312C  6622                     bne        +0x24 /* 00003150 */
0000312E  2F3C 0000 1616           move.l     -[A7], 0x1616
00003134  3F07                     move.w     -[A7], D7
00003136  2F3C 031F 0000           move.l     -[A7], 0x31F0000
0000313C  4EBA 0326                jsr        [PC + 0x326 /* 00003464 */]
00003140  7000                     moveq.l    D0, 0x00
00003142  3007                     move.w     D0, D7
00003144  3D75 0B20 C92C 000A      move.w     [A6 + 0xA], [A5 - 0x36D4 + D0 * 2]
0000314C  6000 00DA                bra        +0xDC /* 00003228 */
label00003150:
00003150  0807 000D                btst.b     D7, 0xD /* '\r' */
00003154  672A                     beq        +0x2C /* 00003180 */
00003156  4EBA F7BC                jsr        [PC - 0x844 /* 00002914 */]
0000315A  3C00                     move.w     D6, D0
0000315C  0806 000D                btst.b     D6, 0xD /* '\r' */
00003160  6712                     beq        +0x14 /* 00003174 */
00003162  4267                     clr.w      -[A7]
00003164  3006                     move.w     D0, D6
00003166  0240 DFFF                andi.w     D0, 0xDFFF
0000316A  3F00                     move.w     -[A7], D0
0000316C  4EBA FFAE                jsr        [PC - 0x52 /* 0000311C */]
00003170  DE5F                     add.w      D7, [A7]+
00003172  6008                     bra        +0xA /* 0000317C */
label00003174:
00003174  3006                     move.w     D0, D6
00003176  0240 0FFF                andi.w     D0, 0xFFF
0000317A  DE40                     add.w      D7, D0
label0000317C:
0000317C  0247 DFFF                andi.w     D7, 0xDFFF
label00003180:
00003180  E8C7 0404                bftst      D7 {16:4}
00003184  6610                     bne        +0x12 /* 00003196 */
00003186  7000                     moveq.l    D0, 0x00
00003188  3007                     move.w     D0, D7
0000318A  3D75 0B20 C92C 000A      move.w     [A6 + 0xA], [A5 - 0x36D4 + D0 * 2]
00003192  6000 0094                bra        +0x96 /* 00003228 */
label00003196:
00003196  4A47                     tst.w      D7
00003198  6A46                     bpl        +0x48 /* 000031E0 */
0000319A  7C07                     moveq.l    D6, 0x07
0000319C  CC07                     and.b      D6, D7
0000319E  0247 0FFF                andi.w     D7, 0xFFF
000031A2  E64F                     lsr        D7.w, 3
000031A4  2F3C 0000 1632           move.l     -[A7], 0x1632
000031AA  3007                     move.w     D0, D7
000031AC  E748                     lsl        D0.w, 3
000031AE  3F00                     move.w     -[A7], D0
000031B0  2F3C 07FF 0000           move.l     -[A7], 0x7FF0000
000031B6  4EBA 02AC                jsr        [PC + 0x2AC /* 00003464 */]
000031BA  7000                     moveq.l    D0, 0x00
000031BC  1006                     move.b     D0, D6
000031BE  7200                     moveq.l    D1, 0x00
000031C0  3207                     move.w     D1, D7
000031C2  7400                     moveq.l    D2, 0x00
000031C4  1435 1920 D216           move.b     D2, [A5 - 0x2DEA + D1]
000031CA  C475 0B20 B052           and.w      D2, [A5 - 0x4FAE + D0 * 2]
000031D0  6708                     beq        +0xA /* 000031DA */
000031D2  3D7C 0001 000A           move.w     [A6 + 0xA], 0x1
000031D8  604E                     bra        +0x50 /* 00003228 */
label000031DA:
000031DA  426E 000A                clr.w      [A6 + 0xA]
000031DE  6048                     bra        +0x4A /* 00003228 */
label000031E0:
000031E0  0807 000E                btst.b     D7, 0xE
000031E4  6738                     beq        +0x3A /* 0000321E */
000031E6  3C07                     move.w     D6, D7
000031E8  0246 0FFF                andi.w     D6, 0xFFF
000031EC  2F3C 0000 1652           move.l     -[A7], 0x1652
000031F2  3F06                     move.w     -[A7], D6
000031F4  2F3C 0010 0000           move.l     -[A7], 0x100000
000031FA  4EBA 0268                jsr        [PC + 0x268 /* 00003464 */]
000031FE  7000                     moveq.l    D0, 0x00
00003200  102D C702                move.b     D0, [A5 - 0x38FE]
00003204  C1FC 0022                muls.w     D0, 0x22 /* '\"' */
00003208  7200                     moveq.l    D1, 0x00
0000320A  3206                     move.w     D1, D6
0000320C  41ED CF6E                lea.l      A0, [A5 - 0x3092]
00003210  D088                     add.l      D0, A0
00003212  D281                     add.l      D1, D1
00003214  D081                     add.l      D0, D1
00003216  2040                     movea.l    A0, D0
00003218  3D50 000A                move.w     [A6 + 0xA], [A0]
0000321C  600A                     bra        +0xC /* 00003228 */
label0000321E:
0000321E  2F3C 0000 1674           move.l     -[A7], 0x1674
00003224  4EBA 028E                jsr        [PC + 0x28E /* 000034B4 */]
label00003228:
00003228  4CEE 00C0 FFF6           movem.l    D6,D7, [A6 - 0xA]
0000322E  4E5E                     unlink     A6
00003230  4E74 0002                rtd        0x0002
export_300:
00003234  4E56 0000                link       A6, 0
00003238  48E7 0700                movem.l    -[A7], D5,D6,D7
0000323C  3E2E 0008                move.w     D7, [A6 + 0x8]
00003240  E8ED 0004 ED72           bftst      [A5 - 0x128E] {0:4}
00003246  6624                     bne        +0x26 /* 0000326C */
00003248  2F3C 0000 1684           move.l     -[A7], 0x1684
0000324E  3F2D ED72                move.w     -[A7], [A5 - 0x128E]
00003252  2F3C 031F 0000           move.l     -[A7], 0x31F0000
00003258  4EBA 020A                jsr        [PC + 0x20A /* 00003464 */]
0000325C  7000                     moveq.l    D0, 0x00
0000325E  302D ED72                move.w     D0, [A5 - 0x128E]
00003262  3B87 0B20 C92C           move.w     [A5 - 0x36D4 + D0 * 2], D7
00003268  6000 00A4                bra        +0xA6 /* 0000330E */
label0000326C:
0000326C  4A2D ED72                tst.b      [A5 - 0x128E]
00003270  6A56                     bpl        +0x58 /* 000032C8 */
00003272  7C07                     moveq.l    D6, 0x07
00003274  CC6D ED72                and.w      D6, [A5 - 0x128E]
00003278  3A2D ED72                move.w     D5, [A5 - 0x128E]
0000327C  0245 7FFF                andi.w     D5, 0x7FFF
00003280  E64D                     lsr        D5.w, 3
00003282  2F3C 0000 16A0           move.l     -[A7], 0x16A0
00003288  3F05                     move.w     -[A7], D5
0000328A  2F3C 00FF 0000           move.l     -[A7], 0xFF0000
00003290  4EBA 01D2                jsr        [PC + 0x1D2 /* 00003464 */]
00003294  4A47                     tst.w      D7
00003296  6716                     beq        +0x18 /* 000032AE */
00003298  7000                     moveq.l    D0, 0x00
0000329A  3006                     move.w     D0, D6
0000329C  7200                     moveq.l    D1, 0x00
0000329E  3205                     move.w     D1, D5
000032A0  1035 0B20 B053           move.b     D0, [A5 - 0x4FAD + D0 * 2]
000032A6  8135 1920 D216           or.b       [A5 - 0x2DEA + D1], D0
000032AC  6060                     bra        +0x62 /* 0000330E */
label000032AE:
000032AE  7000                     moveq.l    D0, 0x00
000032B0  3006                     move.w     D0, D6
000032B2  1035 0B20 B053           move.b     D0, [A5 - 0x4FAD + D0 * 2]
000032B8  0A00 00FF                xori.b     D0, 0xFF
000032BC  7200                     moveq.l    D1, 0x00
000032BE  3205                     move.w     D1, D5
000032C0  C135 1920 D216           and.b      [A5 - 0x2DEA + D1], D0
000032C6  6046                     bra        +0x48 /* 0000330E */
label000032C8:
000032C8  082D 0006 ED72           btst.b     [A5 - 0x128E], 0x6
000032CE  673E                     beq        +0x40 /* 0000330E */
000032D0  2F3C 0000 16C0           move.l     -[A7], 0x16C0
000032D6  302D ED72                move.w     D0, [A5 - 0x128E]
000032DA  0240 0FFF                andi.w     D0, 0xFFF
000032DE  3F00                     move.w     -[A7], D0
000032E0  2F3C 0010 0000           move.l     -[A7], 0x100000
000032E6  4EBA 017C                jsr        [PC + 0x17C /* 00003464 */]
000032EA  7000                     moveq.l    D0, 0x00
000032EC  102D C702                move.b     D0, [A5 - 0x38FE]
000032F0  C1FC 0022                muls.w     D0, 0x22 /* '\"' */
000032F4  322D ED72                move.w     D1, [A5 - 0x128E]
000032F8  0241 0FFF                andi.w     D1, 0xFFF
000032FC  7400                     moveq.l    D2, 0x00
000032FE  3401                     move.w     D2, D1
00003300  41ED CF6E                lea.l      A0, [A5 - 0x3092]
00003304  D088                     add.l      D0, A0
00003306  D482                     add.l      D2, D2
00003308  D082                     add.l      D0, D2
0000330A  2040                     movea.l    A0, D0
0000330C  3087                     move.w     [A0], D7
label0000330E:
0000330E  4CDF 00E0                movem.l    D5,D6,D7, [A7]+
00003312  4E5E                     unlink     A6
00003314  4E74 0002                rtd        0x0002
export_321:
00003318  2F07                     move.l     -[A7], D7
0000331A  4EBA F5F8                jsr        [PC - 0xA08 /* 00002914 */]
0000331E  3B40 ED72                move.w     [A5 - 0x128E], D0
00003322  0240 2000                andi.w     D0, 0x2000 /* ' \0' */
00003326  6732                     beq        +0x34 /* 0000335A */
00003328  4EBA F5EA                jsr        [PC - 0xA16 /* 00002914 */]
0000332C  3E00                     move.w     D7, D0
0000332E  0807 000D                btst.b     D7, 0xD /* '\r' */
00003332  6716                     beq        +0x18 /* 0000334A */
00003334  4267                     clr.w      -[A7]
00003336  3007                     move.w     D0, D7
00003338  0240 DFFF                andi.w     D0, 0xDFFF
0000333C  3F00                     move.w     -[A7], D0
0000333E  4EBA FDDC                jsr        [PC - 0x224 /* 0000311C */]
00003342  301F                     move.w     D0, [A7]+
00003344  D16D ED72                add.w      [A5 - 0x128E], D0
00003348  600A                     bra        +0xC /* 00003354 */
label0000334A:
0000334A  3007                     move.w     D0, D7
0000334C  0240 0FFF                andi.w     D0, 0xFFF
00003350  D16D ED72                add.w      [A5 - 0x128E], D0
label00003354:
00003354  026D DFFF ED72           andi.w     [A5 - 0x128E], 0xDFFF
label0000335A:
0000335A  2E1F                     move.l     D7, [A7]+
0000335C  4E75                     rts
export_302:
0000335E  4E56 0000                link       A6, 0
00003362  7000                     moveq.l    D0, 0x00
00003364  102D ED6C                move.b     D0, [A5 - 0x1294]
00003368  C06E 0008                and.w      D0, [A6 + 0x8]
0000336C  6712                     beq        +0x14 /* 00003380 */
0000336E  4267                     clr.w      -[A7]
00003370  4EBA F5A2                jsr        [PC - 0xA5E /* 00002914 */]
00003374  3F00                     move.w     -[A7], D0
00003376  4EBA FDA4                jsr        [PC - 0x25C /* 0000311C */]
0000337A  3D5F 000A                move.w     [A6 + 0xA], [A7]+
0000337E  600C                     bra        +0xE /* 0000338C */
label00003380:
00003380  4EBA F55E                jsr        [PC - 0xAA2 /* 000028E0 */]
00003384  7200                     moveq.l    D1, 0x00
00003386  1200                     move.b     D1, D0
00003388  3D41 000A                move.w     [A6 + 0xA], D1
label0000338C:
0000338C  4E5E                     unlink     A6
0000338E  4E74 0002                rtd        0x0002
export_303:
fn00003392:
00003392  4E56 0000                link       A6, 0
00003396  7000                     moveq.l    D0, 0x00
00003398  102D ED6C                move.b     D0, [A5 - 0x1294]
0000339C  7200                     moveq.l    D1, 0x00
0000339E  122E 0008                move.b     D1, [A6 + 0x8]
000033A2  C041                     and.w      D0, D1
000033A4  6712                     beq        +0x14 /* 000033B8 */
000033A6  4267                     clr.w      -[A7]
000033A8  4EBA F56A                jsr        [PC - 0xA96 /* 00002914 */]
000033AC  3F00                     move.w     -[A7], D0
000033AE  4EBA FD6C                jsr        [PC - 0x294 /* 0000311C */]
000033B2  3D5F 000A                move.w     [A6 + 0xA], [A7]+
000033B6  6008                     bra        +0xA /* 000033C0 */
label000033B8:
000033B8  4EBA F55A                jsr        [PC - 0xAA6 /* 00002914 */]
000033BC  3D40 000A                move.w     [A6 + 0xA], D0
label000033C0:
000033C0  4E5E                     unlink     A6
000033C2  4E74 0002                rtd        0x0002
export_322:
000033C6  4E56 0000                link       A6, 0
000033CA  2F07                     move.l     -[A7], D7
000033CC  7E00                     moveq.l    D7, 0x00
000033CE  600C                     bra        +0xE /* 000033DC */
label000033D0:
000033D0  7000                     moveq.l    D0, 0x00
000033D2  3007                     move.w     D0, D7
000033D4  4276 0B25 0008           clr.w      [[A6 + 0x8] + D0 * 2]
000033DA  5247                     addq.w     D7, 1
label000033DC:
000033DC  0C47 0010                cmpi.w     D7, 0x10
000033E0  65EE                     bcs        -0x10 /* 000033D0 */
000033E2  7E00                     moveq.l    D7, 0x00
label000033E4:
000033E4  4EBA F4FA                jsr        [PC - 0xB06 /* 000028E0 */]
000033E8  1B40 ED6C                move.b     [A5 - 0x1294], D0
000033EC  7200                     moveq.l    D1, 0x00
000033EE  1200                     move.b     D1, D0
000033F0  0C41 00FF                cmpi.w     D1, 0xFF
000033F4  671A                     beq        +0x1C /* 00003410 */
000033F6  4267                     clr.w      -[A7]
000033F8  1F3C 0080                move.b     -[A7], 0x80
000033FC  4EBA FF94                jsr        [PC - 0x6C /* 00003392 */]
00003400  3007                     move.w     D0, D7
00003402  5247                     addq.w     D7, 1
00003404  7200                     moveq.l    D1, 0x00
00003406  3200                     move.w     D1, D0
00003408  3D9F 1B25 0008           move.w     [[A6 + 0x8] + D1 * 2], [A7]+
0000340E  60D4                     bra        -0x2A /* 000033E4 */
label00003410:
00003410  3007                     move.w     D0, D7
00003412  2E1F                     move.l     D7, [A7]+
00003414  4E5E                     unlink     A6
00003416  4E75                     rts
export_323:
00003418  4E56 0000                link       A6, 0
0000341C  48E7 0118                movem.l    -[A7], D7,A3,A4
00003420  7E00                     moveq.l    D7, 0x00
00003422  6032                     bra        +0x34 /* 00003456 */
label00003424:
00003424  7012                     moveq.l    D0, 0x12
00003426  C0C7                     mulu.w     D0, D7
00003428  49ED C5A4                lea.l      A4, [A5 - 0x3A5C]
0000342C  D08C                     add.l      D0, A4
0000342E  2840                     movea.l    A4, D0
00003430  0C14 0001                cmpi.b     [A4], 0x1
00003434  661E                     bne        +0x20 /* 00003454 */
00003436  7012                     moveq.l    D0, 0x12
00003438  C0C7                     mulu.w     D0, D7
0000343A  47ED C59E                lea.l      A3, [A5 - 0x3A62]
0000343E  D08B                     add.l      D0, A3
00003440  2640                     movea.l    A3, D0
00003442  7000                     moveq.l    D0, 0x00
00003444  302E 0008                move.w     D0, [A6 + 0x8]
00003448  9193                     sub.l      [A3], D0
0000344A  4A93                     tst.l      [A3]
0000344C  6C06                     bge        +0x8 /* 00003454 */
0000344E  18BC 0002                move.b     [A4], 0x2
00003452  4293                     clr.l      [A3]
label00003454:
00003454  5247                     addq.w     D7, 1
label00003456:
00003456  0C47 0014                cmpi.w     D7, 0x14
0000345A  65C8                     bcs        -0x36 /* 00003424 */
0000345C  4CDF 1880                movem.l    D7,A3,A4, [A7]+
00003460  4E5E                     unlink     A6
00003462  4E75                     rts
export_306:
fn00003464:
00003464  4E56 FF9A                link       A6, -0x0066
00003468  302E 000C                move.w     D0, [A6 + 0xC]
0000346C  B06E 000A                cmp.w      D0, [A6 + 0xA]
00003470  6D0A                     blt        +0xC /* 0000347C */
00003472  302E 000C                move.w     D0, [A6 + 0xC]
00003476  B06E 0008                cmp.w      D0, [A6 + 0x8]
0000347A  6F32                     ble        +0x34 /* 000034AE */
label0000347C:
0000347C  2F2E 000E                move.l     -[A7], [A6 + 0xE]
00003480  486E FF9C                pea.l      [A6 - 0x64]
00003484  4EAD 0CD2                jsr        [A5 + 0xCD2 /* export_406, CODE:7 @ 000049C2 */]
00003488  2EBC 0000 16E2           move.l     [A7], 0x16E2
0000348E  486E FF9C                pea.l      [A6 - 0x64]
00003492  4EAD 0CDA                jsr        [A5 + 0xCDA /* export_407, CODE:7 @ 000049D2 */]
00003496  3EAE 0008                move.w     [A7], [A6 + 0x8]
0000349A  3F2E 000A                move.w     -[A7], [A6 + 0xA]
0000349E  3F2E 000C                move.w     -[A7], [A6 + 0xC]
000034A2  486E FF9C                pea.l      [A6 - 0x64]
000034A6  4EBA 000C                jsr        [PC + 0xC /* 000034B4 */]
000034AA  4FEF 0014                lea.l      A7, [A7 + 0x14]
label000034AE:
000034AE  4E5E                     unlink     A6
000034B0  4E74 000A                rtd        0x000A
export_324:
fn000034B4:
000034B4  4E56 0000                link       A6, 0
000034B8  3F2E 001A                move.w     -[A7], [A6 + 0x1A]
000034BC  3F2E 0018                move.w     -[A7], [A6 + 0x18]
000034C0  3F2E 0016                move.w     -[A7], [A6 + 0x16]
000034C4  3F2E 0014                move.w     -[A7], [A6 + 0x14]
000034C8  3F2E 0012                move.w     -[A7], [A6 + 0x12]
000034CC  3F2E 0010                move.w     -[A7], [A6 + 0x10]
000034D0  3F2E 000E                move.w     -[A7], [A6 + 0xE]
000034D4  3F2E 000C                move.w     -[A7], [A6 + 0xC]
000034D8  2F2E 0008                move.l     -[A7], [A6 + 0x8]
000034DC  486D F6D0                pea.l      [A5 - 0x930]
000034E0  4EAD 0CC2                jsr        [A5 + 0xCC2 /* export_404, CODE:7 @ 000048E6 */]
000034E4  4257                     clr.w      [A7]
000034E6  486D F6D0                pea.l      [A5 - 0x930]
000034EA  2F3C 00FF 000C           move.l     -[A7], 0xFF000C
000034F0  4EAD 05C2                jsr        [A5 + 0x5C2 /* export_180, CODE:3 @ 00001DF6 */]
000034F4  4EAD 0702                jsr        [A5 + 0x702 /* export_220, CODE:4 @ 00005008 */]
000034F8  4E5E                     unlink     A6
000034FA  4E75                     rts
export_325:
fn000034FC:
000034FC  4E56 0000                link       A6, 0
00003500  3F2E 001A                move.w     -[A7], [A6 + 0x1A]
00003504  3F2E 0018                move.w     -[A7], [A6 + 0x18]
00003508  3F2E 0016                move.w     -[A7], [A6 + 0x16]
0000350C  3F2E 0014                move.w     -[A7], [A6 + 0x14]
00003510  3F2E 0012                move.w     -[A7], [A6 + 0x12]
00003514  3F2E 0010                move.w     -[A7], [A6 + 0x10]
00003518  3F2E 000E                move.w     -[A7], [A6 + 0xE]
0000351C  3F2E 000C                move.w     -[A7], [A6 + 0xC]
00003520  2F2E 0008                move.l     -[A7], [A6 + 0x8]
00003524  486D F6D0                pea.l      [A5 - 0x930]
00003528  4EAD 0CC2                jsr        [A5 + 0xCC2 /* export_404, CODE:7 @ 000048E6 */]
0000352C  4257                     clr.w      [A7]
0000352E  486D F6D0                pea.l      [A5 - 0x930]
00003532  2F3C 00FF 0009           move.l     -[A7], 0xFF0009
00003538  4EAD 05C2                jsr        [A5 + 0x5C2 /* export_180, CODE:3 @ 00001DF6 */]
0000353C  4E5E                     unlink     A6
0000353E  4E75                     rts
fn00003540:
00003540  4E56 FFFE                link       A6, -0x0002
00003544  2F07                     move.l     -[A7], D7
00003546  4878 0020                push.l     0x20 /* ' ' */
0000354A  4267                     clr.w      -[A7]
0000354C  486D AFCA                pea.l      [A5 - 0x5036]
00003550  4EAD 0CAA                jsr        [A5 + 0xCAA /* export_401, CODE:7 @ 00003152 */]
00003554  3B6E 0008 AFCA           move.w     [A5 - 0x5036], [A6 + 0x8]
0000355A  3B6E 000A AFCC           move.w     [A5 - 0x5034], [A6 + 0xA]
00003560  3B6E 000C AFCE           move.w     [A5 - 0x5032], [A6 + 0xC]
00003566  3E2D C96C                move.w     D7, [A5 - 0x3694]
0000356A  4FEF 000A                lea.l      A7, [A7 + 0xA]
0000356E  6710                     beq        +0x12 /* 00003580 */
00003570  486D AFCA                pea.l      [A5 - 0x5036]
00003574  42A7                     clr.l      -[A7]
00003576  3F07                     move.w     -[A7], D7
00003578  4EBA F958                jsr        [PC - 0x6A8 /* 00002ED2 */]
0000357C  4FEF 000A                lea.l      A7, [A7 + 0xA]
label00003580:
00003580  2E1F                     move.l     D7, [A7]+
00003582  4E5E                     unlink     A6
00003584  4E75                     rts
export_326:
00003586  48E7 0318                movem.l    -[A7], D6,D7,A3,A4
0000358A  4A2D EDBA                tst.b      [A5 - 0x1246]
0000358E  6F00 011A                ble        +0x11C /* 000036AA */
00003592  4A6D ECAA                tst.w      [A5 - 0x1356]
00003596  6700 0112                beq        +0x114 /* 000036AA */
0000359A  0C6D 0200 ECAA           cmpi.w     [A5 - 0x1356], 0x200
000035A0  6464                     bcc        +0x66 /* 00003606 */
000035A2  7E01                     moveq.l    D7, 0x01
000035A4  49ED DFD2                lea.l      A4, [A5 - 0x202E]
000035A8  6040                     bra        +0x42 /* 000035EA */
label000035AA:
000035AA  47EC 0010                lea.l      A3, [A4 + 0x10]
000035AE  4A13                     tst.b      [A3]
000035B0  6732                     beq        +0x34 /* 000035E4 */
000035B2  4A2C 0018                tst.b      [A4 + 0x18]
000035B6  662C                     bne        +0x2E /* 000035E4 */
000035B8  0C2C 0001 0017           cmpi.b     [A4 + 0x17], 0x1
000035BE  6624                     bne        +0x26 /* 000035E4 */
000035C0  7000                     moveq.l    D0, 0x00
000035C2  102C 0019                move.b     D0, [A4 + 0x19]
000035C6  B06D ECAA                cmp.w      D0, [A5 - 0x1356]
000035CA  6618                     bne        +0x1A /* 000035E4 */
000035CC  3F3C 0001                move.w     -[A7], 0x1
000035D0  7000                     moveq.l    D0, 0x00
000035D2  1013                     move.b     D0, [A3]
000035D4  3F00                     move.w     -[A7], D0
000035D6  3F3C 0001                move.w     -[A7], 0x1
000035DA  4EBA FF64                jsr        [PC - 0x9C /* 00003540 */]
000035DE  5C8F                     addq.l     A7, 6
000035E0  6000 00C8                bra        +0xCA /* 000036AA */
label000035E4:
000035E4  5247                     addq.w     D7, 1
000035E6  49EC 001C                lea.l      A4, [A4 + 0x1C]
label000035EA:
000035EA  BE6D B116                cmp.w      D7, [A5 - 0x4EEA]
000035EE  6DBA                     blt        -0x44 /* 000035AA */
000035F0  3F3C 0001                move.w     -[A7], 0x1
000035F4  3F2D ECAA                move.w     -[A7], [A5 - 0x1356]
000035F8  3F3C 0004                move.w     -[A7], 0x4
000035FC  4EBA FF42                jsr        [PC - 0xBE /* 00003540 */]
00003600  5C8F                     addq.l     A7, 6
00003602  6000 00A6                bra        +0xA8 /* 000036AA */
label00003606:
00003606  E8ED 0002 ECAA           bftst      [A5 - 0x1356] {0:2}
0000360C  6700 009C                beq        +0x9E /* 000036AA */
00003610  4A2D ECAA                tst.b      [A5 - 0x1356]
00003614  6A04                     bpl        +0x6 /* 0000361A */
00003616  7C01                     moveq.l    D6, 0x01
00003618  6002                     bra        +0x4 /* 0000361C */
label0000361A:
0000361A  7C02                     moveq.l    D6, 0x02
label0000361C:
0000361C  302D EDC0                move.w     D0, [A5 - 0x1240]
00003620  B06D F28C                cmp.w      D0, [A5 - 0xD74]
00003624  6554                     bcs        +0x56 /* 0000367A */
00003626  302D F28C                move.w     D0, [A5 - 0xD74]
0000362A  D06D F290                add.w      D0, [A5 - 0xD70]
0000362E  B06D EDC0                cmp.w      D0, [A5 - 0x1240]
00003632  6346                     bls        +0x48 /* 0000367A */
00003634  3F2D EDC0                move.w     -[A7], [A5 - 0x1240]
00003638  3F2D EDBE                move.w     -[A7], [A5 - 0x1242]
0000363C  4EAD 0B52                jsr        [A5 + 0xB52 /* export_358, CODE:6 @ 000002FA */]
00003640  3E00                     move.w     D7, D0
00003642  588F                     addq.l     A7, 4
00003644  6720                     beq        +0x22 /* 00003666 */
00003646  701C                     moveq.l    D0, 0x1C
00003648  C1C7                     muls.w     D0, D7
0000364A  7E00                     moveq.l    D7, 0x00
0000364C  1E35 0920 DFC6           move.b     D7, [A5 - 0x203A + D0]
00003652  7000                     moveq.l    D0, 0x00
00003654  1006                     move.b     D0, D6
00003656  3F00                     move.w     -[A7], D0
00003658  3F07                     move.w     -[A7], D7
0000365A  3F3C 0001                move.w     -[A7], 0x1
0000365E  4EBA FEE0                jsr        [PC - 0x120 /* 00003540 */]
00003662  5C8F                     addq.l     A7, 6
00003664  6044                     bra        +0x46 /* 000036AA */
label00003666:
00003666  7000                     moveq.l    D0, 0x00
00003668  1006                     move.b     D0, D6
0000366A  3F00                     move.w     -[A7], D0
0000366C  2F3C 0002 0000           move.l     -[A7], 0x20000
00003672  4EBA FECC                jsr        [PC - 0x134 /* 00003540 */]
00003676  5C8F                     addq.l     A7, 6
00003678  6030                     bra        +0x32 /* 000036AA */
label0000367A:
0000367A  3F2D EDC0                move.w     -[A7], [A5 - 0x1240]
0000367E  3F2D EDBE                move.w     -[A7], [A5 - 0x1242]
00003682  4EAD 0B52                jsr        [A5 + 0xB52 /* export_358, CODE:6 @ 000002FA */]
00003686  3E00                     move.w     D7, D0
00003688  588F                     addq.l     A7, 4
0000368A  670C                     beq        +0xE /* 00003698 */
0000368C  701C                     moveq.l    D0, 0x1C
0000368E  C1C7                     muls.w     D0, D7
00003690  7E00                     moveq.l    D7, 0x00
00003692  1E35 0920 DFC6           move.b     D7, [A5 - 0x203A + D0]
label00003698:
00003698  7000                     moveq.l    D0, 0x00
0000369A  1006                     move.b     D0, D6
0000369C  3F00                     move.w     -[A7], D0
0000369E  3F07                     move.w     -[A7], D7
000036A0  3F3C 0001                move.w     -[A7], 0x1
000036A4  4EBA FE9A                jsr        [PC - 0x166 /* 00003540 */]
000036A8  5C8F                     addq.l     A7, 6
label000036AA:
000036AA  4CDF 18C0                movem.l    D6,D7,A3,A4, [A7]+
000036AE  4E75                     rts
export_327:
000036B0  48E7 0108                movem.l    -[A7], D7,A4
000036B4  4878 0020                push.l     0x20 /* ' ' */
000036B8  4267                     clr.w      -[A7]
000036BA  486D AFCA                pea.l      [A5 - 0x5036]
000036BE  4EAD 0CAA                jsr        [A5 + 0xCAA /* export_401, CODE:7 @ 00003152 */]
000036C2  3EAD C96E                move.w     [A7], [A5 - 0x3692]
000036C6  4EAD 041A                jsr        [A5 + 0x41A /* export_127, CODE:2 @ 000041B2 */]
000036CA  4A40                     tst.w      D0
000036CC  4FEF 000A                lea.l      A7, [A7 + 0xA]
000036D0  6738                     beq        +0x3A /* 0000370A */
000036D2  7E00                     moveq.l    D7, 0x00
000036D4  602E                     bra        +0x30 /* 00003704 */
label000036D6:
000036D6  7012                     moveq.l    D0, 0x12
000036D8  C0C7                     mulu.w     D0, D7
000036DA  49ED C59A                lea.l      A4, [A5 - 0x3A66]
000036DE  D08C                     add.l      D0, A4
000036E0  2840                     movea.l    A4, D0
000036E2  0C2C 0002 000B           cmpi.b     [A4 + 0xB], 0x2
000036E8  6618                     bne        +0x1A /* 00003702 */
000036EA  302C 0008                move.w     D0, [A4 + 0x8]
000036EE  B06D C96E                cmp.w      D0, [A5 - 0x3692]
000036F2  660E                     bne        +0x10 /* 00003702 */
000036F4  4A2C 000A                tst.b      [A4 + 0xA]
000036F8  6708                     beq        +0xA /* 00003702 */
000036FA  4A2C 000E                tst.b      [A4 + 0xE]
000036FE  6700 009A                beq        +0x9C /* 0000379A */
label00003702:
00003702  5247                     addq.w     D7, 1
label00003704:
00003704  0C47 0014                cmpi.w     D7, 0x14
00003708  65CC                     bcs        -0x32 /* 000036D6 */
label0000370A:
0000370A  0C2D 007F ED12           cmpi.b     [A5 - 0x12EE], 0x7F
00003710  6200 0088                bhi        +0x8A /* 0000379A */
00003714  7E00                     moveq.l    D7, 0x00
00003716  1E2D ED12                move.b     D7, [A5 - 0x12EE]
0000371A  4A35 7920 ED38           tst.b      [A5 - 0x12C8 + D7]
00003720  6678                     bne        +0x7A /* 0000379A */
00003722  4A35 7920 ED1A           tst.b      [A5 - 0x12E6 + D7]
00003728  6720                     beq        +0x22 /* 0000374A */
0000372A  7000                     moveq.l    D0, 0x00
0000372C  102D ED12                move.b     D0, [A5 - 0x12EE]
00003730  7200                     moveq.l    D1, 0x00
00003732  122D ED12                move.b     D1, [A5 - 0x12EE]
00003736  3235 1B20 ED2C           move.w     D1, [A5 - 0x12D4 + D1 * 2]
0000373C  B275 0B20 ED20           cmp.w      D1, [A5 - 0x12E0 + D0 * 2]
00003742  6606                     bne        +0x8 /* 0000374A */
00003744  532D ED12                subq.b     [A5 - 0x12EE], 1
00003748  6050                     bra        +0x52 /* 0000379A */
label0000374A:
0000374A  7000                     moveq.l    D0, 0x00
0000374C  102D ED12                move.b     D0, [A5 - 0x12EE]
00003750  7200                     moveq.l    D1, 0x00
00003752  1235 0920 ED14           move.b     D1, [A5 - 0x12EC + D0]
00003758  3B41 AFCA                move.w     [A5 - 0x5036], D1
0000375C  7000                     moveq.l    D0, 0x00
0000375E  102D ED12                move.b     D0, [A5 - 0x12EE]
00003762  D080                     add.l      D0, D0
00003764  2840                     movea.l    A4, D0
00003766  41ED ED20                lea.l      A0, [A5 - 0x12E0]
0000376A  D1CC                     add.l      A0, A4
0000376C  3B50 AFCC                move.w     [A5 - 0x5034], [A0]
00003770  41ED ED2C                lea.l      A0, [A5 - 0x12D4]
00003774  D1CC                     add.l      A0, A4
00003776  3B50 AFCE                move.w     [A5 - 0x5032], [A0]
0000377A  532D ED12                subq.b     [A5 - 0x12EE], 1
0000377E  1B7C 00FF C702           move.b     [A5 - 0x38FE], 0xFF
00003784  3E2D C96E                move.w     D7, [A5 - 0x3692]
00003788  6710                     beq        +0x12 /* 0000379A */
0000378A  486D AFCA                pea.l      [A5 - 0x5036]
0000378E  42A7                     clr.l      -[A7]
00003790  3F07                     move.w     -[A7], D7
00003792  4EBA F73E                jsr        [PC - 0x8C2 /* 00002ED2 */]
00003796  4FEF 000A                lea.l      A7, [A7 + 0xA]
label0000379A:
0000379A  4CDF 1080                movem.l    D7,A4, [A7]+
0000379E  4E75                     rts
000037A0  4E56 0000                link       A6, 0
000037A4  4E5E                     unlink     A6
000037A6  4E75                     rts
fn000037A8:
000037A8  4E56 0000                link       A6, 0
000037AC  3F2E 0008                move.w     -[A7], [A6 + 0x8]
000037B0  4EAD 06C2                jsr        [A5 + 0x6C2 /* export_212, CODE:4 @ 00003EB2 */]
000037B4  4E5E                     unlink     A6
000037B6  4E75                     rts
export_328:
000037B8  4E56 0000                link       A6, 0
000037BC  3F2E 0008                move.w     -[A7], [A6 + 0x8]
000037C0  4EAD 06E2                jsr        [A5 + 0x6E2 /* export_216, CODE:4 @ 000041FE */]
000037C4  4E5E                     unlink     A6
000037C6  4E75                     rts
export_329:
fn000037C8:
000037C8  4EAD 06CA                jsr        [A5 + 0x6CA /* export_213, CODE:4 @ 00004222 */]
000037CC  4EAD 06BA                jsr        [A5 + 0x6BA /* export_211, CODE:4 @ 0000426C */]
000037D0  4E75                     rts
export_330:
000037D2  4EAD 06F2                jsr        [A5 + 0x6F2 /* export_218, CODE:4 @ 000048A6 */]
000037D6  4E75                     rts
export_331:
000037D8  4EAD 06FA                jsr        [A5 + 0x6FA /* export_219, CODE:4 @ 00004906 */]
000037DC  4E75                     rts
export_332:
000037DE  4E56 0000                link       A6, 0
000037E2  0C2D 000A AFF4           cmpi.b     [A5 - 0x500C], 0xA /* '\n' */
000037E8  6414                     bcc        +0x16 /* 000037FE */
000037EA  102D AFF4                move.b     D0, [A5 - 0x500C]
000037EE  522D AFF4                addq.b     [A5 - 0x500C], 1
000037F2  7200                     moveq.l    D1, 0x00
000037F4  1200                     move.b     D1, D0
000037F6  1BAE 0009 1920 AFEA      move.b     [A5 - 0x5016 + D1], [A6 + 0x9]
label000037FE:
000037FE  4E5E                     unlink     A6
00003800  4E75                     rts
export_333:
00003802  2F07                     move.l     -[A7], D7
00003804  6020                     bra        +0x22 /* 00003826 */
label00003806:
00003806  532D AFF4                subq.b     [A5 - 0x500C], 1
0000380A  7000                     moveq.l    D0, 0x00
0000380C  102D AFF4                move.b     D0, [A5 - 0x500C]
00003810  7E00                     moveq.l    D7, 0x00
00003812  1E35 0920 AFEA           move.b     D7, [A5 - 0x5016 + D0]
00003818  0C47 00FF                cmpi.w     D7, 0xFF
0000381C  6708                     beq        +0xA /* 00003826 */
0000381E  3F07                     move.w     -[A7], D7
00003820  4EBA FF86                jsr        [PC - 0x7A /* 000037A8 */]
00003824  548F                     addq.l     A7, 2
label00003826:
00003826  4A2D AFF4                tst.b      [A5 - 0x500C]
0000382A  66DA                     bne        -0x24 /* 00003806 */
0000382C  2E1F                     move.l     D7, [A7]+
0000382E  4E75                     rts
export_334:
00003830  422D AFF4                clr.b      [A5 - 0x500C]
00003834  4E75                     rts
export_335:
00003836  4E56 0000                link       A6, 0
0000383A  302D 9FB2                move.w     D0, [A5 - 0x604E]
0000383E  B06E 0008                cmp.w      D0, [A6 + 0x8]
00003842  6704                     beq        +0x6 /* 00003848 */
00003844  7000                     moveq.l    D0, 0x00
00003846  6002                     bra        +0x4 /* 0000384A */
label00003848:
00003848  7001                     moveq.l    D0, 0x01
label0000384A:
0000384A  4E5E                     unlink     A6
0000384C  4E75                     rts
export_336:
0000384E  4E56 0000                link       A6, 0
00003852  302D 9FB2                move.w     D0, [A5 - 0x604E]
00003856  B06E 0008                cmp.w      D0, [A6 + 0x8]
0000385A  6704                     beq        +0x6 /* 00003860 */
0000385C  7000                     moveq.l    D0, 0x00
0000385E  6002                     bra        +0x4 /* 00003862 */
label00003860:
00003860  7001                     moveq.l    D0, 0x01
label00003862:
00003862  4E5E                     unlink     A6
00003864  4E75                     rts
export_337:
00003866  4EAD 06D2                jsr        [A5 + 0x6D2 /* export_214, CODE:4 @ 00004142 */]
0000386A  4E75                     rts
export_338:
0000386C  4EAD 06DA                jsr        [A5 + 0x6DA /* export_215, CODE:4 @ 0000417A */]
00003870  4E75                     rts
export_339:
00003872  4E75                     rts
export_340:
00003874  4E75                     rts
export_341:
00003876  4E56 FFF6                link       A6, -0x000A
0000387A  2F07                     move.l     -[A7], D7
0000387C  4EBA D5B8                jsr        [PC - 0x2A48 /* 00000E36 */]
00003880  2E00                     move.l     D7, D0
00003882  0C87 4D61 6330           cmpi.l     D7, 0x4D616330 /* 'Mac0' */
00003888  6708                     beq        +0xA /* 00003892 */
0000388A  0C87 4D61 6331           cmpi.l     D7, 0x4D616331 /* 'Mac1' */
00003890  663E                     bne        +0x40 /* 000038D0 */
label00003892:
00003892  4EBA D5A2                jsr        [PC - 0x2A5E /* 00000E36 */]
00003896  2E00                     move.l     D7, D0
00003898  3F3C 0001                move.w     -[A7], 0x1
0000389C  4878 FFF8                push.l     0xFFF8
000038A0  3F2D EC98                move.w     -[A7], [A5 - 0x1368]
000038A4  4EBA D380                jsr        [PC - 0x2C80 /* 00000C26 */]
000038A8  2047                     movea.l    A0, D7
000038AA  4868 0008                pea.l      [A0 + 0x8]
000038AE  2047                     movea.l    A0, D7
000038B0  4868 0008                pea.l      [A0 + 0x8]
000038B4  3F2E 000A                move.w     -[A7], [A6 + 0xA]
000038B8  3F2E 0008                move.w     -[A7], [A6 + 0x8]
000038BC  4EAD 03EA                jsr        [A5 + 0x3EA /* export_121, CODE:2 @ 00003D92 */]
000038C0  588F                     addq.l     A7, 4
000038C2  2E80                     move.l     [A7], D0
000038C4  3F2D EC98                move.w     -[A7], [A5 - 0x1368]
000038C8  4EBA D390                jsr        [PC - 0x2C70 /* 00000C5A */]
000038CC  7001                     moveq.l    D0, 0x01
000038CE  601A                     bra        +0x1C /* 000038EA */
label000038D0:
000038D0  302E 0008                move.w     D0, [A6 + 0x8]
000038D4  322E 000A                move.w     D1, [A6 + 0xA]
000038D8  48C1                     ext.l      D1
000038DA  E589                     lsl        D1, 2
000038DC  D2B5 0520 B266           add.l      D1, [A5 - 0x4D9A + D0 * 4]
000038E2  2041                     movea.l    A0, D1
000038E4  72FF                     moveq.l    D1, 0xFFFFFFFF
000038E6  2081                     move.l     [A0], D1
000038E8  7000                     moveq.l    D0, 0x00
label000038EA:
000038EA  2E2E FFF2                move.l     D7, [A6 - 0xE]
000038EE  4E5E                     unlink     A6
000038F0  4E75                     rts
export_344:
000038F2  48E7 1F38                movem.l    -[A7], D3,D4,D5,D6,D7,A2,A3,A4
000038F6  226D EF4A                movea.l    A1, [A5 - 0x10B6]
000038FA  286D EF3A                movea.l    A4, [A5 - 0x10C6]
000038FE  3A3C 0138                move.w     D5, 0x138
00003902  1C2D 9A5B                move.b     D6, [A5 - 0x65A5]
00003906  4846                     swap.w     D6
00003908  1C2D 9A5C                move.b     D6, [A5 - 0x65A4]
0000390C  4846                     swap.w     D6
0000390E  7201                     moveq.l    D1, 0x01
00003910  7800                     moveq.l    D4, 0x00
00003912  1819                     move.b     D4, [A1]+
00003914  7600                     moveq.l    D3, 0x00
00003916  1619                     move.b     D3, [A1]+
00003918  E05B                     ror        D3.w, 8
0000391A  7408                     moveq.l    D2, 0x08
0000391C  4847                     swap.w     D7
0000391E  1E2D EF58                move.b     D7, [A5 - 0x10A8]
00003922  4847                     swap.w     D7
label00003924:
00003924  1E3C 0008                move.b     D7, 0x8
label00003928:
00003928  0C02 0008                cmpi.b     D2, 0x8
0000392C  6D06                     blt        +0x8 /* 00003934 */
0000392E  1619                     move.b     D3, [A1]+
00003930  E05B                     ror        D3.w, 8
00003932  5102                     subq.b     D2, 8
label00003934:
00003934  18C4                     move.b     [A4]+, D4
00003936  0503                     btst       D3, D2
00003938  6736                     beq        +0x38 /* 00003970 */
0000393A  5202                     addq.b     D2, 1
0000393C  0503                     btst       D3, D2
0000393E  670E                     beq        +0x10 /* 0000394E */
00003940  5202                     addq.b     D2, 1
00003942  0503                     btst       D3, D2
00003944  6702                     beq        +0x4 /* 00003948 */
00003946  4401                     neg.b      D1
label00003948:
00003948  5202                     addq.b     D2, 1
0000394A  9801                     sub.b      D4, D1
0000394C  6024                     bra        +0x26 /* 00003972 */
label0000394E:
0000394E  5202                     addq.b     D2, 1
00003950  0C02 0008                cmpi.b     D2, 0x8
00003954  6D06                     blt        +0x8 /* 0000395C */
00003956  1619                     move.b     D3, [A1]+
00003958  E05B                     ror        D3.w, 8
0000395A  5102                     subq.b     D2, 8
label0000395C:
0000395C  3803                     move.w     D4, D3
0000395E  E46C                     lsr        D4.w, D2
00003960  0244 00FF                andi.w     D4, 0xFF
00003964  4846                     swap.w     D6
00003966  C806                     and.b      D4, D6
00003968  4846                     swap.w     D6
0000396A  7201                     moveq.l    D1, 0x01
0000396C  D406                     add.b      D2, D6
0000396E  6002                     bra        +0x4 /* 00003972 */
label00003970:
00003970  5202                     addq.b     D2, 1
label00003972:
00003972  5307                     subq.b     D7, 1
00003974  66B2                     bne        -0x4C /* 00003928 */
00003976  D8C5                     add.w      A4, D5
00003978  4847                     swap.w     D7
0000397A  5307                     subq.b     D7, 1
0000397C  6704                     beq        +0x6 /* 00003982 */
0000397E  4847                     swap.w     D7
00003980  60A2                     bra        -0x5C /* 00003924 */
label00003982:
00003982  4CDF 1CF8                movem.l    D3,D4,D5,D6,D7,A2,A3,A4, [A7]+
00003986  4E75                     rts
export_343:
00003988  48E7 1F3C                movem.l    -[A7], D3,D4,D5,D6,D7,A2,A3,A4,A5
0000398C  226D EF4A                movea.l    A1, [A5 - 0x10B6]
00003990  286D EF3A                movea.l    A4, [A5 - 0x10C6]
00003994  2B4C B024                move.l     [A5 - 0x4FDC], A4
00003998  3A3C 0140                move.w     D5, 0x140
0000399C  1C2D 9A5B                move.b     D6, [A5 - 0x65A5]
000039A0  4846                     swap.w     D6
000039A2  1C2D 9A5C                move.b     D6, [A5 - 0x65A4]
000039A6  4846                     swap.w     D6
000039A8  7201                     moveq.l    D1, 0x01
000039AA  1819                     move.b     D4, [A1]+
000039AC  7600                     moveq.l    D3, 0x00
000039AE  1619                     move.b     D3, [A1]+
000039B0  E05B                     ror        D3.w, 8
000039B2  7408                     moveq.l    D2, 0x08
000039B4  4847                     swap.w     D7
000039B6  1E3C 0008                move.b     D7, 0x8
000039BA  4847                     swap.w     D7
label000039BC:
000039BC  1E2D EF58                move.b     D7, [A5 - 0x10A8]
label000039C0:
000039C0  0C02 0008                cmpi.b     D2, 0x8
000039C4  6D06                     blt        +0x8 /* 000039CC */
000039C6  1619                     move.b     D3, [A1]+
000039C8  E05B                     ror        D3.w, 8
000039CA  5102                     subq.b     D2, 8
label000039CC:
000039CC  1884                     move.b     [A4], D4
000039CE  D8C5                     add.w      A4, D5
000039D0  0503                     btst       D3, D2
000039D2  6736                     beq        +0x38 /* 00003A0A */
000039D4  5202                     addq.b     D2, 1
000039D6  0503                     btst       D3, D2
000039D8  670E                     beq        +0x10 /* 000039E8 */
000039DA  5202                     addq.b     D2, 1
000039DC  0503                     btst       D3, D2
000039DE  6702                     beq        +0x4 /* 000039E2 */
000039E0  4401                     neg.b      D1
label000039E2:
000039E2  5202                     addq.b     D2, 1
000039E4  9801                     sub.b      D4, D1
000039E6  6024                     bra        +0x26 /* 00003A0C */
label000039E8:
000039E8  5202                     addq.b     D2, 1
000039EA  0C02 0008                cmpi.b     D2, 0x8
000039EE  6D06                     blt        +0x8 /* 000039F6 */
000039F0  1619                     move.b     D3, [A1]+
000039F2  E05B                     ror        D3.w, 8
000039F4  5102                     subq.b     D2, 8
label000039F6:
000039F6  3803                     move.w     D4, D3
000039F8  E46C                     lsr        D4.w, D2
000039FA  0244 00FF                andi.w     D4, 0xFF
000039FE  4846                     swap.w     D6
00003A00  C806                     and.b      D4, D6
00003A02  4846                     swap.w     D6
00003A04  7201                     moveq.l    D1, 0x01
00003A06  D406                     add.b      D2, D6
00003A08  6002                     bra        +0x4 /* 00003A0C */
label00003A0A:
00003A0A  5202                     addq.b     D2, 1
label00003A0C:
00003A0C  5307                     subq.b     D7, 1
00003A0E  66B0                     bne        -0x4E /* 000039C0 */
00003A10  52AD B024                addq.l     [A5 - 0x4FDC], 1
00003A14  286D B024                movea.l    A4, [A5 - 0x4FDC]
00003A18  4847                     swap.w     D7
00003A1A  5307                     subq.b     D7, 1
00003A1C  6704                     beq        +0x6 /* 00003A22 */
00003A1E  4847                     swap.w     D7
00003A20  609A                     bra        -0x64 /* 000039BC */
label00003A22:
00003A22  4CDF 3CF8                movem.l    D3,D4,D5,D6,D7,A2,A3,A4,A5, [A7]+
00003A26  4E75                     rts
export_345:
00003A28  48E7 1F38                movem.l    -[A7], D3,D4,D5,D6,D7,A2,A3,A4
00003A2C  226D EF4A                movea.l    A1, [A5 - 0x10B6]
00003A30  286D EF3A                movea.l    A4, [A5 - 0x10C6]
00003A34  3A3C 0138                move.w     D5, 0x138
00003A38  102D EF59                move.b     D0, [A5 - 0x10A7]
00003A3C  1C2D 9A5B                move.b     D6, [A5 - 0x65A5]
00003A40  4846                     swap.w     D6
00003A42  1C2D 9A5C                move.b     D6, [A5 - 0x65A4]
00003A46  4846                     swap.w     D6
00003A48  7201                     moveq.l    D1, 0x01
00003A4A  7800                     moveq.l    D4, 0x00
00003A4C  1819                     move.b     D4, [A1]+
00003A4E  7600                     moveq.l    D3, 0x00
00003A50  1619                     move.b     D3, [A1]+
00003A52  E05B                     ror        D3.w, 8
00003A54  7408                     moveq.l    D2, 0x08
00003A56  4847                     swap.w     D7
00003A58  1E2D EF58                move.b     D7, [A5 - 0x10A8]
00003A5C  4847                     swap.w     D7
label00003A5E:
00003A5E  1E3C 0008                move.b     D7, 0x8
label00003A62:
00003A62  0C02 0008                cmpi.b     D2, 0x8
00003A66  6D06                     blt        +0x8 /* 00003A6E */
00003A68  1619                     move.b     D3, [A1]+
00003A6A  E05B                     ror        D3.w, 8
00003A6C  5102                     subq.b     D2, 8
label00003A6E:
00003A6E  B800                     cmp.b      D4, D0
00003A70  6704                     beq        +0x6 /* 00003A76 */
00003A72  18C4                     move.b     [A4]+, D4
00003A74  6002                     bra        +0x4 /* 00003A78 */
label00003A76:
00003A76  524C                     addq.w     A4, 1
label00003A78:
00003A78  0503                     btst       D3, D2
00003A7A  6736                     beq        +0x38 /* 00003AB2 */
00003A7C  5202                     addq.b     D2, 1
00003A7E  0503                     btst       D3, D2
00003A80  670E                     beq        +0x10 /* 00003A90 */
00003A82  5202                     addq.b     D2, 1
00003A84  0503                     btst       D3, D2
00003A86  6702                     beq        +0x4 /* 00003A8A */
00003A88  4401                     neg.b      D1
label00003A8A:
00003A8A  5202                     addq.b     D2, 1
00003A8C  9801                     sub.b      D4, D1
00003A8E  6024                     bra        +0x26 /* 00003AB4 */
label00003A90:
00003A90  5202                     addq.b     D2, 1
00003A92  0C02 0008                cmpi.b     D2, 0x8
00003A96  6D06                     blt        +0x8 /* 00003A9E */
00003A98  1619                     move.b     D3, [A1]+
00003A9A  E05B                     ror        D3.w, 8
00003A9C  5102                     subq.b     D2, 8
label00003A9E:
00003A9E  3803                     move.w     D4, D3
00003AA0  E46C                     lsr        D4.w, D2
00003AA2  0244 00FF                andi.w     D4, 0xFF
00003AA6  4846                     swap.w     D6
00003AA8  C806                     and.b      D4, D6
00003AAA  4846                     swap.w     D6
00003AAC  7201                     moveq.l    D1, 0x01
00003AAE  D406                     add.b      D2, D6
00003AB0  6002                     bra        +0x4 /* 00003AB4 */
label00003AB2:
00003AB2  5202                     addq.b     D2, 1
label00003AB4:
00003AB4  5307                     subq.b     D7, 1
00003AB6  66AA                     bne        -0x54 /* 00003A62 */
00003AB8  D8C5                     add.w      A4, D5
00003ABA  4847                     swap.w     D7
00003ABC  5307                     subq.b     D7, 1
00003ABE  6704                     beq        +0x6 /* 00003AC4 */
00003AC0  4847                     swap.w     D7
00003AC2  609A                     bra        -0x64 /* 00003A5E */
label00003AC4:
00003AC4  4CDF 1CF8                movem.l    D3,D4,D5,D6,D7,A2,A3,A4, [A7]+
00003AC8  4E75                     rts
export_348:
00003ACA  48E7 1F3C                movem.l    -[A7], D3,D4,D5,D6,D7,A2,A3,A4,A5
00003ACE  226D EF4A                movea.l    A1, [A5 - 0x10B6]
00003AD2  286D EF3A                movea.l    A4, [A5 - 0x10C6]
00003AD6  2B4C B024                move.l     [A5 - 0x4FDC], A4
00003ADA  3A3C 0140                move.w     D5, 0x140
00003ADE  102D EF59                move.b     D0, [A5 - 0x10A7]
00003AE2  1C2D 9A5B                move.b     D6, [A5 - 0x65A5]
00003AE6  4846                     swap.w     D6
00003AE8  1C2D 9A5C                move.b     D6, [A5 - 0x65A4]
00003AEC  4846                     swap.w     D6
00003AEE  7201                     moveq.l    D1, 0x01
00003AF0  1819                     move.b     D4, [A1]+
00003AF2  7600                     moveq.l    D3, 0x00
00003AF4  1619                     move.b     D3, [A1]+
00003AF6  E05B                     ror        D3.w, 8
00003AF8  7408                     moveq.l    D2, 0x08
00003AFA  4847                     swap.w     D7
00003AFC  1E3C 0008                move.b     D7, 0x8
00003B00  4847                     swap.w     D7
label00003B02:
00003B02  1E2D EF58                move.b     D7, [A5 - 0x10A8]
label00003B06:
00003B06  0C02 0008                cmpi.b     D2, 0x8
00003B0A  6D06                     blt        +0x8 /* 00003B12 */
00003B0C  1619                     move.b     D3, [A1]+
00003B0E  E05B                     ror        D3.w, 8
00003B10  5102                     subq.b     D2, 8
label00003B12:
00003B12  B800                     cmp.b      D4, D0
00003B14  6702                     beq        +0x4 /* 00003B18 */
00003B16  1884                     move.b     [A4], D4
label00003B18:
00003B18  D8C5                     add.w      A4, D5
00003B1A  0503                     btst       D3, D2
00003B1C  6736                     beq        +0x38 /* 00003B54 */
00003B1E  5202                     addq.b     D2, 1
00003B20  0503                     btst       D3, D2
00003B22  670E                     beq        +0x10 /* 00003B32 */
00003B24  5202                     addq.b     D2, 1
00003B26  0503                     btst       D3, D2
00003B28  6702                     beq        +0x4 /* 00003B2C */
00003B2A  4401                     neg.b      D1
label00003B2C:
00003B2C  5202                     addq.b     D2, 1
00003B2E  9801                     sub.b      D4, D1
00003B30  6024                     bra        +0x26 /* 00003B56 */
label00003B32:
00003B32  5202                     addq.b     D2, 1
00003B34  0C02 0008                cmpi.b     D2, 0x8
00003B38  6D06                     blt        +0x8 /* 00003B40 */
00003B3A  1619                     move.b     D3, [A1]+
00003B3C  E05B                     ror        D3.w, 8
00003B3E  5102                     subq.b     D2, 8
label00003B40:
00003B40  3803                     move.w     D4, D3
00003B42  E46C                     lsr        D4.w, D2
00003B44  0244 00FF                andi.w     D4, 0xFF
00003B48  4846                     swap.w     D6
00003B4A  C806                     and.b      D4, D6
00003B4C  4846                     swap.w     D6
00003B4E  7201                     moveq.l    D1, 0x01
00003B50  D406                     add.b      D2, D6
00003B52  6002                     bra        +0x4 /* 00003B56 */
label00003B54:
00003B54  5202                     addq.b     D2, 1
label00003B56:
00003B56  5307                     subq.b     D7, 1
00003B58  66AC                     bne        -0x52 /* 00003B06 */
00003B5A  52AD B024                addq.l     [A5 - 0x4FDC], 1
00003B5E  286D B024                movea.l    A4, [A5 - 0x4FDC]
00003B62  4847                     swap.w     D7
00003B64  5307                     subq.b     D7, 1
00003B66  6704                     beq        +0x6 /* 00003B6C */
00003B68  4847                     swap.w     D7
00003B6A  6096                     bra        -0x68 /* 00003B02 */
label00003B6C:
00003B6C  4CDF 3CF8                movem.l    D3,D4,D5,D6,D7,A2,A3,A4,A5, [A7]+
00003B70  4E75                     rts
export_342:
00003B72  48E7 1F38                movem.l    -[A7], D3,D4,D5,D6,D7,A2,A3,A4
00003B76  226D EF4A                movea.l    A1, [A5 - 0x10B6]
00003B7A  286D EF3A                movea.l    A4, [A5 - 0x10C6]
00003B7E  3A3C 0138                move.w     D5, 0x138
00003B82  1E2D EF58                move.b     D7, [A5 - 0x10A8]
label00003B86:
00003B86  1819                     move.b     D4, [A1]+
00003B88  18C4                     move.b     [A4]+, D4
00003B8A  1819                     move.b     D4, [A1]+
00003B8C  18C4                     move.b     [A4]+, D4
00003B8E  1819                     move.b     D4, [A1]+
00003B90  18C4                     move.b     [A4]+, D4
00003B92  1819                     move.b     D4, [A1]+
00003B94  18C4                     move.b     [A4]+, D4
00003B96  1819                     move.b     D4, [A1]+
00003B98  18C4                     move.b     [A4]+, D4
00003B9A  1819                     move.b     D4, [A1]+
00003B9C  18C4                     move.b     [A4]+, D4
00003B9E  1819                     move.b     D4, [A1]+
00003BA0  18C4                     move.b     [A4]+, D4
00003BA2  1819                     move.b     D4, [A1]+
00003BA4  18C4                     move.b     [A4]+, D4
00003BA6  D8C5                     add.w      A4, D5
00003BA8  5307                     subq.b     D7, 1
00003BAA  66DA                     bne        -0x24 /* 00003B86 */
00003BAC  4CDF 1CF8                movem.l    D3,D4,D5,D6,D7,A2,A3,A4, [A7]+
00003BB0  4E75                     rts
00003BB2  4CDF 1CF8                movem.l    D3,D4,D5,D6,D7,A2,A3,A4, [A7]+
00003BB6  4E75                     rts
export_347:
00003BB8  48E7 1F38                movem.l    -[A7], D3,D4,D5,D6,D7,A2,A3,A4
00003BBC  226D EF4A                movea.l    A1, [A5 - 0x10B6]
00003BC0  286D EF3A                movea.l    A4, [A5 - 0x10C6]
00003BC4  1A2D EF59                move.b     D5, [A5 - 0x10A7]
00003BC8  4845                     swap.w     D5
00003BCA  3A3C 0138                move.w     D5, 0x138
00003BCE  4845                     swap.w     D5
00003BD0  1C2D 9A5B                move.b     D6, [A5 - 0x65A5]
00003BD4  4846                     swap.w     D6
00003BD6  1C2D 9A5C                move.b     D6, [A5 - 0x65A4]
00003BDA  4846                     swap.w     D6
00003BDC  7201                     moveq.l    D1, 0x01
00003BDE  1819                     move.b     D4, [A1]+
00003BE0  7600                     moveq.l    D3, 0x00
00003BE2  1619                     move.b     D3, [A1]+
00003BE4  7408                     moveq.l    D2, 0x08
00003BE6  4847                     swap.w     D7
00003BE8  1E2D EF58                move.b     D7, [A5 - 0x10A8]
00003BEC  4847                     swap.w     D7
label00003BEE:
00003BEE  1E3C 0008                move.b     D7, 0x8
label00003BF2:
00003BF2  0C02 0008                cmpi.b     D2, 0x8
00003BF6  6E0A                     bgt        +0xC /* 00003C02 */
00003BF8  7000                     moveq.l    D0, 0x00
00003BFA  1019                     move.b     D0, [A1]+
00003BFC  E568                     lsl        D0.w, D2
00003BFE  8640                     or.w       D3, D0
00003C00  5002                     addq.b     D2, 8
label00003C02:
00003C02  B805                     cmp.b      D4, D5
00003C04  6604                     bne        +0x6 /* 00003C0A */
00003C06  524C                     addq.w     A4, 1
00003C08  6002                     bra        +0x4 /* 00003C0C */
label00003C0A:
00003C0A  18C4                     move.b     [A4]+, D4
label00003C0C:
00003C0C  0803 0000                btst.b     D3, 0x0
00003C10  673C                     beq        +0x3E /* 00003C4E */
00003C12  0803 0001                btst.b     D3, 0x1
00003C16  6712                     beq        +0x14 /* 00003C2A */
00003C18  1003                     move.b     D0, D3
00003C1A  E408                     lsr        D0.b, 2
00003C1C  0200 0007                andi.b     D0, 0x7
00003C20  5900                     subq.b     D0, 4
00003C22  D800                     add.b      D4, D0
00003C24  EA4B                     lsr        D3.w, 5
00003C26  5B02                     subq.b     D2, 5
00003C28  6028                     bra        +0x2A /* 00003C52 */
label00003C2A:
00003C2A  E44B                     lsr        D3.w, 2
00003C2C  5502                     subq.b     D2, 2
00003C2E  0C02 0008                cmpi.b     D2, 0x8
00003C32  6E0A                     bgt        +0xC /* 00003C3E */
00003C34  7000                     moveq.l    D0, 0x00
00003C36  1019                     move.b     D0, [A1]+
00003C38  E568                     lsl        D0.w, D2
00003C3A  8640                     or.w       D3, D0
00003C3C  5002                     addq.b     D2, 8
label00003C3E:
00003C3E  1803                     move.b     D4, D3
00003C40  4846                     swap.w     D6
00003C42  C806                     and.b      D4, D6
00003C44  4846                     swap.w     D6
00003C46  7201                     moveq.l    D1, 0x01
00003C48  9406                     sub.b      D2, D6
00003C4A  EC6B                     lsr        D3.w, D6
00003C4C  6004                     bra        +0x6 /* 00003C52 */
label00003C4E:
00003C4E  E24B                     lsr        D3.w, 1
00003C50  5302                     subq.b     D2, 1
label00003C52:
00003C52  5307                     subq.b     D7, 1
00003C54  669C                     bne        -0x62 /* 00003BF2 */
00003C56  4845                     swap.w     D5
00003C58  D8C5                     add.w      A4, D5
00003C5A  4845                     swap.w     D5
00003C5C  4847                     swap.w     D7
00003C5E  5307                     subq.b     D7, 1
00003C60  6704                     beq        +0x6 /* 00003C66 */
00003C62  4847                     swap.w     D7
00003C64  6088                     bra        -0x76 /* 00003BEE */
label00003C66:
00003C66  4CDF 1CF8                movem.l    D3,D4,D5,D6,D7,A2,A3,A4, [A7]+
00003C6A  4E75                     rts
export_346:
00003C6C  48E7 1F38                movem.l    -[A7], D3,D4,D5,D6,D7,A2,A3,A4
00003C70  226D EF4A                movea.l    A1, [A5 - 0x10B6]
00003C74  286D EF3A                movea.l    A4, [A5 - 0x10C6]
00003C78  3A3C 0138                move.w     D5, 0x138
00003C7C  1C2D 9A5B                move.b     D6, [A5 - 0x65A5]
00003C80  4846                     swap.w     D6
00003C82  1C2D 9A5C                move.b     D6, [A5 - 0x65A4]
00003C86  4846                     swap.w     D6
00003C88  7201                     moveq.l    D1, 0x01
00003C8A  1819                     move.b     D4, [A1]+
00003C8C  7600                     moveq.l    D3, 0x00
00003C8E  1619                     move.b     D3, [A1]+
00003C90  7408                     moveq.l    D2, 0x08
00003C92  4847                     swap.w     D7
00003C94  1E2D EF58                move.b     D7, [A5 - 0x10A8]
00003C98  4847                     swap.w     D7
label00003C9A:
00003C9A  1E3C 0008                move.b     D7, 0x8
label00003C9E:
00003C9E  0C02 0008                cmpi.b     D2, 0x8
00003CA2  6E0A                     bgt        +0xC /* 00003CAE */
00003CA4  7000                     moveq.l    D0, 0x00
00003CA6  1019                     move.b     D0, [A1]+
00003CA8  E568                     lsl        D0.w, D2
00003CAA  8640                     or.w       D3, D0
00003CAC  5002                     addq.b     D2, 8
label00003CAE:
00003CAE  18C4                     move.b     [A4]+, D4
00003CB0  0803 0000                btst.b     D3, 0x0
00003CB4  673C                     beq        +0x3E /* 00003CF2 */
00003CB6  0803 0001                btst.b     D3, 0x1
00003CBA  6712                     beq        +0x14 /* 00003CCE */
00003CBC  1003                     move.b     D0, D3
00003CBE  E408                     lsr        D0.b, 2
00003CC0  0200 0007                andi.b     D0, 0x7
00003CC4  5900                     subq.b     D0, 4
00003CC6  D800                     add.b      D4, D0
00003CC8  EA4B                     lsr        D3.w, 5
00003CCA  5B02                     subq.b     D2, 5
00003CCC  6028                     bra        +0x2A /* 00003CF6 */
label00003CCE:
00003CCE  E44B                     lsr        D3.w, 2
00003CD0  5502                     subq.b     D2, 2
00003CD2  0C02 0008                cmpi.b     D2, 0x8
00003CD6  6E0A                     bgt        +0xC /* 00003CE2 */
00003CD8  7000                     moveq.l    D0, 0x00
00003CDA  1019                     move.b     D0, [A1]+
00003CDC  E568                     lsl        D0.w, D2
00003CDE  8640                     or.w       D3, D0
00003CE0  5002                     addq.b     D2, 8
label00003CE2:
00003CE2  1803                     move.b     D4, D3
00003CE4  4846                     swap.w     D6
00003CE6  C806                     and.b      D4, D6
00003CE8  4846                     swap.w     D6
00003CEA  7201                     moveq.l    D1, 0x01
00003CEC  9406                     sub.b      D2, D6
00003CEE  EC6B                     lsr        D3.w, D6
00003CF0  6004                     bra        +0x6 /* 00003CF6 */
label00003CF2:
00003CF2  E24B                     lsr        D3.w, 1
00003CF4  5302                     subq.b     D2, 1
label00003CF6:
00003CF6  5307                     subq.b     D7, 1
00003CF8  66A4                     bne        -0x5A /* 00003C9E */
00003CFA  D8C5                     add.w      A4, D5
00003CFC  4847                     swap.w     D7
00003CFE  5307                     subq.b     D7, 1
00003D00  6704                     beq        +0x6 /* 00003D06 */
00003D02  4847                     swap.w     D7
00003D04  6094                     bra        -0x6A /* 00003C9A */
label00003D06:
00003D06  4CDF 1CF8                movem.l    D3,D4,D5,D6,D7,A2,A3,A4, [A7]+
00003D0A  4E75                     rts
export_349:
00003D0C  48E7 3F38                movem.l    -[A7], D2,D3,D4,D5,D6,D7,A2,A3,A4
00003D10  286D EF3A                movea.l    A4, [A5 - 0x10C6]
00003D14  206D EF3E                movea.l    A0, [A5 - 0x10C2]
00003D18  7200                     moveq.l    D1, 0x00
00003D1A  122D EF58                move.b     D1, [A5 - 0x10A8]
00003D1E  266D EF46                movea.l    A3, [A5 - 0x10BA]
00003D22  2E3C 0000 0140           move.l     D7, 0x140
00003D28  7A28                     moveq.l    D5, 0x28
00003D2A  203C 0000 0138           move.l     D0, 0x138
label00003D30:
00003D30  4A13                     tst.b      [A3]
00003D32  6614                     bne        +0x16 /* 00003D48 */
00003D34  20DC                     move.l     [A0]+, [A4]+
00003D36  20DC                     move.l     [A0]+, [A4]+
00003D38  D6C5                     add.w      A3, D5
00003D3A  D0C0                     add.w      A0, D0
00003D3C  D8C0                     add.w      A4, D0
00003D3E  51C9 FFF0                dbf        D1, -0x12 /* 00003D30 */
00003D42  4CDF 1CFC                movem.l    D2,D3,D4,D5,D6,D7,A2,A3,A4, [A7]+
00003D46  4E75                     rts
label00003D48:
00003D48  0813 0007                btst.b     [A3], 0x7
00003D4C  6602                     bne        +0x4 /* 00003D50 */
00003D4E  1094                     move.b     [A0], [A4]
label00003D50:
00003D50  0813 0006                btst.b     [A3], 0x6
00003D54  6606                     bne        +0x8 /* 00003D5C */
00003D56  116C 0001 0001           move.b     [A0 + 0x1], [A4 + 0x1]
label00003D5C:
00003D5C  0813 0005                btst.b     [A3], 0x5
00003D60  6606                     bne        +0x8 /* 00003D68 */
00003D62  116C 0002 0002           move.b     [A0 + 0x2], [A4 + 0x2]
label00003D68:
00003D68  0813 0004                btst.b     [A3], 0x4
00003D6C  6606                     bne        +0x8 /* 00003D74 */
00003D6E  116C 0003 0003           move.b     [A0 + 0x3], [A4 + 0x3]
label00003D74:
00003D74  0813 0003                btst.b     [A3], 0x3
00003D78  6606                     bne        +0x8 /* 00003D80 */
00003D7A  116C 0004 0004           move.b     [A0 + 0x4], [A4 + 0x4]
label00003D80:
00003D80  0813 0002                btst.b     [A3], 0x2
00003D84  6606                     bne        +0x8 /* 00003D8C */
00003D86  116C 0005 0005           move.b     [A0 + 0x5], [A4 + 0x5]
label00003D8C:
00003D8C  0813 0001                btst.b     [A3], 0x1
00003D90  6606                     bne        +0x8 /* 00003D98 */
00003D92  116C 0006 0006           move.b     [A0 + 0x6], [A4 + 0x6]
label00003D98:
00003D98  0813 0000                btst.b     [A3], 0x0
00003D9C  6606                     bne        +0x8 /* 00003DA4 */
00003D9E  116C 0007 0007           move.b     [A0 + 0x7], [A4 + 0x7]
label00003DA4:
00003DA4  D6C5                     add.w      A3, D5
00003DA6  D0C7                     add.w      A0, D7
00003DA8  D8C7                     add.w      A4, D7
00003DAA  51C9 FF84                dbf        D1, -0x7E /* 00003D30 */
00003DAE  4CDF 1CFC                movem.l    D2,D3,D4,D5,D6,D7,A2,A3,A4, [A7]+
00003DB2  4E75                     rts
export_350:
00003DB4  4EAD 0842                jsr        [A5 + 0x842 /* export_260, CODE:4 @ 00000000 */]
00003DB8  486D B048                pea.l      [A5 - 0x4FB8]
00003DBC  3F2D B046                move.w     -[A7], [A5 - 0x4FBA]
00003DC0  4EAD 070A                jsr        [A5 + 0x70A /* export_221, CODE:4 @ 00004D0E */]
00003DC4  5C8F                     addq.l     A7, 6
00003DC6  4E75                     rts
