# near model CODE resource
# jump table entries: 32848-32990 (143 of them)
export_147:
fn00000000:
00000000  4E56 0000                link       A6, 0
00000004  48E7 0708                movem.l    -[A7], D5,D6,D7,A4
00000008  3E2E 0008                move.w     D7, [A6 + 0x8]
0000000C  4A35 7120 D67C           tst.b      [A5 - 0x2984 + D7]
00000012  6600 0084                bne        +0x86 /* 00000098 */
00000016  7000                     moveq.l    D0, 0x00
00000018  1035 7120 D6B0           move.b     D0, [A5 - 0x2950 + D7]
0000001E  3F00                     move.w     -[A7], D0
00000020  4EAD 055A                jsr        [A5 + 0x55A /* export_167, CODE:3 @ 00001328 */]
00000024  3C00                     move.w     D6, D0
00000026  4A46                     tst.w      D6
00000028  548F                     addq.l     A7, 2
0000002A  6A3E                     bpl        +0x40 /* 0000006A */
0000002C  3A06                     move.w     D5, D6
0000002E  0245 7FFF                andi.w     D5, 0x7FFF
00000032  5245                     addq.w     D5, 1
00000034  3F05                     move.w     -[A7], D5
00000036  3F3C 000B                move.w     -[A7], 0xB
0000003A  4EBA 3CB2                jsr        [PC + 0x3CB2 /* 00003CEE */]
0000003E  2840                     movea.l    A4, D0
00000040  200C                     move.l     D0, A4
00000042  588F                     addq.l     A7, 4
00000044  660E                     bne        +0x10 /* 00000054 */
00000046  3F05                     move.w     -[A7], D5
00000048  2F3C 0000 0000           move.l     -[A7], 0x0
0000004E  4EAD 0A42                jsr        [A5 + 0xA42 /* export_324, CODE:5 @ 000034B4 */]
00000052  5C8F                     addq.l     A7, 6
label00000054:
00000054  3A35 7320 D3CA           move.w     D5, [A5 - 0x2C36 + D7 * 2]
0000005A  4A45                     tst.w      D5
0000005C  6C06                     bge        +0x8 /* 00000064 */
0000005E  7C00                     moveq.l    D6, 0x00
00000060  1C14                     move.b     D6, [A4]
00000062  6006                     bra        +0x8 /* 0000006A */
label00000064:
00000064  7C00                     moveq.l    D6, 0x00
00000066  1C34 5000                move.b     D6, [A4 + D5.w]
label0000006A:
0000006A  4A46                     tst.w      D6
0000006C  6D06                     blt        +0x8 /* 00000074 */
0000006E  0C46 00FF                cmpi.w     D6, 0xFF
00000072  6F18                     ble        +0x1A /* 0000008C */
label00000074:
00000074  3F06                     move.w     -[A7], D6
00000076  3F35 7320 D3CA           move.w     -[A7], [A5 - 0x2C36 + D7 * 2]
0000007C  3F07                     move.w     -[A7], D7
0000007E  2F3C 0000 001C           move.l     -[A7], 0x1C
00000084  4EAD 0A42                jsr        [A5 + 0xA42 /* export_324, CODE:5 @ 000034B4 */]
00000088  4FEF 000A                lea.l      A7, [A7 + 0xA]
label0000008C:
0000008C  1B86 7120 D621           move.b     [A5 - 0x29DF + D7], D6
00000092  1B86 7120 D614           move.b     [A5 - 0x29EC + D7], D6
label00000098:
00000098  4CDF 10E0                movem.l    D5,D6,D7,A4, [A7]+
0000009C  4E5E                     unlink     A6
0000009E  4E75                     rts
fn000000A0:
000000A0  4E56 0000                link       A6, 0
000000A4  48E7 0108                movem.l    -[A7], D7,A4
000000A8  306E 0008                movea.w    A0, [A6 + 0x8]
000000AC  D1CD                     add.l      A0, A5
000000AE  7000                     moveq.l    D0, 0x00
000000B0  1028 D3A2                move.b     D0, [A0 - 0x2C5E]
000000B4  3F00                     move.w     -[A7], D0
000000B6  3F3C 0003                move.w     -[A7], 0x3
000000BA  4EBA 3C32                jsr        [PC + 0x3C32 /* 00003CEE */]
000000BE  5480                     addq.l     D0, 2
000000C0  2B40 ECC4                move.l     [A5 - 0x133C], D0
000000C4  3B7C 0010 F8F0           move.w     [A5 - 0x710], 0x10
000000CA  2040                     movea.l    A0, D0
000000CC  7200                     moveq.l    D1, 0x00
000000CE  1228 0007                move.b     D1, [A0 + 0x7]
000000D2  0241 007F                andi.w     D1, 0x7F
000000D6  0C41 0059                cmpi.w     D1, 0x59 /* 'Y' */
000000DA  588F                     addq.l     A7, 4
000000DC  6606                     bne        +0x8 /* 000000E4 */
000000DE  3B7C 0020 F8F0           move.w     [A5 - 0x710], 0x20 /* ' ' */
label000000E4:
000000E4  7E00                     moveq.l    D7, 0x00
000000E6  6030                     bra        +0x32 /* 00000118 */
label000000E8:
000000E8  386E 0008                movea.w    A4, [A6 + 0x8]
000000EC  200C                     move.l     D0, A4
000000EE  EB88                     lsl        D0, 5
000000F0  49ED D45A                lea.l      A4, [A5 - 0x2BA6]
000000F4  D08C                     add.l      D0, A4
000000F6  3847                     movea.w    A4, D7
000000F8  D08C                     add.l      D0, A4
000000FA  2840                     movea.l    A4, D0
000000FC  0C14 00FF                cmpi.b     [A4], 0xFF
00000100  660E                     bne        +0x10 /* 00000110 */
00000102  206D ECC4                movea.l    A0, [A5 - 0x133C]
00000106  1BB0 7008 7120 F25A      move.b     [A5 - 0xDA6 + D7], [A0 + D7.w + 0x8]
0000010E  6006                     bra        +0x8 /* 00000116 */
label00000110:
00000110  1B94 7120 F25A           move.b     [A5 - 0xDA6 + D7], [A4]
label00000116:
00000116  5247                     addq.w     D7, 1
label00000118:
00000118  BE6D F8F0                cmp.w      D7, [A5 - 0x710]
0000011C  65CA                     bcs        -0x34 /* 000000E8 */
0000011E  4CDF 1080                movem.l    D7,A4, [A7]+
00000122  4E5E                     unlink     A6
00000124  4E75                     rts
fn00000126:
00000126  4E56 0000                link       A6, 0
0000012A  48E7 0118                movem.l    -[A7], D7,A3,A4
0000012E  3E2E 0008                move.w     D7, [A6 + 0x8]
00000132  49F5 7320 D3CA           lea.l      A4, [A5 - 0x2C36 + D7 * 2]
00000138  47F5 7320 D3B0           lea.l      A3, [A5 - 0x2C50 + D7 * 2]
0000013E  3F14                     move.w     -[A7], [A4]
00000140  3F13                     move.w     -[A7], [A3]
00000142  3F07                     move.w     -[A7], D7
00000144  4EAD 0532                jsr        [A5 + 0x532 /* export_162, CODE:3 @ 00000B66 */]
00000148  36AD ECF8                move.w     [A3], [A5 - 0x1308]
0000014C  38AD ECFA                move.w     [A4], [A5 - 0x1306]
00000150  49ED D6B0                lea.l      A4, [A5 - 0x2950]
00000154  D8C7                     add.w      A4, D7
00000156  18AD ECFC                move.b     [A4], [A5 - 0x1304]
0000015A  3047                     movea.w    A0, D7
0000015C  2008                     move.l     D0, A0
0000015E  EB88                     lsl        D0, 5
00000160  1BAD ECFC 0920 D778      move.b     [A5 - 0x2888 + D0], [A5 - 0x1304]
00000168  7000                     moveq.l    D0, 0x00
0000016A  102D ECFC                move.b     D0, [A5 - 0x1304]
0000016E  3E80                     move.w     [A7], D0
00000170  4EAD 0542                jsr        [A5 + 0x542 /* export_164, CODE:3 @ 000012E0 */]
00000174  1B80 7120 D5FA           move.b     [A5 - 0x2A06 + D7], D0
0000017A  3E87                     move.w     [A7], D7
0000017C  4EBA FE82                jsr        [PC - 0x17E /* 00000000 */]
00000180  4235 7120 D70B           clr.b      [A5 - 0x28F5 + D7]
00000186  4235 7120 D432           clr.b      [A5 - 0x2BCE + D7]
0000018C  7000                     moveq.l    D0, 0x00
0000018E  1014                     move.b     D0, [A4]
00000190  3E80                     move.w     [A7], D0
00000192  4EAD 054A                jsr        [A5 + 0x54A /* export_165, CODE:3 @ 000012F8 */]
00000196  0240 0007                andi.w     D0, 0x7
0000019A  5C8F                     addq.l     A7, 6
0000019C  6712                     beq        +0x14 /* 000001B0 */
0000019E  7000                     moveq.l    D0, 0x00
000001A0  1035 7120 D6F1           move.b     D0, [A5 - 0x290F + D7]
000001A6  3F00                     move.w     -[A7], D0
000001A8  3F07                     move.w     -[A7], D7
000001AA  4EAD 0B82                jsr        [A5 + 0xB82 /* export_364, CODE:6 @ 000010EA */]
000001AE  588F                     addq.l     A7, 4
label000001B0:
000001B0  4CDF 1880                movem.l    D7,A3,A4, [A7]+
000001B4  4E5E                     unlink     A6
000001B6  4E75                     rts
export_148:
000001B8  2F07                     move.l     -[A7], D7
000001BA  7E01                     moveq.l    D7, 0x01
000001BC  6016                     bra        +0x18 /* 000001D4 */
label000001BE:
000001BE  1035 7120 D395           move.b     D0, [A5 - 0x2C6B + D7]
000001C4  B02D B2D6                cmp.b      D0, [A5 - 0x4D2A]
000001C8  6608                     bne        +0xA /* 000001D2 */
000001CA  3F07                     move.w     -[A7], D7
000001CC  4EAD 0B7A                jsr        [A5 + 0xB7A /* export_363, CODE:6 @ 00000624 */]
000001D0  548F                     addq.l     A7, 2
label000001D2:
000001D2  5247                     addq.w     D7, 1
label000001D4:
000001D4  0C47 000D                cmpi.w     D7, 0xD /* '\r' */
000001D8  6DE4                     blt        -0x1A /* 000001BE */
000001DA  2E1F                     move.l     D7, [A7]+
000001DC  4E75                     rts
export_149:
000001DE  4E56 FFE6                link       A6, -0x001A
000001E2  48E7 1F18                movem.l    -[A7], D3,D4,D5,D6,D7,A3,A4
000001E6  7E00                     moveq.l    D7, 0x00
000001E8  7C01                     moveq.l    D6, 0x01
000001EA  601E                     bra        +0x20 /* 0000020A */
label000001EC:
000001EC  7000                     moveq.l    D0, 0x00
000001EE  3006                     move.w     D0, D6
000001F0  1035 0920 D395           move.b     D0, [A5 - 0x2C6B + D0]
000001F6  B02D B2D6                cmp.b      D0, [A5 - 0x4D2A]
000001FA  660C                     bne        +0xE /* 00000208 */
000001FC  3007                     move.w     D0, D7
000001FE  5247                     addq.w     D7, 1
00000200  7200                     moveq.l    D1, 0x00
00000202  3200                     move.w     D1, D0
00000204  3D86 1AE6                move.w     [A6 + D1 * 2 - 0x1A], D6
label00000208:
00000208  5246                     addq.w     D6, 1
label0000020A:
0000020A  0C46 000D                cmpi.w     D6, 0xD /* '\r' */
0000020E  65DC                     bcs        -0x22 /* 000001EC */
00000210  4A47                     tst.w      D7
00000212  6700 00F4                beq        +0xF6 /* 00000308 */
00000216  7C00                     moveq.l    D6, 0x00
00000218  603A                     bra        +0x3C /* 00000254 */
label0000021A:
0000021A  7A00                     moveq.l    D5, 0x00
0000021C  6030                     bra        +0x32 /* 0000024E */
label0000021E:
0000021E  7000                     moveq.l    D0, 0x00
00000220  3006                     move.w     D0, D6
00000222  3836 0AE6                move.w     D4, [A6 + D0 * 2 - 0x1A]
00000226  7000                     moveq.l    D0, 0x00
00000228  3006                     move.w     D0, D6
0000022A  49F6 0AE6                lea.l      A4, [A6 + D0 * 2 - 0x1A]
0000022E  7000                     moveq.l    D0, 0x00
00000230  3005                     move.w     D0, D5
00000232  47F6 0AE6                lea.l      A3, [A6 + D0 * 2 - 0x1A]
00000236  3013                     move.w     D0, [A3]
00000238  3035 0320 D3CA           move.w     D0, [A5 - 0x2C36 + D0 * 2]
0000023E  B075 4320 D3CA           cmp.w      D0, [A5 - 0x2C36 + D4 * 2]
00000244  6F06                     ble        +0x8 /* 0000024C */
00000246  3604                     move.w     D3, D4
00000248  3893                     move.w     [A4], [A3]
0000024A  3683                     move.w     [A3], D3
label0000024C:
0000024C  5245                     addq.w     D5, 1
label0000024E:
0000024E  BE45                     cmp.w      D7, D5
00000250  62CC                     bhi        -0x32 /* 0000021E */
00000252  5246                     addq.w     D6, 1
label00000254:
00000254  BE46                     cmp.w      D7, D6
00000256  62C2                     bhi        -0x3C /* 0000021A */
00000258  7C00                     moveq.l    D6, 0x00
0000025A  6000 00A6                bra        +0xA8 /* 00000302 */
label0000025E:
0000025E  7000                     moveq.l    D0, 0x00
00000260  3006                     move.w     D0, D6
00000262  3A36 0AE6                move.w     D5, [A6 + D0 * 2 - 0x1A]
00000266  7800                     moveq.l    D4, 0x00
00000268  3805                     move.w     D4, D5
0000026A  4A35 4920 D3A2           tst.b      [A5 - 0x2C5E + D4]
00000270  6700 008E                beq        +0x90 /* 00000300 */
00000274  7000                     moveq.l    D0, 0x00
00000276  3005                     move.w     D0, D5
00000278  D080                     add.l      D0, D0
0000027A  2840                     movea.l    A4, D0
0000027C  41ED D3B0                lea.l      A0, [A5 - 0x2C50]
00000280  D1CC                     add.l      A0, A4
00000282  3010                     move.w     D0, [A0]
00000284  906D F296                sub.w      D0, [A5 - 0xD6A]
00000288  3B40 ECB0                move.w     [A5 - 0x1350], D0
0000028C  41ED D3CA                lea.l      A0, [A5 - 0x2C36]
00000290  D1CC                     add.l      A0, A4
00000292  3B50 ECB2                move.w     [A5 - 0x134E], [A0]
00000296  1B75 4920 D5FA ECBA      move.b     [A5 - 0x1346], [A5 - 0x2A06 + D4]
0000029E  7200                     moveq.l    D1, 0x00
000002A0  122D ECBA                move.b     D1, [A5 - 0x1346]
000002A4  B26D F730                cmp.w      D1, [A5 - 0x8D0]
000002A8  6306                     bls        +0x8 /* 000002B0 */
000002AA  1B6D F731 ECBA           move.b     [A5 - 0x1346], [A5 - 0x8CF]
label000002B0:
000002B0  7000                     moveq.l    D0, 0x00
000002B2  3005                     move.w     D0, D5
000002B4  1635 0920 D689           move.b     D3, [A5 - 0x2977 + D0]
000002BA  4A03                     tst.b      D3
000002BC  6704                     beq        +0x6 /* 000002C2 */
000002BE  1B43 ECBA                move.b     [A5 - 0x1346], D3
label000002C2:
000002C2  3F05                     move.w     -[A7], D5
000002C4  4EBA FD3A                jsr        [PC - 0x2C6 /* 00000000 */]
000002C8  7000                     moveq.l    D0, 0x00
000002CA  1035 4920 D614           move.b     D0, [A5 - 0x29EC + D4]
000002D0  3B40 ECBC                move.w     [A5 - 0x1344], D0
000002D4  7200                     moveq.l    D1, 0x00
000002D6  1235 4920 D621           move.b     D1, [A5 - 0x29DF + D4]
000002DC  3B41 ECBE                move.w     [A5 - 0x1342], D1
000002E0  41ED D418                lea.l      A0, [A5 - 0x2BE8]
000002E4  D1CC                     add.l      A0, A4
000002E6  3410                     move.w     D2, [A0]
000002E8  956D ECB2                sub.w      [A5 - 0x134E], D2
000002EC  3E85                     move.w     [A7], D5
000002EE  4EBA FDB0                jsr        [PC - 0x250 /* 000000A0 */]
000002F2  3E85                     move.w     [A7], D5
000002F4  4EBA 02B0                jsr        [PC + 0x2B0 /* 000005A6 */]
000002F8  3E85                     move.w     [A7], D5
000002FA  4EBA 043E                jsr        [PC + 0x43E /* 0000073A */]
000002FE  548F                     addq.l     A7, 2
label00000300:
00000300  5246                     addq.w     D6, 1
label00000302:
00000302  BE46                     cmp.w      D7, D6
00000304  6200 FF58                bhi        -0xA6 /* 0000025E */
label00000308:
00000308  4CDF 18F8                movem.l    D3,D4,D5,D6,D7,A3,A4, [A7]+
0000030C  4E5E                     unlink     A6
0000030E  4E75                     rts
export_150:
fn00000310:
00000310  4E56 0000                link       A6, 0
00000314  48E7 0118                movem.l    -[A7], D7,A3,A4
00000318  3E2E 0008                move.w     D7, [A6 + 0x8]
0000031C  4A2D B2D6                tst.b      [A5 - 0x4D2A]
00000320  675E                     beq        +0x60 /* 00000380 */
00000322  49ED D648                lea.l      A4, [A5 - 0x29B8]
00000326  D8C7                     add.w      A4, D7
00000328  4A14                     tst.b      [A4]
0000032A  6654                     bne        +0x56 /* 00000380 */
0000032C  3F07                     move.w     -[A7], D7
0000032E  4EBA FDF6                jsr        [PC - 0x20A /* 00000126 */]
00000332  7000                     moveq.l    D0, 0x00
00000334  1035 7120 D3A2           move.b     D0, [A5 - 0x2C5E + D7]
0000033A  3E80                     move.w     [A7], D0
0000033C  3F3C 0003                move.w     -[A7], 0x3
00000340  4EAD 066A                jsr        [A5 + 0x66A /* export_201, CODE:3 @ 00004418 */]
00000344  47ED D718                lea.l      A3, [A5 - 0x28E8]
00000348  D6C7                     add.w      A3, D7
0000034A  4A13                     tst.b      [A3]
0000034C  588F                     addq.l     A7, 4
0000034E  671E                     beq        +0x20 /* 0000036E */
00000350  7000                     moveq.l    D0, 0x00
00000352  1035 7120 D6F1           move.b     D0, [A5 - 0x290F + D7]
00000358  3F00                     move.w     -[A7], D0
0000035A  7000                     moveq.l    D0, 0x00
0000035C  1035 7120 D732           move.b     D0, [A5 - 0x28CE + D7]
00000362  3F00                     move.w     -[A7], D0
00000364  3F07                     move.w     -[A7], D7
00000366  4EBA 07B8                jsr        [PC + 0x7B8 /* 00000B20 */]
0000036A  4213                     clr.b      [A3]
0000036C  5C8F                     addq.l     A7, 6
label0000036E:
0000036E  18BC 0001                move.b     [A4], 0x1
00000372  4235 7120 D70B           clr.b      [A5 - 0x28F5 + D7]
00000378  1BBC 0001 7120 D6D7      move.b     [A5 - 0x2929 + D7], 0x1
label00000380:
00000380  4CDF 1880                movem.l    D7,A3,A4, [A7]+
00000384  4E5E                     unlink     A6
00000386  4E75                     rts
export_151:
fn00000388:
00000388  4E56 0000                link       A6, 0
0000038C  48E7 0118                movem.l    -[A7], D7,A3,A4
00000390  3E2E 0008                move.w     D7, [A6 + 0x8]
00000394  49ED D648                lea.l      A4, [A5 - 0x29B8]
00000398  D8C7                     add.w      A4, D7
0000039A  4A14                     tst.b      [A4]
0000039C  673E                     beq        +0x40 /* 000003DC */
0000039E  47ED D70B                lea.l      A3, [A5 - 0x28F5]
000003A2  D6C7                     add.w      A3, D7
000003A4  4A13                     tst.b      [A3]
000003A6  671E                     beq        +0x20 /* 000003C6 */
000003A8  7000                     moveq.l    D0, 0x00
000003AA  1035 7120 D6F1           move.b     D0, [A5 - 0x290F + D7]
000003B0  3F00                     move.w     -[A7], D0
000003B2  7000                     moveq.l    D0, 0x00
000003B4  1035 7120 D74C           move.b     D0, [A5 - 0x28B4 + D7]
000003BA  3F00                     move.w     -[A7], D0
000003BC  3F07                     move.w     -[A7], D7
000003BE  4EBA 0760                jsr        [PC + 0x760 /* 00000B20 */]
000003C2  4213                     clr.b      [A3]
000003C4  5C8F                     addq.l     A7, 6
label000003C6:
000003C6  4214                     clr.b      [A4]
000003C8  4235 7120 D432           clr.b      [A5 - 0x2BCE + D7]
000003CE  4235 7120 D6D7           clr.b      [A5 - 0x2929 + D7]
000003D4  1BBC 0001 7120 D6E4      move.b     [A5 - 0x291C + D7], 0x1
label000003DC:
000003DC  4CDF 1880                movem.l    D7,A3,A4, [A7]+
000003E0  4E5E                     unlink     A6
000003E2  4E75                     rts
fn000003E4:
000003E4  4E56 0000                link       A6, 0
000003E8  48E7 0718                movem.l    -[A7], D5,D6,D7,A3,A4
000003EC  3E2E 0008                move.w     D7, [A6 + 0x8]
000003F0  3A2E 000E                move.w     D5, [A6 + 0xE]
000003F4  2F3C 0000 0042           move.l     -[A7], 0x42 /* 'B' */
000003FA  3F07                     move.w     -[A7], D7
000003FC  2F3C 000D 0001           move.l     -[A7], 0xD0001
00000402  4EAD 09B2                jsr        [A5 + 0x9B2 /* export_306, CODE:5 @ 00003464 */]
00000406  7000                     moveq.l    D0, 0x00
00000408  3007                     move.w     D0, D7
0000040A  49ED D648                lea.l      A4, [A5 - 0x29B8]
0000040E  D08C                     add.l      D0, A4
00000410  2840                     movea.l    A4, D0
00000412  7C00                     moveq.l    D6, 0x00
00000414  3C07                     move.w     D6, D7
00000416  4A14                     tst.b      [A4]
00000418  6714                     beq        +0x16 /* 0000042E */
0000041A  7000                     moveq.l    D0, 0x00
0000041C  102D B2D6                move.b     D0, [A5 - 0x4D2A]
00000420  B045                     cmp.w      D0, D5
00000422  670A                     beq        +0xC /* 0000042E */
00000424  BE6D C95E                cmp.w      D7, [A5 - 0x36A2]
00000428  6604                     bne        +0x6 /* 0000042E */
0000042A  4EAD 0732                jsr        [A5 + 0x732 /* export_226, CODE:4 @ 000058F2 */]
label0000042E:
0000042E  7000                     moveq.l    D0, 0x00
00000430  3007                     move.w     D0, D7
00000432  D080                     add.l      D0, D0
00000434  2640                     movea.l    A3, D0
00000436  41ED D3B0                lea.l      A0, [A5 - 0x2C50]
0000043A  D1CB                     add.l      A0, A3
0000043C  30AE 000A                move.w     [A0], [A6 + 0xA]
00000440  41ED D3CA                lea.l      A0, [A5 - 0x2C36]
00000444  D1CB                     add.l      A0, A3
00000446  30AE 000C                move.w     [A0], [A6 + 0xC]
0000044A  1B85 6920 D395           move.b     [A5 - 0x2C6B + D6], D5
00000450  1BBC 0001 6920 D6D7      move.b     [A5 - 0x2929 + D6], 0x1
00000458  1BBC 0001 6920 D6E4      move.b     [A5 - 0x291C + D6], 0x1
00000460  BE6D C92E                cmp.w      D7, [A5 - 0x36D2]
00000464  6606                     bne        +0x8 /* 0000046C */
00000466  3B7C 0001 F722           move.w     [A5 - 0x8DE], 0x1
label0000046C:
0000046C  4A14                     tst.b      [A4]
0000046E  674A                     beq        +0x4C /* 000004BA */
00000470  7000                     moveq.l    D0, 0x00
00000472  102D B2D6                move.b     D0, [A5 - 0x4D2A]
00000476  B045                     cmp.w      D0, D5
00000478  6636                     bne        +0x38 /* 000004B0 */
0000047A  7000                     moveq.l    D0, 0x00
0000047C  3007                     move.w     D0, D7
0000047E  49ED D70B                lea.l      A4, [A5 - 0x28F5]
00000482  D08C                     add.l      D0, A4
00000484  2840                     movea.l    A4, D0
00000486  4A14                     tst.b      [A4]
00000488  671E                     beq        +0x20 /* 000004A8 */
0000048A  7000                     moveq.l    D0, 0x00
0000048C  1035 6920 D6F1           move.b     D0, [A5 - 0x290F + D6]
00000492  3F00                     move.w     -[A7], D0
00000494  7000                     moveq.l    D0, 0x00
00000496  1035 6920 D74C           move.b     D0, [A5 - 0x28B4 + D6]
0000049C  3F00                     move.w     -[A7], D0
0000049E  3F07                     move.w     -[A7], D7
000004A0  4EBA 067E                jsr        [PC + 0x67E /* 00000B20 */]
000004A4  4214                     clr.b      [A4]
000004A6  5C8F                     addq.l     A7, 6
label000004A8:
000004A8  3F07                     move.w     -[A7], D7
000004AA  4EBA FC7A                jsr        [PC - 0x386 /* 00000126 */]
000004AE  601C                     bra        +0x1E /* 000004CC */
label000004B0:
000004B0  3F07                     move.w     -[A7], D7
000004B2  4EBA FED4                jsr        [PC - 0x12C /* 00000388 */]
000004B6  548F                     addq.l     A7, 2
000004B8  6012                     bra        +0x14 /* 000004CC */
label000004BA:
000004BA  7000                     moveq.l    D0, 0x00
000004BC  102D B2D6                move.b     D0, [A5 - 0x4D2A]
000004C0  B045                     cmp.w      D0, D5
000004C2  6608                     bne        +0xA /* 000004CC */
000004C4  3F07                     move.w     -[A7], D7
000004C6  4EBA FE48                jsr        [PC - 0x1B8 /* 00000310 */]
000004CA  548F                     addq.l     A7, 2
label000004CC:
000004CC  4CEE 18E0 FFEC           movem.l    D5,D6,D7,A3,A4, [A6 - 0x14]
000004D2  4E5E                     unlink     A6
000004D4  4E75                     rts
fn000004D6:
000004D6  4E56 0000                link       A6, 0
000004DA  48E7 0300                movem.l    -[A7], D6,D7
000004DE  3C2E 0008                move.w     D6, [A6 + 0x8]
000004E2  7E00                     moveq.l    D7, 0x00
000004E4  3E06                     move.w     D7, D6
000004E6  1BBC 0001 7920 D718      move.b     [A5 - 0x28E8 + D7], 0x1
000004EE  4A35 7920 D648           tst.b      [A5 - 0x29B8 + D7]
000004F4  671E                     beq        +0x20 /* 00000514 */
000004F6  3F06                     move.w     -[A7], D6
000004F8  4EBA FE8E                jsr        [PC - 0x172 /* 00000388 */]
000004FC  3E86                     move.w     [A7], D6
000004FE  4EBA 0960                jsr        [PC + 0x960 /* 00000E60 */]
00000502  1BAE 000B 7920 D3A2      move.b     [A5 - 0x2C5E + D7], [A6 + 0xB]
0000050A  3E86                     move.w     [A7], D6
0000050C  4EBA FE02                jsr        [PC - 0x1FE /* 00000310 */]
00000510  548F                     addq.l     A7, 2
00000512  6010                     bra        +0x12 /* 00000524 */
label00000514:
00000514  1BAE 000B 7920 D3A2      move.b     [A5 - 0x2C5E + D7], [A6 + 0xB]
0000051C  3F06                     move.w     -[A7], D6
0000051E  4EBA 0940                jsr        [PC + 0x940 /* 00000E60 */]
00000522  548F                     addq.l     A7, 2
label00000524:
00000524  7C00                     moveq.l    D6, 0x00
00000526  6018                     bra        +0x1A /* 00000540 */
label00000528:
00000528  2007                     move.l     D0, D7
0000052A  EB88                     lsl        D0, 5
0000052C  7200                     moveq.l    D1, 0x00
0000052E  3206                     move.w     D1, D6
00000530  41ED D45A                lea.l      A0, [A5 - 0x2BA6]
00000534  D088                     add.l      D0, A0
00000536  D081                     add.l      D0, D1
00000538  2040                     movea.l    A0, D0
0000053A  10BC 00FF                move.b     [A0], 0xFF
0000053E  5246                     addq.w     D6, 1
label00000540:
00000540  0C46 0020                cmpi.w     D6, 0x20 /* ' ' */
00000544  65E2                     bcs        -0x1C /* 00000528 */
00000546  4CDF 00C0                movem.l    D6,D7, [A7]+
0000054A  4E5E                     unlink     A6
0000054C  4E75                     rts
export_152:
0000054E  48E7 0300                movem.l    -[A7], D6,D7
00000552  7E01                     moveq.l    D7, 0x01
00000554  6044                     bra        +0x46 /* 0000059A */
label00000556:
00000556  4A35 7120 D432           tst.b      [A5 - 0x2BCE + D7]
0000055C  673A                     beq        +0x3C /* 00000598 */
0000055E  1035 7120 D395           move.b     D0, [A5 - 0x2C6B + D7]
00000564  B02D B2D6                cmp.b      D0, [A5 - 0x4D2A]
00000568  662E                     bne        +0x30 /* 00000598 */
0000056A  7C00                     moveq.l    D6, 0x00
0000056C  1C35 7120 D43F           move.b     D6, [A5 - 0x2BC1 + D7]
00000572  4A46                     tst.w      D6
00000574  6722                     beq        +0x24 /* 00000598 */
00000576  1B7C 00FF C702           move.b     [A5 - 0x38FE], 0xFF
0000057C  3F06                     move.w     -[A7], D6
0000057E  4EBA 1918                jsr        [PC + 0x1918 /* 00001E98 */]
00000582  7E01                     moveq.l    D7, 0x01
00000584  548F                     addq.l     A7, 2
00000586  6008                     bra        +0xA /* 00000590 */
label00000588:
00000588  4235 7120 D432           clr.b      [A5 - 0x2BCE + D7]
0000058E  5247                     addq.w     D7, 1
label00000590:
00000590  0C47 000D                cmpi.w     D7, 0xD /* '\r' */
00000594  6DF2                     blt        -0xC /* 00000588 */
00000596  6008                     bra        +0xA /* 000005A0 */
label00000598:
00000598  5247                     addq.w     D7, 1
label0000059A:
0000059A  0C47 000D                cmpi.w     D7, 0xD /* '\r' */
0000059E  6DB6                     blt        -0x48 /* 00000556 */
label000005A0:
000005A0  4CDF 00C0                movem.l    D6,D7, [A7]+
000005A4  4E75                     rts
fn000005A6:
000005A6  4E56 FFFE                link       A6, -0x0002
000005AA  48E7 0308                movem.l    -[A7], D6,D7,A4
000005AE  3E2E 0008                move.w     D7, [A6 + 0x8]
000005B2  422D 9792                clr.b      [A5 - 0x686E]
000005B6  4A47                     tst.w      D7
000005B8  6700 00BC                beq        +0xBE /* 00000676 */
000005BC  4A35 7120 D6D7           tst.b      [A5 - 0x2929 + D7]
000005C2  6700 00B2                beq        +0xB4 /* 00000676 */
000005C6  49ED D6D7                lea.l      A4, [A5 - 0x2929]
000005CA  D8C7                     add.w      A4, D7
000005CC  4214                     clr.b      [A4]
000005CE  426D ECB4                clr.w      [A5 - 0x134C]
000005D2  426D ECB6                clr.w      [A5 - 0x134A]
000005D6  1BBC 00FF 7120 D6BD      move.b     [A5 - 0x2943 + D7], 0xFF
000005DE  4235 7120 D6CA           clr.b      [A5 - 0x2936 + D7]
000005E4  4A35 7120 D6F1           tst.b      [A5 - 0x290F + D7]
000005EA  660E                     bne        +0x10 /* 000005FA */
000005EC  206D ECC4                movea.l    A0, [A5 - 0x133C]
000005F0  4A28 0007                tst.b      [A0 + 0x7]
000005F4  6B04                     bmi        +0x6 /* 000005FA */
000005F6  7000                     moveq.l    D0, 0x00
000005F8  6002                     bra        +0x4 /* 000005FC */
label000005FA:
000005FA  7001                     moveq.l    D0, 0x01
label000005FC:
000005FC  3B40 ECB8                move.w     [A5 - 0x1348], D0
00000600  7200                     moveq.l    D1, 0x00
00000602  1235 7120 D3A2           move.b     D1, [A5 - 0x2C5E + D7]
00000608  3F01                     move.w     -[A7], D1
0000060A  3F3C 0003                move.w     -[A7], 0x3
0000060E  4EBA 36DE                jsr        [PC + 0x36DE /* 00003CEE */]
00000612  5480                     addq.l     D0, 2
00000614  2B40 ECC4                move.l     [A5 - 0x133C], D0
00000618  7206                     moveq.l    D1, 0x06
0000061A  D26D F8F0                add.w      D1, [A5 - 0x710]
0000061E  5341                     subq.w     D1, 1
00000620  5641                     addq.w     D1, 3
00000622  7400                     moveq.l    D2, 0x00
00000624  3401                     move.w     D2, D1
00000626  D082                     add.l      D0, D2
00000628  2E80                     move.l     [A7], D0
0000062A  4EAD 0BF2                jsr        [A5 + 0xBF2 /* export_378, CODE:6 @ 0000005C */]
0000062E  7200                     moveq.l    D1, 0x00
00000630  3200                     move.w     D1, D0
00000632  D2AD ECC4                add.l      D1, [A5 - 0x133C]
00000636  2B41 ECD0                move.l     [A5 - 0x1330], D1
0000063A  303C 0082                move.w     D0, 0x82
0000063E  C1C7                     muls.w     D0, D7
00000640  41ED D918                lea.l      A0, [A5 - 0x26E8]
00000644  D088                     add.l      D0, A0
00000646  2B40 DFB2                move.l     [A5 - 0x204E], D0
0000064A  7C00                     moveq.l    D6, 0x00
0000064C  588F                     addq.l     A7, 4
0000064E  600C                     bra        +0xE /* 0000065C */
label00000650:
00000650  3F06                     move.w     -[A7], D6
00000652  3F07                     move.w     -[A7], D7
00000654  4EBA 0028                jsr        [PC + 0x28 /* 0000067E */]
00000658  588F                     addq.l     A7, 4
0000065A  5246                     addq.w     D6, 1
label0000065C:
0000065C  0C46 0010                cmpi.w     D6, 0x10
00000660  6DEE                     blt        -0x10 /* 00000650 */
00000662  082D 0000 9792           btst.b     [A5 - 0x686E], 0x0
00000668  670C                     beq        +0xE /* 00000676 */
0000066A  18BC 0001                move.b     [A4], 0x1
0000066E  1BBC 0001 7120 D6E4      move.b     [A5 - 0x291C + D7], 0x1
label00000676:
00000676  4CDF 10C0                movem.l    D6,D7,A4, [A7]+
0000067A  4E5E                     unlink     A6
0000067C  4E75                     rts
fn0000067E:
0000067E  4E56 0000                link       A6, 0
00000682  48E7 0708                movem.l    -[A7], D5,D6,D7,A4
00000686  3C2E 000A                move.w     D6, [A6 + 0xA]
0000068A  206D DFB2                movea.l    A0, [A5 - 0x204E]
0000068E  3E30 6202                move.w     D7, [A0 + D6.w * 2 + 0x2]
00000692  3846                     movea.w    A4, D6
00000694  D9CC                     add.l      A4, A4
00000696  0C47 FFFF                cmpi.w     D7, 0xFFFF
0000069A  6700 0096                beq        +0x98 /* 00000732 */
0000069E  206D DFB2                movea.l    A0, [A5 - 0x204E]
000006A2  43ED B052                lea.l      A1, [A5 - 0x4FAE]
000006A6  D3CC                     add.l      A1, A4
000006A8  3010                     move.w     D0, [A0]
000006AA  C051                     and.w      D0, [A1]
000006AC  6600 0084                bne        +0x86 /* 00000732 */
000006B0  3A07                     move.w     D5, D7
000006B2  0245 7FFF                andi.w     D5, 0x7FFF
000006B6  7006                     moveq.l    D0, 0x06
000006B8  D06D F8F0                add.w      D0, [A5 - 0x710]
000006BC  5340                     subq.w     D0, 1
000006BE  5A40                     addq.w     D0, 5
000006C0  7200                     moveq.l    D1, 0x00
000006C2  3200                     move.w     D1, D0
000006C4  D2AD ECC4                add.l      D1, [A5 - 0x133C]
000006C8  3846                     movea.w    A4, D6
000006CA  D9CC                     add.l      A4, A4
000006CC  D28C                     add.l      D1, A4
000006CE  2841                     movea.l    A4, D1
000006D0  2F0C                     move.l     -[A7], A4
000006D2  4EAD 0BF2                jsr        [A5 + 0xBF2 /* export_378, CODE:6 @ 0000005C */]
000006D6  7200                     moveq.l    D1, 0x00
000006D8  3200                     move.w     D1, D0
000006DA  D2AD ECC4                add.l      D1, [A5 - 0x133C]
000006DE  2B41 ECCC                move.l     [A5 - 0x1334], D1
000006E2  7E00                     moveq.l    D7, 0x00
000006E4  3E05                     move.w     D7, D5
000006E6  7000                     moveq.l    D0, 0x00
000006E8  1035 7925 ECD0           move.b     D0, [[A5 - 0x1330] + D7]
000006EE  0240 007F                andi.w     D0, 0x7F
000006F2  3840                     movea.w    A4, D0
000006F4  D9CC                     add.l      A4, A4
000006F6  D28C                     add.l      D1, A4
000006F8  2841                     movea.l    A4, D1
000006FA  2E8C                     move.l     [A7], A4
000006FC  4EAD 0BF2                jsr        [A5 + 0xBF2 /* export_378, CODE:6 @ 0000005C */]
00000700  7200                     moveq.l    D1, 0x00
00000702  3200                     move.w     D1, D0
00000704  D2AD ECC4                add.l      D1, [A5 - 0x133C]
00000708  2B41 ECC8                move.l     [A5 - 0x1338], D1
0000070C  7A00                     moveq.l    D5, 0x00
0000070E  1A35 7925 ECD0           move.b     D5, [[A5 - 0x1330] + D7]
00000714  0245 007F                andi.w     D5, 0x7F
00000718  0C45 007B                cmpi.w     D5, 0x7B /* '{' */
0000071C  588F                     addq.l     A7, 4
0000071E  6712                     beq        +0x14 /* 00000732 */
00000720  3F05                     move.w     -[A7], D5
00000722  3F06                     move.w     -[A7], D6
00000724  3F2E 0008                move.w     -[A7], [A6 + 0x8]
00000728  4EAD 080A                jsr        [A5 + 0x80A /* export_253, CODE:4 @ 00006F80 */]
0000072C  812D 9792                or.b       [A5 - 0x686E], D0
00000730  5C8F                     addq.l     A7, 6
label00000732:
00000732  4CDF 10E0                movem.l    D5,D6,D7,A4, [A7]+
00000736  4E5E                     unlink     A6
00000738  4E75                     rts
fn0000073A:
0000073A  4E56 0000                link       A6, 0
0000073E  48E7 0308                movem.l    -[A7], D6,D7,A4
00000742  3E2E 0008                move.w     D7, [A6 + 0x8]
00000746  4A47                     tst.w      D7
00000748  6700 00CC                beq        +0xCE /* 00000816 */
0000074C  49ED D6A3                lea.l      A4, [A5 - 0x295D]
00000750  D8C7                     add.w      A4, D7
00000752  5214                     addq.b     [A4], 1
00000754  1014                     move.b     D0, [A4]
00000756  B035 7120 D696           cmp.b      D0, [A5 - 0x296A + D7]
0000075C  6500 00B8                bcs        +0xBA /* 00000816 */
00000760  4214                     clr.b      [A4]
00000762  422D 9793                clr.b      [A5 - 0x686D]
00000766  303C 0082                move.w     D0, 0x82
0000076A  C1C7                     muls.w     D0, D7
0000076C  41ED D918                lea.l      A0, [A5 - 0x26E8]
00000770  D088                     add.l      D0, A0
00000772  2B40 DFB2                move.l     [A5 - 0x204E], D0
00000776  7200                     moveq.l    D1, 0x00
00000778  1235 7120 D3A2           move.b     D1, [A5 - 0x2C5E + D7]
0000077E  3F01                     move.w     -[A7], D1
00000780  3F3C 0003                move.w     -[A7], 0x3
00000784  4EBA 3568                jsr        [PC + 0x3568 /* 00003CEE */]
00000788  5480                     addq.l     D0, 2
0000078A  2B40 ECC4                move.l     [A5 - 0x133C], D0
0000078E  2040                     movea.l    A0, D0
00000790  7C00                     moveq.l    D6, 0x00
00000792  1C28 0007                move.b     D6, [A0 + 0x7]
00000796  0246 007F                andi.w     D6, 0x7F
0000079A  0C46 0058                cmpi.w     D6, 0x58 /* 'X' */
0000079E  588F                     addq.l     A7, 4
000007A0  6606                     bne        +0x8 /* 000007A8 */
000007A2  3B7C 0010 F8F0           move.w     [A5 - 0x710], 0x10
label000007A8:
000007A8  0C46 0059                cmpi.w     D6, 0x59 /* 'Y' */
000007AC  6606                     bne        +0x8 /* 000007B4 */
000007AE  3B7C 0020 F8F0           move.w     [A5 - 0x710], 0x20 /* ' ' */
label000007B4:
000007B4  7006                     moveq.l    D0, 0x06
000007B6  D06D F8F0                add.w      D0, [A5 - 0x710]
000007BA  5340                     subq.w     D0, 1
000007BC  5640                     addq.w     D0, 3
000007BE  7200                     moveq.l    D1, 0x00
000007C0  3200                     move.w     D1, D0
000007C2  D2AD ECC4                add.l      D1, [A5 - 0x133C]
000007C6  2F01                     move.l     -[A7], D1
000007C8  4EAD 0BF2                jsr        [A5 + 0xBF2 /* export_378, CODE:6 @ 0000005C */]
000007CC  7200                     moveq.l    D1, 0x00
000007CE  3200                     move.w     D1, D0
000007D0  D2AD ECC4                add.l      D1, [A5 - 0x133C]
000007D4  2B41 ECD0                move.l     [A5 - 0x1330], D1
000007D8  7C00                     moveq.l    D6, 0x00
000007DA  99CC                     sub.l      A4, A4
000007DC  588F                     addq.l     A7, 4
000007DE  601A                     bra        +0x1C /* 000007FA */
label000007E0:
000007E0  202D DFB2                move.l     D0, [A5 - 0x204E]
000007E4  0C74 FFFF 0802           cmpi.w     [A4 + D0 + 0x2], 0xFFFF
000007EA  670A                     beq        +0xC /* 000007F6 */
000007EC  3F06                     move.w     -[A7], D6
000007EE  3F07                     move.w     -[A7], D7
000007F0  4EBA 002C                jsr        [PC + 0x2C /* 0000081E */]
000007F4  588F                     addq.l     A7, 4
label000007F6:
000007F6  5246                     addq.w     D6, 1
000007F8  548C                     addq.l     A4, 2
label000007FA:
000007FA  0C46 0010                cmpi.w     D6, 0x10
000007FE  6DE0                     blt        -0x1E /* 000007E0 */
00000800  4A2D 9793                tst.b      [A5 - 0x686D]
00000804  6710                     beq        +0x12 /* 00000816 */
00000806  1BBC 0001 7120 D6D7      move.b     [A5 - 0x2929 + D7], 0x1
0000080E  1BBC 0001 7120 D6E4      move.b     [A5 - 0x291C + D7], 0x1
label00000816:
00000816  4CDF 10C0                movem.l    D6,D7,A4, [A7]+
0000081A  4E5E                     unlink     A6
0000081C  4E75                     rts
fn0000081E:
0000081E  4E56 0000                link       A6, 0
00000822  48E7 1F00                movem.l    -[A7], D3,D4,D5,D6,D7
00000826  3E2E 000A                move.w     D7, [A6 + 0xA]
0000082A  206D DFB2                movea.l    A0, [A5 - 0x204E]
0000082E  3C30 7202                move.w     D6, [A0 + D7.w * 2 + 0x2]
00000832  0C46 FFFF                cmpi.w     D6, 0xFFFF
00000836  6700 0094                beq        +0x96 /* 000008CC */
0000083A  3A06                     move.w     D5, D6
0000083C  0245 8000                andi.w     D5, 0x8000
00000840  3806                     move.w     D4, D6
00000842  0244 7FFF                andi.w     D4, 0x7FFF
00000846  206D DFB2                movea.l    A0, [A5 - 0x204E]
0000084A  3630 7242                move.w     D3, [A0 + D7.w * 2 + 0x42]
label0000084E:
0000084E  4A45                     tst.w      D5
00000850  6620                     bne        +0x22 /* 00000872 */
00000852  3004                     move.w     D0, D4
00000854  5244                     addq.w     D4, 1
00000856  B640                     cmp.w      D3, D0
00000858  6208                     bhi        +0xA /* 00000862 */
0000085A  206D DFB2                movea.l    A0, [A5 - 0x204E]
0000085E  3830 7222                move.w     D4, [A0 + D7.w * 2 + 0x22]
label00000862:
00000862  206D DFB2                movea.l    A0, [A5 - 0x204E]
00000866  B670 7222                cmp.w      D3, [A0 + D7.w * 2 + 0x22]
0000086A  6710                     beq        +0x12 /* 0000087C */
0000086C  522D 9793                addq.b     [A5 - 0x686D], 1
00000870  600A                     bra        +0xC /* 0000087C */
label00000872:
00000872  B644                     cmp.w      D3, D4
00000874  6706                     beq        +0x8 /* 0000087C */
00000876  5244                     addq.w     D4, 1
00000878  522D 9793                addq.b     [A5 - 0x686D], 1
label0000087C:
0000087C  7000                     moveq.l    D0, 0x00
0000087E  3004                     move.w     D0, D4
00000880  0C35 007C 0925 ECD0      cmpi.b     [[A5 - 0x1330] + D0], 0x7C /* '|' */
00000888  6614                     bne        +0x16 /* 0000089E */
0000088A  302E 0008                move.w     D0, [A6 + 0x8]
0000088E  5275 0320 D662           addq.w     [A5 - 0x299E + D0 * 2], 1
00000894  206D DFB2                movea.l    A0, [A5 - 0x204E]
00000898  B670 7222                cmp.w      D3, [A0 + D7.w * 2 + 0x22]
0000089C  66B0                     bne        -0x4E /* 0000084E */
label0000089E:
0000089E  7000                     moveq.l    D0, 0x00
000008A0  3004                     move.w     D0, D4
000008A2  0C35 0078 0925 ECD0      cmpi.b     [[A5 - 0x1330] + D0], 0x78 /* 'x' */
000008AA  6614                     bne        +0x16 /* 000008C0 */
000008AC  306E 0008                movea.w    A0, [A6 + 0x8]
000008B0  D1CD                     add.l      A0, A5
000008B2  5228 D432                addq.b     [A0 - 0x2BCE], 1
000008B6  206D DFB2                movea.l    A0, [A5 - 0x204E]
000008BA  B670 7222                cmp.w      D3, [A0 + D7.w * 2 + 0x22]
000008BE  668E                     bne        -0x70 /* 0000084E */
label000008C0:
000008C0  3004                     move.w     D0, D4
000008C2  8045                     or.w       D0, D5
000008C4  206D DFB2                movea.l    A0, [A5 - 0x204E]
000008C8  3180 7202                move.w     [A0 + D7.w * 2 + 0x2], D0
label000008CC:
000008CC  4CDF 00F8                movem.l    D3,D4,D5,D6,D7, [A7]+
000008D0  4E5E                     unlink     A6
000008D2  4E75                     rts
export_10:
000008D4  48E7 1F00                movem.l    -[A7], D3,D4,D5,D6,D7
000008D8  3E2D EC9E                move.w     D7, [A5 - 0x1362]
000008DC  026D FFF8 EC9E           andi.w     [A5 - 0x1362], 0xFFF8
000008E2  302D EC9E                move.w     D0, [A5 - 0x1362]
000008E6  B06D C94E                cmp.w      D0, [A5 - 0x36B2]
000008EA  6C1A                     bge        +0x1C /* 00000906 */
000008EC  4A6D C960                tst.w      [A5 - 0x36A0]
000008F0  6708                     beq        +0xA /* 000008FA */
000008F2  3B6D C94E EC9E           move.w     [A5 - 0x1362], [A5 - 0x36B2]
000008F8  6004                     bra        +0x6 /* 000008FE */
label000008FA:
000008FA  506D EC9E                addq.w     [A5 - 0x1362], 8
label000008FE:
000008FE  4EBA 0146                jsr        [PC + 0x146 /* 00000A46 */]
00000902  6000 013C                bra        +0x13E /* 00000A40 */
label00000906:
00000906  302D EC9E                move.w     D0, [A5 - 0x1362]
0000090A  B06D C950                cmp.w      D0, [A5 - 0x36B0]
0000090E  6F1A                     ble        +0x1C /* 0000092A */
00000910  4A6D C960                tst.w      [A5 - 0x36A0]
00000914  6708                     beq        +0xA /* 0000091E */
00000916  3B6D C950 EC9E           move.w     [A5 - 0x1362], [A5 - 0x36B0]
0000091C  6004                     bra        +0x6 /* 00000922 */
label0000091E:
0000091E  516D EC9E                subq.w     [A5 - 0x1362], 8
label00000922:
00000922  4EBA 0122                jsr        [PC + 0x122 /* 00000A46 */]
00000926  6000 0118                bra        +0x11A /* 00000A40 */
label0000092A:
0000092A  0C2D 0002 ECD6           cmpi.b     [A5 - 0x132A], 0x2
00000930  6662                     bne        +0x64 /* 00000994 */
00000932  7000                     moveq.l    D0, 0x00
00000934  102D ECDA                move.b     D0, [A5 - 0x1326]
00000938  3075 0B20 D3B0           movea.w    A0, [A5 - 0x2C50 + D0 * 2]
0000093E  2C08                     move.l     D6, A0
00000940  8DFC 0008                divs.w     D6, 0x8
00000944  7000                     moveq.l    D0, 0x00
00000946  102D ECDA                move.b     D0, [A5 - 0x1326]
0000094A  3A35 0B20 D3B0           move.w     D5, [A5 - 0x2C50 + D0 * 2]
00000950  3806                     move.w     D4, D6
00000952  3604                     move.w     D3, D4
00000954  966D ECA2                sub.w      D3, [A5 - 0x135E]
00000958  B66D ECDC                cmp.w      D3, [A5 - 0x1324]
0000095C  6D06                     blt        +0x8 /* 00000964 */
0000095E  B66D ECDE                cmp.w      D3, [A5 - 0x1322]
00000962  6F30                     ble        +0x32 /* 00000994 */
label00000964:
00000964  4A6D C960                tst.w      [A5 - 0x36A0]
00000968  6724                     beq        +0x26 /* 0000098E */
0000096A  3806                     move.w     D4, D6
0000096C  986D ECA2                sub.w      D4, [A5 - 0x135E]
00000970  0C44 0023                cmpi.w     D4, 0x23 /* '#' */
00000974  6F08                     ble        +0xA /* 0000097E */
00000976  7050                     moveq.l    D0, 0x50
00000978  D045                     add.w      D0, D5
0000097A  3B40 ECD8                move.w     [A5 - 0x1328], D0
label0000097E:
0000097E  0C44 0005                cmpi.w     D4, 0x5
00000982  6C10                     bge        +0x12 /* 00000994 */
00000984  70B0                     moveq.l    D0, 0xFFFFFFB0
00000986  D045                     add.w      D0, D5
00000988  3B40 ECD8                move.w     [A5 - 0x1328], D0
0000098C  6006                     bra        +0x8 /* 00000994 */
label0000098E:
0000098E  3B7C 0001 ECE0           move.w     [A5 - 0x1320], 0x1
label00000994:
00000994  4A6D ECE0                tst.w      [A5 - 0x1320]
00000998  670E                     beq        +0x10 /* 000009A8 */
0000099A  7000                     moveq.l    D0, 0x00
0000099C  102D ECDA                move.b     D0, [A5 - 0x1326]
000009A0  3B75 0B20 D3B0 ECD8      move.w     [A5 - 0x1328], [A5 - 0x2C50 + D0 * 2]
label000009A8:
000009A8  302D ECD8                move.w     D0, [A5 - 0x1328]
000009AC  B06D C94E                cmp.w      D0, [A5 - 0x36B2]
000009B0  6C06                     bge        +0x8 /* 000009B8 */
000009B2  3B6D C94E ECD8           move.w     [A5 - 0x1328], [A5 - 0x36B2]
label000009B8:
000009B8  302D ECD8                move.w     D0, [A5 - 0x1328]
000009BC  B06D C950                cmp.w      D0, [A5 - 0x36B0]
000009C0  6F06                     ble        +0x8 /* 000009C8 */
000009C2  3B6D C950 ECD8           move.w     [A5 - 0x1328], [A5 - 0x36B0]
label000009C8:
000009C8  4A6D C960                tst.w      [A5 - 0x36A0]
000009CC  6708                     beq        +0xA /* 000009D6 */
000009CE  3B6D ECD8 EC9E           move.w     [A5 - 0x1362], [A5 - 0x1328]
000009D4  601C                     bra        +0x1E /* 000009F2 */
label000009D6:
000009D6  302D EC9E                move.w     D0, [A5 - 0x1362]
000009DA  B06D ECD8                cmp.w      D0, [A5 - 0x1328]
000009DE  6C04                     bge        +0x6 /* 000009E4 */
000009E0  506D EC9E                addq.w     [A5 - 0x1362], 8
label000009E4:
000009E4  302D EC9E                move.w     D0, [A5 - 0x1362]
000009E8  B06D ECD8                cmp.w      D0, [A5 - 0x1328]
000009EC  6F04                     ble        +0x6 /* 000009F2 */
000009EE  516D EC9E                subq.w     [A5 - 0x1362], 8
label000009F2:
000009F2  4A6D ECE0                tst.w      [A5 - 0x1320]
000009F6  6724                     beq        +0x26 /* 00000A1C */
000009F8  306D EC9E                movea.w    A0, [A5 - 0x1362]
000009FC  2008                     move.l     D0, A0
000009FE  81FC 0008                divs.w     D0, 0x8
00000A02  7200                     moveq.l    D1, 0x00
00000A04  122D ECDA                move.b     D1, [A5 - 0x1326]
00000A08  3075 1B20 D3B0           movea.w    A0, [A5 - 0x2C50 + D1 * 2]
00000A0E  2208                     move.l     D1, A0
00000A10  83FC 0008                divs.w     D1, 0x8
00000A14  B240                     cmp.w      D1, D0
00000A16  6604                     bne        +0x6 /* 00000A1C */
00000A18  426D ECE0                clr.w      [A5 - 0x1320]
label00000A1C:
00000A1C  4EBA 0028                jsr        [PC + 0x28 /* 00000A46 */]
00000A20  BE6D EC9E                cmp.w      D7, [A5 - 0x1362]
00000A24  671A                     beq        +0x1C /* 00000A40 */
00000A26  3E2D C962                move.w     D7, [A5 - 0x369E]
00000A2A  6714                     beq        +0x16 /* 00000A40 */
00000A2C  3B6D EC9E C930           move.w     [A5 - 0x36D0], [A5 - 0x1362]
00000A32  42A7                     clr.l      -[A7]
00000A34  42A7                     clr.l      -[A7]
00000A36  3F07                     move.w     -[A7], D7
00000A38  4EAD 0A02                jsr        [A5 + 0xA02 /* export_316, CODE:5 @ 00002ED2 */]
00000A3C  4FEF 000A                lea.l      A7, [A7 + 0xA]
label00000A40:
00000A40  4CDF 00F8                movem.l    D3,D4,D5,D6,D7, [A7]+
00000A44  4E75                     rts
fn00000A46:
00000A46  2F07                     move.l     -[A7], D7
00000A48  0C6D 00A0 EC9E           cmpi.w     [A5 - 0x1362], 0xA0
00000A4E  6C08                     bge        +0xA /* 00000A58 */
00000A50  3B7C 00A0 EC9E           move.w     [A5 - 0x1362], 0xA0
00000A56  601C                     bra        +0x1E /* 00000A74 */
label00000A58:
00000A58  3E2D B2B6                move.w     D7, [A5 - 0x4D4A]
00000A5C  E74F                     lsl        D7.w, 3
00000A5E  302D EC9E                move.w     D0, [A5 - 0x1362]
00000A62  0640 00A0                addi.w     D0, 0xA0
00000A66  BE40                     cmp.w      D7, D0
00000A68  640A                     bcc        +0xC /* 00000A74 */
00000A6A  3007                     move.w     D0, D7
00000A6C  0640 FF60                addi.w     D0, 0xFF60
00000A70  3B40 EC9E                move.w     [A5 - 0x1362], D0
label00000A74:
00000A74  306D EC9E                movea.w    A0, [A5 - 0x1362]
00000A78  2008                     move.l     D0, A0
00000A7A  81FC 0008                divs.w     D0, 0x8
00000A7E  0640 FFEC                addi.w     D0, 0xFFEC
00000A82  3B40 ECA2                move.w     [A5 - 0x135E], D0
00000A86  0640 0027                addi.w     D0, 0x27 /* '\'' */
00000A8A  3B40 ECA4                move.w     [A5 - 0x135C], D0
00000A8E  322D ECA2                move.w     D1, [A5 - 0x135E]
00000A92  E749                     lsl        D1.w, 3
00000A94  3B41 F296                move.w     [A5 - 0xD6A], D1
00000A98  2E1F                     move.l     D7, [A7]+
00000A9A  4E75                     rts
fn00000A9C:
00000A9C  4E56 0000                link       A6, 0
00000AA0  48E7 0300                movem.l    -[A7], D6,D7
00000AA4  3E2E 0008                move.w     D7, [A6 + 0x8]
00000AA8  BE6D EC9E                cmp.w      D7, [A5 - 0x1362]
00000AAC  6F08                     ble        +0xA /* 00000AB6 */
00000AAE  3C07                     move.w     D6, D7
00000AB0  9C6D EC9E                sub.w      D6, [A5 - 0x1362]
00000AB4  6006                     bra        +0x8 /* 00000ABC */
label00000AB6:
00000AB6  3C2D EC9E                move.w     D6, [A5 - 0x1362]
00000ABA  9C47                     sub.w      D6, D7
label00000ABC:
00000ABC  0C46 00A0                cmpi.w     D6, 0xA0
00000AC0  6F04                     ble        +0x6 /* 00000AC6 */
00000AC2  3B47 EC9E                move.w     [A5 - 0x1362], D7
label00000AC6:
00000AC6  3B47 ECD8                move.w     [A5 - 0x1328], D7
00000ACA  302D EC9E                move.w     D0, [A5 - 0x1362]
00000ACE  B06D C94E                cmp.w      D0, [A5 - 0x36B2]
00000AD2  6C06                     bge        +0x8 /* 00000ADA */
00000AD4  3B6D C94E EC9E           move.w     [A5 - 0x1362], [A5 - 0x36B2]
label00000ADA:
00000ADA  302D EC9E                move.w     D0, [A5 - 0x1362]
00000ADE  B06D C950                cmp.w      D0, [A5 - 0x36B0]
00000AE2  6F06                     ble        +0x8 /* 00000AEA */
00000AE4  3B6D C950 EC9E           move.w     [A5 - 0x1362], [A5 - 0x36B0]
label00000AEA:
00000AEA  3E2D C962                move.w     D7, [A5 - 0x369E]
00000AEE  6714                     beq        +0x16 /* 00000B04 */
00000AF0  3B6D EC9E C930           move.w     [A5 - 0x36D0], [A5 - 0x1362]
00000AF6  42A7                     clr.l      -[A7]
00000AF8  42A7                     clr.l      -[A7]
00000AFA  3F07                     move.w     -[A7], D7
00000AFC  4EAD 0A02                jsr        [A5 + 0xA02 /* export_316, CODE:5 @ 00002ED2 */]
00000B00  4FEF 000A                lea.l      A7, [A7 + 0xA]
label00000B04:
00000B04  302D EC9E                move.w     D0, [A5 - 0x1362]
00000B08  B06D ECA0                cmp.w      D0, [A5 - 0x1360]
00000B0C  670A                     beq        +0xC /* 00000B18 */
00000B0E  4A6D F40A                tst.w      [A5 - 0xBF6]
00000B12  6704                     beq        +0x6 /* 00000B18 */
00000B14  4EAD 073A                jsr        [A5 + 0x73A /* export_227, CODE:4 @ 00005900 */]
label00000B18:
00000B18  4CDF 00C0                movem.l    D6,D7, [A7]+
00000B1C  4E5E                     unlink     A6
00000B1E  4E75                     rts
export_11:
fn00000B20:
00000B20  4E56 0000                link       A6, 0
00000B24  48E7 0F08                movem.l    -[A7], D4,D5,D6,D7,A4
00000B28  3C2E 0008                move.w     D6, [A6 + 0x8]
00000B2C  3E2E 000A                move.w     D7, [A6 + 0xA]
00000B30  382E 000C                move.w     D4, [A6 + 0xC]
00000B34  0C47 0038                cmpi.w     D7, 0x38 /* '8' */
00000B38  6608                     bne        +0xA /* 00000B42 */
00000B3A  7E00                     moveq.l    D7, 0x00
00000B3C  1E35 6120 D732           move.b     D7, [A5 - 0x28CE + D6]
label00000B42:
00000B42  0C47 0039                cmpi.w     D7, 0x39 /* '9' */
00000B46  6608                     bne        +0xA /* 00000B50 */
00000B48  7E00                     moveq.l    D7, 0x00
00000B4A  1E35 6120 D73F           move.b     D7, [A5 - 0x28C1 + D6]
label00000B50:
00000B50  0C47 003A                cmpi.w     D7, 0x3A /* ':' */
00000B54  6608                     bne        +0xA /* 00000B5E */
00000B56  7E00                     moveq.l    D7, 0x00
00000B58  1E35 6120 D74C           move.b     D7, [A5 - 0x28B4 + D6]
label00000B5E:
00000B5E  0C47 003B                cmpi.w     D7, 0x3B /* ';' */
00000B62  6608                     bne        +0xA /* 00000B6C */
00000B64  7E00                     moveq.l    D7, 0x00
00000B66  1E35 6120 D759           move.b     D7, [A5 - 0x28A7 + D6]
label00000B6C:
00000B6C  0C47 003C                cmpi.w     D7, 0x3C /* '<' */
00000B70  6608                     bne        +0xA /* 00000B7A */
00000B72  7E00                     moveq.l    D7, 0x00
00000B74  1E35 6120 D766           move.b     D7, [A5 - 0x289A + D6]
label00000B7A:
00000B7A  2F3C 0000 005B           move.l     -[A7], 0x5B /* '[' */
00000B80  3F06                     move.w     -[A7], D6
00000B82  2F3C 000C 0001           move.l     -[A7], 0xC0001
00000B88  4EAD 09B2                jsr        [A5 + 0x9B2 /* export_306, CODE:5 @ 00003464 */]
00000B8C  1035 6120 D395           move.b     D0, [A5 - 0x2C6B + D6]
00000B92  B02D B2D6                cmp.b      D0, [A5 - 0x4D2A]
00000B96  6600 00DA                bne        +0xDC /* 00000C72 */
00000B9A  4A35 6120 D3A2           tst.b      [A5 - 0x2C5E + D6]
00000BA0  6700 00D0                beq        +0xD2 /* 00000C72 */
00000BA4  4235 6120 D6A3           clr.b      [A5 - 0x295D + D6]
00000BAA  4275 6320 D662           clr.w      [A5 - 0x299E + D6 * 2]
00000BB0  1BBC 0001 6120 D6D7      move.b     [A5 - 0x2929 + D6], 0x1
00000BB8  49ED D3A2                lea.l      A4, [A5 - 0x2C5E]
00000BBC  D8C6                     add.w      A4, D6
00000BBE  7000                     moveq.l    D0, 0x00
00000BC0  1014                     move.b     D0, [A4]
00000BC2  3F00                     move.w     -[A7], D0
00000BC4  3F3C 0003                move.w     -[A7], 0x3
00000BC8  4EBA 3124                jsr        [PC + 0x3124 /* 00003CEE */]
00000BCC  5480                     addq.l     D0, 2
00000BCE  2B40 ECC4                move.l     [A5 - 0x133C], D0
00000BD2  2040                     movea.l    A0, D0
00000BD4  7A00                     moveq.l    D5, 0x00
00000BD6  1A28 0007                move.b     D5, [A0 + 0x7]
00000BDA  0245 007F                andi.w     D5, 0x7F
00000BDE  0C45 0058                cmpi.w     D5, 0x58 /* 'X' */
00000BE2  588F                     addq.l     A7, 4
00000BE4  6606                     bne        +0x8 /* 00000BEC */
00000BE6  3B7C 0010 F8F0           move.w     [A5 - 0x710], 0x10
label00000BEC:
00000BEC  0C45 0059                cmpi.w     D5, 0x59 /* 'Y' */
00000BF0  6606                     bne        +0x8 /* 00000BF8 */
00000BF2  3B7C 0020 F8F0           move.w     [A5 - 0x710], 0x20 /* ' ' */
label00000BF8:
00000BF8  0C45 0058                cmpi.w     D5, 0x58 /* 'X' */
00000BFC  671A                     beq        +0x1C /* 00000C18 */
00000BFE  0C45 0059                cmpi.w     D5, 0x59 /* 'Y' */
00000C02  6714                     beq        +0x16 /* 00000C18 */
00000C04  7000                     moveq.l    D0, 0x00
00000C06  1014                     move.b     D0, [A4]
00000C08  3F00                     move.w     -[A7], D0
00000C0A  3F06                     move.w     -[A7], D6
00000C0C  2F3C 0000 0077           move.l     -[A7], 0x77 /* 'w' */
00000C12  4EAD 0A42                jsr        [A5 + 0xA42 /* export_324, CODE:5 @ 000034B4 */]
00000C16  508F                     addq.l     A7, 8
label00000C18:
00000C18  7000                     moveq.l    D0, 0x00
00000C1A  1035 6120 D732           move.b     D0, [A5 - 0x28CE + D6]
00000C20  B047                     cmp.w      D0, D7
00000C22  6608                     bne        +0xA /* 00000C2C */
00000C24  3F06                     move.w     -[A7], D6
00000C26  4EBA 0238                jsr        [PC + 0x238 /* 00000E60 */]
00000C2A  548F                     addq.l     A7, 2
label00000C2C:
00000C2C  303C 0082                move.w     D0, 0x82
00000C30  C1C6                     muls.w     D0, D6
00000C32  41ED D918                lea.l      A0, [A5 - 0x26E8]
00000C36  D088                     add.l      D0, A0
00000C38  2B40 DFB2                move.l     [A5 - 0x204E], D0
00000C3C  0C47 003E                cmpi.w     D7, 0x3E /* '>' */
00000C40  671A                     beq        +0x1C /* 00000C5C */
00000C42  3F3C FFFF                move.w     -[A7], 0xFFFF
00000C46  3007                     move.w     D0, D7
00000C48  E548                     lsl        D0.w, 2
00000C4A  D044                     add.w      D0, D4
00000C4C  3F00                     move.w     -[A7], D0
00000C4E  3F06                     move.w     -[A7], D6
00000C50  4EBA 0036                jsr        [PC + 0x36 /* 00000C88 */]
00000C54  1B87 6120 D655           move.b     [A5 - 0x29AB + D6], D7
00000C5A  5C8F                     addq.l     A7, 6
label00000C5C:
00000C5C  7000                     moveq.l    D0, 0x00
00000C5E  1035 6120 D6F1           move.b     D0, [A5 - 0x290F + D6]
00000C64  B044                     cmp.w      D0, D4
00000C66  670A                     beq        +0xC /* 00000C72 */
00000C68  3F04                     move.w     -[A7], D4
00000C6A  3F06                     move.w     -[A7], D6
00000C6C  4EBA 018A                jsr        [PC + 0x18A /* 00000DF8 */]
00000C70  588F                     addq.l     A7, 4
label00000C72:
00000C72  1B84 6120 D6F1           move.b     [A5 - 0x290F + D6], D4
00000C78  1BBC 0001 6120 D6E4      move.b     [A5 - 0x291C + D6], 0x1
00000C80  4CDF 10F0                movem.l    D4,D5,D6,D7,A4, [A7]+
00000C84  4E5E                     unlink     A6
00000C86  4E75                     rts
fn00000C88:
00000C88  4E56 0000                link       A6, 0
00000C8C  48E7 1F08                movem.l    -[A7], D3,D4,D5,D6,D7,A4
00000C90  3E2E 000A                move.w     D7, [A6 + 0xA]
00000C94  206D ECC4                movea.l    A0, [A5 - 0x133C]
00000C98  7000                     moveq.l    D0, 0x00
00000C9A  1028 0006                move.b     D0, [A0 + 0x6]
00000C9E  B047                     cmp.w      D0, D7
00000CA0  6D00 014E                blt        +0x150 /* 00000DF0 */
00000CA4  7006                     moveq.l    D0, 0x06
00000CA6  D06D F8F0                add.w      D0, [A5 - 0x710]
00000CAA  5340                     subq.w     D0, 1
00000CAC  0640 0025                addi.w     D0, 0x25 /* '%' */
00000CB0  7200                     moveq.l    D1, 0x00
00000CB2  3200                     move.w     D1, D0
00000CB4  D2AD ECC4                add.l      D1, [A5 - 0x133C]
00000CB8  3047                     movea.w    A0, D7
00000CBA  D1C8                     add.l      A0, A0
00000CBC  D288                     add.l      D1, A0
00000CBE  2F01                     move.l     -[A7], D1
00000CC0  4EAD 0BF2                jsr        [A5 + 0xBF2 /* export_378, CODE:6 @ 0000005C */]
00000CC4  7200                     moveq.l    D1, 0x00
00000CC6  3200                     move.w     D1, D0
00000CC8  D2AD ECC4                add.l      D1, [A5 - 0x133C]
00000CCC  2841                     movea.l    A4, D1
00000CCE  B9ED ECC4                cmpa.l     A4, [A5 - 0x133C]
00000CD2  588F                     addq.l     A7, 4
00000CD4  6700 011A                beq        +0x11C /* 00000DF0 */
00000CD8  7006                     moveq.l    D0, 0x06
00000CDA  D06D F8F0                add.w      D0, [A5 - 0x710]
00000CDE  5340                     subq.w     D0, 1
00000CE0  5640                     addq.w     D0, 3
00000CE2  7200                     moveq.l    D1, 0x00
00000CE4  3200                     move.w     D1, D0
00000CE6  D2AD ECC4                add.l      D1, [A5 - 0x133C]
00000CEA  2F01                     move.l     -[A7], D1
00000CEC  4EAD 0BF2                jsr        [A5 + 0xBF2 /* export_378, CODE:6 @ 0000005C */]
00000CF0  7200                     moveq.l    D1, 0x00
00000CF2  3200                     move.w     D1, D0
00000CF4  D2AD ECC4                add.l      D1, [A5 - 0x133C]
00000CF8  2B41 ECD0                move.l     [A5 - 0x1330], D1
00000CFC  2E8C                     move.l     [A7], A4
00000CFE  4EAD 0BF2                jsr        [A5 + 0xBF2 /* export_378, CODE:6 @ 0000005C */]
00000D02  3A00                     move.w     D5, D0
00000D04  548C                     addq.l     A4, 2
00000D06  7C00                     moveq.l    D6, 0x00
00000D08  588F                     addq.l     A7, 4
label00000D0A:
00000D0A  4A45                     tst.w      D5
00000D0C  6A00 00D4                bpl        +0xD6 /* 00000DE2 */
00000D10  2F0C                     move.l     -[A7], A4
00000D12  4EAD 0BF2                jsr        [A5 + 0xBF2 /* export_378, CODE:6 @ 0000005C */]
00000D16  3800                     move.w     D4, D0
00000D18  548C                     addq.l     A4, 2
00000D1A  4A2E 000C                tst.b      [A6 + 0xC]
00000D1E  588F                     addq.l     A7, 4
00000D20  6A00 00B8                bpl        +0xBA /* 00000DDA */
00000D24  0C44 FFFF                cmpi.w     D4, 0xFFFF
00000D28  661E                     bne        +0x20 /* 00000D48 */
00000D2A  7000                     moveq.l    D0, 0x00
00000D2C  3006                     move.w     D0, D6
00000D2E  206D DFB2                movea.l    A0, [A5 - 0x204E]
00000D32  31BC FFFF 0A02           move.w     [A0 + D0 * 2 + 0x2], 0xFFFF
00000D38  7000                     moveq.l    D0, 0x00
00000D3A  3006                     move.w     D0, D6
00000D3C  206D DFB2                movea.l    A0, [A5 - 0x204E]
00000D40  4270 0A22                clr.w      [A0 + D0 * 2 + 0x22]
00000D44  6000 0086                bra        +0x88 /* 00000DCC */
label00000D48:
00000D48  7600                     moveq.l    D3, 0x00
00000D4A  161C                     move.b     D3, [A4]+
00000D4C  7000                     moveq.l    D0, 0x00
00000D4E  3004                     move.w     D0, D4
00000D50  0C35 007A 0925 ECD0      cmpi.b     [[A5 - 0x1330] + D0], 0x7A /* 'z' */
00000D58  6614                     bne        +0x16 /* 00000D6E */
00000D5A  7000                     moveq.l    D0, 0x00
00000D5C  3006                     move.w     D0, D6
00000D5E  3035 0B20 B052           move.w     D0, [A5 - 0x4FAE + D0 * 2]
00000D64  4640                     not.w      D0
00000D66  206D DFB2                movea.l    A0, [A5 - 0x204E]
00000D6A  C150                     and.w      [A0], D0
00000D6C  6074                     bra        +0x76 /* 00000DE2 */
label00000D6E:
00000D6E  7000                     moveq.l    D0, 0x00
00000D70  3004                     move.w     D0, D4
00000D72  0C35 0079 0925 ECD0      cmpi.b     [[A5 - 0x1330] + D0], 0x79 /* 'y' */
00000D7A  6612                     bne        +0x14 /* 00000D8E */
00000D7C  7000                     moveq.l    D0, 0x00
00000D7E  3006                     move.w     D0, D6
00000D80  3035 0B20 B052           move.w     D0, [A5 - 0x4FAE + D0 * 2]
00000D86  206D DFB2                movea.l    A0, [A5 - 0x204E]
00000D8A  8150                     or.w       [A0], D0
00000D8C  6054                     bra        +0x56 /* 00000DE2 */
label00000D8E:
00000D8E  7000                     moveq.l    D0, 0x00
00000D90  3006                     move.w     D0, D6
00000D92  206D DFB2                movea.l    A0, [A5 - 0x204E]
00000D96  3184 0A22                move.w     [A0 + D0 * 2 + 0x22], D4
00000D9A  7000                     moveq.l    D0, 0x00
00000D9C  3006                     move.w     D0, D6
00000D9E  206D DFB2                movea.l    A0, [A5 - 0x204E]
00000DA2  3184 0A02                move.w     [A0 + D0 * 2 + 0x2], D4
00000DA6  707F                     moveq.l    D0, 0x7F
00000DA8  C043                     and.w      D0, D3
00000DAA  D044                     add.w      D0, D4
00000DAC  7200                     moveq.l    D1, 0x00
00000DAE  3206                     move.w     D1, D6
00000DB0  206D DFB2                movea.l    A0, [A5 - 0x204E]
00000DB4  3180 1A42                move.w     [A0 + D1 * 2 + 0x42], D0
00000DB8  0C43 007F                cmpi.w     D3, 0x7F
00000DBC  630E                     bls        +0x10 /* 00000DCC */
00000DBE  7000                     moveq.l    D0, 0x00
00000DC0  3006                     move.w     D0, D6
00000DC2  206D DFB2                movea.l    A0, [A5 - 0x204E]
00000DC6  0070 8000 0A02           ori.w      [A0 + D0 * 2 + 0x2], 0x8000
label00000DCC:
00000DCC  7000                     moveq.l    D0, 0x00
00000DCE  3006                     move.w     D0, D6
00000DD0  206D DFB2                movea.l    A0, [A5 - 0x204E]
00000DD4  3187 0A62                move.w     [A0 + D0 * 2 + 0x62], D7
00000DD8  6008                     bra        +0xA /* 00000DE2 */
label00000DDA:
00000DDA  0C44 FFFF                cmpi.w     D4, 0xFFFF
00000DDE  6702                     beq        +0x4 /* 00000DE2 */
00000DE0  528C                     addq.l     A4, 1
label00000DE2:
00000DE2  DA45                     add.w      D5, D5
00000DE4  E3EE 000C                lsl   .w   [A6 + 0xC]
00000DE8  5246                     addq.w     D6, 1
00000DEA  4A45                     tst.w      D5
00000DEC  6600 FF1C                bne        -0xE2 /* 00000D0A */
label00000DF0:
00000DF0  4CDF 10F8                movem.l    D3,D4,D5,D6,D7,A4, [A7]+
00000DF4  4E5E                     unlink     A6
00000DF6  4E75                     rts
fn00000DF8:
00000DF8  4E56 0000                link       A6, 0
00000DFC  48E7 0F18                movem.l    -[A7], D4,D5,D6,D7,A3,A4
00000E00  3E2E 000A                move.w     D7, [A6 + 0xA]
00000E04  49ED D6F1                lea.l      A4, [A5 - 0x290F]
00000E08  D8EE 0008                add.w      A4, [A6 + 0x8]
00000E0C  7000                     moveq.l    D0, 0x00
00000E0E  1014                     move.b     D0, [A4]
00000E10  BE40                     cmp.w      D7, D0
00000E12  6744                     beq        +0x46 /* 00000E58 */
00000E14  3C3C 8000                move.w     D6, 0x8000
00000E18  7A00                     moveq.l    D5, 0x00
00000E1A  97CB                     sub.l      A3, A3
00000E1C  6032                     bra        +0x34 /* 00000E50 */
label00000E1E:
00000E1E  202D DFB2                move.l     D0, [A5 - 0x204E]
00000E22  3833 0862                move.w     D4, [A3 + D0 + 0x62]
00000E26  0C44 FFFF                cmpi.w     D4, 0xFFFF
00000E2A  671E                     beq        +0x20 /* 00000E4A */
00000E2C  7003                     moveq.l    D0, 0x03
00000E2E  C044                     and.w      D0, D4
00000E30  BE40                     cmp.w      D7, D0
00000E32  6716                     beq        +0x18 /* 00000E4A */
00000E34  3F06                     move.w     -[A7], D6
00000E36  3004                     move.w     D0, D4
00000E38  0240 00FC                andi.w     D0, 0xFC
00000E3C  8047                     or.w       D0, D7
00000E3E  3F00                     move.w     -[A7], D0
00000E40  3F2E 0008                move.w     -[A7], [A6 + 0x8]
00000E44  4EBA FE42                jsr        [PC - 0x1BE /* 00000C88 */]
00000E48  5C8F                     addq.l     A7, 6
label00000E4A:
00000E4A  E24E                     lsr        D6.w, 1
00000E4C  5245                     addq.w     D5, 1
00000E4E  548B                     addq.l     A3, 2
label00000E50:
00000E50  0C45 0010                cmpi.w     D5, 0x10
00000E54  6DC8                     blt        -0x36 /* 00000E1E */
00000E56  1887                     move.b     [A4], D7
label00000E58:
00000E58  4CDF 18F0                movem.l    D4,D5,D6,D7,A3,A4, [A7]+
00000E5C  4E5E                     unlink     A6
00000E5E  4E75                     rts
fn00000E60:
00000E60  4E56 0000                link       A6, 0
00000E64  48E7 0118                movem.l    -[A7], D7,A3,A4
00000E68  303C 0082                move.w     D0, 0x82
00000E6C  C1EE 0008                muls.w     D0, [A6 + 0x8]
00000E70  49ED D918                lea.l      A4, [A5 - 0x26E8]
00000E74  D08C                     add.l      D0, A4
00000E76  2840                     movea.l    A4, D0
00000E78  4254                     clr.w      [A4]
00000E7A  7E00                     moveq.l    D7, 0x00
00000E7C  97CB                     sub.l      A3, A3
00000E7E  602C                     bra        +0x2E /* 00000EAC */
label00000E80:
00000E80  41EC 0002                lea.l      A0, [A4 + 0x2]
00000E84  D1CB                     add.l      A0, A3
00000E86  30BC FFFF                move.w     [A0], 0xFFFF
00000E8A  41EC 0022                lea.l      A0, [A4 + 0x22]
00000E8E  D1CB                     add.l      A0, A3
00000E90  30BC FFFF                move.w     [A0], 0xFFFF
00000E94  41EC 0042                lea.l      A0, [A4 + 0x42]
00000E98  D1CB                     add.l      A0, A3
00000E9A  30BC FFFF                move.w     [A0], 0xFFFF
00000E9E  41EC 0062                lea.l      A0, [A4 + 0x62]
00000EA2  D1CB                     add.l      A0, A3
00000EA4  30BC FFFF                move.w     [A0], 0xFFFF
00000EA8  5247                     addq.w     D7, 1
00000EAA  548B                     addq.l     A3, 2
label00000EAC:
00000EAC  0C47 0010                cmpi.w     D7, 0x10
00000EB0  6DCE                     blt        -0x30 /* 00000E80 */
00000EB2  4CDF 1880                movem.l    D7,A3,A4, [A7]+
00000EB6  4E5E                     unlink     A6
00000EB8  4E75                     rts
export_12:
fn00000EBA:
00000EBA  4EAD 09A2                jsr        [A5 + 0x9A2 /* export_304, CODE:5 @ 00002914 */]
00000EBE  48C0                     ext.l      D0
00000EC0  D1AD ED64                add.l      [A5 - 0x129C], D0
00000EC4  4E75                     rts
export_13:
00000EC6  4EBA 0004                jsr        [PC + 0x4 /* 00000ECC */]
00000ECA  4E75                     rts
export_14:
fn00000ECC:
00000ECC  48E7 0108                movem.l    -[A7], D7,A4
00000ED0  7000                     moveq.l    D0, 0x00
00000ED2  102D C702                move.b     D0, [A5 - 0x38FE]
00000ED6  C1FC 0012                muls.w     D0, 0x12
00000EDA  1E35 0920 C5A5           move.b     D7, [A5 - 0x3A5B + D0]
00000EE0  0C07 0002                cmpi.b     D7, 0x2
00000EE4  6706                     beq        +0x8 /* 00000EEC */
00000EE6  0C07 0003                cmpi.b     D7, 0x3
00000EEA  6632                     bne        +0x34 /* 00000F1E */
label00000EEC:
00000EEC  7E00                     moveq.l    D7, 0x00
00000EEE  1E2D C702                move.b     D7, [A5 - 0x38FE]
00000EF2  7012                     moveq.l    D0, 0x12
00000EF4  C0C7                     mulu.w     D0, D7
00000EF6  49ED C59A                lea.l      A4, [A5 - 0x3A66]
00000EFA  D08C                     add.l      D0, A4
00000EFC  2840                     movea.l    A4, D0
00000EFE  4A2C 0010                tst.b      [A4 + 0x10]
00000F02  6710                     beq        +0x12 /* 00000F14 */
00000F04  3F2C 0008                move.w     -[A7], [A4 + 0x8]
00000F08  2F3C 0000 0093           move.l     -[A7], 0x93
00000F0E  4EAD 0A42                jsr        [A5 + 0xA42 /* export_324, CODE:5 @ 000034B4 */]
00000F12  5C8F                     addq.l     A7, 6
label00000F14:
00000F14  426C 0008                clr.w      [A4 + 0x8]
00000F18  422C 000A                clr.b      [A4 + 0xA]
00000F1C  6016                     bra        +0x18 /* 00000F34 */
label00000F1E:
00000F1E  7000                     moveq.l    D0, 0x00
00000F20  102D C702                move.b     D0, [A5 - 0x38FE]
00000F24  C1FC 0012                muls.w     D0, 0x12
00000F28  3F35 0920 C5A2           move.w     -[A7], [A5 - 0x3A5E + D0]
00000F2E  4EAD 09EA                jsr        [A5 + 0x9EA /* export_313, CODE:5 @ 00002C02 */]
00000F32  548F                     addq.l     A7, 2
label00000F34:
00000F34  1B7C 00FF C702           move.b     [A5 - 0x38FE], 0xFF
00000F3A  4CDF 1080                movem.l    D7,A4, [A7]+
00000F3E  4E75                     rts
export_15:
00000F40  48E7 0108                movem.l    -[A7], D7,A4
00000F44  4EAD 09AA                jsr        [A5 + 0x9AA /* export_305, CODE:5 @ 000028E0 */]
00000F48  1B40 ED6C                move.b     [A5 - 0x1294], D0
00000F4C  7200                     moveq.l    D1, 0x00
00000F4E  1200                     move.b     D1, D0
00000F50  0241 001F                andi.w     D1, 0x1F
00000F54  6700 00B8                beq        +0xBA /* 0000100E */
00000F58  6B00 00B4                bmi        +0xB6 /* 0000100E */
00000F5C  5741                     subq.w     D1, 3
00000F5E  6700 008E                beq        +0x90 /* 00000FEE */
00000F62  6A06                     bpl        +0x8 /* 00000F6A */
00000F64  5241                     addq.w     D1, 1
00000F66  6A0A                     bpl        +0xC /* 00000F72 */
00000F68  605A                     bra        +0x5C /* 00000FC4 */
label00000F6A:
00000F6A  5541                     subq.w     D1, 2
00000F6C  6A00 00A0                bpl        +0xA2 /* 0000100E */
00000F70  6014                     bra        +0x16 /* 00000F86 */
label00000F72:
00000F72  4A6D C932                tst.w      [A5 - 0x36CE]
00000F76  6700 0096                beq        +0x98 /* 0000100E */
00000F7A  55AD ED64                subq.l     [A5 - 0x129C], 2
00000F7E  4EBA 0094                jsr        [PC + 0x94 /* 00001014 */]
00000F82  6000 008A                bra        +0x8C /* 0000100E */
label00000F86:
00000F86  0C2D 00FF ED12           cmpi.b     [A5 - 0x12EE], 0xFF
00000F8C  671E                     beq        +0x20 /* 00000FAC */
00000F8E  7000                     moveq.l    D0, 0x00
00000F90  102D ED12                move.b     D0, [A5 - 0x12EE]
00000F94  4A35 0920 ED38           tst.b      [A5 - 0x12C8 + D0]
00000F9A  671E                     beq        +0x20 /* 00000FBA */
00000F9C  3F2D C96E                move.w     -[A7], [A5 - 0x3692]
00000FA0  4EBA 3210                jsr        [PC + 0x3210 /* 000041B2 */]
00000FA4  4A40                     tst.w      D0
00000FA6  548F                     addq.l     A7, 2
00000FA8  6764                     beq        +0x66 /* 0000100E */
00000FAA  600E                     bra        +0x10 /* 00000FBA */
label00000FAC:
00000FAC  3F2D C96E                move.w     -[A7], [A5 - 0x3692]
00000FB0  4EBA 3200                jsr        [PC + 0x3200 /* 000041B2 */]
00000FB4  4A40                     tst.w      D0
00000FB6  548F                     addq.l     A7, 2
00000FB8  6754                     beq        +0x56 /* 0000100E */
label00000FBA:
00000FBA  55AD ED64                subq.l     [A5 - 0x129C], 2
00000FBE  4EBA 0054                jsr        [PC + 0x54 /* 00001014 */]
00000FC2  604A                     bra        +0x4C /* 0000100E */
label00000FC4:
00000FC4  70FE                     moveq.l    D0, 0xFFFFFFFE
00000FC6  D0AD ED64                add.l      D0, [A5 - 0x129C]
00000FCA  2840                     movea.l    A4, D0
00000FCC  4267                     clr.w      -[A7]
00000FCE  3F3C 0080                move.w     -[A7], 0x80
00000FD2  4EAD 0992                jsr        [A5 + 0x992 /* export_302, CODE:5 @ 0000335E */]
00000FD6  3E1F                     move.w     D7, [A7]+
00000FD8  7000                     moveq.l    D0, 0x00
00000FDA  3007                     move.w     D0, D7
00000FDC  4A35 0920 D70B           tst.b      [A5 - 0x28F5 + D0]
00000FE2  672A                     beq        +0x2C /* 0000100E */
00000FE4  2B4C ED64                move.l     [A5 - 0x129C], A4
00000FE8  4EBA 002A                jsr        [PC + 0x2A /* 00001014 */]
00000FEC  6020                     bra        +0x22 /* 0000100E */
label00000FEE:
00000FEE  306D EC9E                movea.w    A0, [A5 - 0x1362]
00000FF2  2008                     move.l     D0, A0
00000FF4  81FC 0008                divs.w     D0, 0x8
00000FF8  306D ECD8                movea.w    A0, [A5 - 0x1328]
00000FFC  2208                     move.l     D1, A0
00000FFE  83FC 0008                divs.w     D1, 0x8
00001002  B240                     cmp.w      D1, D0
00001004  6708                     beq        +0xA /* 0000100E */
00001006  55AD ED64                subq.l     [A5 - 0x129C], 2
0000100A  4EBA 0008                jsr        [PC + 0x8 /* 00001014 */]
label0000100E:
0000100E  4CDF 1080                movem.l    D7,A4, [A7]+
00001012  4E75                     rts
export_16:
fn00001014:
00001014  4EAD 09CA                jsr        [A5 + 0x9CA /* export_309, CODE:5 @ 000029DE */]
00001018  1B7C 00FF C702           move.b     [A5 - 0x38FE], 0xFF
0000101E  4E75                     rts
export_17:
00001020  2F07                     move.l     -[A7], D7
00001022  4EAD 0A2A                jsr        [A5 + 0xA2A /* export_321, CODE:5 @ 00003318 */]
00001026  4EAD 09AA                jsr        [A5 + 0x9AA /* export_305, CODE:5 @ 000028E0 */]
0000102A  7E00                     moveq.l    D7, 0x00
0000102C  1E00                     move.b     D7, D0
label0000102E:
0000102E  4A2D ED6C                tst.b      [A5 - 0x1294]
00001032  6A0C                     bpl        +0xE /* 00001040 */
00001034  4EAD 09A2                jsr        [A5 + 0x9A2 /* export_304, CODE:5 @ 00002914 */]
00001038  3F00                     move.w     -[A7], D0
0000103A  4EAD 0982                jsr        [A5 + 0x982 /* export_300, CODE:5 @ 00003234 */]
0000103E  600E                     bra        +0x10 /* 0000104E */
label00001040:
00001040  4EAD 09AA                jsr        [A5 + 0x9AA /* export_305, CODE:5 @ 000028E0 */]
00001044  7200                     moveq.l    D1, 0x00
00001046  1200                     move.b     D1, D0
00001048  3F01                     move.w     -[A7], D1
0000104A  4EAD 0982                jsr        [A5 + 0x982 /* export_300, CODE:5 @ 00003234 */]
label0000104E:
0000104E  526D ED72                addq.w     [A5 - 0x128E], 1
00001052  5347                     subq.w     D7, 1
00001054  66D8                     bne        -0x26 /* 0000102E */
00001056  2E1F                     move.l     D7, [A7]+
00001058  4E75                     rts
export_18:
0000105A  4EAD 0A2A                jsr        [A5 + 0xA2A /* export_321, CODE:5 @ 00003318 */]
0000105E  4267                     clr.w      -[A7]
00001060  1F3C 0080                move.b     -[A7], 0x80
00001064  4EAD 099A                jsr        [A5 + 0x99A /* export_303, CODE:5 @ 00003392 */]
00001068  4EAD 0982                jsr        [A5 + 0x982 /* export_300, CODE:5 @ 00003234 */]
0000106C  4E75                     rts
export_19:
0000106E  4EAD 0A2A                jsr        [A5 + 0xA2A /* export_321, CODE:5 @ 00003318 */]
00001072  4267                     clr.w      -[A7]
00001074  3F2D ED72                move.w     -[A7], [A5 - 0x128E]
00001078  4EAD 098A                jsr        [A5 + 0x98A /* export_301, CODE:5 @ 0000311C */]
0000107C  7001                     moveq.l    D0, 0x01
0000107E  D05F                     add.w      D0, [A7]+
00001080  3F00                     move.w     -[A7], D0
00001082  4EAD 0982                jsr        [A5 + 0x982 /* export_300, CODE:5 @ 00003234 */]
00001086  4E75                     rts
export_20:
00001088  4EAD 0A2A                jsr        [A5 + 0xA2A /* export_321, CODE:5 @ 00003318 */]
0000108C  4267                     clr.w      -[A7]
0000108E  3F2D ED72                move.w     -[A7], [A5 - 0x128E]
00001092  4EAD 098A                jsr        [A5 + 0x98A /* export_301, CODE:5 @ 0000311C */]
00001096  70FF                     moveq.l    D0, 0xFFFFFFFF
00001098  D05F                     add.w      D0, [A7]+
0000109A  3F00                     move.w     -[A7], D0
0000109C  4EAD 0982                jsr        [A5 + 0x982 /* export_300, CODE:5 @ 00003234 */]
000010A0  4E75                     rts
export_21:
000010A2  2F07                     move.l     -[A7], D7
000010A4  4EAD 0A2A                jsr        [A5 + 0xA2A /* export_321, CODE:5 @ 00003318 */]
000010A8  4267                     clr.w      -[A7]
000010AA  1F3C 0080                move.b     -[A7], 0x80
000010AE  4EAD 099A                jsr        [A5 + 0x99A /* export_303, CODE:5 @ 00003392 */]
000010B2  3E1F                     move.w     D7, [A7]+
000010B4  6718                     beq        +0x1A /* 000010CE */
000010B6  4267                     clr.w      -[A7]
000010B8  3F2D ED72                move.w     -[A7], [A5 - 0x128E]
000010BC  4EAD 098A                jsr        [A5 + 0x98A /* export_301, CODE:5 @ 0000311C */]
000010C0  305F                     movea.w    A0, [A7]+
000010C2  2008                     move.l     D0, A0
000010C4  81C7                     divs.w     D0, D7
000010C6  3F00                     move.w     -[A7], D0
000010C8  4EAD 0982                jsr        [A5 + 0x982 /* export_300, CODE:5 @ 00003234 */]
000010CC  6012                     bra        +0x14 /* 000010E0 */
label000010CE:
000010CE  2F3C 0000 00C3           move.l     -[A7], 0xC3
000010D4  4EAD 0A42                jsr        [A5 + 0xA42 /* export_324, CODE:5 @ 000034B4 */]
000010D8  4257                     clr.w      [A7]
000010DA  4EAD 0982                jsr        [A5 + 0x982 /* export_300, CODE:5 @ 00003234 */]
000010DE  548F                     addq.l     A7, 2
label000010E0:
000010E0  2E1F                     move.l     D7, [A7]+
000010E2  4E75                     rts
export_22:
000010E4  4E56 FFFE                link       A6, -0x0002
000010E8  4EAD 0A2A                jsr        [A5 + 0xA2A /* export_321, CODE:5 @ 00003318 */]
000010EC  4267                     clr.w      -[A7]
000010EE  3F2D ED72                move.w     -[A7], [A5 - 0x128E]
000010F2  4EAD 098A                jsr        [A5 + 0x98A /* export_301, CODE:5 @ 0000311C */]
000010F6  3D5F FFFE                move.w     [A6 - 0x2], [A7]+
000010FA  4267                     clr.w      -[A7]
000010FC  1F3C 0080                move.b     -[A7], 0x80
00001100  4EAD 099A                jsr        [A5 + 0x99A /* export_303, CODE:5 @ 00003392 */]
00001104  302E FFFE                move.w     D0, [A6 - 0x2]
00001108  C1DF                     muls.w     D0, [A7]+
0000110A  3F00                     move.w     -[A7], D0
0000110C  4EAD 0982                jsr        [A5 + 0x982 /* export_300, CODE:5 @ 00003234 */]
00001110  4E5E                     unlink     A6
00001112  4E75                     rts
export_23:
00001114  4E56 FFFE                link       A6, -0x0002
00001118  4EAD 0A2A                jsr        [A5 + 0xA2A /* export_321, CODE:5 @ 00003318 */]
0000111C  4267                     clr.w      -[A7]
0000111E  3F2D ED72                move.w     -[A7], [A5 - 0x128E]
00001122  4EAD 098A                jsr        [A5 + 0x98A /* export_301, CODE:5 @ 0000311C */]
00001126  3D5F FFFE                move.w     [A6 - 0x2], [A7]+
0000112A  4267                     clr.w      -[A7]
0000112C  1F3C 0080                move.b     -[A7], 0x80
00001130  4EAD 099A                jsr        [A5 + 0x99A /* export_303, CODE:5 @ 00003392 */]
00001134  302E FFFE                move.w     D0, [A6 - 0x2]
00001138  D05F                     add.w      D0, [A7]+
0000113A  3F00                     move.w     -[A7], D0
0000113C  4EAD 0982                jsr        [A5 + 0x982 /* export_300, CODE:5 @ 00003234 */]
00001140  4E5E                     unlink     A6
00001142  4E75                     rts
export_24:
00001144  4E56 FFFE                link       A6, -0x0002
00001148  4EAD 0A2A                jsr        [A5 + 0xA2A /* export_321, CODE:5 @ 00003318 */]
0000114C  4267                     clr.w      -[A7]
0000114E  3F2D ED72                move.w     -[A7], [A5 - 0x128E]
00001152  4EAD 098A                jsr        [A5 + 0x98A /* export_301, CODE:5 @ 0000311C */]
00001156  3D5F FFFE                move.w     [A6 - 0x2], [A7]+
0000115A  4267                     clr.w      -[A7]
0000115C  1F3C 0080                move.b     -[A7], 0x80
00001160  4EAD 099A                jsr        [A5 + 0x99A /* export_303, CODE:5 @ 00003392 */]
00001164  302E FFFE                move.w     D0, [A6 - 0x2]
00001168  C05F                     and.w      D0, [A7]+
0000116A  3F00                     move.w     -[A7], D0
0000116C  4EAD 0982                jsr        [A5 + 0x982 /* export_300, CODE:5 @ 00003234 */]
00001170  4E5E                     unlink     A6
00001172  4E75                     rts
export_25:
00001174  4E56 FFFE                link       A6, -0x0002
00001178  4EAD 0A2A                jsr        [A5 + 0xA2A /* export_321, CODE:5 @ 00003318 */]
0000117C  4267                     clr.w      -[A7]
0000117E  3F2D ED72                move.w     -[A7], [A5 - 0x128E]
00001182  4EAD 098A                jsr        [A5 + 0x98A /* export_301, CODE:5 @ 0000311C */]
00001186  3D5F FFFE                move.w     [A6 - 0x2], [A7]+
0000118A  4267                     clr.w      -[A7]
0000118C  1F3C 0080                move.b     -[A7], 0x80
00001190  4EAD 099A                jsr        [A5 + 0x99A /* export_303, CODE:5 @ 00003392 */]
00001194  302E FFFE                move.w     D0, [A6 - 0x2]
00001198  805F                     or.w       D0, [A7]+
0000119A  3F00                     move.w     -[A7], D0
0000119C  4EAD 0982                jsr        [A5 + 0x982 /* export_300, CODE:5 @ 00003234 */]
000011A0  4E5E                     unlink     A6
000011A2  4E75                     rts
export_26:
000011A4  4E56 FFFE                link       A6, -0x0002
000011A8  4EAD 0A2A                jsr        [A5 + 0xA2A /* export_321, CODE:5 @ 00003318 */]
000011AC  4267                     clr.w      -[A7]
000011AE  3F2D ED72                move.w     -[A7], [A5 - 0x128E]
000011B2  4EAD 098A                jsr        [A5 + 0x98A /* export_301, CODE:5 @ 0000311C */]
000011B6  3D5F FFFE                move.w     [A6 - 0x2], [A7]+
000011BA  4267                     clr.w      -[A7]
000011BC  1F3C 0080                move.b     -[A7], 0x80
000011C0  4EAD 099A                jsr        [A5 + 0x99A /* export_303, CODE:5 @ 00003392 */]
000011C4  302E FFFE                move.w     D0, [A6 - 0x2]
000011C8  905F                     sub.w      D0, [A7]+
000011CA  3F00                     move.w     -[A7], D0
000011CC  4EAD 0982                jsr        [A5 + 0x982 /* export_300, CODE:5 @ 00003234 */]
000011D0  4E5E                     unlink     A6
000011D2  4E75                     rts
export_27:
000011D4  4267                     clr.w      -[A7]
000011D6  4EAD 09A2                jsr        [A5 + 0x9A2 /* export_304, CODE:5 @ 00002914 */]
000011DA  3F00                     move.w     -[A7], D0
000011DC  4EAD 098A                jsr        [A5 + 0x98A /* export_301, CODE:5 @ 0000311C */]
000011E0  4A5F                     tst.w      [A7]+
000011E2  6706                     beq        +0x8 /* 000011EA */
000011E4  4EBA FCD4                jsr        [PC - 0x32C /* 00000EBA */]
000011E8  6004                     bra        +0x6 /* 000011EE */
label000011EA:
000011EA  4EAD 09D2                jsr        [A5 + 0x9D2 /* export_310, CODE:5 @ 00002A00 */]
label000011EE:
000011EE  4E75                     rts
export_28:
000011F0  4267                     clr.w      -[A7]
000011F2  4EAD 09A2                jsr        [A5 + 0x9A2 /* export_304, CODE:5 @ 00002914 */]
000011F6  3F00                     move.w     -[A7], D0
000011F8  4EAD 098A                jsr        [A5 + 0x98A /* export_301, CODE:5 @ 0000311C */]
000011FC  4A5F                     tst.w      [A7]+
000011FE  6606                     bne        +0x8 /* 00001206 */
00001200  4EBA FCB8                jsr        [PC - 0x348 /* 00000EBA */]
00001204  6004                     bra        +0x6 /* 0000120A */
label00001206:
00001206  4EAD 09D2                jsr        [A5 + 0x9D2 /* export_310, CODE:5 @ 00002A00 */]
label0000120A:
0000120A  4E75                     rts
export_29:
0000120C  48E7 0300                movem.l    -[A7], D6,D7
00001210  4267                     clr.w      -[A7]
00001212  4EAD 09A2                jsr        [A5 + 0x9A2 /* export_304, CODE:5 @ 00002914 */]
00001216  3F00                     move.w     -[A7], D0
00001218  4EAD 098A                jsr        [A5 + 0x98A /* export_301, CODE:5 @ 0000311C */]
0000121C  3E1F                     move.w     D7, [A7]+
0000121E  4267                     clr.w      -[A7]
00001220  1F3C 0080                move.b     -[A7], 0x80
00001224  4EAD 099A                jsr        [A5 + 0x99A /* export_303, CODE:5 @ 00003392 */]
00001228  3C1F                     move.w     D6, [A7]+
0000122A  BC47                     cmp.w      D6, D7
0000122C  6F06                     ble        +0x8 /* 00001234 */
0000122E  4EBA FC8A                jsr        [PC - 0x376 /* 00000EBA */]
00001232  6004                     bra        +0x6 /* 00001238 */
label00001234:
00001234  4EAD 09D2                jsr        [A5 + 0x9D2 /* export_310, CODE:5 @ 00002A00 */]
label00001238:
00001238  4CDF 00C0                movem.l    D6,D7, [A7]+
0000123C  4E75                     rts
export_30:
0000123E  4E56 FFFE                link       A6, -0x0002
00001242  2F07                     move.l     -[A7], D7
00001244  4267                     clr.w      -[A7]
00001246  4EAD 09A2                jsr        [A5 + 0x9A2 /* export_304, CODE:5 @ 00002914 */]
0000124A  3F00                     move.w     -[A7], D0
0000124C  4EAD 098A                jsr        [A5 + 0x98A /* export_301, CODE:5 @ 0000311C */]
00001250  3E1F                     move.w     D7, [A7]+
00001252  4267                     clr.w      -[A7]
00001254  1F3C 0080                move.b     -[A7], 0x80
00001258  4EAD 099A                jsr        [A5 + 0x99A /* export_303, CODE:5 @ 00003392 */]
0000125C  BE5F                     cmp.w      D7, [A7]+
0000125E  6F06                     ble        +0x8 /* 00001266 */
00001260  4EBA FC58                jsr        [PC - 0x3A8 /* 00000EBA */]
00001264  6004                     bra        +0x6 /* 0000126A */
label00001266:
00001266  4EAD 09D2                jsr        [A5 + 0x9D2 /* export_310, CODE:5 @ 00002A00 */]
label0000126A:
0000126A  2E1F                     move.l     D7, [A7]+
0000126C  4E5E                     unlink     A6
0000126E  4E75                     rts
export_31:
00001270  2F07                     move.l     -[A7], D7
00001272  4267                     clr.w      -[A7]
00001274  4EAD 09A2                jsr        [A5 + 0x9A2 /* export_304, CODE:5 @ 00002914 */]
00001278  3F00                     move.w     -[A7], D0
0000127A  4EAD 098A                jsr        [A5 + 0x98A /* export_301, CODE:5 @ 0000311C */]
0000127E  3E1F                     move.w     D7, [A7]+
00001280  4267                     clr.w      -[A7]
00001282  1F3C 0080                move.b     -[A7], 0x80
00001286  4EAD 099A                jsr        [A5 + 0x99A /* export_303, CODE:5 @ 00003392 */]
0000128A  BE5F                     cmp.w      D7, [A7]+
0000128C  6E06                     bgt        +0x8 /* 00001294 */
0000128E  4EBA FC2A                jsr        [PC - 0x3D6 /* 00000EBA */]
00001292  6004                     bra        +0x6 /* 00001298 */
label00001294:
00001294  4EAD 09D2                jsr        [A5 + 0x9D2 /* export_310, CODE:5 @ 00002A00 */]
label00001298:
00001298  2E1F                     move.l     D7, [A7]+
0000129A  4E75                     rts
export_32:
0000129C  48E7 0300                movem.l    -[A7], D6,D7
000012A0  4267                     clr.w      -[A7]
000012A2  4EAD 09A2                jsr        [A5 + 0x9A2 /* export_304, CODE:5 @ 00002914 */]
000012A6  3F00                     move.w     -[A7], D0
000012A8  4EAD 098A                jsr        [A5 + 0x98A /* export_301, CODE:5 @ 0000311C */]
000012AC  3E1F                     move.w     D7, [A7]+
000012AE  4267                     clr.w      -[A7]
000012B0  1F3C 0080                move.b     -[A7], 0x80
000012B4  4EAD 099A                jsr        [A5 + 0x99A /* export_303, CODE:5 @ 00003392 */]
000012B8  3C1F                     move.w     D6, [A7]+
000012BA  BC47                     cmp.w      D6, D7
000012BC  6E06                     bgt        +0x8 /* 000012C4 */
000012BE  4EBA FBFA                jsr        [PC - 0x406 /* 00000EBA */]
000012C2  6004                     bra        +0x6 /* 000012C8 */
label000012C4:
000012C4  4EAD 09D2                jsr        [A5 + 0x9D2 /* export_310, CODE:5 @ 00002A00 */]
label000012C8:
000012C8  4CDF 00C0                movem.l    D6,D7, [A7]+
000012CC  4E75                     rts
export_33:
000012CE  2F07                     move.l     -[A7], D7
000012D0  4267                     clr.w      -[A7]
000012D2  4EAD 09A2                jsr        [A5 + 0x9A2 /* export_304, CODE:5 @ 00002914 */]
000012D6  3F00                     move.w     -[A7], D0
000012D8  4EAD 098A                jsr        [A5 + 0x98A /* export_301, CODE:5 @ 0000311C */]
000012DC  3E1F                     move.w     D7, [A7]+
000012DE  4267                     clr.w      -[A7]
000012E0  1F3C 0080                move.b     -[A7], 0x80
000012E4  4EAD 099A                jsr        [A5 + 0x99A /* export_303, CODE:5 @ 00003392 */]
000012E8  BE5F                     cmp.w      D7, [A7]+
000012EA  6606                     bne        +0x8 /* 000012F2 */
000012EC  4EBA FBCC                jsr        [PC - 0x434 /* 00000EBA */]
000012F0  6004                     bra        +0x6 /* 000012F6 */
label000012F2:
000012F2  4EAD 09D2                jsr        [A5 + 0x9D2 /* export_310, CODE:5 @ 00002A00 */]
label000012F6:
000012F6  2E1F                     move.l     D7, [A7]+
000012F8  4E75                     rts
export_34:
000012FA  2F07                     move.l     -[A7], D7
000012FC  4267                     clr.w      -[A7]
000012FE  4EAD 09A2                jsr        [A5 + 0x9A2 /* export_304, CODE:5 @ 00002914 */]
00001302  3F00                     move.w     -[A7], D0
00001304  4EAD 098A                jsr        [A5 + 0x98A /* export_301, CODE:5 @ 0000311C */]
00001308  3E1F                     move.w     D7, [A7]+
0000130A  4267                     clr.w      -[A7]
0000130C  1F3C 0080                move.b     -[A7], 0x80
00001310  4EAD 099A                jsr        [A5 + 0x99A /* export_303, CODE:5 @ 00003392 */]
00001314  BE5F                     cmp.w      D7, [A7]+
00001316  6706                     beq        +0x8 /* 0000131E */
00001318  4EBA FBA0                jsr        [PC - 0x460 /* 00000EBA */]
0000131C  6004                     bra        +0x6 /* 00001322 */
label0000131E:
0000131E  4EAD 09D2                jsr        [A5 + 0x9D2 /* export_310, CODE:5 @ 00002A00 */]
label00001322:
00001322  2E1F                     move.l     D7, [A7]+
00001324  4E75                     rts
export_35:
00001326  4267                     clr.w      -[A7]
00001328  1F3C 0080                move.b     -[A7], 0x80
0000132C  4EAD 099A                jsr        [A5 + 0x99A /* export_303, CODE:5 @ 00003392 */]
00001330  4EAD 09EA                jsr        [A5 + 0x9EA /* export_313, CODE:5 @ 00002C02 */]
00001334  548F                     addq.l     A7, 2
00001336  4E75                     rts
export_36:
00001338  2F07                     move.l     -[A7], D7
0000133A  4267                     clr.w      -[A7]
0000133C  3F3C 0080                move.w     -[A7], 0x80
00001340  4EAD 0992                jsr        [A5 + 0x992 /* export_302, CODE:5 @ 0000335E */]
00001344  3E1F                     move.w     D7, [A7]+
00001346  4A47                     tst.w      D7
00001348  6606                     bne        +0x8 /* 00001350 */
0000134A  4EBA FB80                jsr        [PC - 0x480 /* 00000ECC */]
0000134E  6008                     bra        +0xA /* 00001358 */
label00001350:
00001350  3F07                     move.w     -[A7], D7
00001352  4EAD 09E2                jsr        [A5 + 0x9E2 /* export_312, CODE:5 @ 00002B34 */]
00001356  548F                     addq.l     A7, 2
label00001358:
00001358  2E1F                     move.l     D7, [A7]+
0000135A  4E75                     rts
export_37:
0000135C  4E56 FFE0                link       A6, -0x0020
00001360  48E7 0300                movem.l    -[A7], D6,D7
00001364  4267                     clr.w      -[A7]
00001366  1F3C 0080                move.b     -[A7], 0x80
0000136A  4EAD 099A                jsr        [A5 + 0x99A /* export_303, CODE:5 @ 00003392 */]
0000136E  3E1F                     move.w     D7, [A7]+
00001370  4267                     clr.w      -[A7]
00001372  3F3C 0040                move.w     -[A7], 0x40 /* '@' */
00001376  4EAD 0992                jsr        [A5 + 0x992 /* export_302, CODE:5 @ 0000335E */]
0000137A  3C1F                     move.w     D6, [A7]+
0000137C  486E FFE0                pea.l      [A6 - 0x20]
00001380  4EAD 0A32                jsr        [A5 + 0xA32 /* export_322, CODE:5 @ 000033C6 */]
00001384  486E FFE0                pea.l      [A6 - 0x20]
00001388  42A7                     clr.l      -[A7]
0000138A  3F06                     move.w     -[A7], D6
0000138C  3F07                     move.w     -[A7], D7
0000138E  4EAD 09FA                jsr        [A5 + 0x9FA /* export_315, CODE:5 @ 00002DE2 */]
00001392  4CEE 00C0 FFD8           movem.l    D6,D7, [A6 - 0x28]
00001398  4E5E                     unlink     A6
0000139A  4E75                     rts
export_38:
0000139C  4E56 FFE0                link       A6, -0x0020
000013A0  48E7 0F00                movem.l    -[A7], D4,D5,D6,D7
000013A4  7E00                     moveq.l    D7, 0x00
000013A6  1E2D ED6C                move.b     D7, [A5 - 0x1294]
000013AA  4267                     clr.w      -[A7]
000013AC  3F3C 0080                move.w     -[A7], 0x80
000013B0  4EAD 0992                jsr        [A5 + 0x992 /* export_302, CODE:5 @ 0000335E */]
000013B4  3C1F                     move.w     D6, [A7]+
000013B6  486E FFE0                pea.l      [A6 - 0x20]
000013BA  4EAD 0A32                jsr        [A5 + 0xA32 /* export_322, CODE:5 @ 000033C6 */]
000013BE  7800                     moveq.l    D4, 0x00
000013C0  1A04                     move.b     D5, D4
000013C2  0807 0006                btst.b     D7, 0x6
000013C6  588F                     addq.l     A7, 4
000013C8  6702                     beq        +0x4 /* 000013CC */
000013CA  7A01                     moveq.l    D5, 0x01
label000013CC:
000013CC  0807 0005                btst.b     D7, 0x5
000013D0  6702                     beq        +0x4 /* 000013D4 */
000013D2  7801                     moveq.l    D4, 0x01
label000013D4:
000013D4  486E FFE0                pea.l      [A6 - 0x20]
000013D8  7000                     moveq.l    D0, 0x00
000013DA  1005                     move.b     D0, D5
000013DC  3F00                     move.w     -[A7], D0
000013DE  7000                     moveq.l    D0, 0x00
000013E0  1004                     move.b     D0, D4
000013E2  3F00                     move.w     -[A7], D0
000013E4  3F06                     move.w     -[A7], D6
000013E6  4EAD 0A02                jsr        [A5 + 0xA02 /* export_316, CODE:5 @ 00002ED2 */]
000013EA  4CEE 00F0 FFD0           movem.l    D4,D5,D6,D7, [A6 - 0x30]
000013F0  4E5E                     unlink     A6
000013F2  4E75                     rts
export_39:
000013F4  4E56 FFE0                link       A6, -0x0020
000013F8  48E7 0308                movem.l    -[A7], D6,D7,A4
000013FC  4267                     clr.w      -[A7]
000013FE  3F3C 0080                move.w     -[A7], 0x80
00001402  4EAD 0992                jsr        [A5 + 0x992 /* export_302, CODE:5 @ 0000335E */]
00001406  3E1F                     move.w     D7, [A7]+
00001408  486E FFE0                pea.l      [A6 - 0x20]
0000140C  4EAD 0A32                jsr        [A5 + 0xA32 /* export_322, CODE:5 @ 000033C6 */]
00001410  7C00                     moveq.l    D6, 0x00
00001412  1C2D C702                move.b     D6, [A5 - 0x38FE]
00001416  7012                     moveq.l    D0, 0x12
00001418  C0C6                     mulu.w     D0, D6
0000141A  49ED C59A                lea.l      A4, [A5 - 0x3A66]
0000141E  D08C                     add.l      D0, A4
00001420  2840                     movea.l    A4, D0
00001422  4A2C 0010                tst.b      [A4 + 0x10]
00001426  588F                     addq.l     A7, 4
00001428  6710                     beq        +0x12 /* 0000143A */
0000142A  3F2C 0008                move.w     -[A7], [A4 + 0x8]
0000142E  2F3C 0000 00D3           move.l     -[A7], 0xD3
00001434  4EAD 0A42                jsr        [A5 + 0xA42 /* export_324, CODE:5 @ 000034B4 */]
00001438  5C8F                     addq.l     A7, 6
label0000143A:
0000143A  426C 0008                clr.w      [A4 + 0x8]
0000143E  422C 000A                clr.b      [A4 + 0xA]
00001442  1B7C 00FF C702           move.b     [A5 - 0x38FE], 0xFF
00001448  486E FFE0                pea.l      [A6 - 0x20]
0000144C  7000                     moveq.l    D0, 0x00
0000144E  102C 000D                move.b     D0, [A4 + 0xD]
00001452  3F00                     move.w     -[A7], D0
00001454  7000                     moveq.l    D0, 0x00
00001456  102C 000C                move.b     D0, [A4 + 0xC]
0000145A  3F00                     move.w     -[A7], D0
0000145C  3F07                     move.w     -[A7], D7
0000145E  4EAD 0A02                jsr        [A5 + 0xA02 /* export_316, CODE:5 @ 00002ED2 */]
00001462  4CEE 10C0 FFD4           movem.l    D6,D7,A4, [A6 - 0x2C]
00001468  4E5E                     unlink     A6
0000146A  4E75                     rts
export_40:
0000146C  48E7 0308                movem.l    -[A7], D6,D7,A4
00001470  4267                     clr.w      -[A7]
00001472  3F3C 0080                move.w     -[A7], 0x80
00001476  4EAD 0992                jsr        [A5 + 0x992 /* export_302, CODE:5 @ 0000335E */]
0000147A  3E1F                     move.w     D7, [A7]+
0000147C  4267                     clr.w      -[A7]
0000147E  3F3C 0040                move.w     -[A7], 0x40 /* '@' */
00001482  4EAD 0992                jsr        [A5 + 0x992 /* export_302, CODE:5 @ 0000335E */]
00001486  3C1F                     move.w     D6, [A7]+
00001488  3847                     movea.w    A4, D7
0000148A  D9CC                     add.l      A4, A4
0000148C  41ED D3CA                lea.l      A0, [A5 - 0x2C36]
00001490  D1CC                     add.l      A0, A4
00001492  3F10                     move.w     -[A7], [A0]
00001494  41ED D3B0                lea.l      A0, [A5 - 0x2C50]
00001498  D1CC                     add.l      A0, A4
0000149A  3F10                     move.w     -[A7], [A0]
0000149C  3F06                     move.w     -[A7], D6
0000149E  4EAD 053A                jsr        [A5 + 0x53A /* export_163, CODE:3 @ 00001100 */]
000014A2  4A40                     tst.w      D0
000014A4  5C8F                     addq.l     A7, 6
000014A6  6606                     bne        +0x8 /* 000014AE */
000014A8  4EBA FA10                jsr        [PC - 0x5F0 /* 00000EBA */]
000014AC  6004                     bra        +0x6 /* 000014B2 */
label000014AE:
000014AE  4EAD 09D2                jsr        [A5 + 0x9D2 /* export_310, CODE:5 @ 00002A00 */]
label000014B2:
000014B2  4CDF 10C0                movem.l    D6,D7,A4, [A7]+
000014B6  4E75                     rts
export_41:
000014B8  4EAD 0A2A                jsr        [A5 + 0xA2A /* export_321, CODE:5 @ 00003318 */]
000014BC  4267                     clr.w      -[A7]
000014BE  1F3C 0080                move.b     -[A7], 0x80
000014C2  4EAD 099A                jsr        [A5 + 0x99A /* export_303, CODE:5 @ 00003392 */]
000014C6  4EAD 0762                jsr        [A5 + 0x762 /* export_232, CODE:4 @ 00005C60 */]
000014CA  3E80                     move.w     [A7], D0
000014CC  4EAD 0982                jsr        [A5 + 0x982 /* export_300, CODE:5 @ 00003234 */]
000014D0  4E75                     rts
fn000014D2:
000014D2  4E56 0000                link       A6, 0
000014D6  48E7 0108                movem.l    -[A7], D7,A4
000014DA  7E01                     moveq.l    D7, 0x01
000014DC  49ED B2F2                lea.l      A4, [A5 - 0x4D0E]
000014E0  6038                     bra        +0x3A /* 0000151A */
label000014E2:
000014E2  302E 0008                move.w     D0, [A6 + 0x8]
000014E6  B06C 000C                cmp.w      D0, [A4 + 0xC]
000014EA  6628                     bne        +0x2A /* 00001514 */
000014EC  7E00                     moveq.l    D7, 0x00
000014EE  6012                     bra        +0x14 /* 00001502 */
label000014F0:
000014F0  7000                     moveq.l    D0, 0x00
000014F2  102C 000E                move.b     D0, [A4 + 0xE]
000014F6  D047                     add.w      D0, D7
000014F8  0075 8000 0320 EDFA      ori.w      [A5 - 0x1206 + D0 * 2], 0x8000
00001500  5247                     addq.w     D7, 1
label00001502:
00001502  7000                     moveq.l    D0, 0x00
00001504  102C 0010                move.b     D0, [A4 + 0x10]
00001508  B047                     cmp.w      D0, D7
0000150A  6EE4                     bgt        -0x1A /* 000014F0 */
0000150C  3B7C 0001 EDF8           move.w     [A5 - 0x1208], 0x1
00001512  6010                     bra        +0x12 /* 00001524 */
label00001514:
00001514  5247                     addq.w     D7, 1
00001516  49EC 0018                lea.l      A4, [A4 + 0x18]
label0000151A:
0000151A  7000                     moveq.l    D0, 0x00
0000151C  102D B2D8                move.b     D0, [A5 - 0x4D28]
00001520  B047                     cmp.w      D0, D7
00001522  6CBE                     bge        -0x40 /* 000014E2 */
label00001524:
00001524  4CDF 1080                movem.l    D7,A4, [A7]+
00001528  4E5E                     unlink     A6
0000152A  4E75                     rts
export_42:
0000152C  2F07                     move.l     -[A7], D7
0000152E  4267                     clr.w      -[A7]
00001530  1F3C 0080                move.b     -[A7], 0x80
00001534  4EAD 099A                jsr        [A5 + 0x99A /* export_303, CODE:5 @ 00003392 */]
00001538  3E1F                     move.w     D7, [A7]+
0000153A  4267                     clr.w      -[A7]
0000153C  3F3C 0040                move.w     -[A7], 0x40 /* '@' */
00001540  4EAD 0992                jsr        [A5 + 0x992 /* export_302, CODE:5 @ 0000335E */]
00001544  3F07                     move.w     -[A7], D7
00001546  4EAD 076A                jsr        [A5 + 0x76A /* export_233, CODE:4 @ 00005C96 */]
0000154A  3E87                     move.w     [A7], D7
0000154C  4EBA FF84                jsr        [PC - 0x7C /* 000014D2 */]
00001550  4A6D EDF8                tst.w      [A5 - 0x1208]
00001554  588F                     addq.l     A7, 4
00001556  6704                     beq        +0x6 /* 0000155C */
00001558  4EAD 07D2                jsr        [A5 + 0x7D2 /* export_246, CODE:4 @ 000068A8 */]
label0000155C:
0000155C  2E1F                     move.l     D7, [A7]+
0000155E  4E75                     rts
export_43:
00001560  4E56 FFFE                link       A6, -0x0002
00001564  48E7 1F38                movem.l    -[A7], D3,D4,D5,D6,D7,A2,A3,A4
00001568  7E01                     moveq.l    D7, 0x01
0000156A  3B7C 00FF ECAC           move.w     [A5 - 0x1354], 0xFF
00001570  3B7C 00FF ECAE           move.w     [A5 - 0x1352], 0xFF
00001576  4267                     clr.w      -[A7]
00001578  1F3C 0080                move.b     -[A7], 0x80
0000157C  4EAD 099A                jsr        [A5 + 0x99A /* export_303, CODE:5 @ 00003392 */]
00001580  3C1F                     move.w     D6, [A7]+
00001582  4EAD 09AA                jsr        [A5 + 0x9AA /* export_305, CODE:5 @ 000028E0 */]
00001586  1B40 ED6C                move.b     [A5 - 0x1294], D0
0000158A  7200                     moveq.l    D1, 0x00
0000158C  1200                     move.b     D1, D0
0000158E  0241 001F                andi.w     D1, 0x1F
00001592  673C                     beq        +0x3E /* 000015D0 */
00001594  6B3A                     bmi        +0x3C /* 000015D0 */
00001596  0441 00FF                subi.w     D1, 0xFF
0000159A  6734                     beq        +0x36 /* 000015D0 */
0000159C  6A32                     bpl        +0x34 /* 000015D0 */
0000159E  0441 FF03                subi.w     D1, 0xFF03
000015A2  6720                     beq        +0x22 /* 000015C4 */
000015A4  6A2A                     bpl        +0x2C /* 000015D0 */
000015A6  4267                     clr.w      -[A7]
000015A8  1F3C 0080                move.b     -[A7], 0x80
000015AC  4EAD 099A                jsr        [A5 + 0x99A /* export_303, CODE:5 @ 00003392 */]
000015B0  3B5F ECAC                move.w     [A5 - 0x1354], [A7]+
000015B4  4267                     clr.w      -[A7]
000015B6  1F3C 0040                move.b     -[A7], 0x40 /* '@' */
000015BA  4EAD 099A                jsr        [A5 + 0x99A /* export_303, CODE:5 @ 00003392 */]
000015BE  3B5F ECAE                move.w     [A5 - 0x1352], [A7]+
000015C2  600C                     bra        +0xE /* 000015D0 */
label000015C4:
000015C4  4267                     clr.w      -[A7]
000015C6  1F3C 0080                move.b     -[A7], 0x80
000015CA  4EAD 099A                jsr        [A5 + 0x99A /* export_303, CODE:5 @ 00003392 */]
000015CE  3E1F                     move.w     D7, [A7]+
label000015D0:
000015D0  3F06                     move.w     -[A7], D6
000015D2  4EAD 079A                jsr        [A5 + 0x79A /* export_239, CODE:4 @ 000060F8 */]
000015D6  3A00                     move.w     D5, D0
000015D8  5240                     addq.w     D0, 1
000015DA  548F                     addq.l     A7, 2
000015DC  6700 00E8                beq        +0xEA /* 000016C6 */
000015E0  0C6D 00FF ECAC           cmpi.w     [A5 - 0x1354], 0xFF
000015E6  6764                     beq        +0x66 /* 0000164C */
000015E8  7018                     moveq.l    D0, 0x18
000015EA  C1C5                     muls.w     D0, D5
000015EC  49ED B2E2                lea.l      A4, [A5 - 0x4D1E]
000015F0  D08C                     add.l      D0, A4
000015F2  2840                     movea.l    A4, D0
000015F4  7018                     moveq.l    D0, 0x18
000015F6  C1C5                     muls.w     D0, D5
000015F8  47ED B2E8                lea.l      A3, [A5 - 0x4D18]
000015FC  D08B                     add.l      D0, A3
000015FE  2640                     movea.l    A3, D0
00001600  7018                     moveq.l    D0, 0x18
00001602  C1C5                     muls.w     D0, D5
00001604  45ED B2DA                lea.l      A2, [A5 - 0x4D26]
00001608  D08A                     add.l      D0, A2
0000160A  2440                     movea.l    A2, D0
0000160C  7000                     moveq.l    D0, 0x00
0000160E  1013                     move.b     D0, [A3]
00001610  E748                     lsl        D0.w, 3
00001612  3214                     move.w     D1, [A4]
00001614  9240                     sub.w      D1, D0
00001616  302D ECAC                move.w     D0, [A5 - 0x1354]
0000161A  E748                     lsl        D0.w, 3
0000161C  D240                     add.w      D1, D0
0000161E  3881                     move.w     [A4], D1
00001620  16AD ECAD                move.b     [A3], [A5 - 0x1353]
00001624  7018                     moveq.l    D0, 0x18
00001626  C1C5                     muls.w     D0, D5
00001628  49ED B2E9                lea.l      A4, [A5 - 0x4D17]
0000162C  D08C                     add.l      D0, A4
0000162E  2840                     movea.l    A4, D0
00001630  7000                     moveq.l    D0, 0x00
00001632  1014                     move.b     D0, [A4]
00001634  E748                     lsl        D0.w, 3
00001636  322A 000A                move.w     D1, [A2 + 0xA]
0000163A  9240                     sub.w      D1, D0
0000163C  302D ECAE                move.w     D0, [A5 - 0x1352]
00001640  E748                     lsl        D0.w, 3
00001642  D240                     add.w      D1, D0
00001644  3541 000A                move.w     [A2 + 0xA], D1
00001648  18AD ECAF                move.b     [A4], [A5 - 0x1351]
label0000164C:
0000164C  3F05                     move.w     -[A7], D5
0000164E  4EAD 07DA                jsr        [A5 + 0x7DA /* export_247, CODE:4 @ 000068AE */]
00001652  7018                     moveq.l    D0, 0x18
00001654  C1C5                     muls.w     D0, D5
00001656  45ED B2DA                lea.l      A2, [A5 - 0x4D26]
0000165A  D08A                     add.l      D0, A2
0000165C  2440                     movea.l    A2, D0
0000165E  182A 000E                move.b     D4, [A2 + 0xE]
00001662  7018                     moveq.l    D0, 0x18
00001664  C1C5                     muls.w     D0, D5
00001666  1D75 0920 B2E9 FFFE      move.b     [A6 - 0x2], [A5 - 0x4D17 + D0]
0000166E  1A2A 0010                move.b     D5, [A2 + 0x10]
00001672  1D6A 0011 FFFF           move.b     [A6 - 0x1], [A2 + 0x11]
00001678  7600                     moveq.l    D3, 0x00
0000167A  162D B2D8                move.b     D3, [A5 - 0x4D28]
0000167E  548F                     addq.l     A7, 2
label00001680:
00001680  7018                     moveq.l    D0, 0x18
00001682  C0C3                     mulu.w     D0, D3
00001684  49ED B2DA                lea.l      A4, [A5 - 0x4D26]
00001688  D08C                     add.l      D0, A4
0000168A  2840                     movea.l    A4, D0
0000168C  B82C 000E                cmp.b      D4, [A4 + 0xE]
00001690  6626                     bne        +0x28 /* 000016B8 */
00001692  102C 000F                move.b     D0, [A4 + 0xF]
00001696  B02E FFFE                cmp.b      D0, [A6 - 0x2]
0000169A  661C                     bne        +0x1E /* 000016B8 */
0000169C  BA2C 0010                cmp.b      D5, [A4 + 0x10]
000016A0  6616                     bne        +0x18 /* 000016B8 */
000016A2  102C 0011                move.b     D0, [A4 + 0x11]
000016A6  B02E FFFF                cmp.b      D0, [A6 - 0x1]
000016AA  660C                     bne        +0xE /* 000016B8 */
000016AC  4267                     clr.w      -[A7]
000016AE  3F2C 000C                move.w     -[A7], [A4 + 0xC]
000016B2  4EAD 076A                jsr        [A5 + 0x76A /* export_233, CODE:4 @ 00005C96 */]
000016B6  588F                     addq.l     A7, 4
label000016B8:
000016B8  5343                     subq.w     D3, 1
000016BA  66C4                     bne        -0x3A /* 00001680 */
000016BC  3F07                     move.w     -[A7], D7
000016BE  3F06                     move.w     -[A7], D6
000016C0  4EAD 076A                jsr        [A5 + 0x76A /* export_233, CODE:4 @ 00005C96 */]
000016C4  588F                     addq.l     A7, 4
label000016C6:
000016C6  4CDF 1CF8                movem.l    D3,D4,D5,D6,D7,A2,A3,A4, [A7]+
000016CA  4E5E                     unlink     A6
000016CC  4E75                     rts
export_44:
000016CE  4E56 FFFE                link       A6, -0x0002
000016D2  48E7 0300                movem.l    -[A7], D6,D7
000016D6  4267                     clr.w      -[A7]
000016D8  1F3C 0080                move.b     -[A7], 0x80
000016DC  4EAD 099A                jsr        [A5 + 0x99A /* export_303, CODE:5 @ 00003392 */]
000016E0  3E1F                     move.w     D7, [A7]+
000016E2  4267                     clr.w      -[A7]
000016E4  3F3C 0040                move.w     -[A7], 0x40 /* '@' */
000016E8  4EAD 0992                jsr        [A5 + 0x992 /* export_302, CODE:5 @ 0000335E */]
000016EC  3C1F                     move.w     D6, [A7]+
000016EE  6606                     bne        +0x8 /* 000016F6 */
000016F0  7C00                     moveq.l    D6, 0x00
000016F2  1C2D B2D7                move.b     D6, [A5 - 0x4D29]
label000016F6:
000016F6  3F07                     move.w     -[A7], D7
000016F8  3F06                     move.w     -[A7], D6
000016FA  4EAD 07C2                jsr        [A5 + 0x7C2 /* export_244, CODE:4 @ 00006408 */]
000016FE  3EAD C92E                move.w     [A7], [A5 - 0x36D2]
00001702  3F07                     move.w     -[A7], D7
00001704  4EAD 077A                jsr        [A5 + 0x77A /* export_235, CODE:4 @ 00005D1A */]
00001708  2EBC 0020 0001           move.l     [A7], 0x200001
0000170E  3F07                     move.w     -[A7], D7
00001710  4EAD 078A                jsr        [A5 + 0x78A /* export_237, CODE:4 @ 00005DC4 */]
00001714  3EBC 0001                move.w     [A7], 0x1
00001718  3F07                     move.w     -[A7], D7
0000171A  4EAD 076A                jsr        [A5 + 0x76A /* export_233, CODE:4 @ 00005C96 */]
0000171E  3E87                     move.w     [A7], D7
00001720  4EBA FDB0                jsr        [PC - 0x250 /* 000014D2 */]
00001724  4EAD 07D2                jsr        [A5 + 0x7D2 /* export_246, CODE:4 @ 000068A8 */]
00001728  4EAD 09C2                jsr        [A5 + 0x9C2 /* export_308, CODE:5 @ 000029BA */]
0000172C  3EBC 0001                move.w     [A7], 0x1
00001730  4EAD 0A22                jsr        [A5 + 0xA22 /* export_320, CODE:5 @ 000030F4 */]
00001734  4CEE 00C0 FFF6           movem.l    D6,D7, [A6 - 0xA]
0000173A  4E5E                     unlink     A6
0000173C  4E75                     rts
export_45:
0000173E  2F07                     move.l     -[A7], D7
00001740  4267                     clr.w      -[A7]
00001742  3F3C 0080                move.w     -[A7], 0x80
00001746  4EAD 0992                jsr        [A5 + 0x992 /* export_302, CODE:5 @ 0000335E */]
0000174A  3E1F                     move.w     D7, [A7]+
0000174C  3F07                     move.w     -[A7], D7
0000174E  4EAD 064A                jsr        [A5 + 0x64A /* export_197, CODE:3 @ 00003414 */]
00001752  4EAD 09C2                jsr        [A5 + 0x9C2 /* export_308, CODE:5 @ 000029BA */]
00001756  3B7C 0001 F724           move.w     [A5 - 0x8DC], 0x1
0000175C  548F                     addq.l     A7, 2
0000175E  2E1F                     move.l     D7, [A7]+
00001760  4E75                     rts
export_46:
00001762  48E7 1F00                movem.l    -[A7], D3,D4,D5,D6,D7
00001766  4267                     clr.w      -[A7]
00001768  1F3C 0080                move.b     -[A7], 0x80
0000176C  4EAD 099A                jsr        [A5 + 0x99A /* export_303, CODE:5 @ 00003392 */]
00001770  3E1F                     move.w     D7, [A7]+
00001772  4267                     clr.w      -[A7]
00001774  3F3C 0040                move.w     -[A7], 0x40 /* '@' */
00001778  4EAD 0992                jsr        [A5 + 0x992 /* export_302, CODE:5 @ 0000335E */]
0000177C  3C1F                     move.w     D6, [A7]+
0000177E  3F06                     move.w     -[A7], D6
00001780  3F2D ECAE                move.w     -[A7], [A5 - 0x1352]
00001784  3F2D ECAC                move.w     -[A7], [A5 - 0x1354]
00001788  3F2D C92E                move.w     -[A7], [A5 - 0x36D2]
0000178C  4EBA EC56                jsr        [PC - 0x13AA /* 000003E4 */]
00001790  4EAD 09A2                jsr        [A5 + 0x9A2 /* export_304, CODE:5 @ 00002914 */]
00001794  3A00                     move.w     D5, D0
00001796  4EAD 09A2                jsr        [A5 + 0x9A2 /* export_304, CODE:5 @ 00002914 */]
0000179A  3800                     move.w     D4, D0
0000179C  302D C92E                move.w     D0, [A5 - 0x36D2]
000017A0  1635 0120 D6F1           move.b     D3, [A5 - 0x290F + D0]
000017A6  426D F722                clr.w      [A5 - 0x8DE]
000017AA  3B47 C978                move.w     [A5 - 0x3688], D7
000017AE  302D C92E                move.w     D0, [A5 - 0x36D2]
000017B2  7200                     moveq.l    D1, 0x00
000017B4  1235 0120 D395           move.b     D1, [A5 - 0x2C6B + D0]
000017BA  3E81                     move.w     [A7], D1
000017BC  4EAD 064A                jsr        [A5 + 0x64A /* export_197, CODE:3 @ 00003414 */]
000017C0  426D C978                clr.w      [A5 - 0x3688]
000017C4  3E87                     move.w     [A7], D7
000017C6  4EAD 07A2                jsr        [A5 + 0x7A2 /* export_240, CODE:4 @ 00006168 */]
000017CA  5340                     subq.w     D0, 1
000017CC  508F                     addq.l     A7, 8
000017CE  6720                     beq        +0x22 /* 000017F0 */
000017D0  3F07                     move.w     -[A7], D7
000017D2  4EAD 07A2                jsr        [A5 + 0x7A2 /* export_240, CODE:4 @ 00006168 */]
000017D6  5940                     subq.w     D0, 4
000017D8  548F                     addq.l     A7, 2
000017DA  6714                     beq        +0x16 /* 000017F0 */
000017DC  3F06                     move.w     -[A7], D6
000017DE  3F07                     move.w     -[A7], D7
000017E0  2F3C 0000 0105           move.l     -[A7], 0x105
000017E6  4EAD 0A42                jsr        [A5 + 0xA42 /* export_324, CODE:5 @ 000034B4 */]
000017EA  508F                     addq.l     A7, 8
000017EC  6000 0094                bra        +0x96 /* 00001882 */
label000017F0:
000017F0  3F07                     move.w     -[A7], D7
000017F2  4EAD 07B2                jsr        [A5 + 0x7B2 /* export_242, CODE:4 @ 0000623A */]
000017F6  7C00                     moveq.l    D6, 0x00
000017F8  1C2D B2D6                move.b     D6, [A5 - 0x4D2A]
000017FC  4A6D F722                tst.w      [A5 - 0x8DE]
00001800  548F                     addq.l     A7, 2
00001802  663A                     bne        +0x3C /* 0000183E */
00001804  3F06                     move.w     -[A7], D6
00001806  3F2D ECAE                move.w     -[A7], [A5 - 0x1352]
0000180A  3F2D ECAC                move.w     -[A7], [A5 - 0x1354]
0000180E  3F2D C92E                move.w     -[A7], [A5 - 0x36D2]
00001812  4EBA EBD0                jsr        [PC - 0x1430 /* 000003E4 */]
00001816  302D C92E                move.w     D0, [A5 - 0x36D2]
0000181A  B635 0120 D6F1           cmp.b      D3, [A5 - 0x290F + D0]
00001820  508F                     addq.l     A7, 8
00001822  661A                     bne        +0x1C /* 0000183E */
00001824  7000                     moveq.l    D0, 0x00
00001826  102D ECFD                move.b     D0, [A5 - 0x1303]
0000182A  0A40 0001                xori.w     D0, 0x1
0000182E  3F00                     move.w     -[A7], D0
00001830  3F3C 003E                move.w     -[A7], 0x3E /* '>' */
00001834  3F2D C92E                move.w     -[A7], [A5 - 0x36D2]
00001838  4EBA F2E6                jsr        [PC - 0xD1A /* 00000B20 */]
0000183C  5C8F                     addq.l     A7, 6
label0000183E:
0000183E  302D C92E                move.w     D0, [A5 - 0x36D2]
00001842  4235 0120 D70B           clr.b      [A5 - 0x28F5 + D0]
00001848  302D C92E                move.w     D0, [A5 - 0x36D2]
0000184C  3B75 0320 D3B0 EC9E      move.w     [A5 - 0x1362], [A5 - 0x2C50 + D0 * 2]
00001854  3B6D EC9E ECD8           move.w     [A5 - 0x1328], [A5 - 0x1362]
0000185A  3F2D C92E                move.w     -[A7], [A5 - 0x36D2]
0000185E  4EBA 0B7E                jsr        [PC + 0xB7E /* 000023DE */]
00001862  3B7C 0001 F724           move.w     [A5 - 0x8DC], 0x1
00001868  0C45 FFFF                cmpi.w     D5, 0xFFFF
0000186C  548F                     addq.l     A7, 2
0000186E  6712                     beq        +0x14 /* 00001882 */
00001870  3F3C 00FF                move.w     -[A7], 0xFF
00001874  3F04                     move.w     -[A7], D4
00001876  3F05                     move.w     -[A7], D5
00001878  3F2D C92E                move.w     -[A7], [A5 - 0x36D2]
0000187C  4EAD 0B72                jsr        [A5 + 0xB72 /* export_362, CODE:6 @ 00000490 */]
00001880  508F                     addq.l     A7, 8
label00001882:
00001882  4CDF 00F8                movem.l    D3,D4,D5,D6,D7, [A7]+
00001886  4E75                     rts
export_47:
00001888  4EAD 0A2A                jsr        [A5 + 0xA2A /* export_321, CODE:5 @ 00003318 */]
0000188C  4267                     clr.w      -[A7]
0000188E  1F3C 0080                move.b     -[A7], 0x80
00001892  4EAD 099A                jsr        [A5 + 0x99A /* export_303, CODE:5 @ 00003392 */]
00001896  4EAD 0772                jsr        [A5 + 0x772 /* export_234, CODE:4 @ 00005CE8 */]
0000189A  3E80                     move.w     [A7], D0
0000189C  4EAD 0982                jsr        [A5 + 0x982 /* export_300, CODE:5 @ 00003234 */]
000018A0  4E75                     rts
fn000018A2:
000018A2  4E56 0000                link       A6, 0
000018A6  48E7 0738                movem.l    -[A7], D5,D6,D7,A2,A3,A4
000018AA  3C2E 0008                move.w     D6, [A6 + 0x8]
000018AE  3F06                     move.w     -[A7], D6
000018B0  4EAD 09EA                jsr        [A5 + 0x9EA /* export_313, CODE:5 @ 00002C02 */]
000018B4  7A01                     moveq.l    D5, 0x01
000018B6  548F                     addq.l     A7, 2
000018B8  6000 00A0                bra        +0xA2 /* 0000195A */
label000018BC:
000018BC  49F5 5320 C79E           lea.l      A4, [A5 - 0x3862 + D5 * 2]
000018C2  BC54                     cmp.w      D6, [A4]
000018C4  6600 0092                bne        +0x94 /* 00001958 */
000018C8  3F06                     move.w     -[A7], D6
000018CA  4EAD 07A2                jsr        [A5 + 0x7A2 /* export_240, CODE:4 @ 00006168 */]
000018CE  4A40                     tst.w      D0
000018D0  548F                     addq.l     A7, 2
000018D2  660E                     bne        +0x10 /* 000018E2 */
000018D4  3F05                     move.w     -[A7], D5
000018D6  3F3C 0005                move.w     -[A7], 0x5
000018DA  4EBA 247C                jsr        [PC + 0x247C /* 00003D58 */]
000018DE  4254                     clr.w      [A4]
000018E0  588F                     addq.l     A7, 4
label000018E2:
000018E2  7A01                     moveq.l    D5, 0x01
000018E4  387C 0004                movea.w    A4, 0x4
000018E8  47ED C7A0                lea.l      A3, [A5 - 0x3860]
000018EC  605A                     bra        +0x5C /* 00001948 */
label000018EE:
000018EE  4A53                     tst.w      [A3]
000018F0  6650                     bne        +0x52 /* 00001942 */
000018F2  45F5 5320 C7A0           lea.l      A2, [A5 - 0x3860 + D5 * 2]
000018F8  7C01                     moveq.l    D6, 0x01
000018FA  DC45                     add.w      D6, D5
000018FC  4A52                     tst.w      [A2]
000018FE  6742                     beq        +0x44 /* 00001942 */
00001900  3692                     move.w     [A3], [A2]
00001902  3F06                     move.w     -[A7], D6
00001904  3F3C 0005                move.w     -[A7], 0x5
00001908  4EBA 23E4                jsr        [PC + 0x23E4 /* 00003CEE */]
0000190C  3045                     movea.w    A0, D5
0000190E  2E08                     move.l     D7, A0
00001910  E58F                     lsl        D7, 2
00001912  5887                     addq.l     D7, 4
00001914  2BB5 7925 B17A C925 B17A move.l     [[A5 - 0x4E86] + A4], [[A5 - 0x4E86] + D7]
0000191E  2075 C925 B17A           movea.l    A0, [[A5 - 0x4E86] + A4]
00001924  1145 0005                move.b     [A0 + 0x5], D5
00001928  1BB5 6125 B1FA 5125 B1FA move.b     [[A5 - 0x4E06] + D5], [[A5 - 0x4E06] + D6]
00001932  4252                     clr.w      [A2]
00001934  42B5 7925 B17A           clr.l      [[A5 - 0x4E86] + D7]
0000193A  4235 6125 B1FA           clr.b      [[A5 - 0x4E06] + D6]
00001940  588F                     addq.l     A7, 4
label00001942:
00001942  5245                     addq.w     D5, 1
00001944  588C                     addq.l     A4, 4
00001946  548B                     addq.l     A3, 2
label00001948:
00001948  70FF                     moveq.l    D0, 0xFFFFFFFF
0000194A  D06D B110                add.w      D0, [A5 - 0x4EF0]
0000194E  B045                     cmp.w      D0, D5
00001950  6E9C                     bgt        -0x62 /* 000018EE */
00001952  4EAD 09C2                jsr        [A5 + 0x9C2 /* export_308, CODE:5 @ 000029BA */]
00001956  600A                     bra        +0xC /* 00001962 */
label00001958:
00001958  5245                     addq.w     D5, 1
label0000195A:
0000195A  BA6D B110                cmp.w      D5, [A5 - 0x4EF0]
0000195E  6D00 FF5C                blt        -0xA2 /* 000018BC */
label00001962:
00001962  4CDF 1CE0                movem.l    D5,D6,D7,A2,A3,A4, [A7]+
00001966  4E5E                     unlink     A6
00001968  4E75                     rts
export_48:
0000196A  48E7 0308                movem.l    -[A7], D6,D7,A4
0000196E  4267                     clr.w      -[A7]
00001970  1F3C 0080                move.b     -[A7], 0x80
00001974  4EAD 099A                jsr        [A5 + 0x99A /* export_303, CODE:5 @ 00003392 */]
00001978  3E1F                     move.w     D7, [A7]+
0000197A  4267                     clr.w      -[A7]
0000197C  3F3C 0040                move.w     -[A7], 0x40 /* '@' */
00001980  4EAD 0992                jsr        [A5 + 0x992 /* export_302, CODE:5 @ 0000335E */]
00001984  3C1F                     move.w     D6, [A7]+
00001986  6644                     bne        +0x46 /* 000019CC */
00001988  3F07                     move.w     -[A7], D7
0000198A  4EBA FF16                jsr        [PC - 0xEA /* 000018A2 */]
0000198E  7000                     moveq.l    D0, 0x00
00001990  102D C702                move.b     D0, [A5 - 0x38FE]
00001994  C1FC 0012                muls.w     D0, 0x12
00001998  49ED C59A                lea.l      A4, [A5 - 0x3A66]
0000199C  D08C                     add.l      D0, A4
0000199E  2840                     movea.l    A4, D0
000019A0  4A2C 000B                tst.b      [A4 + 0xB]
000019A4  548F                     addq.l     A7, 2
000019A6  6624                     bne        +0x26 /* 000019CC */
000019A8  7000                     moveq.l    D0, 0x00
000019AA  302C 0008                move.w     D0, [A4 + 0x8]
000019AE  BE75 0B20 C79E           cmp.w      D7, [A5 - 0x3862 + D0 * 2]
000019B4  6616                     bne        +0x18 /* 000019CC */
000019B6  3F06                     move.w     -[A7], D6
000019B8  3F07                     move.w     -[A7], D7
000019BA  4EAD 077A                jsr        [A5 + 0x77A /* export_235, CODE:4 @ 00005D1A */]
000019BE  4257                     clr.w      [A7]
000019C0  4EAD 0A22                jsr        [A5 + 0xA22 /* export_320, CODE:5 @ 000030F4 */]
000019C4  4EBA F506                jsr        [PC - 0xAFA /* 00000ECC */]
000019C8  588F                     addq.l     A7, 4
000019CA  6014                     bra        +0x16 /* 000019E0 */
label000019CC:
000019CC  3F06                     move.w     -[A7], D6
000019CE  3F07                     move.w     -[A7], D7
000019D0  4EAD 077A                jsr        [A5 + 0x77A /* export_235, CODE:4 @ 00005D1A */]
000019D4  4257                     clr.w      [A7]
000019D6  4EAD 0A22                jsr        [A5 + 0xA22 /* export_320, CODE:5 @ 000030F4 */]
000019DA  4EAD 09C2                jsr        [A5 + 0x9C2 /* export_308, CODE:5 @ 000029BA */]
000019DE  588F                     addq.l     A7, 4
label000019E0:
000019E0  4CDF 10C0                movem.l    D6,D7,A4, [A7]+
000019E4  4E75                     rts
fn000019E6:
000019E6  4E56 FFE2                link       A6, -0x001E
000019EA  48E7 1F38                movem.l    -[A7], D3,D4,D5,D6,D7,A2,A3,A4
000019EE  102D ED04                move.b     D0, [A5 - 0x12FC]
000019F2  6A22                     bpl        +0x24 /* 00001A16 */
000019F4  0400 00FD                subi.b     D0, 0xFD
000019F8  6714                     beq        +0x16 /* 00001A0E */
000019FA  6A06                     bpl        +0x8 /* 00001A02 */
000019FC  5200                     addq.b     D0, 1
000019FE  6A12                     bpl        +0x14 /* 00001A12 */
00001A00  6014                     bra        +0x16 /* 00001A16 */
label00001A02:
00001A02  5500                     subq.b     D0, 2
00001A04  6A04                     bpl        +0x6 /* 00001A0A */
00001A06  7601                     moveq.l    D3, 0x01
00001A08  600E                     bra        +0x10 /* 00001A18 */
label00001A0A:
00001A0A  7600                     moveq.l    D3, 0x00
00001A0C  600A                     bra        +0xC /* 00001A18 */
label00001A0E:
00001A0E  7602                     moveq.l    D3, 0x02
00001A10  6006                     bra        +0x8 /* 00001A18 */
label00001A12:
00001A12  7603                     moveq.l    D3, 0x03
00001A14  6002                     bra        +0x4 /* 00001A18 */
label00001A16:
00001A16  7600                     moveq.l    D3, 0x00
label00001A18:
00001A18  7800                     moveq.l    D4, 0x00
00001A1A  1803                     move.b     D4, D3
00001A1C  D884                     add.l      D4, D4
00001A1E  41ED F594                lea.l      A0, [A5 - 0xA6C]
00001A22  D888                     add.l      D4, A0
00001A24  7000                     moveq.l    D0, 0x00
00001A26  1003                     move.b     D0, D3
00001A28  41F5 0B20 F540           lea.l      A0, [A5 - 0xAC0 + D0 * 2]
00001A2E  2D48 FFE4                move.l     [A6 - 0x1C], A0
00001A32  2244                     movea.l    A1, D4
00001A34  3290                     move.w     [A1], [A0]
00001A36  7000                     moveq.l    D0, 0x00
00001A38  1003                     move.b     D0, D3
00001A3A  47F5 0B20 F5A0           lea.l      A3, [A5 - 0xA60 + D0 * 2]
00001A40  7E00                     moveq.l    D7, 0x00
00001A42  1E03                     move.b     D7, D3
00001A44  DE87                     add.l      D7, D7
00001A46  43ED F54C                lea.l      A1, [A5 - 0xAB4]
00001A4A  DE89                     add.l      D7, A1
00001A4C  2247                     movea.l    A1, D7
00001A4E  3691                     move.w     [A3], [A1]
00001A50  7000                     moveq.l    D0, 0x00
00001A52  1003                     move.b     D0, D3
00001A54  49F5 0B20 F5C4           lea.l      A4, [A5 - 0xA3C + D0 * 2]
00001A5A  7000                     moveq.l    D0, 0x00
00001A5C  1003                     move.b     D0, D3
00001A5E  43F5 0B20 F558           lea.l      A1, [A5 - 0xAA8 + D0 * 2]
00001A64  2D49 FFF4                move.l     [A6 - 0xC], A1
00001A68  3891                     move.w     [A4], [A1]
00001A6A  7000                     moveq.l    D0, 0x00
00001A6C  1003                     move.b     D0, D3
00001A6E  45F5 0B20 F5D0           lea.l      A2, [A5 - 0xA30 + D0 * 2]
00001A74  7000                     moveq.l    D0, 0x00
00001A76  1003                     move.b     D0, D3
00001A78  41F5 0B20 F564           lea.l      A0, [A5 - 0xA9C + D0 * 2]
00001A7E  2D48 FFFC                move.l     [A6 - 0x4], A0
00001A82  3490                     move.w     [A2], [A0]
00001A84  7C00                     moveq.l    D6, 0x00
00001A86  1C03                     move.b     D6, D3
00001A88  DC86                     add.l      D6, D6
00001A8A  41ED F5DC                lea.l      A0, [A5 - 0xA24]
00001A8E  DC88                     add.l      D6, A0
00001A90  7000                     moveq.l    D0, 0x00
00001A92  1003                     move.b     D0, D3
00001A94  41F5 0B20 F570           lea.l      A0, [A5 - 0xA90 + D0 * 2]
00001A9A  2D48 FFF8                move.l     [A6 - 0x8], A0
00001A9E  2246                     movea.l    A1, D6
00001AA0  3290                     move.w     [A1], [A0]
00001AA2  7A00                     moveq.l    D5, 0x00
00001AA4  1A03                     move.b     D5, D3
00001AA6  DA85                     add.l      D5, D5
00001AA8  43ED F5E8                lea.l      A1, [A5 - 0xA18]
00001AAC  DA89                     add.l      D5, A1
00001AAE  7000                     moveq.l    D0, 0x00
00001AB0  1003                     move.b     D0, D3
00001AB2  43F5 0B20 F57C           lea.l      A1, [A5 - 0xA84 + D0 * 2]
00001AB8  2D49 FFF0                move.l     [A6 - 0x10], A1
00001ABC  2045                     movea.l    A0, D5
00001ABE  3091                     move.w     [A0], [A1]
00001AC0  7000                     moveq.l    D0, 0x00
00001AC2  1003                     move.b     D0, D3
00001AC4  41F5 0B20 F5F4           lea.l      A0, [A5 - 0xA0C + D0 * 2]
00001ACA  2D48 FFEC                move.l     [A6 - 0x14], A0
00001ACE  7000                     moveq.l    D0, 0x00
00001AD0  1003                     move.b     D0, D3
00001AD2  41F5 0B20 F588           lea.l      A0, [A5 - 0xA78 + D0 * 2]
00001AD8  2D48 FFE8                move.l     [A6 - 0x18], A0
00001ADC  226E FFEC                movea.l    A1, [A6 - 0x14]
00001AE0  3290                     move.w     [A1], [A0]
label00001AE2:
00001AE2  4EAD 09AA                jsr        [A5 + 0x9AA /* export_305, CODE:5 @ 000028E0 */]
00001AE6  1B40 ED6C                move.b     [A5 - 0x1294], D0
00001AEA  7200                     moveq.l    D1, 0x00
00001AEC  1200                     move.b     D1, D0
00001AEE  0C41 00FF                cmpi.w     D1, 0xFF
00001AF2  6700 00D4                beq        +0xD6 /* 00001BC8 */
00001AF6  7000                     moveq.l    D0, 0x00
00001AF8  102D ED6C                move.b     D0, [A5 - 0x1294]
00001AFC  0240 001F                andi.w     D0, 0x1F
00001B00  0C40 000F                cmpi.w     D0, 0xF
00001B04  6200 00F4                bhi        +0xF6 /* 00001BFA */
00001B08  43FA 00F8                lea.l      A1, [PC + 0xF8 /* 00001C02, value 0xFF10FF36 */]
00001B0C  D2F1 0200                add.w      A1, [A1 + D0.w * 2]
00001B10  4ED1                     jmp        [A1]
00001B12  4267                     clr.w      -[A7]
00001B14  1F3C 0080                move.b     -[A7], 0x80
00001B18  4EAD 099A                jsr        [A5 + 0x99A /* export_303, CODE:5 @ 00003392 */]
00001B1C  2044                     movea.l    A0, D4
00001B1E  309F                     move.w     [A0], [A7]+
00001B20  4267                     clr.w      -[A7]
00001B22  1F3C 0040                move.b     -[A7], 0x40 /* '@' */
00001B26  4EAD 099A                jsr        [A5 + 0x99A /* export_303, CODE:5 @ 00003392 */]
00001B2A  369F                     move.w     [A3], [A7]+
00001B2C  4A53                     tst.w      [A3]
00001B2E  6604                     bne        +0x6 /* 00001B34 */
00001B30  36BC 0008                move.w     [A3], 0x8
label00001B34:
00001B34  4252                     clr.w      [A2]
00001B36  60AA                     bra        -0x54 /* 00001AE2 */
00001B38  4267                     clr.w      -[A7]
00001B3A  3F3C 0080                move.w     -[A7], 0x80
00001B3E  4EAD 0992                jsr        [A5 + 0x992 /* export_302, CODE:5 @ 0000335E */]
00001B42  2045                     movea.l    A0, D5
00001B44  309F                     move.w     [A0], [A7]+
00001B46  609A                     bra        -0x64 /* 00001AE2 */
00001B48  38BC 0001                move.w     [A4], 0x1
00001B4C  4252                     clr.w      [A2]
00001B4E  6092                     bra        -0x6C /* 00001AE2 */
00001B50  34BC 0001                move.w     [A2], 0x1
00001B54  608C                     bra        -0x72 /* 00001AE2 */
00001B56  4254                     clr.w      [A4]
00001B58  4252                     clr.w      [A2]
00001B5A  6086                     bra        -0x78 /* 00001AE2 */
00001B5C  4267                     clr.w      -[A7]
00001B5E  1F3C 0080                move.b     -[A7], 0x80
00001B62  4EAD 099A                jsr        [A5 + 0x99A /* export_303, CODE:5 @ 00003392 */]
00001B66  2046                     movea.l    A0, D6
00001B68  309F                     move.w     [A0], [A7]+
00001B6A  6000 FF76                bra        -0x88 /* 00001AE2 */
00001B6E  4267                     clr.w      -[A7]
00001B70  1F3C 0080                move.b     -[A7], 0x80
00001B74  4EAD 099A                jsr        [A5 + 0x99A /* export_303, CODE:5 @ 00003392 */]
00001B78  3D5F FFE2                move.w     [A6 - 0x1E], [A7]+
00001B7C  4267                     clr.w      -[A7]
00001B7E  1F3C 0040                move.b     -[A7], 0x40 /* '@' */
00001B82  4EAD 099A                jsr        [A5 + 0x99A /* export_303, CODE:5 @ 00003392 */]
00001B86  3D5F FFE2                move.w     [A6 - 0x1E], [A7]+
00001B8A  6000 FF56                bra        -0xA8 /* 00001AE2 */
00001B8E  2B6D ED64 ED06           move.l     [A5 - 0x12FA], [A5 - 0x129C]
00001B94  1003                     move.b     D0, D3
00001B96  671E                     beq        +0x20 /* 00001BB6 */
00001B98  6B26                     bmi        +0x28 /* 00001BC0 */
00001B9A  5700                     subq.b     D0, 3
00001B9C  6712                     beq        +0x14 /* 00001BB0 */
00001B9E  6A20                     bpl        +0x22 /* 00001BC0 */
00001BA0  5200                     addq.b     D0, 1
00001BA2  6A18                     bpl        +0x1A /* 00001BBC */
00001BA4  3F3C 0001                move.w     -[A7], 0x1
00001BA8  4EAD 0722                jsr        [A5 + 0x722 /* export_224, CODE:4 @ 00005262 */]
00001BAC  548F                     addq.l     A7, 2
00001BAE  6010                     bra        +0x12 /* 00001BC0 */
label00001BB0:
00001BB0  4EAD 071A                jsr        [A5 + 0x71A /* export_223, CODE:4 @ 00005216 */]
00001BB4  600A                     bra        +0xC /* 00001BC0 */
label00001BB6:
00001BB6  4EAD 072A                jsr        [A5 + 0x72A /* export_225, CODE:4 @ 0000542E */]
00001BBA  6004                     bra        +0x6 /* 00001BC0 */
label00001BBC:
00001BBC  4EAD 0712                jsr        [A5 + 0x712 /* export_222, CODE:4 @ 000051FA */]
label00001BC0:
00001BC0  2B6D ED06 ED64           move.l     [A5 - 0x129C], [A5 - 0x12FA]
00001BC6  6032                     bra        +0x34 /* 00001BFA */
label00001BC8:
00001BC8  2044                     movea.l    A0, D4
00001BCA  226E FFE4                movea.l    A1, [A6 - 0x1C]
00001BCE  3290                     move.w     [A1], [A0]
00001BD0  2047                     movea.l    A0, D7
00001BD2  3093                     move.w     [A0], [A3]
00001BD4  206E FFF4                movea.l    A0, [A6 - 0xC]
00001BD8  3094                     move.w     [A0], [A4]
00001BDA  206E FFFC                movea.l    A0, [A6 - 0x4]
00001BDE  3092                     move.w     [A0], [A2]
00001BE0  2046                     movea.l    A0, D6
00001BE2  226E FFF8                movea.l    A1, [A6 - 0x8]
00001BE6  3290                     move.w     [A1], [A0]
00001BE8  2045                     movea.l    A0, D5
00001BEA  226E FFF0                movea.l    A1, [A6 - 0x10]
00001BEE  3290                     move.w     [A1], [A0]
00001BF0  206E FFEC                movea.l    A0, [A6 - 0x14]
00001BF4  226E FFE8                movea.l    A1, [A6 - 0x18]
00001BF8  3290                     move.w     [A1], [A0]
label00001BFA:
00001BFA  4CDF 1CF8                movem.l    D3,D4,D5,D6,D7,A2,A3,A4, [A7]+
00001BFE  4E5E                     unlink     A6
00001C00  4E75                     rts
00001C02  FF10                     .extension 0xF10 <<F/4-5/7>> // unimplemented
00001C04  FF36                     .extension 0xF36 <<F/4-5/7>> // unimplemented
00001C06  FF5A                     .extension 0xF5A <<F/4-5/7>> // unimplemented
00001C08  FFF8                     .invalid   <<F/7/7>>
00001C0A  FF46                     .extension 0xF46 <<F/4-5/7>> // unimplemented
00001C0C  FFF8                     .invalid   <<F/7/7>>
00001C0E  FF54                     .extension 0xF54 <<F/4-5/7>> // unimplemented
00001C10  FF4E                     .extension 0xF4E <<F/4-5/7>> // unimplemented
00001C12  FF6C                     .extension 0xF6C <<F/4-5/7>> // unimplemented
00001C14  FFF8                     .invalid   <<F/7/7>>
00001C16  FFF8                     .invalid   <<F/7/7>>
00001C18  FFF8                     .invalid   <<F/7/7>>
00001C1A  FFF8                     .invalid   <<F/7/7>>
00001C1C  FFF8                     .invalid   <<F/7/7>>
00001C1E  FFF8                     .invalid   <<F/7/7>>
00001C20  FF8C                     .invalid   <<F/6/7>>
export_49:
00001C22  1B6D C92F ED04           move.b     [A5 - 0x12FC], [A5 - 0x36D1]
00001C28  4EBA FDBC                jsr        [PC - 0x244 /* 000019E6 */]
00001C2C  4E75                     rts
export_50:
00001C2E  4267                     clr.w      -[A7]
00001C30  3F3C 0080                move.w     -[A7], 0x80
00001C34  4EAD 0992                jsr        [A5 + 0x992 /* export_302, CODE:5 @ 0000335E */]
00001C38  301F                     move.w     D0, [A7]+
00001C3A  1B40 ED04                move.b     [A5 - 0x12FC], D0
00001C3E  4EBA FDA6                jsr        [PC - 0x25A /* 000019E6 */]
00001C42  4E75                     rts
export_51:
00001C44  48E7 0300                movem.l    -[A7], D6,D7
00001C48  4EAD 0A2A                jsr        [A5 + 0xA2A /* export_321, CODE:5 @ 00003318 */]
00001C4C  4267                     clr.w      -[A7]
00001C4E  1F3C 0080                move.b     -[A7], 0x80
00001C52  4EAD 099A                jsr        [A5 + 0x99A /* export_303, CODE:5 @ 00003392 */]
00001C56  3E1F                     move.w     D7, [A7]+
00001C58  4267                     clr.w      -[A7]
00001C5A  1F3C 0040                move.b     -[A7], 0x40 /* '@' */
00001C5E  4EAD 099A                jsr        [A5 + 0x99A /* export_303, CODE:5 @ 00003392 */]
00001C62  3C1F                     move.w     D6, [A7]+
00001C64  3F06                     move.w     -[A7], D6
00001C66  3F07                     move.w     -[A7], D7
00001C68  4EAD 0792                jsr        [A5 + 0x792 /* export_238, CODE:4 @ 00005EA4 */]
00001C6C  3E80                     move.w     [A7], D0
00001C6E  4EAD 0982                jsr        [A5 + 0x982 /* export_300, CODE:5 @ 00003234 */]
00001C72  548F                     addq.l     A7, 2
00001C74  4CDF 00C0                movem.l    D6,D7, [A7]+
00001C78  4E75                     rts
export_52:
00001C7A  48E7 1F00                movem.l    -[A7], D3,D4,D5,D6,D7
00001C7E  4EAD 0A2A                jsr        [A5 + 0xA2A /* export_321, CODE:5 @ 00003318 */]
00001C82  4267                     clr.w      -[A7]
00001C84  1F3C 0080                move.b     -[A7], 0x80
00001C88  4EAD 099A                jsr        [A5 + 0x99A /* export_303, CODE:5 @ 00003392 */]
00001C8C  3E1F                     move.w     D7, [A7]+
00001C8E  3C2D C94C                move.w     D6, [A5 - 0x36B4]
00001C92  3A3C 00FF                move.w     D5, 0xFF
00001C96  78FF                     moveq.l    D4, 0xFFFFFFFF
label00001C98:
00001C98  3F06                     move.w     -[A7], D6
00001C9A  3F07                     move.w     -[A7], D7
00001C9C  4EAD 0792                jsr        [A5 + 0x792 /* export_238, CODE:4 @ 00005EA4 */]
00001CA0  3600                     move.w     D3, D0
00001CA2  BA43                     cmp.w      D5, D3
00001CA4  588F                     addq.l     A7, 4
00001CA6  6F04                     ble        +0x6 /* 00001CAC */
00001CA8  3A03                     move.w     D5, D3
00001CAA  1806                     move.b     D4, D6
label00001CAC:
00001CAC  5346                     subq.w     D6, 1
00001CAE  BC6D C94A                cmp.w      D6, [A5 - 0x36B6]
00001CB2  6CE4                     bge        -0x1A /* 00001C98 */
00001CB4  7000                     moveq.l    D0, 0x00
00001CB6  1004                     move.b     D0, D4
00001CB8  3F00                     move.w     -[A7], D0
00001CBA  4EAD 0982                jsr        [A5 + 0x982 /* export_300, CODE:5 @ 00003234 */]
00001CBE  4CDF 00F8                movem.l    D3,D4,D5,D6,D7, [A7]+
00001CC2  4E75                     rts
export_53:
00001CC4  4EAD 0A2A                jsr        [A5 + 0xA2A /* export_321, CODE:5 @ 00003318 */]
00001CC8  4267                     clr.w      -[A7]
00001CCA  3F3C 0080                move.w     -[A7], 0x80
00001CCE  4EAD 0992                jsr        [A5 + 0x992 /* export_302, CODE:5 @ 0000335E */]
00001CD2  4EAD 08F2                jsr        [A5 + 0x8F2 /* export_282, CODE:5 @ 00000AAC */]
00001CD6  3E80                     move.w     [A7], D0
00001CD8  4EAD 0982                jsr        [A5 + 0x982 /* export_300, CODE:5 @ 00003234 */]
00001CDC  4E75                     rts
export_54:
00001CDE  2F07                     move.l     -[A7], D7
00001CE0  4EAD 0A2A                jsr        [A5 + 0xA2A /* export_321, CODE:5 @ 00003318 */]
00001CE4  4267                     clr.w      -[A7]
00001CE6  3F3C 0080                move.w     -[A7], 0x80
00001CEA  4EAD 0992                jsr        [A5 + 0x992 /* export_302, CODE:5 @ 0000335E */]
00001CEE  3E1F                     move.w     D7, [A7]+
00001CF0  7000                     moveq.l    D0, 0x00
00001CF2  3007                     move.w     D0, D7
00001CF4  7200                     moveq.l    D1, 0x00
00001CF6  1235 0920 D70B           move.b     D1, [A5 - 0x28F5 + D0]
00001CFC  3F01                     move.w     -[A7], D1
00001CFE  4EAD 0982                jsr        [A5 + 0x982 /* export_300, CODE:5 @ 00003234 */]
00001D02  2E1F                     move.l     D7, [A7]+
00001D04  4E75                     rts
export_55:
00001D06  2F07                     move.l     -[A7], D7
00001D08  4EAD 0A2A                jsr        [A5 + 0xA2A /* export_321, CODE:5 @ 00003318 */]
00001D0C  4267                     clr.w      -[A7]
00001D0E  3F3C 0080                move.w     -[A7], 0x80
00001D12  4EAD 0992                jsr        [A5 + 0x992 /* export_302, CODE:5 @ 0000335E */]
00001D16  3E1F                     move.w     D7, [A7]+
00001D18  4A47                     tst.w      D7
00001D1A  6716                     beq        +0x18 /* 00001D32 */
00001D1C  3F07                     move.w     -[A7], D7
00001D1E  4EAD 0A9A                jsr        [A5 + 0xA9A /* export_335, CODE:5 @ 00003836 */]
00001D22  4A40                     tst.w      D0
00001D24  548F                     addq.l     A7, 2
00001D26  670A                     beq        +0xC /* 00001D32 */
00001D28  3F3C 0001                move.w     -[A7], 0x1
00001D2C  4EAD 0982                jsr        [A5 + 0x982 /* export_300, CODE:5 @ 00003234 */]
00001D30  6006                     bra        +0x8 /* 00001D38 */
label00001D32:
00001D32  4267                     clr.w      -[A7]
00001D34  4EAD 0982                jsr        [A5 + 0x982 /* export_300, CODE:5 @ 00003234 */]
label00001D38:
00001D38  2E1F                     move.l     D7, [A7]+
00001D3A  4E75                     rts
export_56:
00001D3C  48E7 0308                movem.l    -[A7], D6,D7,A4
00001D40  4EAD 0A2A                jsr        [A5 + 0xA2A /* export_321, CODE:5 @ 00003318 */]
00001D44  4267                     clr.w      -[A7]
00001D46  3F3C 0080                move.w     -[A7], 0x80
00001D4A  4EAD 0992                jsr        [A5 + 0x992 /* export_302, CODE:5 @ 0000335E */]
00001D4E  3E1F                     move.w     D7, [A7]+
00001D50  7C00                     moveq.l    D6, 0x00
00001D52  6034                     bra        +0x36 /* 00001D88 */
label00001D54:
00001D54  7012                     moveq.l    D0, 0x12
00001D56  C0C6                     mulu.w     D0, D6
00001D58  49ED C59A                lea.l      A4, [A5 - 0x3A66]
00001D5C  D08C                     add.l      D0, A4
00001D5E  2840                     movea.l    A4, D0
00001D60  BE6C 0008                cmp.w      D7, [A4 + 0x8]
00001D64  6620                     bne        +0x22 /* 00001D86 */
00001D66  0C2C 0002 000B           cmpi.b     [A4 + 0xB], 0x2
00001D6C  6708                     beq        +0xA /* 00001D76 */
00001D6E  0C2C 0003 000B           cmpi.b     [A4 + 0xB], 0x3
00001D74  6610                     bne        +0x12 /* 00001D86 */
label00001D76:
00001D76  4A2C 000A                tst.b      [A4 + 0xA]
00001D7A  670A                     beq        +0xC /* 00001D86 */
00001D7C  3F3C 0001                move.w     -[A7], 0x1
00001D80  4EAD 0982                jsr        [A5 + 0x982 /* export_300, CODE:5 @ 00003234 */]
00001D84  600E                     bra        +0x10 /* 00001D94 */
label00001D86:
00001D86  5246                     addq.w     D6, 1
label00001D88:
00001D88  0C46 0014                cmpi.w     D6, 0x14
00001D8C  65C6                     bcs        -0x38 /* 00001D54 */
00001D8E  4267                     clr.w      -[A7]
00001D90  4EAD 0982                jsr        [A5 + 0x982 /* export_300, CODE:5 @ 00003234 */]
label00001D94:
00001D94  4CDF 10C0                movem.l    D6,D7,A4, [A7]+
00001D98  4E75                     rts
export_57:
00001D9A  48E7 0308                movem.l    -[A7], D6,D7,A4
00001D9E  7E00                     moveq.l    D7, 0x00
00001DA0  1E2D C702                move.b     D7, [A5 - 0x38FE]
00001DA4  4267                     clr.w      -[A7]
00001DA6  4EAD 09A2                jsr        [A5 + 0x9A2 /* export_304, CODE:5 @ 00002914 */]
00001DAA  3F00                     move.w     -[A7], D0
00001DAC  4EAD 098A                jsr        [A5 + 0x98A /* export_301, CODE:5 @ 0000311C */]
00001DB0  3C1F                     move.w     D6, [A7]+
00001DB2  7012                     moveq.l    D0, 0x12
00001DB4  C0C7                     mulu.w     D0, D7
00001DB6  49ED C59A                lea.l      A4, [A5 - 0x3A66]
00001DBA  D08C                     add.l      D0, A4
00001DBC  2840                     movea.l    A4, D0
00001DBE  7000                     moveq.l    D0, 0x00
00001DC0  3006                     move.w     D0, D6
00001DC2  2940 0004                move.l     [A4 + 0x4], D0
00001DC6  197C 0001 000A           move.b     [A4 + 0xA], 0x1
00001DCC  4EBA F246                jsr        [PC - 0xDBA /* 00001014 */]
00001DD0  4CDF 10C0                movem.l    D6,D7,A4, [A7]+
00001DD4  4E75                     rts
export_58:
00001DD6  2F0C                     move.l     -[A7], A4
00001DD8  4EAD 09AA                jsr        [A5 + 0x9AA /* export_305, CODE:5 @ 000028E0 */]
00001DDC  7200                     moveq.l    D1, 0x00
00001DDE  1200                     move.b     D1, D0
00001DE0  7000                     moveq.l    D0, 0x00
00001DE2  102D C702                move.b     D0, [A5 - 0x38FE]
00001DE6  C1FC 0012                muls.w     D0, 0x12
00001DEA  3041                     movea.w    A0, D1
00001DEC  2B88 0920 C59E           move.l     [A5 - 0x3A62 + D0], A0
00001DF2  4EAD 09AA                jsr        [A5 + 0x9AA /* export_305, CODE:5 @ 000028E0 */]
00001DF6  7200                     moveq.l    D1, 0x00
00001DF8  1200                     move.b     D1, D0
00001DFA  E149                     lsl        D1.w, 8
00001DFC  7000                     moveq.l    D0, 0x00
00001DFE  102D C702                move.b     D0, [A5 - 0x38FE]
00001E02  C1FC 0012                muls.w     D0, 0x12
00001E06  48C1                     ext.l      D1
00001E08  D3B5 0920 C59E           add.l      [A5 - 0x3A62 + D0], D1
00001E0E  4EAD 09AA                jsr        [A5 + 0x9AA /* export_305, CODE:5 @ 000028E0 */]
00001E12  7200                     moveq.l    D1, 0x00
00001E14  1200                     move.b     D1, D0
00001E16  7000                     moveq.l    D0, 0x00
00001E18  102D C702                move.b     D0, [A5 - 0x38FE]
00001E1C  C1FC 0012                muls.w     D0, 0x12
00001E20  49ED C59A                lea.l      A4, [A5 - 0x3A66]
00001E24  D08C                     add.l      D0, A4
00001E26  2840                     movea.l    A4, D0
00001E28  48C1                     ext.l      D1
00001E2A  7010                     moveq.l    D0, 0x10
00001E2C  E1A9                     lsl        D1, D0
00001E2E  D3AC 0004                add.l      [A4 + 0x4], D1
00001E32  197C 0001 000A           move.b     [A4 + 0xA], 0x1
00001E38  4EBA F1DA                jsr        [PC - 0xE26 /* 00001014 */]
00001E3C  285F                     movea.l    A4, [A7]+
00001E3E  4E75                     rts
export_59:
00001E40  4267                     clr.w      -[A7]
00001E42  3F3C 0080                move.w     -[A7], 0x80
00001E46  4EAD 0992                jsr        [A5 + 0x992 /* export_302, CODE:5 @ 0000335E */]
00001E4A  4EBA 004C                jsr        [PC + 0x4C /* 00001E98 */]
00001E4E  548F                     addq.l     A7, 2
00001E50  4E75                     rts
export_60:
00001E52  4EAD 0A6A                jsr        [A5 + 0xA6A /* export_329, CODE:5 @ 000037C8 */]
00001E56  4E75                     rts
export_61:
00001E58  4E56 FFDE                link       A6, -0x0022
00001E5C  48E7 0108                movem.l    -[A7], D7,A4
00001E60  7E00                     moveq.l    D7, 0x00
00001E62  49EE FFE0                lea.l      A4, [A6 - 0x20]
00001E66  6006                     bra        +0x8 /* 00001E6E */
label00001E68:
00001E68  4254                     clr.w      [A4]
00001E6A  5247                     addq.w     D7, 1
00001E6C  548C                     addq.l     A4, 2
label00001E6E:
00001E6E  0C47 000F                cmpi.w     D7, 0xF
00001E72  6DF4                     blt        -0xA /* 00001E68 */
00001E74  486E FFE0                pea.l      [A6 - 0x20]
00001E78  4EAD 0A32                jsr        [A5 + 0xA32 /* export_322, CODE:5 @ 000033C6 */]
00001E7C  4CEE 1080 FFD6           movem.l    D7,A4, [A6 - 0x2A]
00001E82  4E5E                     unlink     A6
00001E84  4E75                     rts
export_62:
00001E86  4267                     clr.w      -[A7]
00001E88  3F3C 0080                move.w     -[A7], 0x80
00001E8C  4EAD 0992                jsr        [A5 + 0x992 /* export_302, CODE:5 @ 0000335E */]
00001E90  4EBA 0006                jsr        [PC + 0x6 /* 00001E98 */]
00001E94  548F                     addq.l     A7, 2
00001E96  4E75                     rts
export_63:
fn00001E98:
00001E98  4E56 FFFE                link       A6, -0x0002
00001E9C  3B6E 0008 C95A           move.w     [A5 - 0x36A6], [A6 + 0x8]
00001EA2  3F2E 0008                move.w     -[A7], [A6 + 0x8]
00001EA6  3F3C 0004                move.w     -[A7], 0x4
00001EAA  4EAD 066A                jsr        [A5 + 0x66A /* export_201, CODE:3 @ 00004418 */]
00001EAE  3EAE 0008                move.w     [A7], [A6 + 0x8]
00001EB2  4EAD 0A82                jsr        [A5 + 0xA82 /* export_332, CODE:5 @ 000037DE */]
00001EB6  4EAD 09C2                jsr        [A5 + 0x9C2 /* export_308, CODE:5 @ 000029BA */]
00001EBA  4E5E                     unlink     A6
00001EBC  4E75                     rts
export_64:
00001EBE  4267                     clr.w      -[A7]
00001EC0  3F3C 0080                move.w     -[A7], 0x80
00001EC4  4EAD 0992                jsr        [A5 + 0x992 /* export_302, CODE:5 @ 0000335E */]
00001EC8  4EAD 0A62                jsr        [A5 + 0xA62 /* export_328, CODE:5 @ 000037B8 */]
00001ECC  548F                     addq.l     A7, 2
00001ECE  4E75                     rts
export_65:
00001ED0  48E7 0300                movem.l    -[A7], D6,D7
00001ED4  4267                     clr.w      -[A7]
00001ED6  3F3C 0080                move.w     -[A7], 0x80
00001EDA  4EAD 0992                jsr        [A5 + 0x992 /* export_302, CODE:5 @ 0000335E */]
00001EDE  3E1F                     move.w     D7, [A7]+
00001EE0  4267                     clr.w      -[A7]
00001EE2  1F3C 0040                move.b     -[A7], 0x40 /* '@' */
00001EE6  4EAD 099A                jsr        [A5 + 0x99A /* export_303, CODE:5 @ 00003392 */]
00001EEA  3C1F                     move.w     D6, [A7]+
00001EEC  3F06                     move.w     -[A7], D6
00001EEE  4EAD 07A2                jsr        [A5 + 0x7A2 /* export_240, CODE:4 @ 00006168 */]
00001EF2  5240                     addq.w     D0, 1
00001EF4  548F                     addq.l     A7, 2
00001EF6  671E                     beq        +0x20 /* 00001F16 */
00001EF8  3F06                     move.w     -[A7], D6
00001EFA  4EAD 07B2                jsr        [A5 + 0x7B2 /* export_242, CODE:4 @ 0000623A */]
00001EFE  7000                     moveq.l    D0, 0x00
00001F00  102D ECFD                move.b     D0, [A5 - 0x1303]
00001F04  3E80                     move.w     [A7], D0
00001F06  3F2D ECAE                move.w     -[A7], [A5 - 0x1352]
00001F0A  3F2D ECAC                move.w     -[A7], [A5 - 0x1354]
00001F0E  3F07                     move.w     -[A7], D7
00001F10  4EAD 0B72                jsr        [A5 + 0xB72 /* export_362, CODE:6 @ 00000490 */]
00001F14  508F                     addq.l     A7, 8
label00001F16:
00001F16  4CDF 00C0                movem.l    D6,D7, [A7]+
00001F1A  4E75                     rts
export_66:
00001F1C  48E7 0300                movem.l    -[A7], D6,D7
00001F20  4267                     clr.w      -[A7]
00001F22  3F3C 0080                move.w     -[A7], 0x80
00001F26  4EAD 0992                jsr        [A5 + 0x992 /* export_302, CODE:5 @ 0000335E */]
00001F2A  3E1F                     move.w     D7, [A7]+
00001F2C  4267                     clr.w      -[A7]
00001F2E  1F3C 0040                move.b     -[A7], 0x40 /* '@' */
00001F32  4EAD 099A                jsr        [A5 + 0x99A /* export_303, CODE:5 @ 00003392 */]
00001F36  3C1F                     move.w     D6, [A7]+
00001F38  3F06                     move.w     -[A7], D6
00001F3A  4EAD 07A2                jsr        [A5 + 0x7A2 /* export_240, CODE:4 @ 00006168 */]
00001F3E  5240                     addq.w     D0, 1
00001F40  548F                     addq.l     A7, 2
00001F42  670A                     beq        +0xC /* 00001F4E */
00001F44  3F06                     move.w     -[A7], D6
00001F46  4EAD 07B2                jsr        [A5 + 0x7B2 /* export_242, CODE:4 @ 0000623A */]
00001F4A  548F                     addq.l     A7, 2
00001F4C  600C                     bra        +0xE /* 00001F5A */
label00001F4E:
00001F4E  3B7C 00F0 ECAC           move.w     [A5 - 0x1354], 0xF0
00001F54  3B7C 0078 ECAE           move.w     [A5 - 0x1352], 0x78 /* 'x' */
label00001F5A:
00001F5A  7000                     moveq.l    D0, 0x00
00001F5C  3007                     move.w     D0, D7
00001F5E  7C00                     moveq.l    D6, 0x00
00001F60  1C35 0920 D395           move.b     D6, [A5 - 0x2C6B + D0]
00001F66  3F06                     move.w     -[A7], D6
00001F68  3F2D ECAE                move.w     -[A7], [A5 - 0x1352]
00001F6C  3F2D ECAC                move.w     -[A7], [A5 - 0x1354]
00001F70  3F07                     move.w     -[A7], D7
00001F72  4EBA E470                jsr        [PC - 0x1B90 /* 000003E4 */]
00001F76  4EAD 09C2                jsr        [A5 + 0x9C2 /* export_308, CODE:5 @ 000029BA */]
00001F7A  508F                     addq.l     A7, 8
00001F7C  4CDF 00C0                movem.l    D6,D7, [A7]+
00001F80  4E75                     rts
export_67:
00001F82  48E7 0F08                movem.l    -[A7], D4,D5,D6,D7,A4
00001F86  4267                     clr.w      -[A7]
00001F88  3F3C 0080                move.w     -[A7], 0x80
00001F8C  4EAD 0992                jsr        [A5 + 0x992 /* export_302, CODE:5 @ 0000335E */]
00001F90  3E1F                     move.w     D7, [A7]+
00001F92  1035 7120 D395           move.b     D0, [A5 - 0x2C6B + D7]
00001F98  B02D B2D6                cmp.b      D0, [A5 - 0x4D2A]
00001F9C  6714                     beq        +0x16 /* 00001FB2 */
00001F9E  4267                     clr.w      -[A7]
00001FA0  3F3C 0040                move.w     -[A7], 0x40 /* '@' */
00001FA4  4EAD 0992                jsr        [A5 + 0x992 /* export_302, CODE:5 @ 0000335E */]
00001FA8  4EAD 09AA                jsr        [A5 + 0x9AA /* export_305, CODE:5 @ 000028E0 */]
00001FAC  548F                     addq.l     A7, 2
00001FAE  6000 0090                bra        +0x92 /* 00002040 */
label00001FB2:
00001FB2  4267                     clr.w      -[A7]
00001FB4  3F3C 0040                move.w     -[A7], 0x40 /* '@' */
00001FB8  4EAD 0992                jsr        [A5 + 0x992 /* export_302, CODE:5 @ 0000335E */]
00001FBC  3C1F                     move.w     D6, [A7]+
00001FBE  1035 6120 D395           move.b     D0, [A5 - 0x2C6B + D6]
00001FC4  B02D B2D6                cmp.b      D0, [A5 - 0x4D2A]
00001FC8  6706                     beq        +0x8 /* 00001FD0 */
00001FCA  4EAD 09AA                jsr        [A5 + 0x9AA /* export_305, CODE:5 @ 000028E0 */]
00001FCE  6070                     bra        +0x72 /* 00002040 */
label00001FD0:
00001FD0  4EAD 09AA                jsr        [A5 + 0x9AA /* export_305, CODE:5 @ 000028E0 */]
00001FD4  7A00                     moveq.l    D5, 0x00
00001FD6  1A00                     move.b     D5, D0
00001FD8  0C45 00FF                cmpi.w     D5, 0xFF
00001FDC  6620                     bne        +0x22 /* 00001FFE */
00001FDE  7000                     moveq.l    D0, 0x00
00001FE0  1035 6120 D614           move.b     D0, [A5 - 0x29EC + D6]
00001FE6  C1F5 6320 D62E           muls.w     D0, [A5 - 0x29D2 + D6 * 2]
00001FEC  48C0                     ext.l      D0
00001FEE  81FC 00FF                divs.w     D0, 0xFF
00001FF2  3800                     move.w     D4, D0
00001FF4  3044                     movea.w    A0, D4
00001FF6  2A08                     move.l     D5, A0
00001FF8  8BFC 0002                divs.w     D5, 0x2
00001FFC  DA44                     add.w      D5, D4
label00001FFE:
00001FFE  3846                     movea.w    A4, D6
00002000  D9CC                     add.l      A4, A4
00002002  41ED D3CA                lea.l      A0, [A5 - 0x2C36]
00002006  D1CC                     add.l      A0, A4
00002008  3B50 ECAE                move.w     [A5 - 0x1352], [A0]
0000200C  41ED D3B0                lea.l      A0, [A5 - 0x2C50]
00002010  D1CC                     add.l      A0, A4
00002012  3B50 ECAC                move.w     [A5 - 0x1354], [A0]
00002016  3035 7320 D3B0           move.w     D0, [A5 - 0x2C50 + D7 * 2]
0000201C  B06D ECAC                cmp.w      D0, [A5 - 0x1354]
00002020  6F06                     ble        +0x8 /* 00002028 */
00002022  DB6D ECAC                add.w      [A5 - 0x1354], D5
00002026  6004                     bra        +0x6 /* 0000202C */
label00002028:
00002028  9B6D ECAC                sub.w      [A5 - 0x1354], D5
label0000202C:
0000202C  3F3C 00FF                move.w     -[A7], 0xFF
00002030  3F2D ECAE                move.w     -[A7], [A5 - 0x1352]
00002034  3F2D ECAC                move.w     -[A7], [A5 - 0x1354]
00002038  3F07                     move.w     -[A7], D7
0000203A  4EAD 0B72                jsr        [A5 + 0xB72 /* export_362, CODE:6 @ 00000490 */]
0000203E  508F                     addq.l     A7, 8
label00002040:
00002040  4CDF 10F0                movem.l    D4,D5,D6,D7,A4, [A7]+
00002044  4E75                     rts
export_68:
00002046  48E7 0700                movem.l    -[A7], D5,D6,D7
0000204A  4267                     clr.w      -[A7]
0000204C  3F3C 0080                move.w     -[A7], 0x80
00002050  4EAD 0992                jsr        [A5 + 0x992 /* export_302, CODE:5 @ 0000335E */]
00002054  3E1F                     move.w     D7, [A7]+
00002056  4267                     clr.w      -[A7]
00002058  1F3C 0040                move.b     -[A7], 0x40 /* '@' */
0000205C  4EAD 099A                jsr        [A5 + 0x99A /* export_303, CODE:5 @ 00003392 */]
00002060  3C1F                     move.w     D6, [A7]+
00002062  4267                     clr.w      -[A7]
00002064  1F3C 0020                move.b     -[A7], 0x20 /* ' ' */
00002068  4EAD 099A                jsr        [A5 + 0x99A /* export_303, CODE:5 @ 00003392 */]
0000206C  3A1F                     move.w     D5, [A7]+
0000206E  3F3C 00FF                move.w     -[A7], 0xFF
00002072  3F05                     move.w     -[A7], D5
00002074  3F06                     move.w     -[A7], D6
00002076  3F07                     move.w     -[A7], D7
00002078  4EAD 0B72                jsr        [A5 + 0xB72 /* export_362, CODE:6 @ 00000490 */]
0000207C  508F                     addq.l     A7, 8
0000207E  4CDF 00E0                movem.l    D5,D6,D7, [A7]+
00002082  4E75                     rts
export_69:
00002084  48E7 0300                movem.l    -[A7], D6,D7
00002088  4267                     clr.w      -[A7]
0000208A  3F3C 0080                move.w     -[A7], 0x80
0000208E  4EAD 0992                jsr        [A5 + 0x992 /* export_302, CODE:5 @ 0000335E */]
00002092  3E1F                     move.w     D7, [A7]+
00002094  4267                     clr.w      -[A7]
00002096  1F3C 0040                move.b     -[A7], 0x40 /* '@' */
0000209A  4EAD 099A                jsr        [A5 + 0x99A /* export_303, CODE:5 @ 00003392 */]
0000209E  3B5F ECAC                move.w     [A5 - 0x1354], [A7]+
000020A2  4267                     clr.w      -[A7]
000020A4  1F3C 0020                move.b     -[A7], 0x20 /* ' ' */
000020A8  4EAD 099A                jsr        [A5 + 0x99A /* export_303, CODE:5 @ 00003392 */]
000020AC  3B5F ECAE                move.w     [A5 - 0x1352], [A7]+
000020B0  7000                     moveq.l    D0, 0x00
000020B2  3007                     move.w     D0, D7
000020B4  7C00                     moveq.l    D6, 0x00
000020B6  1C35 0920 D395           move.b     D6, [A5 - 0x2C6B + D0]
000020BC  3F06                     move.w     -[A7], D6
000020BE  3F2D ECAE                move.w     -[A7], [A5 - 0x1352]
000020C2  3F2D ECAC                move.w     -[A7], [A5 - 0x1354]
000020C6  3F07                     move.w     -[A7], D7
000020C8  4EBA E31A                jsr        [PC - 0x1CE6 /* 000003E4 */]
000020CC  4EAD 09C2                jsr        [A5 + 0x9C2 /* export_308, CODE:5 @ 000029BA */]
000020D0  508F                     addq.l     A7, 8
000020D2  4CDF 00C0                movem.l    D6,D7, [A7]+
000020D6  4E75                     rts
export_70:
000020D8  48E7 0308                movem.l    -[A7], D6,D7,A4
000020DC  4267                     clr.w      -[A7]
000020DE  3F3C 0080                move.w     -[A7], 0x80
000020E2  4EAD 0992                jsr        [A5 + 0x992 /* export_302, CODE:5 @ 0000335E */]
000020E6  3E1F                     move.w     D7, [A7]+
000020E8  4267                     clr.w      -[A7]
000020EA  3F3C 0040                move.w     -[A7], 0x40 /* '@' */
000020EE  4EAD 0992                jsr        [A5 + 0x992 /* export_302, CODE:5 @ 0000335E */]
000020F2  3C1F                     move.w     D6, [A7]+
000020F4  4A35 7120 D648           tst.b      [A5 - 0x29B8 + D7]
000020FA  6714                     beq        +0x16 /* 00002110 */
000020FC  7000                     moveq.l    D0, 0x00
000020FE  102D B2D6                move.b     D0, [A5 - 0x4D2A]
00002102  B046                     cmp.w      D0, D6
00002104  670A                     beq        +0xC /* 00002110 */
00002106  BE6D C95E                cmp.w      D7, [A5 - 0x36A2]
0000210A  6604                     bne        +0x6 /* 00002110 */
0000210C  4EAD 0732                jsr        [A5 + 0x732 /* export_226, CODE:4 @ 000058F2 */]
label00002110:
00002110  49ED D395                lea.l      A4, [A5 - 0x2C6B]
00002114  D8C7                     add.w      A4, D7
00002116  1886                     move.b     [A4], D6
00002118  4A14                     tst.b      [A4]
0000211A  660C                     bne        +0xE /* 00002128 */
0000211C  42A7                     clr.l      -[A7]
0000211E  4267                     clr.w      -[A7]
00002120  3F07                     move.w     -[A7], D7
00002122  4EBA E2C0                jsr        [PC - 0x1D40 /* 000003E4 */]
00002126  508F                     addq.l     A7, 8
label00002128:
00002128  4CDF 10C0                movem.l    D6,D7,A4, [A7]+
0000212C  4E75                     rts
export_71:
0000212E  48E7 0300                movem.l    -[A7], D6,D7
00002132  4EAD 0A2A                jsr        [A5 + 0xA2A /* export_321, CODE:5 @ 00003318 */]
00002136  4267                     clr.w      -[A7]
00002138  1F3C 0080                move.b     -[A7], 0x80
0000213C  4EAD 099A                jsr        [A5 + 0x99A /* export_303, CODE:5 @ 00003392 */]
00002140  3E1F                     move.w     D7, [A7]+
00002142  4267                     clr.w      -[A7]
00002144  1F3C 0040                move.b     -[A7], 0x40 /* '@' */
00002148  4EAD 099A                jsr        [A5 + 0x99A /* export_303, CODE:5 @ 00003392 */]
0000214C  3C1F                     move.w     D6, [A7]+
0000214E  3F06                     move.w     -[A7], D6
00002150  3F07                     move.w     -[A7], D7
00002152  4EAD 075A                jsr        [A5 + 0x75A /* export_231, CODE:4 @ 00005BE2 */]
00002156  3E80                     move.w     [A7], D0
00002158  4EAD 0982                jsr        [A5 + 0x982 /* export_300, CODE:5 @ 00003234 */]
0000215C  548F                     addq.l     A7, 2
0000215E  4CDF 00C0                movem.l    D6,D7, [A7]+
00002162  4E75                     rts
export_72:
00002164  48E7 0308                movem.l    -[A7], D6,D7,A4
00002168  522D ED12                addq.b     [A5 - 0x12EE], 1
0000216C  4267                     clr.w      -[A7]
0000216E  3F3C 0080                move.w     -[A7], 0x80
00002172  4EAD 0992                jsr        [A5 + 0x992 /* export_302, CODE:5 @ 0000335E */]
00002176  3E1F                     move.w     D7, [A7]+
00002178  0C47 00FE                cmpi.w     D7, 0xFE
0000217C  6616                     bne        +0x18 /* 00002194 */
0000217E  1B7C 00FF ED12           move.b     [A5 - 0x12EE], 0xFF
00002184  3F2D C96E                move.w     -[A7], [A5 - 0x3692]
00002188  4EAD 09E2                jsr        [A5 + 0x9E2 /* export_312, CODE:5 @ 00002B34 */]
0000218C  4EBA 190E                jsr        [PC + 0x190E /* 00003A9C */]
00002190  548F                     addq.l     A7, 2
00002192  6062                     bra        +0x64 /* 000021F6 */
label00002194:
00002194  7C00                     moveq.l    D6, 0x00
00002196  1C2D ED12                move.b     D6, [A5 - 0x12EE]
0000219A  1B87 6920 ED14           move.b     [A5 - 0x12EC + D6], D7
000021A0  4267                     clr.w      -[A7]
000021A2  1F3C 0040                move.b     -[A7], 0x40 /* '@' */
000021A6  4EAD 099A                jsr        [A5 + 0x99A /* export_303, CODE:5 @ 00003392 */]
000021AA  3B9F 6B20 ED20           move.w     [A5 - 0x12E0 + D6 * 2], [A7]+
000021B0  4267                     clr.w      -[A7]
000021B2  1F3C 0020                move.b     -[A7], 0x20 /* ' ' */
000021B6  4EAD 099A                jsr        [A5 + 0x99A /* export_303, CODE:5 @ 00003392 */]
000021BA  7000                     moveq.l    D0, 0x00
000021BC  102D ED12                move.b     D0, [A5 - 0x12EE]
000021C0  3B9F 0B20 ED2C           move.w     [A5 - 0x12D4 + D0 * 2], [A7]+
000021C6  7000                     moveq.l    D0, 0x00
000021C8  102D ED12                move.b     D0, [A5 - 0x12EE]
000021CC  49F5 0B20 ED2C           lea.l      A4, [A5 - 0x12D4 + D0 * 2]
000021D2  7C00                     moveq.l    D6, 0x00
000021D4  1C2D ED12                move.b     D6, [A5 - 0x12EE]
000021D8  E8D4 0208                bftst      [A4] {8:8}
000021DC  660A                     bne        +0xC /* 000021E8 */
000021DE  3014                     move.w     D0, [A4]
000021E0  E048                     lsr        D0.w, 8
000021E2  6604                     bne        +0x6 /* 000021E8 */
000021E4  7000                     moveq.l    D0, 0x00
000021E6  6002                     bra        +0x4 /* 000021EA */
label000021E8:
000021E8  7001                     moveq.l    D0, 0x01
label000021EA:
000021EA  1B80 6920 ED1A           move.b     [A5 - 0x12E6 + D6], D0
000021F0  4235 6920 ED38           clr.b      [A5 - 0x12C8 + D6]
label000021F6:
000021F6  4CDF 10C0                movem.l    D6,D7,A4, [A7]+
000021FA  4E75                     rts
export_73:
000021FC  48E7 0300                movem.l    -[A7], D6,D7
00002200  7E00                     moveq.l    D7, 0x00
00002202  1E2D C702                move.b     D7, [A5 - 0x38FE]
00002206  486D 97BE                pea.l      [A5 - 0x6842]
0000220A  4EAD 0A32                jsr        [A5 + 0xA32 /* export_322, CODE:5 @ 000033C6 */]
0000220E  7012                     moveq.l    D0, 0x12
00002210  C0C7                     mulu.w     D0, D7
00002212  5235 0920 C5AA           addq.b     [A5 - 0x3A56 + D0], 1
00002218  522D ED3E                addq.b     [A5 - 0x12C2], 1
0000221C  0C2D 0005 ED3E           cmpi.b     [A5 - 0x12C2], 0x5
00002222  588F                     addq.l     A7, 4
00002224  630C                     bls        +0xE /* 00002232 */
00002226  2F3C 0000 011F           move.l     -[A7], 0x11F
0000222C  4EAD 0A42                jsr        [A5 + 0xA42 /* export_324, CODE:5 @ 000034B4 */]
00002230  588F                     addq.l     A7, 4
label00002232:
00002232  7C00                     moveq.l    D6, 0x00
00002234  1C2D ED3E                move.b     D6, [A5 - 0x12C2]
00002238  3BAD 97BE 6B20 ED5A      move.w     [A5 - 0x12A6 + D6 * 2], [A5 - 0x6842]
00002240  4235 6920 ED54           clr.b      [A5 - 0x12AC + D6]
00002246  42B5 6D20 ED40           clr.l      [A5 - 0x12C0 + D6 * 4]
0000224C  3B47 EC90                move.w     [A5 - 0x1370], D7
00002250  3E2D C972                move.w     D7, [A5 - 0x368E]
00002254  6710                     beq        +0x12 /* 00002266 */
00002256  486D 97BE                pea.l      [A5 - 0x6842]
0000225A  42A7                     clr.l      -[A7]
0000225C  3F07                     move.w     -[A7], D7
0000225E  4EAD 0A02                jsr        [A5 + 0xA02 /* export_316, CODE:5 @ 00002ED2 */]
00002262  4FEF 000A                lea.l      A7, [A7 + 0xA]
label00002266:
00002266  3B7C 00FF EC90           move.w     [A5 - 0x1370], 0xFF
0000226C  4CDF 00C0                movem.l    D6,D7, [A7]+
00002270  4E75                     rts
export_74:
00002272  48E7 0118                movem.l    -[A7], D7,A3,A4
00002276  7000                     moveq.l    D0, 0x00
00002278  102D C702                move.b     D0, [A5 - 0x38FE]
0000227C  C1FC 0012                muls.w     D0, 0x12
00002280  49ED C5AA                lea.l      A4, [A5 - 0x3A56]
00002284  D08C                     add.l      D0, A4
00002286  2840                     movea.l    A4, D0
00002288  5314                     subq.b     [A4], 1
0000228A  7E00                     moveq.l    D7, 0x00
0000228C  1E2D ED3E                move.b     D7, [A5 - 0x12C2]
00002290  3B75 7B20 ED5A 97BE      move.w     [A5 - 0x6842], [A5 - 0x12A6 + D7 * 2]
00002298  426D C936                clr.w      [A5 - 0x36CA]
0000229C  7000                     moveq.l    D0, 0x00
0000229E  102D ED3E                move.b     D0, [A5 - 0x12C2]
000022A2  47F5 0D20 ED40           lea.l      A3, [A5 - 0x12C0 + D0 * 4]
000022A8  4A93                     tst.l      [A3]
000022AA  6702                     beq        +0x4 /* 000022AE */
000022AC  5314                     subq.b     [A4], 1
label000022AE:
000022AE  4235 7920 ED54           clr.b      [A5 - 0x12AC + D7]
000022B4  4293                     clr.l      [A3]
000022B6  532D ED3E                subq.b     [A5 - 0x12C2], 1
000022BA  4A2D ED3E                tst.b      [A5 - 0x12C2]
000022BE  640C                     bcc        +0xE /* 000022CC */
000022C0  2F3C 0000 0137           move.l     -[A7], 0x137
000022C6  4EAD 0A42                jsr        [A5 + 0xA42 /* export_324, CODE:5 @ 000034B4 */]
000022CA  588F                     addq.l     A7, 4
label000022CC:
000022CC  3E2D C974                move.w     D7, [A5 - 0x368C]
000022D0  6710                     beq        +0x12 /* 000022E2 */
000022D2  486D 97BE                pea.l      [A5 - 0x6842]
000022D6  42A7                     clr.l      -[A7]
000022D8  3F07                     move.w     -[A7], D7
000022DA  4EAD 0A02                jsr        [A5 + 0xA02 /* export_316, CODE:5 @ 00002ED2 */]
000022DE  4FEF 000A                lea.l      A7, [A7 + 0xA]
label000022E2:
000022E2  4CDF 1880                movem.l    D7,A3,A4, [A7]+
000022E6  4E75                     rts
export_75:
000022E8  48E7 0108                movem.l    -[A7], D7,A4
000022EC  4EAD 09AA                jsr        [A5 + 0x9AA /* export_305, CODE:5 @ 000028E0 */]
000022F0  4A00                     tst.b      D0
000022F2  6742                     beq        +0x44 /* 00002336 */
000022F4  7000                     moveq.l    D0, 0x00
000022F6  102D ED3E                move.b     D0, [A5 - 0x12C2]
000022FA  49F5 0D20 ED40           lea.l      A4, [A5 - 0x12C0 + D0 * 4]
00002300  7E00                     moveq.l    D7, 0x00
00002302  1E2D ED3E                move.b     D7, [A5 - 0x12C2]
00002306  4A94                     tst.l      [A4]
00002308  6610                     bne        +0x12 /* 0000231A */
0000230A  7000                     moveq.l    D0, 0x00
0000230C  102D C702                move.b     D0, [A5 - 0x38FE]
00002310  C1FC 0012                muls.w     D0, 0x12
00002314  5235 0920 C5AA           addq.b     [A5 - 0x3A56 + D0], 1
label0000231A:
0000231A  202D ED64                move.l     D0, [A5 - 0x129C]
0000231E  90AD ED6E                sub.l      D0, [A5 - 0x1292]
00002322  2880                     move.l     [A4], D0
00002324  1BAD C702 7920 ED54      move.b     [A5 - 0x12AC + D7], [A5 - 0x38FE]
0000232C  4EAD 09DA                jsr        [A5 + 0x9DA /* export_311, CODE:5 @ 00002A0A */]
00002330  4EAD 09D2                jsr        [A5 + 0x9D2 /* export_310, CODE:5 @ 00002A00 */]
00002334  602E                     bra        +0x30 /* 00002364 */
label00002336:
00002336  7000                     moveq.l    D0, 0x00
00002338  102D ED3E                move.b     D0, [A5 - 0x12C2]
0000233C  49F5 0D20 ED40           lea.l      A4, [A5 - 0x12C0 + D0 * 4]
00002342  7E00                     moveq.l    D7, 0x00
00002344  1E2D ED3E                move.b     D7, [A5 - 0x12C2]
00002348  4A94                     tst.l      [A4]
0000234A  6710                     beq        +0x12 /* 0000235C */
0000234C  7000                     moveq.l    D0, 0x00
0000234E  102D C702                move.b     D0, [A5 - 0x38FE]
00002352  C1FC 0012                muls.w     D0, 0x12
00002356  5335 0920 C5AA           subq.b     [A5 - 0x3A56 + D0], 1
label0000235C:
0000235C  4294                     clr.l      [A4]
0000235E  4235 7920 ED54           clr.b      [A5 - 0x12AC + D7]
label00002364:
00002364  426D C936                clr.w      [A5 - 0x36CA]
00002368  4CDF 1080                movem.l    D7,A4, [A7]+
0000236C  4E75                     rts
export_76:
0000236E  1B7C 0003 ECD6           move.b     [A5 - 0x132A], 0x3
00002374  4267                     clr.w      -[A7]
00002376  1F3C 0080                move.b     -[A7], 0x80
0000237A  4EAD 099A                jsr        [A5 + 0x99A /* export_303, CODE:5 @ 00003392 */]
0000237E  3B5F EC9E                move.w     [A5 - 0x1362], [A7]+
00002382  3F2D EC9E                move.w     -[A7], [A5 - 0x1362]
00002386  4EBA E714                jsr        [PC - 0x18EC /* 00000A9C */]
0000238A  426D ECE0                clr.w      [A5 - 0x1320]
0000238E  548F                     addq.l     A7, 2
00002390  4E75                     rts
export_77:
00002392  1B7C 0003 ECD6           move.b     [A5 - 0x132A], 0x3
00002398  4267                     clr.w      -[A7]
0000239A  1F3C 0080                move.b     -[A7], 0x80
0000239E  4EAD 099A                jsr        [A5 + 0x99A /* export_303, CODE:5 @ 00003392 */]
000023A2  3B5F ECD8                move.w     [A5 - 0x1328], [A7]+
000023A6  426D ECE0                clr.w      [A5 - 0x1320]
000023AA  4E75                     rts
export_78:
000023AC  2F07                     move.l     -[A7], D7
000023AE  7E00                     moveq.l    D7, 0x00
000023B0  1E2D ECDA                move.b     D7, [A5 - 0x1326]
000023B4  4267                     clr.w      -[A7]
000023B6  3F3C 0080                move.w     -[A7], 0x80
000023BA  4EAD 0992                jsr        [A5 + 0x992 /* export_302, CODE:5 @ 0000335E */]
000023BE  4EBA 001E                jsr        [PC + 0x1E /* 000023DE */]
000023C2  7000                     moveq.l    D0, 0x00
000023C4  102D ECDA                move.b     D0, [A5 - 0x1326]
000023C8  B047                     cmp.w      D0, D7
000023CA  548F                     addq.l     A7, 2
000023CC  6708                     beq        +0xA /* 000023D6 */
000023CE  4267                     clr.w      -[A7]
000023D0  4EAD 0A22                jsr        [A5 + 0xA22 /* export_320, CODE:5 @ 000030F4 */]
000023D4  548F                     addq.l     A7, 2
label000023D6:
000023D6  426D ECE0                clr.w      [A5 - 0x1320]
000023DA  2E1F                     move.l     D7, [A7]+
000023DC  4E75                     rts
fn000023DE:
000023DE  4E56 0000                link       A6, 0
000023E2  1F2E 0009                move.b     -[A7], [A6 + 0x9]
000023E6  4EBA 000A                jsr        [PC + 0xA /* 000023F2 */]
000023EA  4EAD 09C2                jsr        [A5 + 0x9C2 /* export_308, CODE:5 @ 000029BA */]
000023EE  4E5E                     unlink     A6
000023F0  4E75                     rts
fn000023F2:
000023F2  4E56 0000                link       A6, 0
000023F6  48E7 0300                movem.l    -[A7], D6,D7
000023FA  1B6E 0008 ECDA           move.b     [A5 - 0x1326], [A6 + 0x8]
00002400  1B7C 0002 ECD6           move.b     [A5 - 0x132A], 0x2
00002406  7000                     moveq.l    D0, 0x00
00002408  102D ECDA                move.b     D0, [A5 - 0x1326]
0000240C  7E00                     moveq.l    D7, 0x00
0000240E  1E35 0920 D395           move.b     D7, [A5 - 0x2C6B + D0]
00002414  7000                     moveq.l    D0, 0x00
00002416  102D B2D6                move.b     D0, [A5 - 0x4D2A]
0000241A  B047                     cmp.w      D0, D7
0000241C  6724                     beq        +0x26 /* 00002442 */
0000241E  3F07                     move.w     -[A7], D7
00002420  4EAD 064A                jsr        [A5 + 0x64A /* export_197, CODE:3 @ 00003414 */]
00002424  1B7C 0002 ECD6           move.b     [A5 - 0x132A], 0x2
0000242A  7000                     moveq.l    D0, 0x00
0000242C  102D ECDA                move.b     D0, [A5 - 0x1326]
00002430  3B75 0B20 D3B0 EC9E      move.w     [A5 - 0x1362], [A5 - 0x2C50 + D0 * 2]
00002438  3EAD EC9E                move.w     [A7], [A5 - 0x1362]
0000243C  4EBA E65E                jsr        [PC - 0x19A2 /* 00000A9C */]
00002440  548F                     addq.l     A7, 2
label00002442:
00002442  7000                     moveq.l    D0, 0x00
00002444  102D ECDA                move.b     D0, [A5 - 0x1326]
00002448  3075 0B20 D3B0           movea.w    A0, [A5 - 0x2C50 + D0 * 2]
0000244E  2E08                     move.l     D7, A0
00002450  8FFC 0008                divs.w     D7, 0x8
00002454  3C07                     move.w     D6, D7
00002456  9C6D ECA2                sub.w      D6, [A5 - 0x135E]
0000245A  BC6D ECDC                cmp.w      D6, [A5 - 0x1324]
0000245E  6D06                     blt        +0x8 /* 00002466 */
00002460  BC6D ECDE                cmp.w      D6, [A5 - 0x1322]
00002464  6F12                     ble        +0x14 /* 00002478 */
label00002466:
00002466  7000                     moveq.l    D0, 0x00
00002468  102D ECDA                move.b     D0, [A5 - 0x1326]
0000246C  3F35 0B20 D3B0           move.w     -[A7], [A5 - 0x2C50 + D0 * 2]
00002472  4EBA E628                jsr        [PC - 0x19D8 /* 00000A9C */]
00002476  548F                     addq.l     A7, 2
label00002478:
00002478  7E01                     moveq.l    D7, 0x01
0000247A  6016                     bra        +0x18 /* 00002492 */
label0000247C:
0000247C  1035 7120 D395           move.b     D0, [A5 - 0x2C6B + D7]
00002482  B02D B2D6                cmp.b      D0, [A5 - 0x4D2A]
00002486  6608                     bne        +0xA /* 00002490 */
00002488  1BBC 0001 7120 D6D7      move.b     [A5 - 0x2929 + D7], 0x1
label00002490:
00002490  5247                     addq.w     D7, 1
label00002492:
00002492  0C47 000D                cmpi.w     D7, 0xD /* '\r' */
00002496  6DE4                     blt        -0x1A /* 0000247C */
00002498  4267                     clr.w      -[A7]
0000249A  4EAD 0A22                jsr        [A5 + 0xA22 /* export_320, CODE:5 @ 000030F4 */]
0000249E  4CEE 00C0 FFF8           movem.l    D6,D7, [A6 - 0x8]
000024A4  4E5E                     unlink     A6
000024A6  4E75                     rts
export_79:
000024A8  2F07                     move.l     -[A7], D7
000024AA  4267                     clr.w      -[A7]
000024AC  3F3C 0080                move.w     -[A7], 0x80
000024B0  4EAD 0992                jsr        [A5 + 0x992 /* export_302, CODE:5 @ 0000335E */]
000024B4  3E1F                     move.w     D7, [A7]+
000024B6  4A47                     tst.w      D7
000024B8  670A                     beq        +0xC /* 000024C4 */
000024BA  3F07                     move.w     -[A7], D7
000024BC  4EAD 0A12                jsr        [A5 + 0xA12 /* export_318, CODE:5 @ 00003006 */]
000024C0  548F                     addq.l     A7, 2
000024C2  6004                     bra        +0x6 /* 000024C8 */
label000024C4:
000024C4  4EAD 0A1A                jsr        [A5 + 0xA1A /* export_319, CODE:5 @ 00003098 */]
label000024C8:
000024C8  2E1F                     move.l     D7, [A7]+
000024CA  4E75                     rts
export_80:
000024CC  4E56 FFE0                link       A6, -0x0020
000024D0  48E7 0708                movem.l    -[A7], D5,D6,D7,A4
000024D4  4EAD 09AA                jsr        [A5 + 0x9AA /* export_305, CODE:5 @ 000028E0 */]
000024D8  1B40 ED6C                move.b     [A5 - 0x1294], D0
000024DC  7200                     moveq.l    D1, 0x00
000024DE  1200                     move.b     D1, D0
000024E0  0241 001F                andi.w     D1, 0x1F
000024E4  0C41 000E                cmpi.w     D1, 0xE
000024E8  6200 014E                bhi        +0x150 /* 00002638 */
000024EC  43FA 0166                lea.l      A1, [PC + 0x166 /* 00002654, value 0xFFE4FEA2 */]
000024F0  D2F1 1200                add.w      A1, [A1 + D1.w * 2]
000024F4  4ED1                     jmp        [A1]
000024F6  1B7C 0001 EDBB           move.b     [A5 - 0x1245], 0x1
000024FC  4267                     clr.w      -[A7]
000024FE  4EAD 0B5A                jsr        [A5 + 0xB5A /* export_359, CODE:6 @ 00000390 */]
00002502  548F                     addq.l     A7, 2
00002504  6000 0132                bra        +0x134 /* 00002638 */
00002508  422D EDBB                clr.b      [A5 - 0x1245]
0000250C  4267                     clr.w      -[A7]
0000250E  4EAD 0B5A                jsr        [A5 + 0xB5A /* export_359, CODE:6 @ 00000390 */]
00002512  548F                     addq.l     A7, 2
00002514  6000 0122                bra        +0x124 /* 00002638 */
00002518  522D EDBB                addq.b     [A5 - 0x1245], 1
0000251C  0C2D 0001 EDBB           cmpi.b     [A5 - 0x1245], 0x1
00002522  6F1C                     ble        +0x1E /* 00002540 */
00002524  7000                     moveq.l    D0, 0x00
00002526  102D C702                move.b     D0, [A5 - 0x38FE]
0000252A  C1FC 0012                muls.w     D0, 0x12
0000252E  3F35 0920 C5A2           move.w     -[A7], [A5 - 0x3A5E + D0]
00002534  2F3C 0000 014D           move.l     -[A7], 0x14D
0000253A  4EAD 0A4A                jsr        [A5 + 0xA4A /* export_325, CODE:5 @ 000034FC */]
0000253E  5C8F                     addq.l     A7, 6
label00002540:
00002540  4267                     clr.w      -[A7]
00002542  4EAD 0B5A                jsr        [A5 + 0xB5A /* export_359, CODE:6 @ 00000390 */]
00002546  548F                     addq.l     A7, 2
00002548  6000 00EE                bra        +0xF0 /* 00002638 */
0000254C  532D EDBB                subq.b     [A5 - 0x1245], 1
00002550  4267                     clr.w      -[A7]
00002552  4EAD 0B5A                jsr        [A5 + 0xB5A /* export_359, CODE:6 @ 00000390 */]
00002556  548F                     addq.l     A7, 2
00002558  6000 00DE                bra        +0xE0 /* 00002638 */
0000255C  1B7C 0001 EDBA           move.b     [A5 - 0x1246], 0x1
00002562  6000 00D4                bra        +0xD6 /* 00002638 */
00002566  422D EDBA                clr.b      [A5 - 0x1246]
0000256A  6000 00CC                bra        +0xCE /* 00002638 */
0000256E  522D EDBA                addq.b     [A5 - 0x1246], 1
00002572  6000 00C4                bra        +0xC6 /* 00002638 */
00002576  532D EDBA                subq.b     [A5 - 0x1246], 1
0000257A  6000 00BC                bra        +0xBE /* 00002638 */
0000257E  4267                     clr.w      -[A7]
00002580  3F3C 0080                move.w     -[A7], 0x80
00002584  4EAD 0992                jsr        [A5 + 0x992 /* export_302, CODE:5 @ 0000335E */]
00002588  3E1F                     move.w     D7, [A7]+
0000258A  4267                     clr.w      -[A7]
0000258C  3F3C 0040                move.w     -[A7], 0x40 /* '@' */
00002590  4EAD 0992                jsr        [A5 + 0x992 /* export_302, CODE:5 @ 0000335E */]
00002594  3C1F                     move.w     D6, [A7]+
00002596  3F06                     move.w     -[A7], D6
00002598  3F07                     move.w     -[A7], D7
0000259A  4EBA 15F8                jsr        [PC + 0x15F8 /* 00003B94 */]
0000259E  588F                     addq.l     A7, 4
000025A0  6000 0096                bra        +0x98 /* 00002638 */
000025A4  4267                     clr.w      -[A7]
000025A6  3F3C 0080                move.w     -[A7], 0x80
000025AA  4EAD 0992                jsr        [A5 + 0x992 /* export_302, CODE:5 @ 0000335E */]
000025AE  3E1F                     move.w     D7, [A7]+
000025B0  4267                     clr.w      -[A7]
000025B2  3F3C 0040                move.w     -[A7], 0x40 /* '@' */
000025B6  4EAD 0992                jsr        [A5 + 0x992 /* export_302, CODE:5 @ 0000335E */]
000025BA  3C1F                     move.w     D6, [A7]+
000025BC  4267                     clr.w      -[A7]
000025BE  3F3C 0020                move.w     -[A7], 0x20 /* ' ' */
000025C2  4EAD 0992                jsr        [A5 + 0x992 /* export_302, CODE:5 @ 0000335E */]
000025C6  3A1F                     move.w     D5, [A7]+
000025C8  3F05                     move.w     -[A7], D5
000025CA  3F06                     move.w     -[A7], D6
000025CC  3F07                     move.w     -[A7], D7
000025CE  4EBA 15A2                jsr        [PC + 0x15A2 /* 00003B72 */]
000025D2  5C8F                     addq.l     A7, 6
000025D4  6062                     bra        +0x64 /* 00002638 */
000025D6  4267                     clr.w      -[A7]
000025D8  3F3C 0080                move.w     -[A7], 0x80
000025DC  4EAD 0992                jsr        [A5 + 0x992 /* export_302, CODE:5 @ 0000335E */]
000025E0  4EBA 14FE                jsr        [PC + 0x14FE /* 00003AE0 */]
000025E4  548F                     addq.l     A7, 2
000025E6  6050                     bra        +0x52 /* 00002638 */
000025E8  4267                     clr.w      -[A7]
000025EA  3F3C 0080                move.w     -[A7], 0x80
000025EE  4EAD 0992                jsr        [A5 + 0x992 /* export_302, CODE:5 @ 0000335E */]
000025F2  4EAD 058A                jsr        [A5 + 0x58A /* export_173, CODE:3 @ 00001520 */]
000025F6  4EAD 09C2                jsr        [A5 + 0x9C2 /* export_308, CODE:5 @ 000029BA */]
000025FA  548F                     addq.l     A7, 2
000025FC  603A                     bra        +0x3C /* 00002638 */
000025FE  486E FFE0                pea.l      [A6 - 0x20]
00002602  4EAD 0A32                jsr        [A5 + 0xA32 /* export_322, CODE:5 @ 000033C6 */]
00002606  7E00                     moveq.l    D7, 0x00
00002608  49EE FFE0                lea.l      A4, [A6 - 0x20]
0000260C  588F                     addq.l     A7, 4
0000260E  6022                     bra        +0x24 /* 00002632 */
label00002610:
00002610  306D F58A                movea.w    A0, [A5 - 0xA76]
00002614  2008                     move.l     D0, A0
00002616  E988                     lsl        D0, 4
00002618  41ED EAB6                lea.l      A0, [A5 - 0x154A]
0000261C  D088                     add.l      D0, A0
0000261E  3047                     movea.w    A0, D7
00002620  122C 0001                move.b     D1, [A4 + 0x1]
00002624  1181 0800                move.b     [A0 + D0], D1
00002628  1B81 7120 EAA6           move.b     [A5 - 0x155A + D7], D1
0000262E  5247                     addq.w     D7, 1
00002630  548C                     addq.l     A4, 2
label00002632:
00002632  0C47 0010                cmpi.w     D7, 0x10
00002636  6DD8                     blt        -0x26 /* 00002610 */
label00002638:
00002638  102D EDBB                move.b     D0, [A5 - 0x1245]
0000263C  49C0                     lea.l      A4, D0
0000263E  3B40 C994                move.w     [A5 - 0x366C], D0
00002642  102D EDBA                move.b     D0, [A5 - 0x1246]
00002646  49C0                     lea.l      A4, D0
00002648  3B40 C996                move.w     [A5 - 0x366A], D0
0000264C  4CDF 10E0                movem.l    D5,D6,D7,A4, [A7]+
00002650  4E5E                     unlink     A6
00002652  4E75                     rts
00002654  FFE4                     .invalid   <<F/7/7>>
00002656  FEA2 FEB4                .extension 0xEA2 <<F/2-3/7>> // unimplemented
0000265A  FF08                     .extension 0xF08 <<F/4-5/7>> // unimplemented
0000265C  FF12                     .extension 0xF12 <<F/4-5/7>> // unimplemented
0000265E  FEC4 FEF8                .extension 0xEC4 <<F/2-3/7>> // unimplemented
00002662  FF1A                     .extension 0xF1A <<F/4-5/7>> // unimplemented
00002664  FF22                     .extension 0xF22 <<F/4-5/7>> // unimplemented
00002666  FFE4                     .invalid   <<F/7/7>>
00002668  FF2A                     .extension 0xF2A <<F/4-5/7>> // unimplemented
0000266A  FF50                     .extension 0xF50 <<F/4-5/7>> // unimplemented
0000266C  FF82                     .invalid   <<F/6/7>>
0000266E  FF94                     .invalid   <<F/6/7>>
00002670  FFAA                     .invalid   <<F/6/7>>
export_81:
00002672  4EAD 0A2A                jsr        [A5 + 0xA2A /* export_321, CODE:5 @ 00003318 */]
00002676  4267                     clr.w      -[A7]
00002678  3F3C 0080                move.w     -[A7], 0x80
0000267C  4EAD 0992                jsr        [A5 + 0x992 /* export_302, CODE:5 @ 0000335E */]
00002680  305F                     movea.w    A0, [A7]+
00002682  D1CD                     add.l      A0, A5
00002684  7000                     moveq.l    D0, 0x00
00002686  1028 D395                move.b     D0, [A0 - 0x2C6B]
0000268A  3F00                     move.w     -[A7], D0
0000268C  4EAD 0982                jsr        [A5 + 0x982 /* export_300, CODE:5 @ 00003234 */]
00002690  4E75                     rts
export_82:
00002692  4EAD 0A2A                jsr        [A5 + 0xA2A /* export_321, CODE:5 @ 00003318 */]
00002696  4267                     clr.w      -[A7]
00002698  3F3C 0080                move.w     -[A7], 0x80
0000269C  4EAD 0992                jsr        [A5 + 0x992 /* export_302, CODE:5 @ 0000335E */]
000026A0  301F                     move.w     D0, [A7]+
000026A2  3F35 0320 D662           move.w     -[A7], [A5 - 0x299E + D0 * 2]
000026A8  4EAD 0982                jsr        [A5 + 0x982 /* export_300, CODE:5 @ 00003234 */]
000026AC  4E75                     rts
export_83:
000026AE  4EAD 0A2A                jsr        [A5 + 0xA2A /* export_321, CODE:5 @ 00003318 */]
000026B2  4267                     clr.w      -[A7]
000026B4  3F3C 0080                move.w     -[A7], 0x80
000026B8  4EAD 0992                jsr        [A5 + 0x992 /* export_302, CODE:5 @ 0000335E */]
000026BC  305F                     movea.w    A0, [A7]+
000026BE  D1CD                     add.l      A0, A5
000026C0  7000                     moveq.l    D0, 0x00
000026C2  1028 D3A2                move.b     D0, [A0 - 0x2C5E]
000026C6  3F00                     move.w     -[A7], D0
000026C8  4EAD 0982                jsr        [A5 + 0x982 /* export_300, CODE:5 @ 00003234 */]
000026CC  4E75                     rts
export_84:
000026CE  4E56 FFFE                link       A6, -0x0002
000026D2  2F07                     move.l     -[A7], D7
000026D4  4EAD 0A2A                jsr        [A5 + 0xA2A /* export_321, CODE:5 @ 00003318 */]
000026D8  4267                     clr.w      -[A7]
000026DA  1F3C 0080                move.b     -[A7], 0x80
000026DE  4EAD 099A                jsr        [A5 + 0x99A /* export_303, CODE:5 @ 00003392 */]
000026E2  3E1F                     move.w     D7, [A7]+
000026E4  BE6D C93C                cmp.w      D7, [A5 - 0x36C4]
000026E8  6210                     bhi        +0x12 /* 000026FA */
000026EA  7000                     moveq.l    D0, 0x00
000026EC  3007                     move.w     D0, D7
000026EE  3F35 0B20 D3B0           move.w     -[A7], [A5 - 0x2C50 + D0 * 2]
000026F4  4EAD 0982                jsr        [A5 + 0x982 /* export_300, CODE:5 @ 00003234 */]
000026F8  6024                     bra        +0x26 /* 0000271E */
label000026FA:
000026FA  3F07                     move.w     -[A7], D7
000026FC  4EAD 07A2                jsr        [A5 + 0x7A2 /* export_240, CODE:4 @ 00006168 */]
00002700  5240                     addq.w     D0, 1
00002702  548F                     addq.l     A7, 2
00002704  660A                     bne        +0xC /* 00002710 */
00002706  3F3C FFFF                move.w     -[A7], 0xFFFF
0000270A  4EAD 0982                jsr        [A5 + 0x982 /* export_300, CODE:5 @ 00003234 */]
0000270E  600E                     bra        +0x10 /* 0000271E */
label00002710:
00002710  3F07                     move.w     -[A7], D7
00002712  4EAD 07AA                jsr        [A5 + 0x7AA /* export_241, CODE:4 @ 000061E2 */]
00002716  3EAD ECAC                move.w     [A7], [A5 - 0x1354]
0000271A  4EAD 0982                jsr        [A5 + 0x982 /* export_300, CODE:5 @ 00003234 */]
label0000271E:
0000271E  2E1F                     move.l     D7, [A7]+
00002720  4E5E                     unlink     A6
00002722  4E75                     rts
export_85:
00002724  4E56 FFFE                link       A6, -0x0002
00002728  2F07                     move.l     -[A7], D7
0000272A  4EAD 0A2A                jsr        [A5 + 0xA2A /* export_321, CODE:5 @ 00003318 */]
0000272E  4267                     clr.w      -[A7]
00002730  1F3C 0080                move.b     -[A7], 0x80
00002734  4EAD 099A                jsr        [A5 + 0x99A /* export_303, CODE:5 @ 00003392 */]
00002738  3E1F                     move.w     D7, [A7]+
0000273A  BE6D C93C                cmp.w      D7, [A5 - 0x36C4]
0000273E  6210                     bhi        +0x12 /* 00002750 */
00002740  7000                     moveq.l    D0, 0x00
00002742  3007                     move.w     D0, D7
00002744  3F35 0B20 D3CA           move.w     -[A7], [A5 - 0x2C36 + D0 * 2]
0000274A  4EAD 0982                jsr        [A5 + 0x982 /* export_300, CODE:5 @ 00003234 */]
0000274E  6024                     bra        +0x26 /* 00002774 */
label00002750:
00002750  3F07                     move.w     -[A7], D7
00002752  4EAD 07A2                jsr        [A5 + 0x7A2 /* export_240, CODE:4 @ 00006168 */]
00002756  5240                     addq.w     D0, 1
00002758  548F                     addq.l     A7, 2
0000275A  660A                     bne        +0xC /* 00002766 */
0000275C  3F3C FFFF                move.w     -[A7], 0xFFFF
00002760  4EAD 0982                jsr        [A5 + 0x982 /* export_300, CODE:5 @ 00003234 */]
00002764  600E                     bra        +0x10 /* 00002774 */
label00002766:
00002766  3F07                     move.w     -[A7], D7
00002768  4EAD 07AA                jsr        [A5 + 0x7AA /* export_241, CODE:4 @ 000061E2 */]
0000276C  3EAD ECAE                move.w     [A7], [A5 - 0x1352]
00002770  4EAD 0982                jsr        [A5 + 0x982 /* export_300, CODE:5 @ 00003234 */]
label00002774:
00002774  2E1F                     move.l     D7, [A7]+
00002776  4E5E                     unlink     A6
00002778  4E75                     rts
export_86:
0000277A  2F07                     move.l     -[A7], D7
0000277C  4EAD 0A2A                jsr        [A5 + 0xA2A /* export_321, CODE:5 @ 00003318 */]
00002780  4267                     clr.w      -[A7]
00002782  3F3C 0080                move.w     -[A7], 0x80
00002786  4EAD 0992                jsr        [A5 + 0x992 /* export_302, CODE:5 @ 0000335E */]
0000278A  3E1F                     move.w     D7, [A7]+
0000278C  7000                     moveq.l    D0, 0x00
0000278E  3007                     move.w     D0, D7
00002790  7200                     moveq.l    D1, 0x00
00002792  1235 0920 D6B0           move.b     D1, [A5 - 0x2950 + D0]
00002798  3F01                     move.w     -[A7], D1
0000279A  4EAD 0982                jsr        [A5 + 0x982 /* export_300, CODE:5 @ 00003234 */]
0000279E  2E1F                     move.l     D7, [A7]+
000027A0  4E75                     rts
export_87:
000027A2  2F07                     move.l     -[A7], D7
000027A4  4EAD 0A2A                jsr        [A5 + 0xA2A /* export_321, CODE:5 @ 00003318 */]
000027A8  4267                     clr.w      -[A7]
000027AA  3F3C 0080                move.w     -[A7], 0x80
000027AE  4EAD 0992                jsr        [A5 + 0x992 /* export_302, CODE:5 @ 0000335E */]
000027B2  3E1F                     move.w     D7, [A7]+
000027B4  7000                     moveq.l    D0, 0x00
000027B6  3007                     move.w     D0, D7
000027B8  3F35 0B20 D62E           move.w     -[A7], [A5 - 0x29D2 + D0 * 2]
000027BE  4EAD 0982                jsr        [A5 + 0x982 /* export_300, CODE:5 @ 00003234 */]
000027C2  2E1F                     move.l     D7, [A7]+
000027C4  4E75                     rts
export_88:
000027C6  4EAD 0A2A                jsr        [A5 + 0xA2A /* export_321, CODE:5 @ 00003318 */]
000027CA  4267                     clr.w      -[A7]
000027CC  3F3C 0080                move.w     -[A7], 0x80
000027D0  4EAD 0992                jsr        [A5 + 0x992 /* export_302, CODE:5 @ 0000335E */]
000027D4  305F                     movea.w    A0, [A7]+
000027D6  D1CD                     add.l      A0, A5
000027D8  7000                     moveq.l    D0, 0x00
000027DA  1028 D6F1                move.b     D0, [A0 - 0x290F]
000027DE  3F00                     move.w     -[A7], D0
000027E0  4EAD 0982                jsr        [A5 + 0x982 /* export_300, CODE:5 @ 00003234 */]
000027E4  4E75                     rts
export_89:
000027E6  4EAD 0A2A                jsr        [A5 + 0xA2A /* export_321, CODE:5 @ 00003318 */]
000027EA  4267                     clr.w      -[A7]
000027EC  3F3C 0080                move.w     -[A7], 0x80
000027F0  4EAD 0992                jsr        [A5 + 0x992 /* export_302, CODE:5 @ 0000335E */]
000027F4  305F                     movea.w    A0, [A7]+
000027F6  D1CD                     add.l      A0, A5
000027F8  7000                     moveq.l    D0, 0x00
000027FA  1028 D614                move.b     D0, [A0 - 0x29EC]
000027FE  3F00                     move.w     -[A7], D0
00002800  4EAD 0982                jsr        [A5 + 0x982 /* export_300, CODE:5 @ 00003234 */]
00002804  4E75                     rts
export_90:
00002806  48E7 1F00                movem.l    -[A7], D3,D4,D5,D6,D7
0000280A  4267                     clr.w      -[A7]
0000280C  3F3C 0080                move.w     -[A7], 0x80
00002810  4EAD 0992                jsr        [A5 + 0x992 /* export_302, CODE:5 @ 0000335E */]
00002814  3E1F                     move.w     D7, [A7]+
00002816  4267                     clr.w      -[A7]
00002818  1F3C 0040                move.b     -[A7], 0x40 /* '@' */
0000281C  4EAD 099A                jsr        [A5 + 0x99A /* export_303, CODE:5 @ 00003392 */]
00002820  3C1F                     move.w     D6, [A7]+
00002822  3F07                     move.w     -[A7], D7
00002824  4EAD 07AA                jsr        [A5 + 0x7AA /* export_241, CODE:4 @ 000061E2 */]
00002828  0C40 00FF                cmpi.w     D0, 0xFF
0000282C  548F                     addq.l     A7, 2
0000282E  675A                     beq        +0x5C /* 0000288A */
00002830  3A2D ECAC                move.w     D5, [A5 - 0x1354]
00002834  382D ECAE                move.w     D4, [A5 - 0x1352]
00002838  3F06                     move.w     -[A7], D6
0000283A  4EAD 07AA                jsr        [A5 + 0x7AA /* export_241, CODE:4 @ 000061E2 */]
0000283E  0C40 00FF                cmpi.w     D0, 0xFF
00002842  548F                     addq.l     A7, 2
00002844  6744                     beq        +0x46 /* 0000288A */
00002846  BA6D ECAC                cmp.w      D5, [A5 - 0x1354]
0000284A  6C04                     bge        +0x6 /* 00002850 */
0000284C  7601                     moveq.l    D3, 0x01
0000284E  6002                     bra        +0x4 /* 00002852 */
label00002850:
00002850  7600                     moveq.l    D3, 0x00
label00002852:
00002852  3005                     move.w     D0, D5
00002854  906D ECAC                sub.w      D0, [A5 - 0x1354]
00002858  3F00                     move.w     -[A7], D0
0000285A  4EAD 0C2A                jsr        [A5 + 0xC2A /* export_385, CODE:7 @ 0000028C */]
0000285E  7200                     moveq.l    D1, 0x00
00002860  3206                     move.w     D1, D6
00002862  3075 1B20 D62E           movea.w    A0, [A5 - 0x29D2 + D1 * 2]
00002868  2208                     move.l     D1, A0
0000286A  83FC 0002                divs.w     D1, 0x2
0000286E  B240                     cmp.w      D1, D0
00002870  548F                     addq.l     A7, 2
00002872  6F0C                     ble        +0xE /* 00002880 */
00002874  B86D ECAE                cmp.w      D4, [A5 - 0x1352]
00002878  6F04                     ble        +0x6 /* 0000287E */
0000287A  7603                     moveq.l    D3, 0x03
0000287C  6002                     bra        +0x4 /* 00002880 */
label0000287E:
0000287E  7602                     moveq.l    D3, 0x02
label00002880:
00002880  3F03                     move.w     -[A7], D3
00002882  3F07                     move.w     -[A7], D7
00002884  4EAD 0B82                jsr        [A5 + 0xB82 /* export_364, CODE:6 @ 000010EA */]
00002888  588F                     addq.l     A7, 4
label0000288A:
0000288A  4CDF 00F8                movem.l    D3,D4,D5,D6,D7, [A7]+
0000288E  4E75                     rts
export_91:
00002890  4E56 FFFE                link       A6, -0x0002
00002894  48E7 1F00                movem.l    -[A7], D3,D4,D5,D6,D7
00002898  4267                     clr.w      -[A7]
0000289A  3F3C 0080                move.w     -[A7], 0x80
0000289E  4EAD 0992                jsr        [A5 + 0x992 /* export_302, CODE:5 @ 0000335E */]
000028A2  3E1F                     move.w     D7, [A7]+
000028A4  4267                     clr.w      -[A7]
000028A6  3F3C 0040                move.w     -[A7], 0x40 /* '@' */
000028AA  4EAD 0992                jsr        [A5 + 0x992 /* export_302, CODE:5 @ 0000335E */]
000028AE  3C1F                     move.w     D6, [A7]+
000028B0  3A06                     move.w     D5, D6
000028B2  E44D                     lsr        D5.w, 2
000028B4  7803                     moveq.l    D4, 0x03
000028B6  C846                     and.w      D4, D6
000028B8  7600                     moveq.l    D3, 0x00
000028BA  3607                     move.w     D3, D7
000028BC  1035 3920 D395           move.b     D0, [A5 - 0x2C6B + D3]
000028C2  B02D B2D6                cmp.b      D0, [A5 - 0x4D2A]
000028C6  57C0                     seq        D0
000028C8  4400                     neg.b      D0
000028CA  1D40 FFFF                move.b     [A6 - 0x1], D0
000028CE  0C45 003F                cmpi.w     D5, 0x3F /* '?' */
000028D2  662C                     bne        +0x2E /* 00002900 */
000028D4  4A2E FFFF                tst.b      [A6 - 0x1]
000028D8  6700 0080                beq        +0x82 /* 0000295A */
000028DC  7000                     moveq.l    D0, 0x00
000028DE  1035 3920 D6F1           move.b     D0, [A5 - 0x290F + D3]
000028E4  3F00                     move.w     -[A7], D0
000028E6  7000                     moveq.l    D0, 0x00
000028E8  1035 3920 D74C           move.b     D0, [A5 - 0x28B4 + D3]
000028EE  3F00                     move.w     -[A7], D0
000028F0  3F07                     move.w     -[A7], D7
000028F2  4EBA E22C                jsr        [PC - 0x1DD4 /* 00000B20 */]
000028F6  4235 3920 D70B           clr.b      [A5 - 0x28F5 + D3]
000028FC  5C8F                     addq.l     A7, 6
000028FE  605A                     bra        +0x5C /* 0000295A */
label00002900:
00002900  0C45 003E                cmpi.w     D5, 0x3E /* '>' */
00002904  6624                     bne        +0x26 /* 0000292A */
00002906  4A2E FFFF                tst.b      [A6 - 0x1]
0000290A  6716                     beq        +0x18 /* 00002922 */
0000290C  3F04                     move.w     -[A7], D4
0000290E  3F3C 003E                move.w     -[A7], 0x3E /* '>' */
00002912  3F07                     move.w     -[A7], D7
00002914  4EBA E20A                jsr        [PC - 0x1DF6 /* 00000B20 */]
00002918  0235 00FB 3920 D70B      andi.b     [A5 - 0x28F5 + D3], 0xFB
00002920  5C8F                     addq.l     A7, 6
label00002922:
00002922  1B84 3920 D6F1           move.b     [A5 - 0x290F + D3], D4
00002928  6030                     bra        +0x32 /* 0000295A */
label0000292A:
0000292A  0C45 003D                cmpi.w     D5, 0x3D /* '=' */
0000292E  6618                     bne        +0x1A /* 00002948 */
00002930  4A2E FFFF                tst.b      [A6 - 0x1]
00002934  670A                     beq        +0xC /* 00002940 */
00002936  3F04                     move.w     -[A7], D4
00002938  3F07                     move.w     -[A7], D7
0000293A  4EAD 0B82                jsr        [A5 + 0xB82 /* export_364, CODE:6 @ 000010EA */]
0000293E  601A                     bra        +0x1C /* 0000295A */
label00002940:
00002940  1B84 3920 D6F1           move.b     [A5 - 0x290F + D3], D4
00002946  6012                     bra        +0x14 /* 0000295A */
label00002948:
00002948  7000                     moveq.l    D0, 0x00
0000294A  1035 3920 D6F1           move.b     D0, [A5 - 0x290F + D3]
00002950  3F00                     move.w     -[A7], D0
00002952  3F06                     move.w     -[A7], D6
00002954  3F07                     move.w     -[A7], D7
00002956  4EBA E1C8                jsr        [PC - 0x1E38 /* 00000B20 */]
label0000295A:
0000295A  4CEE 00F8 FFEA           movem.l    D3,D4,D5,D6,D7, [A6 - 0x16]
00002960  4E5E                     unlink     A6
00002962  4E75                     rts
export_92:
00002964  48E7 0700                movem.l    -[A7], D5,D6,D7
00002968  4267                     clr.w      -[A7]
0000296A  3F3C 0080                move.w     -[A7], 0x80
0000296E  4EAD 0992                jsr        [A5 + 0x992 /* export_302, CODE:5 @ 0000335E */]
00002972  3E1F                     move.w     D7, [A7]+
00002974  4EAD 09AA                jsr        [A5 + 0x9AA /* export_305, CODE:5 @ 000028E0 */]
00002978  7C00                     moveq.l    D6, 0x00
0000297A  1C00                     move.b     D6, D0
0000297C  4EAD 09AA                jsr        [A5 + 0x9AA /* export_305, CODE:5 @ 000028E0 */]
00002980  7A00                     moveq.l    D5, 0x00
00002982  1A00                     move.b     D5, D0
00002984  4A45                     tst.w      D5
00002986  6606                     bne        +0x8 /* 0000298E */
00002988  3B47 C93E                move.w     [A5 - 0x36C2], D7
0000298C  600E                     bra        +0x10 /* 0000299C */
label0000298E:
0000298E  0C45 0001                cmpi.w     D5, 0x1
00002992  6608                     bne        +0xA /* 0000299C */
00002994  3B47 ECFE                move.w     [A5 - 0x1302], D7
00002998  3B46 ED00                move.w     [A5 - 0x1300], D6
label0000299C:
0000299C  3B7C 0001 F724           move.w     [A5 - 0x8DC], 0x1
000029A2  4CDF 00E0                movem.l    D5,D6,D7, [A7]+
000029A6  4E75                     rts
export_93:
000029A8  48E7 0300                movem.l    -[A7], D6,D7
000029AC  4EAD 09AA                jsr        [A5 + 0x9AA /* export_305, CODE:5 @ 000028E0 */]
000029B0  1B40 ED6C                move.b     [A5 - 0x1294], D0
000029B4  0C00 0011                cmpi.b     D0, 0x11
000029B8  670C                     beq        +0xE /* 000029C6 */
000029BA  4267                     clr.w      -[A7]
000029BC  3F3C 0080                move.w     -[A7], 0x80
000029C0  4EAD 0992                jsr        [A5 + 0x992 /* export_302, CODE:5 @ 0000335E */]
000029C4  3E1F                     move.w     D7, [A7]+
label000029C6:
000029C6  7000                     moveq.l    D0, 0x00
000029C8  102D ED6C                move.b     D0, [A5 - 0x1294]
000029CC  0240 001F                andi.w     D0, 0x1F
000029D0  0C40 0014                cmpi.w     D0, 0x14
000029D4  6200 016C                bhi        +0x16E /* 00002B42 */
000029D8  43FA 016E                lea.l      A1, [PC + 0x16E /* 00002B48, value 0xFFFAFECA */]
000029DC  D2F1 0200                add.w      A1, [A1 + D0.w * 2]
000029E0  4ED1                     jmp        [A1]
000029E2  2F3C 0000 0177           move.l     -[A7], 0x177
000029E8  4EAD 0A42                jsr        [A5 + 0xA42 /* export_324, CODE:5 @ 000034B4 */]
000029EC  588F                     addq.l     A7, 4
000029EE  6000 0152                bra        +0x154 /* 00002B42 */
000029F2  3F07                     move.w     -[A7], D7
000029F4  4EAD 062A                jsr        [A5 + 0x62A /* export_193, CODE:3 @ 00003140 */]
000029F8  548F                     addq.l     A7, 2
000029FA  6000 0146                bra        +0x148 /* 00002B42 */
000029FE  3F07                     move.w     -[A7], D7
00002A00  3F3C 0004                move.w     -[A7], 0x4
00002A04  4EAD 066A                jsr        [A5 + 0x66A /* export_201, CODE:3 @ 00004418 */]
00002A08  4EAD 09C2                jsr        [A5 + 0x9C2 /* export_308, CODE:5 @ 000029BA */]
00002A0C  588F                     addq.l     A7, 4
00002A0E  6000 0132                bra        +0x134 /* 00002B42 */
00002A12  3F07                     move.w     -[A7], D7
00002A14  3F3C 0002                move.w     -[A7], 0x2
00002A18  4EAD 066A                jsr        [A5 + 0x66A /* export_201, CODE:3 @ 00004418 */]
00002A1C  4EAD 09C2                jsr        [A5 + 0x9C2 /* export_308, CODE:5 @ 000029BA */]
00002A20  588F                     addq.l     A7, 4
00002A22  6000 011E                bra        +0x120 /* 00002B42 */
00002A26  3F07                     move.w     -[A7], D7
00002A28  3F3C 0003                move.w     -[A7], 0x3
00002A2C  4EAD 066A                jsr        [A5 + 0x66A /* export_201, CODE:3 @ 00004418 */]
00002A30  4EAD 09C2                jsr        [A5 + 0x9C2 /* export_308, CODE:5 @ 000029BA */]
00002A34  588F                     addq.l     A7, 4
00002A36  6000 010A                bra        +0x10C /* 00002B42 */
00002A3A  3F07                     move.w     -[A7], D7
00002A3C  3F3C 0001                move.w     -[A7], 0x1
00002A40  4EAD 066A                jsr        [A5 + 0x66A /* export_201, CODE:3 @ 00004418 */]
00002A44  4EAD 09C2                jsr        [A5 + 0x9C2 /* export_308, CODE:5 @ 000029BA */]
00002A48  588F                     addq.l     A7, 4
00002A4A  6000 00F6                bra        +0xF8 /* 00002B42 */
00002A4E  3F07                     move.w     -[A7], D7
00002A50  4EAD 0622                jsr        [A5 + 0x622 /* export_192, CODE:3 @ 000030D0 */]
00002A54  4EAD 09C2                jsr        [A5 + 0x9C2 /* export_308, CODE:5 @ 000029BA */]
00002A58  548F                     addq.l     A7, 2
00002A5A  6000 00E6                bra        +0xE8 /* 00002B42 */
00002A5E  3F07                     move.w     -[A7], D7
00002A60  3F3C 0004                move.w     -[A7], 0x4
00002A64  4EBA 1804                jsr        [PC + 0x1804 /* 0000426A */]
00002A68  588F                     addq.l     A7, 4
00002A6A  6000 00D6                bra        +0xD8 /* 00002B42 */
00002A6E  7000                     moveq.l    D0, 0x00
00002A70  102D EC8E                move.b     D0, [A5 - 0x1372]
00002A74  B047                     cmp.w      D0, D7
00002A76  6300 00CA                bls        +0xCC /* 00002B42 */
00002A7A  3F07                     move.w     -[A7], D7
00002A7C  3F3C 0002                move.w     -[A7], 0x2
00002A80  4EBA 17E8                jsr        [PC + 0x17E8 /* 0000426A */]
00002A84  588F                     addq.l     A7, 4
00002A86  6000 00BA                bra        +0xBC /* 00002B42 */
00002A8A  3F07                     move.w     -[A7], D7
00002A8C  3F3C 0003                move.w     -[A7], 0x3
00002A90  4EBA 17D8                jsr        [PC + 0x17D8 /* 0000426A */]
00002A94  588F                     addq.l     A7, 4
00002A96  6000 00AA                bra        +0xAC /* 00002B42 */
00002A9A  0C47 007F                cmpi.w     D7, 0x7F
00002A9E  6310                     bls        +0x12 /* 00002AB0 */
00002AA0  707F                     moveq.l    D0, 0x7F
00002AA2  C047                     and.w      D0, D7
00002AA4  7200                     moveq.l    D1, 0x00
00002AA6  3200                     move.w     D1, D0
00002AA8  7E00                     moveq.l    D7, 0x00
00002AAA  1E35 1920 D316           move.b     D7, [A5 - 0x2CEA + D1]
label00002AB0:
00002AB0  3F07                     move.w     -[A7], D7
00002AB2  3F3C 0001                move.w     -[A7], 0x1
00002AB6  4EBA 17B2                jsr        [PC + 0x17B2 /* 0000426A */]
00002ABA  588F                     addq.l     A7, 4
00002ABC  6000 0084                bra        +0x86 /* 00002B42 */
00002AC0  4267                     clr.w      -[A7]
00002AC2  1F3C 0040                move.b     -[A7], 0x40 /* '@' */
00002AC6  4EAD 099A                jsr        [A5 + 0x99A /* export_303, CODE:5 @ 00003392 */]
00002ACA  3C1F                     move.w     D6, [A7]+
00002ACC  3F07                     move.w     -[A7], D7
00002ACE  3F06                     move.w     -[A7], D6
00002AD0  4EAD 07CA                jsr        [A5 + 0x7CA /* export_245, CODE:4 @ 000065AA */]
00002AD4  588F                     addq.l     A7, 4
00002AD6  606A                     bra        +0x6C /* 00002B42 */
00002AD8  3F07                     move.w     -[A7], D7
00002ADA  3F3C 0004                move.w     -[A7], 0x4
00002ADE  4EBA 17B6                jsr        [PC + 0x17B6 /* 00004296 */]
00002AE2  588F                     addq.l     A7, 4
00002AE4  605C                     bra        +0x5E /* 00002B42 */
00002AE6  7000                     moveq.l    D0, 0x00
00002AE8  102D EC8E                move.b     D0, [A5 - 0x1372]
00002AEC  B047                     cmp.w      D0, D7
00002AEE  6352                     bls        +0x54 /* 00002B42 */
00002AF0  3F07                     move.w     -[A7], D7
00002AF2  3F3C 0002                move.w     -[A7], 0x2
00002AF6  4EBA 179E                jsr        [PC + 0x179E /* 00004296 */]
00002AFA  588F                     addq.l     A7, 4
00002AFC  6044                     bra        +0x46 /* 00002B42 */
00002AFE  3F07                     move.w     -[A7], D7
00002B00  3F3C 0003                move.w     -[A7], 0x3
00002B04  4EBA 1790                jsr        [PC + 0x1790 /* 00004296 */]
00002B08  588F                     addq.l     A7, 4
00002B0A  6036                     bra        +0x38 /* 00002B42 */
00002B0C  0C47 007F                cmpi.w     D7, 0x7F
00002B10  6310                     bls        +0x12 /* 00002B22 */
00002B12  707F                     moveq.l    D0, 0x7F
00002B14  C047                     and.w      D0, D7
00002B16  7200                     moveq.l    D1, 0x00
00002B18  3200                     move.w     D1, D0
00002B1A  7E00                     moveq.l    D7, 0x00
00002B1C  1E35 1920 D316           move.b     D7, [A5 - 0x2CEA + D1]
label00002B22:
00002B22  3F07                     move.w     -[A7], D7
00002B24  3F3C 0001                move.w     -[A7], 0x1
00002B28  4EBA 176C                jsr        [PC + 0x176C /* 00004296 */]
00002B2C  588F                     addq.l     A7, 4
00002B2E  6012                     bra        +0x14 /* 00002B42 */
00002B30  4267                     clr.w      -[A7]
00002B32  4EBA 1450                jsr        [PC + 0x1450 /* 00003F84 */]
00002B36  42A7                     clr.l      -[A7]
00002B38  4EAD 05EA                jsr        [A5 + 0x5EA /* export_185, CODE:3 @ 00002218 */]
00002B3C  4EAD 09C2                jsr        [A5 + 0x9C2 /* export_308, CODE:5 @ 000029BA */]
00002B40  5C8F                     addq.l     A7, 6
label00002B42:
00002B42  4CDF 00C0                movem.l    D6,D7, [A7]+
00002B46  4E75                     rts
00002B48  FFFA                     .invalid   <<F/7/7>>
00002B4A  FECA FEB6                .extension 0xECA <<F/2-3/7>> // unimplemented
00002B4E  FEDE FEF2                .extension 0xEDE <<F/2-3/7>> // unimplemented
00002B52  FE9A FE9A                .extension 0xE9A <<F/2-3/7>> // unimplemented
00002B56  FE9A FE9A                .extension 0xE9A <<F/2-3/7>> // unimplemented
00002B5A  FF26                     .extension 0xF26 <<F/4-5/7>> // unimplemented
00002B5C  FF16                     .extension 0xF16 <<F/4-5/7>> // unimplemented
00002B5E  FF42                     .extension 0xF42 <<F/4-5/7>> // unimplemented
00002B60  FF52                     .extension 0xF52 <<F/4-5/7>> // unimplemented
00002B62  FF9E                     .invalid   <<F/6/7>>
00002B64  FF90                     .invalid   <<F/6/7>>
00002B66  FFB6                     .invalid   <<F/6/7>>
00002B68  FFC4                     .invalid   <<F/7/7>>
00002B6A  FFE8                     .invalid   <<F/7/7>>
00002B6C  FF06                     .extension 0xF06 <<F/4-5/7>> // unimplemented
00002B6E  FEAA FF78                .extension 0xEAA <<F/2-3/7>> // unimplemented
export_94:
00002B72  4EAD 09AA                jsr        [A5 + 0x9AA /* export_305, CODE:5 @ 000028E0 */]
00002B76  4A00                     tst.b      D0
00002B78  671A                     beq        +0x1C /* 00002B94 */
00002B7A  6B18                     bmi        +0x1A /* 00002B94 */
00002B7C  5700                     subq.b     D0, 3
00002B7E  6710                     beq        +0x12 /* 00002B90 */
00002B80  6A12                     bpl        +0x14 /* 00002B94 */
00002B82  5200                     addq.b     D0, 1
00002B84  6A0E                     bpl        +0x10 /* 00002B94 */
00002B86  4267                     clr.w      -[A7]
00002B88  4EAD 05DA                jsr        [A5 + 0x5DA /* export_183, CODE:3 @ 0000202A */]
00002B8C  548F                     addq.l     A7, 2
00002B8E  6004                     bra        +0x6 /* 00002B94 */
label00002B90:
00002B90  4EAD 0702                jsr        [A5 + 0x702 /* export_220, CODE:4 @ 00005008 */]
label00002B94:
00002B94  4E75                     rts
export_95:
00002B96  4E56 FFFE                link       A6, -0x0002
00002B9A  4267                     clr.w      -[A7]
00002B9C  1F3C 0080                move.b     -[A7], 0x80
00002BA0  4EAD 099A                jsr        [A5 + 0x99A /* export_303, CODE:5 @ 00003392 */]
00002BA4  4E5E                     unlink     A6
00002BA6  4E75                     rts
export_96:
00002BA8  2F07                     move.l     -[A7], D7
00002BAA  4EAD 09AA                jsr        [A5 + 0x9AA /* export_305, CODE:5 @ 000028E0 */]
00002BAE  1B40 ED6C                move.b     [A5 - 0x1294], D0
00002BB2  7200                     moveq.l    D1, 0x00
00002BB4  1200                     move.b     D1, D0
00002BB6  0241 001F                andi.w     D1, 0x1F
00002BBA  6700 008A                beq        +0x8C /* 00002C46 */
00002BBE  6B00 0086                bmi        +0x88 /* 00002C46 */
00002BC2  5741                     subq.w     D1, 3
00002BC4  674E                     beq        +0x50 /* 00002C14 */
00002BC6  6A06                     bpl        +0x8 /* 00002BCE */
00002BC8  5241                     addq.w     D1, 1
00002BCA  6A28                     bpl        +0x2A /* 00002BF4 */
00002BCC  6006                     bra        +0x8 /* 00002BD4 */
label00002BCE:
00002BCE  5541                     subq.w     D1, 2
00002BD0  6A74                     bpl        +0x76 /* 00002C46 */
00002BD2  606A                     bra        +0x6C /* 00002C3E */
label00002BD4:
00002BD4  4267                     clr.w      -[A7]
00002BD6  3F3C 0080                move.w     -[A7], 0x80
00002BDA  4EAD 0992                jsr        [A5 + 0x992 /* export_302, CODE:5 @ 0000335E */]
00002BDE  3E1F                     move.w     D7, [A7]+
00002BE0  4267                     clr.w      -[A7]
00002BE2  3F3C 0040                move.w     -[A7], 0x40 /* '@' */
00002BE6  4EAD 0992                jsr        [A5 + 0x992 /* export_302, CODE:5 @ 0000335E */]
00002BEA  3F07                     move.w     -[A7], D7
00002BEC  4EAD 0552                jsr        [A5 + 0x552 /* export_166, CODE:3 @ 00001310 */]
00002BF0  588F                     addq.l     A7, 4
00002BF2  6052                     bra        +0x54 /* 00002C46 */
label00002BF4:
00002BF4  4267                     clr.w      -[A7]
00002BF6  3F3C 0080                move.w     -[A7], 0x80
00002BFA  4EAD 0992                jsr        [A5 + 0x992 /* export_302, CODE:5 @ 0000335E */]
00002BFE  3E1F                     move.w     D7, [A7]+
00002C00  4267                     clr.w      -[A7]
00002C02  3F3C 0040                move.w     -[A7], 0x40 /* '@' */
00002C06  4EAD 0992                jsr        [A5 + 0x992 /* export_302, CODE:5 @ 0000335E */]
00002C0A  3F07                     move.w     -[A7], D7
00002C0C  4EAD 0562                jsr        [A5 + 0x562 /* export_168, CODE:3 @ 00001342 */]
00002C10  588F                     addq.l     A7, 4
00002C12  6032                     bra        +0x34 /* 00002C46 */
label00002C14:
00002C14  4267                     clr.w      -[A7]
00002C16  3F3C 0080                move.w     -[A7], 0x80
00002C1A  4EAD 0992                jsr        [A5 + 0x992 /* export_302, CODE:5 @ 0000335E */]
00002C1E  3E1F                     move.w     D7, [A7]+
00002C20  4267                     clr.w      -[A7]
00002C22  3F3C 0040                move.w     -[A7], 0x40 /* '@' */
00002C26  4EAD 0992                jsr        [A5 + 0x992 /* export_302, CODE:5 @ 0000335E */]
00002C2A  70FF                     moveq.l    D0, 0xFFFFFFFF
00002C2C  D05F                     add.w      D0, [A7]+
00002C2E  0040 8000                ori.w      D0, 0x8000
00002C32  3F00                     move.w     -[A7], D0
00002C34  3F07                     move.w     -[A7], D7
00002C36  4EAD 0562                jsr        [A5 + 0x562 /* export_168, CODE:3 @ 00001342 */]
00002C3A  588F                     addq.l     A7, 4
00002C3C  6008                     bra        +0xA /* 00002C46 */
label00002C3E:
00002C3E  4EAD 0602                jsr        [A5 + 0x602 /* export_188, CODE:3 @ 00002536 */]
00002C42  4EAD 09C2                jsr        [A5 + 0x9C2 /* export_308, CODE:5 @ 000029BA */]
label00002C46:
00002C46  2E1F                     move.l     D7, [A7]+
00002C48  4E75                     rts
export_97:
00002C4A  4E56 FFFE                link       A6, -0x0002
00002C4E  48E7 0F18                movem.l    -[A7], D4,D5,D6,D7,A3,A4
00002C52  4267                     clr.w      -[A7]
00002C54  3F3C 0080                move.w     -[A7], 0x80
00002C58  4EAD 0992                jsr        [A5 + 0x992 /* export_302, CODE:5 @ 0000335E */]
00002C5C  3E1F                     move.w     D7, [A7]+
00002C5E  4267                     clr.w      -[A7]
00002C60  3F07                     move.w     -[A7], D7
00002C62  4EAD 0B62                jsr        [A5 + 0xB62 /* export_360, CODE:6 @ 000003F4 */]
00002C66  3C00                     move.w     D6, D0
00002C68  2EBC 0000 01A9           move.l     [A7], 0x1A9
00002C6E  3F06                     move.w     -[A7], D6
00002C70  4267                     clr.w      -[A7]
00002C72  70FF                     moveq.l    D0, 0xFFFFFFFF
00002C74  D06D B116                add.w      D0, [A5 - 0x4EEA]
00002C78  3F00                     move.w     -[A7], D0
00002C7A  4EAD 09B2                jsr        [A5 + 0x9B2 /* export_306, CODE:5 @ 00003464 */]
00002C7E  701C                     moveq.l    D0, 0x1C
00002C80  C0C6                     mulu.w     D0, D6
00002C82  49ED DFB6                lea.l      A4, [A5 - 0x204A]
00002C86  D08C                     add.l      D0, A4
00002C88  2840                     movea.l    A4, D0
00002C8A  1947 0010                move.b     [A4 + 0x10], D7
00002C8E  264C                     movea.l    A3, A4
label00002C90:
00002C90  4EAD 09AA                jsr        [A5 + 0x9AA /* export_305, CODE:5 @ 000028E0 */]
00002C94  1B40 ED6C                move.b     [A5 - 0x1294], D0
00002C98  7200                     moveq.l    D1, 0x00
00002C9A  1200                     move.b     D1, D0
00002C9C  0C41 00FF                cmpi.w     D1, 0xFF
00002CA0  6700 0236                beq        +0x238 /* 00002ED8 */
00002CA4  7000                     moveq.l    D0, 0x00
00002CA6  102D ED6C                move.b     D0, [A5 - 0x1294]
00002CAA  0240 001F                andi.w     D0, 0x1F
00002CAE  0C40 0017                cmpi.w     D0, 0x17
00002CB2  62DC                     bhi        -0x22 /* 00002C90 */
00002CB4  43FA 023A                lea.l      A1, [PC + 0x23A /* 00002EF0, value 0xFDA0FF68 */]
00002CB8  D2F1 0200                add.w      A1, [A1 + D0.w * 2]
00002CBC  4ED1                     jmp        [A1]
00002CBE  4267                     clr.w      -[A7]
00002CC0  3F07                     move.w     -[A7], D7
00002CC2  4EAD 0B62                jsr        [A5 + 0xB62 /* export_360, CODE:6 @ 000003F4 */]
00002CC6  3C00                     move.w     D6, D0
00002CC8  588F                     addq.l     A7, 4
00002CCA  662A                     bne        +0x2C /* 00002CF6 */
00002CCC  7C01                     moveq.l    D6, 0x01
00002CCE  600E                     bra        +0x10 /* 00002CDE */
label00002CD0:
00002CD0  701C                     moveq.l    D0, 0x1C
00002CD2  C0C6                     mulu.w     D0, D6
00002CD4  4A35 0920 DFC6           tst.b      [A5 - 0x203A + D0]
00002CDA  6708                     beq        +0xA /* 00002CE4 */
00002CDC  5246                     addq.w     D6, 1
label00002CDE:
00002CDE  BC6D B116                cmp.w      D6, [A5 - 0x4EEA]
00002CE2  65EC                     bcs        -0x12 /* 00002CD0 */
label00002CE4:
00002CE4  BC6D B116                cmp.w      D6, [A5 - 0x4EEA]
00002CE8  660C                     bne        +0xE /* 00002CF6 */
00002CEA  2F3C 0000 01C3           move.l     -[A7], 0x1C3
00002CF0  4EAD 0A42                jsr        [A5 + 0xA42 /* export_324, CODE:5 @ 000034B4 */]
00002CF4  588F                     addq.l     A7, 4
label00002CF6:
00002CF6  701C                     moveq.l    D0, 0x1C
00002CF8  C0C6                     mulu.w     D0, D6
00002CFA  47ED DFB6                lea.l      A3, [A5 - 0x204A]
00002CFE  D08B                     add.l      D0, A3
00002D00  2640                     movea.l    A3, D0
00002D02  1747 0010                move.b     [A3 + 0x10], D7
00002D06  177C 0002 0011           move.b     [A3 + 0x11], 0x2
00002D0C  422B 0012                clr.b      [A3 + 0x12]
00002D10  177C 0008 0013           move.b     [A3 + 0x13], 0x8
00002D16  422B 0015                clr.b      [A3 + 0x15]
00002D1A  176D F589 0016           move.b     [A3 + 0x16], [A5 - 0xA77]
00002D20  422B 0017                clr.b      [A3 + 0x17]
00002D24  422B 0018                clr.b      [A3 + 0x18]
00002D28  422B 0019                clr.b      [A3 + 0x19]
00002D2C  422B 001A                clr.b      [A3 + 0x1A]
00002D30  6000 FF5E                bra        -0xA0 /* 00002C90 */
00002D34  4267                     clr.w      -[A7]
00002D36  3F3C 0080                move.w     -[A7], 0x80
00002D3A  4EAD 0992                jsr        [A5 + 0x992 /* export_302, CODE:5 @ 0000335E */]
00002D3E  301F                     move.w     D0, [A7]+
00002D40  1740 0013                move.b     [A3 + 0x13], D0
00002D44  6000 FF4A                bra        -0xB4 /* 00002C90 */
00002D48  177C 0001 001A           move.b     [A3 + 0x1A], 0x1
00002D4E  6000 FF40                bra        -0xBE /* 00002C90 */
00002D52  4267                     clr.w      -[A7]
00002D54  3F3C 0080                move.w     -[A7], 0x80
00002D58  4EAD 0992                jsr        [A5 + 0x992 /* export_302, CODE:5 @ 0000335E */]
00002D5C  301F                     move.w     D0, [A7]+
00002D5E  1740 0011                move.b     [A3 + 0x11], D0
00002D62  6000 FF2C                bra        -0xD2 /* 00002C90 */
00002D66  4267                     clr.w      -[A7]
00002D68  3F3C 0080                move.w     -[A7], 0x80
00002D6C  4EAD 0992                jsr        [A5 + 0x992 /* export_302, CODE:5 @ 0000335E */]
00002D70  301F                     move.w     D0, [A7]+
00002D72  1740 0012                move.b     [A3 + 0x12], D0
00002D76  6000 FF18                bra        -0xE6 /* 00002C90 */
00002D7A  4267                     clr.w      -[A7]
00002D7C  3F3C 0080                move.w     -[A7], 0x80
00002D80  4EAD 0992                jsr        [A5 + 0x992 /* export_302, CODE:5 @ 0000335E */]
00002D84  301F                     move.w     D0, [A7]+
00002D86  1740 0014                move.b     [A3 + 0x14], D0
00002D8A  6000 FF04                bra        -0xFA /* 00002C90 */
00002D8E  4267                     clr.w      -[A7]
00002D90  1F3C 0080                move.b     -[A7], 0x80
00002D94  4EAD 099A                jsr        [A5 + 0x99A /* export_303, CODE:5 @ 00003392 */]
00002D98  369F                     move.w     [A3], [A7]+
00002D9A  4267                     clr.w      -[A7]
00002D9C  1F3C 0040                move.b     -[A7], 0x40 /* '@' */
00002DA0  4EAD 099A                jsr        [A5 + 0x99A /* export_303, CODE:5 @ 00003392 */]
00002DA4  375F 0002                move.w     [A3 + 0x2], [A7]+
00002DA8  6000 FEE6                bra        -0x118 /* 00002C90 */
00002DAC  177C 0001 0017           move.b     [A3 + 0x17], 0x1
00002DB2  6000 FEDC                bra        -0x122 /* 00002C90 */
00002DB6  422B 0017                clr.b      [A3 + 0x17]
00002DBA  6000 FED4                bra        -0x12A /* 00002C90 */
00002DBE  177C 0002 0017           move.b     [A3 + 0x17], 0x2
00002DC4  6000 FECA                bra        -0x134 /* 00002C90 */
00002DC8  4267                     clr.w      -[A7]
00002DCA  3F3C 0080                move.w     -[A7], 0x80
00002DCE  4EAD 0992                jsr        [A5 + 0x992 /* export_302, CODE:5 @ 0000335E */]
00002DD2  301F                     move.w     D0, [A7]+
00002DD4  1740 0019                move.b     [A3 + 0x19], D0
00002DD8  6000 FEB6                bra        -0x148 /* 00002C90 */
00002DDC  42A7                     clr.l      -[A7]
00002DDE  3F06                     move.w     -[A7], D6
00002DE0  3F3C 0008                move.w     -[A7], 0x8
00002DE4  4EBA 1250                jsr        [PC + 0x1250 /* 00004036 */]
00002DE8  4A46                     tst.w      D6
00002DEA  508F                     addq.l     A7, 8
00002DEC  660C                     bne        +0xE /* 00002DFA */
00002DEE  3F06                     move.w     -[A7], D6
00002DF0  3F3C 0008                move.w     -[A7], 0x8
00002DF4  4EBA 0F62                jsr        [PC + 0xF62 /* 00003D58 */]
00002DF8  588F                     addq.l     A7, 4
label00002DFA:
00002DFA  422B 0015                clr.b      [A3 + 0x15]
00002DFE  6000 FE90                bra        -0x16E /* 00002C90 */
00002E02  4267                     clr.w      -[A7]
00002E04  1F3C 0080                move.b     -[A7], 0x80
00002E08  4EAD 099A                jsr        [A5 + 0x99A /* export_303, CODE:5 @ 00003392 */]
00002E0C  3A1F                     move.w     D5, [A7]+
00002E0E  3F05                     move.w     -[A7], D5
00002E10  3F3C 0007                move.w     -[A7], 0x7
00002E14  4EBA 0ED8                jsr        [PC + 0xED8 /* 00003CEE */]
00002E18  2840                     movea.l    A4, D0
00002E1A  200C                     move.l     D0, A4
00002E1C  588F                     addq.l     A7, 4
00002E1E  660E                     bne        +0x10 /* 00002E2E */
00002E20  3F06                     move.w     -[A7], D6
00002E22  3F3C 0008                move.w     -[A7], 0x8
00002E26  4EBA 0F30                jsr        [PC + 0xF30 /* 00003D58 */]
00002E2A  588F                     addq.l     A7, 4
00002E2C  600E                     bra        +0x10 /* 00002E3C */
label00002E2E:
00002E2E  2F0C                     move.l     -[A7], A4
00002E30  3F06                     move.w     -[A7], D6
00002E32  3F3C 0008                move.w     -[A7], 0x8
00002E36  4EBA 11FE                jsr        [PC + 0x11FE /* 00004036 */]
00002E3A  508F                     addq.l     A7, 8
label00002E3C:
00002E3C  4A46                     tst.w      D6
00002E3E  660C                     bne        +0xE /* 00002E4C */
00002E40  3F06                     move.w     -[A7], D6
00002E42  3F3C 0008                move.w     -[A7], 0x8
00002E46  4EBA 0F10                jsr        [PC + 0xF10 /* 00003D58 */]
00002E4A  588F                     addq.l     A7, 4
label00002E4C:
00002E4C  422B 0015                clr.b      [A3 + 0x15]
00002E50  4EAD 09C2                jsr        [A5 + 0x9C2 /* export_308, CODE:5 @ 000029BA */]
00002E54  6000 FE3A                bra        -0x1C4 /* 00002C90 */
00002E58  4267                     clr.w      -[A7]
00002E5A  1F3C 0080                move.b     -[A7], 0x80
00002E5E  4EAD 099A                jsr        [A5 + 0x99A /* export_303, CODE:5 @ 00003392 */]
00002E62  3A1F                     move.w     D5, [A7]+
00002E64  4A46                     tst.w      D6
00002E66  6718                     beq        +0x1A /* 00002E80 */
00002E68  7800                     moveq.l    D4, 0x00
00002E6A  182D B2D7                move.b     D4, [A5 - 0x4D29]
00002E6E  3F06                     move.w     -[A7], D6
00002E70  3F05                     move.w     -[A7], D5
00002E72  3F04                     move.w     -[A7], D4
00002E74  4EAD 07BA                jsr        [A5 + 0x7BA /* export_243, CODE:4 @ 000062CA */]
00002E78  177C 0001 0015           move.b     [A3 + 0x15], 0x1
00002E7E  5C8F                     addq.l     A7, 6
label00002E80:
00002E80  4EAD 09C2                jsr        [A5 + 0x9C2 /* export_308, CODE:5 @ 000029BA */]
00002E84  6000 FE0A                bra        -0x1F4 /* 00002C90 */
00002E88  4267                     clr.w      -[A7]
00002E8A  1F3C 0080                move.b     -[A7], 0x80
00002E8E  4EAD 099A                jsr        [A5 + 0x99A /* export_303, CODE:5 @ 00003392 */]
00002E92  3A1F                     move.w     D5, [A7]+
00002E94  4267                     clr.w      -[A7]
00002E96  3F3C 0040                move.w     -[A7], 0x40 /* '@' */
00002E9A  4EAD 0992                jsr        [A5 + 0x992 /* export_302, CODE:5 @ 0000335E */]
00002E9E  381F                     move.w     D4, [A7]+
00002EA0  4A46                     tst.w      D6
00002EA2  6720                     beq        +0x22 /* 00002EC4 */
00002EA4  7000                     moveq.l    D0, 0x00
00002EA6  102B 001B                move.b     D0, [A3 + 0x1B]
00002EAA  BA40                     cmp.w      D5, D0
00002EAC  6716                     beq        +0x18 /* 00002EC4 */
00002EAE  3F06                     move.w     -[A7], D6
00002EB0  3F05                     move.w     -[A7], D5
00002EB2  3F04                     move.w     -[A7], D4
00002EB4  4EAD 07BA                jsr        [A5 + 0x7BA /* export_243, CODE:4 @ 000062CA */]
00002EB8  177C 0001 0015           move.b     [A3 + 0x15], 0x1
00002EBE  1745 001B                move.b     [A3 + 0x1B], D5
00002EC2  5C8F                     addq.l     A7, 6
label00002EC4:
00002EC4  4EAD 09C2                jsr        [A5 + 0x9C2 /* export_308, CODE:5 @ 000029BA */]
00002EC8  6000 FDC6                bra        -0x238 /* 00002C90 */
00002ECC  3F06                     move.w     -[A7], D6
00002ECE  4EAD 0B6A                jsr        [A5 + 0xB6A /* export_361, CODE:6 @ 00000436 */]
00002ED2  548F                     addq.l     A7, 2
00002ED4  6000 FDBA                bra        -0x244 /* 00002C90 */
label00002ED8:
00002ED8  4267                     clr.w      -[A7]
00002EDA  3F06                     move.w     -[A7], D6
00002EDC  4EAD 0B42                jsr        [A5 + 0xB42 /* export_356, CODE:6 @ 00000168 */]
00002EE0  4257                     clr.w      [A7]
00002EE2  4EAD 0B5A                jsr        [A5 + 0xB5A /* export_359, CODE:6 @ 00000390 */]
00002EE6  4CEE 18F0 FFE6           movem.l    D4,D5,D6,D7,A3,A4, [A6 - 0x1A]
00002EEC  4E5E                     unlink     A6
00002EEE  4E75                     rts
00002EF0  FDA0                     .invalid   <<F/6/6>>
00002EF2  FF68                     .extension 0xF68 <<F/4-5/7>> // unimplemented
00002EF4  FEEC FE62                .extension 0xEEC <<F/2-3/7>> // unimplemented
00002EF8  FE76 FE9E                .extension 0xE76 <<F/1/7>>, 0xFE9E // unimplemented
00002EFC  FEBC FEC6                .extension 0xEBC <<F/2-3/7>> // unimplemented
00002F00  FFDC                     .invalid   <<F/7/7>>
00002F02  FDCE                     .invalid   <<F/7/6>>
00002F04  FDA0                     .invalid   <<F/6/6>>
00002F06  FDA0                     .invalid   <<F/6/6>>
00002F08  FDA0                     .invalid   <<F/6/6>>
00002F0A  FDA0                     .invalid   <<F/6/6>>
00002F0C  FDA0                     .invalid   <<F/6/6>>
00002F0E  FDA0                     .invalid   <<F/6/6>>
00002F10  FE44 FECE                .extension 0xE44 <<F/1/7>>, 0xFECE // unimplemented
00002F14  FED8 FE58                .extension 0xED8 <<F/2-3/7>> // unimplemented
00002F18  FF12                     .extension 0xF12 <<F/4-5/7>> // unimplemented
00002F1A  FDA0                     .invalid   <<F/6/6>>
00002F1C  FF98                     .invalid   <<F/6/7>>
00002F1E  FE8A 4E75                .extension 0xE8A <<F/2-3/7>> // unimplemented
// begin alternate branch 00002F20-00002F22
export_98:
00002F20  4E75                     rts
// end alternate branch 00002F20-00002F22
export_98: // at 00002F20 (misaligned)
export_99:
00002F22  4E56 FFFA                link       A6, -0x0006
00002F26  48E7 0708                movem.l    -[A7], D5,D6,D7,A4
00002F2A  4EAD 09AA                jsr        [A5 + 0x9AA /* export_305, CODE:5 @ 000028E0 */]
00002F2E  1B40 ED6C                move.b     [A5 - 0x1294], D0
00002F32  7200                     moveq.l    D1, 0x00
00002F34  1200                     move.b     D1, D0
00002F36  0241 001F                andi.w     D1, 0x1F
00002F3A  6700 017A                beq        +0x17C /* 000030B6 */
00002F3E  6B00 0176                bmi        +0x178 /* 000030B6 */
00002F42  5941                     subq.w     D1, 4
00002F44  6700 00D2                beq        +0xD4 /* 00003018 */
00002F48  6A08                     bpl        +0xA /* 00002F52 */
00002F4A  5441                     addq.w     D1, 2
00002F4C  672C                     beq        +0x2E /* 00002F7A */
00002F4E  6A74                     bpl        +0x76 /* 00002FC4 */
00002F50  600A                     bra        +0xC /* 00002F5C */
label00002F52:
00002F52  5541                     subq.w     D1, 2
00002F54  6A00 0160                bpl        +0x162 /* 000030B6 */
00002F58  6000 0110                bra        +0x112 /* 0000306A */
label00002F5C:
00002F5C  4267                     clr.w      -[A7]
00002F5E  3F3C 0080                move.w     -[A7], 0x80
00002F62  4EAD 0992                jsr        [A5 + 0x992 /* export_302, CODE:5 @ 0000335E */]
00002F66  3E1F                     move.w     D7, [A7]+
00002F68  42A7                     clr.l      -[A7]
00002F6A  3F07                     move.w     -[A7], D7
00002F6C  3F3C 0007                move.w     -[A7], 0x7
00002F70  4EBA 10C4                jsr        [PC + 0x10C4 /* 00004036 */]
00002F74  508F                     addq.l     A7, 8
00002F76  6000 013E                bra        +0x140 /* 000030B6 */
label00002F7A:
00002F7A  4267                     clr.w      -[A7]
00002F7C  3F3C 0080                move.w     -[A7], 0x80
00002F80  4EAD 0992                jsr        [A5 + 0x992 /* export_302, CODE:5 @ 0000335E */]
00002F84  3E1F                     move.w     D7, [A7]+
00002F86  4267                     clr.w      -[A7]
00002F88  3F3C 0040                move.w     -[A7], 0x40 /* '@' */
00002F8C  4EAD 0992                jsr        [A5 + 0x992 /* export_302, CODE:5 @ 0000335E */]
00002F90  3C1F                     move.w     D6, [A7]+
00002F92  3F07                     move.w     -[A7], D7
00002F94  3F3C 0007                move.w     -[A7], 0x7
00002F98  4EBA 0DBE                jsr        [PC + 0xDBE /* 00003D58 */]
00002F9C  3E86                     move.w     [A7], D6
00002F9E  3F3C 0007                move.w     -[A7], 0x7
00002FA2  4EBA 0D4A                jsr        [PC + 0xD4A /* 00003CEE */]
00002FA6  2840                     movea.l    A4, D0
00002FA8  200C                     move.l     D0, A4
00002FAA  5C8F                     addq.l     A7, 6
00002FAC  670E                     beq        +0x10 /* 00002FBC */
00002FAE  2F0C                     move.l     -[A7], A4
00002FB0  3F07                     move.w     -[A7], D7
00002FB2  3F3C 0007                move.w     -[A7], 0x7
00002FB6  4EBA 107E                jsr        [PC + 0x107E /* 00004036 */]
00002FBA  508F                     addq.l     A7, 8
label00002FBC:
00002FBC  4EAD 09C2                jsr        [A5 + 0x9C2 /* export_308, CODE:5 @ 000029BA */]
00002FC0  6000 00F4                bra        +0xF6 /* 000030B6 */
label00002FC4:
00002FC4  4267                     clr.w      -[A7]
00002FC6  3F3C 0080                move.w     -[A7], 0x80
00002FCA  4EAD 0992                jsr        [A5 + 0x992 /* export_302, CODE:5 @ 0000335E */]
00002FCE  3E1F                     move.w     D7, [A7]+
00002FD0  4267                     clr.w      -[A7]
00002FD2  3F3C 0040                move.w     -[A7], 0x40 /* '@' */
00002FD6  4EAD 0992                jsr        [A5 + 0x992 /* export_302, CODE:5 @ 0000335E */]
00002FDA  3C1F                     move.w     D6, [A7]+
00002FDC  3F07                     move.w     -[A7], D7
00002FDE  3F3C 0007                move.w     -[A7], 0x7
00002FE2  4EBA 0D0A                jsr        [PC + 0xD0A /* 00003CEE */]
00002FE6  2840                     movea.l    A4, D0
00002FE8  200C                     move.l     D0, A4
00002FEA  588F                     addq.l     A7, 4
00002FEC  660E                     bne        +0x10 /* 00002FFC */
00002FEE  3F07                     move.w     -[A7], D7
00002FF0  2F3C 0000 01D3           move.l     -[A7], 0x1D3
00002FF6  4EAD 0A42                jsr        [A5 + 0xA42 /* export_324, CODE:5 @ 000034B4 */]
00002FFA  5C8F                     addq.l     A7, 6
label00002FFC:
00002FFC  4267                     clr.w      -[A7]
00002FFE  3F3C 0020                move.w     -[A7], 0x20 /* ' ' */
00003002  4EAD 0992                jsr        [A5 + 0x992 /* export_302, CODE:5 @ 0000335E */]
00003006  301F                     move.w     D0, [A7]+
00003008  7200                     moveq.l    D1, 0x00
0000300A  3206                     move.w     D1, D6
0000300C  1980 1800                move.b     [A4 + D1], D0
00003010  4EAD 09C2                jsr        [A5 + 0x9C2 /* export_308, CODE:5 @ 000029BA */]
00003014  6000 00A0                bra        +0xA2 /* 000030B6 */
label00003018:
00003018  4EAD 0A2A                jsr        [A5 + 0xA2A /* export_321, CODE:5 @ 00003318 */]
0000301C  4267                     clr.w      -[A7]
0000301E  3F3C 0080                move.w     -[A7], 0x80
00003022  4EAD 0992                jsr        [A5 + 0x992 /* export_302, CODE:5 @ 0000335E */]
00003026  3E1F                     move.w     D7, [A7]+
00003028  4267                     clr.w      -[A7]
0000302A  3F3C 0040                move.w     -[A7], 0x40 /* '@' */
0000302E  4EAD 0992                jsr        [A5 + 0x992 /* export_302, CODE:5 @ 0000335E */]
00003032  3C1F                     move.w     D6, [A7]+
00003034  3F07                     move.w     -[A7], D7
00003036  3F3C 0007                move.w     -[A7], 0x7
0000303A  4EBA 0CB2                jsr        [PC + 0xCB2 /* 00003CEE */]
0000303E  2840                     movea.l    A4, D0
00003040  200C                     move.l     D0, A4
00003042  588F                     addq.l     A7, 4
00003044  660E                     bne        +0x10 /* 00003054 */
00003046  3F07                     move.w     -[A7], D7
00003048  2F3C 0000 01ED           move.l     -[A7], 0x1ED
0000304E  4EAD 0A42                jsr        [A5 + 0xA42 /* export_324, CODE:5 @ 000034B4 */]
00003052  5C8F                     addq.l     A7, 6
label00003054:
00003054  7000                     moveq.l    D0, 0x00
00003056  3006                     move.w     D0, D6
00003058  7200                     moveq.l    D1, 0x00
0000305A  1234 0800                move.b     D1, [A4 + D0]
0000305E  3F01                     move.w     -[A7], D1
00003060  4EAD 0982                jsr        [A5 + 0x982 /* export_300, CODE:5 @ 00003234 */]
00003064  4EAD 09C2                jsr        [A5 + 0x9C2 /* export_308, CODE:5 @ 000029BA */]
00003068  604C                     bra        +0x4E /* 000030B6 */
label0000306A:
0000306A  4267                     clr.w      -[A7]
0000306C  3F3C 0080                move.w     -[A7], 0x80
00003070  4EAD 0992                jsr        [A5 + 0x992 /* export_302, CODE:5 @ 0000335E */]
00003074  3E1F                     move.w     D7, [A7]+
00003076  4267                     clr.w      -[A7]
00003078  3F3C 0040                move.w     -[A7], 0x40 /* '@' */
0000307C  4EAD 0992                jsr        [A5 + 0x992 /* export_302, CODE:5 @ 0000335E */]
00003080  3A1F                     move.w     D5, [A7]+
00003082  3F07                     move.w     -[A7], D7
00003084  3F3C 0007                move.w     -[A7], 0x7
00003088  4EBA 0CCE                jsr        [PC + 0xCCE /* 00003D58 */]
0000308C  4A45                     tst.w      D5
0000308E  588F                     addq.l     A7, 4
00003090  6720                     beq        +0x22 /* 000030B2 */
00003092  7000                     moveq.l    D0, 0x00
00003094  3005                     move.w     D0, D5
00003096  2F00                     move.l     -[A7], D0
00003098  3F07                     move.w     -[A7], D7
0000309A  3F3C 0007                move.w     -[A7], 0x7
0000309E  4EBA 0CF2                jsr        [PC + 0xCF2 /* 00003D92 */]
000030A2  2840                     movea.l    A4, D0
000030A4  7C00                     moveq.l    D6, 0x00
000030A6  508F                     addq.l     A7, 8
000030A8  6004                     bra        +0x6 /* 000030AE */
label000030AA:
000030AA  421C                     clr.b      [A4]+
000030AC  5246                     addq.w     D6, 1
label000030AE:
000030AE  BA46                     cmp.w      D5, D6
000030B0  62F8                     bhi        -0x6 /* 000030AA */
label000030B2:
000030B2  4EAD 09C2                jsr        [A5 + 0x9C2 /* export_308, CODE:5 @ 000029BA */]
label000030B6:
000030B6  4CDF 10E0                movem.l    D5,D6,D7,A4, [A7]+
000030BA  4E5E                     unlink     A6
000030BC  4E75                     rts
export_100:
000030BE  48E7 0F08                movem.l    -[A7], D4,D5,D6,D7,A4
000030C2  4EAD 09AA                jsr        [A5 + 0x9AA /* export_305, CODE:5 @ 000028E0 */]
000030C6  1B40 ED6C                move.b     [A5 - 0x1294], D0
000030CA  4267                     clr.w      -[A7]
000030CC  3F3C 0080                move.w     -[A7], 0x80
000030D0  4EAD 0992                jsr        [A5 + 0x992 /* export_302, CODE:5 @ 0000335E */]
000030D4  3E1F                     move.w     D7, [A7]+
000030D6  4267                     clr.w      -[A7]
000030D8  3F3C 0040                move.w     -[A7], 0x40 /* '@' */
000030DC  4EAD 0992                jsr        [A5 + 0x992 /* export_302, CODE:5 @ 0000335E */]
000030E0  3C1F                     move.w     D6, [A7]+
000030E2  4267                     clr.w      -[A7]
000030E4  3F3C 0020                move.w     -[A7], 0x20 /* ' ' */
000030E8  4EAD 0992                jsr        [A5 + 0x992 /* export_302, CODE:5 @ 0000335E */]
000030EC  3A1F                     move.w     D5, [A7]+
000030EE  102D ED6C                move.b     D0, [A5 - 0x1294]
000030F2  6700 00C4                beq        +0xC6 /* 000031B8 */
000030F6  6B00 00C0                bmi        +0xC2 /* 000031B8 */
000030FA  5700                     subq.b     D0, 3
000030FC  6700 009A                beq        +0x9C /* 00003198 */
00003100  6A00 00B6                bpl        +0xB8 /* 000031B8 */
00003104  5200                     addq.b     D0, 1
00003106  6A3C                     bpl        +0x3E /* 00003144 */
00003108  3807                     move.w     D4, D7
0000310A  6032                     bra        +0x34 /* 0000313E */
label0000310C:
0000310C  4267                     clr.w      -[A7]
0000310E  3F04                     move.w     -[A7], D4
00003110  4EAD 0B62                jsr        [A5 + 0xB62 /* export_360, CODE:6 @ 000003F4 */]
00003114  3E00                     move.w     D7, D0
00003116  588F                     addq.l     A7, 4
00003118  6722                     beq        +0x24 /* 0000313C */
0000311A  701C                     moveq.l    D0, 0x1C
0000311C  C0C7                     mulu.w     D0, D7
0000311E  49ED DFCE                lea.l      A4, [A5 - 0x2032]
00003122  D08C                     add.l      D0, A4
00003124  2840                     movea.l    A4, D0
00003126  4A14                     tst.b      [A4]
00003128  6612                     bne        +0x14 /* 0000313C */
0000312A  1885                     move.b     [A4], D5
0000312C  4267                     clr.w      -[A7]
0000312E  3F07                     move.w     -[A7], D7
00003130  4EAD 0B42                jsr        [A5 + 0xB42 /* export_356, CODE:6 @ 00000168 */]
00003134  4257                     clr.w      [A7]
00003136  4EAD 0B5A                jsr        [A5 + 0xB5A /* export_359, CODE:6 @ 00000390 */]
0000313A  588F                     addq.l     A7, 4
label0000313C:
0000313C  5244                     addq.w     D4, 1
label0000313E:
0000313E  BC44                     cmp.w      D6, D4
00003140  64CA                     bcc        -0x34 /* 0000310C */
00003142  6074                     bra        +0x76 /* 000031B8 */
label00003144:
00003144  3807                     move.w     D4, D7
00003146  604A                     bra        +0x4C /* 00003192 */
label00003148:
00003148  3F05                     move.w     -[A7], D5
0000314A  3F04                     move.w     -[A7], D4
0000314C  4EAD 0B62                jsr        [A5 + 0xB62 /* export_360, CODE:6 @ 000003F4 */]
00003150  4A40                     tst.w      D0
00003152  588F                     addq.l     A7, 4
00003154  673A                     beq        +0x3C /* 00003190 */
00003156  4267                     clr.w      -[A7]
00003158  3F04                     move.w     -[A7], D4
0000315A  4EAD 0B62                jsr        [A5 + 0xB62 /* export_360, CODE:6 @ 000003F4 */]
0000315E  3E00                     move.w     D7, D0
00003160  588F                     addq.l     A7, 4
00003162  6708                     beq        +0xA /* 0000316C */
00003164  3F07                     move.w     -[A7], D7
00003166  4EAD 0B6A                jsr        [A5 + 0xB6A /* export_361, CODE:6 @ 00000436 */]
0000316A  548F                     addq.l     A7, 2
label0000316C:
0000316C  3F05                     move.w     -[A7], D5
0000316E  3F04                     move.w     -[A7], D4
00003170  4EAD 0B62                jsr        [A5 + 0xB62 /* export_360, CODE:6 @ 000003F4 */]
00003174  3E00                     move.w     D7, D0
00003176  701C                     moveq.l    D0, 0x1C
00003178  C0C7                     mulu.w     D0, D7
0000317A  4235 0920 DFCE           clr.b      [A5 - 0x2032 + D0]
00003180  4257                     clr.w      [A7]
00003182  3F07                     move.w     -[A7], D7
00003184  4EAD 0B42                jsr        [A5 + 0xB42 /* export_356, CODE:6 @ 00000168 */]
00003188  4257                     clr.w      [A7]
0000318A  4EAD 0B5A                jsr        [A5 + 0xB5A /* export_359, CODE:6 @ 00000390 */]
0000318E  5C8F                     addq.l     A7, 6
label00003190:
00003190  5244                     addq.w     D4, 1
label00003192:
00003192  BC44                     cmp.w      D6, D4
00003194  64B2                     bcc        -0x4C /* 00003148 */
00003196  6020                     bra        +0x22 /* 000031B8 */
label00003198:
00003198  3807                     move.w     D4, D7
0000319A  6018                     bra        +0x1A /* 000031B4 */
label0000319C:
0000319C  3F05                     move.w     -[A7], D5
0000319E  3F04                     move.w     -[A7], D4
000031A0  4EAD 0B62                jsr        [A5 + 0xB62 /* export_360, CODE:6 @ 000003F4 */]
000031A4  3E00                     move.w     D7, D0
000031A6  588F                     addq.l     A7, 4
000031A8  6708                     beq        +0xA /* 000031B2 */
000031AA  3F07                     move.w     -[A7], D7
000031AC  4EAD 0B6A                jsr        [A5 + 0xB6A /* export_361, CODE:6 @ 00000436 */]
000031B0  548F                     addq.l     A7, 2
label000031B2:
000031B2  5244                     addq.w     D4, 1
label000031B4:
000031B4  BC44                     cmp.w      D6, D4
000031B6  64E4                     bcc        -0x1A /* 0000319C */
label000031B8:
000031B8  4CDF 10F0                movem.l    D4,D5,D6,D7,A4, [A7]+
000031BC  4E75                     rts
export_101:
000031BE  4E56 FFE0                link       A6, -0x0020
000031C2  48E7 0F08                movem.l    -[A7], D4,D5,D6,D7,A4
000031C6  4267                     clr.w      -[A7]
000031C8  3F3C 0080                move.w     -[A7], 0x80
000031CC  4EAD 0992                jsr        [A5 + 0x992 /* export_302, CODE:5 @ 0000335E */]
000031D0  3E1F                     move.w     D7, [A7]+
label000031D2:
000031D2  4EAD 09AA                jsr        [A5 + 0x9AA /* export_305, CODE:5 @ 000028E0 */]
000031D6  1B40 ED6C                move.b     [A5 - 0x1294], D0
000031DA  7200                     moveq.l    D1, 0x00
000031DC  1200                     move.b     D1, D0
000031DE  0C41 00FF                cmpi.w     D1, 0xFF
000031E2  6700 039C                beq        +0x39E /* 00003580 */
000031E6  7000                     moveq.l    D0, 0x00
000031E8  102D ED6C                move.b     D0, [A5 - 0x1294]
000031EC  0240 001F                andi.w     D0, 0x1F
000031F0  0C40 0017                cmpi.w     D0, 0x17
000031F4  62DC                     bhi        -0x22 /* 000031D2 */
000031F6  43FA 0390                lea.l      A1, [PC + 0x390 /* 00003588, value 0xFC4AFD24 */]
000031FA  D2F1 0200                add.w      A1, [A1 + D0.w * 2]
000031FE  4ED1                     jmp        [A1]
00003200  4267                     clr.w      -[A7]
00003202  3F3C 0080                move.w     -[A7], 0x80
00003206  4EAD 0992                jsr        [A5 + 0x992 /* export_302, CODE:5 @ 0000335E */]
0000320A  301F                     move.w     D0, [A7]+
0000320C  7200                     moveq.l    D1, 0x00
0000320E  3207                     move.w     D1, D7
00003210  1B80 1920 D689           move.b     [A5 - 0x2977 + D1], D0
00003216  60BA                     bra        -0x44 /* 000031D2 */
00003218  7000                     moveq.l    D0, 0x00
0000321A  3007                     move.w     D0, D7
0000321C  4235 0920 D689           clr.b      [A5 - 0x2977 + D0]
00003222  60AE                     bra        -0x50 /* 000031D2 */
00003224  7C00                     moveq.l    D6, 0x00
00003226  3C07                     move.w     D6, D7
00003228  4235 6920 D67C           clr.b      [A5 - 0x2984 + D6]
0000322E  4235 6920 D689           clr.b      [A5 - 0x2977 + D6]
00003234  7000                     moveq.l    D0, 0x00
00003236  3007                     move.w     D0, D7
00003238  49ED D395                lea.l      A4, [A5 - 0x2C6B]
0000323C  D08C                     add.l      D0, A4
0000323E  2840                     movea.l    A4, D0
00003240  1014                     move.b     D0, [A4]
00003242  B02D B2D6                cmp.b      D0, [A5 - 0x4D2A]
00003246  668A                     bne        -0x74 /* 000031D2 */
00003248  7000                     moveq.l    D0, 0x00
0000324A  1014                     move.b     D0, [A4]
0000324C  3F00                     move.w     -[A7], D0
0000324E  3F35 6B20 D3CA           move.w     -[A7], [A5 - 0x2C36 + D6 * 2]
00003254  3F35 6B20 D3B0           move.w     -[A7], [A5 - 0x2C50 + D6 * 2]
0000325A  3F07                     move.w     -[A7], D7
0000325C  4EBA D186                jsr        [PC - 0x2E7A /* 000003E4 */]
00003260  508F                     addq.l     A7, 8
00003262  6000 FF6E                bra        -0x90 /* 000031D2 */
00003266  7C00                     moveq.l    D6, 0x00
00003268  3C07                     move.w     D6, D7
0000326A  1BBC 0001 6920 D67C      move.b     [A5 - 0x2984 + D6], 0x1
00003272  4235 6920 D689           clr.b      [A5 - 0x2977 + D6]
00003278  7000                     moveq.l    D0, 0x00
0000327A  3007                     move.w     D0, D7
0000327C  49ED D395                lea.l      A4, [A5 - 0x2C6B]
00003280  D08C                     add.l      D0, A4
00003282  2840                     movea.l    A4, D0
00003284  1014                     move.b     D0, [A4]
00003286  B02D B2D6                cmp.b      D0, [A5 - 0x4D2A]
0000328A  6600 FF46                bne        -0xB8 /* 000031D2 */
0000328E  7000                     moveq.l    D0, 0x00
00003290  1014                     move.b     D0, [A4]
00003292  3F00                     move.w     -[A7], D0
00003294  3F35 6B20 D3CA           move.w     -[A7], [A5 - 0x2C36 + D6 * 2]
0000329A  3F35 6B20 D3B0           move.w     -[A7], [A5 - 0x2C50 + D6 * 2]
000032A0  3F07                     move.w     -[A7], D7
000032A2  4EBA D140                jsr        [PC - 0x2EC0 /* 000003E4 */]
000032A6  508F                     addq.l     A7, 8
000032A8  6000 FF28                bra        -0xD6 /* 000031D2 */
000032AC  4267                     clr.w      -[A7]
000032AE  3F3C 0080                move.w     -[A7], 0x80
000032B2  4EAD 0992                jsr        [A5 + 0x992 /* export_302, CODE:5 @ 0000335E */]
000032B6  3C1F                     move.w     D6, [A7]+
000032B8  3F06                     move.w     -[A7], D6
000032BA  3F07                     move.w     -[A7], D7
000032BC  4EBA D218                jsr        [PC - 0x2DE8 /* 000004D6 */]
000032C0  4EAD 09C2                jsr        [A5 + 0x9C2 /* export_308, CODE:5 @ 000029BA */]
000032C4  588F                     addq.l     A7, 4
000032C6  6000 FF0A                bra        -0xF4 /* 000031D2 */
000032CA  4267                     clr.w      -[A7]
000032CC  3F3C 0080                move.w     -[A7], 0x80
000032D0  4EAD 0992                jsr        [A5 + 0x992 /* export_302, CODE:5 @ 0000335E */]
000032D4  7000                     moveq.l    D0, 0x00
000032D6  3007                     move.w     D0, D7
000032D8  3B9F 0B20 D62E           move.w     [A5 - 0x29D2 + D0 * 2], [A7]+
000032DE  6000 FEF2                bra        -0x10C /* 000031D2 */
000032E2  4267                     clr.w      -[A7]
000032E4  3F3C 0080                move.w     -[A7], 0x80
000032E8  4EAD 0992                jsr        [A5 + 0x992 /* export_302, CODE:5 @ 0000335E */]
000032EC  3C1F                     move.w     D6, [A7]+
000032EE  4267                     clr.w      -[A7]
000032F0  3F3C 0040                move.w     -[A7], 0x40 /* '@' */
000032F4  4EAD 0992                jsr        [A5 + 0x992 /* export_302, CODE:5 @ 0000335E */]
000032F8  3A1F                     move.w     D5, [A7]+
000032FA  3F05                     move.w     -[A7], D5
000032FC  3F06                     move.w     -[A7], D6
000032FE  3F07                     move.w     -[A7], D7
00003300  4EAD 0B8A                jsr        [A5 + 0xB8A /* export_365, CODE:6 @ 0000110A */]
00003304  5C8F                     addq.l     A7, 6
00003306  6000 FECA                bra        -0x134 /* 000031D2 */
0000330A  4267                     clr.w      -[A7]
0000330C  3F3C 0080                move.w     -[A7], 0x80
00003310  4EAD 0992                jsr        [A5 + 0x992 /* export_302, CODE:5 @ 0000335E */]
00003314  301F                     move.w     D0, [A7]+
00003316  7200                     moveq.l    D1, 0x00
00003318  3207                     move.w     D1, D7
0000331A  1B80 1920 D43F           move.b     [A5 - 0x2BC1 + D1], D0
00003320  6000 FEB0                bra        -0x14E /* 000031D2 */
00003324  7C00                     moveq.l    D6, 0x00
00003326  3C07                     move.w     D6, D7
00003328  4267                     clr.w      -[A7]
0000332A  3F3C 0080                move.w     -[A7], 0x80
0000332E  4EAD 0992                jsr        [A5 + 0x992 /* export_302, CODE:5 @ 0000335E */]
00003332  301F                     move.w     D0, [A7]+
00003334  1B80 6920 D614           move.b     [A5 - 0x29EC + D6], D0
0000333A  4267                     clr.w      -[A7]
0000333C  3F3C 0040                move.w     -[A7], 0x40 /* '@' */
00003340  4EAD 0992                jsr        [A5 + 0x992 /* export_302, CODE:5 @ 0000335E */]
00003344  301F                     move.w     D0, [A7]+
00003346  1B80 6920 D621           move.b     [A5 - 0x29DF + D6], D0
0000334C  1BBC 0001 6920 D6D7      move.b     [A5 - 0x2929 + D6], 0x1
00003354  1BBC 0001 6920 D6E4      move.b     [A5 - 0x291C + D6], 0x1
0000335C  6000 FE74                bra        -0x18A /* 000031D2 */
00003360  4267                     clr.w      -[A7]
00003362  3F3C 0080                move.w     -[A7], 0x80
00003366  4EAD 0992                jsr        [A5 + 0x992 /* export_302, CODE:5 @ 0000335E */]
0000336A  301F                     move.w     D0, [A7]+
0000336C  7200                     moveq.l    D1, 0x00
0000336E  3207                     move.w     D1, D7
00003370  1B80 1920 D732           move.b     [A5 - 0x28CE + D1], D0
00003376  6000 FE5A                bra        -0x1A4 /* 000031D2 */
0000337A  4267                     clr.w      -[A7]
0000337C  3F3C 0080                move.w     -[A7], 0x80
00003380  4EAD 0992                jsr        [A5 + 0x992 /* export_302, CODE:5 @ 0000335E */]
00003384  301F                     move.w     D0, [A7]+
00003386  7200                     moveq.l    D1, 0x00
00003388  3207                     move.w     D1, D7
0000338A  1B80 1920 D73F           move.b     [A5 - 0x28C1 + D1], D0
00003390  6000 FE40                bra        -0x1BE /* 000031D2 */
00003394  4267                     clr.w      -[A7]
00003396  3F3C 0080                move.w     -[A7], 0x80
0000339A  4EAD 0992                jsr        [A5 + 0x992 /* export_302, CODE:5 @ 0000335E */]
0000339E  301F                     move.w     D0, [A7]+
000033A0  7200                     moveq.l    D1, 0x00
000033A2  3207                     move.w     D1, D7
000033A4  1B80 1920 D74C           move.b     [A5 - 0x28B4 + D1], D0
000033AA  6000 FE26                bra        -0x1D8 /* 000031D2 */
000033AE  4267                     clr.w      -[A7]
000033B0  3F3C 0080                move.w     -[A7], 0x80
000033B4  4EAD 0992                jsr        [A5 + 0x992 /* export_302, CODE:5 @ 0000335E */]
000033B8  301F                     move.w     D0, [A7]+
000033BA  7200                     moveq.l    D1, 0x00
000033BC  3207                     move.w     D1, D7
000033BE  1B80 1920 D44C           move.b     [A5 - 0x2BB4 + D1], D0
000033C4  6000 FE0C                bra        -0x1F2 /* 000031D2 */
000033C8  7C00                     moveq.l    D6, 0x00
000033CA  3C07                     move.w     D6, D7
000033CC  4235 6920 D6A3           clr.b      [A5 - 0x295D + D6]
000033D2  4267                     clr.w      -[A7]
000033D4  3F3C 0080                move.w     -[A7], 0x80
000033D8  4EAD 0992                jsr        [A5 + 0x992 /* export_302, CODE:5 @ 0000335E */]
000033DC  301F                     move.w     D0, [A7]+
000033DE  1B80 6920 D696           move.b     [A5 - 0x296A + D6], D0
000033E4  6000 FDEC                bra        -0x212 /* 000031D2 */
000033E8  7C00                     moveq.l    D6, 0x00
000033EA  3C07                     move.w     D6, D7
000033EC  4267                     clr.w      -[A7]
000033EE  3F3C 0080                move.w     -[A7], 0x80
000033F2  4EAD 0992                jsr        [A5 + 0x992 /* export_302, CODE:5 @ 0000335E */]
000033F6  301F                     move.w     D0, [A7]+
000033F8  1B80 6920 D759           move.b     [A5 - 0x28A7 + D6], D0
000033FE  4267                     clr.w      -[A7]
00003400  3F3C 0040                move.w     -[A7], 0x40 /* '@' */
00003404  4EAD 0992                jsr        [A5 + 0x992 /* export_302, CODE:5 @ 0000335E */]
00003408  301F                     move.w     D0, [A7]+
0000340A  1B80 6920 D766           move.b     [A5 - 0x289A + D6], D0
00003410  6000 FDC0                bra        -0x23E /* 000031D2 */
00003414  4267                     clr.w      -[A7]
00003416  3F3C 0080                move.w     -[A7], 0x80
0000341A  4EAD 0992                jsr        [A5 + 0x992 /* export_302, CODE:5 @ 0000335E */]
0000341E  4257                     clr.w      [A7]
00003420  3F3C 0040                move.w     -[A7], 0x40 /* '@' */
00003424  4EAD 0992                jsr        [A5 + 0x992 /* export_302, CODE:5 @ 0000335E */]
00003428  4257                     clr.w      [A7]
0000342A  3F3C 0020                move.w     -[A7], 0x20 /* ' ' */
0000342E  4EAD 0992                jsr        [A5 + 0x992 /* export_302, CODE:5 @ 0000335E */]
00003432  548F                     addq.l     A7, 2
00003434  6000 FD9C                bra        -0x262 /* 000031D2 */
00003438  4267                     clr.w      -[A7]
0000343A  3F07                     move.w     -[A7], D7
0000343C  4EAD 061A                jsr        [A5 + 0x61A /* export_191, CODE:3 @ 00003002 */]
00003440  588F                     addq.l     A7, 4
00003442  6000 FD8E                bra        -0x270 /* 000031D2 */
00003446  7C00                     moveq.l    D6, 0x00
00003448  3C07                     move.w     D6, D7
0000344A  4267                     clr.w      -[A7]
0000344C  1F3C 0080                move.b     -[A7], 0x80
00003450  4EAD 099A                jsr        [A5 + 0x99A /* export_303, CODE:5 @ 00003392 */]
00003454  3B9F 6B20 D418           move.w     [A5 - 0x2BE8 + D6 * 2], [A7]+
0000345A  1BBC 0001 6920 D6D7      move.b     [A5 - 0x2929 + D6], 0x1
00003462  1BBC 0001 6920 D6E4      move.b     [A5 - 0x291C + D6], 0x1
0000346A  6000 FD66                bra        -0x298 /* 000031D2 */
0000346E  7C00                     moveq.l    D6, 0x00
00003470  3C07                     move.w     D6, D7
00003472  4267                     clr.w      -[A7]
00003474  3F3C 0080                move.w     -[A7], 0x80
00003478  4EAD 0992                jsr        [A5 + 0x992 /* export_302, CODE:5 @ 0000335E */]
0000347C  301F                     move.w     D0, [A7]+
0000347E  1B80 6920 D607           move.b     [A5 - 0x29F9 + D6], D0
00003484  1BBC 0001 6920 D6D7      move.b     [A5 - 0x2929 + D6], 0x1
0000348C  1BBC 0001 6920 D6E4      move.b     [A5 - 0x291C + D6], 0x1
00003494  6000 FD3C                bra        -0x2C2 /* 000031D2 */
00003498  42A7                     clr.l      -[A7]
0000349A  3F07                     move.w     -[A7], D7
0000349C  3F3C 0009                move.w     -[A7], 0x9 /* '\t' */
000034A0  4EBA 0B94                jsr        [PC + 0xB94 /* 00004036 */]
000034A4  508F                     addq.l     A7, 8
000034A6  6000 FD2A                bra        -0x2D4 /* 000031D2 */
000034AA  7C00                     moveq.l    D6, 0x00
000034AC  3C07                     move.w     D6, D7
000034AE  1BBC 0001 6920 D732      move.b     [A5 - 0x28CE + D6], 0x1
000034B6  1BBC 0002 6920 D73F      move.b     [A5 - 0x28C1 + D6], 0x2
000034BE  1BBC 0003 6920 D74C      move.b     [A5 - 0x28B4 + D6], 0x3
000034C6  1BBC 0004 6920 D759      move.b     [A5 - 0x28A7 + D6], 0x4
000034CE  1BBC 0005 6920 D766      move.b     [A5 - 0x289A + D6], 0x5
000034D6  6000 FCFA                bra        -0x304 /* 000031D2 */
000034DA  4267                     clr.w      -[A7]
000034DC  3F3C 0080                move.w     -[A7], 0x80
000034E0  4EAD 0992                jsr        [A5 + 0x992 /* export_302, CODE:5 @ 0000335E */]
000034E4  3A1F                     move.w     D5, [A7]+
000034E6  4267                     clr.w      -[A7]
000034E8  3F3C 0040                move.w     -[A7], 0x40 /* '@' */
000034EC  4EAD 0992                jsr        [A5 + 0x992 /* export_302, CODE:5 @ 0000335E */]
000034F0  381F                     move.w     D4, [A7]+
000034F2  7C00                     moveq.l    D6, 0x00
000034F4  3C07                     move.w     D6, D7
000034F6  2006                     move.l     D0, D6
000034F8  EB88                     lsl        D0, 5
000034FA  7200                     moveq.l    D1, 0x00
000034FC  3205                     move.w     D1, D5
000034FE  41ED D45A                lea.l      A0, [A5 - 0x2BA6]
00003502  D088                     add.l      D0, A0
00003504  D081                     add.l      D0, D1
00003506  2040                     movea.l    A0, D0
00003508  1084                     move.b     [A0], D4
0000350A  1BBC 0001 6920 D6D7      move.b     [A5 - 0x2929 + D6], 0x1
00003512  6000 FCBE                bra        -0x340 /* 000031D2 */
00003516  7A00                     moveq.l    D5, 0x00
00003518  600C                     bra        +0xE /* 00003526 */
label0000351A:
0000351A  7000                     moveq.l    D0, 0x00
0000351C  3005                     move.w     D0, D5
0000351E  3DBC 00FF 0AE0           move.w     [A6 + D0 * 2 - 0x20], 0xFF
00003524  5245                     addq.w     D5, 1
label00003526:
00003526  0C45 0010                cmpi.w     D5, 0x10
0000352A  65EE                     bcs        -0x10 /* 0000351A */
0000352C  486E FFE0                pea.l      [A6 - 0x20]
00003530  4EAD 0A32                jsr        [A5 + 0xA32 /* export_322, CODE:5 @ 000033C6 */]
00003534  7A00                     moveq.l    D5, 0x00
00003536  588F                     addq.l     A7, 4
00003538  6028                     bra        +0x2A /* 00003562 */
label0000353A:
0000353A  7000                     moveq.l    D0, 0x00
0000353C  3005                     move.w     D0, D5
0000353E  49F6 0AE0                lea.l      A4, [A6 + D0 * 2 - 0x20]
00003542  7C00                     moveq.l    D6, 0x00
00003544  3C05                     move.w     D6, D5
00003546  0C54 00FF                cmpi.w     [A4], 0xFF
0000354A  6714                     beq        +0x16 /* 00003560 */
0000354C  7000                     moveq.l    D0, 0x00
0000354E  3007                     move.w     D0, D7
00003550  EB88                     lsl        D0, 5
00003552  41ED D45A                lea.l      A0, [A5 - 0x2BA6]
00003556  D088                     add.l      D0, A0
00003558  D086                     add.l      D0, D6
0000355A  2040                     movea.l    A0, D0
0000355C  10AC 0001                move.b     [A0], [A4 + 0x1]
label00003560:
00003560  5245                     addq.w     D5, 1
label00003562:
00003562  0C45 0010                cmpi.w     D5, 0x10
00003566  65D2                     bcs        -0x2C /* 0000353A */
00003568  7C00                     moveq.l    D6, 0x00
0000356A  3C07                     move.w     D6, D7
0000356C  1BBC 0001 6920 D6D7      move.b     [A5 - 0x2929 + D6], 0x1
00003574  1BBC 0001 6920 D6E4      move.b     [A5 - 0x291C + D6], 0x1
0000357C  6000 FC54                bra        -0x3AA /* 000031D2 */
label00003580:
00003580  4CDF 10F0                movem.l    D4,D5,D6,D7,A4, [A7]+
00003584  4E5E                     unlink     A6
00003586  4E75                     rts
00003588  FC4A FD24                .extension 0xC4A <<F/1/6>>, 0xFD24 // unimplemented
0000358C  FD5A                     .extension 0xD5A <<F/4-5/6>> // unimplemented
0000358E  FD82                     .invalid   <<F/6/6>>
00003590  FDF2                     .invalid   <<F/7/6>>
00003592  FE60 FE0C                .extension 0xE60 <<F/1/7>>, 0xFE0C // unimplemented
00003596  FE8C FEB0                .extension 0xE8C <<F/2-3/7>> // unimplemented
0000359A  FEBE FF22                .extension 0xEBE <<F/2-3/7>> // unimplemented
0000359E  FF52                     .extension 0xF52 <<F/4-5/7>> // unimplemented
000035A0  FE26 FF10                .unknown   0xFE26 0xFF10 (W = 7)
000035A4  FDD8                     .invalid   <<F/7/6>>
000035A6  FF8E                     .invalid   <<F/6/7>>
000035A8  FD42                     .extension 0xD42 <<F/4-5/6>> // unimplemented
000035AA  FD9C                     .invalid   <<F/6/6>>
000035AC  FC90 FC78                .extension 0xC90 <<F/2-3/6>> // unimplemented
000035B0  FCDE FC9C                .extension 0xCDE <<F/2-3/6>> // unimplemented
000035B4  FE40 FEE6                .extension 0xE40 <<F/1/7>>, 0xFEE6 // unimplemented
export_102:
000035B8  48E7 0300                movem.l    -[A7], D6,D7
000035BC  4EAD 0A2A                jsr        [A5 + 0xA2A /* export_321, CODE:5 @ 00003318 */]
000035C0  4267                     clr.w      -[A7]
000035C2  1F3C 0080                move.b     -[A7], 0x80
000035C6  4EAD 099A                jsr        [A5 + 0x99A /* export_303, CODE:5 @ 00003392 */]
000035CA  3E1F                     move.w     D7, [A7]+
000035CC  4267                     clr.w      -[A7]
000035CE  1F3C 0040                move.b     -[A7], 0x40 /* '@' */
000035D2  4EAD 099A                jsr        [A5 + 0x99A /* export_303, CODE:5 @ 00003392 */]
000035D6  3C1F                     move.w     D6, [A7]+
000035D8  3F06                     move.w     -[A7], D6
000035DA  3F07                     move.w     -[A7], D7
000035DC  4EAD 07E2                jsr        [A5 + 0x7E2 /* export_248, CODE:4 @ 00006918 */]
000035E0  3E80                     move.w     [A7], D0
000035E2  4EAD 0982                jsr        [A5 + 0x982 /* export_300, CODE:5 @ 00003234 */]
000035E6  548F                     addq.l     A7, 2
000035E8  4CDF 00C0                movem.l    D6,D7, [A7]+
000035EC  4E75                     rts
export_103:
000035EE  48E7 0300                movem.l    -[A7], D6,D7
000035F2  4EAD 0A2A                jsr        [A5 + 0xA2A /* export_321, CODE:5 @ 00003318 */]
000035F6  4267                     clr.w      -[A7]
000035F8  1F3C 0080                move.b     -[A7], 0x80
000035FC  4EAD 099A                jsr        [A5 + 0x99A /* export_303, CODE:5 @ 00003392 */]
00003600  3E1F                     move.w     D7, [A7]+
00003602  4267                     clr.w      -[A7]
00003604  1F3C 0040                move.b     -[A7], 0x40 /* '@' */
00003608  4EAD 099A                jsr        [A5 + 0x99A /* export_303, CODE:5 @ 00003392 */]
0000360C  3C1F                     move.w     D6, [A7]+
0000360E  3F06                     move.w     -[A7], D6
00003610  3F07                     move.w     -[A7], D7
00003612  4EAD 07EA                jsr        [A5 + 0x7EA /* export_249, CODE:4 @ 0000698A */]
00003616  3E80                     move.w     [A7], D0
00003618  4EAD 0982                jsr        [A5 + 0x982 /* export_300, CODE:5 @ 00003234 */]
0000361C  548F                     addq.l     A7, 2
0000361E  4CDF 00C0                movem.l    D6,D7, [A7]+
00003622  4E75                     rts
export_104:
00003624  48E7 0300                movem.l    -[A7], D6,D7
00003628  4267                     clr.w      -[A7]
0000362A  1F3C 0080                move.b     -[A7], 0x80
0000362E  4EAD 099A                jsr        [A5 + 0x99A /* export_303, CODE:5 @ 00003392 */]
00003632  3E1F                     move.w     D7, [A7]+
label00003634:
00003634  4EAD 09AA                jsr        [A5 + 0x9AA /* export_305, CODE:5 @ 000028E0 */]
00003638  1B40 ED6C                move.b     [A5 - 0x1294], D0
0000363C  7200                     moveq.l    D1, 0x00
0000363E  1200                     move.b     D1, D0
00003640  0C41 00FF                cmpi.w     D1, 0xFF
00003644  673E                     beq        +0x40 /* 00003684 */
00003646  4267                     clr.w      -[A7]
00003648  1F3C 0080                move.b     -[A7], 0x80
0000364C  4EAD 099A                jsr        [A5 + 0x99A /* export_303, CODE:5 @ 00003392 */]
00003650  3C1F                     move.w     D6, [A7]+
00003652  4A46                     tst.w      D6
00003654  660C                     bne        +0xE /* 00003662 */
00003656  7000                     moveq.l    D0, 0x00
00003658  3007                     move.w     D0, D7
0000365A  42B5 0D25 C928           clr.l      [[A5 - 0x36D8] + D0 * 4]
00003660  60D2                     bra        -0x2C /* 00003634 */
label00003662:
00003662  4A06                     tst.b      D6
00003664  6A10                     bpl        +0x12 /* 00003676 */
00003666  3F3C 0001                move.w     -[A7], 0x1
0000366A  3F06                     move.w     -[A7], D6
0000366C  3F07                     move.w     -[A7], D7
0000366E  4EAD 078A                jsr        [A5 + 0x78A /* export_237, CODE:4 @ 00005DC4 */]
00003672  5C8F                     addq.l     A7, 6
00003674  60BE                     bra        -0x40 /* 00003634 */
label00003676:
00003676  4267                     clr.w      -[A7]
00003678  3F06                     move.w     -[A7], D6
0000367A  3F07                     move.w     -[A7], D7
0000367C  4EAD 078A                jsr        [A5 + 0x78A /* export_237, CODE:4 @ 00005DC4 */]
00003680  5C8F                     addq.l     A7, 6
00003682  60B0                     bra        -0x4E /* 00003634 */
label00003684:
00003684  4CDF 00C0                movem.l    D6,D7, [A7]+
00003688  4E75                     rts
export_105:
0000368A  48E7 1F00                movem.l    -[A7], D3,D4,D5,D6,D7
0000368E  7E01                     moveq.l    D7, 0x01
00003690  4267                     clr.w      -[A7]
00003692  1F3C 0080                move.b     -[A7], 0x80
00003696  4EAD 099A                jsr        [A5 + 0x99A /* export_303, CODE:5 @ 00003392 */]
0000369A  3C1F                     move.w     D6, [A7]+
label0000369C:
0000369C  4EAD 09AA                jsr        [A5 + 0x9AA /* export_305, CODE:5 @ 000028E0 */]
000036A0  1B40 ED6C                move.b     [A5 - 0x1294], D0
000036A4  7200                     moveq.l    D1, 0x00
000036A6  1200                     move.b     D1, D0
000036A8  0C41 00FF                cmpi.w     D1, 0xFF
000036AC  6736                     beq        +0x38 /* 000036E4 */
000036AE  4267                     clr.w      -[A7]
000036B0  1F3C 0080                move.b     -[A7], 0x80
000036B4  4EAD 099A                jsr        [A5 + 0x99A /* export_303, CODE:5 @ 00003392 */]
000036B8  3A1F                     move.w     D5, [A7]+
000036BA  3F05                     move.w     -[A7], D5
000036BC  3F06                     move.w     -[A7], D6
000036BE  4EAD 0782                jsr        [A5 + 0x782 /* export_236, CODE:4 @ 00005D68 */]
000036C2  1800                     move.b     D4, D0
000036C4  3605                     move.w     D3, D5
000036C6  0243 0080                andi.w     D3, 0x80
000036CA  0C43 0080                cmpi.w     D3, 0x80
000036CE  588F                     addq.l     A7, 4
000036D0  6606                     bne        +0x8 /* 000036D8 */
000036D2  4A04                     tst.b      D4
000036D4  6602                     bne        +0x4 /* 000036D8 */
000036D6  7E00                     moveq.l    D7, 0x00
label000036D8:
000036D8  4A43                     tst.w      D3
000036DA  66C0                     bne        -0x3E /* 0000369C */
000036DC  4A04                     tst.b      D4
000036DE  67BC                     beq        -0x42 /* 0000369C */
000036E0  7E00                     moveq.l    D7, 0x00
000036E2  60B8                     bra        -0x46 /* 0000369C */
label000036E4:
000036E4  4A07                     tst.b      D7
000036E6  6606                     bne        +0x8 /* 000036EE */
000036E8  4EBA D7D0                jsr        [PC - 0x2830 /* 00000EBA */]
000036EC  6004                     bra        +0x6 /* 000036F2 */
label000036EE:
000036EE  4EAD 09D2                jsr        [A5 + 0x9D2 /* export_310, CODE:5 @ 00002A00 */]
label000036F2:
000036F2  4CDF 00F8                movem.l    D3,D4,D5,D6,D7, [A7]+
000036F6  4E75                     rts
export_106:
000036F8  48E7 0300                movem.l    -[A7], D6,D7
000036FC  4EAD 09AA                jsr        [A5 + 0x9AA /* export_305, CODE:5 @ 000028E0 */]
00003700  7E00                     moveq.l    D7, 0x00
00003702  1E00                     move.b     D7, D0
00003704  6014                     bra        +0x16 /* 0000371A */
label00003706:
00003706  0C46 007F                cmpi.w     D6, 0x7F
0000370A  630E                     bls        +0x10 /* 0000371A */
0000370C  707F                     moveq.l    D0, 0x7F
0000370E  C046                     and.w      D0, D6
00003710  7200                     moveq.l    D1, 0x00
00003712  3200                     move.w     D1, D0
00003714  1B87 1920 D316           move.b     [A5 - 0x2CEA + D1], D7
label0000371A:
0000371A  4EAD 09AA                jsr        [A5 + 0x9AA /* export_305, CODE:5 @ 000028E0 */]
0000371E  7C00                     moveq.l    D6, 0x00
00003720  1C00                     move.b     D6, D0
00003722  4A46                     tst.w      D6
00003724  66E0                     bne        -0x1E /* 00003706 */
00003726  4CDF 00C0                movem.l    D6,D7, [A7]+
0000372A  4E75                     rts
export_107:
0000372C  4EAD 0A2A                jsr        [A5 + 0xA2A /* export_321, CODE:5 @ 00003318 */]
00003730  4267                     clr.w      -[A7]
00003732  3F3C 0080                move.w     -[A7], 0x80
00003736  4EAD 0992                jsr        [A5 + 0x992 /* export_302, CODE:5 @ 0000335E */]
0000373A  301F                     move.w     D0, [A7]+
0000373C  3F35 0320 D418           move.w     -[A7], [A5 - 0x2BE8 + D0 * 2]
00003742  4EAD 0982                jsr        [A5 + 0x982 /* export_300, CODE:5 @ 00003234 */]
00003746  4E75                     rts
export_108:
00003748  48E7 1F00                movem.l    -[A7], D3,D4,D5,D6,D7
0000374C  4EAD 0A2A                jsr        [A5 + 0xA2A /* export_321, CODE:5 @ 00003318 */]
00003750  4267                     clr.w      -[A7]
00003752  3F3C 0080                move.w     -[A7], 0x80
00003756  4EAD 0992                jsr        [A5 + 0x992 /* export_302, CODE:5 @ 0000335E */]
0000375A  3E1F                     move.w     D7, [A7]+
0000375C  4267                     clr.w      -[A7]
0000375E  3F3C 0040                move.w     -[A7], 0x40 /* '@' */
00003762  4EAD 0992                jsr        [A5 + 0x992 /* export_302, CODE:5 @ 0000335E */]
00003766  3C1F                     move.w     D6, [A7]+
00003768  7A01                     moveq.l    D5, 0x01
0000376A  7800                     moveq.l    D4, 0x00
0000376C  602C                     bra        +0x2E /* 0000379A */
label0000376E:
0000376E  7000                     moveq.l    D0, 0x00
00003770  3004                     move.w     D0, D4
00003772  3635 0B20 C79E           move.w     D3, [A5 - 0x3862 + D0 * 2]
00003778  4A43                     tst.w      D3
0000377A  671C                     beq        +0x1E /* 00003798 */
0000377C  3F03                     move.w     -[A7], D3
0000377E  4EAD 0772                jsr        [A5 + 0x772 /* export_234, CODE:4 @ 00005CE8 */]
00003782  BE40                     cmp.w      D7, D0
00003784  548F                     addq.l     A7, 2
00003786  6610                     bne        +0x12 /* 00003798 */
00003788  3005                     move.w     D0, D5
0000378A  5245                     addq.w     D5, 1
0000378C  BC40                     cmp.w      D6, D0
0000378E  6608                     bne        +0xA /* 00003798 */
00003790  3F03                     move.w     -[A7], D3
00003792  4EAD 0982                jsr        [A5 + 0x982 /* export_300, CODE:5 @ 00003234 */]
00003796  600E                     bra        +0x10 /* 000037A6 */
label00003798:
00003798  5244                     addq.w     D4, 1
label0000379A:
0000379A  B86D B110                cmp.w      D4, [A5 - 0x4EF0]
0000379E  65CE                     bcs        -0x30 /* 0000376E */
000037A0  4267                     clr.w      -[A7]
000037A2  4EAD 0982                jsr        [A5 + 0x982 /* export_300, CODE:5 @ 00003234 */]
label000037A6:
000037A6  4CDF 00F8                movem.l    D3,D4,D5,D6,D7, [A7]+
000037AA  4E75                     rts
export_109:
000037AC  48E7 0F00                movem.l    -[A7], D4,D5,D6,D7
000037B0  4EAD 0A2A                jsr        [A5 + 0xA2A /* export_321, CODE:5 @ 00003318 */]
000037B4  4267                     clr.w      -[A7]
000037B6  3F3C 0080                move.w     -[A7], 0x80
000037BA  4EAD 0992                jsr        [A5 + 0x992 /* export_302, CODE:5 @ 0000335E */]
000037BE  3E1F                     move.w     D7, [A7]+
000037C0  7C00                     moveq.l    D6, 0x00
000037C2  7A00                     moveq.l    D5, 0x00
000037C4  601E                     bra        +0x20 /* 000037E4 */
label000037C6:
000037C6  7000                     moveq.l    D0, 0x00
000037C8  3005                     move.w     D0, D5
000037CA  3835 0B20 C79E           move.w     D4, [A5 - 0x3862 + D0 * 2]
000037D0  4A44                     tst.w      D4
000037D2  670E                     beq        +0x10 /* 000037E2 */
000037D4  3F04                     move.w     -[A7], D4
000037D6  4EAD 0772                jsr        [A5 + 0x772 /* export_234, CODE:4 @ 00005CE8 */]
000037DA  BE40                     cmp.w      D7, D0
000037DC  548F                     addq.l     A7, 2
000037DE  6602                     bne        +0x4 /* 000037E2 */
000037E0  5246                     addq.w     D6, 1
label000037E2:
000037E2  5245                     addq.w     D5, 1
label000037E4:
000037E4  BA6D B110                cmp.w      D5, [A5 - 0x4EF0]
000037E8  65DC                     bcs        -0x22 /* 000037C6 */
000037EA  3F06                     move.w     -[A7], D6
000037EC  4EAD 0982                jsr        [A5 + 0x982 /* export_300, CODE:5 @ 00003234 */]
000037F0  4CDF 00F0                movem.l    D4,D5,D6,D7, [A7]+
000037F4  4E75                     rts
export_110:
000037F6  48E7 1F00                movem.l    -[A7], D3,D4,D5,D6,D7
000037FA  4267                     clr.w      -[A7]
000037FC  1F3C 0080                move.b     -[A7], 0x80
00003800  4EAD 099A                jsr        [A5 + 0x99A /* export_303, CODE:5 @ 00003392 */]
00003804  3E1F                     move.w     D7, [A7]+
00003806  4267                     clr.w      -[A7]
00003808  1F3C 0040                move.b     -[A7], 0x40 /* '@' */
0000380C  4EAD 099A                jsr        [A5 + 0x99A /* export_303, CODE:5 @ 00003392 */]
00003810  3C1F                     move.w     D6, [A7]+
00003812  4EAD 09AA                jsr        [A5 + 0x9AA /* export_305, CODE:5 @ 000028E0 */]
00003816  1B40 ED6C                move.b     [A5 - 0x1294], D0
0000381A  4267                     clr.w      -[A7]
0000381C  1F3C 0080                move.b     -[A7], 0x80
00003820  4EAD 099A                jsr        [A5 + 0x99A /* export_303, CODE:5 @ 00003392 */]
00003824  3A1F                     move.w     D5, [A7]+
00003826  4267                     clr.w      -[A7]
00003828  1F3C 0040                move.b     -[A7], 0x40 /* '@' */
0000382C  4EAD 099A                jsr        [A5 + 0x99A /* export_303, CODE:5 @ 00003392 */]
00003830  381F                     move.w     D4, [A7]+
00003832  4267                     clr.w      -[A7]
00003834  3F3C 0020                move.w     -[A7], 0x20 /* ' ' */
00003838  4EAD 0992                jsr        [A5 + 0x992 /* export_302, CODE:5 @ 0000335E */]
0000383C  361F                     move.w     D3, [A7]+
0000383E  3F03                     move.w     -[A7], D3
00003840  3F04                     move.w     -[A7], D4
00003842  3F05                     move.w     -[A7], D5
00003844  3F06                     move.w     -[A7], D6
00003846  3F07                     move.w     -[A7], D7
00003848  4EAD 0B3A                jsr        [A5 + 0xB3A /* export_355, CODE:5 @ 000006A4 */]
0000384C  4FEF 000A                lea.l      A7, [A7 + 0xA]
00003850  4CDF 00F8                movem.l    D3,D4,D5,D6,D7, [A7]+
00003854  4E75                     rts
fn00003856:
00003856  4E56 0000                link       A6, 0
0000385A  102D 97BC                move.b     D0, [A5 - 0x6844]
0000385E  522D 97BC                addq.b     [A5 - 0x6844], 1
00003862  7200                     moveq.l    D1, 0x00
00003864  1200                     move.b     D1, D0
00003866  3BAE 0008 1B20 9794      move.w     [A5 - 0x686C + D1 * 2], [A6 + 0x8]
0000386E  4E5E                     unlink     A6
00003870  4E75                     rts
fn00003872:
00003872  532D 97BC                subq.b     [A5 - 0x6844], 1
00003876  7000                     moveq.l    D0, 0x00
00003878  102D 97BC                move.b     D0, [A5 - 0x6844]
0000387C  3035 0B20 9794           move.w     D0, [A5 - 0x686C + D0 * 2]
00003882  4E75                     rts
export_111:
00003884  48E7 0300                movem.l    -[A7], D6,D7
00003888  422D 97BC                clr.b      [A5 - 0x6844]
0000388C  4EAD 0A2A                jsr        [A5 + 0xA2A /* export_321, CODE:5 @ 00003318 */]
00003890  3E2D ED72                move.w     D7, [A5 - 0x128E]
label00003894:
00003894  4EAD 09AA                jsr        [A5 + 0x9AA /* export_305, CODE:5 @ 000028E0 */]
00003898  1B40 ED6C                move.b     [A5 - 0x1294], D0
0000389C  7200                     moveq.l    D1, 0x00
0000389E  1200                     move.b     D1, D0
000038A0  0C41 00FF                cmpi.w     D1, 0xFF
000038A4  6700 00E6                beq        +0xE8 /* 0000398C */
000038A8  7000                     moveq.l    D0, 0x00
000038AA  102D ED6C                move.b     D0, [A5 - 0x1294]
000038AE  0240 001F                andi.w     D0, 0x1F
000038B2  67E0                     beq        -0x1E /* 00003894 */
000038B4  6BDE                     bmi        -0x20 /* 00003894 */
000038B6  5B40                     subq.w     D0, 5
000038B8  6768                     beq        +0x6A /* 00003922 */
000038BA  6A0E                     bpl        +0x10 /* 000038CA */
000038BC  5440                     addq.w     D0, 2
000038BE  6734                     beq        +0x36 /* 000038F4 */
000038C0  6A48                     bpl        +0x4A /* 0000390A */
000038C2  5240                     addq.w     D0, 1
000038C4  6A18                     bpl        +0x1A /* 000038DE */
000038C6  6000 0090                bra        +0x92 /* 00003958 */
label000038CA:
000038CA  0440 007C                subi.w     D0, 0x7C /* '|' */
000038CE  6700 0088                beq        +0x8A /* 00003958 */
000038D2  6AC0                     bpl        -0x3E /* 00003894 */
000038D4  0440 FF86                subi.w     D0, 0xFF86
000038D8  6ABA                     bpl        -0x44 /* 00003894 */
000038DA  6000 0090                bra        +0x92 /* 0000396C */
label000038DE:
000038DE  4EBA FF92                jsr        [PC - 0x6E /* 00003872 */]
000038E2  3C00                     move.w     D6, D0
000038E4  4EBA FF8C                jsr        [PC - 0x74 /* 00003872 */]
000038E8  D046                     add.w      D0, D6
000038EA  3F00                     move.w     -[A7], D0
000038EC  4EBA FF68                jsr        [PC - 0x98 /* 00003856 */]
000038F0  548F                     addq.l     A7, 2
000038F2  60A0                     bra        -0x5E /* 00003894 */
label000038F4:
000038F4  4EBA FF7C                jsr        [PC - 0x84 /* 00003872 */]
000038F8  3C00                     move.w     D6, D0
000038FA  4EBA FF76                jsr        [PC - 0x8A /* 00003872 */]
000038FE  9046                     sub.w      D0, D6
00003900  3F00                     move.w     -[A7], D0
00003902  4EBA FF52                jsr        [PC - 0xAE /* 00003856 */]
00003906  548F                     addq.l     A7, 2
00003908  608A                     bra        -0x74 /* 00003894 */
label0000390A:
0000390A  4EBA FF66                jsr        [PC - 0x9A /* 00003872 */]
0000390E  3C00                     move.w     D6, D0
00003910  4EBA FF60                jsr        [PC - 0xA0 /* 00003872 */]
00003914  C1C6                     muls.w     D0, D6
00003916  3F00                     move.w     -[A7], D0
00003918  4EBA FF3C                jsr        [PC - 0xC4 /* 00003856 */]
0000391C  548F                     addq.l     A7, 2
0000391E  6000 FF74                bra        -0x8A /* 00003894 */
label00003922:
00003922  4EBA FF4E                jsr        [PC - 0xB2 /* 00003872 */]
00003926  3C00                     move.w     D6, D0
00003928  6714                     beq        +0x16 /* 0000393E */
0000392A  4EBA FF46                jsr        [PC - 0xBA /* 00003872 */]
0000392E  48C0                     ext.l      D0
00003930  81C6                     divs.w     D0, D6
00003932  3F00                     move.w     -[A7], D0
00003934  4EBA FF20                jsr        [PC - 0xE0 /* 00003856 */]
00003938  548F                     addq.l     A7, 2
0000393A  6000 FF58                bra        -0xA6 /* 00003894 */
label0000393E:
0000393E  2F3C 0000 0207           move.l     -[A7], 0x207
00003944  4EAD 0A42                jsr        [A5 + 0xA42 /* export_324, CODE:5 @ 000034B4 */]
00003948  4EBA FF28                jsr        [PC - 0xD8 /* 00003872 */]
0000394C  3E80                     move.w     [A7], D0
0000394E  4EBA FF06                jsr        [PC - 0xFA /* 00003856 */]
00003952  588F                     addq.l     A7, 4
00003954  6000 FF3E                bra        -0xC0 /* 00003894 */
label00003958:
00003958  4267                     clr.w      -[A7]
0000395A  1F3C 0080                move.b     -[A7], 0x80
0000395E  4EAD 099A                jsr        [A5 + 0x99A /* export_303, CODE:5 @ 00003392 */]
00003962  4EBA FEF2                jsr        [PC - 0x10E /* 00003856 */]
00003966  548F                     addq.l     A7, 2
00003968  6000 FF2A                bra        -0xD4 /* 00003894 */
label0000396C:
0000396C  4EAD 09AA                jsr        [A5 + 0x9AA /* export_305, CODE:5 @ 000028E0 */]
00003970  1B40 ED6C                move.b     [A5 - 0x1294], D0
00003974  7200                     moveq.l    D1, 0x00
00003976  1200                     move.b     D1, D0
00003978  4EB5 1D21 A4E2           jsr        [[A5 - 0x5B1E + D1 * 4]]
0000397E  3F2D C92C                move.w     -[A7], [A5 - 0x36D4]
00003982  4EBA FED2                jsr        [PC - 0x12E /* 00003856 */]
00003986  548F                     addq.l     A7, 2
00003988  6000 FF0A                bra        -0xF4 /* 00003894 */
label0000398C:
0000398C  3B47 ED72                move.w     [A5 - 0x128E], D7
00003990  4EBA FEE0                jsr        [PC - 0x120 /* 00003872 */]
00003994  3F00                     move.w     -[A7], D0
00003996  4EAD 0982                jsr        [A5 + 0x982 /* export_300, CODE:5 @ 00003234 */]
0000399A  4CDF 00C0                movem.l    D6,D7, [A7]+
0000399E  4E75                     rts
export_112:
000039A0  4E75                     rts
export_113:
000039A2  7000                     moveq.l    D0, 0x00
000039A4  102D ED6C                move.b     D0, [A5 - 0x1294]
000039A8  3F00                     move.w     -[A7], D0
000039AA  2F3C 0000 0217           move.l     -[A7], 0x217
000039B0  4EAD 0A42                jsr        [A5 + 0xA42 /* export_324, CODE:5 @ 000034B4 */]
000039B4  5C8F                     addq.l     A7, 6
000039B6  4E75                     rts
fn000039B8:
000039B8  2F07                     move.l     -[A7], D7
000039BA  4EAD 087A                jsr        [A5 + 0x87A /* export_267, CODE:4 @ 0000162A */]
000039BE  3E00                     move.w     D7, D0
000039C0  302D 97EA                move.w     D0, [A5 - 0x6816]
000039C4  B06D 97E0                cmp.w      D0, [A5 - 0x6820]
000039C8  6732                     beq        +0x34 /* 000039FC */
000039CA  3B6D 97EA 97E0           move.w     [A5 - 0x6820], [A5 - 0x6816]
000039D0  082D 0004 97EB           btst.b     [A5 - 0x6815], 0x4
000039D6  6702                     beq        +0x4 /* 000039DA */
000039D8  7E0D                     moveq.l    D7, 0x0D
label000039DA:
000039DA  082D 0006 97EA           btst.b     [A5 - 0x6816], 0x6
000039E0  6702                     beq        +0x4 /* 000039E4 */
000039E2  7E0E                     moveq.l    D7, 0x0E
label000039E4:
000039E4  4A2D 97EA                tst.b      [A5 - 0x6816]
000039E8  6A02                     bpl        +0x4 /* 000039EC */
000039EA  7E03                     moveq.l    D7, 0x03
label000039EC:
000039EC  082D 0005 97EA           btst.b     [A5 - 0x6816], 0x5
000039F2  6702                     beq        +0x4 /* 000039F6 */
000039F4  7E13                     moveq.l    D7, 0x13
label000039F6:
000039F6  026D 3FFF 97EA           andi.w     [A5 - 0x6816], 0x3FFF
label000039FC:
000039FC  0C47 012D                cmpi.w     D7, 0x12D
00003A00  6602                     bne        +0x4 /* 00003A04 */
00003A02  7E03                     moveq.l    D7, 0x03
label00003A04:
00003A04  3007                     move.w     D0, D7
00003A06  2E1F                     move.l     D7, [A7]+
00003A08  4E75                     rts
export_114:
00003A0A  4E75                     rts
export_115:
00003A0C  4E75                     rts
export_116:
fn00003A0E:
00003A0E  4E56 FFFE                link       A6, -0x0002
00003A12  426D ECAA                clr.w      [A5 - 0x1356]
00003A16  4EAD 085A                jsr        [A5 + 0x85A /* export_263, CODE:4 @ 000003BE */]
00003A1A  4EBA FF9C                jsr        [PC - 0x64 /* 000039B8 */]
00003A1E  3B40 ECA8                move.w     [A5 - 0x1358], D0
00003A22  4A6E 0008                tst.w      [A6 + 0x8]
00003A26  6604                     bne        +0x6 /* 00003A2C */
00003A28  4EBA 003A                jsr        [PC + 0x3A /* 00003A64 */]
label00003A2C:
00003A2C  4A6D EDBE                tst.w      [A5 - 0x1242]
00003A30  6C04                     bge        +0x6 /* 00003A36 */
00003A32  426D EDBE                clr.w      [A5 - 0x1242]
label00003A36:
00003A36  0C6D 013F EDBE           cmpi.w     [A5 - 0x1242], 0x13F
00003A3C  6F06                     ble        +0x8 /* 00003A44 */
00003A3E  3B7C 013F EDBE           move.w     [A5 - 0x1242], 0x13F
label00003A44:
00003A44  4A6D EDC0                tst.w      [A5 - 0x1240]
00003A48  6C04                     bge        +0x6 /* 00003A4E */
00003A4A  426D EDC0                clr.w      [A5 - 0x1240]
label00003A4E:
00003A4E  0C6D 00C7 EDC0           cmpi.w     [A5 - 0x1240], 0xC7
00003A54  6F06                     ble        +0x8 /* 00003A5C */
00003A56  3B7C 00C7 EDC0           move.w     [A5 - 0x1240], 0xC7
label00003A5C:
00003A5C  302D ECA8                move.w     D0, [A5 - 0x1358]
00003A60  4E5E                     unlink     A6
00003A62  4E75                     rts
fn00003A64:
00003A64  4A6D ECA8                tst.w      [A5 - 0x1358]
00003A68  672C                     beq        +0x2E /* 00003A96 */
00003A6A  4A2D EDBB                tst.b      [A5 - 0x1245]
00003A6E  6F26                     ble        +0x28 /* 00003A96 */
00003A70  302D ECA8                move.w     D0, [A5 - 0x1358]
00003A74  6B20                     bmi        +0x22 /* 00003A96 */
00003A76  0440 000D                subi.w     D0, 0xD /* '\r' */
00003A7A  6708                     beq        +0xA /* 00003A84 */
00003A7C  6A18                     bpl        +0x1A /* 00003A96 */
00003A7E  5840                     addq.w     D0, 4
00003A80  670A                     beq        +0xC /* 00003A8C */
00003A82  6012                     bra        +0x14 /* 00003A96 */
label00003A84:
00003A84  3B7C 8000 ECAA           move.w     [A5 - 0x1356], 0x8000
00003A8A  6006                     bra        +0x8 /* 00003A92 */
label00003A8C:
00003A8C  3B7C 4000 ECAA           move.w     [A5 - 0x1356], 0x4000 /* '@\0' */
label00003A92:
00003A92  426D ECA8                clr.w      [A5 - 0x1358]
label00003A96:
00003A96  4E75                     rts
00003A98  4E75                     rts
00003A9A  4E75                     rts
export_117:
fn00003A9C:
00003A9C  4EBA FF1A                jsr        [PC - 0xE6 /* 000039B8 */]
00003AA0  4EAD 0872                jsr        [A5 + 0x872 /* export_266, CODE:4 @ 00001624 */]
label00003AA4:
00003AA4  426D ECAA                clr.w      [A5 - 0x1356]
00003AA8  1B7C 0003 97E6           move.b     [A5 - 0x681A], 0x3
00003AAE  1B7C 0003 97E7           move.b     [A5 - 0x6819], 0x3
00003AB4  4A6D ECAA                tst.w      [A5 - 0x1356]
00003AB8  66EA                     bne        -0x14 /* 00003AA4 */
00003ABA  4E75                     rts
export_118:
fn00003ABC:
00003ABC  426D EDC8                clr.w      [A5 - 0x1238]
00003AC0  4EBA 000C                jsr        [PC + 0xC /* 00003ACE */]
00003AC4  4E75                     rts
fn00003AC6:
00003AC6  3B7C 0001 EDC8           move.w     [A5 - 0x1238], 0x1
00003ACC  4E75                     rts
fn00003ACE:
00003ACE  4A6D EDC8                tst.w      [A5 - 0x1238]
00003AD2  6706                     beq        +0x8 /* 00003ADA */
00003AD4  4EAD 08BA                jsr        [A5 + 0x8BA /* export_275, CODE:4 @ 00001FEE */]
00003AD8  6004                     bra        +0x6 /* 00003ADE */
label00003ADA:
00003ADA  4EAD 08B2                jsr        [A5 + 0x8B2 /* export_274, CODE:4 @ 00001FEC */]
label00003ADE:
00003ADE  4E75                     rts
export_119:
fn00003AE0:
00003AE0  4E56 FFFC                link       A6, -0x0004
00003AE4  48E7 0738                movem.l    -[A7], D5,D6,D7,A2,A3,A4
00003AE8  7026                     moveq.l    D0, 0x26
00003AEA  C0EE 0008                mulu.w     D0, [A6 + 0x8]
00003AEE  7200                     moveq.l    D1, 0x00
00003AF0  3200                     move.w     D1, D0
00003AF2  49ED EBF6                lea.l      A4, [A5 - 0x140A]
00003AF6  D28C                     add.l      D1, A4
00003AF8  2841                     movea.l    A4, D1
00003AFA  1B5C 9804                move.b     [A5 - 0x67FC], [A4]+
00003AFE  1B5C 9805                move.b     [A5 - 0x67FB], [A4]+
00003B02  1B6E 0009 EDC6           move.b     [A5 - 0x123A], [A6 + 0x9]
00003B08  7E00                     moveq.l    D7, 0x00
00003B0A  6008                     bra        +0xA /* 00003B14 */
label00003B0C:
00003B0C  1B9C 7120 9806           move.b     [A5 - 0x67FA + D7], [A4]+
00003B12  5247                     addq.w     D7, 1
label00003B14:
00003B14  0C47 0004                cmpi.w     D7, 0x4
00003B18  6DF2                     blt        -0xC /* 00003B0C */
00003B1A  7C00                     moveq.l    D6, 0x00
00003B1C  7A00                     moveq.l    D5, 0x00
00003B1E  6044                     bra        +0x46 /* 00003B64 */
label00003B20:
00003B20  264C                     movea.l    A3, A4
00003B22  45F5 5520 980A           lea.l      A2, [A5 - 0x67F6 + D5 * 4]
00003B28  7E00                     moveq.l    D7, 0x00
00003B2A  602C                     bra        +0x2E /* 00003B58 */
label00003B2C:
00003B2C  422E FFFF                clr.b      [A6 - 0x1]
00003B30  1D5B FFFE                move.b     [A6 - 0x2], [A3]+
00003B34  1D5B FFFD                move.b     [A6 - 0x3], [A3]+
00003B38  422E FFFC                clr.b      [A6 - 0x4]
00003B3C  202E FFFC                move.l     D0, [A6 - 0x4]
00003B40  ECA0                     asr        D0, D6
00003B42  2D40 FFFC                move.l     [A6 - 0x4], D0
00003B46  14EE FFFF                move.b     [A2]+, [A6 - 0x1]
00003B4A  14EE FFFE                move.b     [A2]+, [A6 - 0x2]
00003B4E  14EE FFFD                move.b     [A2]+, [A6 - 0x3]
00003B52  14EE FFFC                move.b     [A2]+, [A6 - 0x4]
00003B56  5247                     addq.w     D7, 1
label00003B58:
00003B58  0C47 0010                cmpi.w     D7, 0x10
00003B5C  6DCE                     blt        -0x30 /* 00003B2C */
00003B5E  5246                     addq.w     D6, 1
00003B60  0645 0010                addi.w     D5, 0x10
label00003B64:
00003B64  0C46 0008                cmpi.w     D6, 0x8
00003B68  6DB6                     blt        -0x48 /* 00003B20 */
00003B6A  4CDF 1CE0                movem.l    D5,D6,D7,A2,A3,A4, [A7]+
00003B6E  4E5E                     unlink     A6
00003B70  4E75                     rts
fn00003B72:
00003B72  4E56 0000                link       A6, 0
00003B76  2F0C                     move.l     -[A7], A4
00003B78  7026                     moveq.l    D0, 0x26
00003B7A  C1EE 0008                muls.w     D0, [A6 + 0x8]
00003B7E  49ED EBF6                lea.l      A4, [A5 - 0x140A]
00003B82  D8C0                     add.w      A4, D0
00003B84  18AE 000B                move.b     [A4], [A6 + 0xB]
00003B88  196E 000D 0001           move.b     [A4 + 0x1], [A6 + 0xD]
00003B8E  285F                     movea.l    A4, [A7]+
00003B90  4E5E                     unlink     A6
00003B92  4E75                     rts
fn00003B94:
00003B94  4E56 FFFE                link       A6, -0x0002
00003B98  48E7 1F38                movem.l    -[A7], D3,D4,D5,D6,D7,A2,A3,A4
00003B9C  7026                     moveq.l    D0, 0x26
00003B9E  C1EE 0008                muls.w     D0, [A6 + 0x8]
00003BA2  49ED EBFC                lea.l      A4, [A5 - 0x1404]
00003BA6  D8C0                     add.w      A4, D0
00003BA8  2F3C 0006 0001           move.l     -[A7], 0x60001
00003BAE  4EBA 013E                jsr        [PC + 0x13E /* 00003CEE */]
00003BB2  2640                     movea.l    A3, D0
00003BB4  302E 000A                move.w     D0, [A6 + 0xA]
00003BB8  4873 0404                pea.l      [A3 + D0.w * 4 + 0x4]
00003BBC  4EAD 0BFA                jsr        [A5 + 0xBFA /* export_379, CODE:6 @ 00000076 */]
00003BC0  2E00                     move.l     D7, D0
00003BC2  4A87                     tst.l      D7
00003BC4  508F                     addq.l     A7, 8
00003BC6  6700 008C                beq        +0x8E /* 00003C54 */
00003BCA  2007                     move.l     D0, D7
00003BCC  D08B                     add.l      D0, A3
00003BCE  2440                     movea.l    A2, D0
00003BD0  1E12                     move.b     D7, [A2]
00003BD2  1D6A 0001 FFFF           move.b     [A6 - 0x1], [A2 + 0x1]
00003BD8  588A                     addq.l     A2, 4
00003BDA  264C                     movea.l    A3, A4
00003BDC  7A00                     moveq.l    D5, 0x00
00003BDE  6004                     bra        +0x6 /* 00003BE4 */
label00003BE0:
00003BE0  421B                     clr.b      [A3]+
00003BE2  5245                     addq.w     D5, 1
label00003BE4:
00003BE4  0C45 0020                cmpi.w     D5, 0x20 /* ' ' */
00003BE8  6DF6                     blt        -0x8 /* 00003BE0 */
00003BEA  7880                     moveq.l    D4, 0xFFFFFF80
00003BEC  1D5A FFFE                move.b     [A6 - 0x2], [A2]+
00003BF0  7C00                     moveq.l    D6, 0x00
00003BF2  6056                     bra        +0x58 /* 00003C4A */
label00003BF4:
00003BF4  0C46 0010                cmpi.w     D6, 0x10
00003BF8  6C4E                     bge        +0x50 /* 00003C48 */
00003BFA  7680                     moveq.l    D3, 0xFFFFFF80
00003BFC  264C                     movea.l    A3, A4
00003BFE  548C                     addq.l     A4, 2
00003C00  7A00                     moveq.l    D5, 0x00
00003C02  603C                     bra        +0x3E /* 00003C40 */
label00003C04:
00003C04  0C45 0010                cmpi.w     D5, 0x10
00003C08  6C24                     bge        +0x26 /* 00003C2E */
00003C0A  1003                     move.b     D0, D3
00003C0C  4600                     not.b      D0
00003C0E  C113                     and.b      [A3], D0
00003C10  7000                     moveq.l    D0, 0x00
00003C12  102E FFFE                move.b     D0, [A6 - 0x2]
00003C16  7200                     moveq.l    D1, 0x00
00003C18  1204                     move.b     D1, D4
00003C1A  C041                     and.w      D0, D1
00003C1C  6702                     beq        +0x4 /* 00003C20 */
00003C1E  8713                     or.b       [A3], D3
label00003C20:
00003C20  7000                     moveq.l    D0, 0x00
00003C22  1003                     move.b     D0, D3
00003C24  E240                     asr        D0.w, 1
00003C26  1600                     move.b     D3, D0
00003C28  6604                     bne        +0x6 /* 00003C2E */
00003C2A  528B                     addq.l     A3, 1
00003C2C  7680                     moveq.l    D3, 0xFFFFFF80
label00003C2E:
00003C2E  7000                     moveq.l    D0, 0x00
00003C30  1004                     move.b     D0, D4
00003C32  E240                     asr        D0.w, 1
00003C34  1800                     move.b     D4, D0
00003C36  6606                     bne        +0x8 /* 00003C3E */
00003C38  1D5A FFFE                move.b     [A6 - 0x2], [A2]+
00003C3C  7880                     moveq.l    D4, 0xFFFFFF80
label00003C3E:
00003C3E  5245                     addq.w     D5, 1
label00003C40:
00003C40  7000                     moveq.l    D0, 0x00
00003C42  1007                     move.b     D0, D7
00003C44  B045                     cmp.w      D0, D5
00003C46  6EBC                     bgt        -0x42 /* 00003C04 */
label00003C48:
00003C48  5246                     addq.w     D6, 1
label00003C4A:
00003C4A  7000                     moveq.l    D0, 0x00
00003C4C  102E FFFF                move.b     D0, [A6 - 0x1]
00003C50  B046                     cmp.w      D0, D6
00003C52  6EA0                     bgt        -0x5E /* 00003BF4 */
label00003C54:
00003C54  4CDF 1CF8                movem.l    D3,D4,D5,D6,D7,A2,A3,A4, [A7]+
00003C58  4E5E                     unlink     A6
00003C5A  4E75                     rts
export_123:
00003C5C  4E56 0000                link       A6, 0
00003C60  48E7 0708                movem.l    -[A7], D5,D6,D7,A4
00003C64  3A2E 000E                move.w     D5, [A6 + 0xE]
00003C68  7000                     moveq.l    D0, 0x00
00003C6A  302E 0008                move.w     D0, [A6 + 0x8]
00003C6E  E588                     lsl        D0, 2
00003C70  2840                     movea.l    A4, D0
00003C72  7C00                     moveq.l    D6, 0x00
00003C74  3C2E 0008                move.w     D6, [A6 + 0x8]
00003C78  41ED B126                lea.l      A0, [A5 - 0x4EDA]
00003C7C  D1CC                     add.l      A0, A4
00003C7E  20AE 000A                move.l     [A0], [A6 + 0xA]
00003C82  3B85 6B20 B106           move.w     [A5 - 0x4EFA + D6 * 2], D5
00003C88  41ED B1A6                lea.l      A0, [A5 - 0x4E5A]
00003C8C  D1CC                     add.l      A0, A4
00003C8E  20AE 0010                move.l     [A0], [A6 + 0x10]
00003C92  1BAE 0015 6920 B2A6      move.b     [A5 - 0x4D5A + D6], [A6 + 0x15]
00003C9A  3E05                     move.w     D7, D5
00003C9C  E54F                     lsl        D7.w, 2
00003C9E  3F07                     move.w     -[A7], D7
00003CA0  41ED B166                lea.l      A0, [A5 - 0x4E9A]
00003CA4  D1CC                     add.l      A0, A4
00003CA6  2F08                     move.l     -[A7], A0
00003CA8  4EAD 0662                jsr        [A5 + 0x662 /* export_200, CODE:3 @ 000040F0 */]
00003CAC  3C05                     move.w     D6, D5
00003CAE  3E86                     move.w     [A7], D6
00003CB0  41ED B1E6                lea.l      A0, [A5 - 0x4E1A]
00003CB4  D1CC                     add.l      A0, A4
00003CB6  2F08                     move.l     -[A7], A0
00003CB8  4EAD 0662                jsr        [A5 + 0x662 /* export_200, CODE:3 @ 000040F0 */]
00003CBC  4A6E 0014                tst.w      [A6 + 0x14]
00003CC0  4FEF 000A                lea.l      A7, [A7 + 0xA]
00003CC4  6720                     beq        +0x22 /* 00003CE6 */
00003CC6  3F06                     move.w     -[A7], D6
00003CC8  41ED B226                lea.l      A0, [A5 - 0x4DDA]
00003CCC  D1CC                     add.l      A0, A4
00003CCE  2F08                     move.l     -[A7], A0
00003CD0  4EAD 0662                jsr        [A5 + 0x662 /* export_200, CODE:3 @ 000040F0 */]
00003CD4  3E87                     move.w     [A7], D7
00003CD6  41ED B266                lea.l      A0, [A5 - 0x4D9A]
00003CDA  D1CC                     add.l      A0, A4
00003CDC  2F08                     move.l     -[A7], A0
00003CDE  4EAD 0662                jsr        [A5 + 0x662 /* export_200, CODE:3 @ 000040F0 */]
00003CE2  4FEF 000A                lea.l      A7, [A7 + 0xA]
label00003CE6:
00003CE6  4CDF 10E0                movem.l    D5,D6,D7,A4, [A7]+
00003CEA  4E5E                     unlink     A6
00003CEC  4E75                     rts
export_120:
fn00003CEE:
00003CEE  4E56 0000                link       A6, 0
00003CF2  48E7 0708                movem.l    -[A7], D5,D6,D7,A4
00003CF6  3C2E 0008                move.w     D6, [A6 + 0x8]
00003CFA  3A2E 000A                move.w     D5, [A6 + 0xA]
00003CFE  7E00                     moveq.l    D7, 0x00
00003D00  3E06                     move.w     D7, D6
00003D02  4A35 7920 B2A6           tst.b      [A5 - 0x4D5A + D7]
00003D08  671C                     beq        +0x1E /* 00003D26 */
00003D0A  7000                     moveq.l    D0, 0x00
00003D0C  3005                     move.w     D0, D5
00003D0E  E588                     lsl        D0, 2
00003D10  D0B5 7D20 B166           add.l      D0, [A5 - 0x4E9A + D7 * 4]
00003D16  2040                     movea.l    A0, D0
00003D18  4A90                     tst.l      [A0]
00003D1A  660A                     bne        +0xC /* 00003D26 */
00003D1C  3F05                     move.w     -[A7], D5
00003D1E  3F06                     move.w     -[A7], D6
00003D20  4EAD 066A                jsr        [A5 + 0x66A /* export_201, CODE:3 @ 00004418 */]
00003D24  588F                     addq.l     A7, 4
label00003D26:
00003D26  3F3C 0001                move.w     -[A7], 0x1
00003D2A  3F05                     move.w     -[A7], D5
00003D2C  3F06                     move.w     -[A7], D6
00003D2E  4EBA 01D8                jsr        [PC + 0x1D8 /* 00003F08 */]
00003D32  7000                     moveq.l    D0, 0x00
00003D34  3005                     move.w     D0, D5
00003D36  E588                     lsl        D0, 2
00003D38  D0B5 7D20 B166           add.l      D0, [A5 - 0x4E9A + D7 * 4]
00003D3E  2040                     movea.l    A0, D0
00003D40  2850                     movea.l    A4, [A0]
00003D42  200C                     move.l     D0, A4
00003D44  5C8F                     addq.l     A7, 6
00003D46  6604                     bne        +0x6 /* 00003D4C */
00003D48  7000                     moveq.l    D0, 0x00
00003D4A  6004                     bra        +0x6 /* 00003D50 */
label00003D4C:
00003D4C  200C                     move.l     D0, A4
00003D4E  5C80                     addq.l     D0, 6
label00003D50:
00003D50  4CDF 10E0                movem.l    D5,D6,D7,A4, [A7]+
00003D54  4E5E                     unlink     A6
00003D56  4E75                     rts
export_122:
fn00003D58:
00003D58  4E56 0000                link       A6, 0
00003D5C  48E7 0018                movem.l    -[A7], A3,A4
00003D60  7000                     moveq.l    D0, 0x00
00003D62  302E 0008                move.w     D0, [A6 + 0x8]
00003D66  49F5 0D20 B166           lea.l      A4, [A5 - 0x4E9A + D0 * 4]
00003D6C  7000                     moveq.l    D0, 0x00
00003D6E  302E 000A                move.w     D0, [A6 + 0xA]
00003D72  E588                     lsl        D0, 2
00003D74  2640                     movea.l    A3, D0
00003D76  4AB4 B915                tst.l      [[A4] + A3]
00003D7A  670E                     beq        +0x10 /* 00003D8A */
00003D7C  2F34 B915                move.l     -[A7], [[A4] + A3]
00003D80  4EAD 05FA                jsr        [A5 + 0x5FA /* export_187, CODE:3 @ 000023AA */]
00003D84  42B4 B915                clr.l      [[A4] + A3]
00003D88  588F                     addq.l     A7, 4
label00003D8A:
00003D8A  4CDF 1800                movem.l    A3,A4, [A7]+
00003D8E  4E5E                     unlink     A6
00003D90  4E75                     rts
export_121:
fn00003D92:
00003D92  4E56 FFFC                link       A6, -0x0004
00003D96  48E7 0708                movem.l    -[A7], D5,D6,D7,A4
00003D9A  3A2E 0008                move.w     D5, [A6 + 0x8]
00003D9E  3C2E 000A                move.w     D6, [A6 + 0xA]
00003DA2  2E2E 000C                move.l     D7, [A6 + 0xC]
00003DA6  4A87                     tst.l      D7
00003DA8  6D08                     blt        +0xA /* 00003DB2 */
00003DAA  0C87 0004 93E0           cmpi.l     D7, 0x493E0
00003DB0  6F1C                     ble        +0x1E /* 00003DCE */
label00003DB2:
00003DB2  2F07                     move.l     -[A7], D7
00003DB4  3F06                     move.w     -[A7], D6
00003DB6  7000                     moveq.l    D0, 0x00
00003DB8  3005                     move.w     D0, D5
00003DBA  2F35 0D20 B1A6           move.l     -[A7], [A5 - 0x4E5A + D0 * 4]
00003DC0  2F3C 0000 022F           move.l     -[A7], 0x22F
00003DC6  4EAD 0A42                jsr        [A5 + 0xA42 /* export_324, CODE:5 @ 000034B4 */]
00003DCA  4FEF 000E                lea.l      A7, [A7 + 0xE]
label00003DCE:
00003DCE  3F06                     move.w     -[A7], D6
00003DD0  3F05                     move.w     -[A7], D5
00003DD2  2F3C 0000 0257           move.l     -[A7], 0x257
00003DD8  4EBA 04E8                jsr        [PC + 0x4E8 /* 000042C2 */]
00003DDC  3E86                     move.w     [A7], D6
00003DDE  3F05                     move.w     -[A7], D5
00003DE0  4EBA FF76                jsr        [PC - 0x8A /* 00003D58 */]
00003DE4  2047                     movea.l    A0, D7
00003DE6  4868 0006                pea.l      [A0 + 0x6]
00003DEA  4EBA 0084                jsr        [PC + 0x84 /* 00003E70 */]
00003DEE  2840                     movea.l    A4, D0
00003DF0  200C                     move.l     D0, A4
00003DF2  4FEF 000E                lea.l      A7, [A7 + 0xE]
00003DF6  663E                     bne        +0x40 /* 00003E36 */
00003DF8  4EAD 05E2                jsr        [A5 + 0x5E2 /* export_184, CODE:3 @ 00002114 */]
00003DFC  4C7C 0800 0000 0400      divul.l    D0:D0, 0x8000000
00003E04  2F00                     move.l     -[A7], D0
00003E06  2007                     move.l     D0, D7
00003E08  4C7C 0800 0000 0400      divul.l    D0:D0, 0x8000000
00003E10  2F00                     move.l     -[A7], D0
00003E12  3F2D F280                move.w     -[A7], [A5 - 0xD80]
00003E16  3F06                     move.w     -[A7], D6
00003E18  7000                     moveq.l    D0, 0x00
00003E1A  3005                     move.w     D0, D5
00003E1C  2F35 0D20 B126           move.l     -[A7], [A5 - 0x4EDA + D0 * 4]
00003E22  4EAD 052A                jsr        [A5 + 0x52A /* export_161, CODE:3 @ 000009AC */]
00003E26  2E80                     move.l     [A7], D0
00003E28  2F3C 0000 0263           move.l     -[A7], 0x263
00003E2E  4EAD 0A42                jsr        [A5 + 0xA42 /* export_324, CODE:5 @ 000034B4 */]
00003E32  4FEF 0014                lea.l      A7, [A7 + 0x14]
label00003E36:
00003E36  1945 0004                move.b     [A4 + 0x4], D5
00003E3A  1946 0005                move.b     [A4 + 0x5], D6
00003E3E  7000                     moveq.l    D0, 0x00
00003E40  3005                     move.w     D0, D5
00003E42  7200                     moveq.l    D1, 0x00
00003E44  3206                     move.w     D1, D6
00003E46  E589                     lsl        D1, 2
00003E48  D2B5 0D20 B166           add.l      D1, [A5 - 0x4E9A + D0 * 4]
00003E4E  2041                     movea.l    A0, D1
00003E50  208C                     move.l     [A0], A4
00003E52  3F3C 0001                move.w     -[A7], 0x1
00003E56  3F06                     move.w     -[A7], D6
00003E58  3F05                     move.w     -[A7], D5
00003E5A  4EBA 00AC                jsr        [PC + 0xAC /* 00003F08 */]
00003E5E  4EAD 09C2                jsr        [A5 + 0x9C2 /* export_308, CODE:5 @ 000029BA */]
00003E62  200C                     move.l     D0, A4
00003E64  5C80                     addq.l     D0, 6
00003E66  4CEE 10E0 FFEC           movem.l    D5,D6,D7,A4, [A6 - 0x14]
00003E6C  4E5E                     unlink     A6
00003E6E  4E75                     rts
fn00003E70:
00003E70  4E56 0000                link       A6, 0
00003E74  48E7 0108                movem.l    -[A7], D7,A4
00003E78  2E2E 0008                move.l     D7, [A6 + 0x8]
00003E7C  422D 9A0A                clr.b      [A5 - 0x65F6]
00003E80  422D 9A0B                clr.b      [A5 - 0x65F5]
label00003E84:
00003E84  4EAD 05E2                jsr        [A5 + 0x5E2 /* export_184, CODE:3 @ 00002114 */]
00003E88  BE80                     cmp.l      D7, D0
00003E8A  6F08                     ble        +0xA /* 00003E94 */
00003E8C  4EBA 010C                jsr        [PC + 0x10C /* 00003F9A */]
00003E90  4A40                     tst.w      D0
00003E92  66F0                     bne        -0xE /* 00003E84 */
label00003E94:
00003E94  2F07                     move.l     -[A7], D7
00003E96  4EAD 05F2                jsr        [A5 + 0x5F2 /* export_186, CODE:3 @ 0000235E */]
00003E9A  2840                     movea.l    A4, D0
00003E9C  200C                     move.l     D0, A4
00003E9E  588F                     addq.l     A7, 4
00003EA0  6704                     beq        +0x6 /* 00003EA6 */
00003EA2  200C                     move.l     D0, A4
00003EA4  605A                     bra        +0x5C /* 00003F00 */
label00003EA6:
00003EA6  1B7C 0001 9A0A           move.b     [A5 - 0x65F6], 0x1
label00003EAC:
00003EAC  4EAD 05E2                jsr        [A5 + 0x5E2 /* export_184, CODE:3 @ 00002114 */]
00003EB0  BE80                     cmp.l      D7, D0
00003EB2  6F08                     ble        +0xA /* 00003EBC */
00003EB4  4EBA 00E4                jsr        [PC + 0xE4 /* 00003F9A */]
00003EB8  4A40                     tst.w      D0
00003EBA  66F0                     bne        -0xE /* 00003EAC */
label00003EBC:
00003EBC  2F07                     move.l     -[A7], D7
00003EBE  4EAD 05F2                jsr        [A5 + 0x5F2 /* export_186, CODE:3 @ 0000235E */]
00003EC2  2840                     movea.l    A4, D0
00003EC4  200C                     move.l     D0, A4
00003EC6  588F                     addq.l     A7, 4
00003EC8  6708                     beq        +0xA /* 00003ED2 */
00003ECA  422D 9A0A                clr.b      [A5 - 0x65F6]
00003ECE  200C                     move.l     D0, A4
00003ED0  602E                     bra        +0x30 /* 00003F00 */
label00003ED2:
00003ED2  1B7C 0001 9A0B           move.b     [A5 - 0x65F5], 0x1
label00003ED8:
00003ED8  4EAD 05E2                jsr        [A5 + 0x5E2 /* export_184, CODE:3 @ 00002114 */]
00003EDC  BE80                     cmp.l      D7, D0
00003EDE  6F08                     ble        +0xA /* 00003EE8 */
00003EE0  4EBA 00B8                jsr        [PC + 0xB8 /* 00003F9A */]
00003EE4  4A40                     tst.w      D0
00003EE6  66F0                     bne        -0xE /* 00003ED8 */
label00003EE8:
00003EE8  2F07                     move.l     -[A7], D7
00003EEA  4EAD 05F2                jsr        [A5 + 0x5F2 /* export_186, CODE:3 @ 0000235E */]
00003EEE  2840                     movea.l    A4, D0
00003EF0  200C                     move.l     D0, A4
00003EF2  588F                     addq.l     A7, 4
00003EF4  6708                     beq        +0xA /* 00003EFE */
00003EF6  422D 9A0B                clr.b      [A5 - 0x65F5]
00003EFA  200C                     move.l     D0, A4
00003EFC  6002                     bra        +0x4 /* 00003F00 */
label00003EFE:
00003EFE  7000                     moveq.l    D0, 0x00
label00003F00:
00003F00  4CDF 1080                movem.l    D7,A4, [A7]+
00003F04  4E5E                     unlink     A6
00003F06  4E75                     rts
export_124:
fn00003F08:
00003F08  4E56 0000                link       A6, 0
00003F0C  2F0C                     move.l     -[A7], A4
00003F0E  302E 0008                move.w     D0, [A6 + 0x8]
00003F12  49F5 0520 B1E6           lea.l      A4, [A5 - 0x4E1A + D0 * 4]
00003F18  306E 000A                movea.w    A0, [A6 + 0xA]
00003F1C  D1D4                     add.l      A0, [A4]
00003F1E  0210 0080                andi.b     [A0], 0x80
00003F22  306E 000A                movea.w    A0, [A6 + 0xA]
00003F26  122E 000D                move.b     D1, [A6 + 0xD]
00003F2A  D1D4                     add.l      A0, [A4]
00003F2C  8310                     or.b       [A0], D1
00003F2E  285F                     movea.l    A4, [A7]+
00003F30  4E5E                     unlink     A6
00003F32  4E75                     rts
export_125:
00003F34  48E7 0718                movem.l    -[A7], D5,D6,D7,A3,A4
00003F38  7E01                     moveq.l    D7, 0x01
00003F3A  49ED B1EA                lea.l      A4, [A5 - 0x4E16]
00003F3E  47ED B108                lea.l      A3, [A5 - 0x4EF8]
00003F42  6034                     bra        +0x36 /* 00003F78 */
label00003F44:
00003F44  7C01                     moveq.l    D6, 0x01
00003F46  6026                     bra        +0x28 /* 00003F6E */
label00003F48:
00003F48  7A00                     moveq.l    D5, 0x00
00003F4A  1A34 6115                move.b     D5, [[A4] + D6]
00003F4E  0245 FF7F                andi.w     D5, 0xFF7F
00003F52  4A45                     tst.w      D5
00003F54  6716                     beq        +0x18 /* 00003F6C */
00003F56  0C45 007F                cmpi.w     D5, 0x7F
00003F5A  6C10                     bge        +0x12 /* 00003F6C */
00003F5C  7001                     moveq.l    D0, 0x01
00003F5E  D045                     add.w      D0, D5
00003F60  3F00                     move.w     -[A7], D0
00003F62  3F06                     move.w     -[A7], D6
00003F64  3F07                     move.w     -[A7], D7
00003F66  4EBA FFA0                jsr        [PC - 0x60 /* 00003F08 */]
00003F6A  5C8F                     addq.l     A7, 6
label00003F6C:
00003F6C  5246                     addq.w     D6, 1
label00003F6E:
00003F6E  BC53                     cmp.w      D6, [A3]
00003F70  6DD6                     blt        -0x28 /* 00003F48 */
00003F72  5247                     addq.w     D7, 1
00003F74  588C                     addq.l     A4, 4
00003F76  548B                     addq.l     A3, 2
label00003F78:
00003F78  0C47 0010                cmpi.w     D7, 0x10
00003F7C  6DC6                     blt        -0x38 /* 00003F44 */
00003F7E  4CDF 18E0                movem.l    D5,D6,D7,A3,A4, [A7]+
00003F82  4E75                     rts
fn00003F84:
00003F84  4E56 0000                link       A6, 0
00003F88  1B6E 0009 9A0A           move.b     [A5 - 0x65F6], [A6 + 0x9]
label00003F8E:
00003F8E  4EBA 000A                jsr        [PC + 0xA /* 00003F9A */]
00003F92  4A40                     tst.w      D0
00003F94  66F8                     bne        -0x6 /* 00003F8E */
00003F96  4E5E                     unlink     A6
00003F98  4E75                     rts
fn00003F9A:
00003F9A  4E56 FFFC                link       A6, -0x0004
00003F9E  48E7 1F18                movem.l    -[A7], D3,D4,D5,D6,D7,A3,A4
00003FA2  7E00                     moveq.l    D7, 0x00
00003FA4  7C00                     moveq.l    D6, 0x00
00003FA6  7A00                     moveq.l    D5, 0x00
00003FA8  7801                     moveq.l    D4, 0x01
00003FAA  49ED B1EA                lea.l      A4, [A5 - 0x4E16]
00003FAE  47ED B108                lea.l      A3, [A5 - 0x4EF8]
00003FB2  6056                     bra        +0x58 /* 0000400A */
label00003FB4:
00003FB4  4A35 4120 B2A6           tst.b      [A5 - 0x4D5A + D4]
00003FBA  6748                     beq        +0x4A /* 00004004 */
00003FBC  7601                     moveq.l    D3, 0x01
00003FBE  6040                     bra        +0x42 /* 00004000 */
label00003FC0:
00003FC0  7000                     moveq.l    D0, 0x00
00003FC2  1034 3115                move.b     D0, [[A4] + D3]
00003FC6  3D40 FFFE                move.w     [A6 - 0x2], D0
00003FCA  0240 FF7F                andi.w     D0, 0xFF7F
00003FCE  3D40 FFFC                move.w     [A6 - 0x4], D0
00003FD2  BE40                     cmp.w      D7, D0
00003FD4  6C28                     bge        +0x2A /* 00003FFE */
00003FD6  4A2E FFFF                tst.b      [A6 - 0x1]
00003FDA  6A06                     bpl        +0x8 /* 00003FE2 */
00003FDC  4A2D 9A0A                tst.b      [A5 - 0x65F6]
00003FE0  671C                     beq        +0x1E /* 00003FFE */
label00003FE2:
00003FE2  3F03                     move.w     -[A7], D3
00003FE4  3F04                     move.w     -[A7], D4
00003FE6  4EBA 0138                jsr        [PC + 0x138 /* 00004120 */]
00003FEA  4A40                     tst.w      D0
00003FEC  588F                     addq.l     A7, 4
00003FEE  6706                     beq        +0x8 /* 00003FF6 */
00003FF0  4A2D 9A0B                tst.b      [A5 - 0x65F5]
00003FF4  6708                     beq        +0xA /* 00003FFE */
label00003FF6:
00003FF6  3E2E FFFC                move.w     D7, [A6 - 0x4]
00003FFA  3C04                     move.w     D6, D4
00003FFC  3A03                     move.w     D5, D3
label00003FFE:
00003FFE  5243                     addq.w     D3, 1
label00004000:
00004000  B653                     cmp.w      D3, [A3]
00004002  6DBC                     blt        -0x42 /* 00003FC0 */
label00004004:
00004004  5244                     addq.w     D4, 1
00004006  588C                     addq.l     A4, 4
00004008  548B                     addq.l     A3, 2
label0000400A:
0000400A  0C44 0010                cmpi.w     D4, 0x10
0000400E  6DA4                     blt        -0x5A /* 00003FB4 */
00004010  4A46                     tst.w      D6
00004012  6716                     beq        +0x18 /* 0000402A */
00004014  3F05                     move.w     -[A7], D5
00004016  3F06                     move.w     -[A7], D6
00004018  4EBA FD3E                jsr        [PC - 0x2C2 /* 00003D58 */]
0000401C  4257                     clr.w      [A7]
0000401E  3F05                     move.w     -[A7], D5
00004020  3F06                     move.w     -[A7], D6
00004022  4EBA FEE4                jsr        [PC - 0x11C /* 00003F08 */]
00004026  7001                     moveq.l    D0, 0x01
00004028  6002                     bra        +0x4 /* 0000402C */
label0000402A:
0000402A  7000                     moveq.l    D0, 0x00
label0000402C:
0000402C  4CEE 18F8 FFE0           movem.l    D3,D4,D5,D6,D7,A3,A4, [A6 - 0x20]
00004032  4E5E                     unlink     A6
00004034  4E75                     rts
fn00004036:
00004036  4E56 0000                link       A6, 0
0000403A  48E7 0718                movem.l    -[A7], D5,D6,D7,A3,A4
0000403E  286E 000C                movea.l    A4, [A6 + 0xC]
00004042  3F2E 000A                move.w     -[A7], [A6 + 0xA]
00004046  3F2E 0008                move.w     -[A7], [A6 + 0x8]
0000404A  4EBA FD0C                jsr        [PC - 0x2F4 /* 00003D58 */]
0000404E  200C                     move.l     D0, A4
00004050  588F                     addq.l     A7, 4
00004052  6606                     bne        +0x8 /* 0000405A */
00004054  266D ED64                movea.l    A3, [A5 - 0x129C]
00004058  6002                     bra        +0x4 /* 0000405C */
label0000405A:
0000405A  264C                     movea.l    A3, A4
label0000405C:
0000405C  7C00                     moveq.l    D6, 0x00
0000405E  6014                     bra        +0x16 /* 00004074 */
label00004060:
00004060  5246                     addq.w     D6, 1
00004062  0C45 00FF                cmpi.w     D5, 0xFF
00004066  660C                     bne        +0xE /* 00004074 */
00004068  528B                     addq.l     A3, 1
0000406A  5246                     addq.w     D6, 1
0000406C  528B                     addq.l     A3, 1
0000406E  5246                     addq.w     D6, 1
00004070  528B                     addq.l     A3, 1
00004072  5246                     addq.w     D6, 1
label00004074:
00004074  7A00                     moveq.l    D5, 0x00
00004076  1A1B                     move.b     D5, [A3]+
00004078  4A45                     tst.w      D5
0000407A  66E4                     bne        -0x1A /* 00004060 */
0000407C  5246                     addq.w     D6, 1
0000407E  0C46 0001                cmpi.w     D6, 0x1
00004082  6350                     bls        +0x52 /* 000040D4 */
00004084  7000                     moveq.l    D0, 0x00
00004086  3006                     move.w     D0, D6
00004088  2F00                     move.l     -[A7], D0
0000408A  3F2E 000A                move.w     -[A7], [A6 + 0xA]
0000408E  3F2E 0008                move.w     -[A7], [A6 + 0x8]
00004092  4EBA FCFE                jsr        [PC - 0x302 /* 00003D92 */]
00004096  2640                     movea.l    A3, D0
00004098  200C                     move.l     D0, A4
0000409A  508F                     addq.l     A7, 8
0000409C  6622                     bne        +0x24 /* 000040C0 */
0000409E  4EAD 09AA                jsr        [A5 + 0x9AA /* export_305, CODE:5 @ 000028E0 */]
000040A2  1680                     move.b     [A3], D0
000040A4  7A01                     moveq.l    D5, 0x01
000040A6  6012                     bra        +0x14 /* 000040BA */
label000040A8:
000040A8  206D ED64                movea.l    A0, [A5 - 0x129C]
000040AC  52AD ED64                addq.l     [A5 - 0x129C], 1
000040B0  7000                     moveq.l    D0, 0x00
000040B2  3005                     move.w     D0, D5
000040B4  1790 0800                move.b     [A3 + D0], [A0]
000040B8  5245                     addq.w     D5, 1
label000040BA:
000040BA  BC45                     cmp.w      D6, D5
000040BC  62EA                     bhi        -0x14 /* 000040A8 */
000040BE  6014                     bra        +0x16 /* 000040D4 */
label000040C0:
000040C0  7A00                     moveq.l    D5, 0x00
000040C2  600C                     bra        +0xE /* 000040D0 */
label000040C4:
000040C4  7E00                     moveq.l    D7, 0x00
000040C6  3E05                     move.w     D7, D5
000040C8  17B4 7800 7800           move.b     [A3 + D7], [A4 + D7]
000040CE  5245                     addq.w     D5, 1
label000040D0:
000040D0  BC45                     cmp.w      D6, D5
000040D2  62F0                     bhi        -0xE /* 000040C4 */
label000040D4:
000040D4  4CDF 18E0                movem.l    D5,D6,D7,A3,A4, [A7]+
000040D8  4E5E                     unlink     A6
000040DA  4E75                     rts
000040DC  4E56 FFF4                link       A6, -0x000C
000040E0  4E5E                     unlink     A6
000040E2  4E75                     rts
000040E4  202D 9A0C                move.l     D0, [A5 - 0x65F4]
000040E8  4E75                     rts
export_126:
000040EA  4E56 0000                link       A6, 0
000040EE  3F2E 000A                move.w     -[A7], [A6 + 0xA]
000040F2  3F2E 0008                move.w     -[A7], [A6 + 0x8]
000040F6  2F3C 0000 0297           move.l     -[A7], 0x297
000040FC  4EBA 01C4                jsr        [PC + 0x1C4 /* 000042C2 */]
00004100  302E 0008                move.w     D0, [A6 + 0x8]
00004104  322E 000A                move.w     D1, [A6 + 0xA]
00004108  48C1                     ext.l      D1
0000410A  E589                     lsl        D1, 2
0000410C  D2B5 0520 B166           add.l      D1, [A5 - 0x4E9A + D0 * 4]
00004112  2041                     movea.l    A0, D1
00004114  4A90                     tst.l      [A0]
00004116  56C0                     sne        D0
00004118  4400                     neg.b      D0
0000411A  49C0                     lea.l      A4, D0
0000411C  4E5E                     unlink     A6
0000411E  4E75                     rts
fn00004120:
00004120  4E56 FFFE                link       A6, -0x0002
00004124  2F07                     move.l     -[A7], D7
00004126  3E2E 000A                move.w     D7, [A6 + 0xA]
0000412A  3F07                     move.w     -[A7], D7
0000412C  3F2E 0008                move.w     -[A7], [A6 + 0x8]
00004130  2F3C 0000 02A7           move.l     -[A7], 0x2A7
00004136  4EBA 018A                jsr        [PC + 0x18A /* 000042C2 */]
0000413A  302E 0008                move.w     D0, [A6 + 0x8]
0000413E  508F                     addq.l     A7, 8
00004140  674E                     beq        +0x50 /* 00004190 */
00004142  6B4C                     bmi        +0x4E /* 00004190 */
00004144  5940                     subq.w     D0, 4
00004146  672A                     beq        +0x2C /* 00004172 */
00004148  6A08                     bpl        +0xA /* 00004152 */
0000414A  5440                     addq.w     D0, 2
0000414C  6714                     beq        +0x16 /* 00004162 */
0000414E  6A1A                     bpl        +0x1C /* 0000416A */
00004150  6008                     bra        +0xA /* 0000415A */
label00004152:
00004152  0440 0009                subi.w     D0, 0x9 /* '\t' */
00004156  6A38                     bpl        +0x3A /* 00004190 */
00004158  6020                     bra        +0x22 /* 0000417A */
label0000415A:
0000415A  3F07                     move.w     -[A7], D7
0000415C  4EBA 003C                jsr        [PC + 0x3C /* 0000419A */]
00004160  6030                     bra        +0x32 /* 00004192 */
label00004162:
00004162  3F07                     move.w     -[A7], D7
00004164  4EBA 004C                jsr        [PC + 0x4C /* 000041B2 */]
00004168  6028                     bra        +0x2A /* 00004192 */
label0000416A:
0000416A  3F07                     move.w     -[A7], D7
0000416C  4EBA 0078                jsr        [PC + 0x78 /* 000041E6 */]
00004170  6020                     bra        +0x22 /* 00004192 */
label00004172:
00004172  3F07                     move.w     -[A7], D7
00004174  4EAD 0A9A                jsr        [A5 + 0xA9A /* export_335, CODE:5 @ 00003836 */]
00004178  6018                     bra        +0x1A /* 00004192 */
label0000417A:
0000417A  302E 0008                move.w     D0, [A6 + 0x8]
0000417E  41F0 7590                lea.l      A0, [ + D7 * 4]
00004182  D1F5 0520 B166           add.l      A0, [A5 - 0x4E9A + D0 * 4]
00004188  4A90                     tst.l      [A0]
0000418A  6704                     beq        +0x6 /* 00004190 */
0000418C  7001                     moveq.l    D0, 0x01
0000418E  6002                     bra        +0x4 /* 00004192 */
label00004190:
00004190  7000                     moveq.l    D0, 0x00
label00004192:
00004192  2E2E FFFA                move.l     D7, [A6 - 0x6]
00004196  4E5E                     unlink     A6
00004198  4E75                     rts
fn0000419A:
0000419A  4E56 0000                link       A6, 0
0000419E  7000                     moveq.l    D0, 0x00
000041A0  102D B2D7                move.b     D0, [A5 - 0x4D29]
000041A4  B06E 0008                cmp.w      D0, [A6 + 0x8]
000041A8  57C0                     seq        D0
000041AA  4400                     neg.b      D0
000041AC  49C0                     lea.l      A4, D0
000041AE  4E5E                     unlink     A6
000041B0  4E75                     rts
export_127:
fn000041B2:
000041B2  4E56 0000                link       A6, 0
000041B6  48E7 0108                movem.l    -[A7], D7,A4
000041BA  7E00                     moveq.l    D7, 0x00
000041BC  49ED C59A                lea.l      A4, [A5 - 0x3A66]
000041C0  6014                     bra        +0x16 /* 000041D6 */
label000041C2:
000041C2  302C 0008                move.w     D0, [A4 + 0x8]
000041C6  B06E 0008                cmp.w      D0, [A6 + 0x8]
000041CA  6604                     bne        +0x6 /* 000041D0 */
000041CC  7001                     moveq.l    D0, 0x01
000041CE  600E                     bra        +0x10 /* 000041DE */
label000041D0:
000041D0  5247                     addq.w     D7, 1
000041D2  49EC 0012                lea.l      A4, [A4 + 0x12]
label000041D6:
000041D6  0C47 0014                cmpi.w     D7, 0x14
000041DA  6DE6                     blt        -0x18 /* 000041C2 */
000041DC  7000                     moveq.l    D0, 0x00
label000041DE:
000041DE  4CDF 1080                movem.l    D7,A4, [A7]+
000041E2  4E5E                     unlink     A6
000041E4  4E75                     rts
fn000041E6:
000041E6  4E56 0000                link       A6, 0
000041EA  2F07                     move.l     -[A7], D7
000041EC  4A2D B2D7                tst.b      [A5 - 0x4D29]
000041F0  672A                     beq        +0x2C /* 0000421C */
000041F2  7E01                     moveq.l    D7, 0x01
000041F4  6020                     bra        +0x22 /* 00004216 */
label000041F6:
000041F6  1035 7120 D395           move.b     D0, [A5 - 0x2C6B + D7]
000041FC  B02D B2D7                cmp.b      D0, [A5 - 0x4D29]
00004200  6612                     bne        +0x14 /* 00004214 */
00004202  7000                     moveq.l    D0, 0x00
00004204  1035 7120 D3A2           move.b     D0, [A5 - 0x2C5E + D7]
0000420A  B06E 0008                cmp.w      D0, [A6 + 0x8]
0000420E  6604                     bne        +0x6 /* 00004214 */
00004210  7001                     moveq.l    D0, 0x01
00004212  600A                     bra        +0xC /* 0000421E */
label00004214:
00004214  5247                     addq.w     D7, 1
label00004216:
00004216  0C47 000D                cmpi.w     D7, 0xD /* '\r' */
0000421A  6DDA                     blt        -0x24 /* 000041F6 */
label0000421C:
0000421C  7000                     moveq.l    D0, 0x00
label0000421E:
0000421E  2E1F                     move.l     D7, [A7]+
00004220  4E5E                     unlink     A6
00004222  4E75                     rts
export_128:
fn00004224:
00004224  4E56 0000                link       A6, 0
00004228  0C6E 0001 0008           cmpi.w     [A6 + 0x8], 0x1
0000422E  6606                     bne        +0x8 /* 00004236 */
00004230  302E 000A                move.w     D0, [A6 + 0xA]
00004234  6012                     bra        +0x14 /* 00004248 */
label00004236:
00004236  302E 0008                move.w     D0, [A6 + 0x8]
0000423A  306E 000A                movea.w    A0, [A6 + 0xA]
0000423E  D1F5 0520 B226           add.l      A0, [A5 - 0x4DDA + D0 * 4]
00004244  7000                     moveq.l    D0, 0x00
00004246  1010                     move.b     D0, [A0]
label00004248:
00004248  4E5E                     unlink     A6
0000424A  4E75                     rts
export_129:
0000424C  4E56 0000                link       A6, 0
00004250  3F2E 000A                move.w     -[A7], [A6 + 0xA]
00004254  3F2E 0008                move.w     -[A7], [A6 + 0x8]
00004258  4EBA FFCA                jsr        [PC - 0x36 /* 00004224 */]
0000425C  7200                     moveq.l    D1, 0x00
0000425E  1235 0125 B22A           move.b     D1, [[A5 - 0x4DD6] + D0]
00004264  3001                     move.w     D0, D1
00004266  4E5E                     unlink     A6
00004268  4E75                     rts
fn0000426A:
0000426A  4E56 0000                link       A6, 0
0000426E  3F2E 000A                move.w     -[A7], [A6 + 0xA]
00004272  3F2E 0008                move.w     -[A7], [A6 + 0x8]
00004276  2F3C 0000 02B3           move.l     -[A7], 0x2B3
0000427C  4EBA 0044                jsr        [PC + 0x44 /* 000042C2 */]
00004280  302E 0008                move.w     D0, [A6 + 0x8]
00004284  306E 000A                movea.w    A0, [A6 + 0xA]
00004288  D1F5 0520 B1E6           add.l      A0, [A5 - 0x4E1A + D0 * 4]
0000428E  0010 0080                ori.b      [A0], 0x80
00004292  4E5E                     unlink     A6
00004294  4E75                     rts
export_130:
fn00004296:
00004296  4E56 0000                link       A6, 0
0000429A  3F2E 000A                move.w     -[A7], [A6 + 0xA]
0000429E  3F2E 0008                move.w     -[A7], [A6 + 0x8]
000042A2  2F3C 0000 02BB           move.l     -[A7], 0x2BB
000042A8  4EBA 0018                jsr        [PC + 0x18 /* 000042C2 */]
000042AC  302E 0008                move.w     D0, [A6 + 0x8]
000042B0  306E 000A                movea.w    A0, [A6 + 0xA]
000042B4  D1F5 0520 B1E6           add.l      A0, [A5 - 0x4E1A + D0 * 4]
000042BA  0210 007F                andi.b     [A0], 0x7F
000042BE  4E5E                     unlink     A6
000042C0  4E75                     rts
export_131:
fn000042C2:
000042C2  4E56 0000                link       A6, 0
000042C6  2F07                     move.l     -[A7], D7
000042C8  3E2E 000C                move.w     D7, [A6 + 0xC]
000042CC  0C47 0001                cmpi.w     D7, 0x1
000042D0  6D12                     blt        +0x14 /* 000042E4 */
000042D2  0C47 000F                cmpi.w     D7, 0xF
000042D6  6E0C                     bgt        +0xE /* 000042E4 */
000042D8  302E 000E                move.w     D0, [A6 + 0xE]
000042DC  B075 7320 B106           cmp.w      D0, [A5 - 0x4EFA + D7 * 2]
000042E2  6F18                     ble        +0x1A /* 000042FC */
label000042E4:
000042E4  3F2E 000E                move.w     -[A7], [A6 + 0xE]
000042E8  3F07                     move.w     -[A7], D7
000042EA  2F2E 0008                move.l     -[A7], [A6 + 0x8]
000042EE  2F3C 0000 02C5           move.l     -[A7], 0x2C5
000042F4  4EAD 0A42                jsr        [A5 + 0xA42 /* export_324, CODE:5 @ 000034B4 */]
000042F8  4FEF 000C                lea.l      A7, [A7 + 0xC]
label000042FC:
000042FC  2E1F                     move.l     D7, [A7]+
000042FE  4E5E                     unlink     A6
00004300  4E75                     rts
export_132:
00004302  48E7 3F3E                movem.l    -[A7], D2,D3,D4,D5,D6,D7,A2,A3,A4,A5,A6
00004306  246D ECC8                movea.l    A2, [A5 - 0x1338]
0000430A  226D EF3E                movea.l    A1, [A5 - 0x10C2]
0000430E  3C2D AA04                move.w     D6, [A5 - 0x55FC]
00004312  3E2D AA06                move.w     D7, [A5 - 0x55FA]
00004316  382D AA0A                move.w     D4, [A5 - 0x55F6]
0000431A  1A2D A9FE                move.b     D5, [A5 - 0x5602]
0000431E  E145                     asl        D5.w, 8
00004320  1A2D A9FF                move.b     D5, [A5 - 0x5601]
00004324  41ED F25A                lea.l      A0, [A5 - 0xDA6]
00004328  2B49 9A10                move.l     [A5 - 0x65F0], A1
0000432C  7600                     moveq.l    D3, 0x00
0000432E  162D A9F8                move.b     D3, [A5 - 0x5608]
00004332  5303                     subq.b     D3, 1
00004334  7400                     moveq.l    D2, 0x00
00004336  142D A9F9                move.b     D2, [A5 - 0x5607]
0000433A  4A2D AA0C                tst.b      [A5 - 0x55F4]
0000433E  57CB 0024                dbeq       D3, +0x26 /* 00004364 */
label00004342:
00004342  141A                     move.b     D2, [A2]+
00004344  1602                     move.b     D3, D2
00004346  0C6D 0010 F8F0           cmpi.w     [A5 - 0x710], 0x10
0000434C  660A                     bne        +0xC /* 00004358 */
0000434E  E84A                     lsr        D2.w, 4
00004350  0243 000F                andi.w     D3, 0xF
00004354  660C                     bne        +0xE /* 00004362 */
00004356  6008                     bra        +0xA /* 00004360 */
label00004358:
00004358  E64A                     lsr        D2.w, 3
0000435A  0243 0007                andi.w     D3, 0x7
0000435E  6602                     bne        +0x4 /* 00004362 */
label00004360:
00004360  161A                     move.b     D3, [A2]+
label00004362:
00004362  5303                     subq.b     D3, 1
label00004364:
00004364  4A42                     tst.w      D2
00004366  6708                     beq        +0xA /* 00004370 */
00004368  BE44                     cmp.w      D7, D4
0000436A  6404                     bcc        +0x6 /* 00004370 */
0000436C  12B0 2000                move.b     [A1], [A0 + D2.w]
label00004370:
00004370  D2FC 0140                add.w      A1, 0x140
00004374  5247                     addq.w     D7, 1
00004376  5305                     subq.b     D5, 1
00004378  6628                     bne        +0x2A /* 000043A2 */
0000437A  0445 0100                subi.w     D5, 0x100
0000437E  6728                     beq        +0x2A /* 000043A8 */
00004380  1A2D A9FF                move.b     D5, [A5 - 0x5601]
00004384  3E2D AA08                move.w     D7, [A5 - 0x55F8]
00004388  7000                     moveq.l    D0, 0x00
0000438A  302D AA0E                move.w     D0, [A5 - 0x55F2]
0000438E  DC40                     add.w      D6, D0
00004390  6B16                     bmi        +0x18 /* 000043A8 */
00004392  0C46 0140                cmpi.w     D6, 0x140
00004396  6C10                     bge        +0x12 /* 000043A8 */
00004398  48C0                     ext.l      D0
0000439A  D1AD 9A10                add.l      [A5 - 0x65F0], D0
0000439E  226D 9A10                movea.l    A1, [A5 - 0x65F0]
label000043A2:
000043A2  51CB FFC0                dbf        D3, -0x42 /* 00004364 */
000043A6  609A                     bra        -0x64 /* 00004342 */
label000043A8:
000043A8  4CDF 7CFC                movem.l    D2,D3,D4,D5,D6,D7,A2,A3,A4,A5,A6, [A7]+
000043AC  4E75                     rts
export_133:
000043AE  48E7 3F3E                movem.l    -[A7], D2,D3,D4,D5,D6,D7,A2,A3,A4,A5,A6
000043B2  246D ECC8                movea.l    A2, [A5 - 0x1338]
000043B6  226D EF3E                movea.l    A1, [A5 - 0x10C2]
000043BA  266D EF42                movea.l    A3, [A5 - 0x10BE]
000043BE  382D AA0A                move.w     D4, [A5 - 0x55F6]
000043C2  3C2D AA04                move.w     D6, [A5 - 0x55FC]
000043C6  3E2D AA06                move.w     D7, [A5 - 0x55FA]
000043CA  1A2D A9FE                move.b     D5, [A5 - 0x5602]
000043CE  E145                     asl        D5.w, 8
000043D0  1A2D A9FF                move.b     D5, [A5 - 0x5601]
000043D4  41ED F25A                lea.l      A0, [A5 - 0xDA6]
000043D8  2B49 9A10                move.l     [A5 - 0x65F0], A1
000043DC  7600                     moveq.l    D3, 0x00
000043DE  162D A9F8                move.b     D3, [A5 - 0x5608]
000043E2  5303                     subq.b     D3, 1
000043E4  7400                     moveq.l    D2, 0x00
000043E6  142D A9F9                move.b     D2, [A5 - 0x5607]
000043EA  4646                     not.w      D6
000043EC  4A2D AA0C                tst.b      [A5 - 0x55F4]
000043F0  57CB 0024                dbeq       D3, +0x26 /* 00004416 */
label000043F4:
000043F4  141A                     move.b     D2, [A2]+
000043F6  1602                     move.b     D3, D2
000043F8  0C6D 0010 F8F0           cmpi.w     [A5 - 0x710], 0x10
000043FE  660A                     bne        +0xC /* 0000440A */
00004400  E84A                     lsr        D2.w, 4
00004402  0243 000F                andi.w     D3, 0xF
00004406  660C                     bne        +0xE /* 00004414 */
00004408  6008                     bra        +0xA /* 00004412 */
label0000440A:
0000440A  E64A                     lsr        D2.w, 3
0000440C  0243 0007                andi.w     D3, 0x7
00004410  6602                     bne        +0x4 /* 00004414 */
label00004412:
00004412  161A                     move.b     D3, [A2]+
label00004414:
00004414  5303                     subq.b     D3, 1
label00004416:
00004416  4A42                     tst.w      D2
00004418  670C                     beq        +0xE /* 00004426 */
0000441A  BE44                     cmp.w      D7, D4
0000441C  6408                     bcc        +0xA /* 00004426 */
0000441E  0D13                     btst       [A3], D6
00004420  6604                     bne        +0x6 /* 00004426 */
00004422  12B0 2000                move.b     [A1], [A0 + D2.w]
label00004426:
00004426  D2FC 0140                add.w      A1, 0x140
0000442A  D6FC 0028                add.w      A3, 0x28 /* '(' */
0000442E  5247                     addq.w     D7, 1
00004430  5305                     subq.b     D5, 1
00004432  663A                     bne        +0x3C /* 0000446E */
00004434  0445 0100                subi.w     D5, 0x100
00004438  673A                     beq        +0x3C /* 00004474 */
0000443A  1A2D A9FF                move.b     D5, [A5 - 0x5601]
0000443E  3E2D AA08                move.w     D7, [A5 - 0x55F8]
00004442  4646                     not.w      D6
00004444  7000                     moveq.l    D0, 0x00
00004446  302D AA0E                move.w     D0, [A5 - 0x55F2]
0000444A  DC40                     add.w      D6, D0
0000444C  6B26                     bmi        +0x28 /* 00004474 */
0000444E  0C46 0140                cmpi.w     D6, 0x140
00004452  6C20                     bge        +0x22 /* 00004474 */
00004454  48C0                     ext.l      D0
00004456  D1AD 9A10                add.l      [A5 - 0x65F0], D0
0000445A  4646                     not.w      D6
0000445C  226D 9A10                movea.l    A1, [A5 - 0x65F0]
00004460  4646                     not.w      D6
00004462  3006                     move.w     D0, D6
00004464  266D A9F2                movea.l    A3, [A5 - 0x560E]
00004468  E640                     asr        D0.w, 3
0000446A  D6C0                     add.w      A3, D0
0000446C  4646                     not.w      D6
label0000446E:
0000446E  51CB FFA6                dbf        D3, -0x5C /* 00004416 */
00004472  6080                     bra        -0x7E /* 000043F4 */
label00004474:
00004474  4CDF 7CFC                movem.l    D2,D3,D4,D5,D6,D7,A2,A3,A4,A5,A6, [A7]+
00004478  4E75                     rts
export_134:
0000447A  48E7 3F3E                movem.l    -[A7], D2,D3,D4,D5,D6,D7,A2,A3,A4,A5,A6
0000447E  246D ECC8                movea.l    A2, [A5 - 0x1338]
00004482  226D EF3E                movea.l    A1, [A5 - 0x10C2]
00004486  266D EF42                movea.l    A3, [A5 - 0x10BE]
0000448A  382D AA0A                move.w     D4, [A5 - 0x55F6]
0000448E  3C2D AA04                move.w     D6, [A5 - 0x55FC]
00004492  3E2D AA06                move.w     D7, [A5 - 0x55FA]
00004496  1A2D A9FE                move.b     D5, [A5 - 0x5602]
0000449A  E145                     asl        D5.w, 8
0000449C  1A2D A9FF                move.b     D5, [A5 - 0x5601]
000044A0  284B                     movea.l    A4, A3
000044A2  D8ED A9F6                add.w      A4, [A5 - 0x560A]
000044A6  41ED F25A                lea.l      A0, [A5 - 0xDA6]
000044AA  2B49 9A10                move.l     [A5 - 0x65F0], A1
000044AE  7600                     moveq.l    D3, 0x00
000044B0  162D A9F8                move.b     D3, [A5 - 0x5608]
000044B4  5303                     subq.b     D3, 1
000044B6  7400                     moveq.l    D2, 0x00
000044B8  142D A9F9                move.b     D2, [A5 - 0x5607]
000044BC  4646                     not.w      D6
000044BE  4A2D AA0C                tst.b      [A5 - 0x55F4]
000044C2  57CB 0024                dbeq       D3, +0x26 /* 000044E8 */
label000044C6:
000044C6  141A                     move.b     D2, [A2]+
000044C8  1602                     move.b     D3, D2
000044CA  0C6D 0010 F8F0           cmpi.w     [A5 - 0x710], 0x10
000044D0  660A                     bne        +0xC /* 000044DC */
000044D2  E84A                     lsr        D2.w, 4
000044D4  0243 000F                andi.w     D3, 0xF
000044D8  660C                     bne        +0xE /* 000044E6 */
000044DA  6008                     bra        +0xA /* 000044E4 */
label000044DC:
000044DC  E64A                     lsr        D2.w, 3
000044DE  0243 0007                andi.w     D3, 0x7
000044E2  6602                     bne        +0x4 /* 000044E6 */
label000044E4:
000044E4  161A                     move.b     D3, [A2]+
label000044E6:
000044E6  5303                     subq.b     D3, 1
label000044E8:
000044E8  4A42                     tst.w      D2
000044EA  6710                     beq        +0x12 /* 000044FC */
000044EC  BE44                     cmp.w      D7, D4
000044EE  640C                     bcc        +0xE /* 000044FC */
000044F0  0D13                     btst       [A3], D6
000044F2  6608                     bne        +0xA /* 000044FC */
000044F4  0D14                     btst       [A4], D6
000044F6  6604                     bne        +0x6 /* 000044FC */
000044F8  12B0 2000                move.b     [A1], [A0 + D2.w]
label000044FC:
000044FC  D2FC 0140                add.w      A1, 0x140
00004500  D6FC 0028                add.w      A3, 0x28 /* '(' */
00004504  D8FC 0028                add.w      A4, 0x28 /* '(' */
00004508  5247                     addq.w     D7, 1
0000450A  5305                     subq.b     D5, 1
0000450C  6640                     bne        +0x42 /* 0000454E */
0000450E  0445 0100                subi.w     D5, 0x100
00004512  6742                     beq        +0x44 /* 00004556 */
00004514  1A2D A9FF                move.b     D5, [A5 - 0x5601]
00004518  3E2D AA08                move.w     D7, [A5 - 0x55F8]
0000451C  4646                     not.w      D6
0000451E  7000                     moveq.l    D0, 0x00
00004520  302D AA0E                move.w     D0, [A5 - 0x55F2]
00004524  DC40                     add.w      D6, D0
00004526  6B2E                     bmi        +0x30 /* 00004556 */
00004528  0C46 0140                cmpi.w     D6, 0x140
0000452C  6C28                     bge        +0x2A /* 00004556 */
0000452E  48C0                     ext.l      D0
00004530  D1AD 9A10                add.l      [A5 - 0x65F0], D0
00004534  4646                     not.w      D6
00004536  226D 9A10                movea.l    A1, [A5 - 0x65F0]
0000453A  4646                     not.w      D6
0000453C  3006                     move.w     D0, D6
0000453E  266D A9F2                movea.l    A3, [A5 - 0x560E]
00004542  E640                     asr        D0.w, 3
00004544  D6C0                     add.w      A3, D0
00004546  284B                     movea.l    A4, A3
00004548  D8ED A9F6                add.w      A4, [A5 - 0x560A]
0000454C  4646                     not.w      D6
label0000454E:
0000454E  51CB FF98                dbf        D3, -0x6A /* 000044E8 */
00004552  6000 FF72                bra        -0x8C /* 000044C6 */
label00004556:
00004556  4CDF 7CFC                movem.l    D2,D3,D4,D5,D6,D7,A2,A3,A4,A5,A6, [A7]+
0000455A  4E75                     rts
export_135:
0000455C  4E56 FFF4                link       A6, -0x000C
00004560  48E7 0308                movem.l    -[A7], D6,D7,A4
00004564  1B7C 0020 9A2D           move.b     [A5 - 0x65D3], 0x20 /* ' ' */
0000456A  1B6D ECA9 9A2E           move.b     [A5 - 0x65D2], [A5 - 0x1357]
00004570  0C6D 0001 ECA8           cmpi.w     [A5 - 0x1358], 0x1
00004576  6518                     bcs        +0x1A /* 00004590 */
00004578  0C6D 001A ECA8           cmpi.w     [A5 - 0x1358], 0x1A
0000457E  6210                     bhi        +0x12 /* 00004590 */
00004580  1B7C 005E 9A2D           move.b     [A5 - 0x65D3], 0x5E /* '^' */
00004586  7040                     moveq.l    D0, 0x40
00004588  D02D ECA9                add.b      D0, [A5 - 0x1357]
0000458C  1B40 9A2E                move.b     [A5 - 0x65D2], D0
label00004590:
00004590  302D ECA8                move.w     D0, [A5 - 0x1358]
00004594  6B00 01D2                bmi        +0x1D4 /* 00004768 */
00004598  0440 000B                subi.w     D0, 0xB
0000459C  6732                     beq        +0x34 /* 000045D0 */
0000459E  6A1A                     bpl        +0x1C /* 000045BA */
000045A0  5A40                     addq.w     D0, 5
000045A2  6700 01B8                beq        +0x1BA /* 0000475C */
000045A6  6A0A                     bpl        +0xC /* 000045B2 */
000045A8  5240                     addq.w     D0, 1
000045AA  6A00 017A                bpl        +0x17C /* 00004726 */
000045AE  6000 01B8                bra        +0x1BA /* 00004768 */
label000045B2:
000045B2  5540                     subq.w     D0, 2
000045B4  6A00 01B2                bpl        +0x1B4 /* 00004768 */
000045B8  6062                     bra        +0x64 /* 0000461C */
label000045BA:
000045BA  0440 0126                subi.w     D0, 0x126
000045BE  6700 01AC                beq        +0x1AE /* 0000476C */
000045C2  6A00 01A4                bpl        +0x1A6 /* 00004768 */
000045C6  0440 FEDC                subi.w     D0, 0xFEDC
000045CA  6A00 019C                bpl        +0x19E /* 00004768 */
000045CE  602A                     bra        +0x2C /* 000045FA */
label000045D0:
000045D0  3F2D F280                move.w     -[A7], [A5 - 0xD80]
000045D4  2F3C 0000 02E4           move.l     -[A7], 0x2E4
000045DA  486D F680                pea.l      [A5 - 0x980]
000045DE  4EAD 0CC2                jsr        [A5 + 0xCC2 /* export_404, CODE:7 @ 000048E6 */]
000045E2  4257                     clr.w      [A7]
000045E4  486D F680                pea.l      [A5 - 0x980]
000045E8  2F3C 0078 0002           move.l     -[A7], 0x780002
000045EE  4EAD 05C2                jsr        [A5 + 0x5C2 /* export_180, CODE:3 @ 00001DF6 */]
000045F2  4FEF 000A                lea.l      A7, [A7 + 0xA]
000045F6  6000 0174                bra        +0x176 /* 0000476C */
label000045FA:
000045FA  2F3C 0000 02F4           move.l     -[A7], 0x2F4
00004600  4EBA 0176                jsr        [PC + 0x176 /* 00004778 */]
00004604  3B40 F8F2                move.w     [A5 - 0x70E], D0
00004608  5240                     addq.w     D0, 1
0000460A  588F                     addq.l     A7, 4
0000460C  6700 015E                beq        +0x160 /* 0000476C */
00004610  4267                     clr.w      -[A7]
00004612  4EAD 05DA                jsr        [A5 + 0x5DA /* export_183, CODE:3 @ 0000202A */]
00004616  548F                     addq.l     A7, 2
00004618  6000 0152                bra        +0x154 /* 0000476C */
label0000461C:
0000461C  7E00                     moveq.l    D7, 0x00
0000461E  49ED C59A                lea.l      A4, [A5 - 0x3A66]
00004622  6022                     bra        +0x24 /* 00004646 */
label00004624:
00004624  4A2C 000A                tst.b      [A4 + 0xA]
00004628  6716                     beq        +0x18 /* 00004640 */
0000462A  4A2C 0010                tst.b      [A4 + 0x10]
0000462E  6710                     beq        +0x12 /* 00004640 */
00004630  2F3C 0000 0300           move.l     -[A7], 0x300
00004636  4EAD 0A4A                jsr        [A5 + 0xA4A /* export_325, CODE:5 @ 000034FC */]
0000463A  7001                     moveq.l    D0, 0x01
0000463C  6000 0130                bra        +0x132 /* 0000476E */
label00004640:
00004640  5247                     addq.w     D7, 1
00004642  49EC 0012                lea.l      A4, [A4 + 0x12]
label00004646:
00004646  0C47 0014                cmpi.w     D7, 0x14
0000464A  6DD8                     blt        -0x26 /* 00004624 */
0000464C  7000                     moveq.l    D0, 0x00
0000464E  102D B2D6                move.b     D0, [A5 - 0x4D2A]
00004652  3F00                     move.w     -[A7], D0
00004654  7000                     moveq.l    D0, 0x00
00004656  102D B2D6                move.b     D0, [A5 - 0x4D2A]
0000465A  3F00                     move.w     -[A7], D0
0000465C  4EBA 02E8                jsr        [PC + 0x2E8 /* 00004946 */]
00004660  548F                     addq.l     A7, 2
00004662  2F00                     move.l     -[A7], D0
00004664  2F3C 0000 0332           move.l     -[A7], 0x332
0000466A  4EBA 010C                jsr        [PC + 0x10C /* 00004778 */]
0000466E  3C00                     move.w     D6, D0
00004670  0C46 FFFE                cmpi.w     D6, 0xFFFE
00004674  4FEF 000A                lea.l      A7, [A7 + 0xA]
00004678  660C                     bne        +0xE /* 00004686 */
0000467A  486D 9A20                pea.l      [A5 - 0x65E0]
0000467E  4EBA 0236                jsr        [PC + 0x236 /* 000048B6 */]
00004682  3C00                     move.w     D6, D0
00004684  588F                     addq.l     A7, 4
label00004686:
00004686  0C46 FFFF                cmpi.w     D6, 0xFFFF
0000468A  6700 0092                beq        +0x94 /* 0000471E */
0000468E  3F06                     move.w     -[A7], D6
00004690  7000                     moveq.l    D0, 0x00
00004692  102D B2D6                move.b     D0, [A5 - 0x4D2A]
00004696  3F00                     move.w     -[A7], D0
00004698  7000                     moveq.l    D0, 0x00
0000469A  102D B2D6                move.b     D0, [A5 - 0x4D2A]
0000469E  3F00                     move.w     -[A7], D0
000046A0  4EBA 02A4                jsr        [PC + 0x2A4 /* 00004946 */]
000046A4  548F                     addq.l     A7, 2
000046A6  2F00                     move.l     -[A7], D0
000046A8  2F3C 0000 0344           move.l     -[A7], 0x344
000046AE  4EBA 00C8                jsr        [PC + 0xC8 /* 00004778 */]
000046B2  3E00                     move.w     D7, D0
000046B4  3E86                     move.w     [A7], D6
000046B6  3F3C 003C                move.w     -[A7], 0x3C /* '<' */
000046BA  3F2D ECAC                move.w     -[A7], [A5 - 0x1354]
000046BE  3F2D C92E                move.w     -[A7], [A5 - 0x36D2]
000046C2  4EBA BD20                jsr        [PC - 0x42E0 /* 000003E4 */]
000046C6  1B7C 00FF C702           move.b     [A5 - 0x38FE], 0xFF
000046CC  3E86                     move.w     [A7], D6
000046CE  4EAD 064A                jsr        [A5 + 0x64A /* export_197, CODE:3 @ 00003414 */]
000046D2  3B47 ECAC                move.w     [A5 - 0x1354], D7
000046D6  0C6D FFFF ECAC           cmpi.w     [A5 - 0x1354], 0xFFFF
000046DC  4FEF 0012                lea.l      A7, [A7 + 0x12]
000046E0  6606                     bne        +0x8 /* 000046E8 */
000046E2  3B7C 00A0 ECAC           move.w     [A5 - 0x1354], 0xA0
label000046E8:
000046E8  7000                     moveq.l    D0, 0x00
000046EA  102D B2D6                move.b     D0, [A5 - 0x4D2A]
000046EE  3F00                     move.w     -[A7], D0
000046F0  3F3C 003C                move.w     -[A7], 0x3C /* '<' */
000046F4  3F2D ECAC                move.w     -[A7], [A5 - 0x1354]
000046F8  3F2D C92E                move.w     -[A7], [A5 - 0x36D2]
000046FC  4EBA BCE6                jsr        [PC - 0x431A /* 000003E4 */]
00004700  302D C92E                move.w     D0, [A5 - 0x36D2]
00004704  3075 0320 D3B0           movea.w    A0, [A5 - 0x2C50 + D0 * 2]
0000470A  2008                     move.l     D0, A0
0000470C  81FC 0008                divs.w     D0, 0x8
00004710  3B40 EC9E                move.w     [A5 - 0x1362], D0
00004714  3EAD C92E                move.w     [A7], [A5 - 0x36D2]
00004718  4EBA DCC4                jsr        [PC - 0x233C /* 000023DE */]
0000471C  508F                     addq.l     A7, 8
label0000471E:
0000471E  3B7C 0001 F724           move.w     [A5 - 0x8DC], 0x1
00004724  6046                     bra        +0x48 /* 0000476C */
label00004726:
00004726  2F3C 0000 035E           move.l     -[A7], 0x35E
0000472C  4EBA 004A                jsr        [PC + 0x4A /* 00004778 */]
00004730  3E00                     move.w     D7, D0
00004732  0C47 FFFF                cmpi.w     D7, 0xFFFF
00004736  588F                     addq.l     A7, 4
00004738  6732                     beq        +0x34 /* 0000476C */
0000473A  49F5 7320 C92C           lea.l      A4, [A5 - 0x36D4 + D7 * 2]
00004740  3F14                     move.w     -[A7], [A4]
00004742  3F07                     move.w     -[A7], D7
00004744  2F3C 0000 0364           move.l     -[A7], 0x364
0000474A  4EBA 002C                jsr        [PC + 0x2C /* 00004778 */]
0000474E  3C00                     move.w     D6, D0
00004750  0C46 FFFF                cmpi.w     D6, 0xFFFF
00004754  508F                     addq.l     A7, 8
00004756  6714                     beq        +0x16 /* 0000476C */
00004758  3886                     move.w     [A4], D6
0000475A  6010                     bra        +0x12 /* 0000476C */
label0000475C:
0000475C  7001                     moveq.l    D0, 0x01
0000475E  906D F27E                sub.w      D0, [A5 - 0xD82]
00004762  3B40 F27E                move.w     [A5 - 0xD82], D0
00004766  6004                     bra        +0x6 /* 0000476C */
label00004768:
00004768  7000                     moveq.l    D0, 0x00
0000476A  6002                     bra        +0x4 /* 0000476E */
label0000476C:
0000476C  7001                     moveq.l    D0, 0x01
label0000476E:
0000476E  4CEE 10C0 FFE8           movem.l    D6,D7,A4, [A6 - 0x18]
00004774  4E5E                     unlink     A6
00004776  4E75                     rts
fn00004778:
00004778  4E56 FFFE                link       A6, -0x0002
0000477C  48E7 0300                movem.l    -[A7], D6,D7
00004780  2F2E 001C                move.l     -[A7], [A6 + 0x1C]
00004784  2F2E 0018                move.l     -[A7], [A6 + 0x18]
00004788  2F2E 0014                move.l     -[A7], [A6 + 0x14]
0000478C  2F2E 0010                move.l     -[A7], [A6 + 0x10]
00004790  2F2E 000C                move.l     -[A7], [A6 + 0xC]
00004794  2F2E 0008                move.l     -[A7], [A6 + 0x8]
00004798  486D F6D0                pea.l      [A5 - 0x930]
0000479C  4EAD 0CC2                jsr        [A5 + 0xCC2 /* export_404, CODE:7 @ 000048E6 */]
000047A0  4257                     clr.w      [A7]
000047A2  486D F6D0                pea.l      [A5 - 0x930]
000047A6  4878 000B                push.l     0xB
000047AA  4EAD 05C2                jsr        [A5 + 0x5C2 /* export_180, CODE:3 @ 00001DF6 */]
000047AE  486D F6D0                pea.l      [A5 - 0x930]
000047B2  4EAD 0CE2                jsr        [A5 + 0xCE2 /* export_408, CODE:7 @ 00004AE2 */]
000047B6  3E00                     move.w     D7, D0
000047B8  426E FFFE                clr.w      [A6 - 0x2]
000047BC  4FEF 0020                lea.l      A7, [A7 + 0x20]
label000047C0:
000047C0  3F3C 0001                move.w     -[A7], 0x1
000047C4  4EBA F248                jsr        [PC - 0xDB8 /* 00003A0E */]
000047C8  3C00                     move.w     D6, D0
000047CA  0C40 000D                cmpi.w     D0, 0xD /* '\r' */
000047CE  548F                     addq.l     A7, 2
000047D0  6700 008E                beq        +0x90 /* 00004860 */
000047D4  0C46 0008                cmpi.w     D6, 0x8
000047D8  6638                     bne        +0x3A /* 00004812 */
000047DA  4A6E FFFE                tst.w      [A6 - 0x2]
000047DE  67E0                     beq        -0x1E /* 000047C0 */
000047E0  536E FFFE                subq.w     [A6 - 0x2], 1
000047E4  7000                     moveq.l    D0, 0x00
000047E6  302E FFFE                move.w     D0, [A6 - 0x2]
000047EA  1BBC 0020 0920 9A20      move.b     [A5 - 0x65E0 + D0], 0x20 /* ' ' */
000047F2  5347                     subq.w     D7, 1
000047F4  7000                     moveq.l    D0, 0x00
000047F6  3007                     move.w     D0, D7
000047F8  1BBC 0020 0920 F6D0      move.b     [A5 - 0x930 + D0], 0x20 /* ' ' */
00004800  4267                     clr.w      -[A7]
00004802  486D F6D0                pea.l      [A5 - 0x930]
00004806  4878 000B                push.l     0xB
0000480A  4EAD 05C2                jsr        [A5 + 0x5C2 /* export_180, CODE:3 @ 00001DF6 */]
0000480E  548F                     addq.l     A7, 2
00004810  60AE                     bra        -0x50 /* 000047C0 */
label00004812:
00004812  4A46                     tst.w      D6
00004814  67AA                     beq        -0x54 /* 000047C0 */
00004816  302E FFFE                move.w     D0, [A6 - 0x2]
0000481A  526E FFFE                addq.w     [A6 - 0x2], 1
0000481E  7200                     moveq.l    D1, 0x00
00004820  3200                     move.w     D1, D0
00004822  1B86 1920 9A20           move.b     [A5 - 0x65E0 + D1], D6
00004828  7000                     moveq.l    D0, 0x00
0000482A  302E FFFE                move.w     D0, [A6 - 0x2]
0000482E  4235 0920 9A20           clr.b      [A5 - 0x65E0 + D0]
00004834  3007                     move.w     D0, D7
00004836  5247                     addq.w     D7, 1
00004838  7200                     moveq.l    D1, 0x00
0000483A  3200                     move.w     D1, D0
0000483C  1B86 1920 F6D0           move.b     [A5 - 0x930 + D1], D6
00004842  7000                     moveq.l    D0, 0x00
00004844  3007                     move.w     D0, D7
00004846  4235 0920 F6D0           clr.b      [A5 - 0x930 + D0]
0000484C  4267                     clr.w      -[A7]
0000484E  486D F6D0                pea.l      [A5 - 0x930]
00004852  4878 000B                push.l     0xB
00004856  4EAD 05C2                jsr        [A5 + 0x5C2 /* export_180, CODE:3 @ 00001DF6 */]
0000485A  548F                     addq.l     A7, 2
0000485C  6000 FF62                bra        -0x9C /* 000047C0 */
label00004860:
00004860  4A6E FFFE                tst.w      [A6 - 0x2]
00004864  6608                     bne        +0xA /* 0000486E */
00004866  4EAD 05CA                jsr        [A5 + 0x5CA /* export_181, CODE:3 @ 00001FAC */]
0000486A  70FF                     moveq.l    D0, 0xFFFFFFFF
0000486C  603E                     bra        +0x40 /* 000048AC */
label0000486E:
0000486E  0C2D 0041 9A20           cmpi.b     [A5 - 0x65E0], 0x41 /* 'A' */
00004874  6510                     bcs        +0x12 /* 00004886 */
00004876  0C2D 007A 9A20           cmpi.b     [A5 - 0x65E0], 0x7A /* 'z' */
0000487C  6208                     bhi        +0xA /* 00004886 */
0000487E  4EAD 05CA                jsr        [A5 + 0x5CA /* export_181, CODE:3 @ 00001FAC */]
00004882  70FE                     moveq.l    D0, 0xFFFFFFFE
00004884  6026                     bra        +0x28 /* 000048AC */
label00004886:
00004886  7000                     moveq.l    D0, 0x00
00004888  302E FFFE                move.w     D0, [A6 - 0x2]
0000488C  4235 0920 9A20           clr.b      [A5 - 0x65E0 + D0]
00004892  486E FFFE                pea.l      [A6 - 0x2]
00004896  2F3C 0000 037A           move.l     -[A7], 0x37A
0000489C  486D 9A20                pea.l      [A5 - 0x65E0]
000048A0  4EAD 0CCA                jsr        [A5 + 0xCCA /* export_405, CODE:7 @ 0000493A */]
000048A4  4EAD 05CA                jsr        [A5 + 0x5CA /* export_181, CODE:3 @ 00001FAC */]
000048A8  302E FFFE                move.w     D0, [A6 - 0x2]
label000048AC:
000048AC  4CEE 00C0 FFF6           movem.l    D6,D7, [A6 - 0xA]
000048B2  4E5E                     unlink     A6
000048B4  4E75                     rts
fn000048B6:
000048B6  4E56 FF92                link       A6, -0x006E
000048BA  48E7 0708                movem.l    -[A7], D5,D6,D7,A4
000048BE  286E 0008                movea.l    A4, [A6 + 0x8]
000048C2  2F0C                     move.l     -[A7], A4
000048C4  486E FF92                pea.l      [A6 - 0x6E]
000048C8  4EAD 0CD2                jsr        [A5 + 0xCD2 /* export_406, CODE:7 @ 000049C2 */]
000048CC  422E FF9A                clr.b      [A6 - 0x66]
000048D0  1B7C 0001 F27A           move.b     [A5 - 0xD86], 0x1
000048D6  3EBC FFFF                move.w     [A7], 0xFFFF
000048DA  4EAD 065A                jsr        [A5 + 0x65A /* export_199, CODE:3 @ 00003CDA */]
000048DE  4257                     clr.w      [A7]
000048E0  4EAD 065A                jsr        [A5 + 0x65A /* export_199, CODE:3 @ 00003CDA */]
000048E4  4EAD 090A                jsr        [A5 + 0x90A /* export_285, CODE:5 @ 00000DFC */]
000048E8  2E00                     move.l     D7, D0
000048EA  4EAD 090A                jsr        [A5 + 0x90A /* export_285, CODE:5 @ 00000DFC */]
000048EE  0C87 4D41 4E52           cmpi.l     D7, 0x4D414E52 /* 'MANR' */
000048F4  508F                     addq.l     A7, 8
000048F6  6644                     bne        +0x46 /* 0000493C */
000048F8  7EFF                     moveq.l    D7, 0xFFFFFFFF
label000048FA:
000048FA  4EAD 08FA                jsr        [A5 + 0x8FA /* export_283, CODE:5 @ 00000DB8 */]
000048FE  3C00                     move.w     D6, D0
00004900  6736                     beq        +0x38 /* 00004938 */
00004902  7A00                     moveq.l    D5, 0x00
00004904  600E                     bra        +0x10 /* 00004914 */
label00004906:
00004906  4EAD 08FA                jsr        [A5 + 0x8FA /* export_283, CODE:5 @ 00000DB8 */]
0000490A  0A00 00FF                xori.b     D0, 0xFF
0000490E  1D80 50F6                move.b     [A6 + D5.w - 0xA], D0
00004912  5245                     addq.w     D5, 1
label00004914:
00004914  0C45 0008                cmpi.w     D5, 0x8
00004918  6FEC                     ble        -0x12 /* 00004906 */
0000491A  2F0C                     move.l     -[A7], A4
0000491C  4EAD 0CE2                jsr        [A5 + 0xCE2 /* export_408, CODE:7 @ 00004AE2 */]
00004920  3E80                     move.w     [A7], D0
00004922  2F0C                     move.l     -[A7], A4
00004924  486E FFF6                pea.l      [A6 - 0xA]
00004928  4EAD 0CEA                jsr        [A5 + 0xCEA /* export_409, CODE:7 @ 00004B2E */]
0000492C  4A40                     tst.w      D0
0000492E  4FEF 000C                lea.l      A7, [A7 + 0xC]
00004932  66C6                     bne        -0x38 /* 000048FA */
00004934  3E06                     move.w     D7, D6
00004936  60C2                     bra        -0x3C /* 000048FA */
label00004938:
00004938  3007                     move.w     D0, D7
0000493A  6002                     bra        +0x4 /* 0000493E */
label0000493C:
0000493C  70FF                     moveq.l    D0, 0xFFFFFFFF
label0000493E:
0000493E  4CDF 10E0                movem.l    D5,D6,D7,A4, [A7]+
00004942  4E5E                     unlink     A6
00004944  4E75                     rts
fn00004946:
00004946  4E56 0000                link       A6, 0
0000494A  48E7 0300                movem.l    -[A7], D6,D7
0000494E  1B7C 0001 F27A           move.b     [A5 - 0xD86], 0x1
00004954  3F3C FFFF                move.w     -[A7], 0xFFFF
00004958  4EAD 065A                jsr        [A5 + 0x65A /* export_199, CODE:3 @ 00003CDA */]
0000495C  4257                     clr.w      [A7]
0000495E  4EAD 065A                jsr        [A5 + 0x65A /* export_199, CODE:3 @ 00003CDA */]
00004962  4EAD 090A                jsr        [A5 + 0x90A /* export_285, CODE:5 @ 00000DFC */]
00004966  2E00                     move.l     D7, D0
00004968  4EAD 090A                jsr        [A5 + 0x90A /* export_285, CODE:5 @ 00000DFC */]
0000496C  0C87 4D41 4E52           cmpi.l     D7, 0x4D414E52 /* 'MANR' */
00004972  548F                     addq.l     A7, 2
00004974  663A                     bne        +0x3C /* 000049B0 */
00004976  7EFF                     moveq.l    D7, 0xFFFFFFFF
label00004978:
00004978  4EAD 08FA                jsr        [A5 + 0x8FA /* export_283, CODE:5 @ 00000DB8 */]
0000497C  3E00                     move.w     D7, D0
0000497E  6730                     beq        +0x32 /* 000049B0 */
00004980  7C00                     moveq.l    D6, 0x00
00004982  6010                     bra        +0x12 /* 00004994 */
label00004984:
00004984  4EAD 08FA                jsr        [A5 + 0x8FA /* export_283, CODE:5 @ 00000DB8 */]
00004988  0A00 00FF                xori.b     D0, 0xFF
0000498C  1B80 6120 9A16           move.b     [A5 - 0x65EA + D6], D0
00004992  5246                     addq.w     D6, 1
label00004994:
00004994  0C46 0008                cmpi.w     D6, 0x8
00004998  6FEA                     ble        -0x14 /* 00004984 */
0000499A  BE6E 0008                cmp.w      D7, [A6 + 0x8]
0000499E  66D8                     bne        -0x26 /* 00004978 */
000049A0  3F3C FFFF                move.w     -[A7], 0xFFFF
000049A4  4EAD 065A                jsr        [A5 + 0x65A /* export_199, CODE:3 @ 00003CDA */]
000049A8  41ED 9A16                lea.l      A0, [A5 - 0x65EA]
000049AC  2008                     move.l     D0, A0
000049AE  600E                     bra        +0x10 /* 000049BE */
label000049B0:
000049B0  3F3C FFFF                move.w     -[A7], 0xFFFF
000049B4  4EAD 065A                jsr        [A5 + 0x65A /* export_199, CODE:3 @ 00003CDA */]
000049B8  203C 0000 037E           move.l     D0, 0x37E
label000049BE:
000049BE  4CEE 00C0 FFF8           movem.l    D6,D7, [A6 - 0x8]
000049C4  4E5E                     unlink     A6
000049C6  4E75                     rts
000049C8  4E56 0000                link       A6, 0
000049CC  48E7 0700                movem.l    -[A7], D5,D6,D7
000049D0  3E2D F528                move.w     D7, [A5 - 0xAD8]
000049D4  3C2D F52A                move.w     D6, [A5 - 0xAD6]
000049D8  7A00                     moveq.l    D5, 0x00
000049DA  1A2D F532                move.b     D5, [A5 - 0xACE]
000049DE  526D F528                addq.w     [A5 - 0xAD8], 1
000049E2  526D F52A                addq.w     [A5 - 0xAD6], 1
000049E6  422D F532                clr.b      [A5 - 0xACE]
000049EA  3F2E 0008                move.w     -[A7], [A6 + 0x8]
000049EE  4EAD 0B22                jsr        [A5 + 0xB22 /* export_352, CODE:5 @ 00000000 */]
000049F2  3B47 F528                move.w     [A5 - 0xAD8], D7
000049F6  3B46 F52A                move.w     [A5 - 0xAD6], D6
000049FA  1B45 F532                move.b     [A5 - 0xACE], D5
000049FE  3EAE 0008                move.w     [A7], [A6 + 0x8]
00004A02  4EAD 0B22                jsr        [A5 + 0xB22 /* export_352, CODE:5 @ 00000000 */]
00004A06  4CEE 00E0 FFF4           movem.l    D5,D6,D7, [A6 - 0xC]
00004A0C  4E5E                     unlink     A6
00004A0E  4E75                     rts
export_136:
00004A10  4EBA F0AA                jsr        [PC - 0xF56 /* 00003ABC */]
00004A14  4EBA 0204                jsr        [PC + 0x204 /* 00004C1A */]
00004A18  3B7C 0001 EDD0           move.w     [A5 - 0x1230], 0x1
00004A1E  3F3C 0002                move.w     -[A7], 0x2
00004A22  4EBA 001A                jsr        [PC + 0x1A /* 00004A3E */]
00004A26  4257                     clr.w      [A7]
00004A28  4EBA 0014                jsr        [PC + 0x14 /* 00004A3E */]
00004A2C  206D F746                movea.l    A0, [A5 - 0x8BA]
00004A30  4E90                     jsr        [A0]
00004A32  4EBA 01E4                jsr        [PC + 0x1E4 /* 00004C18 */]
00004A36  4EBA F08E                jsr        [PC - 0xF72 /* 00003AC6 */]
00004A3A  548F                     addq.l     A7, 2
00004A3C  4E75                     rts
export_137:
fn00004A3E:
00004A3E  4E56 0000                link       A6, 0
00004A42  48E7 0318                movem.l    -[A7], D6,D7,A3,A4
00004A46  3C2E 0008                move.w     D6, [A6 + 0x8]
00004A4A  7060                     moveq.l    D0, 0x60
00004A4C  C1C6                     muls.w     D0, D6
00004A4E  3E35 0920 F290           move.w     D7, [A5 - 0xD70 + D0]
00004A54  7060                     moveq.l    D0, 0x60
00004A56  C1C6                     muls.w     D0, D6
00004A58  49ED F28A                lea.l      A4, [A5 - 0xD76]
00004A5C  D08C                     add.l      D0, A4
00004A5E  2840                     movea.l    A4, D0
00004A60  4A47                     tst.w      D7
00004A62  6700 0118                beq        +0x11A /* 00004B7C */
00004A66  3B46 F286                move.w     [A5 - 0xD7A], D6
00004A6A  3B6C 0002 F412           move.w     [A5 - 0xBEE], [A4 + 0x2]
00004A70  3B47 F41A                move.w     [A5 - 0xBE6], D7
00004A74  426D F418                clr.w      [A5 - 0xBE8]
00004A78  4A2C 000B                tst.b      [A4 + 0xB]
00004A7C  6706                     beq        +0x8 /* 00004A84 */
00004A7E  3B6D ECA2 F418           move.w     [A5 - 0xBE8], [A5 - 0x135E]
label00004A84:
00004A84  0C2D 000E EDD3           cmpi.b     [A5 - 0x122D], 0xE
00004A8A  6660                     bne        +0x62 /* 00004AEC */
00004A8C  426D F40C                clr.w      [A5 - 0xBF4]
00004A90  604E                     bra        +0x50 /* 00004AE0 */
label00004A92:
00004A92  7060                     moveq.l    D0, 0x60
00004A94  C1C6                     muls.w     D0, D6
00004A96  49ED F2C0                lea.l      A4, [A5 - 0xD40]
00004A9A  D08C                     add.l      D0, A4
00004A9C  2840                     movea.l    A4, D0
00004A9E  7E00                     moveq.l    D7, 0x00
00004AA0  3E2D F40C                move.w     D7, [A5 - 0xBF4]
00004AA4  7000                     moveq.l    D0, 0x00
00004AA6  1034 7800                move.b     D0, [A4 + D7]
00004AAA  3B40 F410                move.w     [A5 - 0xBF0], D0
00004AAE  4A40                     tst.w      D0
00004AB0  672A                     beq        +0x2C /* 00004ADC */
00004AB2  7060                     moveq.l    D0, 0x60
00004AB4  C1C6                     muls.w     D0, D6
00004AB6  47ED F298                lea.l      A3, [A5 - 0xD68]
00004ABA  D08B                     add.l      D0, A3
00004ABC  2640                     movea.l    A3, D0
00004ABE  7000                     moveq.l    D0, 0x00
00004AC0  1033 7800                move.b     D0, [A3 + D7]
00004AC4  3B40 F40E                move.w     [A5 - 0xBF2], D0
00004AC8  4EBA 00BA                jsr        [PC + 0xBA /* 00004B84 */]
00004ACC  7E00                     moveq.l    D7, 0x00
00004ACE  3E2D F40C                move.w     D7, [A5 - 0xBF4]
00004AD2  17AD F41B 7800           move.b     [A3 + D7], [A5 - 0xBE5]
00004AD8  4234 7800                clr.b      [A4 + D7]
label00004ADC:
00004ADC  526D F40C                addq.w     [A5 - 0xBF4], 1
label00004AE0:
00004AE0  0C6D 0028 F40C           cmpi.w     [A5 - 0xBF4], 0x28 /* '(' */
00004AE6  65AA                     bcs        -0x54 /* 00004A92 */
00004AE8  6000 0092                bra        +0x94 /* 00004B7C */
label00004AEC:
00004AEC  7060                     moveq.l    D0, 0x60
00004AEE  C1C6                     muls.w     D0, D6
00004AF0  49ED F2C0                lea.l      A4, [A5 - 0xD40]
00004AF4  D08C                     add.l      D0, A4
00004AF6  2840                     movea.l    A4, D0
00004AF8  7060                     moveq.l    D0, 0x60
00004AFA  C1C6                     muls.w     D0, D6
00004AFC  47ED F298                lea.l      A3, [A5 - 0xD68]
00004B00  D08B                     add.l      D0, A3
00004B02  2640                     movea.l    A3, D0
00004B04  3B7C 0008 9A34           move.w     [A5 - 0x65CC], 0x8
00004B0A  7E00                     moveq.l    D7, 0x00
00004B0C  426D F40C                clr.w      [A5 - 0xBF4]
label00004B10:
00004B10  7000                     moveq.l    D0, 0x00
00004B12  1014                     move.b     D0, [A4]
00004B14  3B40 F410                move.w     [A5 - 0xBF0], D0
00004B18  674C                     beq        +0x4E /* 00004B66 */
00004B1A  7000                     moveq.l    D0, 0x00
00004B1C  1013                     move.b     D0, [A3]
00004B1E  3B40 F40E                move.w     [A5 - 0xBF2], D0
00004B22  16AD F41B                move.b     [A3], [A5 - 0xBE5]
00004B26  4214                     clr.b      [A4]
00004B28  0C47 0027                cmpi.w     D7, 0x27 /* '\'' */
00004B2C  6732                     beq        +0x34 /* 00004B60 */
00004B2E  7000                     moveq.l    D0, 0x00
00004B30  102C 0001                move.b     D0, [A4 + 0x1]
00004B34  B06D F410                cmp.w      D0, [A5 - 0xBF0]
00004B38  6612                     bne        +0x14 /* 00004B4C */
00004B3A  7000                     moveq.l    D0, 0x00
00004B3C  102B 0001                move.b     D0, [A3 + 0x1]
00004B40  B06D F40E                cmp.w      D0, [A5 - 0xBF2]
00004B44  6606                     bne        +0x8 /* 00004B4C */
00004B46  506D 9A34                addq.w     [A5 - 0x65CC], 8
00004B4A  6022                     bra        +0x24 /* 00004B6E */
label00004B4C:
00004B4C  4EBA 0036                jsr        [PC + 0x36 /* 00004B84 */]
00004B50  3B7C 0008 9A34           move.w     [A5 - 0x65CC], 0x8
00004B56  7001                     moveq.l    D0, 0x01
00004B58  D047                     add.w      D0, D7
00004B5A  3B40 F40C                move.w     [A5 - 0xBF4], D0
00004B5E  600E                     bra        +0x10 /* 00004B6E */
label00004B60:
00004B60  4EBA 0022                jsr        [PC + 0x22 /* 00004B84 */]
00004B64  6008                     bra        +0xA /* 00004B6E */
label00004B66:
00004B66  7001                     moveq.l    D0, 0x01
00004B68  D047                     add.w      D0, D7
00004B6A  3B40 F40C                move.w     [A5 - 0xBF4], D0
label00004B6E:
00004B6E  528B                     addq.l     A3, 1
00004B70  528C                     addq.l     A4, 1
00004B72  3007                     move.w     D0, D7
00004B74  5247                     addq.w     D7, 1
00004B76  0C40 0028                cmpi.w     D0, 0x28 /* '(' */
00004B7A  6694                     bne        -0x6A /* 00004B10 */
label00004B7C:
00004B7C  4CDF 18C0                movem.l    D6,D7,A3,A4, [A7]+
00004B80  4E5E                     unlink     A6
00004B82  4E75                     rts
export_138:
fn00004B84:
00004B84  302D F410                move.w     D0, [A5 - 0xBF0]
00004B88  B06D F40E                cmp.w      D0, [A5 - 0xBF2]
00004B8C  636C                     bls        +0x6E /* 00004BFA */
00004B8E  302D F40E                move.w     D0, [A5 - 0xBF2]
00004B92  B06D F410                cmp.w      D0, [A5 - 0xBF0]
00004B96  650A                     bcs        +0xC /* 00004BA2 */
00004B98  7004                     moveq.l    D0, 0x04
00004B9A  D06D F40E                add.w      D0, [A5 - 0xBF2]
00004B9E  3B40 F410                move.w     [A5 - 0xBF0], D0
label00004BA2:
00004BA2  302D F40E                move.w     D0, [A5 - 0xBF2]
00004BA6  B06D F41A                cmp.w      D0, [A5 - 0xBE6]
00004BAA  6304                     bls        +0x6 /* 00004BB0 */
00004BAC  426D F40E                clr.w      [A5 - 0xBF2]
label00004BB0:
00004BB0  302D F410                move.w     D0, [A5 - 0xBF0]
00004BB4  B06D F41A                cmp.w      D0, [A5 - 0xBE6]
00004BB8  6306                     bls        +0x8 /* 00004BC0 */
00004BBA  3B6D F41A F410           move.w     [A5 - 0xBF0], [A5 - 0xBE6]
label00004BC0:
00004BC0  7001                     moveq.l    D0, 0x01
00004BC2  D06D F286                add.w      D0, [A5 - 0xD7A]
00004BC6  3F00                     move.w     -[A7], D0
00004BC8  3F3C 000A                move.w     -[A7], 0xA /* '\n' */
00004BCC  4EBA F120                jsr        [PC - 0xEE0 /* 00003CEE */]
00004BD0  322D F418                move.w     D1, [A5 - 0xBE8]
00004BD4  D26D F40C                add.w      D1, [A5 - 0xBF4]
00004BD8  E749                     lsl        D1.w, 3
00004BDA  342D F40E                move.w     D2, [A5 - 0xBF2]
00004BDE  E54A                     lsl        D2.w, 2
00004BE0  D46D F40E                add.w      D2, [A5 - 0xBF2]
00004BE4  ED4A                     lsl        D2.w, 6
00004BE6  D242                     add.w      D1, D2
00004BE8  7400                     moveq.l    D2, 0x00
00004BEA  3401                     move.w     D2, D1
00004BEC  D082                     add.l      D0, D2
00004BEE  2B40 F414                move.l     [A5 - 0xBEC], D0
00004BF2  206D F742                movea.l    A0, [A5 - 0x8BE]
00004BF6  4E90                     jsr        [A0]
00004BF8  588F                     addq.l     A7, 4
label00004BFA:
00004BFA  4E75                     rts
export_139:
00004BFC  4E56 0000                link       A6, 0
00004C00  4E5E                     unlink     A6
00004C02  4E75                     rts
export_140:
00004C04  4E56 0000                link       A6, 0
00004C08  4E5E                     unlink     A6
00004C0A  4E75                     rts
fn00004C0C:
00004C0C  4EAD 089A                jsr        [A5 + 0x89A /* export_271, CODE:4 @ 00001922 */]
00004C10  4E75                     rts
fn00004C12:
00004C12  4EAD 08A2                jsr        [A5 + 0x8A2 /* export_272, CODE:4 @ 000019D2 */]
00004C16  4E75                     rts
export_141:
fn00004C18:
00004C18  4E75                     rts
export_142:
fn00004C1A:
00004C1A  4E75                     rts
export_143:
00004C1C  4E75                     rts
export_144:
00004C1E  48E7 0300                movem.l    -[A7], D6,D7
00004C22  302D EC9E                move.w     D0, [A5 - 0x1362]
00004C26  B06D ECA0                cmp.w      D0, [A5 - 0x1360]
00004C2A  670A                     beq        +0xC /* 00004C36 */
00004C2C  4A6D F40A                tst.w      [A5 - 0xBF6]
00004C30  6704                     beq        +0x6 /* 00004C36 */
00004C32  4EAD 073A                jsr        [A5 + 0x73A /* export_227, CODE:4 @ 00005900 */]
label00004C36:
00004C36  7E00                     moveq.l    D7, 0x00
00004C38  4A6D F724                tst.w      [A5 - 0x8DC]
00004C3C  6630                     bne        +0x32 /* 00004C6E */
00004C3E  4A6D EDF8                tst.w      [A5 - 0x1208]
00004C42  672A                     beq        +0x2C /* 00004C6E */
00004C44  7C00                     moveq.l    D6, 0x00
00004C46  6020                     bra        +0x22 /* 00004C68 */
label00004C48:
00004C48  302D ECA2                move.w     D0, [A5 - 0x135E]
00004C4C  D046                     add.w      D0, D6
00004C4E  7200                     moveq.l    D1, 0x00
00004C50  3200                     move.w     D1, D0
00004C52  4A35 1B20 EDFA           tst.b      [A5 - 0x1206 + D1 * 2]
00004C58  6A0C                     bpl        +0xE /* 00004C66 */
00004C5A  3F3C 0001                move.w     -[A7], 0x1
00004C5E  3F06                     move.w     -[A7], D6
00004C60  4EBA 008A                jsr        [PC + 0x8A /* 00004CEC */]
00004C64  588F                     addq.l     A7, 4
label00004C66:
00004C66  5246                     addq.w     D6, 1
label00004C68:
00004C68  0C46 0028                cmpi.w     D6, 0x28 /* '(' */
00004C6C  65DA                     bcs        -0x24 /* 00004C48 */
label00004C6E:
00004C6E  4A6D F724                tst.w      [A5 - 0x8DC]
00004C72  6620                     bne        +0x22 /* 00004C94 */
00004C74  70F8                     moveq.l    D0, 0xFFFFFFF8
00004C76  D06D EC9E                add.w      D0, [A5 - 0x1362]
00004C7A  B06D ECA0                cmp.w      D0, [A5 - 0x1360]
00004C7E  6614                     bne        +0x16 /* 00004C94 */
00004C80  7E02                     moveq.l    D7, 0x02
00004C82  4EBA FF88                jsr        [PC - 0x78 /* 00004C0C */]
00004C86  2F3C 0027 0001           move.l     -[A7], 0x270001
00004C8C  4EBA 005E                jsr        [PC + 0x5E /* 00004CEC */]
00004C90  588F                     addq.l     A7, 4
00004C92  6046                     bra        +0x48 /* 00004CDA */
label00004C94:
00004C94  4A6D F724                tst.w      [A5 - 0x8DC]
00004C98  661E                     bne        +0x20 /* 00004CB8 */
00004C9A  7008                     moveq.l    D0, 0x08
00004C9C  D06D EC9E                add.w      D0, [A5 - 0x1362]
00004CA0  B06D ECA0                cmp.w      D0, [A5 - 0x1360]
00004CA4  6612                     bne        +0x14 /* 00004CB8 */
00004CA6  7E01                     moveq.l    D7, 0x01
00004CA8  4EBA FF68                jsr        [PC - 0x98 /* 00004C12 */]
00004CAC  4878 0001                push.l     0x1
00004CB0  4EBA 003A                jsr        [PC + 0x3A /* 00004CEC */]
00004CB4  588F                     addq.l     A7, 4
00004CB6  6022                     bra        +0x24 /* 00004CDA */
label00004CB8:
00004CB8  4A6D F724                tst.w      [A5 - 0x8DC]
00004CBC  660A                     bne        +0xC /* 00004CC8 */
00004CBE  302D EC9E                move.w     D0, [A5 - 0x1362]
00004CC2  B06D ECA0                cmp.w      D0, [A5 - 0x1360]
00004CC6  6712                     beq        +0x14 /* 00004CDA */
label00004CC8:
00004CC8  426D ED02                clr.w      [A5 - 0x12FE]
00004CCC  426D EDF8                clr.w      [A5 - 0x1208]
00004CD0  4878 0028                push.l     0x28 /* '(' */
00004CD4  4EBA 0016                jsr        [PC + 0x16 /* 00004CEC */]
00004CD8  588F                     addq.l     A7, 4
label00004CDA:
00004CDA  3F07                     move.w     -[A7], D7
00004CDC  4EAD 07F2                jsr        [A5 + 0x7F2 /* export_250, CODE:4 @ 00006A8C */]
00004CE0  426D EDF8                clr.w      [A5 - 0x1208]
00004CE4  548F                     addq.l     A7, 2
00004CE6  4CDF 00C0                movem.l    D6,D7, [A7]+
00004CEA  4E75                     rts
fn00004CEC:
00004CEC  4E56 FFFA                link       A6, -0x0006
00004CF0  2F07                     move.l     -[A7], D7
00004CF2  426D F286                clr.w      [A5 - 0xD7A]
00004CF6  3E2E 0008                move.w     D7, [A6 + 0x8]
00004CFA  DE6D ECA2                add.w      D7, [A5 - 0x135E]
00004CFE  7000                     moveq.l    D0, 0x00
00004D00  3007                     move.w     D0, D7
00004D02  0075 8000 0B20 EDFA      ori.w      [A5 - 0x1206 + D0 * 2], 0x8000
00004D0A  3B47 EF52                move.w     [A5 - 0x10AE], D7
00004D0E  426D EF54                clr.w      [A5 - 0x10AC]
00004D12  1B6D F291 EF58           move.b     [A5 - 0x10A8], [A5 - 0xD6F]
00004D18  7000                     moveq.l    D0, 0x00
00004D1A  102D EF58                move.b     D0, [A5 - 0x10A8]
00004D1E  B06D B2B8                cmp.w      D0, [A5 - 0x4D48]
00004D22  6318                     bls        +0x1A /* 00004D3C */
00004D24  3F2D B2B8                move.w     -[A7], [A5 - 0x4D48]
00004D28  7000                     moveq.l    D0, 0x00
00004D2A  102D EF58                move.b     D0, [A5 - 0x10A8]
00004D2E  3F00                     move.w     -[A7], D0
00004D30  2F3C 0000 037F           move.l     -[A7], 0x37F
00004D36  4EAD 0A42                jsr        [A5 + 0xA42 /* export_324, CODE:5 @ 000034B4 */]
00004D3A  508F                     addq.l     A7, 8
label00004D3C:
00004D3C  7000                     moveq.l    D0, 0x00
00004D3E  102D B2D7                move.b     D0, [A5 - 0x4D29]
00004D42  3F00                     move.w     -[A7], D0
00004D44  2F3C 0000 03A1           move.l     -[A7], 0x3A1
00004D4A  3F2E 000A                move.w     -[A7], [A6 + 0xA]
00004D4E  3F07                     move.w     -[A7], D7
00004D50  7000                     moveq.l    D0, 0x00
00004D52  102D B2D7                move.b     D0, [A5 - 0x4D29]
00004D56  3F00                     move.w     -[A7], D0
00004D58  3F3C 0001                move.w     -[A7], 0x1
00004D5C  4EBA EF90                jsr        [PC - 0x1070 /* 00003CEE */]
00004D60  D0AD B2C2                add.l      D0, [A5 - 0x4D3E]
00004D64  2E80                     move.l     [A7], D0
00004D66  4EBA 000A                jsr        [PC + 0xA /* 00004D72 */]
00004D6A  2E2E FFF6                move.l     D7, [A6 - 0xA]
00004D6E  4E5E                     unlink     A6
00004D70  4E75                     rts
export_145:
fn00004D72:
00004D72  4E56 FFEE                link       A6, -0x0012
00004D76  48E7 1F18                movem.l    -[A7], D3,D4,D5,D6,D7,A3,A4
00004D7A  2F2E 0008                move.l     -[A7], [A6 + 0x8]
00004D7E  2F3C 5041 4D53           move.l     -[A7], 0x50414D53 /* 'PAMS' */
00004D84  4EAD 051A                jsr        [A5 + 0x51A /* export_159, CODE:3 @ 000009FA */]
00004D88  2840                     movea.l    A4, D0
00004D8A  7E01                     moveq.l    D7, 0x01
00004D8C  508F                     addq.l     A7, 8
00004D8E  601E                     bra        +0x20 /* 00004DAE */
label00004D90:
00004D90  2F2E 0008                move.l     -[A7], [A6 + 0x8]
00004D94  7000                     moveq.l    D0, 0x00
00004D96  3007                     move.w     D0, D7
00004D98  2F35 0D20 9A38           move.l     -[A7], [A5 - 0x65C8 + D0 * 4]
00004D9E  4EAD 051A                jsr        [A5 + 0x51A /* export_159, CODE:3 @ 000009FA */]
00004DA2  7200                     moveq.l    D1, 0x00
00004DA4  3207                     move.w     D1, D7
00004DA6  2D80 1CF0                move.l     [A6 + D1 * 4 - 0x10], D0
00004DAA  508F                     addq.l     A7, 8
00004DAC  5247                     addq.w     D7, 1
label00004DAE:
00004DAE  BE6D F730                cmp.w      D7, [A5 - 0x8D0]
00004DB2  65DC                     bcs        -0x22 /* 00004D90 */
00004DB4  7000                     moveq.l    D0, 0x00
00004DB6  102D EF58                move.b     D0, [A5 - 0x10A8]
00004DBA  D06D EF54                add.w      D0, [A5 - 0x10AC]
00004DBE  3C00                     move.w     D6, D0
00004DC0  7060                     moveq.l    D0, 0x60
00004DC2  C0ED F286                mulu.w     D0, [A5 - 0xD7A]
00004DC6  47ED F28A                lea.l      A3, [A5 - 0xD76]
00004DCA  D08B                     add.l      D0, A3
00004DCC  2640                     movea.l    A3, D0
00004DCE  BC6B 0006                cmp.w      D6, [A3 + 0x6]
00004DD2  631C                     bls        +0x1E /* 00004DF0 */
00004DD4  3F2B 0006                move.w     -[A7], [A3 + 0x6]
00004DD8  3F06                     move.w     -[A7], D6
00004DDA  3F2E 0014                move.w     -[A7], [A6 + 0x14]
00004DDE  2F2E 0010                move.l     -[A7], [A6 + 0x10]
00004DE2  2F3C 0000 03A7           move.l     -[A7], 0x3A7
00004DE8  4EAD 0A42                jsr        [A5 + 0xA42 /* export_324, CODE:5 @ 000034B4 */]
00004DEC  4FEF 000E                lea.l      A7, [A7 + 0xE]
label00004DF0:
00004DF0  7060                     moveq.l    D0, 0x60
00004DF2  C0ED F286                mulu.w     D0, [A5 - 0xD7A]
00004DF6  47ED F28A                lea.l      A3, [A5 - 0xD76]
00004DFA  D08B                     add.l      D0, A3
00004DFC  2640                     movea.l    A3, D0
00004DFE  1A2B 000A                move.b     D5, [A3 + 0xA]
00004E02  3B6B 0008 F41C           move.w     [A5 - 0xBE4], [A3 + 0x8]
00004E08  4A2B 000B                tst.b      [A3 + 0xB]
00004E0C  6706                     beq        +0x8 /* 00004E14 */
00004E0E  066D 0500 F41C           addi.w     [A5 - 0xBE4], 0x500
label00004E14:
00004E14  7E00                     moveq.l    D7, 0x00
00004E16  1E2D EF58                move.b     D7, [A5 - 0x10A8]
00004E1A  3007                     move.w     D0, D7
00004E1C  E548                     lsl        D0.w, 2
00004E1E  D047                     add.w      D0, D7
00004E20  ED48                     lsl        D0.w, 6
00004E22  5340                     subq.w     D0, 1
00004E24  3B40 EF56                move.w     [A5 - 0x10AA], D0
00004E28  4A2D EF58                tst.b      [A5 - 0x10A8]
00004E2C  6214                     bhi        +0x16 /* 00004E42 */
00004E2E  2F3C 0000 03D7           move.l     -[A7], 0x3D7
00004E34  7000                     moveq.l    D0, 0x00
00004E36  102D EF58                move.b     D0, [A5 - 0x10A8]
00004E3A  2F00                     move.l     -[A7], D0
00004E3C  4EAD 084A                jsr        [A5 + 0x84A /* export_261, CODE:4 @ 00001FF0 */]
00004E40  508F                     addq.l     A7, 8
label00004E42:
00004E42  182D EF58                move.b     D4, [A5 - 0x10A8]
00004E46  6000 0278                bra        +0x27A /* 000050C0 */
label00004E4A:
00004E4A  1B44 EF58                move.b     [A5 - 0x10A8], D4
00004E4E  4A2D EF58                tst.b      [A5 - 0x10A8]
00004E52  6214                     bhi        +0x16 /* 00004E68 */
00004E54  2F3C 0000 03F1           move.l     -[A7], 0x3F1
00004E5A  7000                     moveq.l    D0, 0x00
00004E5C  102D EF58                move.b     D0, [A5 - 0x10A8]
00004E60  2F00                     move.l     -[A7], D0
00004E62  4EAD 084A                jsr        [A5 + 0x84A /* export_261, CODE:4 @ 00001FF0 */]
00004E66  508F                     addq.l     A7, 8
label00004E68:
00004E68  302E 000C                move.w     D0, [A6 + 0xC]
00004E6C  E548                     lsl        D0.w, 2
00004E6E  7200                     moveq.l    D1, 0x00
00004E70  3200                     move.w     D1, D0
00004E72  4874 1808                pea.l      [A4 + D1 + 0x8]
00004E76  4EAD 0BFA                jsr        [A5 + 0xBFA /* export_379, CODE:6 @ 00000076 */]
00004E7A  D08C                     add.l      D0, A4
00004E7C  2B40 EF4A                move.l     [A5 - 0x10B6], D0
00004E80  4A2D EF58                tst.b      [A5 - 0x10A8]
00004E84  588F                     addq.l     A7, 4
00004E86  6214                     bhi        +0x16 /* 00004E9C */
00004E88  2F3C 0000 040B           move.l     -[A7], 0x40B
00004E8E  7000                     moveq.l    D0, 0x00
00004E90  102D EF58                move.b     D0, [A5 - 0x10A8]
00004E94  2F00                     move.l     -[A7], D0
00004E96  4EAD 084A                jsr        [A5 + 0x84A /* export_261, CODE:4 @ 00001FF0 */]
00004E9A  508F                     addq.l     A7, 8
label00004E9C:
00004E9C  3E2D EF52                move.w     D7, [A5 - 0x10AE]
00004EA0  4A2D EF58                tst.b      [A5 - 0x10A8]
00004EA4  6214                     bhi        +0x16 /* 00004EBA */
00004EA6  2F3C 0000 0427           move.l     -[A7], 0x427
00004EAC  7000                     moveq.l    D0, 0x00
00004EAE  102D EF58                move.b     D0, [A5 - 0x10A8]
00004EB2  2F00                     move.l     -[A7], D0
00004EB4  4EAD 084A                jsr        [A5 + 0x84A /* export_261, CODE:4 @ 00001FF0 */]
00004EB8  508F                     addq.l     A7, 8
label00004EBA:
00004EBA  7060                     moveq.l    D0, 0x60
00004EBC  C0ED F286                mulu.w     D0, [A5 - 0xD7A]
00004EC0  4A35 0920 F295           tst.b      [A5 - 0xD6B + D0]
00004EC6  6704                     beq        +0x6 /* 00004ECC */
00004EC8  9E6D ECA2                sub.w      D7, [A5 - 0x135E]
label00004ECC:
00004ECC  4A2D EF58                tst.b      [A5 - 0x10A8]
00004ED0  6214                     bhi        +0x16 /* 00004EE6 */
00004ED2  2F3C 0000 0443           move.l     -[A7], 0x443
00004ED8  7000                     moveq.l    D0, 0x00
00004EDA  102D EF58                move.b     D0, [A5 - 0x10A8]
00004EDE  2F00                     move.l     -[A7], D0
00004EE0  4EAD 084A                jsr        [A5 + 0x84A /* export_261, CODE:4 @ 00001FF0 */]
00004EE4  508F                     addq.l     A7, 8
label00004EE6:
00004EE6  7000                     moveq.l    D0, 0x00
00004EE8  3007                     move.w     D0, D7
00004EEA  7260                     moveq.l    D1, 0x60
00004EEC  C2ED F286                mulu.w     D1, [A5 - 0xD7A]
00004EF0  47ED F298                lea.l      A3, [A5 - 0xD68]
00004EF4  D28B                     add.l      D1, A3
00004EF6  D081                     add.l      D0, D1
00004EF8  2640                     movea.l    A3, D0
00004EFA  7000                     moveq.l    D0, 0x00
00004EFC  1013                     move.b     D0, [A3]
00004EFE  B06D EF54                cmp.w      D0, [A5 - 0x10AC]
00004F02  6304                     bls        +0x6 /* 00004F08 */
00004F04  16AD EF55                move.b     [A3], [A5 - 0x10AB]
label00004F08:
00004F08  7000                     moveq.l    D0, 0x00
00004F0A  3007                     move.w     D0, D7
00004F0C  7260                     moveq.l    D1, 0x60
00004F0E  C2ED F286                mulu.w     D1, [A5 - 0xD7A]
00004F12  47ED F2C0                lea.l      A3, [A5 - 0xD40]
00004F16  D28B                     add.l      D1, A3
00004F18  D081                     add.l      D0, D1
00004F1A  2640                     movea.l    A3, D0
00004F1C  7000                     moveq.l    D0, 0x00
00004F1E  1013                     move.b     D0, [A3]
00004F20  B046                     cmp.w      D0, D6
00004F22  6402                     bcc        +0x4 /* 00004F26 */
00004F24  1686                     move.b     [A3], D6
label00004F26:
00004F26  7001                     moveq.l    D0, 0x01
00004F28  D06D F286                add.w      D0, [A5 - 0xD7A]
00004F2C  3F00                     move.w     -[A7], D0
00004F2E  3F3C 000A                move.w     -[A7], 0xA /* '\n' */
00004F32  4EBA EDBA                jsr        [PC - 0x1246 /* 00003CEE */]
00004F36  322D EF52                move.w     D1, [A5 - 0x10AE]
00004F3A  E749                     lsl        D1.w, 3
00004F3C  342D EF54                move.w     D2, [A5 - 0x10AC]
00004F40  E54A                     lsl        D2.w, 2
00004F42  D46D EF54                add.w      D2, [A5 - 0x10AC]
00004F46  ED4A                     lsl        D2.w, 6
00004F48  D242                     add.w      D1, D2
00004F4A  7400                     moveq.l    D2, 0x00
00004F4C  3401                     move.w     D2, D1
00004F4E  D082                     add.l      D0, D2
00004F50  2B40 EF3E                move.l     [A5 - 0x10C2], D0
00004F54  7205                     moveq.l    D1, 0x05
00004F56  D26D F286                add.w      D1, [A5 - 0xD7A]
00004F5A  3E81                     move.w     [A7], D1
00004F5C  3F3C 000A                move.w     -[A7], 0xA /* '\n' */
00004F60  4EBA ED8C                jsr        [PC - 0x1274 /* 00003CEE */]
00004F64  322D EF52                move.w     D1, [A5 - 0x10AE]
00004F68  E749                     lsl        D1.w, 3
00004F6A  342D EF54                move.w     D2, [A5 - 0x10AC]
00004F6E  E54A                     lsl        D2.w, 2
00004F70  D46D EF54                add.w      D2, [A5 - 0x10AC]
00004F74  ED4A                     lsl        D2.w, 6
00004F76  D242                     add.w      D1, D2
00004F78  7400                     moveq.l    D2, 0x00
00004F7A  3401                     move.w     D2, D1
00004F7C  D082                     add.l      D0, D2
00004F7E  2B40 EF3A                move.l     [A5 - 0x10C6], D0
00004F82  4A05                     tst.b      D5
00004F84  5C8F                     addq.l     A7, 6
00004F86  6606                     bne        +0x8 /* 00004F8E */
00004F88  2B6D EF3E EF3A           move.l     [A5 - 0x10C6], [A5 - 0x10C2]
label00004F8E:
00004F8E  2F3C 000A 0009           move.l     -[A7], 0xA0009 /* '\n\0\t' */
00004F94  4EBA ED58                jsr        [PC - 0x12A8 /* 00003CEE */]
00004F98  7200                     moveq.l    D1, 0x00
00004F9A  322D EF52                move.w     D1, [A5 - 0x10AE]
00004F9E  D081                     add.l      D0, D1
00004FA0  322D EF54                move.w     D1, [A5 - 0x10AC]
00004FA4  E549                     lsl        D1.w, 2
00004FA6  D26D EF54                add.w      D1, [A5 - 0x10AC]
00004FAA  E749                     lsl        D1.w, 3
00004FAC  7400                     moveq.l    D2, 0x00
00004FAE  3401                     move.w     D2, D1
00004FB0  D082                     add.l      D0, D2
00004FB2  2B40 EF46                move.l     [A5 - 0x10BA], D0
00004FB6  266D EF3A                movea.l    A3, [A5 - 0x10C6]
00004FBA  4EBA 011A                jsr        [PC + 0x11A /* 000050D6 */]
00004FBE  4A05                     tst.b      D5
00004FC0  588F                     addq.l     A7, 4
00004FC2  6772                     beq        +0x74 /* 00005036 */
00004FC4  2B4B EF3A                move.l     [A5 - 0x10C6], A3
00004FC8  082D 0001 C93F           btst.b     [A5 - 0x36C1], 0x1
00004FCE  6740                     beq        +0x42 /* 00005010 */
00004FD0  3607                     move.w     D3, D7
00004FD2  E74B                     lsl        D3.w, 3
00004FD4  3F06                     move.w     -[A7], D6
00004FD6  7008                     moveq.l    D0, 0x08
00004FD8  D043                     add.w      D0, D3
00004FDA  3F00                     move.w     -[A7], D0
00004FDC  3F2D EF54                move.w     -[A7], [A5 - 0x10AC]
00004FE0  3F03                     move.w     -[A7], D3
00004FE2  4EAD 0B32                jsr        [A5 + 0xB32 /* export_354, CODE:5 @ 000005F4 */]
00004FE6  4A40                     tst.w      D0
00004FE8  508F                     addq.l     A7, 8
00004FEA  6706                     beq        +0x8 /* 00004FF2 */
00004FEC  4EAD 0B0A                jsr        [A5 + 0xB0A /* export_349, CODE:5 @ 00003D0C */]
00004FF0  6044                     bra        +0x46 /* 00005036 */
label00004FF2:
00004FF2  7000                     moveq.l    D0, 0x00
00004FF4  102D EF58                move.b     D0, [A5 - 0x10A8]
00004FF8  3F00                     move.w     -[A7], D0
00004FFA  3F3C 0008                move.w     -[A7], 0x8
00004FFE  2F2D EF3A                move.l     -[A7], [A5 - 0x10C6]
00005002  2F2D EF3E                move.l     -[A7], [A5 - 0x10C2]
00005006  4EAD 0692                jsr        [A5 + 0x692 /* export_206, CODE:3 @ 0000014C */]
0000500A  4FEF 000C                lea.l      A7, [A7 + 0xC]
0000500E  6026                     bra        +0x28 /* 00005036 */
label00005010:
00005010  3607                     move.w     D3, D7
00005012  E74B                     lsl        D3.w, 3
00005014  3F06                     move.w     -[A7], D6
00005016  7008                     moveq.l    D0, 0x08
00005018  D043                     add.w      D0, D3
0000501A  3F00                     move.w     -[A7], D0
0000501C  3F2D EF54                move.w     -[A7], [A5 - 0x10AC]
00005020  3F03                     move.w     -[A7], D3
00005022  4EAD 0B32                jsr        [A5 + 0xB32 /* export_354, CODE:5 @ 000005F4 */]
00005026  4A40                     tst.w      D0
00005028  508F                     addq.l     A7, 8
0000502A  6706                     beq        +0x8 /* 00005032 */
0000502C  4EAD 067A                jsr        [A5 + 0x67A /* export_203, CODE:3 @ 00000038 */]
00005030  6004                     bra        +0x6 /* 00005036 */
label00005032:
00005032  4EAD 0672                jsr        [A5 + 0x672 /* export_202, CODE:3 @ 00000000 */]
label00005036:
00005036  0C6D 0001 F730           cmpi.w     [A5 - 0x8D0], 0x1
0000503C  637A                     bls        +0x7C /* 000050B8 */
0000503E  7E01                     moveq.l    D7, 0x01
00005040  6070                     bra        +0x72 /* 000050B2 */
label00005042:
00005042  7000                     moveq.l    D0, 0x00
00005044  3007                     move.w     D0, D7
00005046  47F6 0CF0                lea.l      A3, [A6 + D0 * 4 - 0x10]
0000504A  7600                     moveq.l    D3, 0x00
0000504C  3607                     move.w     D3, D7
0000504E  302E 000C                move.w     D0, [A6 + 0xC]
00005052  D040                     add.w      D0, D0
00005054  7200                     moveq.l    D1, 0x00
00005056  3200                     move.w     D1, D0
00005058  2053                     movea.l    A0, [A3]
0000505A  4870 1808                pea.l      [A0 + D1 + 0x8]
0000505E  4EAD 0BF2                jsr        [A5 + 0xBF2 /* export_378, CODE:6 @ 0000005C */]
00005062  7200                     moveq.l    D1, 0x00
00005064  3200                     move.w     D1, D0
00005066  D293                     add.l      D1, [A3]
00005068  2B41 EF4E                move.l     [A5 - 0x10B2], D1
0000506C  2EBC 000A 0009           move.l     [A7], 0xA0009 /* '\n\0\t' */
00005072  4EBA EC7A                jsr        [PC - 0x1386 /* 00003CEE */]
00005076  7200                     moveq.l    D1, 0x00
00005078  3235 3B20 F728           move.w     D1, [A5 - 0x8D8 + D3 * 2]
0000507E  D081                     add.l      D0, D1
00005080  7200                     moveq.l    D1, 0x00
00005082  322D EF52                move.w     D1, [A5 - 0x10AE]
00005086  D081                     add.l      D0, D1
00005088  322D EF54                move.w     D1, [A5 - 0x10AC]
0000508C  E549                     lsl        D1.w, 2
0000508E  D26D EF54                add.w      D1, [A5 - 0x10AC]
00005092  E749                     lsl        D1.w, 3
00005094  7400                     moveq.l    D2, 0x00
00005096  3401                     move.w     D2, D1
00005098  D082                     add.l      D0, D2
0000509A  2B40 EF42                move.l     [A5 - 0x10BE], D0
0000509E  4A2D 9A5D                tst.b      [A5 - 0x65A3]
000050A2  588F                     addq.l     A7, 4
000050A4  6706                     beq        +0x8 /* 000050AC */
000050A6  4EAD 068A                jsr        [A5 + 0x68A /* export_205, CODE:3 @ 000000EC */]
000050AA  6004                     bra        +0x6 /* 000050B0 */
label000050AC:
000050AC  4EAD 0682                jsr        [A5 + 0x682 /* export_204, CODE:3 @ 0000008E */]
label000050B0:
000050B0  5247                     addq.w     D7, 1
label000050B2:
000050B2  BE6D F730                cmp.w      D7, [A5 - 0x8D0]
000050B6  658A                     bcs        -0x74 /* 00005042 */
label000050B8:
000050B8  526D EF52                addq.w     [A5 - 0x10AE], 1
000050BC  526E 000C                addq.w     [A6 + 0xC], 1
label000050C0:
000050C0  302E 000E                move.w     D0, [A6 + 0xE]
000050C4  536E 000E                subq.w     [A6 + 0xE], 1
000050C8  4A40                     tst.w      D0
000050CA  6600 FD7E                bne        -0x280 /* 00004E4A */
000050CE  4CDF 18F8                movem.l    D3,D4,D5,D6,D7,A3,A4, [A7]+
000050D2  4E5E                     unlink     A6
000050D4  4E75                     rts
fn000050D6:
000050D6  2F07                     move.l     -[A7], D7
000050D8  422D 9A5D                clr.b      [A5 - 0x65A3]
000050DC  206D EF4A                movea.l    A0, [A5 - 0x10B6]
000050E0  52AD EF4A                addq.l     [A5 - 0x10B6], 1
000050E4  1E10                     move.b     D7, [A0]
000050E6  1007                     move.b     D0, D7
000050E8  6700 0122                beq        +0x124 /* 0000520C */
000050EC  6B00 011E                bmi        +0x120 /* 0000520C */
000050F0  0400 0027                subi.b     D0, 0x27 /* '\'' */
000050F4  6A2C                     bpl        +0x2E /* 00005122 */
000050F6  0400 00F1                subi.b     D0, 0xF1
000050FA  6A18                     bpl        +0x1A /* 00005114 */
000050FC  0400 00F6                subi.b     D0, 0xF6
00005100  6A0A                     bpl        +0xC /* 0000510C */
00005102  0400 00F4                subi.b     D0, 0xF4
00005106  6A00 0104                bpl        +0x106 /* 0000520C */
0000510A  604A                     bra        +0x4C /* 00005156 */
label0000510C:
0000510C  5B00                     subq.b     D0, 5
0000510E  6A00 00FC                bpl        +0xFE /* 0000520C */
00005112  604A                     bra        +0x4C /* 0000515E */
label00005114:
00005114  0400 000A                subi.b     D0, 0xA /* '\n' */
00005118  6A7A                     bpl        +0x7C /* 00005194 */
0000511A  5A00                     addq.b     D0, 5
0000511C  6A00 00EE                bpl        +0xF0 /* 0000520C */
00005120  6058                     bra        +0x5A /* 0000517A */
label00005122:
00005122  0400 001E                subi.b     D0, 0x1E
00005126  6A1C                     bpl        +0x1E /* 00005144 */
00005128  0400 00EC                subi.b     D0, 0xEC
0000512C  6A0A                     bpl        +0xC /* 00005138 */
0000512E  5A00                     addq.b     D0, 5
00005130  6A00 0082                bpl        +0x84 /* 000051B4 */
00005134  6000 00D6                bra        +0xD8 /* 0000520C */
label00005138:
00005138  0400 000F                subi.b     D0, 0xF
0000513C  6A00 0096                bpl        +0x98 /* 000051D4 */
00005140  6000 00CA                bra        +0xCC /* 0000520C */
label00005144:
00005144  0400 0014                subi.b     D0, 0x14
00005148  6A00 00C2                bpl        +0xC4 /* 0000520C */
0000514C  5A00                     addq.b     D0, 5
0000514E  6A00 009E                bpl        +0xA0 /* 000051EE */
00005152  6000 00B8                bra        +0xBA /* 0000520C */
label00005156:
00005156  4EAD 0AD2                jsr        [A5 + 0xAD2 /* export_342, CODE:5 @ 00003B72 */]
0000515A  6000 00B0                bra        +0xB2 /* 0000520C */
label0000515E:
0000515E  70F6                     moveq.l    D0, 0xFFFFFFF6
00005160  D007                     add.b      D0, D7
00005162  1B40 9A5B                move.b     [A5 - 0x65A5], D0
00005166  7200                     moveq.l    D1, 0x00
00005168  1200                     move.b     D1, D0
0000516A  1B75 1920 9A4C 9A5C      move.b     [A5 - 0x65A4], [A5 - 0x65B4 + D1]
00005172  4EAD 0ADA                jsr        [A5 + 0xADA /* export_343, CODE:5 @ 00003988 */]
00005176  6000 0094                bra        +0x96 /* 0000520C */
label0000517A:
0000517A  70EC                     moveq.l    D0, 0xFFFFFFEC
0000517C  D007                     add.b      D0, D7
0000517E  1B40 9A5B                move.b     [A5 - 0x65A5], D0
00005182  7200                     moveq.l    D1, 0x00
00005184  1200                     move.b     D1, D0
00005186  1B75 1920 9A4C 9A5C      move.b     [A5 - 0x65A4], [A5 - 0x65B4 + D1]
0000518E  4EAD 0AE2                jsr        [A5 + 0xAE2 /* export_344, CODE:5 @ 000038F2 */]
00005192  6078                     bra        +0x7A /* 0000520C */
label00005194:
00005194  1B7C 0001 9A5D           move.b     [A5 - 0x65A3], 0x1
0000519A  70E2                     moveq.l    D0, 0xFFFFFFE2
0000519C  D007                     add.b      D0, D7
0000519E  1B40 9A5B                move.b     [A5 - 0x65A5], D0
000051A2  7200                     moveq.l    D1, 0x00
000051A4  1200                     move.b     D1, D0
000051A6  1B75 1920 9A4C 9A5C      move.b     [A5 - 0x65A4], [A5 - 0x65B4 + D1]
000051AE  4EAD 0B02                jsr        [A5 + 0xB02 /* export_348, CODE:5 @ 00003ACA */]
000051B2  6058                     bra        +0x5A /* 0000520C */
label000051B4:
000051B4  1B7C 0001 9A5D           move.b     [A5 - 0x65A3], 0x1
000051BA  70D8                     moveq.l    D0, 0xFFFFFFD8
000051BC  D007                     add.b      D0, D7
000051BE  1B40 9A5B                move.b     [A5 - 0x65A5], D0
000051C2  7200                     moveq.l    D1, 0x00
000051C4  1200                     move.b     D1, D0
000051C6  1B75 1920 9A4C 9A5C      move.b     [A5 - 0x65A4], [A5 - 0x65B4 + D1]
000051CE  4EAD 0AEA                jsr        [A5 + 0xAEA /* export_345, CODE:5 @ 00003A28 */]
000051D2  6038                     bra        +0x3A /* 0000520C */
label000051D4:
000051D4  70C4                     moveq.l    D0, 0xFFFFFFC4
000051D6  D007                     add.b      D0, D7
000051D8  1B40 9A5B                move.b     [A5 - 0x65A5], D0
000051DC  7200                     moveq.l    D1, 0x00
000051DE  1200                     move.b     D1, D0
000051E0  1B75 1920 9A4C 9A5C      move.b     [A5 - 0x65A4], [A5 - 0x65B4 + D1]
000051E8  4EAD 0AF2                jsr        [A5 + 0xAF2 /* export_346, CODE:5 @ 00003C6C */]
000051EC  601E                     bra        +0x20 /* 0000520C */
label000051EE:
000051EE  1B7C 0001 9A5D           move.b     [A5 - 0x65A3], 0x1
000051F4  70B0                     moveq.l    D0, 0xFFFFFFB0
000051F6  D007                     add.b      D0, D7
000051F8  1B40 9A5B                move.b     [A5 - 0x65A5], D0
000051FC  7200                     moveq.l    D1, 0x00
000051FE  1200                     move.b     D1, D0
00005200  1B75 1920 9A4C 9A5C      move.b     [A5 - 0x65A4], [A5 - 0x65B4 + D1]
00005208  4EAD 0AFA                jsr        [A5 + 0xAFA /* export_347, CODE:5 @ 00003BB8 */]
label0000520C:
0000520C  2E1F                     move.l     D7, [A7]+
0000520E  4E75                     rts
export_146:
00005210  426D F724                clr.w      [A5 - 0x8DC]
00005214  4E75                     rts
