# near model CODE resource
# jump table entries: 34424-34497 (74 of them)
export_260:
00000000  4E56 FFEC                link       A6, -0x0014
00000004  48E7 0318                movem.l    -[A7], D6,D7,A3,A4
00000008  A063                     syscall    MaxApplZone
0000000A  486D F9D4                pea.l      [A5 - 0x62C]
0000000E  A86E                     syscall    InitGraf
00000010  A8FE                     syscall    InitFonts
00000012  2F3C 0000 FFFF           move.l     -[A7], 0xFFFF
00000018  201F                     move.l     D0, [A7]+
0000001A  A032                     syscall    FlushEvents
0000001C  A912                     syscall    InitWindows
0000001E  42A7                     clr.l      -[A7]
00000020  A97B                     syscall    InitDialogs
00000022  A930                     syscall    InitMenus
00000024  A850                     syscall    InitCursor
00000026  43EE FFF8                lea.l      A1, [A6 - 0x8]
0000002A  A11D                     syscall    MaxMem, flags=1
0000002C  2288                     move.l     [A1], A0
0000002E  2E00                     move.l     D7, D0
00000030  0C87 000D EC10           cmpi.l     D7, 0xDEC10
00000036  6C04                     bge        +0x6 /* 0000003C */
00000038  4EBA 1DC2                jsr        [PC + 0x1DC2 /* 00001DFC */]
label0000003C:
0000003C  2B7C 0004 93E0 9C54      move.l     [A5 - 0x63AC], 0x493E0
00000044  0C87 000D EE68           cmpi.l     D7, 0xDEE68
0000004A  6F1C                     ble        +0x1E /* 00000068 */
0000004C  2007                     move.l     D0, D7
0000004E  0680 FFF6 A578           addi.l     D0, 0xFFF6A578
00000054  2B40 9C54                move.l     [A5 - 0x63AC], D0
00000058  0C80 0015 5CC0           cmpi.l     D0, 0x155CC0
0000005E  6F08                     ble        +0xA /* 00000068 */
00000060  2B7C 0015 5CC0 9C54      move.l     [A5 - 0x63AC], 0x155CC0
label00000068:
00000068  4EBA 10D4                jsr        [PC + 0x10D4 /* 0000113E */]
0000006C  486D 9C6C                pea.l      [A5 - 0x6394]
00000070  4EBA 0CF8                jsr        [PC + 0xCF8 /* 00000D6A */]
00000074  200D                     move.l     D0, A5
00000076  2A78 0904                movea.l    A5, [0x00000904 /* CurrentA5 */]
0000007A  2B40 9D7A                move.l     [A5 - 0x6286], D0
0000007E  41ED 0812                lea.l      A0, [A5 + 0x812 /* export_254, CODE:4 @ 000002CA */]
00000082  2B48 9D72                move.l     [A5 - 0x628E], A0
00000086  3B7C 0001 9D76           move.w     [A5 - 0x628A], 0x1
0000008C  3B7C 0001 9D70           move.w     [A5 - 0x6290], 0x1
00000092  426D 9D78                clr.w      [A5 - 0x6288]
00000096  41ED 9D6C                lea.l      A0, [A5 - 0x6294]
0000009A  A033                     syscall    VInstall
0000009C  3E00                     move.w     D7, D0
0000009E  4A47                     tst.w      D7
000000A0  588F                     addq.l     A7, 4
000000A2  6710                     beq        +0x12 /* 000000B4 */
000000A4  2F3C 0000 08CD           move.l     -[A7], 0x8CD
000000AA  3047                     movea.w    A0, D7
000000AC  2F08                     move.l     -[A7], A0
000000AE  4EBA 1F40                jsr        [PC + 0x1F40 /* 00001FF0 */]
000000B2  508F                     addq.l     A7, 8
label000000B4:
000000B4  4EBA 0F24                jsr        [PC + 0xF24 /* 00000FDA */]
000000B8  4EBA 1098                jsr        [PC + 0x1098 /* 00001152 */]
000000BC  4EBA 1F42                jsr        [PC + 0x1F42 /* 00002000 */]
000000C0  4EBA 19C0                jsr        [PC + 0x19C0 /* 00001A82 */]
000000C4  7E00                     moveq.l    D7, 0x00
000000C6  49ED 9DF4                lea.l      A4, [A5 - 0x620C]
000000CA  47ED 9DD4                lea.l      A3, [A5 - 0x622C]
000000CE  600A                     bra        +0xC /* 000000DA */
label000000D0:
000000D0  4253                     clr.w      [A3]
000000D2  4254                     clr.w      [A4]
000000D4  5207                     addq.b     D7, 1
000000D6  548C                     addq.l     A4, 2
000000D8  548B                     addq.l     A3, 2
label000000DA:
000000DA  0C07 0010                cmpi.b     D7, 0x10
000000DE  6DF0                     blt        -0xE /* 000000D0 */
000000E0  486D 9E14                pea.l      [A5 - 0x61EC]
000000E4  42A7                     clr.l      -[A7]
000000E6  A880                     syscall    SetPt
000000E8  422D 9C49                clr.b      [A5 - 0x63B7]
000000EC  42A7                     clr.l      -[A7]
000000EE  3F3C 0080                move.w     -[A7], 0x80
000000F2  2F3C 0000 08DD           move.l     -[A7], 0x8DD
000000F8  A931                     syscall    NewMenu
000000FA  2B5F 9D58                move.l     [A5 - 0x62A8], [A7]+
000000FE  2F2D 9D58                move.l     -[A7], [A5 - 0x62A8]
00000102  2F3C 0000 08DF           move.l     -[A7], 0x8DF
00000108  A933                     syscall    AppendMenu
0000010A  2F2D 9D58                move.l     -[A7], [A5 - 0x62A8]
0000010E  2F3C 4452 5652           move.l     -[A7], 0x44525652 /* 'DRVR' */
00000114  A94D                     syscall    AppendResMenu/AddResMenu
00000116  42A7                     clr.l      -[A7]
00000118  3F3C 0081                move.w     -[A7], 0x81
0000011C  A9BF                     syscall    GetRMenu
0000011E  2B5F 9D5C                move.l     [A5 - 0x62A4], [A7]+
00000122  42A7                     clr.l      -[A7]
00000124  3F3C 0082                move.w     -[A7], 0x82
00000128  A9BF                     syscall    GetRMenu
0000012A  2B5F 9D60                move.l     [A5 - 0x62A0], [A7]+
0000012E  42A7                     clr.l      -[A7]
00000130  3F3C 0083                move.w     -[A7], 0x83
00000134  A9BF                     syscall    GetRMenu
00000136  2B5F 9D64                move.l     [A5 - 0x629C], [A7]+
0000013A  7E00                     moveq.l    D7, 0x00
0000013C  49ED 9D58                lea.l      A4, [A5 - 0x62A8]
00000140  600A                     bra        +0xC /* 0000014C */
label00000142:
00000142  2F14                     move.l     -[A7], [A4]
00000144  4267                     clr.w      -[A7]
00000146  A935                     syscall    InsertMenu
00000148  5247                     addq.w     D7, 1
0000014A  588C                     addq.l     A4, 4
label0000014C:
0000014C  0C47 0003                cmpi.w     D7, 0x3
00000150  6FF0                     ble        -0xE /* 00000142 */
00000152  2F2D 9D5C                move.l     -[A7], [A5 - 0x62A4]
00000156  3F3C 0001                move.w     -[A7], 0x1
0000015A  A93A                     syscall    DisableItem
0000015C  2F2D 9D5C                move.l     -[A7], [A5 - 0x62A4]
00000160  3F3C 0002                move.w     -[A7], 0x2
00000164  A93A                     syscall    DisableItem
00000166  2F2D 9D64                move.l     -[A7], [A5 - 0x629C]
0000016A  3F3C 0001                move.w     -[A7], 0x1
0000016E  1F2D 9C87                move.b     -[A7], [A5 - 0x6379]
00000172  A945                     syscall    CheckItem
00000174  2F2D 9D64                move.l     -[A7], [A5 - 0x629C]
00000178  3F3C 0002                move.w     -[A7], 0x2
0000017C  4A2D 9C88                tst.b      [A5 - 0x6378]
00000180  6706                     beq        +0x8 /* 00000188 */
00000182  4A2D 9C87                tst.b      [A5 - 0x6379]
00000186  6604                     bne        +0x6 /* 0000018C */
label00000188:
00000188  7000                     moveq.l    D0, 0x00
0000018A  6002                     bra        +0x4 /* 0000018E */
label0000018C:
0000018C  7001                     moveq.l    D0, 0x01
label0000018E:
0000018E  1F00                     move.b     -[A7], D0
00000190  A945                     syscall    CheckItem
00000192  2F2D 9D64                move.l     -[A7], [A5 - 0x629C]
00000196  3F3C 0004                move.w     -[A7], 0x4
0000019A  0C2D 0020 9C86           cmpi.b     [A5 - 0x637A], 0x20 /* ' ' */
000001A0  57C0                     seq        D0
000001A2  4400                     neg.b      D0
000001A4  1F00                     move.b     -[A7], D0
000001A6  A945                     syscall    CheckItem
000001A8  2F2D 9D64                move.l     -[A7], [A5 - 0x629C]
000001AC  3F3C 0005                move.w     -[A7], 0x5
000001B0  0C2D 0001 9C86           cmpi.b     [A5 - 0x637A], 0x1
000001B6  57C0                     seq        D0
000001B8  4400                     neg.b      D0
000001BA  1F00                     move.b     -[A7], D0
000001BC  A945                     syscall    CheckItem
000001BE  2F2D 9D64                move.l     -[A7], [A5 - 0x629C]
000001C2  3F3C 0006                move.w     -[A7], 0x6
000001C6  4A2D 9C86                tst.b      [A5 - 0x637A]
000001CA  57C0                     seq        D0
000001CC  4400                     neg.b      D0
000001CE  1F00                     move.b     -[A7], D0
000001D0  A945                     syscall    CheckItem
000001D2  4A2D 9C87                tst.b      [A5 - 0x6379]
000001D6  670C                     beq        +0xE /* 000001E4 */
000001D8  2F2D 9D64                move.l     -[A7], [A5 - 0x629C]
000001DC  3F3C 0002                move.w     -[A7], 0x2
000001E0  A939                     syscall    EnableItem
000001E2  600A                     bra        +0xC /* 000001EE */
label000001E4:
000001E4  2F2D 9D64                move.l     -[A7], [A5 - 0x629C]
000001E8  3F3C 0002                move.w     -[A7], 0x2
000001EC  A93A                     syscall    DisableItem
label000001EE:
000001EE  A937                     syscall    DrawMenuBar
000001F0  4EBA 1890                jsr        [PC + 0x1890 /* 00001A82 */]
000001F4  4A2D 9C87                tst.b      [A5 - 0x6379]
000001F8  672E                     beq        +0x30 /* 00000228 */
000001FA  4A2D 9C4B                tst.b      [A5 - 0x63B5]
000001FE  6628                     bne        +0x2A /* 00000228 */
00000200  4A2D 9D20                tst.b      [A5 - 0x62E0]
00000204  6722                     beq        +0x24 /* 00000228 */
00000206  4A2D 9C49                tst.b      [A5 - 0x63B7]
0000020A  661C                     bne        +0x1E /* 00000228 */
0000020C  4A2D 9C88                tst.b      [A5 - 0x6378]
00000210  6716                     beq        +0x18 /* 00000228 */
00000212  206D 9CAE                movea.l    A0, [A5 - 0x6352]
00000216  2F28 0018                move.l     -[A7], [A0 + 0x18]
0000021A  4868 0010                pea.l      [A0 + 0x10]
0000021E  A8DF                     syscall    RectRgn
00000220  4EBA 141E                jsr        [PC + 0x141E /* 00001640 */]
00000224  4EBA 1892                jsr        [PC + 0x1892 /* 00001AB8 */]
label00000228:
00000228  4267                     clr.w      -[A7]
0000022A  42A7                     clr.l      -[A7]
0000022C  486D 9C4C                pea.l      [A5 - 0x63B4]
00000230  4EAD 0BBA                jsr        [A5 + 0xBBA /* export_371, CODE:6 @ 00001734 */]
00000234  7E00                     moveq.l    D7, 0x00
00000236  49ED 9E60                lea.l      A4, [A5 - 0x61A0]
0000023A  47ED 9E20                lea.l      A3, [A5 - 0x61E0]
0000023E  548F                     addq.l     A7, 2
00000240  6042                     bra        +0x44 /* 00000284 */
label00000242:
00000242  3047                     movea.w    A0, D7
00000244  2C08                     move.l     D6, A0
00000246  8DFC 0003                divs.w     D6, 0x3
0000024A  4846                     swap.w     D6
0000024C  4A46                     tst.w      D6
0000024E  660E                     bne        +0x10 /* 0000025E */
00000250  41ED 081A                lea.l      A0, [A5 + 0x81A /* export_255, CODE:4 @ 00001C70 */]
00000254  2688                     move.l     [A3], A0
00000256  41ED 081A                lea.l      A0, [A5 + 0x81A /* export_255, CODE:4 @ 00001C70 */]
0000025A  2888                     move.l     [A4], A0
0000025C  6020                     bra        +0x22 /* 0000027E */
label0000025E:
0000025E  0C46 0001                cmpi.w     D6, 0x1
00000262  660E                     bne        +0x10 /* 00000272 */
00000264  41ED 0822                lea.l      A0, [A5 + 0x822 /* export_256, CODE:4 @ 00001C72 */]
00000268  2688                     move.l     [A3], A0
0000026A  41ED 0822                lea.l      A0, [A5 + 0x822 /* export_256, CODE:4 @ 00001C72 */]
0000026E  2888                     move.l     [A4], A0
00000270  600C                     bra        +0xE /* 0000027E */
label00000272:
00000272  41ED 082A                lea.l      A0, [A5 + 0x82A /* export_257, CODE:4 @ 00001C74 */]
00000276  2688                     move.l     [A3], A0
00000278  41ED 082A                lea.l      A0, [A5 + 0x82A /* export_257, CODE:4 @ 00001C74 */]
0000027C  2888                     move.l     [A4], A0
label0000027E:
0000027E  5247                     addq.w     D7, 1
00000280  588C                     addq.l     A4, 4
00000282  588B                     addq.l     A3, 4
label00000284:
00000284  0C47 0010                cmpi.w     D7, 0x10
00000288  6DB8                     blt        -0x46 /* 00000242 */
0000028A  41ED 083A                lea.l      A0, [A5 + 0x83A /* export_259, CODE:4 @ 00001C76 */]
0000028E  2B48 9E44                move.l     [A5 - 0x61BC], A0
00000292  41ED 0832                lea.l      A0, [A5 + 0x832 /* export_258, CODE:4 @ 00001B68 */]
00000296  2B48 9E84                move.l     [A5 - 0x617C], A0
0000029A  4CDF 18C0                movem.l    D6,D7,A3,A4, [A7]+
0000029E  4E5E                     unlink     A6
000002A0  4E75                     rts
fn000002A2:
000002A2  4EBA 0E9C                jsr        [PC + 0xE9C /* 00001140 */]
000002A6  41ED 9D6C                lea.l      A0, [A5 - 0x6294]
000002AA  A034                     syscall    VRemove
000002AC  4EBA 1E88                jsr        [PC + 0x1E88 /* 00002136 */]
000002B0  4267                     clr.w      -[A7]
000002B2  2F2D 9C7C                move.l     -[A7], [A5 - 0x6384]
000002B6  3F2D 9C9C                move.w     -[A7], [A5 - 0x6364]
000002BA  2F3C 0001 0001           move.l     -[A7], 0x10001
000002C0  303C 0A13                move.w     D0, 0xA13
000002C4  AAA2                     syscall    PaletteDispatch
000002C6  548F                     addq.l     A7, 2
000002C8  4E75                     rts
export_254:
000002CA  4E56 FFF8                link       A6, -0x0008
000002CE  2D48 FFF8                move.l     [A6 - 0x8], A0
000002D2  206E FFF8                movea.l    A0, [A6 - 0x8]
000002D6  2028 000E                move.l     D0, [A0 + 0xE]
000002DA  C18D                     exg        D0, A5
000002DC  2D40 FFFC                move.l     [A6 - 0x4], D0
000002E0  586D ECD4                addq.w     [A5 - 0x132C], 4
000002E4  4A2D 9FAA                tst.b      [A5 - 0x6056]
000002E8  671C                     beq        +0x1E /* 00000306 */
000002EA  4A2D 9C49                tst.b      [A5 - 0x63B7]
000002EE  6616                     bne        +0x18 /* 00000306 */
000002F0  0C6D 001D 9C58           cmpi.w     [A5 - 0x63A8], 0x1D
000002F6  630A                     bls        +0xC /* 00000302 */
000002F8  526D A0F4                addq.w     [A5 - 0x5F0C], 1
000002FC  426D 9C58                clr.w      [A5 - 0x63A8]
00000300  6004                     bra        +0x6 /* 00000306 */
label00000302:
00000302  526D 9C58                addq.w     [A5 - 0x63A8], 1
label00000306:
00000306  206E FFF8                movea.l    A0, [A6 - 0x8]
0000030A  317C 0001 000A           move.w     [A0 + 0xA], 0x1
00000310  202E FFFC                move.l     D0, [A6 - 0x4]
00000314  C18D                     exg        D0, A5
00000316  4E5E                     unlink     A6
00000318  4E75                     rts
0000031A  4E56 FFF8                link       A6, -0x0008
0000031E  2D48 FFF8                move.l     [A6 - 0x8], A0
00000322  206E FFF8                movea.l    A0, [A6 - 0x8]
00000326  2028 000E                move.l     D0, [A0 + 0xE]
0000032A  C18D                     exg        D0, A5
0000032C  2D40 FFFC                move.l     [A6 - 0x4], D0
00000330  422D 9C48                clr.b      [A5 - 0x63B8]
00000334  206E FFF8                movea.l    A0, [A6 - 0x8]
00000338  317C 0001 000A           move.w     [A0 + 0xA], 0x1
0000033E  C18D                     exg        D0, A5
00000340  4E5E                     unlink     A6
00000342  4E75                     rts
fn00000344:
00000344  4E56 FFF8                link       A6, -0x0008
00000348  486E FFFC                pea.l      [A6 - 0x4]
0000034C  A874                     syscall    GetPort
0000034E  2F2D 9CAE                move.l     -[A7], [A5 - 0x6352]
00000352  A873                     syscall    SetPort
00000354  486E FFF8                pea.l      [A6 - 0x8]
00000358  A972                     syscall    GetMouse
0000035A  302E FFFA                move.w     D0, [A6 - 0x6]
0000035E  906D 9C8C                sub.w      D0, [A5 - 0x6374]
00000362  3B40 EDBE                move.w     [A5 - 0x1242], D0
00000366  322E FFF8                move.w     D1, [A6 - 0x8]
0000036A  926D 9C8A                sub.w      D1, [A5 - 0x6376]
0000036E  3B41 EDC0                move.w     [A5 - 0x1240], D1
00000372  142D 9C86                move.b     D2, [A5 - 0x637A]
00000376  6712                     beq        +0x14 /* 0000038A */
00000378  6B3A                     bmi        +0x3C /* 000003B4 */
0000037A  0402 0020                subi.b     D2, 0x20 /* ' ' */
0000037E  6734                     beq        +0x36 /* 000003B4 */
00000380  6A32                     bpl        +0x34 /* 000003B4 */
00000382  0402 00E2                subi.b     D2, 0xE2
00000386  6A2C                     bpl        +0x2E /* 000003B4 */
00000388  600A                     bra        +0xC /* 00000394 */
label0000038A:
0000038A  E0ED EDBE                asr   .w   [A5 - 0x1242]
0000038E  E0ED EDC0                asr   .w   [A5 - 0x1240]
00000392  6020                     bra        +0x22 /* 000003B4 */
label00000394:
00000394  306D EDBE                movea.w    A0, [A5 - 0x1242]
00000398  D1C8                     add.l      A0, A0
0000039A  2008                     move.l     D0, A0
0000039C  81FC 0003                divs.w     D0, 0x3
000003A0  3B40 EDBE                move.w     [A5 - 0x1242], D0
000003A4  306D EDC0                movea.w    A0, [A5 - 0x1240]
000003A8  D1C8                     add.l      A0, A0
000003AA  2208                     move.l     D1, A0
000003AC  83FC 0003                divs.w     D1, 0x3
000003B0  3B41 EDC0                move.w     [A5 - 0x1240], D1
label000003B4:
000003B4  2F2E FFFC                move.l     -[A7], [A6 - 0x4]
000003B8  A873                     syscall    SetPort
000003BA  4E5E                     unlink     A6
000003BC  4E75                     rts
export_263:
fn000003BE:
000003BE  4E56 FFD0                link       A6, -0x0030
000003C2  2F07                     move.l     -[A7], D7
000003C4  A9B4                     syscall    SystemTask
000003C6  3F3C FFFF                move.w     -[A7], 0xFFFF
000003CA  4EAD 0582                jsr        [A5 + 0x582 /* export_172, CODE:3 @ 000014C2 */]
000003CE  4A2D 9C53                tst.b      [A5 - 0x63AD]
000003D2  548F                     addq.l     A7, 2
000003D4  6716                     beq        +0x18 /* 000003EC */
000003D6  3F3C 0001                move.w     -[A7], 0x1
000003DA  4EBA 118E                jsr        [PC + 0x118E /* 0000156A */]
000003DE  3EBC FFFF                move.w     [A7], 0xFFFF
000003E2  4EBA 1186                jsr        [PC + 0x1186 /* 0000156A */]
000003E6  422D 9C53                clr.b      [A5 - 0x63AD]
000003EA  548F                     addq.l     A7, 2
label000003EC:
000003EC  4EBA FF56                jsr        [PC - 0xAA /* 00000344 */]
000003F0  3F3C FFFF                move.w     -[A7], 0xFFFF
000003F4  4EBA 1174                jsr        [PC + 0x1174 /* 0000156A */]
000003F8  4257                     clr.w      [A7]
000003FA  4EBA 3D02                jsr        [PC + 0x3D02 /* 000040FE */]
000003FE  4217                     clr.b      [A7]
00000400  3F3C FFFF                move.w     -[A7], 0xFFFF
00000404  486E FFDC                pea.l      [A6 - 0x24]
00000408  42A7                     clr.l      -[A7]
0000040A  42A7                     clr.l      -[A7]
0000040C  A860                     syscall    WaitNextEvent
0000040E  4A1F                     tst.b      [A7]+
00000410  6700 052C                beq        +0x52E /* 0000093E */
00000414  302E FFDC                move.w     D0, [A6 - 0x24]
00000418  0C40 0017                cmpi.w     D0, 0x17
0000041C  6200 0520                bhi        +0x522 /* 0000093E */
00000420  43FA 0534                lea.l      A1, [PC + 0x534 /* 00000956, value 0xFFE8FC34 */]
00000424  D2F1 0200                add.w      A1, [A1 + D0.w * 2]
00000428  4ED1                     jmp        [A1]
0000042A  202E FFDE                move.l     D0, [A6 - 0x22]
0000042E  B0AD 9CAE                cmp.l      D0, [A5 - 0x6352]
00000432  6600 050A                bne        +0x50C /* 0000093E */
00000436  082E 0000 FFEB           btst.b     [A6 - 0x15], 0x0
0000043C  6756                     beq        +0x58 /* 00000494 */
0000043E  4267                     clr.w      -[A7]
00000440  4EBA 107A                jsr        [PC + 0x107A /* 000014BC */]
00000444  3EBC FFFF                move.w     [A7], 0xFFFF
00000448  4EBA 1120                jsr        [PC + 0x1120 /* 0000156A */]
0000044C  4EBA 11D4                jsr        [PC + 0x11D4 /* 00001622 */]
00000450  4A2D 9C87                tst.b      [A5 - 0x6379]
00000454  548F                     addq.l     A7, 2
00000456  6700 04E6                beq        +0x4E8 /* 0000093E */
0000045A  4A2D 9C4B                tst.b      [A5 - 0x63B5]
0000045E  6600 04DE                bne        +0x4E0 /* 0000093E */
00000462  4A2D 9D20                tst.b      [A5 - 0x62E0]
00000466  6700 04D6                beq        +0x4D8 /* 0000093E */
0000046A  4A2D 9C49                tst.b      [A5 - 0x63B7]
0000046E  6600 04CE                bne        +0x4D0 /* 0000093E */
00000472  4A2D 9C88                tst.b      [A5 - 0x6378]
00000476  6700 04C6                beq        +0x4C8 /* 0000093E */
0000047A  206D 9CAE                movea.l    A0, [A5 - 0x6352]
0000047E  2F28 0018                move.l     -[A7], [A0 + 0x18]
00000482  4868 0010                pea.l      [A0 + 0x10]
00000486  A8DF                     syscall    RectRgn
00000488  4EBA 11B6                jsr        [PC + 0x11B6 /* 00001640 */]
0000048C  4EBA 162A                jsr        [PC + 0x162A /* 00001AB8 */]
00000490  6000 04AC                bra        +0x4AE /* 0000093E */
label00000494:
00000494  3F3C 0001                move.w     -[A7], 0x1
00000498  4EBA 1022                jsr        [PC + 0x1022 /* 000014BC */]
0000049C  548F                     addq.l     A7, 2
0000049E  6000 049E                bra        +0x4A0 /* 0000093E */
000004A2  202E FFDE                move.l     D0, [A6 - 0x22]
000004A6  B0AD 9CAE                cmp.l      D0, [A5 - 0x6352]
000004AA  6600 0492                bne        +0x494 /* 0000093E */
000004AE  3F3C FFFF                move.w     -[A7], 0xFFFF
000004B2  4EBA 10B6                jsr        [PC + 0x10B6 /* 0000156A */]
000004B6  2F2D 9CAE                move.l     -[A7], [A5 - 0x6352]
000004BA  A909                     syscall    CalcVis
000004BC  486E FFD8                pea.l      [A6 - 0x28]
000004C0  A874                     syscall    GetPort
000004C2  2F2D 9CAE                move.l     -[A7], [A5 - 0x6352]
000004C6  A873                     syscall    SetPort
000004C8  2F2D 9CAE                move.l     -[A7], [A5 - 0x6352]
000004CC  A922                     syscall    BeginUpdate
000004CE  4EBA 15E8                jsr        [PC + 0x15E8 /* 00001AB8 */]
000004D2  4EBA 116C                jsr        [PC + 0x116C /* 00001640 */]
000004D6  422D 9C44                clr.b      [A5 - 0x63BC]
000004DA  4A2D 9C87                tst.b      [A5 - 0x6379]
000004DE  548F                     addq.l     A7, 2
000004E0  672E                     beq        +0x30 /* 00000510 */
000004E2  4A2D 9C4B                tst.b      [A5 - 0x63B5]
000004E6  6628                     bne        +0x2A /* 00000510 */
000004E8  4A2D 9D20                tst.b      [A5 - 0x62E0]
000004EC  6722                     beq        +0x24 /* 00000510 */
000004EE  4A2D 9C49                tst.b      [A5 - 0x63B7]
000004F2  661C                     bne        +0x1E /* 00000510 */
000004F4  4A2D 9C88                tst.b      [A5 - 0x6378]
000004F8  6716                     beq        +0x18 /* 00000510 */
000004FA  206D 9CAE                movea.l    A0, [A5 - 0x6352]
000004FE  2F28 0018                move.l     -[A7], [A0 + 0x18]
00000502  4868 0010                pea.l      [A0 + 0x10]
00000506  A8DF                     syscall    RectRgn
00000508  4EBA 1136                jsr        [PC + 0x1136 /* 00001640 */]
0000050C  4EBA 15AA                jsr        [PC + 0x15AA /* 00001AB8 */]
label00000510:
00000510  4EBA 113C                jsr        [PC + 0x113C /* 0000164E */]
00000514  2F2D 9CAE                move.l     -[A7], [A5 - 0x6352]
00000518  A923                     syscall    EndUpdate
0000051A  2F2E FFD8                move.l     -[A7], [A6 - 0x28]
0000051E  A873                     syscall    SetPort
00000520  4A2D 9C87                tst.b      [A5 - 0x6379]
00000524  6700 0418                beq        +0x41A /* 0000093E */
00000528  4A2D 9C4B                tst.b      [A5 - 0x63B5]
0000052C  6600 0410                bne        +0x412 /* 0000093E */
00000530  4A2D 9D20                tst.b      [A5 - 0x62E0]
00000534  6700 0408                beq        +0x40A /* 0000093E */
00000538  4A2D 9C49                tst.b      [A5 - 0x63B7]
0000053C  6600 0400                bne        +0x402 /* 0000093E */
00000540  4A2D 9C88                tst.b      [A5 - 0x6378]
00000544  6700 03F8                beq        +0x3FA /* 0000093E */
00000548  206D 9CAE                movea.l    A0, [A5 - 0x6352]
0000054C  2F28 0018                move.l     -[A7], [A0 + 0x18]
00000550  4868 0010                pea.l      [A0 + 0x10]
00000554  A8DF                     syscall    RectRgn
00000556  4EBA 10E8                jsr        [PC + 0x10E8 /* 00001640 */]
0000055A  4EBA 155C                jsr        [PC + 0x155C /* 00001AB8 */]
0000055E  6000 03DE                bra        +0x3E0 /* 0000093E */
00000562  E8EE 0010 FFDE           bftst      [A6 - 0x22] {0:16}
00000568  6700 03D4                beq        +0x3D6 /* 0000093E */
0000056C  7064                     moveq.l    D0, 0x64
0000056E  3D40 FFFC                move.w     [A6 - 0x4], D0
00000572  3D40 FFFE                move.w     [A6 - 0x2], D0
00000576  4267                     clr.w      -[A7]
00000578  2F2E FFFC                move.l     -[A7], [A6 - 0x4]
0000057C  2F2E FFDE                move.l     -[A7], [A6 - 0x22]
00000580  4EAD 0BD2                jsr        [A5 + 0xBD2 /* export_374, CODE:6 @ 000017A4 */]
00000584  548F                     addq.l     A7, 2
00000586  6000 03B6                bra        +0x3B8 /* 0000093E */
0000058A  4267                     clr.w      -[A7]
0000058C  2F2E FFE6                move.l     -[A7], [A6 - 0x1A]
00000590  486E FFD4                pea.l      [A6 - 0x2C]
00000594  A92C                     syscall    FindWindow
00000596  3E1F                     move.w     D7, [A7]+
00000598  0C47 0008                cmpi.w     D7, 0x8
0000059C  6200 03A0                bhi        +0x3A2 /* 0000093E */
000005A0  43FA 03A2                lea.l      A1, [PC + 0x3A2 /* 00000944, value 0xFFFAFC66 */]
000005A4  D2F1 7200                add.w      A1, [A1 + D7.w * 2]
000005A8  4ED1                     jmp        [A1]
000005AA  4A2D 9C49                tst.b      [A5 - 0x63B7]
000005AE  6604                     bne        +0x6 /* 000005B4 */
000005B0  4EBA 3B90                jsr        [PC + 0x3B90 /* 00004142 */]
label000005B4:
000005B4  2F2D 9CAE                move.l     -[A7], [A5 - 0x6352]
000005B8  A909                     syscall    CalcVis
000005BA  4EBA 0F74                jsr        [PC + 0xF74 /* 00001530 */]
000005BE  1B7C 0001 9C49           move.b     [A5 - 0x63B7], 0x1
000005C4  A850                     syscall    InitCursor
000005C6  A937                     syscall    DrawMenuBar
000005C8  42A7                     clr.l      -[A7]
000005CA  2F2E FFE6                move.l     -[A7], [A6 - 0x1A]
000005CE  A93D                     syscall    MenuSelect
000005D0  4EBA 03B4                jsr        [PC + 0x3B4 /* 00000986 */]
000005D4  4257                     clr.w      [A7]
000005D6  A938                     syscall    HiliteMenu
000005D8  4EBA 1048                jsr        [PC + 0x1048 /* 00001622 */]
000005DC  4EBA 1062                jsr        [PC + 0x1062 /* 00001640 */]
000005E0  3EBC FFFF                move.w     [A7], 0xFFFF
000005E4  4EBA 0F84                jsr        [PC + 0xF84 /* 0000156A */]
000005E8  4A2D 9C87                tst.b      [A5 - 0x6379]
000005EC  548F                     addq.l     A7, 2
000005EE  6700 034E                beq        +0x350 /* 0000093E */
000005F2  4A2D 9C4B                tst.b      [A5 - 0x63B5]
000005F6  6600 0346                bne        +0x348 /* 0000093E */
000005FA  4A2D 9D20                tst.b      [A5 - 0x62E0]
000005FE  6700 033E                beq        +0x340 /* 0000093E */
00000602  4A2D 9C49                tst.b      [A5 - 0x63B7]
00000606  6600 0336                bne        +0x338 /* 0000093E */
0000060A  4A2D 9C88                tst.b      [A5 - 0x6378]
0000060E  6700 032E                beq        +0x330 /* 0000093E */
00000612  206D 9CAE                movea.l    A0, [A5 - 0x6352]
00000616  2F28 0018                move.l     -[A7], [A0 + 0x18]
0000061A  4868 0010                pea.l      [A0 + 0x10]
0000061E  A8DF                     syscall    RectRgn
00000620  4EBA 101E                jsr        [PC + 0x101E /* 00001640 */]
00000624  4EBA 1492                jsr        [PC + 0x1492 /* 00001AB8 */]
00000628  6000 0314                bra        +0x316 /* 0000093E */
0000062C  486E FFDC                pea.l      [A6 - 0x24]
00000630  2F2E FFD4                move.l     -[A7], [A6 - 0x2C]
00000634  A9B3                     syscall    SystemClick
00000636  6000 0306                bra        +0x308 /* 0000093E */
0000063A  4A2D 9C49                tst.b      [A5 - 0x63B7]
0000063E  6604                     bne        +0x6 /* 00000644 */
00000640  4EBA 3B00                jsr        [PC + 0x3B00 /* 00004142 */]
label00000644:
00000644  1B7C 0001 9C49           move.b     [A5 - 0x63B7], 0x1
0000064A  A850                     syscall    InitCursor
0000064C  202E FFD4                move.l     D0, [A6 - 0x2C]
00000650  B0AD 9CAE                cmp.l      D0, [A5 - 0x6352]
00000654  660E                     bne        +0x10 /* 00000664 */
00000656  2F2E FFD4                move.l     -[A7], [A6 - 0x2C]
0000065A  2F2E FFE6                move.l     -[A7], [A6 - 0x1A]
0000065E  486D F960                pea.l      [A5 - 0x6A0]
00000662  A925                     syscall    DragWindow
label00000664:
00000664  4EBA 0FBC                jsr        [PC + 0xFBC /* 00001622 */]
00000668  4EBA 0FD6                jsr        [PC + 0xFD6 /* 00001640 */]
0000066C  3F3C FFFF                move.w     -[A7], 0xFFFF
00000670  4EBA 0EF8                jsr        [PC + 0xEF8 /* 0000156A */]
00000674  548F                     addq.l     A7, 2
00000676  6000 02C6                bra        +0x2C8 /* 0000093E */
0000067A  202E FFD4                move.l     D0, [A6 - 0x2C]
0000067E  B0AD 9CAE                cmp.l      D0, [A5 - 0x6352]
00000682  6600 02BA                bne        +0x2BC /* 0000093E */
00000686  4A2D 9C49                tst.b      [A5 - 0x63B7]
0000068A  6604                     bne        +0x6 /* 00000690 */
0000068C  4EBA 3AB4                jsr        [PC + 0x3AB4 /* 00004142 */]
label00000690:
00000690  2F2D 9CAE                move.l     -[A7], [A5 - 0x6352]
00000694  A909                     syscall    CalcVis
00000696  1B7C 0001 9C49           move.b     [A5 - 0x63B7], 0x1
0000069C  A850                     syscall    InitCursor
0000069E  A937                     syscall    DrawMenuBar
000006A0  4227                     clr.b      -[A7]
000006A2  2F2E FFD4                move.l     -[A7], [A6 - 0x2C]
000006A6  2F2E FFE6                move.l     -[A7], [A6 - 0x1A]
000006AA  A91E                     syscall    TrackGoAway
000006AC  4A1F                     tst.b      [A7]+
000006AE  6714                     beq        +0x16 /* 000006C4 */
000006B0  2F3C 0000 08FB           move.l     -[A7], 0x8FB
000006B6  4EBA 182A                jsr        [PC + 0x182A /* 00001EE2 */]
000006BA  4A40                     tst.w      D0
000006BC  588F                     addq.l     A7, 4
000006BE  6704                     beq        +0x6 /* 000006C4 */
000006C0  4EBA 18FE                jsr        [PC + 0x18FE /* 00001FC0 */]
label000006C4:
000006C4  4EBA 0F5C                jsr        [PC + 0xF5C /* 00001622 */]
000006C8  4EBA 0F76                jsr        [PC + 0xF76 /* 00001640 */]
000006CC  3F3C FFFF                move.w     -[A7], 0xFFFF
000006D0  4EBA 0E98                jsr        [PC + 0xE98 /* 0000156A */]
000006D4  4A2D 9C87                tst.b      [A5 - 0x6379]
000006D8  548F                     addq.l     A7, 2
000006DA  6700 0262                beq        +0x264 /* 0000093E */
000006DE  4A2D 9C4B                tst.b      [A5 - 0x63B5]
000006E2  6600 025A                bne        +0x25C /* 0000093E */
000006E6  4A2D 9D20                tst.b      [A5 - 0x62E0]
000006EA  6700 0252                beq        +0x254 /* 0000093E */
000006EE  4A2D 9C49                tst.b      [A5 - 0x63B7]
000006F2  6600 024A                bne        +0x24C /* 0000093E */
000006F6  4A2D 9C88                tst.b      [A5 - 0x6378]
000006FA  6700 0242                beq        +0x244 /* 0000093E */
000006FE  206D 9CAE                movea.l    A0, [A5 - 0x6352]
00000702  2F28 0018                move.l     -[A7], [A0 + 0x18]
00000706  4868 0010                pea.l      [A0 + 0x10]
0000070A  A8DF                     syscall    RectRgn
0000070C  4EBA 0F32                jsr        [PC + 0xF32 /* 00001640 */]
00000710  4EBA 13A6                jsr        [PC + 0x13A6 /* 00001AB8 */]
00000714  6000 0228                bra        +0x22A /* 0000093E */
00000718  4A2D 9C49                tst.b      [A5 - 0x63B7]
0000071C  6604                     bne        +0x6 /* 00000722 */
0000071E  4EBA 3A22                jsr        [PC + 0x3A22 /* 00004142 */]
label00000722:
00000722  1B7C 0001 9C49           move.b     [A5 - 0x63B7], 0x1
00000728  A850                     syscall    InitCursor
0000072A  4227                     clr.b      -[A7]
0000072C  2F2E FFD4                move.l     -[A7], [A6 - 0x2C]
00000730  2F2E FFE6                move.l     -[A7], [A6 - 0x1A]
00000734  3F07                     move.w     -[A7], D7
00000736  A83B                     syscall    TrackBox
00000738  4A1F                     tst.b      [A7]+
0000073A  670E                     beq        +0x10 /* 0000074A */
0000073C  202E FFD4                move.l     D0, [A6 - 0x2C]
00000740  B0AD 9CAE                cmp.l      D0, [A5 - 0x6352]
00000744  6604                     bne        +0x6 /* 0000074A */
00000746  4EBA 0B3A                jsr        [PC + 0xB3A /* 00001282 */]
label0000074A:
0000074A  4EBA 0ED6                jsr        [PC + 0xED6 /* 00001622 */]
0000074E  4EBA 0EF0                jsr        [PC + 0xEF0 /* 00001640 */]
00000752  3F3C FFFF                move.w     -[A7], 0xFFFF
00000756  4EBA 0E12                jsr        [PC + 0xE12 /* 0000156A */]
0000075A  548F                     addq.l     A7, 2
0000075C  6000 01E0                bra        +0x1E2 /* 0000093E */
00000760  202E FFD4                move.l     D0, [A6 - 0x2C]
00000764  B0AD 9CAE                cmp.l      D0, [A5 - 0x6352]
00000768  6600 01D4                bne        +0x1D6 /* 0000093E */
0000076C  422D 9C4B                clr.b      [A5 - 0x63B5]
00000770  42A7                     clr.l      -[A7]
00000772  A924                     syscall    FrontWindow
00000774  201F                     move.l     D0, [A7]+
00000776  B0AE FFD4                cmp.l      D0, [A6 - 0x2C]
0000077A  6710                     beq        +0x12 /* 0000078C */
0000077C  2F2E FFD4                move.l     -[A7], [A6 - 0x2C]
00000780  A91F                     syscall    SelectWindow
00000782  2F2E FFD4                move.l     -[A7], [A6 - 0x2C]
00000786  A873                     syscall    SetPort
00000788  6000 01B4                bra        +0x1B6 /* 0000093E */
label0000078C:
0000078C  2D6E FFE6 FFFC           move.l     [A6 - 0x4], [A6 - 0x1A]
00000792  486E FFFC                pea.l      [A6 - 0x4]
00000796  A871                     syscall    GlobalToLocal
00000798  3B7C 8000 ECAA           move.w     [A5 - 0x1356], 0x8000
0000079E  422D 9C47                clr.b      [A5 - 0x63B9]
000007A2  202E FFE2                move.l     D0, [A6 - 0x1E]
000007A6  90AD 9C5C                sub.l      D0, [A5 - 0x63A4]
000007AA  B0B8 02F0                cmp.l      D0, [0x000002F0 /* DoubleTime */]
000007AE  6234                     bhi        +0x36 /* 000007E4 */
000007B0  3E2D 9C66                move.w     D7, [A5 - 0x639A]
000007B4  9E6E FFFE                sub.w      D7, [A6 - 0x2]
000007B8  0C47 0004                cmpi.w     D7, 0x4
000007BC  6C26                     bge        +0x28 /* 000007E4 */
000007BE  0C47 FFFC                cmpi.w     D7, 0xFFFC
000007C2  6F20                     ble        +0x22 /* 000007E4 */
000007C4  302D 9C64                move.w     D0, [A5 - 0x639C]
000007C8  906E FFFC                sub.w      D0, [A6 - 0x4]
000007CC  5940                     subq.w     D0, 4
000007CE  6C14                     bge        +0x16 /* 000007E4 */
000007D0  302D 9C64                move.w     D0, [A5 - 0x639C]
000007D4  906E FFFC                sub.w      D0, [A6 - 0x4]
000007D8  0C40 FFFC                cmpi.w     D0, 0xFFFC
000007DC  6F06                     ble        +0x8 /* 000007E4 */
000007DE  1B7C 0001 9C47           move.b     [A5 - 0x63B9], 0x1
label000007E4:
000007E4  4A2D 9C47                tst.b      [A5 - 0x63B9]
000007E8  6706                     beq        +0x8 /* 000007F0 */
000007EA  3B7C 4000 ECAA           move.w     [A5 - 0x1356], 0x4000 /* '@\0' */
label000007F0:
000007F0  2B6E FFE2 9C5C           move.l     [A5 - 0x63A4], [A6 - 0x1E]
000007F6  2B6E FFFC 9C64           move.l     [A5 - 0x639C], [A6 - 0x4]
000007FC  6000 0140                bra        +0x142 /* 0000093E */
00000800  7EFF                     moveq.l    D7, 0xFFFFFFFF
00000802  CE2E FFE1                and.b      D7, [A6 - 0x1F]
00000806  4EBA 0D28                jsr        [PC + 0xD28 /* 00001530 */]
0000080A  082E 0000 FFEA           btst.b     [A6 - 0x16], 0x0
00000810  6774                     beq        +0x76 /* 00000886 */
00000812  3F3C 0001                move.w     -[A7], 0x1
00000816  4EBA 0D52                jsr        [PC + 0xD52 /* 0000156A */]
0000081A  0C07 002E                cmpi.b     D7, 0x2E /* '.' */
0000081E  548F                     addq.l     A7, 2
00000820  6606                     bne        +0x8 /* 00000828 */
00000822  1B7C 001B 9C46           move.b     [A5 - 0x63BA], 0x1B
label00000828:
00000828  42A7                     clr.l      -[A7]
0000082A  1007                     move.b     D0, D7
0000082C  49C0                     lea.l      A4, D0
0000082E  3F00                     move.w     -[A7], D0
00000830  A93E                     syscall    MenuKey
00000832  4EBA 0152                jsr        [PC + 0x152 /* 00000986 */]
00000836  4257                     clr.w      [A7]
00000838  A938                     syscall    HiliteMenu
0000083A  3EBC FFFF                move.w     [A7], 0xFFFF
0000083E  4EBA 0D2A                jsr        [PC + 0xD2A /* 0000156A */]
00000842  4A2D 9C87                tst.b      [A5 - 0x6379]
00000846  548F                     addq.l     A7, 2
00000848  6700 00F4                beq        +0xF6 /* 0000093E */
0000084C  4A2D 9C4B                tst.b      [A5 - 0x63B5]
00000850  6600 00EC                bne        +0xEE /* 0000093E */
00000854  4A2D 9D20                tst.b      [A5 - 0x62E0]
00000858  6700 00E4                beq        +0xE6 /* 0000093E */
0000085C  4A2D 9C49                tst.b      [A5 - 0x63B7]
00000860  6600 00DC                bne        +0xDE /* 0000093E */
00000864  4A2D 9C88                tst.b      [A5 - 0x6378]
00000868  6700 00D4                beq        +0xD6 /* 0000093E */
0000086C  206D 9CAE                movea.l    A0, [A5 - 0x6352]
00000870  2F28 0018                move.l     -[A7], [A0 + 0x18]
00000874  4868 0010                pea.l      [A0 + 0x10]
00000878  A8DF                     syscall    RectRgn
0000087A  4EBA 0DC4                jsr        [PC + 0xDC4 /* 00001640 */]
0000087E  4EBA 1238                jsr        [PC + 0x1238 /* 00001AB8 */]
00000882  6000 00BA                bra        +0xBC /* 0000093E */
label00000886:
00000886  422D 9C47                clr.b      [A5 - 0x63B9]
0000088A  42A7                     clr.l      -[A7]
0000088C  A975                     syscall    TickCount
0000088E  201F                     move.l     D0, [A7]+
00000890  90AD 9C60                sub.l      D0, [A5 - 0x63A0]
00000894  B0B8 02F0                cmp.l      D0, [0x000002F0 /* DoubleTime */]
00000898  620C                     bhi        +0xE /* 000008A6 */
0000089A  BE2D 9C5A                cmp.b      D7, [A5 - 0x63A6]
0000089E  6606                     bne        +0x8 /* 000008A6 */
000008A0  1B7C 0001 9C47           move.b     [A5 - 0x63B9], 0x1
label000008A6:
000008A6  42A7                     clr.l      -[A7]
000008A8  A975                     syscall    TickCount
000008AA  2B5F 9C60                move.l     [A5 - 0x63A0], [A7]+
000008AE  1B47 9C5A                move.b     [A5 - 0x63A6], D7
000008B2  1007                     move.b     D0, D7
000008B4  6B20                     bmi        +0x22 /* 000008D6 */
000008B6  0400 0060                subi.b     D0, 0x60 /* '`' */
000008BA  6712                     beq        +0x14 /* 000008CE */
000008BC  6A18                     bpl        +0x1A /* 000008D6 */
000008BE  0400 00A3                subi.b     D0, 0xA3
000008C2  6702                     beq        +0x4 /* 000008C6 */
000008C4  6010                     bra        +0x12 /* 000008D6 */
label000008C6:
000008C6  1B7C 000D 9C46           move.b     [A5 - 0x63BA], 0xD /* '\r' */
000008CC  6070                     bra        +0x72 /* 0000093E */
label000008CE:
000008CE  1B7C 001B 9C46           move.b     [A5 - 0x63BA], 0x1B
000008D4  6068                     bra        +0x6A /* 0000093E */
label000008D6:
000008D6  1B47 9C46                move.b     [A5 - 0x63BA], D7
000008DA  6062                     bra        +0x64 /* 0000093E */
000008DC  082E 0001 FFE1           btst.b     [A6 - 0x1F], 0x1
000008E2  6714                     beq        +0x16 /* 000008F8 */
000008E4  4EBA 1850                jsr        [PC + 0x1850 /* 00002136 */]
000008E8  1B7C 0001 9C4B           move.b     [A5 - 0x63B5], 0x1
000008EE  3F3C 0001                move.w     -[A7], 0x1
000008F2  4EBA 0C76                jsr        [PC + 0xC76 /* 0000156A */]
000008F6  548F                     addq.l     A7, 2
label000008F8:
000008F8  082E 0000 FFE1           btst.b     [A6 - 0x1F], 0x0
000008FE  673E                     beq        +0x40 /* 0000093E */
00000900  A850                     syscall    InitCursor
00000902  4EBA 16FC                jsr        [PC + 0x16FC /* 00002000 */]
00000906  422D 9C4B                clr.b      [A5 - 0x63B5]
0000090A  3F3C FFFF                move.w     -[A7], 0xFFFF
0000090E  4EBA 0C5A                jsr        [PC + 0xC5A /* 0000156A */]
00000912  548F                     addq.l     A7, 2
00000914  6028                     bra        +0x2A /* 0000093E */
00000916  0CAE 6165 7674 FFDE      cmpi.l     [A6 - 0x22], 0x61657674 /* 'aevt' */
0000091E  661E                     bne        +0x20 /* 0000093E */
00000920  0CAE 7175 6974 FFE6      cmpi.l     [A6 - 0x1A], 0x71756974 /* 'quit' */
00000928  6614                     bne        +0x16 /* 0000093E */
0000092A  2F3C 0000 091B           move.l     -[A7], 0x91B
00000930  4EBA 15B0                jsr        [PC + 0x15B0 /* 00001EE2 */]
00000934  4A40                     tst.w      D0
00000936  588F                     addq.l     A7, 4
00000938  6704                     beq        +0x6 /* 0000093E */
0000093A  4EBA 1684                jsr        [PC + 0x1684 /* 00001FC0 */]
label0000093E:
0000093E  2E1F                     move.l     D7, [A7]+
00000940  4E5E                     unlink     A6
00000942  4E75                     rts
00000944  FFFA                     .invalid   <<F/7/7>>
00000946  FC66 FCE8                .extension 0xC66 <<F/1/6>>, 0xFCE8 // unimplemented
0000094A  FE1C FCF6                .unknown   0xFE1C 0xFCF6 (W = 7)
0000094E  FFFA                     .invalid   <<F/7/7>>
00000950  FD36                     .extension 0xD36 <<F/4-5/6>> // unimplemented
00000952  FDD4                     .invalid   <<F/7/6>>
00000954  FDD4                     .invalid   <<F/7/6>>
00000956  FFE8                     .invalid   <<F/7/7>>
00000958  FC34 FFE8                .unknown   0xFC34 0xFFE8 (W = 6)
0000095C  FEAA FFE8                .extension 0xEAA <<F/2-3/7>> // unimplemented
00000960  FFE8                     .invalid   <<F/7/7>>
00000962  FB4C                     .extension 0xB4C <<F/4-5/5>> // unimplemented
00000964  FC0C FAD4                .unknown   0xFC0C 0xFAD4 (W = 6)
00000968  FFE8                     .invalid   <<F/7/7>>
0000096A  FFE8                     .invalid   <<F/7/7>>
0000096C  FFE8                     .invalid   <<F/7/7>>
0000096E  FFE8                     .invalid   <<F/7/7>>
00000970  FFE8                     .invalid   <<F/7/7>>
00000972  FFE8                     .invalid   <<F/7/7>>
00000974  FF86                     .invalid   <<F/6/7>>
00000976  FFE8                     .invalid   <<F/7/7>>
00000978  FFE8                     .invalid   <<F/7/7>>
0000097A  FFE8                     .invalid   <<F/7/7>>
0000097C  FFE8                     .invalid   <<F/7/7>>
0000097E  FFE8                     .invalid   <<F/7/7>>
00000980  FFE8                     .invalid   <<F/7/7>>
00000982  FFE8                     .invalid   <<F/7/7>>
00000984  FFC0                     .invalid   <<F/7/7>>
fn00000986:
00000986  4E56 FEF0                link       A6, -0x0110
0000098A  48E7 0108                movem.l    -[A7], D7,A4
0000098E  4267                     clr.w      -[A7]
00000990  2F2E 0008                move.l     -[A7], [A6 + 0x8]
00000994  A86B                     syscall    LoWord
00000996  3E1F                     move.w     D7, [A7]+
00000998  4267                     clr.w      -[A7]
0000099A  2F2E 0008                move.l     -[A7], [A6 + 0x8]
0000099E  A86A                     syscall    HiWord
000009A0  301F                     move.w     D0, [A7]+
000009A2  6B00 039C                bmi        +0x39E /* 00000D40 */
000009A6  0440 0082                subi.w     D0, 0x82
000009AA  6700 00FA                beq        +0xFC /* 00000AA6 */
000009AE  6A0A                     bpl        +0xC /* 000009BA */
000009B0  5440                     addq.w     D0, 2
000009B2  6710                     beq        +0x12 /* 000009C4 */
000009B4  6A48                     bpl        +0x4A /* 000009FE */
000009B6  6000 0388                bra        +0x38A /* 00000D40 */
label000009BA:
000009BA  5540                     subq.w     D0, 2
000009BC  6A00 0382                bpl        +0x384 /* 00000D40 */
000009C0  6000 00F0                bra        +0xF2 /* 00000AB2 */
label000009C4:
000009C4  3007                     move.w     D0, D7
000009C6  670E                     beq        +0x10 /* 000009D6 */
000009C8  6B0C                     bmi        +0xE /* 000009D6 */
000009CA  5540                     subq.w     D0, 2
000009CC  6A08                     bpl        +0xA /* 000009D6 */
000009CE  4EBA 20E6                jsr        [PC + 0x20E6 /* 00002AB6 */]
000009D2  6000 036C                bra        +0x36E /* 00000D40 */
label000009D6:
000009D6  3F3C 0001                move.w     -[A7], 0x1
000009DA  4EBA 0B8E                jsr        [PC + 0xB8E /* 0000156A */]
000009DE  1B7C 0001 9C4B           move.b     [A5 - 0x63B5], 0x1
000009E4  2F2D 9D58                move.l     -[A7], [A5 - 0x62A8]
000009E8  3F07                     move.w     -[A7], D7
000009EA  486E FEF4                pea.l      [A6 - 0x10C]
000009EE  A946                     syscall    GetMenuItemText/GetItem
000009F0  4257                     clr.w      [A7]
000009F2  486E FEF4                pea.l      [A6 - 0x10C]
000009F6  A9B6                     syscall    OpenDeskAcc
000009F8  548F                     addq.l     A7, 2
000009FA  6000 0344                bra        +0x346 /* 00000D40 */
label000009FE:
000009FE  0C47 0009                cmpi.w     D7, 0x9 /* '\t' */
00000A02  6200 033C                bhi        +0x33E /* 00000D40 */
00000A06  43FA 034E                lea.l      A1, [PC + 0x34E /* 00000D56, value 0xFFEAFCBA */]
00000A0A  D2F1 7200                add.w      A1, [A1 + D7.w * 2]
00000A0E  4ED1                     jmp        [A1]
00000A10  302D C990                move.w     D0, [A5 - 0x3670]
00000A14  EA40                     asr        D0.w, 5
00000A16  0240 000F                andi.w     D0, 0xF
00000A1A  2875 0520 9E60           movea.l    A4, [A5 - 0x61A0 + D0 * 4]
00000A20  4E94                     jsr        [A4]
00000A22  6000 031C                bra        +0x31E /* 00000D40 */
00000A26  302D C990                move.w     D0, [A5 - 0x3670]
00000A2A  EA40                     asr        D0.w, 5
00000A2C  0240 000F                andi.w     D0, 0xF
00000A30  2875 0520 9E20           movea.l    A4, [A5 - 0x61E0 + D0 * 4]
00000A36  4E94                     jsr        [A4]
00000A38  6000 0306                bra        +0x308 /* 00000D40 */
00000A3C  4267                     clr.w      -[A7]
00000A3E  A938                     syscall    HiliteMenu
00000A40  2F3C 0000 093B           move.l     -[A7], 0x93B /* '\t;' */
00000A46  4EBA 149A                jsr        [PC + 0x149A /* 00001EE2 */]
00000A4A  4A40                     tst.w      D0
00000A4C  588F                     addq.l     A7, 4
00000A4E  6700 02F0                beq        +0x2F2 /* 00000D40 */
00000A52  4EBA 06BC                jsr        [PC + 0x6BC /* 00001110 */]
00000A56  4EBA 37CA                jsr        [PC + 0x37CA /* 00004222 */]
00000A5A  1B7C 0001 9C53           move.b     [A5 - 0x63AD], 0x1
00000A60  4267                     clr.w      -[A7]
00000A62  4EBA 0B06                jsr        [PC + 0xB06 /* 0000156A */]
00000A66  4257                     clr.w      [A7]
00000A68  4EAD 05DA                jsr        [A5 + 0x5DA /* export_183, CODE:3 @ 0000202A */]
00000A6C  548F                     addq.l     A7, 2
00000A6E  6000 02D0                bra        +0x2D2 /* 00000D40 */
00000A72  1B7C 0020 9C46           move.b     [A5 - 0x63BA], 0x20 /* ' ' */
00000A78  6000 02C6                bra        +0x2C8 /* 00000D40 */
00000A7C  4EBA 06B6                jsr        [PC + 0x6B6 /* 00001134 */]
00000A80  6000 02BE                bra        +0x2C0 /* 00000D40 */
00000A84  4EBA 1A98                jsr        [PC + 0x1A98 /* 0000251E */]
00000A88  6000 02B6                bra        +0x2B8 /* 00000D40 */
00000A8C  2F3C 0000 097B           move.l     -[A7], 0x97B /* '\t{' */
00000A92  4EBA 144E                jsr        [PC + 0x144E /* 00001EE2 */]
00000A96  4A40                     tst.w      D0
00000A98  588F                     addq.l     A7, 4
00000A9A  6700 02A4                beq        +0x2A6 /* 00000D40 */
00000A9E  4EBA 1520                jsr        [PC + 0x1520 /* 00001FC0 */]
00000AA2  6000 029C                bra        +0x29E /* 00000D40 */
label00000AA6:
00000AA6  4227                     clr.b      -[A7]
00000AA8  3F07                     move.w     -[A7], D7
00000AAA  A9C2                     syscall    SysEdit
00000AAC  548F                     addq.l     A7, 2
00000AAE  6000 0290                bra        +0x292 /* 00000D40 */
label00000AB2:
00000AB2  0C47 0006                cmpi.w     D7, 0x6
00000AB6  6200 0288                bhi        +0x28A /* 00000D40 */
00000ABA  43FA 028C                lea.l      A1, [PC + 0x28C /* 00000D48, value 0xFFF8FD7C */]
00000ABE  D2F1 7200                add.w      A1, [A1 + D7.w * 2]
00000AC2  4ED1                     jmp        [A1]
00000AC4  4A2D 9C87                tst.b      [A5 - 0x6379]
00000AC8  57C0                     seq        D0
00000ACA  4400                     neg.b      D0
00000ACC  1B40 9C87                move.b     [A5 - 0x6379], D0
00000AD0  2F2D 9D64                move.l     -[A7], [A5 - 0x629C]
00000AD4  3F3C 0001                move.w     -[A7], 0x1
00000AD8  1F2D 9C87                move.b     -[A7], [A5 - 0x6379]
00000ADC  A945                     syscall    CheckItem
00000ADE  2F2D 9D64                move.l     -[A7], [A5 - 0x629C]
00000AE2  3F3C 0002                move.w     -[A7], 0x2
00000AE6  4A2D 9C87                tst.b      [A5 - 0x6379]
00000AEA  6706                     beq        +0x8 /* 00000AF2 */
00000AEC  4A2D 9C88                tst.b      [A5 - 0x6378]
00000AF0  6604                     bne        +0x6 /* 00000AF6 */
label00000AF2:
00000AF2  7000                     moveq.l    D0, 0x00
00000AF4  6002                     bra        +0x4 /* 00000AF8 */
label00000AF6:
00000AF6  7001                     moveq.l    D0, 0x01
label00000AF8:
00000AF8  1F00                     move.b     -[A7], D0
00000AFA  A945                     syscall    CheckItem
00000AFC  4A2D 9C87                tst.b      [A5 - 0x6379]
00000B00  670C                     beq        +0xE /* 00000B0E */
00000B02  2F2D 9D64                move.l     -[A7], [A5 - 0x629C]
00000B06  3F3C 0002                move.w     -[A7], 0x2
00000B0A  A939                     syscall    EnableItem
00000B0C  600A                     bra        +0xC /* 00000B18 */
label00000B0E:
00000B0E  2F2D 9D64                move.l     -[A7], [A5 - 0x629C]
00000B12  3F3C 0002                move.w     -[A7], 0x2
00000B16  A93A                     syscall    DisableItem
label00000B18:
00000B18  102D 9C86                move.b     D0, [A5 - 0x637A]
00000B1C  49C0                     lea.l      A4, D0
00000B1E  3F00                     move.w     -[A7], D0
00000B20  4EBA 07F4                jsr        [PC + 0x7F4 /* 00001316 */]
00000B24  4A2D 9C87                tst.b      [A5 - 0x6379]
00000B28  548F                     addq.l     A7, 2
00000B2A  6700 0214                beq        +0x216 /* 00000D40 */
00000B2E  4A2D 9C4B                tst.b      [A5 - 0x63B5]
00000B32  6600 020C                bne        +0x20E /* 00000D40 */
00000B36  4A2D 9D20                tst.b      [A5 - 0x62E0]
00000B3A  6700 0204                beq        +0x206 /* 00000D40 */
00000B3E  4A2D 9C49                tst.b      [A5 - 0x63B7]
00000B42  6600 01FC                bne        +0x1FE /* 00000D40 */
00000B46  4A2D 9C88                tst.b      [A5 - 0x6378]
00000B4A  6700 01F4                beq        +0x1F6 /* 00000D40 */
00000B4E  206D 9CAE                movea.l    A0, [A5 - 0x6352]
00000B52  2F28 0018                move.l     -[A7], [A0 + 0x18]
00000B56  4868 0010                pea.l      [A0 + 0x10]
00000B5A  A8DF                     syscall    RectRgn
00000B5C  4EBA 0AE2                jsr        [PC + 0xAE2 /* 00001640 */]
00000B60  4EBA 0F56                jsr        [PC + 0xF56 /* 00001AB8 */]
00000B64  6000 01DA                bra        +0x1DC /* 00000D40 */
00000B68  4A2D 9C88                tst.b      [A5 - 0x6378]
00000B6C  57C0                     seq        D0
00000B6E  4400                     neg.b      D0
00000B70  1B40 9C88                move.b     [A5 - 0x6378], D0
00000B74  2F2D 9D64                move.l     -[A7], [A5 - 0x629C]
00000B78  3F3C 0002                move.w     -[A7], 0x2
00000B7C  4A2D 9C87                tst.b      [A5 - 0x6379]
00000B80  6706                     beq        +0x8 /* 00000B88 */
00000B82  4A2D 9C88                tst.b      [A5 - 0x6378]
00000B86  6604                     bne        +0x6 /* 00000B8C */
label00000B88:
00000B88  7000                     moveq.l    D0, 0x00
00000B8A  6002                     bra        +0x4 /* 00000B8E */
label00000B8C:
00000B8C  7001                     moveq.l    D0, 0x01
label00000B8E:
00000B8E  1F00                     move.b     -[A7], D0
00000B90  A945                     syscall    CheckItem
00000B92  4A2D 9C87                tst.b      [A5 - 0x6379]
00000B96  670C                     beq        +0xE /* 00000BA4 */
00000B98  2F2D 9D64                move.l     -[A7], [A5 - 0x629C]
00000B9C  3F3C 0002                move.w     -[A7], 0x2
00000BA0  A939                     syscall    EnableItem
00000BA2  600A                     bra        +0xC /* 00000BAE */
label00000BA4:
00000BA4  2F2D 9D64                move.l     -[A7], [A5 - 0x629C]
00000BA8  3F3C 0002                move.w     -[A7], 0x2
00000BAC  A93A                     syscall    DisableItem
label00000BAE:
00000BAE  4A2D 9C87                tst.b      [A5 - 0x6379]
00000BB2  6700 018C                beq        +0x18E /* 00000D40 */
00000BB6  4A2D 9C4B                tst.b      [A5 - 0x63B5]
00000BBA  6600 0184                bne        +0x186 /* 00000D40 */
00000BBE  4A2D 9D20                tst.b      [A5 - 0x62E0]
00000BC2  6700 017C                beq        +0x17E /* 00000D40 */
00000BC6  4A2D 9C49                tst.b      [A5 - 0x63B7]
00000BCA  6600 0174                bne        +0x176 /* 00000D40 */
00000BCE  4A2D 9C88                tst.b      [A5 - 0x6378]
00000BD2  6700 016C                beq        +0x16E /* 00000D40 */
00000BD6  206D 9CAE                movea.l    A0, [A5 - 0x6352]
00000BDA  2F28 0018                move.l     -[A7], [A0 + 0x18]
00000BDE  4868 0010                pea.l      [A0 + 0x10]
00000BE2  A8DF                     syscall    RectRgn
00000BE4  4EBA 0A5A                jsr        [PC + 0xA5A /* 00001640 */]
00000BE8  4EBA 0ECE                jsr        [PC + 0xECE /* 00001AB8 */]
00000BEC  6000 0152                bra        +0x154 /* 00000D40 */
00000BF0  0C2D 0020 9C86           cmpi.b     [A5 - 0x637A], 0x20 /* ' ' */
00000BF6  670A                     beq        +0xC /* 00000C02 */
00000BF8  3F3C 0020                move.w     -[A7], 0x20 /* ' ' */
00000BFC  4EBA 0718                jsr        [PC + 0x718 /* 00001316 */]
00000C00  548F                     addq.l     A7, 2
label00000C02:
00000C02  2F2D 9D64                move.l     -[A7], [A5 - 0x629C]
00000C06  3F3C 0004                move.w     -[A7], 0x4
00000C0A  0C2D 0020 9C86           cmpi.b     [A5 - 0x637A], 0x20 /* ' ' */
00000C10  57C0                     seq        D0
00000C12  4400                     neg.b      D0
00000C14  1F00                     move.b     -[A7], D0
00000C16  A945                     syscall    CheckItem
00000C18  2F2D 9D64                move.l     -[A7], [A5 - 0x629C]
00000C1C  3F3C 0005                move.w     -[A7], 0x5
00000C20  0C2D 0001 9C86           cmpi.b     [A5 - 0x637A], 0x1
00000C26  57C0                     seq        D0
00000C28  4400                     neg.b      D0
00000C2A  1F00                     move.b     -[A7], D0
00000C2C  A945                     syscall    CheckItem
00000C2E  2F2D 9D64                move.l     -[A7], [A5 - 0x629C]
00000C32  3F3C 0006                move.w     -[A7], 0x6
00000C36  4A2D 9C86                tst.b      [A5 - 0x637A]
00000C3A  57C0                     seq        D0
00000C3C  4400                     neg.b      D0
00000C3E  1F00                     move.b     -[A7], D0
00000C40  A945                     syscall    CheckItem
00000C42  6000 00FC                bra        +0xFE /* 00000D40 */
00000C46  0C2D 0001 9C86           cmpi.b     [A5 - 0x637A], 0x1
00000C4C  6738                     beq        +0x3A /* 00000C86 */
00000C4E  0C2D 0001 9C86           cmpi.b     [A5 - 0x637A], 0x1
00000C54  6F26                     ble        +0x28 /* 00000C7C */
00000C56  302D 9C7A                move.w     D0, [A5 - 0x6386]
00000C5A  906D 9C76                sub.w      D0, [A5 - 0x638A]
00000C5E  0C40 01DE                cmpi.w     D0, 0x1DE
00000C62  6D0E                     blt        +0x10 /* 00000C72 */
00000C64  302D 9C78                move.w     D0, [A5 - 0x6388]
00000C68  906D 9C74                sub.w      D0, [A5 - 0x638C]
00000C6C  0C40 012A                cmpi.w     D0, 0x12A
00000C70  6C0A                     bge        +0xC /* 00000C7C */
label00000C72:
00000C72  4EBA 1164                jsr        [PC + 0x1164 /* 00001DD8 */]
00000C76  4A40                     tst.w      D0
00000C78  6700 00C6                beq        +0xC8 /* 00000D40 */
label00000C7C:
00000C7C  3F3C 0001                move.w     -[A7], 0x1
00000C80  4EBA 0694                jsr        [PC + 0x694 /* 00001316 */]
00000C84  548F                     addq.l     A7, 2
label00000C86:
00000C86  2F2D 9D64                move.l     -[A7], [A5 - 0x629C]
00000C8A  3F3C 0004                move.w     -[A7], 0x4
00000C8E  0C2D 0020 9C86           cmpi.b     [A5 - 0x637A], 0x20 /* ' ' */
00000C94  57C0                     seq        D0
00000C96  4400                     neg.b      D0
00000C98  1F00                     move.b     -[A7], D0
00000C9A  A945                     syscall    CheckItem
00000C9C  2F2D 9D64                move.l     -[A7], [A5 - 0x629C]
00000CA0  3F3C 0005                move.w     -[A7], 0x5
00000CA4  0C2D 0001 9C86           cmpi.b     [A5 - 0x637A], 0x1
00000CAA  57C0                     seq        D0
00000CAC  4400                     neg.b      D0
00000CAE  1F00                     move.b     -[A7], D0
00000CB0  A945                     syscall    CheckItem
00000CB2  2F2D 9D64                move.l     -[A7], [A5 - 0x629C]
00000CB6  3F3C 0006                move.w     -[A7], 0x6
00000CBA  4A2D 9C86                tst.b      [A5 - 0x637A]
00000CBE  57C0                     seq        D0
00000CC0  4400                     neg.b      D0
00000CC2  1F00                     move.b     -[A7], D0
00000CC4  A945                     syscall    CheckItem
00000CC6  6078                     bra        +0x7A /* 00000D40 */
00000CC8  4A2D 9C86                tst.b      [A5 - 0x637A]
00000CCC  6772                     beq        +0x74 /* 00000D40 */
00000CCE  4A2D 9C86                tst.b      [A5 - 0x637A]
00000CD2  6F24                     ble        +0x26 /* 00000CF8 */
00000CD4  302D 9C7A                move.w     D0, [A5 - 0x6386]
00000CD8  906D 9C76                sub.w      D0, [A5 - 0x638A]
00000CDC  0C40 027E                cmpi.w     D0, 0x27E
00000CE0  6D0E                     blt        +0x10 /* 00000CF0 */
00000CE2  302D 9C78                move.w     D0, [A5 - 0x6388]
00000CE6  906D 9C74                sub.w      D0, [A5 - 0x638C]
00000CEA  0C40 018E                cmpi.w     D0, 0x18E
00000CEE  6C08                     bge        +0xA /* 00000CF8 */
label00000CF0:
00000CF0  4EBA 10E6                jsr        [PC + 0x10E6 /* 00001DD8 */]
00000CF4  4A40                     tst.w      D0
00000CF6  6748                     beq        +0x4A /* 00000D40 */
label00000CF8:
00000CF8  4267                     clr.w      -[A7]
00000CFA  4EBA 061A                jsr        [PC + 0x61A /* 00001316 */]
00000CFE  2F2D 9D64                move.l     -[A7], [A5 - 0x629C]
00000D02  3F3C 0004                move.w     -[A7], 0x4
00000D06  0C2D 0020 9C86           cmpi.b     [A5 - 0x637A], 0x20 /* ' ' */
00000D0C  57C0                     seq        D0
00000D0E  4400                     neg.b      D0
00000D10  1F00                     move.b     -[A7], D0
00000D12  A945                     syscall    CheckItem
00000D14  2F2D 9D64                move.l     -[A7], [A5 - 0x629C]
00000D18  3F3C 0005                move.w     -[A7], 0x5
00000D1C  0C2D 0001 9C86           cmpi.b     [A5 - 0x637A], 0x1
00000D22  57C0                     seq        D0
00000D24  4400                     neg.b      D0
00000D26  1F00                     move.b     -[A7], D0
00000D28  A945                     syscall    CheckItem
00000D2A  2F2D 9D64                move.l     -[A7], [A5 - 0x629C]
00000D2E  3F3C 0006                move.w     -[A7], 0x6
00000D32  4A2D 9C86                tst.b      [A5 - 0x637A]
00000D36  57C0                     seq        D0
00000D38  4400                     neg.b      D0
00000D3A  1F00                     move.b     -[A7], D0
00000D3C  A945                     syscall    CheckItem
00000D3E  548F                     addq.l     A7, 2
label00000D40:
00000D40  4CDF 1080                movem.l    D7,A4, [A7]+
00000D44  4E5E                     unlink     A6
00000D46  4E75                     rts
00000D48  FFF8                     .invalid   <<F/7/7>>
00000D4A  FD7C                     .extension 0xD7C <<F/4-5/6>> // unimplemented
00000D4C  FE20 FFF8                .unknown   0xFE20 0xFFF8 (W = 7)
00000D50  FEA8 FEFE                .extension 0xEA8 <<F/2-3/7>> // unimplemented
00000D54  FF80                     .invalid   <<F/6/7>>
00000D56  FFEA                     .invalid   <<F/7/7>>
00000D58  FCBA FCD0                .extension 0xCBA <<F/2-3/6>> // unimplemented
00000D5C  FCE6 FFEA                .extension 0xCE6 <<F/2-3/6>> // unimplemented
00000D60  FD1C                     .extension 0xD1C <<F/4-5/6>> // unimplemented
00000D62  FD26                     .extension 0xD26 <<F/4-5/6>> // unimplemented
00000D64  FD2E                     .extension 0xD2E <<F/4-5/6>> // unimplemented
00000D66  FFEA                     .invalid   <<F/7/7>>
00000D68  FD36                     .extension 0xD36 <<F/4-5/6>> // unimplemented
fn00000D6A:
00000D6A  4E56 FF7A                link       A6, -0x0086
00000D6E  48E7 0F38                movem.l    -[A7], D4,D5,D6,D7,A2,A3,A4
00000D72  266E 0008                movea.l    A3, [A6 + 0x8]
00000D76  49EE FFFC                lea.l      A4, [A6 - 0x4]
00000D7A  3F3C A0AD                move.w     -[A7], 0xA0AD
00000D7E  4EBA 1106                jsr        [PC + 0x1106 /* 00001E86 */]
00000D82  4A40                     tst.w      D0
00000D84  548F                     addq.l     A7, 2
00000D86  660E                     bne        +0x10 /* 00000D96 */
00000D88  4EBA 1064                jsr        [PC + 0x1064 /* 00001DEE */]
00000D8C  3F3C 0001                move.w     -[A7], 0x1
00000D90  4EAD 0C52                jsr        [A5 + 0xC52 /* export_390, CODE:7 @ 0000042E */]
00000D94  548F                     addq.l     A7, 2
label00000D96:
00000D96  4267                     clr.w      -[A7]
00000D98  2F3C 7379 7376           move.l     -[A7], 0x73797376 /* 'sysv' */
00000D9E  2F0C                     move.l     -[A7], A4
00000DA0  4EAD 0BA2                jsr        [A5 + 0xBA2 /* export_368, CODE:6 @ 000014D0 */]
00000DA4  3C1F                     move.w     D6, [A7]+
00000DA6  0C6E 0607 FFFE           cmpi.w     [A6 - 0x2], 0x607
00000DAC  640E                     bcc        +0x10 /* 00000DBC */
00000DAE  4EBA 103E                jsr        [PC + 0x103E /* 00001DEE */]
00000DB2  3F3C 0001                move.w     -[A7], 0x1
00000DB6  4EAD 0C52                jsr        [A5 + 0xC52 /* export_390, CODE:7 @ 0000042E */]
00000DBA  548F                     addq.l     A7, 2
label00000DBC:
00000DBC  376E FFFE 0002           move.w     [A3 + 0x2], [A6 - 0x2]
00000DC2  4267                     clr.w      -[A7]
00000DC4  2F3C 7072 6F63           move.l     -[A7], 0x70726F63 /* 'proc' */
00000DCA  2F0C                     move.l     -[A7], A4
00000DCC  4EAD 0BA2                jsr        [A5 + 0xBA2 /* export_368, CODE:6 @ 000014D0 */]
00000DD0  3C1F                     move.w     D6, [A7]+
00000DD2  0C6E 0001 FFFE           cmpi.w     [A6 - 0x2], 0x1
00000DD8  6708                     beq        +0xA /* 00000DE2 */
00000DDA  0C6E 0002 FFFE           cmpi.w     [A6 - 0x2], 0x2
00000DE0  660E                     bne        +0x10 /* 00000DF0 */
label00000DE2:
00000DE2  4EBA 1028                jsr        [PC + 0x1028 /* 00001E0C */]
00000DE6  3F3C 0001                move.w     -[A7], 0x1
00000DEA  4EAD 0C52                jsr        [A5 + 0xC52 /* export_390, CODE:7 @ 0000042E */]
00000DEE  548F                     addq.l     A7, 2
label00000DF0:
00000DF0  176E FFFF 0001           move.b     [A3 + 0x1], [A6 - 0x1]
00000DF6  0C2B 0003 0001           cmpi.b     [A3 + 0x1], 0x3
00000DFC  56C0                     sne        D0
00000DFE  4400                     neg.b      D0
00000E00  1B40 9FBB                move.b     [A5 - 0x6045], D0
00000E04  4267                     clr.w      -[A7]
00000E06  2F3C 6D61 6368           move.l     -[A7], 0x6D616368 /* 'mach' */
00000E0C  2F0C                     move.l     -[A7], A4
00000E0E  4EAD 0BA2                jsr        [A5 + 0xBA2 /* export_368, CODE:6 @ 000014D0 */]
00000E12  3C1F                     move.w     D6, [A7]+
00000E14  16AE FFFF                move.b     [A3], [A6 - 0x1]
00000E18  4267                     clr.w      -[A7]
00000E1A  2F3C 7164 2020           move.l     -[A7], 0x71642020 /* 'qd  ' */
00000E20  2F0C                     move.l     -[A7], A4
00000E22  4EAD 0BA2                jsr        [A5 + 0xBA2 /* export_368, CODE:6 @ 000014D0 */]
00000E26  3C1F                     move.w     D6, [A7]+
00000E28  0C6E 0100 FFFE           cmpi.w     [A6 - 0x2], 0x100
00000E2E  640E                     bcc        +0x10 /* 00000E3E */
00000E30  4EBA 0FDA                jsr        [PC + 0xFDA /* 00001E0C */]
00000E34  3F3C 0001                move.w     -[A7], 0x1
00000E38  4EAD 0C52                jsr        [A5 + 0xC52 /* export_390, CODE:7 @ 0000042E */]
00000E3C  548F                     addq.l     A7, 2
label00000E3E:
00000E3E  42A7                     clr.l      -[A7]
00000E40  AA2A                     syscall    GetMainDevice
00000E42  2D5F FF7C                move.l     [A6 - 0x84], [A7]+
00000E46  42A7                     clr.l      -[A7]
00000E48  AA29                     syscall    GetDeviceList
00000E4A  2D5F FF80                move.l     [A6 - 0x80], [A7]+
00000E4E  7C02                     moveq.l    D6, 0x02
00000E50  601E                     bra        +0x20 /* 00000E70 */
label00000E52:
00000E52  42A7                     clr.l      -[A7]
00000E54  70FF                     moveq.l    D0, 0xFFFFFFFF
00000E56  D046                     add.w      D0, D6
00000E58  7200                     moveq.l    D1, 0x00
00000E5A  3200                     move.w     D1, D0
00000E5C  2F36 1D20 FF7C           move.l     -[A7], [A6 - 0x84 + D1 * 4]
00000E62  AA2B                     syscall    GetNextDevice
00000E64  7000                     moveq.l    D0, 0x00
00000E66  3006                     move.w     D0, D6
00000E68  2D9F 0D20 FF7C           move.l     [A6 - 0x84 + D0 * 4], [A7]+
00000E6E  5246                     addq.w     D6, 1
label00000E70:
00000E70  0C46 0020                cmpi.w     D6, 0x20 /* ' ' */
00000E74  6410                     bcc        +0x12 /* 00000E86 */
00000E76  70FF                     moveq.l    D0, 0xFFFFFFFF
00000E78  D046                     add.w      D0, D6
00000E7A  7200                     moveq.l    D1, 0x00
00000E7C  3200                     move.w     D1, D0
00000E7E  4AB6 1D20 FF7C           tst.l      [A6 - 0x84 + D1 * 4]
00000E84  66CC                     bne        -0x32 /* 00000E52 */
label00000E86:
00000E86  42AE FFF8                clr.l      [A6 - 0x8]
00000E8A  7A00                     moveq.l    D5, 0x00
00000E8C  7C00                     moveq.l    D6, 0x00
00000E8E  6000 008C                bra        +0x8E /* 00000F1C */
label00000E92:
00000E92  7000                     moveq.l    D0, 0x00
00000E94  3006                     move.w     D0, D6
00000E96  2476 0D20 FF7C           movea.l    A2, [A6 - 0x84 + D0 * 4]
00000E9C  200A                     move.l     D0, A2
00000E9E  660E                     bne        +0x10 /* 00000EAE */
00000EA0  4EBA 0F6A                jsr        [PC + 0xF6A /* 00001E0C */]
00000EA4  3F3C 0001                move.w     -[A7], 0x1
00000EA8  4EAD 0C52                jsr        [A5 + 0xC52 /* export_390, CODE:7 @ 0000042E */]
00000EAC  548F                     addq.l     A7, 2
label00000EAE:
00000EAE  4227                     clr.b      -[A7]
00000EB0  2F0A                     move.l     -[A7], A2
00000EB2  3F3C 000D                move.w     -[A7], 0xD /* '\r' */
00000EB6  AA2C                     syscall    TestDeviceAttribute
00000EB8  4A1F                     tst.b      [A7]+
00000EBA  675E                     beq        +0x60 /* 00000F1A */
00000EBC  2052                     movea.l    A0, [A2]
00000EBE  2E28 0016                move.l     D7, [A0 + 0x16]
00000EC2  2247                     movea.l    A1, D7
00000EC4  2251                     movea.l    A1, [A1]
00000EC6  3829 0020                move.w     D4, [A1 + 0x20]
00000ECA  0C44 0008                cmpi.w     D4, 0x8
00000ECE  6748                     beq        +0x4A /* 00000F18 */
00000ED0  3B44 9C9C                move.w     [A5 - 0x6364], D4
00000ED4  4267                     clr.w      -[A7]
00000ED6  2F0A                     move.l     -[A7], A2
00000ED8  2F3C 0001 0008           move.l     -[A7], 0x10008
00000EDE  3F3C 0001                move.w     -[A7], 0x1
00000EE2  303C 0A14                move.w     D0, 0xA14
00000EE6  AAA2                     syscall    PaletteDispatch
00000EE8  4A5F                     tst.w      [A7]+
00000EEA  672E                     beq        +0x30 /* 00000F1A */
00000EEC  4EBA 0F2C                jsr        [PC + 0xF2C /* 00001E1A */]
00000EF0  4A40                     tst.w      D0
00000EF2  671A                     beq        +0x1C /* 00000F0E */
00000EF4  4267                     clr.w      -[A7]
00000EF6  2F0A                     move.l     -[A7], A2
00000EF8  2F3C 0001 0008           move.l     -[A7], 0x10008
00000EFE  3F3C 0001                move.w     -[A7], 0x1
00000F02  303C 0A13                move.w     D0, 0xA13
00000F06  AAA2                     syscall    PaletteDispatch
00000F08  7A01                     moveq.l    D5, 0x01
00000F0A  548F                     addq.l     A7, 2
00000F0C  600C                     bra        +0xE /* 00000F1A */
label00000F0E:
00000F0E  4267                     clr.w      -[A7]
00000F10  4EAD 0C52                jsr        [A5 + 0xC52 /* export_390, CODE:7 @ 0000042E */]
00000F14  548F                     addq.l     A7, 2
00000F16  6002                     bra        +0x4 /* 00000F1A */
label00000F18:
00000F18  7A01                     moveq.l    D5, 0x01
label00000F1A:
00000F1A  5246                     addq.w     D6, 1
label00000F1C:
00000F1C  0C46 0020                cmpi.w     D6, 0x20 /* ' ' */
00000F20  6406                     bcc        +0x8 /* 00000F28 */
00000F22  4A05                     tst.b      D5
00000F24  6700 FF6C                beq        -0x92 /* 00000E92 */
label00000F28:
00000F28  274A 0010                move.l     [A3 + 0x10], A2
00000F2C  41EE FF7A                lea.l      A0, [A6 - 0x86]
00000F30  A080                     syscall    GetVideoDefault
00000F32  102E FF7A                move.b     D0, [A6 - 0x86]
00000F36  49C0                     lea.l      A4, D0
00000F38  3740 0014                move.w     [A3 + 0x14], D0
00000F3C  2052                     movea.l    A0, [A2]
00000F3E  2768 0022 0008           move.l     [A3 + 0x8], [A0 + 0x22]
00000F44  2768 0026 000C           move.l     [A3 + 0xC], [A0 + 0x26]
00000F4A  3C2B 000E                move.w     D6, [A3 + 0xE]
00000F4E  9C6B 000A                sub.w      D6, [A3 + 0xA]
00000F52  3A2B 000C                move.w     D5, [A3 + 0xC]
00000F56  9A6B 0008                sub.w      D5, [A3 + 0x8]
00000F5A  422B 001B                clr.b      [A3 + 0x1B]
00000F5E  177C 0001 001C           move.b     [A3 + 0x1C], 0x1
00000F64  0C46 01E0                cmpi.w     D6, 0x1E0
00000F68  6506                     bcs        +0x8 /* 00000F70 */
00000F6A  0C45 012C                cmpi.w     D5, 0x12C
00000F6E  6414                     bcc        +0x16 /* 00000F84 */
label00000F70:
00000F70  177C 0020 001A           move.b     [A3 + 0x1A], 0x20 /* ' ' */
00000F76  0C46 0190                cmpi.w     D6, 0x190
00000F7A  6438                     bcc        +0x3A /* 00000FB4 */
00000F7C  177C 0001 001B           move.b     [A3 + 0x1B], 0x1
00000F82  6030                     bra        +0x32 /* 00000FB4 */
label00000F84:
00000F84  0C46 0280                cmpi.w     D6, 0x280
00000F88  6506                     bcs        +0x8 /* 00000F90 */
00000F8A  0C45 0190                cmpi.w     D5, 0x190
00000F8E  6414                     bcc        +0x16 /* 00000FA4 */
label00000F90:
00000F90  177C 0001 001A           move.b     [A3 + 0x1A], 0x1
00000F96  0C46 0258                cmpi.w     D6, 0x258
00000F9A  6418                     bcc        +0x1A /* 00000FB4 */
00000F9C  177C 0001 001B           move.b     [A3 + 0x1B], 0x1
00000FA2  6010                     bra        +0x12 /* 00000FB4 */
label00000FA4:
00000FA4  422B 001A                clr.b      [A3 + 0x1A]
00000FA8  0C46 0320                cmpi.w     D6, 0x320
00000FAC  6406                     bcc        +0x8 /* 00000FB4 */
00000FAE  177C 0001 001B           move.b     [A3 + 0x1B], 0x1
label00000FB4:
00000FB4  4267                     clr.w      -[A7]
00000FB6  2F3C 6864 7772           move.l     -[A7], 0x68647772 /* 'hdwr' */
00000FBC  2F0C                     move.l     -[A7], A4
00000FBE  4EAD 0BA2                jsr        [A5 + 0xBA2 /* export_368, CODE:6 @ 000014D0 */]
00000FC2  3C1F                     move.w     D6, [A7]+
00000FC4  082C 0003 0003           btst.b     [A4 + 0x3], 0x3
00000FCA  56C0                     sne        D0
00000FCC  4400                     neg.b      D0
00000FCE  1740 0004                move.b     [A3 + 0x4], D0
00000FD2  4CDF 1CF0                movem.l    D4,D5,D6,D7,A2,A3,A4, [A7]+
00000FD6  4E5E                     unlink     A6
00000FD8  4E75                     rts
fn00000FDA:
00000FDA  4E56 FFF6                link       A6, -0x000A
00000FDE  48E7 0708                movem.l    -[A7], D5,D6,D7,A4
00000FE2  7E00                     moveq.l    D7, 0x00
00000FE4  3E3C 0280                move.w     D7, 0x280
00000FE8  3C3C 0190                move.w     D6, 0x190
00000FEC  5046                     addq.w     D6, 8
00000FEE  486E FFF6                pea.l      [A6 - 0xA]
00000FF2  42A7                     clr.l      -[A7]
00000FF4  3F07                     move.w     -[A7], D7
00000FF6  3F06                     move.w     -[A7], D6
00000FF8  A8A7                     syscall    SetRect
00000FFA  93C9                     sub.l      A1, A1
00000FFC  A11D                     syscall    MaxMem, flags=1
00000FFE  2288                     move.l     [A1], A0
00001000  42A7                     clr.l      -[A7]
00001002  AA03                     syscall    NewPixMap
00001004  2B5F 9CA2                move.l     [A5 - 0x635E], [A7]+
00001008  3A06                     move.w     D5, D6
0000100A  CBC7                     muls.w     D5, D7
0000100C  93C9                     sub.l      A1, A1
0000100E  A11D                     syscall    MaxMem, flags=1
00001010  2288                     move.l     [A1], A0
00001012  2005                     move.l     D0, D5
00001014  A11E                     syscall    NewPtr, flags=1
00001016  2848                     movea.l    A4, A0
00001018  200C                     move.l     D0, A4
0000101A  6604                     bne        +0x6 /* 00001020 */
0000101C  4EBA 0DDE                jsr        [PC + 0xDDE /* 00001DFC */]
label00001020:
00001020  206D 9CA2                movea.l    A0, [A5 - 0x635E]
00001024  2050                     movea.l    A0, [A0]
00001026  317C 0280 0004           move.w     [A0 + 0x4], 0x280
0000102C  206D 9CA2                movea.l    A0, [A5 - 0x635E]
00001030  2050                     movea.l    A0, [A0]
00001032  0068 8000 0004           ori.w      [A0 + 0x4], 0x8000
00001038  206D 9CA2                movea.l    A0, [A5 - 0x635E]
0000103C  2050                     movea.l    A0, [A0]
0000103E  4868 0006                pea.l      [A0 + 0x6]
00001042  42A7                     clr.l      -[A7]
00001044  2F3C 0190 0280           move.l     -[A7], 0x1900280
0000104A  A8A7                     syscall    SetRect
0000104C  206D 9CA2                movea.l    A0, [A5 - 0x635E]
00001050  2050                     movea.l    A0, [A0]
00001052  208C                     move.l     [A0], A4
00001054  206D 9CA2                movea.l    A0, [A5 - 0x635E]
00001058  2050                     movea.l    A0, [A0]
0000105A  4268 0010                clr.w      [A0 + 0x10]
0000105E  206D 9CA2                movea.l    A0, [A5 - 0x635E]
00001062  2050                     movea.l    A0, [A0]
00001064  42A8 0012                clr.l      [A0 + 0x12]
00001068  206D 9CA2                movea.l    A0, [A5 - 0x635E]
0000106C  2050                     movea.l    A0, [A0]
0000106E  7048                     moveq.l    D0, 0x48
00001070  2140 0016                move.l     [A0 + 0x16], D0
00001074  206D 9CA2                movea.l    A0, [A5 - 0x635E]
00001078  2050                     movea.l    A0, [A0]
0000107A  7048                     moveq.l    D0, 0x48
0000107C  2140 001A                move.l     [A0 + 0x1A], D0
00001080  206D 9CA2                movea.l    A0, [A5 - 0x635E]
00001084  2050                     movea.l    A0, [A0]
00001086  4268 001E                clr.w      [A0 + 0x1E]
0000108A  206D 9CA2                movea.l    A0, [A5 - 0x635E]
0000108E  2050                     movea.l    A0, [A0]
00001090  317C 0008 0020           move.w     [A0 + 0x20], 0x8
00001096  206D 9CA2                movea.l    A0, [A5 - 0x635E]
0000109A  2050                     movea.l    A0, [A0]
0000109C  317C 0001 0022           move.w     [A0 + 0x22], 0x1
000010A2  206D 9CA2                movea.l    A0, [A5 - 0x635E]
000010A6  2050                     movea.l    A0, [A0]
000010A8  317C 0008 0024           move.w     [A0 + 0x24], 0x8
000010AE  206D 9CA2                movea.l    A0, [A5 - 0x635E]
000010B2  2050                     movea.l    A0, [A0]
000010B4  42A8 0026                clr.l      [A0 + 0x26]
000010B8  206D 9CA2                movea.l    A0, [A5 - 0x635E]
000010BC  2050                     movea.l    A0, [A0]
000010BE  42A8 002E                clr.l      [A0 + 0x2E]
000010C2  2F2D 9CA2                move.l     -[A7], [A5 - 0x635E]
000010C6  203C 0004 000C           move.l     D0, 0x4000C
000010CC  AB1D                     syscall    QDExtensions
000010CE  4227                     clr.b      -[A7]
000010D0  2F2D 9CA2                move.l     -[A7], [A5 - 0x635E]
000010D4  203C 0004 0001           move.l     D0, 0x40001
000010DA  AB1D                     syscall    QDExtensions
000010DC  42A7                     clr.l      -[A7]
000010DE  2F2D 9CA2                move.l     -[A7], [A5 - 0x635E]
000010E2  203C 0004 000F           move.l     D0, 0x4000F
000010E8  AB1D                     syscall    QDExtensions
000010EA  201F                     move.l     D0, [A7]+
000010EC  2B40 9CAA                move.l     [A5 - 0x6356], D0
000010F0  2B40 9CA6                move.l     [A5 - 0x635A], D0
000010F4  4AAD 9CAA                tst.l      [A5 - 0x6356]
000010F8  548F                     addq.l     A7, 2
000010FA  6608                     bne        +0xA /* 00001104 */
000010FC  2F3C 0000 099B           move.l     -[A7], 0x99B
00001102  ABFF                     syscall    DebugStr
label00001104:
00001104  4EBA 000A                jsr        [PC + 0xA /* 00001110 */]
00001108  4CDF 10E0                movem.l    D5,D6,D7,A4, [A7]+
0000110C  4E5E                     unlink     A6
0000110E  4E75                     rts
fn00001110:
00001110  2F07                     move.l     -[A7], D7
00001112  3E3C 0190                move.w     D7, 0x190
00001116  5047                     addq.w     D7, 8
00001118  303C 0280                move.w     D0, 0x280
0000111C  C1C7                     muls.w     D0, D7
0000111E  2F00                     move.l     -[A7], D0
00001120  3F3C 00FF                move.w     -[A7], 0xFF
00001124  2F2D 9CAA                move.l     -[A7], [A5 - 0x6356]
00001128  4EAD 0CAA                jsr        [A5 + 0xCAA /* export_401, CODE:7 @ 00003152 */]
0000112C  4FEF 000A                lea.l      A7, [A7 + 0xA]
00001130  2E1F                     move.l     D7, [A7]+
00001132  4E75                     rts
fn00001134:
00001134  4EBA 1000                jsr        [PC + 0x1000 /* 00002136 */]
00001138  4EBA 0EC6                jsr        [PC + 0xEC6 /* 00002000 */]
0000113C  4E75                     rts
fn0000113E:
0000113E  4E75                     rts
fn00001140:
00001140  4E75                     rts
00001142  4E56 0000                link       A6, 0
00001146  4E5E                     unlink     A6
00001148  4E75                     rts
export_265:
0000114A  4E56 0000                link       A6, 0
0000114E  4E5E                     unlink     A6
00001150  4E75                     rts
fn00001152:
00001152  4E56 FFEC                link       A6, -0x0014
00001156  48E7 0300                movem.l    -[A7], D6,D7
0000115A  3E3C 0140                move.w     D7, 0x140
0000115E  102D 9C86                move.b     D0, [A5 - 0x637A]
00001162  E067                     asr        D7.w, D0
00001164  0647 0140                addi.w     D7, 0x140
00001168  3C3C 00C8                move.w     D6, 0xC8
0000116C  102D 9C86                move.b     D0, [A5 - 0x637A]
00001170  E066                     asr        D6.w, D0
00001172  0646 00C8                addi.w     D6, 0xC8
00001176  302D 9C76                move.w     D0, [A5 - 0x638A]
0000117A  D06D 9C7A                add.w      D0, [A5 - 0x6386]
0000117E  9047                     sub.w      D0, D7
00001180  E240                     asr        D0.w, 1
00001182  3D40 FFFA                move.w     [A6 - 0x6], D0
00001186  302D 9C74                move.w     D0, [A5 - 0x638C]
0000118A  D06D 9C78                add.w      D0, [A5 - 0x6388]
0000118E  9046                     sub.w      D0, D6
00001190  E240                     asr        D0.w, 1
00001192  3D40 FFF8                move.w     [A6 - 0x8], D0
00001196  302E FFFA                move.w     D0, [A6 - 0x6]
0000119A  D047                     add.w      D0, D7
0000119C  3D40 FFFE                move.w     [A6 - 0x2], D0
000011A0  302E FFF8                move.w     D0, [A6 - 0x8]
000011A4  D046                     add.w      D0, D6
000011A6  3D40 FFFC                move.w     [A6 - 0x4], D0
000011AA  2D6E FFF8 FFF0           move.l     [A6 - 0x10], [A6 - 0x8]
000011B0  2D6E FFFC FFF4           move.l     [A6 - 0xC], [A6 - 0x4]
000011B6  486E FFF0                pea.l      [A6 - 0x10]
000011BA  302E FFF2                move.w     D0, [A6 - 0xE]
000011BE  4440                     neg.w      D0
000011C0  3F00                     move.w     -[A7], D0
000011C2  302E FFF0                move.w     D0, [A6 - 0x10]
000011C6  4440                     neg.w      D0
000011C8  3F00                     move.w     -[A7], D0
000011CA  A8A8                     syscall    OffsetRect
000011CC  4A2D 9C87                tst.b      [A5 - 0x6379]
000011D0  6736                     beq        +0x38 /* 00001208 */
000011D2  2B6E FFF8 9C8A           move.l     [A5 - 0x6376], [A6 - 0x8]
000011D8  2B6E FFFC 9C8E           move.l     [A5 - 0x6372], [A6 - 0x4]
000011DE  2B6E FFF0 9C92           move.l     [A5 - 0x636E], [A6 - 0x10]
000011E4  2B6E FFF4 9C96           move.l     [A5 - 0x636A], [A6 - 0xC]
000011EA  2D6D 9C74 FFF8           move.l     [A6 - 0x8], [A5 - 0x638C]
000011F0  2D6D 9C78 FFFC           move.l     [A6 - 0x4], [A5 - 0x6388]
000011F6  3E2E FFFE                move.w     D7, [A6 - 0x2]
000011FA  9E6E FFFA                sub.w      D7, [A6 - 0x6]
000011FE  3C2E FFFC                move.w     D6, [A6 - 0x4]
00001202  9C6E FFF8                sub.w      D6, [A6 - 0x8]
00001206  6018                     bra        +0x1A /* 00001220 */
label00001208:
00001208  2B6E FFF0 9C8A           move.l     [A5 - 0x6376], [A6 - 0x10]
0000120E  2B6E FFF4 9C8E           move.l     [A5 - 0x6372], [A6 - 0xC]
00001214  2B6E FFF0 9C92           move.l     [A5 - 0x636E], [A6 - 0x10]
0000121A  2B6E FFF4 9C96           move.l     [A5 - 0x636A], [A6 - 0xC]
label00001220:
00001220  42A7                     clr.l      -[A7]
00001222  486D 9CB2                pea.l      [A5 - 0x634E]
00001226  486E FFF8                pea.l      [A6 - 0x8]
0000122A  2F3C 0000 09AF           move.l     -[A7], 0x9AF
00001230  2F3C 000C 0100           move.l     -[A7], 0xC0100
00001236  4878 FFFF                push.l     0xFFFF
0000123A  1F3C 0001                move.b     -[A7], 0x1
0000123E  42A7                     clr.l      -[A7]
00001240  AA45                     syscall    NewCWindow
00001242  2B5F 9CAE                move.l     [A5 - 0x6352], [A7]+
00001246  4A2D 9C87                tst.b      [A5 - 0x6379]
0000124A  672E                     beq        +0x30 /* 0000127A */
0000124C  4A2D 9C4B                tst.b      [A5 - 0x63B5]
00001250  6628                     bne        +0x2A /* 0000127A */
00001252  4A2D 9D20                tst.b      [A5 - 0x62E0]
00001256  6722                     beq        +0x24 /* 0000127A */
00001258  4A2D 9C49                tst.b      [A5 - 0x63B7]
0000125C  661C                     bne        +0x1E /* 0000127A */
0000125E  4A2D 9C88                tst.b      [A5 - 0x6378]
00001262  6716                     beq        +0x18 /* 0000127A */
00001264  206D 9CAE                movea.l    A0, [A5 - 0x6352]
00001268  2F28 0018                move.l     -[A7], [A0 + 0x18]
0000126C  4868 0010                pea.l      [A0 + 0x10]
00001270  A8DF                     syscall    RectRgn
00001272  4EBA 03CC                jsr        [PC + 0x3CC /* 00001640 */]
00001276  4EBA 0840                jsr        [PC + 0x840 /* 00001AB8 */]
label0000127A:
0000127A  4CDF 00C0                movem.l    D6,D7, [A7]+
0000127E  4E5E                     unlink     A6
00001280  4E75                     rts
fn00001282:
00001282  48E7 0300                movem.l    -[A7], D6,D7
00001286  3E2D 9C7A                move.w     D7, [A5 - 0x6386]
0000128A  9E6D 9C76                sub.w      D7, [A5 - 0x638A]
0000128E  3C2D 9C78                move.w     D6, [A5 - 0x6388]
00001292  9C6D 9C74                sub.w      D6, [A5 - 0x638C]
00001296  0C47 0280                cmpi.w     D7, 0x280
0000129A  6D06                     blt        +0x8 /* 000012A2 */
0000129C  0C46 0190                cmpi.w     D6, 0x190
000012A0  6C3A                     bge        +0x3C /* 000012DC */
label000012A2:
000012A2  0C2D 0020 9C86           cmpi.b     [A5 - 0x637A], 0x20 /* ' ' */
000012A8  660C                     bne        +0xE /* 000012B6 */
000012AA  3F3C 0001                move.w     -[A7], 0x1
000012AE  4EBA 0066                jsr        [PC + 0x66 /* 00001316 */]
000012B2  548F                     addq.l     A7, 2
000012B4  605A                     bra        +0x5C /* 00001310 */
label000012B6:
000012B6  0C2D 0001 9C86           cmpi.b     [A5 - 0x637A], 0x1
000012BC  660C                     bne        +0xE /* 000012CA */
000012BE  3F3C 0020                move.w     -[A7], 0x20 /* ' ' */
000012C2  4EBA 0052                jsr        [PC + 0x52 /* 00001316 */]
000012C6  548F                     addq.l     A7, 2
000012C8  6046                     bra        +0x48 /* 00001310 */
label000012CA:
000012CA  4A2D 9C86                tst.b      [A5 - 0x637A]
000012CE  6640                     bne        +0x42 /* 00001310 */
000012D0  3F3C 0020                move.w     -[A7], 0x20 /* ' ' */
000012D4  4EBA 0040                jsr        [PC + 0x40 /* 00001316 */]
000012D8  548F                     addq.l     A7, 2
000012DA  6034                     bra        +0x36 /* 00001310 */
label000012DC:
000012DC  0C2D 0020 9C86           cmpi.b     [A5 - 0x637A], 0x20 /* ' ' */
000012E2  660A                     bne        +0xC /* 000012EE */
000012E4  4267                     clr.w      -[A7]
000012E6  4EBA 002E                jsr        [PC + 0x2E /* 00001316 */]
000012EA  548F                     addq.l     A7, 2
000012EC  6022                     bra        +0x24 /* 00001310 */
label000012EE:
000012EE  0C2D 0001 9C86           cmpi.b     [A5 - 0x637A], 0x1
000012F4  660A                     bne        +0xC /* 00001300 */
000012F6  4267                     clr.w      -[A7]
000012F8  4EBA 001C                jsr        [PC + 0x1C /* 00001316 */]
000012FC  548F                     addq.l     A7, 2
000012FE  6010                     bra        +0x12 /* 00001310 */
label00001300:
00001300  4A2D 9C86                tst.b      [A5 - 0x637A]
00001304  660A                     bne        +0xC /* 00001310 */
00001306  3F3C 0020                move.w     -[A7], 0x20 /* ' ' */
0000130A  4EBA 000A                jsr        [PC + 0xA /* 00001316 */]
0000130E  548F                     addq.l     A7, 2
label00001310:
00001310  4CDF 00C0                movem.l    D6,D7, [A7]+
00001314  4E75                     rts
fn00001316:
00001316  4E56 FFE8                link       A6, -0x0018
0000131A  48E7 0308                movem.l    -[A7], D6,D7,A4
0000131E  4EBA 0762                jsr        [PC + 0x762 /* 00001A82 */]
00001322  1B6E 0009 9C86           move.b     [A5 - 0x637A], [A6 + 0x9]
00001328  3E3C 0140                move.w     D7, 0x140
0000132C  102D 9C86                move.b     D0, [A5 - 0x637A]
00001330  E067                     asr        D7.w, D0
00001332  0647 0140                addi.w     D7, 0x140
00001336  3C3C 00C8                move.w     D6, 0xC8
0000133A  102D 9C86                move.b     D0, [A5 - 0x637A]
0000133E  E066                     asr        D6.w, D0
00001340  0646 00C8                addi.w     D6, 0xC8
00001344  302D 9C76                move.w     D0, [A5 - 0x638A]
00001348  D06D 9C7A                add.w      D0, [A5 - 0x6386]
0000134C  9047                     sub.w      D0, D7
0000134E  E240                     asr        D0.w, 1
00001350  3D40 FFFA                move.w     [A6 - 0x6], D0
00001354  302D 9C74                move.w     D0, [A5 - 0x638C]
00001358  D06D 9C78                add.w      D0, [A5 - 0x6388]
0000135C  9046                     sub.w      D0, D6
0000135E  E240                     asr        D0.w, 1
00001360  3D40 FFF8                move.w     [A6 - 0x8], D0
00001364  302E FFFA                move.w     D0, [A6 - 0x6]
00001368  D047                     add.w      D0, D7
0000136A  3D40 FFFE                move.w     [A6 - 0x2], D0
0000136E  302E FFF8                move.w     D0, [A6 - 0x8]
00001372  D046                     add.w      D0, D6
00001374  3D40 FFFC                move.w     [A6 - 0x4], D0
00001378  2D6E FFF8 FFF0           move.l     [A6 - 0x10], [A6 - 0x8]
0000137E  2D6E FFFC FFF4           move.l     [A6 - 0xC], [A6 - 0x4]
00001384  486E FFF0                pea.l      [A6 - 0x10]
00001388  302E FFF2                move.w     D0, [A6 - 0xE]
0000138C  4440                     neg.w      D0
0000138E  3F00                     move.w     -[A7], D0
00001390  302E FFF0                move.w     D0, [A6 - 0x10]
00001394  4440                     neg.w      D0
00001396  3F00                     move.w     -[A7], D0
00001398  A8A8                     syscall    OffsetRect
0000139A  4A2D 9C87                tst.b      [A5 - 0x6379]
0000139E  6736                     beq        +0x38 /* 000013D6 */
000013A0  2B6E FFF8 9C8A           move.l     [A5 - 0x6376], [A6 - 0x8]
000013A6  2B6E FFFC 9C8E           move.l     [A5 - 0x6372], [A6 - 0x4]
000013AC  2B6E FFF0 9C92           move.l     [A5 - 0x636E], [A6 - 0x10]
000013B2  2B6E FFF4 9C96           move.l     [A5 - 0x636A], [A6 - 0xC]
000013B8  2D6D 9C74 FFF8           move.l     [A6 - 0x8], [A5 - 0x638C]
000013BE  2D6D 9C78 FFFC           move.l     [A6 - 0x4], [A5 - 0x6388]
000013C4  3E2E FFFE                move.w     D7, [A6 - 0x2]
000013C8  9E6E FFFA                sub.w      D7, [A6 - 0x6]
000013CC  3C2E FFFC                move.w     D6, [A6 - 0x4]
000013D0  9C6E FFF8                sub.w      D6, [A6 - 0x8]
000013D4  6018                     bra        +0x1A /* 000013EE */
label000013D6:
000013D6  2B6E FFF0 9C8A           move.l     [A5 - 0x6376], [A6 - 0x10]
000013DC  2B6E FFF4 9C8E           move.l     [A5 - 0x6372], [A6 - 0xC]
000013E2  2B6E FFF0 9C92           move.l     [A5 - 0x636E], [A6 - 0x10]
000013E8  2B6E FFF4 9C96           move.l     [A5 - 0x636A], [A6 - 0xC]
label000013EE:
000013EE  206D 9CAE                movea.l    A0, [A5 - 0x6352]
000013F2  2D68 0010 FFE8           move.l     [A6 - 0x18], [A0 + 0x10]
000013F8  2D68 0014 FFEC           move.l     [A6 - 0x14], [A0 + 0x14]
000013FE  302E FFF8                move.w     D0, [A6 - 0x8]
00001402  B06E FFE8                cmp.w      D0, [A6 - 0x18]
00001406  661E                     bne        +0x20 /* 00001426 */
00001408  302E FFFA                move.w     D0, [A6 - 0x6]
0000140C  B06E FFEA                cmp.w      D0, [A6 - 0x16]
00001410  6614                     bne        +0x16 /* 00001426 */
00001412  302E FFFC                move.w     D0, [A6 - 0x4]
00001416  B06E FFEC                cmp.w      D0, [A6 - 0x14]
0000141A  660A                     bne        +0xC /* 00001426 */
0000141C  302E FFFE                move.w     D0, [A6 - 0x2]
00001420  B06E FFEE                cmp.w      D0, [A6 - 0x12]
00001424  672C                     beq        +0x2E /* 00001452 */
label00001426:
00001426  2F2D 9CAE                move.l     -[A7], [A5 - 0x6352]
0000142A  A916                     syscall    HideWindow
0000142C  2F2D 9CAE                move.l     -[A7], [A5 - 0x6352]
00001430  3F2E FFFA                move.w     -[A7], [A6 - 0x6]
00001434  3F2E FFF8                move.w     -[A7], [A6 - 0x8]
00001438  1F3C 0001                move.b     -[A7], 0x1
0000143C  A91B                     syscall    MoveWindow
0000143E  2F2D 9CAE                move.l     -[A7], [A5 - 0x6352]
00001442  3F07                     move.w     -[A7], D7
00001444  3F06                     move.w     -[A7], D6
00001446  1F3C 0001                move.b     -[A7], 0x1
0000144A  A91D                     syscall    SizeWindow
0000144C  2F2D 9CAE                move.l     -[A7], [A5 - 0x6352]
00001450  A915                     syscall    ShowWindow
label00001452:
00001452  4EBA 062E                jsr        [PC + 0x62E /* 00001A82 */]
00001456  2F0C                     move.l     -[A7], A4
00001458  A873                     syscall    SetPort
0000145A  4EBA 01E4                jsr        [PC + 0x1E4 /* 00001640 */]
0000145E  3F2D F290                move.w     -[A7], [A5 - 0xD70]
00001462  42A7                     clr.l      -[A7]
00001464  4EAD 063A                jsr        [A5 + 0x63A /* export_195, CODE:3 @ 000032E2 */]
00001468  3EAD F350                move.w     [A7], [A5 - 0xCB0]
0000146C  2F3C 0002 0000           move.l     -[A7], 0x20000
00001472  4EAD 063A                jsr        [A5 + 0x63A /* export_195, CODE:3 @ 000032E2 */]
00001476  4EAD 0462                jsr        [A5 + 0x462 /* export_136, CODE:2 @ 00004A10 */]
0000147A  A937                     syscall    DrawMenuBar
0000147C  4A2D 9C87                tst.b      [A5 - 0x6379]
00001480  4FEF 000A                lea.l      A7, [A7 + 0xA]
00001484  672E                     beq        +0x30 /* 000014B4 */
00001486  4A2D 9C4B                tst.b      [A5 - 0x63B5]
0000148A  6628                     bne        +0x2A /* 000014B4 */
0000148C  4A2D 9D20                tst.b      [A5 - 0x62E0]
00001490  6722                     beq        +0x24 /* 000014B4 */
00001492  4A2D 9C49                tst.b      [A5 - 0x63B7]
00001496  661C                     bne        +0x1E /* 000014B4 */
00001498  4A2D 9C88                tst.b      [A5 - 0x6378]
0000149C  6716                     beq        +0x18 /* 000014B4 */
0000149E  206D 9CAE                movea.l    A0, [A5 - 0x6352]
000014A2  2F28 0018                move.l     -[A7], [A0 + 0x18]
000014A6  4868 0010                pea.l      [A0 + 0x10]
000014AA  A8DF                     syscall    RectRgn
000014AC  4EBA 0192                jsr        [PC + 0x192 /* 00001640 */]
000014B0  4EBA 0606                jsr        [PC + 0x606 /* 00001AB8 */]
label000014B4:
000014B4  4CDF 10C0                movem.l    D6,D7,A4, [A7]+
000014B8  4E5E                     unlink     A6
000014BA  4E75                     rts
fn000014BC:
000014BC  4E56 0000                link       A6, 0
000014C0  4A6E 0008                tst.w      [A6 + 0x8]
000014C4  6734                     beq        +0x36 /* 000014FA */
000014C6  2F2D 9D60                move.l     -[A7], [A5 - 0x62A0]
000014CA  3F3C 0001                move.w     -[A7], 0x1
000014CE  A939                     syscall    EnableItem
000014D0  2F2D 9D60                move.l     -[A7], [A5 - 0x62A0]
000014D4  3F3C 0003                move.w     -[A7], 0x3
000014D8  A939                     syscall    EnableItem
000014DA  2F2D 9D60                move.l     -[A7], [A5 - 0x62A0]
000014DE  3F3C 0004                move.w     -[A7], 0x4
000014E2  A939                     syscall    EnableItem
000014E4  2F2D 9D60                move.l     -[A7], [A5 - 0x62A0]
000014E8  3F3C 0005                move.w     -[A7], 0x5
000014EC  A939                     syscall    EnableItem
000014EE  2F2D 9D60                move.l     -[A7], [A5 - 0x62A0]
000014F2  3F3C 0006                move.w     -[A7], 0x6
000014F6  A939                     syscall    EnableItem
000014F8  6032                     bra        +0x34 /* 0000152C */
label000014FA:
000014FA  2F2D 9D60                move.l     -[A7], [A5 - 0x62A0]
000014FE  3F3C 0001                move.w     -[A7], 0x1
00001502  A93A                     syscall    DisableItem
00001504  2F2D 9D60                move.l     -[A7], [A5 - 0x62A0]
00001508  3F3C 0003                move.w     -[A7], 0x3
0000150C  A93A                     syscall    DisableItem
0000150E  2F2D 9D60                move.l     -[A7], [A5 - 0x62A0]
00001512  3F3C 0004                move.w     -[A7], 0x4
00001516  A93A                     syscall    DisableItem
00001518  2F2D 9D60                move.l     -[A7], [A5 - 0x62A0]
0000151C  3F3C 0005                move.w     -[A7], 0x5
00001520  A93A                     syscall    DisableItem
00001522  2F2D 9D60                move.l     -[A7], [A5 - 0x62A0]
00001526  3F3C 0006                move.w     -[A7], 0x6
0000152A  A93A                     syscall    DisableItem
label0000152C:
0000152C  4E5E                     unlink     A6
0000152E  4E75                     rts
fn00001530:
00001530  2F2D 9D5C                move.l     -[A7], [A5 - 0x62A4]
00001534  3F3C 0001                move.w     -[A7], 0x1
00001538  A93A                     syscall    DisableItem
0000153A  2F2D 9D5C                move.l     -[A7], [A5 - 0x62A4]
0000153E  3F3C 0002                move.w     -[A7], 0x2
00001542  A93A                     syscall    DisableItem
00001544  302D C990                move.w     D0, [A5 - 0x3670]
00001548  EA40                     asr        D0.w, 5
0000154A  0240 000F                andi.w     D0, 0xF
0000154E  0640 FFF7                addi.w     D0, 0xFFF7
00001552  6614                     bne        +0x16 /* 00001568 */
00001554  2F2D 9D5C                move.l     -[A7], [A5 - 0x62A4]
00001558  3F3C 0001                move.w     -[A7], 0x1
0000155C  A939                     syscall    EnableItem
0000155E  2F2D 9D5C                move.l     -[A7], [A5 - 0x62A4]
00001562  3F3C 0002                move.w     -[A7], 0x2
00001566  A939                     syscall    EnableItem
label00001568:
00001568  4E75                     rts
fn0000156A:
0000156A  4E56 FFF0                link       A6, -0x0010
0000156E  2F07                     move.l     -[A7], D7
00001570  4A2D 9C4B                tst.b      [A5 - 0x63B5]
00001574  660C                     bne        +0xE /* 00001582 */
00001576  42A7                     clr.l      -[A7]
00001578  A924                     syscall    FrontWindow
0000157A  201F                     move.l     D0, [A7]+
0000157C  B0AD 9CAE                cmp.l      D0, [A5 - 0x6352]
00001580  6704                     beq        +0x6 /* 00001586 */
label00001582:
00001582  7E01                     moveq.l    D7, 0x01
00001584  601E                     bra        +0x20 /* 000015A4 */
label00001586:
00001586  4A6E 0008                tst.w      [A6 + 0x8]
0000158A  6D06                     blt        +0x8 /* 00001592 */
0000158C  1E2E 0009                move.b     D7, [A6 + 0x9]
00001590  6012                     bra        +0x14 /* 000015A4 */
label00001592:
00001592  486E FFF0                pea.l      [A6 - 0x10]
00001596  A976                     syscall    GetKeys
00001598  4A2E FFF6                tst.b      [A6 - 0xA]
0000159C  6A04                     bpl        +0x6 /* 000015A2 */
0000159E  7E01                     moveq.l    D7, 0x01
000015A0  6002                     bra        +0x4 /* 000015A4 */
label000015A2:
000015A2  7E00                     moveq.l    D7, 0x00
label000015A4:
000015A4  4A2D 9C49                tst.b      [A5 - 0x63B7]
000015A8  674A                     beq        +0x4C /* 000015F4 */
000015AA  4A07                     tst.b      D7
000015AC  666E                     bne        +0x70 /* 0000161C */
000015AE  4EBA 2BCA                jsr        [PC + 0x2BCA /* 0000417A */]
000015B2  422D 9C49                clr.b      [A5 - 0x63B7]
000015B6  4EBA 006A                jsr        [PC + 0x6A /* 00001622 */]
000015BA  4A2D 9C87                tst.b      [A5 - 0x6379]
000015BE  672E                     beq        +0x30 /* 000015EE */
000015C0  4A2D 9C4B                tst.b      [A5 - 0x63B5]
000015C4  6628                     bne        +0x2A /* 000015EE */
000015C6  4A2D 9D20                tst.b      [A5 - 0x62E0]
000015CA  6722                     beq        +0x24 /* 000015EE */
000015CC  4A2D 9C49                tst.b      [A5 - 0x63B7]
000015D0  661C                     bne        +0x1E /* 000015EE */
000015D2  4A2D 9C88                tst.b      [A5 - 0x6378]
000015D6  6716                     beq        +0x18 /* 000015EE */
000015D8  206D 9CAE                movea.l    A0, [A5 - 0x6352]
000015DC  2F28 0018                move.l     -[A7], [A0 + 0x18]
000015E0  4868 0010                pea.l      [A0 + 0x10]
000015E4  A8DF                     syscall    RectRgn
000015E6  4EBA 0058                jsr        [PC + 0x58 /* 00001640 */]
000015EA  4EBA 04CC                jsr        [PC + 0x4CC /* 00001AB8 */]
label000015EE:
000015EE  4EBA 04C8                jsr        [PC + 0x4C8 /* 00001AB8 */]
000015F2  6028                     bra        +0x2A /* 0000161C */
label000015F4:
000015F4  4A07                     tst.b      D7
000015F6  6724                     beq        +0x26 /* 0000161C */
000015F8  4EBA 2B48                jsr        [PC + 0x2B48 /* 00004142 */]
000015FC  2F2D 9CAE                move.l     -[A7], [A5 - 0x6352]
00001600  A909                     syscall    CalcVis
00001602  4EBA FF2C                jsr        [PC - 0xD4 /* 00001530 */]
00001606  1B7C 0001 9C49           move.b     [A5 - 0x63B7], 0x1
0000160C  A850                     syscall    InitCursor
0000160E  A937                     syscall    DrawMenuBar
00001610  6004                     bra        +0x6 /* 00001616 */
label00001612:
00001612  4EBA EDAA                jsr        [PC - 0x1256 /* 000003BE */]
label00001616:
00001616  4A2D 9C49                tst.b      [A5 - 0x63B7]
0000161A  66F6                     bne        -0x8 /* 00001612 */
label0000161C:
0000161C  2E1F                     move.l     D7, [A7]+
0000161E  4E5E                     unlink     A6
00001620  4E75                     rts
fn00001622:
00001622  4E75                     rts
export_266:
00001624  422D 9C46                clr.b      [A5 - 0x63BA]
00001628  4E75                     rts
export_267:
0000162A  2F07                     move.l     -[A7], D7
0000162C  1E2D 9C46                move.b     D7, [A5 - 0x63BA]
00001630  49C7                     lea.l      A4, D7
00001632  422D 9C46                clr.b      [A5 - 0x63BA]
00001636  3007                     move.w     D0, D7
00001638  2E1F                     move.l     D7, [A7]+
0000163A  4E75                     rts
export_268:
0000163C  4E75                     rts
export_269:
0000163E  4E75                     rts
export_262:
fn00001640:
00001640  2B6D 9C92 9D50           move.l     [A5 - 0x62B0], [A5 - 0x636E]
00001646  2B6D 9C96 9D54           move.l     [A5 - 0x62AC], [A5 - 0x636A]
0000164C  4E75                     rts
export_264:
fn0000164E:
0000164E  4E56 FFE6                link       A6, -0x001A
00001652  48E7 0300                movem.l    -[A7], D6,D7
00001656  3E2D F290                move.w     D7, [A5 - 0xD70]
0000165A  DE6D F28C                add.w      D7, [A5 - 0xD74]
0000165E  3007                     move.w     D0, D7
00001660  122D 9C86                move.b     D1, [A5 - 0x637A]
00001664  E268                     lsr        D0.w, D1
00001666  D047                     add.w      D0, D7
00001668  3C00                     move.w     D6, D0
0000166A  BC6D 9D54                cmp.w      D6, [A5 - 0x62AC]
0000166E  6D24                     blt        +0x26 /* 00001694 */
00001670  3E2D ECA2                move.w     D7, [A5 - 0x135E]
00001674  E74F                     lsl        D7.w, 3
00001676  3007                     move.w     D0, D7
00001678  122D 9C86                move.b     D1, [A5 - 0x637A]
0000167C  E260                     asr        D0.w, D1
0000167E  D047                     add.w      D0, D7
00001680  48C0                     ext.l      D0
00001682  D0AD 9CAA                add.l      D0, [A5 - 0x6356]
00001686  2B40 9CA6                move.l     [A5 - 0x635A], D0
0000168A  206D 9CA2                movea.l    A0, [A5 - 0x635E]
0000168E  2050                     movea.l    A0, [A0]
00001690  2080                     move.l     [A0], D0
00001692  6044                     bra        +0x46 /* 000016D8 */
label00001694:
00001694  BC6D 9D50                cmp.w      D6, [A5 - 0x62B0]
00001698  6E16                     bgt        +0x18 /* 000016B0 */
0000169A  206D 9CAA                movea.l    A0, [A5 - 0x6356]
0000169E  41E8 1400                lea.l      A0, [A0 + 0x1400]
000016A2  2B48 9CA6                move.l     [A5 - 0x635A], A0
000016A6  226D 9CA2                movea.l    A1, [A5 - 0x635E]
000016AA  2251                     movea.l    A1, [A1]
000016AC  2288                     move.l     [A1], A0
000016AE  6028                     bra        +0x2A /* 000016D8 */
label000016B0:
000016B0  2D6D 9D50 FFF4           move.l     [A6 - 0xC], [A5 - 0x62B0]
000016B6  2D6D 9D54 FFF8           move.l     [A6 - 0x8], [A5 - 0x62AC]
000016BC  3B46 9D54                move.w     [A5 - 0x62AC], D6
000016C0  4EBA FF8C                jsr        [PC - 0x74 /* 0000164E */]
000016C4  2B6E FFF4 9D50           move.l     [A5 - 0x62B0], [A6 - 0xC]
000016CA  2B6E FFF8 9D54           move.l     [A5 - 0x62AC], [A6 - 0x8]
000016D0  3B46 9D50                move.w     [A5 - 0x62B0], D6
000016D4  4EBA FF78                jsr        [PC - 0x88 /* 0000164E */]
label000016D8:
000016D8  486E FFFC                pea.l      [A6 - 0x4]
000016DC  A874                     syscall    GetPort
000016DE  2F2D 9CAE                move.l     -[A7], [A5 - 0x6352]
000016E2  A873                     syscall    SetPort
000016E4  4EBA 0D54                jsr        [PC + 0xD54 /* 0000243A */]
000016E8  302D 9D52                move.w     D0, [A5 - 0x62AE]
000016EC  B06D 9D56                cmp.w      D0, [A5 - 0x62AA]
000016F0  6C00 00D2                bge        +0xD4 /* 000017C4 */
000016F4  506E FFFA                addq.w     [A6 - 0x6], 8
000016F8  4227                     clr.b      -[A7]
000016FA  486D 9D50                pea.l      [A5 - 0x62B0]
000016FE  486D 9C92                pea.l      [A5 - 0x636E]
00001702  486D 9D50                pea.l      [A5 - 0x62B0]
00001706  A8AA                     syscall    SectRect
00001708  2D6D 9D50 FFEC           move.l     [A6 - 0x14], [A5 - 0x62B0]
0000170E  2D6D 9D54 FFF0           move.l     [A6 - 0x10], [A5 - 0x62AC]
00001714  2D6E FFEC FFF4           move.l     [A6 - 0xC], [A6 - 0x14]
0000171A  2D6E FFF0 FFF8           move.l     [A6 - 0x8], [A6 - 0x10]
00001720  486E FFEC                pea.l      [A6 - 0x14]
00001724  3F2D 9C8C                move.w     -[A7], [A5 - 0x6374]
00001728  3F2D 9C8A                move.w     -[A7], [A5 - 0x6376]
0000172C  A8A8                     syscall    OffsetRect
0000172E  3E2D 9C9A                move.w     D7, [A5 - 0x6366]
00001732  4A47                     tst.w      D7
00001734  548F                     addq.l     A7, 2
00001736  6C18                     bge        +0x1A /* 00001750 */
00001738  3007                     move.w     D0, D7
0000173A  4440                     neg.w      D0
0000173C  122D 9C86                move.b     D1, [A5 - 0x637A]
00001740  E260                     asr        D0.w, D1
00001742  4447                     neg.w      D7
00001744  DE40                     add.w      D7, D0
00001746  DF6E FFF4                add.w      [A6 - 0xC], D7
0000174A  9F6E FFF0                sub.w      [A6 - 0x10], D7
0000174E  6016                     bra        +0x18 /* 00001766 */
label00001750:
00001750  4A47                     tst.w      D7
00001752  6F12                     ble        +0x14 /* 00001766 */
00001754  3007                     move.w     D0, D7
00001756  122D 9C86                move.b     D1, [A5 - 0x637A]
0000175A  E260                     asr        D0.w, D1
0000175C  DE40                     add.w      D7, D0
0000175E  DF6E FFEC                add.w      [A6 - 0x14], D7
00001762  9F6E FFF8                sub.w      [A6 - 0x8], D7
label00001766:
00001766  4A2D 9C52                tst.b      [A5 - 0x63AE]
0000176A  6704                     beq        +0x6 /* 00001770 */
0000176C  4EBA 09FC                jsr        [PC + 0x9FC /* 0000216A */]
label00001770:
00001770  206D 9CA2                movea.l    A0, [A5 - 0x635E]
00001774  2F10                     move.l     -[A7], [A0]
00001776  226D 9CAE                movea.l    A1, [A5 - 0x6352]
0000177A  2269 0002                movea.l    A1, [A1 + 0x2]
0000177E  2F11                     move.l     -[A7], [A1]
00001780  486E FFF4                pea.l      [A6 - 0xC]
00001784  486E FFEC                pea.l      [A6 - 0x14]
00001788  4267                     clr.w      -[A7]
0000178A  42A7                     clr.l      -[A7]
0000178C  A8EC                     syscall    CopyBits
0000178E  4A2D 9C52                tst.b      [A5 - 0x63AE]
00001792  6708                     beq        +0xA /* 0000179C */
00001794  4EBA 0BE2                jsr        [PC + 0xBE2 /* 00002378 */]
00001798  422D 9C52                clr.b      [A5 - 0x63AE]
label0000179C:
0000179C  4267                     clr.w      -[A7]
0000179E  AA40                     syscall    QDError
000017A0  3E1F                     move.w     D7, [A7]+
000017A2  4A47                     tst.w      D7
000017A4  6710                     beq        +0x12 /* 000017B6 */
000017A6  2F3C 0000 09BD           move.l     -[A7], 0x9BD
000017AC  3047                     movea.w    A0, D7
000017AE  2F08                     move.l     -[A7], A0
000017B0  4EBA 083E                jsr        [PC + 0x83E /* 00001FF0 */]
000017B4  508F                     addq.l     A7, 8
label000017B6:
000017B6  3B7C FC18 9D56           move.w     [A5 - 0x62AA], 0xFC18
000017BC  3B7C 03E8 9D52           move.w     [A5 - 0x62AE], 0x3E8
000017C2  600A                     bra        +0xC /* 000017CE */
label000017C4:
000017C4  4A2D 9C44                tst.b      [A5 - 0x63BC]
000017C8  6704                     beq        +0x6 /* 000017CE */
000017CA  4EBA 097C                jsr        [PC + 0x97C /* 00002148 */]
label000017CE:
000017CE  422D 9C45                clr.b      [A5 - 0x63BB]
000017D2  422D 9C44                clr.b      [A5 - 0x63BC]
000017D6  2F2E FFFC                move.l     -[A7], [A6 - 0x4]
000017DA  A873                     syscall    SetPort
000017DC  4CDF 00C0                movem.l    D6,D7, [A7]+
000017E0  4E5E                     unlink     A6
000017E2  4E75                     rts
export_270:
000017E4  4E56 FFF8                link       A6, -0x0008
000017E8  2F07                     move.l     -[A7], D7
000017EA  302D F28C                move.w     D0, [A5 - 0xD74]
000017EE  D06D F290                add.w      D0, [A5 - 0xD70]
000017F2  B06D F412                cmp.w      D0, [A5 - 0xBEE]
000017F6  6324                     bls        +0x26 /* 0000181C */
000017F8  3E2D ECA2                move.w     D7, [A5 - 0x135E]
000017FC  E74F                     lsl        D7.w, 3
000017FE  3007                     move.w     D0, D7
00001800  122D 9C86                move.b     D1, [A5 - 0x637A]
00001804  E260                     asr        D0.w, D1
00001806  D047                     add.w      D0, D7
00001808  48C0                     ext.l      D0
0000180A  D0AD 9CAA                add.l      D0, [A5 - 0x6356]
0000180E  2B40 9CA6                move.l     [A5 - 0x635A], D0
00001812  206D 9CA2                movea.l    A0, [A5 - 0x635E]
00001816  2050                     movea.l    A0, [A0]
00001818  2080                     move.l     [A0], D0
0000181A  6014                     bra        +0x16 /* 00001830 */
label0000181C:
0000181C  206D 9CAA                movea.l    A0, [A5 - 0x6356]
00001820  41E8 1400                lea.l      A0, [A0 + 0x1400]
00001824  2B48 9CA6                move.l     [A5 - 0x635A], A0
00001828  226D 9CA2                movea.l    A1, [A5 - 0x635E]
0000182C  2251                     movea.l    A1, [A1]
0000182E  2288                     move.l     [A1], A0
label00001830:
00001830  4A2D 9C86                tst.b      [A5 - 0x637A]
00001834  6612                     bne        +0x14 /* 00001848 */
00001836  4A2D 9C50                tst.b      [A5 - 0x63B0]
0000183A  6706                     beq        +0x8 /* 00001842 */
0000183C  4EBA 1C26                jsr        [PC + 0x1C26 /* 00003464 */]
00001840  602C                     bra        +0x2E /* 0000186E */
label00001842:
00001842  4EBA 22CE                jsr        [PC + 0x22CE /* 00003B12 */]
00001846  6026                     bra        +0x28 /* 0000186E */
label00001848:
00001848  0C2D 0001 9C86           cmpi.b     [A5 - 0x637A], 0x1
0000184E  6612                     bne        +0x14 /* 00001862 */
00001850  4A2D 9C50                tst.b      [A5 - 0x63B0]
00001854  6706                     beq        +0x8 /* 0000185C */
00001856  4EBA 1E80                jsr        [PC + 0x1E80 /* 000036D8 */]
0000185A  6012                     bra        +0x14 /* 0000186E */
label0000185C:
0000185C  4EBA 21EA                jsr        [PC + 0x21EA /* 00003A48 */]
00001860  600C                     bra        +0xE /* 0000186E */
label00001862:
00001862  0C2D 0020 9C86           cmpi.b     [A5 - 0x637A], 0x20 /* ' ' */
00001868  6604                     bne        +0x6 /* 0000186E */
0000186A  4EBA 1B7C                jsr        [PC + 0x1B7C /* 000033E8 */]
label0000186E:
0000186E  3E2D F40C                move.w     D7, [A5 - 0xBF4]
00001872  E74F                     lsl        D7.w, 3
00001874  3007                     move.w     D0, D7
00001876  122D 9C86                move.b     D1, [A5 - 0x637A]
0000187A  E268                     lsr        D0.w, D1
0000187C  D047                     add.w      D0, D7
0000187E  3D40 FFFA                move.w     [A6 - 0x6], D0
00001882  3E2D F412                move.w     D7, [A5 - 0xBEE]
00001886  DE6D F40E                add.w      D7, [A5 - 0xBF2]
0000188A  3007                     move.w     D0, D7
0000188C  122D 9C86                move.b     D1, [A5 - 0x637A]
00001890  E268                     lsr        D0.w, D1
00001892  D047                     add.w      D0, D7
00001894  3D40 FFF8                move.w     [A6 - 0x8], D0
00001898  302D 9A34                move.w     D0, [A5 - 0x65CC]
0000189C  122D 9C86                move.b     D1, [A5 - 0x637A]
000018A0  E268                     lsr        D0.w, D1
000018A2  D06D 9A34                add.w      D0, [A5 - 0x65CC]
000018A6  D06E FFFA                add.w      D0, [A6 - 0x6]
000018AA  3D40 FFFE                move.w     [A6 - 0x2], D0
000018AE  3E2D F412                move.w     D7, [A5 - 0xBEE]
000018B2  DE6D F410                add.w      D7, [A5 - 0xBF0]
000018B6  3007                     move.w     D0, D7
000018B8  122D 9C86                move.b     D1, [A5 - 0x637A]
000018BC  E268                     lsr        D0.w, D1
000018BE  D047                     add.w      D0, D7
000018C0  3D40 FFFC                move.w     [A6 - 0x4], D0
000018C4  302D 9D52                move.w     D0, [A5 - 0x62AE]
000018C8  B06D 9D56                cmp.w      D0, [A5 - 0x62AA]
000018CC  6F0E                     ble        +0x10 /* 000018DC */
000018CE  2B6E FFF8 9D50           move.l     [A5 - 0x62B0], [A6 - 0x8]
000018D4  2B6E FFFC 9D54           move.l     [A5 - 0x62AC], [A6 - 0x4]
000018DA  6040                     bra        +0x42 /* 0000191C */
label000018DC:
000018DC  302D 9D52                move.w     D0, [A5 - 0x62AE]
000018E0  B06E FFFA                cmp.w      D0, [A6 - 0x6]
000018E4  6F06                     ble        +0x8 /* 000018EC */
000018E6  3B6E FFFA 9D52           move.w     [A5 - 0x62AE], [A6 - 0x6]
label000018EC:
000018EC  302D 9D56                move.w     D0, [A5 - 0x62AA]
000018F0  B06E FFFE                cmp.w      D0, [A6 - 0x2]
000018F4  6C06                     bge        +0x8 /* 000018FC */
000018F6  3B6E FFFE 9D56           move.w     [A5 - 0x62AA], [A6 - 0x2]
label000018FC:
000018FC  302D 9D50                move.w     D0, [A5 - 0x62B0]
00001900  B06E FFF8                cmp.w      D0, [A6 - 0x8]
00001904  6F06                     ble        +0x8 /* 0000190C */
00001906  3B6E FFF8 9D50           move.w     [A5 - 0x62B0], [A6 - 0x8]
label0000190C:
0000190C  302D 9D54                move.w     D0, [A5 - 0x62AC]
00001910  B06E FFFC                cmp.w      D0, [A6 - 0x4]
00001914  6C06                     bge        +0x8 /* 0000191C */
00001916  3B6E FFFC 9D54           move.w     [A5 - 0x62AC], [A6 - 0x4]
label0000191C:
0000191C  2E1F                     move.l     D7, [A7]+
0000191E  4E5E                     unlink     A6
00001920  4E75                     rts
export_271:
00001922  4E56 FFF8                link       A6, -0x0008
00001926  7000                     moveq.l    D0, 0x00
00001928  122D 9C86                move.b     D1, [A5 - 0x637A]
0000192C  E260                     asr        D0.w, D1
0000192E  3D40 FFFA                move.w     [A6 - 0x6], D0
00001932  302D F28C                move.w     D0, [A5 - 0xD74]
00001936  122D 9C86                move.b     D1, [A5 - 0x637A]
0000193A  E268                     lsr        D0.w, D1
0000193C  D06D F28C                add.w      D0, [A5 - 0xD74]
00001940  3D40 FFF8                move.w     [A6 - 0x8], D0
00001944  303C 0140                move.w     D0, 0x140
00001948  122D 9C86                move.b     D1, [A5 - 0x637A]
0000194C  E260                     asr        D0.w, D1
0000194E  D06E FFFA                add.w      D0, [A6 - 0x6]
00001952  0640 0140                addi.w     D0, 0x140
00001956  3D40 FFFE                move.w     [A6 - 0x2], D0
0000195A  302D F28C                move.w     D0, [A5 - 0xD74]
0000195E  D06D F290                add.w      D0, [A5 - 0xD70]
00001962  322D F28C                move.w     D1, [A5 - 0xD74]
00001966  D26D F290                add.w      D1, [A5 - 0xD70]
0000196A  142D 9C86                move.b     D2, [A5 - 0x637A]
0000196E  E469                     lsr        D1.w, D2
00001970  D041                     add.w      D0, D1
00001972  3D40 FFFC                move.w     [A6 - 0x4], D0
00001976  302D 9D52                move.w     D0, [A5 - 0x62AE]
0000197A  B06D 9D56                cmp.w      D0, [A5 - 0x62AA]
0000197E  6F0E                     ble        +0x10 /* 0000198E */
00001980  2B6E FFF8 9D50           move.l     [A5 - 0x62B0], [A6 - 0x8]
00001986  2B6E FFFC 9D54           move.l     [A5 - 0x62AC], [A6 - 0x4]
0000198C  6040                     bra        +0x42 /* 000019CE */
label0000198E:
0000198E  302D 9D52                move.w     D0, [A5 - 0x62AE]
00001992  B06E FFFA                cmp.w      D0, [A6 - 0x6]
00001996  6F06                     ble        +0x8 /* 0000199E */
00001998  3B6E FFFA 9D52           move.w     [A5 - 0x62AE], [A6 - 0x6]
label0000199E:
0000199E  302D 9D56                move.w     D0, [A5 - 0x62AA]
000019A2  B06E FFFE                cmp.w      D0, [A6 - 0x2]
000019A6  6C06                     bge        +0x8 /* 000019AE */
000019A8  3B6E FFFE 9D56           move.w     [A5 - 0x62AA], [A6 - 0x2]
label000019AE:
000019AE  302D 9D50                move.w     D0, [A5 - 0x62B0]
000019B2  B06E FFF8                cmp.w      D0, [A6 - 0x8]
000019B6  6F06                     ble        +0x8 /* 000019BE */
000019B8  3B6E FFF8 9D50           move.w     [A5 - 0x62B0], [A6 - 0x8]
label000019BE:
000019BE  302D 9D54                move.w     D0, [A5 - 0x62AC]
000019C2  B06E FFFC                cmp.w      D0, [A6 - 0x4]
000019C6  6C06                     bge        +0x8 /* 000019CE */
000019C8  3B6E FFFC 9D54           move.w     [A5 - 0x62AC], [A6 - 0x4]
label000019CE:
000019CE  4E5E                     unlink     A6
000019D0  4E75                     rts
export_272:
000019D2  4E56 FFF8                link       A6, -0x0008
000019D6  7000                     moveq.l    D0, 0x00
000019D8  122D 9C86                move.b     D1, [A5 - 0x637A]
000019DC  E260                     asr        D0.w, D1
000019DE  3D40 FFFA                move.w     [A6 - 0x6], D0
000019E2  302D F28C                move.w     D0, [A5 - 0xD74]
000019E6  122D 9C86                move.b     D1, [A5 - 0x637A]
000019EA  E268                     lsr        D0.w, D1
000019EC  D06D F28C                add.w      D0, [A5 - 0xD74]
000019F0  3D40 FFF8                move.w     [A6 - 0x8], D0
000019F4  303C 0140                move.w     D0, 0x140
000019F8  122D 9C86                move.b     D1, [A5 - 0x637A]
000019FC  E260                     asr        D0.w, D1
000019FE  D06E FFFA                add.w      D0, [A6 - 0x6]
00001A02  0640 0140                addi.w     D0, 0x140
00001A06  3D40 FFFE                move.w     [A6 - 0x2], D0
00001A0A  302D F28C                move.w     D0, [A5 - 0xD74]
00001A0E  D06D F290                add.w      D0, [A5 - 0xD70]
00001A12  322D F28C                move.w     D1, [A5 - 0xD74]
00001A16  D26D F290                add.w      D1, [A5 - 0xD70]
00001A1A  142D 9C86                move.b     D2, [A5 - 0x637A]
00001A1E  E469                     lsr        D1.w, D2
00001A20  D041                     add.w      D0, D1
00001A22  3D40 FFFC                move.w     [A6 - 0x4], D0
00001A26  302D 9D52                move.w     D0, [A5 - 0x62AE]
00001A2A  B06D 9D56                cmp.w      D0, [A5 - 0x62AA]
00001A2E  6F0E                     ble        +0x10 /* 00001A3E */
00001A30  2B6E FFF8 9D50           move.l     [A5 - 0x62B0], [A6 - 0x8]
00001A36  2B6E FFFC 9D54           move.l     [A5 - 0x62AC], [A6 - 0x4]
00001A3C  6040                     bra        +0x42 /* 00001A7E */
label00001A3E:
00001A3E  302D 9D52                move.w     D0, [A5 - 0x62AE]
00001A42  B06E FFFA                cmp.w      D0, [A6 - 0x6]
00001A46  6F06                     ble        +0x8 /* 00001A4E */
00001A48  3B6E FFFA 9D52           move.w     [A5 - 0x62AE], [A6 - 0x6]
label00001A4E:
00001A4E  302D 9D56                move.w     D0, [A5 - 0x62AA]
00001A52  B06E FFFE                cmp.w      D0, [A6 - 0x2]
00001A56  6C06                     bge        +0x8 /* 00001A5E */
00001A58  3B6E FFFE 9D56           move.w     [A5 - 0x62AA], [A6 - 0x2]
label00001A5E:
00001A5E  302D 9D50                move.w     D0, [A5 - 0x62B0]
00001A62  B06E FFF8                cmp.w      D0, [A6 - 0x8]
00001A66  6F06                     ble        +0x8 /* 00001A6E */
00001A68  3B6E FFF8 9D50           move.w     [A5 - 0x62B0], [A6 - 0x8]
label00001A6E:
00001A6E  302D 9D54                move.w     D0, [A5 - 0x62AC]
00001A72  B06E FFFC                cmp.w      D0, [A6 - 0x4]
00001A76  6C06                     bge        +0x8 /* 00001A7E */
00001A78  3B6E FFFC 9D54           move.w     [A5 - 0x62AC], [A6 - 0x4]
label00001A7E:
00001A7E  4E5E                     unlink     A6
00001A80  4E75                     rts
fn00001A82:
00001A82  4E56 FFF6                link       A6, -0x000A
00001A86  486E FFF6                pea.l      [A6 - 0xA]
00001A8A  A874                     syscall    GetPort
00001A8C  2F2D 9CAE                move.l     -[A7], [A5 - 0x6352]
00001A90  A873                     syscall    SetPort
00001A92  426E FFFE                clr.w      [A6 - 0x2]
00001A96  426E FFFC                clr.w      [A6 - 0x4]
00001A9A  426E FFFA                clr.w      [A6 - 0x6]
00001A9E  486E FFFA                pea.l      [A6 - 0x6]
00001AA2  AA14                     syscall    RGBForeColor
00001AA4  486D F9C4                pea.l      [A5 - 0x63C]
00001AA8  A89D                     syscall    PenPat
00001AAA  206D 9CAE                movea.l    A0, [A5 - 0x6352]
00001AAE  4868 0010                pea.l      [A0 + 0x10]
00001AB2  A8A2                     syscall    PaintRect
00001AB4  4E5E                     unlink     A6
00001AB6  4E75                     rts
fn00001AB8:
00001AB8  4E56 FFDE                link       A6, -0x0022
00001ABC  4A2D 9C87                tst.b      [A5 - 0x6379]
00001AC0  6700 00A2                beq        +0xA4 /* 00001B64 */
00001AC4  486E FFE4                pea.l      [A6 - 0x1C]
00001AC8  A874                     syscall    GetPort
00001ACA  2F2D 9CAE                move.l     -[A7], [A5 - 0x6352]
00001ACE  A873                     syscall    SetPort
00001AD0  426E FFE2                clr.w      [A6 - 0x1E]
00001AD4  426E FFE0                clr.w      [A6 - 0x20]
00001AD8  426E FFDE                clr.w      [A6 - 0x22]
00001ADC  486E FFDE                pea.l      [A6 - 0x22]
00001AE0  AA14                     syscall    RGBForeColor
00001AE2  486D F9C4                pea.l      [A5 - 0x63C]
00001AE6  A89D                     syscall    PenPat
00001AE8  206D 9CAE                movea.l    A0, [A5 - 0x6352]
00001AEC  2D68 0010 FFF8           move.l     [A6 - 0x8], [A0 + 0x10]
00001AF2  2D68 0014 FFFC           move.l     [A6 - 0x4], [A0 + 0x14]
00001AF8  2D6D 9C8A FFE8           move.l     [A6 - 0x18], [A5 - 0x6376]
00001AFE  2D6D 9C8E FFEC           move.l     [A6 - 0x14], [A5 - 0x6372]
00001B04  3D6E FFFA FFF2           move.w     [A6 - 0xE], [A6 - 0x6]
00001B0A  3D6E FFF8 FFF0           move.w     [A6 - 0x10], [A6 - 0x8]
00001B10  3D6E FFFE FFF6           move.w     [A6 - 0xA], [A6 - 0x2]
00001B16  3D6E FFE8 FFF4           move.w     [A6 - 0xC], [A6 - 0x18]
00001B1C  486E FFF0                pea.l      [A6 - 0x10]
00001B20  A8A2                     syscall    PaintRect
00001B22  3D6E FFEC FFF0           move.w     [A6 - 0x10], [A6 - 0x14]
00001B28  3D6E FFFC FFF4           move.w     [A6 - 0xC], [A6 - 0x4]
00001B2E  486E FFF0                pea.l      [A6 - 0x10]
00001B32  A8A2                     syscall    PaintRect
00001B34  3D6E FFE8 FFF0           move.w     [A6 - 0x10], [A6 - 0x18]
00001B3A  3D6E FFEC FFF4           move.w     [A6 - 0xC], [A6 - 0x14]
00001B40  3D6E FFEA FFF6           move.w     [A6 - 0xA], [A6 - 0x16]
00001B46  486E FFF0                pea.l      [A6 - 0x10]
00001B4A  A8A2                     syscall    PaintRect
00001B4C  3D6E FFEE FFF2           move.w     [A6 - 0xE], [A6 - 0x12]
00001B52  3D6E FFFE FFF6           move.w     [A6 - 0xA], [A6 - 0x2]
00001B58  486E FFF0                pea.l      [A6 - 0x10]
00001B5C  A8A2                     syscall    PaintRect
00001B5E  2F2E FFE4                move.l     -[A7], [A6 - 0x1C]
00001B62  A873                     syscall    SetPort
label00001B64:
00001B64  4E5E                     unlink     A6
00001B66  4E75                     rts
export_258:
00001B68  4E56 FF80                link       A6, -0x0080
00001B6C  2F07                     move.l     -[A7], D7
00001B6E  4A2D B2D6                tst.b      [A5 - 0x4D2A]
00001B72  6700 00F6                beq        +0xF8 /* 00001C6A */
00001B76  302D C990                move.w     D0, [A5 - 0x3670]
00001B7A  EA40                     asr        D0.w, 5
00001B7C  0240 000F                andi.w     D0, 0xF
00001B80  0640 FFF7                addi.w     D0, 0xFFF7
00001B84  6600 00E4                bne        +0xE6 /* 00001C6A */
00001B88  4A6D 9C4E                tst.w      [A5 - 0x63B2]
00001B8C  670E                     beq        +0x10 /* 00001B9C */
00001B8E  4267                     clr.w      -[A7]
00001B90  42A7                     clr.l      -[A7]
00001B92  3F2D 9C4E                move.w     -[A7], [A5 - 0x63B2]
00001B96  4EAD 0BC2                jsr        [A5 + 0xBC2 /* export_372, CODE:6 @ 00001756 */]
00001B9A  548F                     addq.l     A7, 2
label00001B9C:
00001B9C  486E FF80                pea.l      [A6 - 0x80]
00001BA0  A874                     syscall    GetPort
00001BA2  302D F962                move.w     D0, [A5 - 0x69E]
00001BA6  D06D F966                add.w      D0, [A5 - 0x69A]
00001BAA  48C0                     ext.l      D0
00001BAC  81FC 0002                divs.w     D0, 0x2
00001BB0  0640 FF20                addi.w     D0, 0xFF20
00001BB4  3D40 FFE8                move.w     [A6 - 0x18], D0
00001BB8  3D7C 004B FFE6           move.w     [A6 - 0x1A], 0x4B /* 'K' */
00001BBE  2D7C 5376 4D31 FF84      move.l     [A6 - 0x7C], 0x53764D31 /* 'SvM1' */
00001BC6  2F2E FFE6                move.l     -[A7], [A6 - 0x1A]
00001BCA  2F3C 0000 09CD           move.l     -[A7], 0x9CD
00001BD0  42A7                     clr.l      -[A7]
00001BD2  3F3C 0001                move.w     -[A7], 0x1
00001BD6  486E FF84                pea.l      [A6 - 0x7C]
00001BDA  42A7                     clr.l      -[A7]
00001BDC  486E FF94                pea.l      [A6 - 0x6C]
00001BE0  3F3C 0002                move.w     -[A7], 0x2
00001BE4  A9EA                     syscall    Pack3
00001BE6  302D C990                move.w     D0, [A5 - 0x3670]
00001BEA  EA40                     asr        D0.w, 5
00001BEC  0240 000F                andi.w     D0, 0xF
00001BF0  0640 FFF7                addi.w     D0, 0xFFF7
00001BF4  57C0                     seq        D0
00001BF6  4400                     neg.b      D0
00001BF8  122E FF94                move.b     D1, [A6 - 0x6C]
00001BFC  C2C0                     mulu.w     D1, D0
00001BFE  1D41 FF94                move.b     [A6 - 0x6C], D1
00001C02  4267                     clr.w      -[A7]
00001C04  A938                     syscall    HiliteMenu
00001C06  1E2E FF94                move.b     D7, [A6 - 0x6C]
00001C0A  4A07                     tst.b      D7
00001C0C  6740                     beq        +0x42 /* 00001C4E */
00001C0E  4EBA 2612                jsr        [PC + 0x2612 /* 00004222 */]
00001C12  486E FF9E                pea.l      [A6 - 0x62]
00001C16  4EAD 0BE2                jsr        [A5 + 0xBE2 /* export_376, CODE:6 @ 000014B6 */]
00001C1A  3B6E FF9A 9C4E           move.w     [A5 - 0x63B2], [A6 - 0x66]
00001C20  4257                     clr.w      [A7]
00001C22  42A7                     clr.l      -[A7]
00001C24  3F2E FF9A                move.w     -[A7], [A6 - 0x66]
00001C28  4EAD 0BC2                jsr        [A5 + 0xBC2 /* export_372, CODE:6 @ 00001756 */]
00001C2C  4EBA FE54                jsr        [PC - 0x1AC /* 00001A82 */]
00001C30  4EBA F4DE                jsr        [PC - 0xB22 /* 00001110 */]
00001C34  486E FF9E                pea.l      [A6 - 0x62]
00001C38  3F3C 0001                move.w     -[A7], 0x1
00001C3C  4EAD 0952                jsr        [A5 + 0x952 /* export_294, CODE:5 @ 00001180 */]
00001C40  1B7C 0031 9C46           move.b     [A5 - 0x63BA], 0x31 /* '1' */
00001C46  4EBA 24A4                jsr        [PC + 0x24A4 /* 000040EC */]
00001C4A  4FEF 000A                lea.l      A7, [A7 + 0xA]
label00001C4E:
00001C4E  4A6D 9C4C                tst.w      [A5 - 0x63B4]
00001C52  670E                     beq        +0x10 /* 00001C62 */
00001C54  4267                     clr.w      -[A7]
00001C56  42A7                     clr.l      -[A7]
00001C58  3F2D 9C4C                move.w     -[A7], [A5 - 0x63B4]
00001C5C  4EAD 0BC2                jsr        [A5 + 0xBC2 /* export_372, CODE:6 @ 00001756 */]
00001C60  548F                     addq.l     A7, 2
label00001C62:
00001C62  A850                     syscall    InitCursor
00001C64  3B7C 0001 F732           move.w     [A5 - 0x8CE], 0x1
label00001C6A:
00001C6A  2E1F                     move.l     D7, [A7]+
00001C6C  4E5E                     unlink     A6
00001C6E  4E75                     rts
export_255:
00001C70  4E75 4E75 4E75 4E56      dc.b       "NuNuNuNV"
// begin alternate branch 00001C72-00001C74
export_256:
00001C72  4E75                     rts
// end alternate branch 00001C72-00001C74
// begin alternate branch 00001C74-00001C7A
export_257:
00001C74  4E75                     rts
export_259:
fn00001C76:
00001C76  4E56 FF9C                link       A6, -0x0064
// end alternate branch 00001C74-00001C7A
export_256: // at 00001C72 (misaligned)
export_257: // at 00001C74 (misaligned)
export_259: // at 00001C76 (misaligned)
fn00001C76: // (misaligned)
00001C78  FF9C                     .invalid   <<F/6/7>>
00001C7A  48E7 0300                movem.l    -[A7], D6,D7
00001C7E  4A2D B2D6                tst.b      [A5 - 0x4D2A]
00001C82  6700 0144                beq        +0x146 /* 00001DC8 */
00001C86  302D C990                move.w     D0, [A5 - 0x3670]
00001C8A  EA40                     asr        D0.w, 5
00001C8C  0240 000F                andi.w     D0, 0xF
00001C90  0640 FFF7                addi.w     D0, 0xFFF7
00001C94  6600 0132                bne        +0x134 /* 00001DC8 */
00001C98  4A6D 9C4E                tst.w      [A5 - 0x63B2]
00001C9C  670E                     beq        +0x10 /* 00001CAC */
00001C9E  4267                     clr.w      -[A7]
00001CA0  42A7                     clr.l      -[A7]
00001CA2  3F2D 9C4E                move.w     -[A7], [A5 - 0x63B2]
00001CA6  4EAD 0BC2                jsr        [A5 + 0xBC2 /* export_372, CODE:6 @ 00001756 */]
00001CAA  548F                     addq.l     A7, 2
label00001CAC:
00001CAC  302D 9C76                move.w     D0, [A5 - 0x638A]
00001CB0  D06D 9C7A                add.w      D0, [A5 - 0x6386]
00001CB4  48C0                     ext.l      D0
00001CB6  81FC 0002                divs.w     D0, 0x2
00001CBA  0640 FF36                addi.w     D0, 0xFF36
00001CBE  3D40 FFF8                move.w     [A6 - 0x8], D0
00001CC2  3D7C 004B FFF6           move.w     [A6 - 0xA], 0x4B /* 'K' */
00001CC8  2F2E FFF6                move.l     -[A7], [A6 - 0xA]
00001CCC  2F3C 0000 09DF           move.l     -[A7], 0x9DF
00001CD2  2F3C 0000 09F5           move.l     -[A7], 0x9F5
00001CD8  42A7                     clr.l      -[A7]
00001CDA  486E FFAC                pea.l      [A6 - 0x54]
00001CDE  3F3C 0001                move.w     -[A7], 0x1
00001CE2  A9EA                     syscall    Pack3
00001CE4  302D C990                move.w     D0, [A5 - 0x3670]
00001CE8  EA40                     asr        D0.w, 5
00001CEA  0240 000F                andi.w     D0, 0xF
00001CEE  0640 FFF7                addi.w     D0, 0xFFF7
00001CF2  57C0                     seq        D0
00001CF4  4400                     neg.b      D0
00001CF6  122E FFAC                move.b     D1, [A6 - 0x54]
00001CFA  C2C0                     mulu.w     D1, D0
00001CFC  1D41 FFAC                move.b     [A6 - 0x54], D1
00001D00  4A2E FFAC                tst.b      [A6 - 0x54]
00001D04  6700 00AC                beq        +0xAE /* 00001DB2 */
00001D08  486E FFB6                pea.l      [A6 - 0x4A]
00001D0C  4EAD 0BE2                jsr        [A5 + 0xBE2 /* export_376, CODE:6 @ 000014B6 */]
00001D10  3B6E FFB2 9C4E           move.w     [A5 - 0x63B2], [A6 - 0x4E]
00001D16  4257                     clr.w      [A7]
00001D18  42A7                     clr.l      -[A7]
00001D1A  3F2E FFB2                move.w     -[A7], [A6 - 0x4E]
00001D1E  4EAD 0BC2                jsr        [A5 + 0xBC2 /* export_372, CODE:6 @ 00001756 */]
00001D22  426D AA48                clr.w      [A5 - 0x55B8]
00001D26  486E FFB6                pea.l      [A6 - 0x4A]
00001D2A  3F3C 0001                move.w     -[A7], 0x1
00001D2E  4EAD 094A                jsr        [A5 + 0x94A /* export_293, CODE:5 @ 00000E58 */]
00001D32  4A6D AA48                tst.w      [A5 - 0x55B8]
00001D36  4FEF 000A                lea.l      A7, [A7 + 0xA]
00001D3A  6776                     beq        +0x78 /* 00001DB2 */
00001D3C  7E00                     moveq.l    D7, 0x00
00001D3E  7C00                     moveq.l    D6, 0x00
00001D40  603E                     bra        +0x40 /* 00001D80 */
label00001D42:
00001D42  4267                     clr.w      -[A7]
00001D44  1006                     move.b     D0, D6
00001D46  49C0                     lea.l      A4, D0
00001D48  3F00                     move.w     -[A7], D0
00001D4A  42A7                     clr.l      -[A7]
00001D4C  486E FFFE                pea.l      [A6 - 0x2]
00001D50  486E FFFA                pea.l      [A6 - 0x6]
00001D54  4EAD 0BB2                jsr        [A5 + 0xBB2 /* export_370, CODE:6 @ 000016F2 */]
00001D58  4A5F                     tst.w      [A7]+
00001D5A  6622                     bne        +0x24 /* 00001D7E */
00001D5C  302E FFFE                move.w     D0, [A6 - 0x2]
00001D60  B06E FFB2                cmp.w      D0, [A6 - 0x4E]
00001D64  6618                     bne        +0x1A /* 00001D7E */
00001D66  0CAE 0000 7148 FFFA      cmpi.l     [A6 - 0x6], 0x7148 /* 'qH' */
00001D6E  6C0E                     bge        +0x10 /* 00001D7E */
00001D70  2F3C 0000 09FF           move.l     -[A7], 0x9FF
00001D76  4EBA 01BA                jsr        [PC + 0x1BA /* 00001F32 */]
00001D7A  7E01                     moveq.l    D7, 0x01
00001D7C  588F                     addq.l     A7, 4
label00001D7E:
00001D7E  5206                     addq.b     D6, 1
label00001D80:
00001D80  0C06 0014                cmpi.b     D6, 0x14
00001D84  6C04                     bge        +0x6 /* 00001D8A */
00001D86  4A07                     tst.b      D7
00001D88  67B8                     beq        -0x46 /* 00001D42 */
label00001D8A:
00001D8A  4A07                     tst.b      D7
00001D8C  660C                     bne        +0xE /* 00001D9A */
00001D8E  2F3C 0000 0A2B           move.l     -[A7], 0xA2B /* '\n+' */
00001D94  4EBA 019C                jsr        [PC + 0x19C /* 00001F32 */]
00001D98  588F                     addq.l     A7, 4
label00001D9A:
00001D9A  486E FFB6                pea.l      [A6 - 0x4A]
00001D9E  4EAD 0BEA                jsr        [A5 + 0xBEA /* export_377, CODE:6 @ 0000149A */]
00001DA2  4257                     clr.w      [A7]
00001DA4  486E FFB6                pea.l      [A6 - 0x4A]
00001DA8  3F2E FFB2                move.w     -[A7], [A6 - 0x4E]
00001DAC  4EAD 0BCA                jsr        [A5 + 0xBCA /* export_373, CODE:6 @ 00001776 */]
00001DB0  588F                     addq.l     A7, 4
label00001DB2:
00001DB2  4A6D 9C4C                tst.w      [A5 - 0x63B4]
00001DB6  670E                     beq        +0x10 /* 00001DC6 */
00001DB8  4267                     clr.w      -[A7]
00001DBA  42A7                     clr.l      -[A7]
00001DBC  3F2D 9C4C                move.w     -[A7], [A5 - 0x63B4]
00001DC0  4EAD 0BC2                jsr        [A5 + 0xBC2 /* export_372, CODE:6 @ 00001756 */]
00001DC4  548F                     addq.l     A7, 2
label00001DC6:
00001DC6  A850                     syscall    InitCursor
label00001DC8:
00001DC8  4CDF 00C0                movem.l    D6,D7, [A7]+
00001DCC  4E5E                     unlink     A6
00001DCE  4E75                     rts
00001DD0  4E56 0000                link       A6, 0
00001DD4  4E5E                     unlink     A6
00001DD6  4E75                     rts
fn00001DD8:
00001DD8  2F07                     move.l     -[A7], D7
00001DDA  2F3C 0000 0A91           move.l     -[A7], 0xA91
00001DE0  4EBA 0100                jsr        [PC + 0x100 /* 00001EE2 */]
00001DE4  3E00                     move.w     D7, D0
00001DE6  3007                     move.w     D0, D7
00001DE8  588F                     addq.l     A7, 4
00001DEA  2E1F                     move.l     D7, [A7]+
00001DEC  4E75                     rts
fn00001DEE:
00001DEE  2F3C 0000 0ADB           move.l     -[A7], 0xADB
00001DF4  4EBA 013C                jsr        [PC + 0x13C /* 00001F32 */]
00001DF8  588F                     addq.l     A7, 4
00001DFA  4E75                     rts
fn00001DFC:
00001DFC  2F3C 0000 0B59           move.l     -[A7], 0xB59
00001E02  4EBA 012E                jsr        [PC + 0x12E /* 00001F32 */]
00001E06  A9F4                     syscall    ExitToShell
00001E08  588F                     addq.l     A7, 4
00001E0A  4E75                     rts
fn00001E0C:
00001E0C  2F3C 0000 0BED           move.l     -[A7], 0xBED
00001E12  4EBA 011E                jsr        [PC + 0x11E /* 00001F32 */]
00001E16  588F                     addq.l     A7, 4
00001E18  4E75                     rts
fn00001E1A:
00001E1A  2F07                     move.l     -[A7], D7
00001E1C  A850                     syscall    InitCursor
00001E1E  4267                     clr.w      -[A7]
00001E20  3F3C 01FA                move.w     -[A7], 0x1FA
00001E24  42A7                     clr.l      -[A7]
00001E26  A985                     syscall    Alert
00001E28  3E1F                     move.w     D7, [A7]+
00001E2A  0C47 0001                cmpi.w     D7, 0x1
00001E2E  6604                     bne        +0x6 /* 00001E34 */
00001E30  7001                     moveq.l    D0, 0x01
00001E32  6002                     bra        +0x4 /* 00001E36 */
label00001E34:
00001E34  7000                     moveq.l    D0, 0x00
label00001E36:
00001E36  2E1F                     move.l     D7, [A7]+
00001E38  4E75                     rts
fn00001E3A:
00001E3A  4E56 FFFC                link       A6, -0x0004
00001E3E  42A7                     clr.l      -[A7]
00001E40  2F3C 0100 A86E           move.l     -[A7], 0x100A86E
00001E46  4EAD 0BAA                jsr        [A5 + 0xBAA /* export_369, CODE:6 @ 000016DE */]
00001E4A  2D5F FFFC                move.l     [A6 - 0x4], [A7]+
00001E4E  42A7                     clr.l      -[A7]
00001E50  2F3C 0100 AA6E           move.l     -[A7], 0x100AA6E
00001E56  4EAD 0BAA                jsr        [A5 + 0xBAA /* export_369, CODE:6 @ 000016DE */]
00001E5A  202E FFFC                move.l     D0, [A6 - 0x4]
00001E5E  B09F                     cmp.l      D0, [A7]+
00001E60  6606                     bne        +0x8 /* 00001E68 */
00001E62  303C 0200                move.w     D0, 0x200
00001E66  6004                     bra        +0x6 /* 00001E6C */
label00001E68:
00001E68  303C 0400                move.w     D0, 0x400
label00001E6C:
00001E6C  4E5E                     unlink     A6
00001E6E  4E75                     rts
fn00001E70:
00001E70  4E56 0000                link       A6, 0
00001E74  082E 0000 0009           btst.b     [A6 + 0x9], 0x0
00001E7A  6704                     beq        +0x6 /* 00001E80 */
00001E7C  7001                     moveq.l    D0, 0x01
00001E7E  6002                     bra        +0x4 /* 00001E82 */
label00001E80:
00001E80  7000                     moveq.l    D0, 0x00
label00001E82:
00001E82  4E5E                     unlink     A6
00001E84  4E75                     rts
fn00001E86:
00001E86  4E56 FFFC                link       A6, -0x0004
00001E8A  48E7 0300                movem.l    -[A7], D6,D7
00001E8E  3C2E 0008                move.w     D6, [A6 + 0x8]
00001E92  3F06                     move.w     -[A7], D6
00001E94  4EBA FFDA                jsr        [PC - 0x26 /* 00001E70 */]
00001E98  7E00                     moveq.l    D7, 0x00
00001E9A  1E00                     move.b     D7, D0
00001E9C  0C47 0001                cmpi.w     D7, 0x1
00001EA0  548F                     addq.l     A7, 2
00001EA2  6610                     bne        +0x12 /* 00001EB4 */
00001EA4  0246 07FF                andi.w     D6, 0x7FF
00001EA8  4EBA FF90                jsr        [PC - 0x70 /* 00001E3A */]
00001EAC  B046                     cmp.w      D0, D6
00001EAE  6E04                     bgt        +0x6 /* 00001EB4 */
00001EB0  3C3C A89F                move.w     D6, 0xA89F
label00001EB4:
00001EB4  42A7                     clr.l      -[A7]
00001EB6  3F06                     move.w     -[A7], D6
00001EB8  1F07                     move.b     -[A7], D7
00001EBA  4EAD 0BAA                jsr        [A5 + 0xBAA /* export_369, CODE:6 @ 000016DE */]
00001EBE  2D5F FFFC                move.l     [A6 - 0x4], [A7]+
00001EC2  42A7                     clr.l      -[A7]
00001EC4  2F3C 0100 A89F           move.l     -[A7], 0x100A89F
00001ECA  4EAD 0BAA                jsr        [A5 + 0xBAA /* export_369, CODE:6 @ 000016DE */]
00001ECE  202E FFFC                move.l     D0, [A6 - 0x4]
00001ED2  B09F                     cmp.l      D0, [A7]+
00001ED4  56C0                     sne        D0
00001ED6  4400                     neg.b      D0
00001ED8  49C0                     lea.l      A4, D0
00001EDA  4CDF 00C0                movem.l    D6,D7, [A7]+
00001EDE  4E5E                     unlink     A6
00001EE0  4E75                     rts
fn00001EE2:
00001EE2  4E56 FFFC                link       A6, -0x0004
00001EE6  2F07                     move.l     -[A7], D7
00001EE8  2F2E 0008                move.l     -[A7], [A6 + 0x8]
00001EEC  4EAD 0BEA                jsr        [A5 + 0xBEA /* export_377, CODE:6 @ 0000149A */]
00001EF0  2EAE 0008                move.l     [A7], [A6 + 0x8]
00001EF4  2F3C 0000 0C5B           move.l     -[A7], 0xC5B
00001EFA  2F3C 0000 0C5D           move.l     -[A7], 0xC5D
00001F00  2F3C 0000 0C5F           move.l     -[A7], 0xC5F
00001F06  A98B                     syscall    ParamText
00001F08  A850                     syscall    InitCursor
00001F0A  4267                     clr.w      -[A7]
00001F0C  3F3C 01F6                move.w     -[A7], 0x1F6
00001F10  42A7                     clr.l      -[A7]
00001F12  A985                     syscall    Alert
00001F14  3E1F                     move.w     D7, [A7]+
00001F16  2F2E 0008                move.l     -[A7], [A6 + 0x8]
00001F1A  4EAD 0BE2                jsr        [A5 + 0xBE2 /* export_376, CODE:6 @ 000014B6 */]
00001F1E  0C47 0001                cmpi.w     D7, 0x1
00001F22  588F                     addq.l     A7, 4
00001F24  6604                     bne        +0x6 /* 00001F2A */
00001F26  7001                     moveq.l    D0, 0x01
00001F28  6002                     bra        +0x4 /* 00001F2C */
label00001F2A:
00001F2A  7000                     moveq.l    D0, 0x00
label00001F2C:
00001F2C  2E1F                     move.l     D7, [A7]+
00001F2E  4E5E                     unlink     A6
00001F30  4E75                     rts
fn00001F32:
00001F32  4E56 FFFC                link       A6, -0x0004
00001F36  2F2E 0008                move.l     -[A7], [A6 + 0x8]
00001F3A  4EAD 0BEA                jsr        [A5 + 0xBEA /* export_377, CODE:6 @ 0000149A */]
00001F3E  2EAE 0008                move.l     [A7], [A6 + 0x8]
00001F42  2F3C 0000 0C61           move.l     -[A7], 0xC61
00001F48  2F3C 0000 0C63           move.l     -[A7], 0xC63
00001F4E  2F3C 0000 0C65           move.l     -[A7], 0xC65
00001F54  A98B                     syscall    ParamText
00001F56  A850                     syscall    InitCursor
00001F58  4267                     clr.w      -[A7]
00001F5A  3F3C 01F7                move.w     -[A7], 0x1F7
00001F5E  42A7                     clr.l      -[A7]
00001F60  A985                     syscall    Alert
00001F62  2F2E 0008                move.l     -[A7], [A6 + 0x8]
00001F66  4EAD 0BE2                jsr        [A5 + 0xBE2 /* export_376, CODE:6 @ 000014B6 */]
00001F6A  4E5E                     unlink     A6
00001F6C  4E75                     rts
export_273:
00001F6E  4E56 FFFC                link       A6, -0x0004
00001F72  2F07                     move.l     -[A7], D7
00001F74  2F2E 0008                move.l     -[A7], [A6 + 0x8]
00001F78  4EAD 0BEA                jsr        [A5 + 0xBEA /* export_377, CODE:6 @ 0000149A */]
00001F7C  2EAE 0008                move.l     [A7], [A6 + 0x8]
00001F80  2F3C 0000 0C67           move.l     -[A7], 0xC67
00001F86  2F3C 0000 0C69           move.l     -[A7], 0xC69
00001F8C  2F3C 0000 0C6B           move.l     -[A7], 0xC6B
00001F92  A98B                     syscall    ParamText
00001F94  A850                     syscall    InitCursor
00001F96  4267                     clr.w      -[A7]
00001F98  3F3C 01FC                move.w     -[A7], 0x1FC
00001F9C  42A7                     clr.l      -[A7]
00001F9E  A985                     syscall    Alert
00001FA0  3E1F                     move.w     D7, [A7]+
00001FA2  2F2E 0008                move.l     -[A7], [A6 + 0x8]
00001FA6  4EAD 0BE2                jsr        [A5 + 0xBE2 /* export_376, CODE:6 @ 000014B6 */]
00001FAA  0C47 0002                cmpi.w     D7, 0x2
00001FAE  588F                     addq.l     A7, 4
00001FB0  6604                     bne        +0x6 /* 00001FB6 */
00001FB2  4EBA FCC2                jsr        [PC - 0x33E /* 00001C76 */]
label00001FB6:
00001FB6  4EBA 0008                jsr        [PC + 0x8 /* 00001FC0 */]
00001FBA  2E1F                     move.l     D7, [A7]+
00001FBC  4E5E                     unlink     A6
00001FBE  4E75                     rts
fn00001FC0:
00001FC0  4EBA FAC0                jsr        [PC - 0x540 /* 00001A82 */]
00001FC4  0C6D FFFF EC98           cmpi.w     [A5 - 0x1368], 0xFFFF
00001FCA  670A                     beq        +0xC /* 00001FD6 */
00001FCC  3F2D EC98                move.w     -[A7], [A5 - 0x1368]
00001FD0  4EAD 092A                jsr        [A5 + 0x92A /* export_289, CODE:5 @ 00000BC4 */]
00001FD4  548F                     addq.l     A7, 2
label00001FD6:
00001FD6  4AAD EC9A                tst.l      [A5 - 0x1366]
00001FDA  670A                     beq        +0xC /* 00001FE6 */
00001FDC  2F2D EC9A                move.l     -[A7], [A5 - 0x1366]
00001FE0  4EAD 0CA2                jsr        [A5 + 0xCA2 /* export_400, CODE:7 @ 00003076 */]
00001FE4  588F                     addq.l     A7, 4
label00001FE6:
00001FE6  4EBA 3020                jsr        [PC + 0x3020 /* 00005008 */]
00001FEA  4E75                     rts
export_274:
00001FEC  4E75                     rts
export_275:
00001FEE  4E75                     rts
export_261:
fn00001FF0:
00001FF0  4E56 0000                link       A6, 0
00001FF4  4E5E                     unlink     A6
00001FF6  4E75                     rts
export_276:
fn00001FF8:
00001FF8  4E56 FF00                link       A6, -0x0100
00001FFC  4E5E                     unlink     A6
00001FFE  4E75                     rts
fn00002000:
00002000  48E7 0118                movem.l    -[A7], D7,A3,A4
00002004  4AAD 9C38                tst.l      [A5 - 0x63C8]
00002008  667C                     bne        +0x7E /* 00002086 */
0000200A  203C 0000 0800           move.l     D0, 0x800
00002010  A11E                     syscall    NewPtr, flags=1
00002012  2B48 9C38                move.l     [A5 - 0x63C8], A0
00002016  2008                     move.l     D0, A0
00002018  6608                     bne        +0xA /* 00002022 */
0000201A  2F3C 0000 0C6D           move.l     -[A7], 0xC6D
00002020  ABFF                     syscall    DebugStr
label00002022:
00002022  7E00                     moveq.l    D7, 0x00
00002024  99CC                     sub.l      A4, A4
00002026  600A                     bra        +0xC /* 00002032 */
label00002028:
00002028  3B87 C925 9C38           move.w     [[A5 - 0x63C8] + A4], D7
0000202E  5247                     addq.w     D7, 1
00002030  508C                     addq.l     A4, 8
label00002032:
00002032  0C47 0100                cmpi.w     D7, 0x100
00002036  6DF0                     blt        -0xE /* 00002028 */
00002038  7E00                     moveq.l    D7, 0x00
0000203A  99CC                     sub.l      A4, A4
0000203C  6018                     bra        +0x1A /* 00002056 */
label0000203E:
0000203E  202D 9C38                move.l     D0, [A5 - 0x63C8]
00002042  D08C                     add.l      D0, A4
00002044  5480                     addq.l     D0, 2
00002046  2640                     movea.l    A3, D0
00002048  426B 0004                clr.w      [A3 + 0x4]
0000204C  426B 0002                clr.w      [A3 + 0x2]
00002050  4253                     clr.w      [A3]
00002052  5247                     addq.w     D7, 1
00002054  508C                     addq.l     A4, 8
label00002056:
00002056  0C47 0100                cmpi.w     D7, 0x100
0000205A  6DE2                     blt        -0x1C /* 0000203E */
0000205C  7002                     moveq.l    D0, 0x02
0000205E  D0AD 9C38                add.l      D0, [A5 - 0x63C8]
00002062  2840                     movea.l    A4, D0
00002064  38BC FFFF                move.w     [A4], 0xFFFF
00002068  397C FFFF 0002           move.w     [A4 + 0x2], 0xFFFF
0000206E  397C FFFF 0004           move.w     [A4 + 0x4], 0xFFFF
00002074  286D 9C38                movea.l    A4, [A5 - 0x63C8]
00002078  49EC 07FA                lea.l      A4, [A4 + 0x7FA]
0000207C  4254                     clr.w      [A4]
0000207E  426C 0002                clr.w      [A4 + 0x2]
00002082  426C 0004                clr.w      [A4 + 0x4]
label00002086:
00002086  4AAD 9C3C                tst.l      [A5 - 0x63C4]
0000208A  667C                     bne        +0x7E /* 00002108 */
0000208C  203C 0000 0800           move.l     D0, 0x800
00002092  A11E                     syscall    NewPtr, flags=1
00002094  2B48 9C3C                move.l     [A5 - 0x63C4], A0
00002098  2008                     move.l     D0, A0
0000209A  6608                     bne        +0xA /* 000020A4 */
0000209C  2F3C 0000 0C87           move.l     -[A7], 0xC87
000020A2  ABFF                     syscall    DebugStr
label000020A4:
000020A4  7E00                     moveq.l    D7, 0x00
000020A6  99CC                     sub.l      A4, A4
000020A8  600A                     bra        +0xC /* 000020B4 */
label000020AA:
000020AA  3B87 C925 9C3C           move.w     [[A5 - 0x63C4] + A4], D7
000020B0  5247                     addq.w     D7, 1
000020B2  508C                     addq.l     A4, 8
label000020B4:
000020B4  0C47 0100                cmpi.w     D7, 0x100
000020B8  6DF0                     blt        -0xE /* 000020AA */
000020BA  7E00                     moveq.l    D7, 0x00
000020BC  99CC                     sub.l      A4, A4
000020BE  6018                     bra        +0x1A /* 000020D8 */
label000020C0:
000020C0  202D 9C3C                move.l     D0, [A5 - 0x63C4]
000020C4  D08C                     add.l      D0, A4
000020C6  5480                     addq.l     D0, 2
000020C8  2640                     movea.l    A3, D0
000020CA  426B 0004                clr.w      [A3 + 0x4]
000020CE  426B 0002                clr.w      [A3 + 0x2]
000020D2  4253                     clr.w      [A3]
000020D4  5247                     addq.w     D7, 1
000020D6  508C                     addq.l     A4, 8
label000020D8:
000020D8  0C47 0100                cmpi.w     D7, 0x100
000020DC  6DE2                     blt        -0x1C /* 000020C0 */
000020DE  7002                     moveq.l    D0, 0x02
000020E0  D0AD 9C3C                add.l      D0, [A5 - 0x63C4]
000020E4  2840                     movea.l    A4, D0
000020E6  38BC FFFF                move.w     [A4], 0xFFFF
000020EA  397C FFFF 0002           move.w     [A4 + 0x2], 0xFFFF
000020F0  397C FFFF 0004           move.w     [A4 + 0x4], 0xFFFF
000020F6  286D 9C3C                movea.l    A4, [A5 - 0x63C4]
000020FA  49EC 07FA                lea.l      A4, [A4 + 0x7FA]
000020FE  4254                     clr.w      [A4]
00002100  426C 0002                clr.w      [A4 + 0x2]
00002104  426C 0004                clr.w      [A4 + 0x4]
label00002108:
00002108  4EBA 003E                jsr        [PC + 0x3E /* 00002148 */]
0000210C  4AAD 9C40                tst.l      [A5 - 0x63C0]
00002110  6612                     bne        +0x14 /* 00002124 */
00002112  42A7                     clr.l      -[A7]
00002114  A8D8                     syscall    NewRgn
00002116  2B5F 9C40                move.l     [A5 - 0x63C0], [A7]+
0000211A  2F2D 9C40                move.l     -[A7], [A5 - 0x63C0]
0000211E  486D F960                pea.l      [A5 - 0x6A0]
00002122  A8DF                     syscall    RectRgn
label00002124:
00002124  A937                     syscall    DrawMenuBar
00002126  42A7                     clr.l      -[A7]
00002128  A924                     syscall    FrontWindow
0000212A  2F2D 9C40                move.l     -[A7], [A5 - 0x63C0]
0000212E  A90D                     syscall    PaintBehind
00002130  4CDF 1880                movem.l    D7,A3,A4, [A7]+
00002134  4E75                     rts
fn00002136:
00002136  4EBA 0328                jsr        [PC + 0x328 /* 00002460 */]
0000213A  A937                     syscall    DrawMenuBar
0000213C  42A7                     clr.l      -[A7]
0000213E  A924                     syscall    FrontWindow
00002140  2F2D 9C40                move.l     -[A7], [A5 - 0x63C0]
00002144  A90D                     syscall    PaintBehind
00002146  4E75                     rts
fn00002148:
00002148  4EBA 0316                jsr        [PC + 0x316 /* 00002460 */]
0000214C  2F3C 00FF FFFF           move.l     -[A7], 0xFFFFFF
00002152  2F2D 9C38                move.l     -[A7], [A5 - 0x63C8]
00002156  AA3F                     syscall    SetEntries
00002158  4EBA 02E0                jsr        [PC + 0x2E0 /* 0000243A */]
0000215C  4EBA 031E                jsr        [PC + 0x31E /* 0000247C */]
00002160  4E75                     rts
00002162  1B7C 0001 9C52           move.b     [A5 - 0x63AE], 0x1
00002168  4E75                     rts
fn0000216A:
0000216A  4EBA 02F4                jsr        [PC + 0x2F4 /* 00002460 */]
0000216E  2F3C 00FF FFFF           move.l     -[A7], 0xFFFFFF
00002174  2F2D 9C3C                move.l     -[A7], [A5 - 0x63C4]
00002178  AA3F                     syscall    SetEntries
0000217A  4EBA 02BE                jsr        [PC + 0x2BE /* 0000243A */]
0000217E  4EBA 02FC                jsr        [PC + 0x2FC /* 0000247C */]
00002182  4E75                     rts
export_277:
00002184  48E7 0338                movem.l    -[A7], D6,D7,A2,A3,A4
00002188  7E0A                     moveq.l    D7, 0x0A
0000218A  6000 0080                bra        +0x82 /* 0000220C */
label0000218E:
0000218E  3B6D ECD4 9B32           move.w     [A5 - 0x64CE], [A5 - 0x132C]
00002194  7C01                     moveq.l    D6, 0x01
00002196  387C 0008                movea.w    A4, 0x8
0000219A  6050                     bra        +0x52 /* 000021EC */
label0000219C:
0000219C  202D 9C3C                move.l     D0, [A5 - 0x63C4]
000021A0  D08C                     add.l      D0, A4
000021A2  5480                     addq.l     D0, 2
000021A4  2640                     movea.l    A3, D0
000021A6  202D 9C38                move.l     D0, [A5 - 0x63C8]
000021AA  D08C                     add.l      D0, A4
000021AC  5480                     addq.l     D0, 2
000021AE  2440                     movea.l    A2, D0
000021B0  700A                     moveq.l    D0, 0x0A
000021B2  7200                     moveq.l    D1, 0x00
000021B4  3212                     move.w     D1, [A2]
000021B6  4C07 1000                mulu.l     D1, D7
000021BA  4C40 1801                divs.l     D1:D1, D0
000021BE  3681                     move.w     [A3], D1
000021C0  700A                     moveq.l    D0, 0x0A
000021C2  7200                     moveq.l    D1, 0x00
000021C4  322A 0002                move.w     D1, [A2 + 0x2]
000021C8  4C07 1000                mulu.l     D1, D7
000021CC  4C40 1801                divs.l     D1:D1, D0
000021D0  3741 0002                move.w     [A3 + 0x2], D1
000021D4  700A                     moveq.l    D0, 0x0A
000021D6  7200                     moveq.l    D1, 0x00
000021D8  322A 0004                move.w     D1, [A2 + 0x4]
000021DC  4C07 1000                mulu.l     D1, D7
000021E0  4C40 1801                divs.l     D1:D1, D0
000021E4  3741 0004                move.w     [A3 + 0x4], D1
000021E8  5246                     addq.w     D6, 1
000021EA  508C                     addq.l     A4, 8
label000021EC:
000021EC  0C46 00FF                cmpi.w     D6, 0xFF
000021F0  6DAA                     blt        -0x54 /* 0000219C */
000021F2  4A6D F27E                tst.w      [A5 - 0xD82]
000021F6  660E                     bne        +0x10 /* 00002206 */
label000021F8:
000021F8  302D 9B32                move.w     D0, [A5 - 0x64CE]
000021FC  D06D C9A2                add.w      D0, [A5 - 0x365E]
00002200  B06D ECD4                cmp.w      D0, [A5 - 0x132C]
00002204  62F2                     bhi        -0xC /* 000021F8 */
label00002206:
00002206  4EBA FF62                jsr        [PC - 0x9E /* 0000216A */]
0000220A  5387                     subq.l     D7, 1
label0000220C:
0000220C  4A87                     tst.l      D7
0000220E  6C00 FF7E                bge        -0x80 /* 0000218E */
00002212  4EBA F86E                jsr        [PC - 0x792 /* 00001A82 */]
00002216  4CDF 1CC0                movem.l    D6,D7,A2,A3,A4, [A7]+
0000221A  4E75                     rts
0000221C  48E7 0738                movem.l    -[A7], D5,D6,D7,A2,A3,A4
00002220  7E05                     moveq.l    D7, 0x05
00002222  3047                     movea.w    A0, D7
00002224  2C08                     move.l     D6, A0
00002226  6000 0084                bra        +0x86 /* 000022AC */
label0000222A:
0000222A  3B6D ECD4 9B32           move.w     [A5 - 0x64CE], [A5 - 0x132C]
00002230  7A01                     moveq.l    D5, 0x01
00002232  387C 0008                movea.w    A4, 0x8
00002236  6056                     bra        +0x58 /* 0000228E */
label00002238:
00002238  202D 9C3C                move.l     D0, [A5 - 0x63C4]
0000223C  D08C                     add.l      D0, A4
0000223E  5480                     addq.l     D0, 2
00002240  2640                     movea.l    A3, D0
00002242  202D 9C38                move.l     D0, [A5 - 0x63C8]
00002246  D08C                     add.l      D0, A4
00002248  5480                     addq.l     D0, 2
0000224A  2440                     movea.l    A2, D0
0000224C  3047                     movea.w    A0, D7
0000224E  2008                     move.l     D0, A0
00002250  7200                     moveq.l    D1, 0x00
00002252  3212                     move.w     D1, [A2]
00002254  4C06 1000                mulu.l     D1, D6
00002258  4C40 1801                divs.l     D1:D1, D0
0000225C  3681                     move.w     [A3], D1
0000225E  3047                     movea.w    A0, D7
00002260  2008                     move.l     D0, A0
00002262  7200                     moveq.l    D1, 0x00
00002264  322A 0002                move.w     D1, [A2 + 0x2]
00002268  4C06 1000                mulu.l     D1, D6
0000226C  4C40 1801                divs.l     D1:D1, D0
00002270  3741 0002                move.w     [A3 + 0x2], D1
00002274  3047                     movea.w    A0, D7
00002276  2008                     move.l     D0, A0
00002278  7200                     moveq.l    D1, 0x00
0000227A  322A 0004                move.w     D1, [A2 + 0x4]
0000227E  4C06 1000                mulu.l     D1, D6
00002282  4C40 1801                divs.l     D1:D1, D0
00002286  3741 0004                move.w     [A3 + 0x4], D1
0000228A  5245                     addq.w     D5, 1
0000228C  508C                     addq.l     A4, 8
label0000228E:
0000228E  0C45 00FF                cmpi.w     D5, 0xFF
00002292  6DA4                     blt        -0x5A /* 00002238 */
00002294  4A6D F27E                tst.w      [A5 - 0xD82]
00002298  660C                     bne        +0xE /* 000022A6 */
label0000229A:
0000229A  7001                     moveq.l    D0, 0x01
0000229C  D06D 9B32                add.w      D0, [A5 - 0x64CE]
000022A0  B06D ECD4                cmp.w      D0, [A5 - 0x132C]
000022A4  62F4                     bhi        -0xA /* 0000229A */
label000022A6:
000022A6  4EBA FEC2                jsr        [PC - 0x13E /* 0000216A */]
000022AA  5386                     subq.l     D6, 1
label000022AC:
000022AC  4A86                     tst.l      D6
000022AE  6C00 FF7A                bge        -0x84 /* 0000222A */
000022B2  4EBA F7CE                jsr        [PC - 0x832 /* 00001A82 */]
000022B6  4CDF 1CE0                movem.l    D5,D6,D7,A2,A3,A4, [A7]+
000022BA  4E75                     rts
export_278:
000022BC  48E7 0338                movem.l    -[A7], D6,D7,A2,A3,A4
000022C0  7E00                     moveq.l    D7, 0x00
000022C2  6000 0080                bra        +0x82 /* 00002344 */
label000022C6:
000022C6  3B6D ECD4 9B32           move.w     [A5 - 0x64CE], [A5 - 0x132C]
000022CC  7C01                     moveq.l    D6, 0x01
000022CE  387C 0008                movea.w    A4, 0x8
000022D2  6050                     bra        +0x52 /* 00002324 */
label000022D4:
000022D4  202D 9C3C                move.l     D0, [A5 - 0x63C4]
000022D8  D08C                     add.l      D0, A4
000022DA  5480                     addq.l     D0, 2
000022DC  2640                     movea.l    A3, D0
000022DE  202D 9C38                move.l     D0, [A5 - 0x63C8]
000022E2  D08C                     add.l      D0, A4
000022E4  5480                     addq.l     D0, 2
000022E6  2440                     movea.l    A2, D0
000022E8  700A                     moveq.l    D0, 0x0A
000022EA  7200                     moveq.l    D1, 0x00
000022EC  3212                     move.w     D1, [A2]
000022EE  4C07 1000                mulu.l     D1, D7
000022F2  4C40 1801                divs.l     D1:D1, D0
000022F6  3681                     move.w     [A3], D1
000022F8  700A                     moveq.l    D0, 0x0A
000022FA  7200                     moveq.l    D1, 0x00
000022FC  322A 0002                move.w     D1, [A2 + 0x2]
00002300  4C07 1000                mulu.l     D1, D7
00002304  4C40 1801                divs.l     D1:D1, D0
00002308  3741 0002                move.w     [A3 + 0x2], D1
0000230C  700A                     moveq.l    D0, 0x0A
0000230E  7200                     moveq.l    D1, 0x00
00002310  322A 0004                move.w     D1, [A2 + 0x4]
00002314  4C07 1000                mulu.l     D1, D7
00002318  4C40 1801                divs.l     D1:D1, D0
0000231C  3741 0004                move.w     [A3 + 0x4], D1
00002320  5246                     addq.w     D6, 1
00002322  508C                     addq.l     A4, 8
label00002324:
00002324  0C46 00FF                cmpi.w     D6, 0xFF
00002328  6DAA                     blt        -0x54 /* 000022D4 */
0000232A  4A6D F27E                tst.w      [A5 - 0xD82]
0000232E  660E                     bne        +0x10 /* 0000233E */
label00002330:
00002330  302D 9B32                move.w     D0, [A5 - 0x64CE]
00002334  D06D C9A2                add.w      D0, [A5 - 0x365E]
00002338  B06D ECD4                cmp.w      D0, [A5 - 0x132C]
0000233C  62F2                     bhi        -0xC /* 00002330 */
label0000233E:
0000233E  4EBA FE2A                jsr        [PC - 0x1D6 /* 0000216A */]
00002342  5287                     addq.l     D7, 1
label00002344:
00002344  700A                     moveq.l    D0, 0x0A
00002346  B087                     cmp.l      D0, D7
00002348  6C00 FF7C                bge        -0x82 /* 000022C6 */
0000234C  7C01                     moveq.l    D6, 0x01
0000234E  387C 0008                movea.w    A4, 0x8
00002352  6018                     bra        +0x1A /* 0000236C */
label00002354:
00002354  202D 9C3C                move.l     D0, [A5 - 0x63C4]
00002358  D08C                     add.l      D0, A4
0000235A  5480                     addq.l     D0, 2
0000235C  2640                     movea.l    A3, D0
0000235E  4253                     clr.w      [A3]
00002360  426B 0002                clr.w      [A3 + 0x2]
00002364  426B 0004                clr.w      [A3 + 0x4]
00002368  5246                     addq.w     D6, 1
0000236A  508C                     addq.l     A4, 8
label0000236C:
0000236C  0C46 00FF                cmpi.w     D6, 0xFF
00002370  6DE2                     blt        -0x1C /* 00002354 */
00002372  4CDF 1CC0                movem.l    D6,D7,A2,A3,A4, [A7]+
00002376  4E75                     rts
fn00002378:
00002378  48E7 0738                movem.l    -[A7], D5,D6,D7,A2,A3,A4
0000237C  7E05                     moveq.l    D7, 0x05
0000237E  7C00                     moveq.l    D6, 0x00
00002380  6000 0084                bra        +0x86 /* 00002406 */
label00002384:
00002384  3B6D ECD4 9B32           move.w     [A5 - 0x64CE], [A5 - 0x132C]
0000238A  7A01                     moveq.l    D5, 0x01
0000238C  387C 0008                movea.w    A4, 0x8
00002390  6056                     bra        +0x58 /* 000023E8 */
label00002392:
00002392  202D 9C3C                move.l     D0, [A5 - 0x63C4]
00002396  D08C                     add.l      D0, A4
00002398  5480                     addq.l     D0, 2
0000239A  2640                     movea.l    A3, D0
0000239C  202D 9C38                move.l     D0, [A5 - 0x63C8]
000023A0  D08C                     add.l      D0, A4
000023A2  5480                     addq.l     D0, 2
000023A4  2440                     movea.l    A2, D0
000023A6  3047                     movea.w    A0, D7
000023A8  2008                     move.l     D0, A0
000023AA  7200                     moveq.l    D1, 0x00
000023AC  3212                     move.w     D1, [A2]
000023AE  4C06 1000                mulu.l     D1, D6
000023B2  4C40 1801                divs.l     D1:D1, D0
000023B6  3681                     move.w     [A3], D1
000023B8  3047                     movea.w    A0, D7
000023BA  2008                     move.l     D0, A0
000023BC  7200                     moveq.l    D1, 0x00
000023BE  322A 0002                move.w     D1, [A2 + 0x2]
000023C2  4C06 1000                mulu.l     D1, D6
000023C6  4C40 1801                divs.l     D1:D1, D0
000023CA  3741 0002                move.w     [A3 + 0x2], D1
000023CE  3047                     movea.w    A0, D7
000023D0  2008                     move.l     D0, A0
000023D2  7200                     moveq.l    D1, 0x00
000023D4  322A 0004                move.w     D1, [A2 + 0x4]
000023D8  4C06 1000                mulu.l     D1, D6
000023DC  4C40 1801                divs.l     D1:D1, D0
000023E0  3741 0004                move.w     [A3 + 0x4], D1
000023E4  5245                     addq.w     D5, 1
000023E6  508C                     addq.l     A4, 8
label000023E8:
000023E8  0C45 00FF                cmpi.w     D5, 0xFF
000023EC  6DA4                     blt        -0x5A /* 00002392 */
000023EE  4A6D F27E                tst.w      [A5 - 0xD82]
000023F2  660C                     bne        +0xE /* 00002400 */
label000023F4:
000023F4  7001                     moveq.l    D0, 0x01
000023F6  D06D 9B32                add.w      D0, [A5 - 0x64CE]
000023FA  B06D ECD4                cmp.w      D0, [A5 - 0x132C]
000023FE  62F4                     bhi        -0xA /* 000023F4 */
label00002400:
00002400  4EBA FD68                jsr        [PC - 0x298 /* 0000216A */]
00002404  5286                     addq.l     D6, 1
label00002406:
00002406  3047                     movea.w    A0, D7
00002408  B1C6                     cmpa.l     A0, D6
0000240A  6C00 FF78                bge        -0x86 /* 00002384 */
0000240E  7A01                     moveq.l    D5, 0x01
00002410  387C 0008                movea.w    A4, 0x8
00002414  6018                     bra        +0x1A /* 0000242E */
label00002416:
00002416  202D 9C3C                move.l     D0, [A5 - 0x63C4]
0000241A  D08C                     add.l      D0, A4
0000241C  5480                     addq.l     D0, 2
0000241E  2640                     movea.l    A3, D0
00002420  4253                     clr.w      [A3]
00002422  426B 0002                clr.w      [A3 + 0x2]
00002426  426B 0004                clr.w      [A3 + 0x4]
0000242A  5245                     addq.w     D5, 1
0000242C  508C                     addq.l     A4, 8
label0000242E:
0000242E  0C45 00FF                cmpi.w     D5, 0xFF
00002432  6DE2                     blt        -0x1C /* 00002416 */
00002434  4CDF 1CE0                movem.l    D5,D6,D7,A2,A3,A4, [A7]+
00002438  4E75                     rts
fn0000243A:
0000243A  2F07                     move.l     -[A7], D7
0000243C  206D 9CAE                movea.l    A0, [A5 - 0x6352]
00002440  2068 0002                movea.l    A0, [A0 + 0x2]
00002444  2050                     movea.l    A0, [A0]
00002446  2068 002A                movea.l    A0, [A0 + 0x2A]
0000244A  2050                     movea.l    A0, [A0]
0000244C  2E10                     move.l     D7, [A0]
0000244E  206D 9CA2                movea.l    A0, [A5 - 0x635E]
00002452  2050                     movea.l    A0, [A0]
00002454  2068 002A                movea.l    A0, [A0 + 0x2A]
00002458  2050                     movea.l    A0, [A0]
0000245A  2087                     move.l     [A0], D7
0000245C  2E1F                     move.l     D7, [A7]+
0000245E  4E75                     rts
fn00002460:
00002460  2F07                     move.l     -[A7], D7
00002462  7E01                     moveq.l    D7, 0x01
00002464  6008                     bra        +0xA /* 0000246E */
label00002466:
00002466  3F07                     move.w     -[A7], D7
00002468  4227                     clr.b      -[A7]
0000246A  AA3E                     syscall    ReserveEntry
0000246C  5247                     addq.w     D7, 1
label0000246E:
0000246E  0C47 00FF                cmpi.w     D7, 0xFF
00002472  6DF2                     blt        -0xC /* 00002466 */
00002474  4EBA FFC4                jsr        [PC - 0x3C /* 0000243A */]
00002478  2E1F                     move.l     D7, [A7]+
0000247A  4E75                     rts
fn0000247C:
0000247C  2F07                     move.l     -[A7], D7
0000247E  7E01                     moveq.l    D7, 0x01
00002480  600A                     bra        +0xC /* 0000248C */
label00002482:
00002482  3F07                     move.w     -[A7], D7
00002484  1F3C 0001                move.b     -[A7], 0x1
00002488  AA3E                     syscall    ReserveEntry
0000248A  5247                     addq.w     D7, 1
label0000248C:
0000248C  0C47 00FF                cmpi.w     D7, 0xFF
00002490  6DF0                     blt        -0xE /* 00002482 */
00002492  4EBA FFA6                jsr        [PC - 0x5A /* 0000243A */]
00002496  2E1F                     move.l     D7, [A7]+
00002498  4E75                     rts
export_279:
0000249A  1B7C 0001 9C45           move.b     [A5 - 0x63BB], 0x1
000024A0  4E75                     rts
export_280:
000024A2  48E7 0318                movem.l    -[A7], D6,D7,A3,A4
000024A6  0C6D 0001 9B60           cmpi.w     [A5 - 0x64A0], 0x1
000024AC  6C06                     bge        +0x8 /* 000024B4 */
000024AE  3B7C 0001 9B60           move.w     [A5 - 0x64A0], 0x1
label000024B4:
000024B4  0C6D 00FE 9B62           cmpi.w     [A5 - 0x649E], 0xFE
000024BA  6F06                     ble        +0x8 /* 000024C2 */
000024BC  3B7C 00FE 9B62           move.w     [A5 - 0x649E], 0xFE
label000024C2:
000024C2  49ED EF5A                lea.l      A4, [A5 - 0x10A6]
000024C6  7003                     moveq.l    D0, 0x03
000024C8  C1ED 9B60                muls.w     D0, [A5 - 0x64A0]
000024CC  D8C0                     add.w      A4, D0
000024CE  1E2D 9B61                move.b     D7, [A5 - 0x649F]
000024D2  6036                     bra        +0x38 /* 0000250A */
label000024D4:
000024D4  1C07                     move.b     D6, D7
000024D6  4606                     not.b      D6
000024D8  7000                     moveq.l    D0, 0x00
000024DA  1006                     move.b     D0, D6
000024DC  E788                     lsl        D0, 3
000024DE  5480                     addq.l     D0, 2
000024E0  D0AD 9C38                add.l      D0, [A5 - 0x63C8]
000024E4  2640                     movea.l    A3, D0
000024E6  7000                     moveq.l    D0, 0x00
000024E8  101C                     move.b     D0, [A4]+
000024EA  720A                     moveq.l    D1, 0x0A
000024EC  E368                     lsl        D0.w, D1
000024EE  3680                     move.w     [A3], D0
000024F0  7000                     moveq.l    D0, 0x00
000024F2  101C                     move.b     D0, [A4]+
000024F4  720A                     moveq.l    D1, 0x0A
000024F6  E368                     lsl        D0.w, D1
000024F8  3740 0002                move.w     [A3 + 0x2], D0
000024FC  7000                     moveq.l    D0, 0x00
000024FE  101C                     move.b     D0, [A4]+
00002500  720A                     moveq.l    D1, 0x0A
00002502  E368                     lsl        D0.w, D1
00002504  3740 0004                move.w     [A3 + 0x4], D0
00002508  5207                     addq.b     D7, 1
label0000250A:
0000250A  7000                     moveq.l    D0, 0x00
0000250C  1007                     move.b     D0, D7
0000250E  B06D 9B62                cmp.w      D0, [A5 - 0x649E]
00002512  6FC0                     ble        -0x3E /* 000024D4 */
00002514  4EBA FC32                jsr        [PC - 0x3CE /* 00002148 */]
00002518  4CDF 18C0                movem.l    D6,D7,A3,A4, [A7]+
0000251C  4E75                     rts
fn0000251E:
0000251E  4E56 FFCE                link       A6, -0x0032
00002522  48E7 1F08                movem.l    -[A7], D3,D4,D5,D6,D7,A4
00002526  422E FFD3                clr.b      [A6 - 0x2D]
0000252A  7000                     moveq.l    D0, 0x00
0000252C  102D 9C51                move.b     D0, [A5 - 0x63AF]
00002530  3D40 FFCE                move.w     [A6 - 0x32], D0
00002534  0240 0002                andi.w     D0, 0x2
00002538  57C0                     seq        D0
0000253A  4400                     neg.b      D0
0000253C  1D40 FFD2                move.b     [A6 - 0x2E], D0
00002540  082E 0000 FFCF           btst.b     [A6 - 0x31], 0x0
00002546  57C7                     seq        D7
00002548  4407                     neg.b      D7
0000254A  306D C938                movea.w    A0, [A5 - 0x36C8]
0000254E  2F08                     move.l     -[A7], A0
00002550  486E FFFA                pea.l      [A6 - 0x6]
00002554  4EAD 0BDA                jsr        [A5 + 0xBDA /* export_375, CODE:6 @ 000017AA */]
00002558  486E FFFA                pea.l      [A6 - 0x6]
0000255C  2F3C 0000 0CA5           move.l     -[A7], 0xCA5
00002562  2F3C 0000 0CA7           move.l     -[A7], 0xCA7
00002568  2F3C 0000 0CA9           move.l     -[A7], 0xCA9
0000256E  A98B                     syscall    ParamText
00002570  4A6D C960                tst.w      [A5 - 0x36A0]
00002574  57C0                     seq        D0
00002576  4400                     neg.b      D0
00002578  1D40 FFCE                move.b     [A6 - 0x32], D0
0000257C  7A09                     moveq.l    D5, 0x09
0000257E  9A2D C977                sub.b      D5, [A5 - 0x3689]
00002582  4A05                     tst.b      D5
00002584  6C02                     bge        +0x4 /* 00002588 */
00002586  7A00                     moveq.l    D5, 0x00
label00002588:
00002588  0C05 0009                cmpi.b     D5, 0x9 /* '\t' */
0000258C  6F02                     ble        +0x4 /* 00002590 */
0000258E  7A09                     moveq.l    D5, 0x09
label00002590:
00002590  1605                     move.b     D3, D5
00002592  49C3                     lea.l      A4, D3
00002594  C7FC 000B                muls.w     D3, 0xB
00002598  4A43                     tst.w      D3
0000259A  6702                     beq        +0x4 /* 0000259E */
0000259C  5243                     addq.w     D3, 1
label0000259E:
0000259E  42A7                     clr.l      -[A7]
000025A0  3F3C 03E8                move.w     -[A7], 0x3E8
000025A4  42A7                     clr.l      -[A7]
000025A6  4878 FFFF                push.l     0xFFFF
000025AA  A97C                     syscall    GetNewDialog
000025AC  285F                     movea.l    A4, [A7]+
000025AE  7C01                     moveq.l    D6, 0x01
000025B0  1D46 FFD1                move.b     [A6 - 0x2F], D6
000025B4  2F0C                     move.l     -[A7], A4
000025B6  3F3C 0008                move.w     -[A7], 0x8
000025BA  486E FFF6                pea.l      [A6 - 0xA]
000025BE  486E FFF0                pea.l      [A6 - 0x10]
000025C2  486E FFE0                pea.l      [A6 - 0x20]
000025C6  A98D                     syscall    GetDialogItem/GetDItem
000025C8  2F2E FFF0                move.l     -[A7], [A6 - 0x10]
000025CC  102E FFD1                move.b     D0, [A6 - 0x2F]
000025D0  49C0                     lea.l      A4, D0
000025D2  3F00                     move.w     -[A7], D0
000025D4  A963                     syscall    SetControlValue/SetCtlValue
000025D6  4A6D 9FA6                tst.w      [A5 - 0x605A]
000025DA  6604                     bne        +0x6 /* 000025E0 */
000025DC  4EBA 1746                jsr        [PC + 0x1746 /* 00003D24 */]
label000025E0:
000025E0  4A6D 9FA6                tst.w      [A5 - 0x605A]
000025E4  6708                     beq        +0xA /* 000025EE */
000025E6  7CFF                     moveq.l    D6, 0xFFFFFFFF
000025E8  DC2D 9FA7                add.b      D6, [A5 - 0x6059]
000025EC  6002                     bra        +0x4 /* 000025F0 */
label000025EE:
000025EE  7C00                     moveq.l    D6, 0x00
label000025F0:
000025F0  1806                     move.b     D4, D6
000025F2  49C4                     lea.l      A4, D4
000025F4  C9FC 001B                muls.w     D4, 0x1B
000025F8  2F0C                     move.l     -[A7], A4
000025FA  3F3C 000A                move.w     -[A7], 0xA /* '\n' */
000025FE  486E FFF6                pea.l      [A6 - 0xA]
00002602  486E FFF0                pea.l      [A6 - 0x10]
00002606  486E FFE0                pea.l      [A6 - 0x20]
0000260A  A98D                     syscall    GetDialogItem/GetDItem
0000260C  2F0C                     move.l     -[A7], A4
0000260E  3F3C 0009                move.w     -[A7], 0x9 /* '\t' */
00002612  486E FFF4                pea.l      [A6 - 0xC]
00002616  486E FFEC                pea.l      [A6 - 0x14]
0000261A  486E FFD8                pea.l      [A6 - 0x28]
0000261E  A98D                     syscall    GetDialogItem/GetDItem
00002620  302E FFE2                move.w     D0, [A6 - 0x1E]
00002624  916E FFE6                sub.w      [A6 - 0x1A], D0
00002628  700B                     moveq.l    D0, 0x0B
0000262A  D06E FFDA                add.w      D0, [A6 - 0x26]
0000262E  D044                     add.w      D0, D4
00002630  3D40 FFE2                move.w     [A6 - 0x1E], D0
00002634  302E FFE2                move.w     D0, [A6 - 0x1E]
00002638  D16E FFE6                add.w      [A6 - 0x1A], D0
0000263C  2F0C                     move.l     -[A7], A4
0000263E  3F3C 000A                move.w     -[A7], 0xA /* '\n' */
00002642  3F2E FFF6                move.w     -[A7], [A6 - 0xA]
00002646  2F2E FFF0                move.l     -[A7], [A6 - 0x10]
0000264A  486E FFE0                pea.l      [A6 - 0x20]
0000264E  A98E                     syscall    SetDialogItem/SetDItem
00002650  2F0C                     move.l     -[A7], A4
00002652  3F3C 0003                move.w     -[A7], 0x3
00002656  486E FFF6                pea.l      [A6 - 0xA]
0000265A  486E FFF0                pea.l      [A6 - 0x10]
0000265E  486E FFE0                pea.l      [A6 - 0x20]
00002662  A98D                     syscall    GetDialogItem/GetDItem
00002664  2F2E FFF0                move.l     -[A7], [A6 - 0x10]
00002668  102E FFD2                move.b     D0, [A6 - 0x2E]
0000266C  49C0                     lea.l      A4, D0
0000266E  3F00                     move.w     -[A7], D0
00002670  A963                     syscall    SetControlValue/SetCtlValue
00002672  2F0C                     move.l     -[A7], A4
00002674  3F3C 0004                move.w     -[A7], 0x4
00002678  486E FFF6                pea.l      [A6 - 0xA]
0000267C  486E FFF0                pea.l      [A6 - 0x10]
00002680  486E FFE0                pea.l      [A6 - 0x20]
00002684  A98D                     syscall    GetDialogItem/GetDItem
00002686  2F2E FFF0                move.l     -[A7], [A6 - 0x10]
0000268A  1007                     move.b     D0, D7
0000268C  49C0                     lea.l      A4, D0
0000268E  3F00                     move.w     -[A7], D0
00002690  A963                     syscall    SetControlValue/SetCtlValue
00002692  4A2E FFD2                tst.b      [A6 - 0x2E]
00002696  660A                     bne        +0xC /* 000026A2 */
00002698  2F2E FFF0                move.l     -[A7], [A6 - 0x10]
0000269C  3F3C 00FF                move.w     -[A7], 0xFF
000026A0  A95D                     syscall    HiliteControl
label000026A2:
000026A2  2F0C                     move.l     -[A7], A4
000026A4  3F3C 0007                move.w     -[A7], 0x7
000026A8  486E FFF6                pea.l      [A6 - 0xA]
000026AC  486E FFF0                pea.l      [A6 - 0x10]
000026B0  486E FFE0                pea.l      [A6 - 0x20]
000026B4  A98D                     syscall    GetDialogItem/GetDItem
000026B6  2F2E FFF0                move.l     -[A7], [A6 - 0x10]
000026BA  102E FFCE                move.b     D0, [A6 - 0x32]
000026BE  49C0                     lea.l      A4, D0
000026C0  3F00                     move.w     -[A7], D0
000026C2  A963                     syscall    SetControlValue/SetCtlValue
000026C4  2F0C                     move.l     -[A7], A4
000026C6  3F3C 0006                move.w     -[A7], 0x6
000026CA  486E FFF6                pea.l      [A6 - 0xA]
000026CE  486E FFF0                pea.l      [A6 - 0x10]
000026D2  486E FFE0                pea.l      [A6 - 0x20]
000026D6  A98D                     syscall    GetDialogItem/GetDItem
000026D8  2F0C                     move.l     -[A7], A4
000026DA  3F3C 0005                move.w     -[A7], 0x5
000026DE  486E FFF4                pea.l      [A6 - 0xC]
000026E2  486E FFEC                pea.l      [A6 - 0x14]
000026E6  486E FFD8                pea.l      [A6 - 0x28]
000026EA  A98D                     syscall    GetDialogItem/GetDItem
000026EC  302E FFE2                move.w     D0, [A6 - 0x1E]
000026F0  916E FFE6                sub.w      [A6 - 0x1A], D0
000026F4  302E FFDA                move.w     D0, [A6 - 0x26]
000026F8  D043                     add.w      D0, D3
000026FA  5A40                     addq.w     D0, 5
000026FC  3D40 FFE2                move.w     [A6 - 0x1E], D0
00002700  302E FFE2                move.w     D0, [A6 - 0x1E]
00002704  D16E FFE6                add.w      [A6 - 0x1A], D0
00002708  2F0C                     move.l     -[A7], A4
0000270A  3F3C 0006                move.w     -[A7], 0x6
0000270E  3F2E FFF6                move.w     -[A7], [A6 - 0xA]
00002712  2F2E FFF0                move.l     -[A7], [A6 - 0x10]
00002716  486E FFE0                pea.l      [A6 - 0x20]
0000271A  A98E                     syscall    SetDialogItem/SetDItem
0000271C  A850                     syscall    InitCursor
0000271E  6000 036C                bra        +0x36E /* 00002A8C */
label00002722:
00002722  42A7                     clr.l      -[A7]
00002724  486E FFF8                pea.l      [A6 - 0x8]
00002728  A991                     syscall    ModalDialog
0000272A  302E FFF8                move.w     D0, [A6 - 0x8]
0000272E  0C40 000A                cmpi.w     D0, 0xA /* '\n' */
00002732  6200 0358                bhi        +0x35A /* 00002A8C */
00002736  43FA 0368                lea.l      A1, [PC + 0x368 /* 00002AA0, value 0xFFECFCA0 */]
0000273A  D2F1 0200                add.w      A1, [A1 + D0.w * 2]
0000273E  4ED1                     jmp        [A1]
00002740  1005                     move.b     D0, D5
00002742  49C0                     lea.l      A4, D0
00002744  7209                     moveq.l    D1, 0x09
00002746  9240                     sub.w      D1, D0
00002748  3B41 C976                move.w     [A5 - 0x368A], D1
0000274C  4A6D C976                tst.w      [A5 - 0x368A]
00002750  6C04                     bge        +0x6 /* 00002756 */
00002752  426D C976                clr.w      [A5 - 0x368A]
label00002756:
00002756  0C6D 0009 C976           cmpi.w     [A5 - 0x368A], 0x9 /* '\t' */
0000275C  6F06                     ble        +0x8 /* 00002764 */
0000275E  3B7C 0009 C976           move.w     [A5 - 0x368A], 0x9 /* '\t' */
label00002764:
00002764  4A07                     tst.b      D7
00002766  57C0                     seq        D0
00002768  4400                     neg.b      D0
0000276A  4A2E FFD2                tst.b      [A6 - 0x2E]
0000276E  57C1                     seq        D1
00002770  4401                     neg.b      D1
00002772  D201                     add.b      D1, D1
00002774  8001                     or.b       D0, D1
00002776  1B40 9C51                move.b     [A5 - 0x63AF], D0
0000277A  4EBA 18E8                jsr        [PC + 0x18E8 /* 00004064 */]
0000277E  4A2E FFCE                tst.b      [A6 - 0x32]
00002782  57C0                     seq        D0
00002784  4400                     neg.b      D0
00002786  49C0                     lea.l      A4, D0
00002788  3B40 C960                move.w     [A5 - 0x36A0], D0
0000278C  1006                     move.b     D0, D6
0000278E  49C0                     lea.l      A4, D0
00002790  5240                     addq.w     D0, 1
00002792  3B40 9FA6                move.w     [A5 - 0x605A], D0
00002796  1D7C 0001 FFD3           move.b     [A6 - 0x2D], 0x1
0000279C  6000 02EE                bra        +0x2F0 /* 00002A8C */
000027A0  1D7C 0001 FFD3           move.b     [A6 - 0x2D], 0x1
000027A6  6000 02E4                bra        +0x2E6 /* 00002A8C */
000027AA  2F0C                     move.l     -[A7], A4
000027AC  3F2E FFF8                move.w     -[A7], [A6 - 0x8]
000027B0  486E FFF6                pea.l      [A6 - 0xA]
000027B4  486E FFF0                pea.l      [A6 - 0x10]
000027B8  486E FFE0                pea.l      [A6 - 0x20]
000027BC  A98D                     syscall    GetDialogItem/GetDItem
000027BE  4A2E FFD2                tst.b      [A6 - 0x2E]
000027C2  57C0                     seq        D0
000027C4  4400                     neg.b      D0
000027C6  1D40 FFD2                move.b     [A6 - 0x2E], D0
000027CA  2F2E FFF0                move.l     -[A7], [A6 - 0x10]
000027CE  49C0                     lea.l      A4, D0
000027D0  3F00                     move.w     -[A7], D0
000027D2  A963                     syscall    SetControlValue/SetCtlValue
000027D4  2F0C                     move.l     -[A7], A4
000027D6  3F3C 0004                move.w     -[A7], 0x4
000027DA  486E FFF6                pea.l      [A6 - 0xA]
000027DE  486E FFF0                pea.l      [A6 - 0x10]
000027E2  486E FFE0                pea.l      [A6 - 0x20]
000027E6  A98D                     syscall    GetDialogItem/GetDItem
000027E8  4A2E FFD2                tst.b      [A6 - 0x2E]
000027EC  670C                     beq        +0xE /* 000027FA */
000027EE  7E01                     moveq.l    D7, 0x01
000027F0  2F2E FFF0                move.l     -[A7], [A6 - 0x10]
000027F4  4267                     clr.w      -[A7]
000027F6  A95D                     syscall    HiliteControl
000027F8  600C                     bra        +0xE /* 00002806 */
label000027FA:
000027FA  7E00                     moveq.l    D7, 0x00
000027FC  2F2E FFF0                move.l     -[A7], [A6 - 0x10]
00002800  3F3C 00FF                move.w     -[A7], 0xFF
00002804  A95D                     syscall    HiliteControl
label00002806:
00002806  2F2E FFF0                move.l     -[A7], [A6 - 0x10]
0000280A  1007                     move.b     D0, D7
0000280C  49C0                     lea.l      A4, D0
0000280E  3F00                     move.w     -[A7], D0
00002810  A963                     syscall    SetControlValue/SetCtlValue
00002812  6000 0278                bra        +0x27A /* 00002A8C */
00002816  2F0C                     move.l     -[A7], A4
00002818  3F2E FFF8                move.w     -[A7], [A6 - 0x8]
0000281C  486E FFF6                pea.l      [A6 - 0xA]
00002820  486E FFF0                pea.l      [A6 - 0x10]
00002824  486E FFE0                pea.l      [A6 - 0x20]
00002828  A98D                     syscall    GetDialogItem/GetDItem
0000282A  4A07                     tst.b      D7
0000282C  57C7                     seq        D7
0000282E  4407                     neg.b      D7
00002830  2F2E FFF0                move.l     -[A7], [A6 - 0x10]
00002834  1007                     move.b     D0, D7
00002836  49C0                     lea.l      A4, D0
00002838  3F00                     move.w     -[A7], D0
0000283A  A963                     syscall    SetControlValue/SetCtlValue
0000283C  6000 024E                bra        +0x250 /* 00002A8C */
00002840  2F0C                     move.l     -[A7], A4
00002842  3F3C 0005                move.w     -[A7], 0x5
00002846  486E FFF4                pea.l      [A6 - 0xC]
0000284A  486E FFEC                pea.l      [A6 - 0x14]
0000284E  486E FFD8                pea.l      [A6 - 0x28]
00002852  A98D                     syscall    GetDialogItem/GetDItem
00002854  2F0C                     move.l     -[A7], A4
00002856  3F3C 0006                move.w     -[A7], 0x6
0000285A  486E FFF6                pea.l      [A6 - 0xA]
0000285E  486E FFF0                pea.l      [A6 - 0x10]
00002862  486E FFE0                pea.l      [A6 - 0x20]
00002866  A98D                     syscall    GetDialogItem/GetDItem
00002868  486E FFD4                pea.l      [A6 - 0x2C]
0000286C  A874                     syscall    GetPort
0000286E  2F0C                     move.l     -[A7], A4
00002870  A873                     syscall    SetPort
00002872  3A03                     move.w     D5, D3
00002874  6058                     bra        +0x5A /* 000028CE */
label00002876:
00002876  A9B4                     syscall    SystemTask
00002878  486E FFE8                pea.l      [A6 - 0x18]
0000287C  A972                     syscall    GetMouse
0000287E  362E FFEA                move.w     D3, [A6 - 0x16]
00002882  966E FFDA                sub.w      D3, [A6 - 0x26]
00002886  0643 FFF7                addi.w     D3, 0xFFF7
0000288A  4A43                     tst.w      D3
0000288C  6C02                     bge        +0x4 /* 00002890 */
0000288E  7600                     moveq.l    D3, 0x00
label00002890:
00002890  0C43 0064                cmpi.w     D3, 0x64 /* 'd' */
00002894  6F02                     ble        +0x4 /* 00002898 */
00002896  7664                     moveq.l    D3, 0x64
label00002898:
00002898  BA43                     cmp.w      D5, D3
0000289A  6732                     beq        +0x34 /* 000028CE */
0000289C  302E FFE2                move.w     D0, [A6 - 0x1E]
000028A0  916E FFE6                sub.w      [A6 - 0x1A], D0
000028A4  302E FFDA                move.w     D0, [A6 - 0x26]
000028A8  D043                     add.w      D0, D3
000028AA  5A40                     addq.w     D0, 5
000028AC  3D40 FFE2                move.w     [A6 - 0x1E], D0
000028B0  302E FFE2                move.w     D0, [A6 - 0x1E]
000028B4  D16E FFE6                add.w      [A6 - 0x1A], D0
000028B8  2F2E FFEC                move.l     -[A7], [A6 - 0x14]
000028BC  486E FFD8                pea.l      [A6 - 0x28]
000028C0  A8F6                     syscall    DrawPicture
000028C2  2F2E FFF0                move.l     -[A7], [A6 - 0x10]
000028C6  486E FFE0                pea.l      [A6 - 0x20]
000028CA  A8F6                     syscall    DrawPicture
000028CC  3A03                     move.w     D5, D3
label000028CE:
000028CE  4227                     clr.b      -[A7]
000028D0  A973                     syscall    StillDown
000028D2  4A1F                     tst.b      [A7]+
000028D4  66A0                     bne        -0x5E /* 00002876 */
000028D6  4A43                     tst.w      D3
000028D8  6702                     beq        +0x4 /* 000028DC */
000028DA  5343                     subq.w     D3, 1
label000028DC:
000028DC  3043                     movea.w    A0, D3
000028DE  7A05                     moveq.l    D5, 0x05
000028E0  DA88                     add.l      D5, A0
000028E2  8BFC 000B                divs.w     D5, 0xB
000028E6  1605                     move.b     D3, D5
000028E8  49C3                     lea.l      A4, D3
000028EA  C7FC 000B                muls.w     D3, 0xB
000028EE  4A43                     tst.w      D3
000028F0  6702                     beq        +0x4 /* 000028F4 */
000028F2  5243                     addq.w     D3, 1
label000028F4:
000028F4  302E FFE2                move.w     D0, [A6 - 0x1E]
000028F8  916E FFE6                sub.w      [A6 - 0x1A], D0
000028FC  302E FFDA                move.w     D0, [A6 - 0x26]
00002900  D043                     add.w      D0, D3
00002902  5A40                     addq.w     D0, 5
00002904  3D40 FFE2                move.w     [A6 - 0x1E], D0
00002908  302E FFE2                move.w     D0, [A6 - 0x1E]
0000290C  D16E FFE6                add.w      [A6 - 0x1A], D0
00002910  2F2E FFEC                move.l     -[A7], [A6 - 0x14]
00002914  486E FFD8                pea.l      [A6 - 0x28]
00002918  A8F6                     syscall    DrawPicture
0000291A  2F2E FFF0                move.l     -[A7], [A6 - 0x10]
0000291E  486E FFE0                pea.l      [A6 - 0x20]
00002922  A8F6                     syscall    DrawPicture
00002924  2F2E FFD4                move.l     -[A7], [A6 - 0x2C]
00002928  A873                     syscall    SetPort
0000292A  2F0C                     move.l     -[A7], A4
0000292C  3F3C 0006                move.w     -[A7], 0x6
00002930  3F2E FFF6                move.w     -[A7], [A6 - 0xA]
00002934  2F2E FFF0                move.l     -[A7], [A6 - 0x10]
00002938  486E FFE0                pea.l      [A6 - 0x20]
0000293C  A98E                     syscall    SetDialogItem/SetDItem
0000293E  6000 014C                bra        +0x14E /* 00002A8C */
00002942  2F0C                     move.l     -[A7], A4
00002944  3F3C 0009                move.w     -[A7], 0x9 /* '\t' */
00002948  486E FFF4                pea.l      [A6 - 0xC]
0000294C  486E FFEC                pea.l      [A6 - 0x14]
00002950  486E FFD8                pea.l      [A6 - 0x28]
00002954  A98D                     syscall    GetDialogItem/GetDItem
00002956  2F0C                     move.l     -[A7], A4
00002958  3F3C 000A                move.w     -[A7], 0xA /* '\n' */
0000295C  486E FFF6                pea.l      [A6 - 0xA]
00002960  486E FFF0                pea.l      [A6 - 0x10]
00002964  486E FFE0                pea.l      [A6 - 0x20]
00002968  A98D                     syscall    GetDialogItem/GetDItem
0000296A  486E FFD4                pea.l      [A6 - 0x2C]
0000296E  A874                     syscall    GetPort
00002970  2F0C                     move.l     -[A7], A4
00002972  A873                     syscall    SetPort
00002974  3C04                     move.w     D6, D4
00002976  6058                     bra        +0x5A /* 000029D0 */
label00002978:
00002978  A9B4                     syscall    SystemTask
0000297A  486E FFE8                pea.l      [A6 - 0x18]
0000297E  A972                     syscall    GetMouse
00002980  382E FFEA                move.w     D4, [A6 - 0x16]
00002984  986E FFDA                sub.w      D4, [A6 - 0x26]
00002988  0644 FFF7                addi.w     D4, 0xFFF7
0000298C  4A44                     tst.w      D4
0000298E  6C02                     bge        +0x4 /* 00002992 */
00002990  7800                     moveq.l    D4, 0x00
label00002992:
00002992  0C44 0040                cmpi.w     D4, 0x40 /* '@' */
00002996  6F02                     ble        +0x4 /* 0000299A */
00002998  7840                     moveq.l    D4, 0x40
label0000299A:
0000299A  BC44                     cmp.w      D6, D4
0000299C  6732                     beq        +0x34 /* 000029D0 */
0000299E  302E FFE2                move.w     D0, [A6 - 0x1E]
000029A2  916E FFE6                sub.w      [A6 - 0x1A], D0
000029A6  302E FFDA                move.w     D0, [A6 - 0x26]
000029AA  D044                     add.w      D0, D4
000029AC  5A40                     addq.w     D0, 5
000029AE  3D40 FFE2                move.w     [A6 - 0x1E], D0
000029B2  302E FFE2                move.w     D0, [A6 - 0x1E]
000029B6  D16E FFE6                add.w      [A6 - 0x1A], D0
000029BA  2F2E FFEC                move.l     -[A7], [A6 - 0x14]
000029BE  486E FFD8                pea.l      [A6 - 0x28]
000029C2  A8F6                     syscall    DrawPicture
000029C4  2F2E FFF0                move.l     -[A7], [A6 - 0x10]
000029C8  486E FFE0                pea.l      [A6 - 0x20]
000029CC  A8F6                     syscall    DrawPicture
000029CE  3C04                     move.w     D6, D4
label000029D0:
000029D0  4227                     clr.b      -[A7]
000029D2  A973                     syscall    StillDown
000029D4  4A1F                     tst.b      [A7]+
000029D6  66A0                     bne        -0x5E /* 00002978 */
000029D8  3044                     movea.w    A0, D4
000029DA  7C08                     moveq.l    D6, 0x08
000029DC  DC88                     add.l      D6, A0
000029DE  8DFC 001B                divs.w     D6, 0x1B
000029E2  1806                     move.b     D4, D6
000029E4  49C4                     lea.l      A4, D4
000029E6  C9FC 001B                muls.w     D4, 0x1B
000029EA  302E FFE2                move.w     D0, [A6 - 0x1E]
000029EE  916E FFE6                sub.w      [A6 - 0x1A], D0
000029F2  700B                     moveq.l    D0, 0x0B
000029F4  D06E FFDA                add.w      D0, [A6 - 0x26]
000029F8  D044                     add.w      D0, D4
000029FA  3D40 FFE2                move.w     [A6 - 0x1E], D0
000029FE  302E FFE2                move.w     D0, [A6 - 0x1E]
00002A02  D16E FFE6                add.w      [A6 - 0x1A], D0
00002A06  2F2E FFEC                move.l     -[A7], [A6 - 0x14]
00002A0A  486E FFD8                pea.l      [A6 - 0x28]
00002A0E  A8F6                     syscall    DrawPicture
00002A10  2F2E FFF0                move.l     -[A7], [A6 - 0x10]
00002A14  486E FFE0                pea.l      [A6 - 0x20]
00002A18  A8F6                     syscall    DrawPicture
00002A1A  2F2E FFD4                move.l     -[A7], [A6 - 0x2C]
00002A1E  A873                     syscall    SetPort
00002A20  2F0C                     move.l     -[A7], A4
00002A22  3F3C 000A                move.w     -[A7], 0xA /* '\n' */
00002A26  3F2E FFF6                move.w     -[A7], [A6 - 0xA]
00002A2A  2F2E FFF0                move.l     -[A7], [A6 - 0x10]
00002A2E  486E FFE0                pea.l      [A6 - 0x20]
00002A32  A98E                     syscall    SetDialogItem/SetDItem
00002A34  6056                     bra        +0x58 /* 00002A8C */
00002A36  2F0C                     move.l     -[A7], A4
00002A38  3F2E FFF8                move.w     -[A7], [A6 - 0x8]
00002A3C  486E FFF6                pea.l      [A6 - 0xA]
00002A40  486E FFF0                pea.l      [A6 - 0x10]
00002A44  486E FFE0                pea.l      [A6 - 0x20]
00002A48  A98D                     syscall    GetDialogItem/GetDItem
00002A4A  4A2E FFCE                tst.b      [A6 - 0x32]
00002A4E  57C0                     seq        D0
00002A50  4400                     neg.b      D0
00002A52  1D40 FFCE                move.b     [A6 - 0x32], D0
00002A56  2F2E FFF0                move.l     -[A7], [A6 - 0x10]
00002A5A  49C0                     lea.l      A4, D0
00002A5C  3F00                     move.w     -[A7], D0
00002A5E  A963                     syscall    SetControlValue/SetCtlValue
00002A60  602A                     bra        +0x2C /* 00002A8C */
00002A62  2F0C                     move.l     -[A7], A4
00002A64  3F2E FFF8                move.w     -[A7], [A6 - 0x8]
00002A68  486E FFF6                pea.l      [A6 - 0xA]
00002A6C  486E FFF0                pea.l      [A6 - 0x10]
00002A70  486E FFE0                pea.l      [A6 - 0x20]
00002A74  A98D                     syscall    GetDialogItem/GetDItem
00002A76  4A2E FFD1                tst.b      [A6 - 0x2F]
00002A7A  57C0                     seq        D0
00002A7C  4400                     neg.b      D0
00002A7E  1D40 FFD1                move.b     [A6 - 0x2F], D0
00002A82  2F2E FFF0                move.l     -[A7], [A6 - 0x10]
00002A86  49C0                     lea.l      A4, D0
00002A88  3F00                     move.w     -[A7], D0
00002A8A  A963                     syscall    SetControlValue/SetCtlValue
label00002A8C:
00002A8C  4A2E FFD3                tst.b      [A6 - 0x2D]
00002A90  6700 FC90                beq        -0x36E /* 00002722 */
00002A94  2F0C                     move.l     -[A7], A4
00002A96  A983                     syscall    DisposeDialog
00002A98  4CDF 10F8                movem.l    D3,D4,D5,D6,D7,A4, [A7]+
00002A9C  4E5E                     unlink     A6
00002A9E  4E75                     rts
00002AA0  FFEC                     .invalid   <<F/7/7>>
00002AA2  FCA0 FD00                .extension 0xCA0 <<F/2-3/6>> // unimplemented
00002AA6  FD0A                     .extension 0xD0A <<F/4-5/6>> // unimplemented
00002AA8  FD76                     .extension 0xD76 <<F/4-5/6>> // unimplemented
00002AAA  FDA0                     .invalid   <<F/6/6>>
00002AAC  FDA0                     .invalid   <<F/6/6>>
00002AAE  FF96                     .invalid   <<F/6/7>>
00002AB0  FFC2                     .invalid   <<F/7/7>>
00002AB2  FEA2 FEA2                .extension 0xEA2 <<F/2-3/7>> // unimplemented
fn00002AB6:
00002AB6  4E56 FEC2                link       A6, -0x013E
00002ABA  48E7 0108                movem.l    -[A7], D7,A4
00002ABE  422D 9EA0                clr.b      [A5 - 0x6160]
00002AC2  302D 9C76                move.w     D0, [A5 - 0x638A]
00002AC6  D06D 9C7A                add.w      D0, [A5 - 0x6386]
00002ACA  48C0                     ext.l      D0
00002ACC  81FC 0002                divs.w     D0, 0x2
00002AD0  3D40 FF8C                move.w     [A6 - 0x74], D0
00002AD4  302D 9C74                move.w     D0, [A5 - 0x638C]
00002AD8  D06D 9C78                add.w      D0, [A5 - 0x6388]
00002ADC  48C0                     ext.l      D0
00002ADE  81FC 0002                divs.w     D0, 0x2
00002AE2  3D40 FF8A                move.w     [A6 - 0x76], D0
00002AE6  486E FF8A                pea.l      [A6 - 0x76]
00002AEA  302E FF8C                move.w     D0, [A6 - 0x74]
00002AEE  0640 FF38                addi.w     D0, 0xFF38
00002AF2  3F00                     move.w     -[A7], D0
00002AF4  70B5                     moveq.l    D0, 0xFFFFFFB5
00002AF6  D06E FF8A                add.w      D0, [A6 - 0x76]
00002AFA  3F00                     move.w     -[A7], D0
00002AFC  302E FF8C                move.w     D0, [A6 - 0x74]
00002B00  0640 00C8                addi.w     D0, 0xC8
00002B04  3F00                     move.w     -[A7], D0
00002B06  704B                     moveq.l    D0, 0x4B
00002B08  D06E FF8A                add.w      D0, [A6 - 0x76]
00002B0C  3F00                     move.w     -[A7], D0
00002B0E  A8A7                     syscall    SetRect
00002B10  42A7                     clr.l      -[A7]
00002B12  486E FEC6                pea.l      [A6 - 0x13A]
00002B16  486E FF8A                pea.l      [A6 - 0x76]
00002B1A  2F3C 0000 0CAB           move.l     -[A7], 0xCAB
00002B20  2F3C 0001 0100           move.l     -[A7], 0x10100
00002B26  4878 FFFF                push.l     0xFFFF
00002B2A  4227                     clr.b      -[A7]
00002B2C  42A7                     clr.l      -[A7]
00002B2E  AA45                     syscall    NewCWindow
00002B30  285F                     movea.l    A4, [A7]+
00002B32  2F0C                     move.l     -[A7], A4
00002B34  A873                     syscall    SetPort
00002B36  2F0C                     move.l     -[A7], A4
00002B38  A91F                     syscall    SelectWindow
00002B3A  2F0C                     move.l     -[A7], A4
00002B3C  A873                     syscall    SetPort
00002B3E  4267                     clr.w      -[A7]
00002B40  A887                     syscall    TextFont
00002B42  4EBA 077A                jsr        [PC + 0x77A /* 000032BE */]
00002B46  486E FF8A                pea.l      [A6 - 0x76]
00002B4A  42A7                     clr.l      -[A7]
00002B4C  2F3C 00C8 0190           move.l     -[A7], 0xC80190
00002B52  A8A7                     syscall    SetRect
00002B54  486D F9C4                pea.l      [A5 - 0x63C]
00002B58  A89D                     syscall    PenPat
00002B5A  486E FF8A                pea.l      [A6 - 0x76]
00002B5E  A8A2                     syscall    PaintRect
00002B60  486E FF8A                pea.l      [A6 - 0x76]
00002B64  4878 003E                push.l     0x3E /* '>' */
00002B68  2F3C 00A1 0151           move.l     -[A7], 0xA10151
00002B6E  A8A7                     syscall    SetRect
00002B70  42A7                     clr.l      -[A7]
00002B72  2F3C 5049 4354           move.l     -[A7], 0x50494354 /* 'PICT' */
00002B78  3F3C 1388                move.w     -[A7], 0x1388
00002B7C  A9A0                     syscall    GetResource
00002B7E  486E FF8A                pea.l      [A6 - 0x76]
00002B82  A8F6                     syscall    DrawPicture
00002B84  6002                     bra        +0x4 /* 00002B88 */
label00002B86:
00002B86  A9B4                     syscall    SystemTask
label00002B88:
00002B88  4227                     clr.b      -[A7]
00002B8A  A974                     syscall    Button
00002B8C  4A1F                     tst.b      [A7]+
00002B8E  66F6                     bne        -0x8 /* 00002B86 */
00002B90  42A7                     clr.l      -[A7]
00002B92  4878 00C8                push.l     0xC8
00002B96  4EBA 0748                jsr        [PC + 0x748 /* 000032E0 */]
00002B9A  5540                     subq.w     D0, 2
00002B9C  508F                     addq.l     A7, 8
00002B9E  6700 0664                beq        +0x666 /* 00003204 */
00002BA2  3F3C 000B                move.w     -[A7], 0xB
00002BA6  A89C                     syscall    PenMode
00002BA8  486E FF8A                pea.l      [A6 - 0x76]
00002BAC  42A7                     clr.l      -[A7]
00002BAE  2F3C 00C8 0190           move.l     -[A7], 0xC80190
00002BB4  A8A7                     syscall    SetRect
00002BB6  486D F9B4                pea.l      [A5 - 0x64C]
00002BBA  A89D                     syscall    PenPat
00002BBC  486E FF8A                pea.l      [A6 - 0x76]
00002BC0  A8A2                     syscall    PaintRect
00002BC2  42A7                     clr.l      -[A7]
00002BC4  4878 0004                push.l     0x4
00002BC8  4EBA 0716                jsr        [PC + 0x716 /* 000032E0 */]
00002BCC  5540                     subq.w     D0, 2
00002BCE  508F                     addq.l     A7, 8
00002BD0  6700 0632                beq        +0x634 /* 00003204 */
00002BD4  486D F9BC                pea.l      [A5 - 0x644]
00002BD8  A89D                     syscall    PenPat
00002BDA  486E FF8A                pea.l      [A6 - 0x76]
00002BDE  A8A2                     syscall    PaintRect
00002BE0  42A7                     clr.l      -[A7]
00002BE2  4878 0004                push.l     0x4
00002BE6  4EBA 06F8                jsr        [PC + 0x6F8 /* 000032E0 */]
00002BEA  5540                     subq.w     D0, 2
00002BEC  508F                     addq.l     A7, 8
00002BEE  6700 0614                beq        +0x616 /* 00003204 */
00002BF2  486D F9AC                pea.l      [A5 - 0x654]
00002BF6  A89D                     syscall    PenPat
00002BF8  486E FF8A                pea.l      [A6 - 0x76]
00002BFC  A8A2                     syscall    PaintRect
00002BFE  42A7                     clr.l      -[A7]
00002C00  4878 0004                push.l     0x4
00002C04  4EBA 06DA                jsr        [PC + 0x6DA /* 000032E0 */]
00002C08  5540                     subq.w     D0, 2
00002C0A  508F                     addq.l     A7, 8
00002C0C  6700 05F6                beq        +0x5F8 /* 00003204 */
00002C10  486D F9C4                pea.l      [A5 - 0x63C]
00002C14  A89D                     syscall    PenPat
00002C16  486E FF8A                pea.l      [A6 - 0x76]
00002C1A  A8A2                     syscall    PaintRect
00002C1C  3F3C 0008                move.w     -[A7], 0x8
00002C20  A89C                     syscall    PenMode
00002C22  4EBA 069A                jsr        [PC + 0x69A /* 000032BE */]
00002C26  3F3C 0003                move.w     -[A7], 0x3
00002C2A  A887                     syscall    TextFont
00002C2C  3F3C 0009                move.w     -[A7], 0x9 /* '\t' */
00002C30  A88A                     syscall    TextSize
00002C32  3F3C 0001                move.w     -[A7], 0x1
00002C36  A888                     syscall    TextFace
00002C38  2F3C 0001 0000           move.l     -[A7], 0x10000
00002C3E  2F3C 00C8 004E           move.l     -[A7], 0xC8004E
00002C44  2F3C 0000 0CB1           move.l     -[A7], 0xCB1
00002C4A  4EBA 05D8                jsr        [PC + 0x5D8 /* 00003224 */]
00002C4E  4FEF 000C                lea.l      A7, [A7 + 0xC]
00002C52  6002                     bra        +0x4 /* 00002C56 */
label00002C54:
00002C54  A9B4                     syscall    SystemTask
label00002C56:
00002C56  4227                     clr.b      -[A7]
00002C58  A974                     syscall    Button
00002C5A  4A1F                     tst.b      [A7]+
00002C5C  66F6                     bne        -0x8 /* 00002C54 */
00002C5E  42A7                     clr.l      -[A7]
00002C60  4878 0078                push.l     0x78 /* 'x' */
00002C64  4EBA 067A                jsr        [PC + 0x67A /* 000032E0 */]
00002C68  5540                     subq.w     D0, 2
00002C6A  508F                     addq.l     A7, 8
00002C6C  6700 0596                beq        +0x598 /* 00003204 */
00002C70  4EBA 064C                jsr        [PC + 0x64C /* 000032BE */]
00002C74  486D F9BC                pea.l      [A5 - 0x644]
00002C78  A89D                     syscall    PenPat
00002C7A  7E01                     moveq.l    D7, 0x01
00002C7C  486E FF8A                pea.l      [A6 - 0x76]
00002C80  2F3C 008C 0050           move.l     -[A7], 0x8C0050
00002C86  2F3C 008C 0050           move.l     -[A7], 0x8C0050
00002C8C  A8A7                     syscall    SetRect
00002C8E  6032                     bra        +0x34 /* 00002CC2 */
label00002C90:
00002C90  7005                     moveq.l    D0, 0x05
00002C92  C1C7                     muls.w     D0, D7
00002C94  D16E FF90                add.w      [A6 - 0x70], D0
00002C98  7005                     moveq.l    D0, 0x05
00002C9A  C1C7                     muls.w     D0, D7
00002C9C  916E FF8C                sub.w      [A6 - 0x74], D0
00002CA0  536E FF8A                subq.w     [A6 - 0x76], 1
00002CA4  526E FF8E                addq.w     [A6 - 0x72], 1
00002CA8  5247                     addq.w     D7, 1
00002CAA  486E FF8A                pea.l      [A6 - 0x76]
00002CAE  A8B8                     syscall    PaintOval
00002CB0  42A7                     clr.l      -[A7]
00002CB2  4878 0014                push.l     0x14
00002CB6  4EBA 0628                jsr        [PC + 0x628 /* 000032E0 */]
00002CBA  5540                     subq.w     D0, 2
00002CBC  508F                     addq.l     A7, 8
00002CBE  6700 0544                beq        +0x546 /* 00003204 */
label00002CC2:
00002CC2  302E FF90                move.w     D0, [A6 - 0x70]
00002CC6  906E FF8C                sub.w      D0, [A6 - 0x74]
00002CCA  0C40 0078                cmpi.w     D0, 0x78 /* 'x' */
00002CCE  6DC0                     blt        -0x3E /* 00002C90 */
00002CD0  486D F9C4                pea.l      [A5 - 0x63C]
00002CD4  A89D                     syscall    PenPat
00002CD6  486E FF8A                pea.l      [A6 - 0x76]
00002CDA  2F3C 0002 0000           move.l     -[A7], 0x20000
00002CE0  2F3C 006E 009F           move.l     -[A7], 0x6E009F
00002CE6  A8A7                     syscall    SetRect
00002CE8  4EBA F776                jsr        [PC - 0x88A /* 00002460 */]
00002CEC  302E FF8E                move.w     D0, [A6 - 0x72]
00002CF0  916E FF8A                sub.w      [A6 - 0x76], D0
00002CF4  426E FF8E                clr.w      [A6 - 0x72]
00002CF8  601C                     bra        +0x1E /* 00002D16 */
label00002CFA:
00002CFA  506E FF8A                addq.w     [A6 - 0x76], 8
00002CFE  506E FF8E                addq.w     [A6 - 0x72], 8
00002D02  42A7                     clr.l      -[A7]
00002D04  2F3C 5049 4354           move.l     -[A7], 0x50494354 /* 'PICT' */
00002D0A  3F3C 1389                move.w     -[A7], 0x1389
00002D0E  A9A0                     syscall    GetResource
00002D10  486E FF8A                pea.l      [A6 - 0x76]
00002D14  A8F6                     syscall    DrawPicture
label00002D16:
00002D16  0C6E 0002 FF8A           cmpi.w     [A6 - 0x76], 0x2
00002D1C  6DDC                     blt        -0x22 /* 00002CFA */
00002D1E  4EBA F75C                jsr        [PC - 0x8A4 /* 0000247C */]
00002D22  2D6E FF8A FF82           move.l     [A6 - 0x7E], [A6 - 0x76]
00002D28  2D6E FF8E FF86           move.l     [A6 - 0x7A], [A6 - 0x72]
00002D2E  3D6E FF82 FF86           move.w     [A6 - 0x7A], [A6 - 0x7E]
00002D34  426E FF82                clr.w      [A6 - 0x7E]
00002D38  486E FF82                pea.l      [A6 - 0x7E]
00002D3C  A8A3                     syscall    EraseRect
00002D3E  556E FF8A                subq.w     [A6 - 0x76], 2
00002D42  546E FF8E                addq.w     [A6 - 0x72], 2
00002D46  6040                     bra        +0x42 /* 00002D88 */
label00002D48:
00002D48  2D6E FF8A FF82           move.l     [A6 - 0x7E], [A6 - 0x76]
00002D4E  2D6E FF8E FF86           move.l     [A6 - 0x7A], [A6 - 0x72]
00002D54  5C6E FF8A                addq.w     [A6 - 0x76], 6
00002D58  5C6E FF8E                addq.w     [A6 - 0x72], 6
00002D5C  206C 0002                movea.l    A0, [A4 + 0x2]
00002D60  2F10                     move.l     -[A7], [A0]
00002D62  206C 0002                movea.l    A0, [A4 + 0x2]
00002D66  2F10                     move.l     -[A7], [A0]
00002D68  486E FF82                pea.l      [A6 - 0x7E]
00002D6C  486E FF8A                pea.l      [A6 - 0x76]
00002D70  4267                     clr.w      -[A7]
00002D72  42A7                     clr.l      -[A7]
00002D74  A8EC                     syscall    CopyBits
00002D76  42A7                     clr.l      -[A7]
00002D78  4878 0001                push.l     0x1
00002D7C  4EBA 0562                jsr        [PC + 0x562 /* 000032E0 */]
00002D80  5540                     subq.w     D0, 2
00002D82  508F                     addq.l     A7, 8
00002D84  6700 047E                beq        +0x480 /* 00003204 */
label00002D88:
00002D88  0C6E 0032 FF8A           cmpi.w     [A6 - 0x76], 0x32 /* '2' */
00002D8E  6DB8                     blt        -0x46 /* 00002D48 */
00002D90  42A7                     clr.l      -[A7]
00002D92  4878 001E                push.l     0x1E
00002D96  4EBA 0548                jsr        [PC + 0x548 /* 000032E0 */]
00002D9A  5540                     subq.w     D0, 2
00002D9C  508F                     addq.l     A7, 8
00002D9E  6700 0464                beq        +0x466 /* 00003204 */
00002DA2  3F3C 0003                move.w     -[A7], 0x3
00002DA6  A887                     syscall    TextFont
00002DA8  3F3C 000C                move.w     -[A7], 0xC
00002DAC  A88A                     syscall    TextSize
00002DAE  3F3C 000B                move.w     -[A7], 0xB
00002DB2  A888                     syscall    TextFace
00002DB4  4878 0001                push.l     0x1
00002DB8  4878 0011                push.l     0x11
00002DBC  2F3C 0000 0CBB           move.l     -[A7], 0xCBB
00002DC2  4EBA 0460                jsr        [PC + 0x460 /* 00003224 */]
00002DC6  7001                     moveq.l    D0, 0x01
00002DC8  2E80                     move.l     [A7], D0
00002DCA  2F3C 0028 002B           move.l     -[A7], 0x28002B /* '(\0+' */
00002DD0  2F3C 0000 0CC7           move.l     -[A7], 0xCC7
00002DD6  4EBA 044C                jsr        [PC + 0x44C /* 00003224 */]
00002DDA  3EBC 0009                move.w     [A7], 0x9 /* '\t' */
00002DDE  A88A                     syscall    TextSize
00002DE0  3EBC 0001                move.w     [A7], 0x1
00002DE4  A888                     syscall    TextFace
00002DE6  2EBC 0001 0000           move.l     [A7], 0x10000
00002DEC  2F3C 005A 001C           move.l     -[A7], 0x5A001C
00002DF2  2F3C 0000 0CD7           move.l     -[A7], 0xCD7
00002DF8  4EBA 042A                jsr        [PC + 0x42A /* 00003224 */]
00002DFC  3E2D C9C2                move.w     D7, [A5 - 0x363E]
00002E00  4257                     clr.w      [A7]
00002E02  A888                     syscall    TextFace
00002E04  2EBC 0002 0000           move.l     [A7], 0x20000
00002E0A  2F3C 0190 0087           move.l     -[A7], 0x1900087
00002E10  2F3C 0000 0CDB           move.l     -[A7], 0xCDB
00002E16  4EBA 040C                jsr        [PC + 0x40C /* 00003224 */]
00002E1A  2EBC 0002 0000           move.l     [A7], 0x20000
00002E20  2F3C 0190 0094           move.l     -[A7], 0x1900094
00002E26  2F3C 0000 0D09           move.l     -[A7], 0xD09 /* '\r\t' */
00002E2C  4EBA 03F6                jsr        [PC + 0x3F6 /* 00003224 */]
00002E30  4FEF 0026                lea.l      A7, [A7 + 0x26]
00002E34  6002                     bra        +0x4 /* 00002E38 */
label00002E36:
00002E36  A9B4                     syscall    SystemTask
label00002E38:
00002E38  4227                     clr.b      -[A7]
00002E3A  A974                     syscall    Button
00002E3C  4A1F                     tst.b      [A7]+
00002E3E  66F6                     bne        -0x8 /* 00002E36 */
00002E40  42A7                     clr.l      -[A7]
00002E42  4878 0190                push.l     0x190
00002E46  4EBA 0498                jsr        [PC + 0x498 /* 000032E0 */]
00002E4A  5540                     subq.w     D0, 2
00002E4C  508F                     addq.l     A7, 8
00002E4E  6700 03B4                beq        +0x3B6 /* 00003204 */
00002E52  486E FF8A                pea.l      [A6 - 0x76]
00002E56  4878 00AE                push.l     0xAE
00002E5A  2F3C 00C8 0190           move.l     -[A7], 0xC80190
00002E60  A8A7                     syscall    SetRect
00002E62  486D F9CC                pea.l      [A5 - 0x634]
00002E66  A89D                     syscall    PenPat
00002E68  486E FF8A                pea.l      [A6 - 0x76]
00002E6C  A8A2                     syscall    PaintRect
00002E6E  2F3C 0188 008E           move.l     -[A7], 0x188008E
00002E74  2F3C 00AE 0008           move.l     -[A7], 0xAE0008
00002E7A  4EBA 03D8                jsr        [PC + 0x3D8 /* 00003254 */]
00002E7E  3EBC 0003                move.w     [A7], 0x3
00002E82  A887                     syscall    TextFont
00002E84  3EBC 0009                move.w     [A7], 0x9 /* '\t' */
00002E88  A88A                     syscall    TextSize
00002E8A  4257                     clr.w      [A7]
00002E8C  A888                     syscall    TextFace
00002E8E  2F3C 0001 0000           move.l     -[A7], 0x10000
00002E94  2F3C 011B 0041           move.l     -[A7], 0x11B0041
00002E9A  2F3C 0000 0D1F           move.l     -[A7], 0xD1F
00002EA0  4EBA 0382                jsr        [PC + 0x382 /* 00003224 */]
00002EA4  4257                     clr.w      [A7]
00002EA6  A887                     syscall    TextFont
00002EA8  3EBC 000C                move.w     [A7], 0xC
00002EAC  A88A                     syscall    TextSize
00002EAE  3EBC 000B                move.w     [A7], 0xB
00002EB2  A888                     syscall    TextFace
00002EB4  2EBC 0001 0001           move.l     [A7], 0x10001
00002EBA  2F3C 011B 0052           move.l     -[A7], 0x11B0052
00002EC0  2F3C 0000 0D35           move.l     -[A7], 0xD35 /* '\r5' */
00002EC6  4EBA 035C                jsr        [PC + 0x35C /* 00003224 */]
00002ECA  4FEF 0010                lea.l      A7, [A7 + 0x10]
00002ECE  6002                     bra        +0x4 /* 00002ED2 */
label00002ED0:
00002ED0  A9B4                     syscall    SystemTask
label00002ED2:
00002ED2  4227                     clr.b      -[A7]
00002ED4  A974                     syscall    Button
00002ED6  4A1F                     tst.b      [A7]+
00002ED8  66F6                     bne        -0x8 /* 00002ED0 */
00002EDA  42A7                     clr.l      -[A7]
00002EDC  4878 00F0                push.l     0xF0
00002EE0  4EBA 03FE                jsr        [PC + 0x3FE /* 000032E0 */]
00002EE4  5540                     subq.w     D0, 2
00002EE6  508F                     addq.l     A7, 8
00002EE8  6700 031A                beq        +0x31C /* 00003204 */
00002EEC  2F3C 0188 008E           move.l     -[A7], 0x188008E
00002EF2  2F3C 00AE 0008           move.l     -[A7], 0xAE0008
00002EF8  4EBA 035A                jsr        [PC + 0x35A /* 00003254 */]
00002EFC  3EBC 0003                move.w     [A7], 0x3
00002F00  A887                     syscall    TextFont
00002F02  3EBC 0009                move.w     [A7], 0x9 /* '\t' */
00002F06  A88A                     syscall    TextSize
00002F08  4257                     clr.w      [A7]
00002F0A  A888                     syscall    TextFace
00002F0C  2F3C 0001 0000           move.l     -[A7], 0x10000
00002F12  2F3C 011B 0032           move.l     -[A7], 0x11B0032
00002F18  2F3C 0000 0D43           move.l     -[A7], 0xD43 /* '\rC' */
00002F1E  4EBA 0304                jsr        [PC + 0x304 /* 00003224 */]
00002F22  2EBC 0001 0000           move.l     [A7], 0x10000
00002F28  2F3C 011B 0058           move.l     -[A7], 0x11B0058
00002F2E  2F3C 0000 0D4F           move.l     -[A7], 0xD4F /* '\rO' */
00002F34  4EBA 02EE                jsr        [PC + 0x2EE /* 00003224 */]
00002F38  4257                     clr.w      [A7]
00002F3A  A887                     syscall    TextFont
00002F3C  3EBC 000C                move.w     [A7], 0xC
00002F40  A88A                     syscall    TextSize
00002F42  3EBC 000B                move.w     [A7], 0xB
00002F46  A888                     syscall    TextFace
00002F48  2EBC 0001 0001           move.l     [A7], 0x10001
00002F4E  2F3C 011B 0043           move.l     -[A7], 0x11B0043
00002F54  2F3C 0000 0D6D           move.l     -[A7], 0xD6D /* '\rm' */
00002F5A  4EBA 02C8                jsr        [PC + 0x2C8 /* 00003224 */]
00002F5E  2EBC 0001 0001           move.l     [A7], 0x10001
00002F64  2F3C 011B 0069           move.l     -[A7], 0x11B0069
00002F6A  2F3C 0000 0D79           move.l     -[A7], 0xD79 /* '\ry' */
00002F70  4EBA 02B2                jsr        [PC + 0x2B2 /* 00003224 */]
00002F74  4FEF 0020                lea.l      A7, [A7 + 0x20]
00002F78  6002                     bra        +0x4 /* 00002F7C */
label00002F7A:
00002F7A  A9B4                     syscall    SystemTask
label00002F7C:
00002F7C  4227                     clr.b      -[A7]
00002F7E  A974                     syscall    Button
00002F80  4A1F                     tst.b      [A7]+
00002F82  66F6                     bne        -0x8 /* 00002F7A */
00002F84  42A7                     clr.l      -[A7]
00002F86  4878 00F0                push.l     0xF0
00002F8A  4EBA 0354                jsr        [PC + 0x354 /* 000032E0 */]
00002F8E  5540                     subq.w     D0, 2
00002F90  508F                     addq.l     A7, 8
00002F92  6700 0270                beq        +0x272 /* 00003204 */
00002F96  2F3C 0188 008E           move.l     -[A7], 0x188008E
00002F9C  2F3C 00AE 0008           move.l     -[A7], 0xAE0008
00002FA2  4EBA 02B0                jsr        [PC + 0x2B0 /* 00003254 */]
00002FA6  3EBC 0003                move.w     [A7], 0x3
00002FAA  A887                     syscall    TextFont
00002FAC  3EBC 0009                move.w     [A7], 0x9 /* '\t' */
00002FB0  A88A                     syscall    TextSize
00002FB2  4257                     clr.w      [A7]
00002FB4  A888                     syscall    TextFace
00002FB6  2F3C 0001 0000           move.l     -[A7], 0x10000
00002FBC  2F3C 011B 002D           move.l     -[A7], 0x11B002D
00002FC2  2F3C 0000 0D87           move.l     -[A7], 0xD87
00002FC8  4EBA 025A                jsr        [PC + 0x25A /* 00003224 */]
00002FCC  2EBC 0001 0000           move.l     [A7], 0x10000
00002FD2  2F3C 011B 0037           move.l     -[A7], 0x11B0037
00002FD8  2F3C 0000 0D9B           move.l     -[A7], 0xD9B
00002FDE  4EBA 0244                jsr        [PC + 0x244 /* 00003224 */]
00002FE2  2EBC 0001 0000           move.l     [A7], 0x10000
00002FE8  2F3C 011B 005A           move.l     -[A7], 0x11B005A
00002FEE  2F3C 0000 0DA7           move.l     -[A7], 0xDA7
00002FF4  4EBA 022E                jsr        [PC + 0x22E /* 00003224 */]
00002FF8  4257                     clr.w      [A7]
00002FFA  A887                     syscall    TextFont
00002FFC  3EBC 000C                move.w     [A7], 0xC
00003000  A88A                     syscall    TextSize
00003002  3EBC 000B                move.w     [A7], 0xB
00003006  A888                     syscall    TextFace
00003008  2EBC 0001 0001           move.l     [A7], 0x10001
0000300E  2F3C 0102 004D           move.l     -[A7], 0x102004D
00003014  2F3C 0000 0DAB           move.l     -[A7], 0xDAB
0000301A  4EBA 0208                jsr        [PC + 0x208 /* 00003224 */]
0000301E  2EBC 0001 0001           move.l     [A7], 0x10001
00003024  2F3C 012A 006B           move.l     -[A7], 0x12A006B
0000302A  2F3C 0000 0DB7           move.l     -[A7], 0xDB7
00003030  4EBA 01F2                jsr        [PC + 0x1F2 /* 00003224 */]
00003034  4FEF 0028                lea.l      A7, [A7 + 0x28]
00003038  6002                     bra        +0x4 /* 0000303C */
label0000303A:
0000303A  A9B4                     syscall    SystemTask
label0000303C:
0000303C  4227                     clr.b      -[A7]
0000303E  A974                     syscall    Button
00003040  4A1F                     tst.b      [A7]+
00003042  66F6                     bne        -0x8 /* 0000303A */
00003044  42A7                     clr.l      -[A7]
00003046  4878 00F0                push.l     0xF0
0000304A  4EBA 0294                jsr        [PC + 0x294 /* 000032E0 */]
0000304E  5540                     subq.w     D0, 2
00003050  508F                     addq.l     A7, 8
00003052  6700 01B0                beq        +0x1B2 /* 00003204 */
00003056  2F3C 0188 008E           move.l     -[A7], 0x188008E
0000305C  2F3C 00AE 0008           move.l     -[A7], 0xAE0008
00003062  4EBA 01F0                jsr        [PC + 0x1F0 /* 00003254 */]
00003066  3EBC 0003                move.w     [A7], 0x3
0000306A  A887                     syscall    TextFont
0000306C  3EBC 0009                move.w     [A7], 0x9 /* '\t' */
00003070  A88A                     syscall    TextSize
00003072  4257                     clr.w      [A7]
00003074  A888                     syscall    TextFace
00003076  2F3C 0001 0000           move.l     -[A7], 0x10000
0000307C  2F3C 011B 0037           move.l     -[A7], 0x11B0037
00003082  2F3C 0000 0DC7           move.l     -[A7], 0xDC7
00003088  4EBA 019A                jsr        [PC + 0x19A /* 00003224 */]
0000308C  4297                     clr.l      [A7]
0000308E  2F3C 0107 0049           move.l     -[A7], 0x1070049
00003094  2F3C 0000 0DEB           move.l     -[A7], 0xDEB
0000309A  4EBA 0188                jsr        [PC + 0x188 /* 00003224 */]
0000309E  4297                     clr.l      [A7]
000030A0  2F3C 0107 0067           move.l     -[A7], 0x1070067
000030A6  2F3C 0000 0DFD           move.l     -[A7], 0xDFD
000030AC  4EBA 0176                jsr        [PC + 0x176 /* 00003224 */]
000030B0  3EBC 0003                move.w     [A7], 0x3
000030B4  A887                     syscall    TextFont
000030B6  2EBC 0002 0000           move.l     [A7], 0x20000
000030BC  2F3C 00FD 0049           move.l     -[A7], 0xFD0049
000030C2  2F3C 0000 0E0F           move.l     -[A7], 0xE0F
000030C8  4EBA 015A                jsr        [PC + 0x15A /* 00003224 */]
000030CC  2EBC 0002 0000           move.l     [A7], 0x20000
000030D2  2F3C 00FD 0067           move.l     -[A7], 0xFD0067
000030D8  2F3C 0000 0E21           move.l     -[A7], 0xE21
000030DE  4EBA 0144                jsr        [PC + 0x144 /* 00003224 */]
000030E2  4297                     clr.l      [A7]
000030E4  2F3C 0107 0053           move.l     -[A7], 0x1070053
000030EA  2F3C 0000 0E31           move.l     -[A7], 0xE31
000030F0  4EBA 0132                jsr        [PC + 0x132 /* 00003224 */]
000030F4  4257                     clr.w      [A7]
000030F6  A887                     syscall    TextFont
000030F8  4FEF 0032                lea.l      A7, [A7 + 0x32]
000030FC  6002                     bra        +0x4 /* 00003100 */
label000030FE:
000030FE  A9B4                     syscall    SystemTask
label00003100:
00003100  4227                     clr.b      -[A7]
00003102  A974                     syscall    Button
00003104  4A1F                     tst.b      [A7]+
00003106  66F6                     bne        -0x8 /* 000030FE */
00003108  42A7                     clr.l      -[A7]
0000310A  4878 0320                push.l     0x320
0000310E  4EBA 01D0                jsr        [PC + 0x1D0 /* 000032E0 */]
00003112  5540                     subq.w     D0, 2
00003114  508F                     addq.l     A7, 8
00003116  6700 00EC                beq        +0xEE /* 00003204 */
0000311A  2F3C 0188 008E           move.l     -[A7], 0x188008E
00003120  2F3C 00AE 0008           move.l     -[A7], 0xAE0008
00003126  4EBA 012C                jsr        [PC + 0x12C /* 00003254 */]
0000312A  3EBC 0003                move.w     [A7], 0x3
0000312E  A887                     syscall    TextFont
00003130  3EBC 0009                move.w     [A7], 0x9 /* '\t' */
00003134  A88A                     syscall    TextSize
00003136  4257                     clr.w      [A7]
00003138  A888                     syscall    TextFace
0000313A  2F3C 0001 0000           move.l     -[A7], 0x10000
00003140  2F3C 011B 0032           move.l     -[A7], 0x11B0032
00003146  2F3C 0000 0E4B           move.l     -[A7], 0xE4B
0000314C  4EBA 00D6                jsr        [PC + 0xD6 /* 00003224 */]
00003150  4297                     clr.l      [A7]
00003152  2F3C 0130 0041           move.l     -[A7], 0x1300041
00003158  2F3C 0000 0E6F           move.l     -[A7], 0xE6F
0000315E  4EBA 00C4                jsr        [PC + 0xC4 /* 00003224 */]
00003162  4297                     clr.l      [A7]
00003164  2F3C 0130 004B           move.l     -[A7], 0x130004B
0000316A  2F3C 0000 0E81           move.l     -[A7], 0xE81
00003170  4EBA 00B2                jsr        [PC + 0xB2 /* 00003224 */]
00003174  3EBC 0003                move.w     [A7], 0x3
00003178  A887                     syscall    TextFont
0000317A  2EBC 0002 0000           move.l     [A7], 0x20000
00003180  2F3C 0126 0041           move.l     -[A7], 0x1260041
00003186  2F3C 0000 0E93           move.l     -[A7], 0xE93
0000318C  4EBA 0096                jsr        [PC + 0x96 /* 00003224 */]
00003190  2EBC 0002 0000           move.l     [A7], 0x20000
00003196  2F3C 0126 004B           move.l     -[A7], 0x126004B
0000319C  2F3C 0000 0EAF           move.l     -[A7], 0xEAF
000031A2  4EBA 0080                jsr        [PC + 0x80 /* 00003224 */]
000031A6  2EBC 0001 0000           move.l     [A7], 0x10000
000031AC  2F3C 011B 005A           move.l     -[A7], 0x11B005A
000031B2  2F3C 0000 0EBF           move.l     -[A7], 0xEBF
000031B8  4EBA 006A                jsr        [PC + 0x6A /* 00003224 */]
000031BC  2EBC 0001 0000           move.l     [A7], 0x10000
000031C2  2F3C 011B 0064           move.l     -[A7], 0x11B0064
000031C8  2F3C 0000 0EEF           move.l     -[A7], 0xEEF
000031CE  4EBA 0054                jsr        [PC + 0x54 /* 00003224 */]
000031D2  2EBC 0001 0000           move.l     [A7], 0x10000
000031D8  2F3C 011B 006E           move.l     -[A7], 0x11B006E
000031DE  2F3C 0000 0F1B           move.l     -[A7], 0xF1B
000031E4  4EBA 003E                jsr        [PC + 0x3E /* 00003224 */]
000031E8  4FEF 0044                lea.l      A7, [A7 + 0x44]
000031EC  6002                     bra        +0x4 /* 000031F0 */
label000031EE:
000031EE  A9B4                     syscall    SystemTask
label000031F0:
000031F0  4227                     clr.b      -[A7]
000031F2  A974                     syscall    Button
000031F4  4A1F                     tst.b      [A7]+
000031F6  66F6                     bne        -0x8 /* 000031EE */
000031F8  42A7                     clr.l      -[A7]
000031FA  4878 FFFF                push.l     0xFFFF
000031FE  4EBA 00E0                jsr        [PC + 0xE0 /* 000032E0 */]
00003202  508F                     addq.l     A7, 8
label00003204:
00003204  2F3C 0000 FFFF           move.l     -[A7], 0xFFFF
0000320A  201F                     move.l     D0, [A7]+
0000320C  A032                     syscall    FlushEvents
0000320E  2F0C                     move.l     -[A7], A4
00003210  A914                     syscall    DisposeWindow
00003212  422D 9C4B                clr.b      [A5 - 0x63B5]
00003216  2F2D 9CAE                move.l     -[A7], [A5 - 0x6352]
0000321A  A873                     syscall    SetPort
0000321C  4CDF 1080                movem.l    D7,A4, [A7]+
00003220  4E5E                     unlink     A6
00003222  4E75                     rts
fn00003224:
00003224  4E56 0000                link       A6, 0
00003228  4267                     clr.w      -[A7]
0000322A  2F2E 0008                move.l     -[A7], [A6 + 0x8]
0000322E  A88C                     syscall    StringWidth
00003230  301F                     move.w     D0, [A7]+
00003232  E240                     asr        D0.w, 1
00003234  C1EE 0010                muls.w     D0, [A6 + 0x10]
00003238  916E 000C                sub.w      [A6 + 0xC], D0
0000323C  4A6E 0012                tst.w      [A6 + 0x12]
00003240  3F2E 000C                move.w     -[A7], [A6 + 0xC]
00003244  3F2E 000E                move.w     -[A7], [A6 + 0xE]
00003248  A893                     syscall    MoveTo
0000324A  2F2E 0008                move.l     -[A7], [A6 + 0x8]
0000324E  A884                     syscall    DrawString
00003250  4E5E                     unlink     A6
00003252  4E75                     rts
fn00003254:
00003254  4E56 FFF8                link       A6, -0x0008
00003258  2F07                     move.l     -[A7], D7
0000325A  7E14                     moveq.l    D7, 0x14
0000325C  302E 000E                move.w     D0, [A6 + 0xE]
00003260  906E 000A                sub.w      D0, [A6 + 0xA]
00003264  0C40 0014                cmpi.w     D0, 0x14
00003268  6C02                     bge        +0x4 /* 0000326C */
0000326A  7E08                     moveq.l    D7, 0x08
label0000326C:
0000326C  486E FFF8                pea.l      [A6 - 0x8]
00003270  3F2E 0008                move.w     -[A7], [A6 + 0x8]
00003274  3F2E 000A                move.w     -[A7], [A6 + 0xA]
00003278  3F2E 000C                move.w     -[A7], [A6 + 0xC]
0000327C  3F2E 000E                move.w     -[A7], [A6 + 0xE]
00003280  A8A7                     syscall    SetRect
00003282  486D F9CC                pea.l      [A5 - 0x634]
00003286  A89D                     syscall    PenPat
00003288  486E FFF8                pea.l      [A6 - 0x8]
0000328C  2F3C 0001 0001           move.l     -[A7], 0x10001
00003292  A8A9                     syscall    InsetRect
00003294  486E FFF8                pea.l      [A6 - 0x8]
00003298  3F07                     move.w     -[A7], D7
0000329A  3F07                     move.w     -[A7], D7
0000329C  A8B1                     syscall    PaintRoundRect
0000329E  486E FFF8                pea.l      [A6 - 0x8]
000032A2  4878 FFFF                push.l     0xFFFF
000032A6  A8A9                     syscall    InsetRect
000032A8  486D F9C4                pea.l      [A5 - 0x63C]
000032AC  A89D                     syscall    PenPat
000032AE  486E FFF8                pea.l      [A6 - 0x8]
000032B2  3F07                     move.w     -[A7], D7
000032B4  3F07                     move.w     -[A7], D7
000032B6  A8B0                     syscall    FrameRoundRect
000032B8  2E1F                     move.l     D7, [A7]+
000032BA  4E5E                     unlink     A6
000032BC  4E75                     rts
fn000032BE:
000032BE  4E56 FFF0                link       A6, -0x0010
000032C2  486E FFF8                pea.l      [A6 - 0x8]
000032C6  42A7                     clr.l      -[A7]
000032C8  2F3C 00C8 0190           move.l     -[A7], 0xC80190
000032CE  A8A7                     syscall    SetRect
000032D0  486D F9CC                pea.l      [A5 - 0x634]
000032D4  A89D                     syscall    PenPat
000032D6  486E FFF8                pea.l      [A6 - 0x8]
000032DA  A8A2                     syscall    PaintRect
000032DC  4E5E                     unlink     A6
000032DE  4E75                     rts
fn000032E0:
000032E0  4E56 FFE8                link       A6, -0x0018
000032E4  48E7 0700                movem.l    -[A7], D5,D6,D7
000032E8  2E2E 0008                move.l     D7, [A6 + 0x8]
000032EC  4A87                     tst.l      D7
000032EE  6D04                     blt        +0x6 /* 000032F4 */
000032F0  6010                     bra        +0x12 /* 00003302 */
label000032F2:
000032F2  A9B4                     syscall    SystemTask
label000032F4:
000032F4  4227                     clr.b      -[A7]
000032F6  A974                     syscall    Button
000032F8  4A1F                     tst.b      [A7]+
000032FA  67F6                     beq        -0x8 /* 000032F2 */
000032FC  7001                     moveq.l    D0, 0x01
000032FE  6000 00E0                bra        +0xE2 /* 000033E0 */
label00003302:
00003302  42A7                     clr.l      -[A7]
00003304  A975                     syscall    TickCount
00003306  DE9F                     add.l      D7, [A7]+
00003308  7C00                     moveq.l    D6, 0x00
label0000330A:
0000330A  42A7                     clr.l      -[A7]
0000330C  A975                     syscall    TickCount
0000330E  BE9F                     cmp.l      D7, [A7]+
00003310  6300 00CC                bls        +0xCE /* 000033DE */
00003314  4A46                     tst.w      D6
00003316  6600 00C6                bne        +0xC8 /* 000033DE */
0000331A  A9B4                     syscall    SystemTask
0000331C  4227                     clr.b      -[A7]
0000331E  A974                     syscall    Button
00003320  4A1F                     tst.b      [A7]+
00003322  6702                     beq        +0x4 /* 00003326 */
00003324  7C01                     moveq.l    D6, 0x01
label00003326:
00003326  4227                     clr.b      -[A7]
00003328  3F3C FFFF                move.w     -[A7], 0xFFFF
0000332C  486E FFEC                pea.l      [A6 - 0x14]
00003330  42A7                     clr.l      -[A7]
00003332  42A7                     clr.l      -[A7]
00003334  A860                     syscall    WaitNextEvent
00003336  4A1F                     tst.b      [A7]+
00003338  67D0                     beq        -0x2E /* 0000330A */
0000333A  302E FFEC                move.w     D0, [A6 - 0x14]
0000333E  67CA                     beq        -0x34 /* 0000330A */
00003340  6BC8                     bmi        -0x36 /* 0000330A */
00003342  5740                     subq.w     D0, 3
00003344  6736                     beq        +0x38 /* 0000337C */
00003346  6A06                     bpl        +0x8 /* 0000334E */
00003348  5240                     addq.w     D0, 1
0000334A  6ABE                     bpl        -0x40 /* 0000330A */
0000334C  602A                     bra        +0x2C /* 00003378 */
label0000334E:
0000334E  5940                     subq.w     D0, 4
00003350  6702                     beq        +0x4 /* 00003354 */
00003352  60B6                     bra        -0x48 /* 0000330A */
label00003354:
00003354  E8EE 0010 FFEE           bftst      [A6 - 0x12] {0:16}
0000335A  67AE                     beq        -0x50 /* 0000330A */
0000335C  7064                     moveq.l    D0, 0x64
0000335E  3D40 FFE8                move.w     [A6 - 0x18], D0
00003362  3D40 FFEA                move.w     [A6 - 0x16], D0
00003366  4267                     clr.w      -[A7]
00003368  2F2E FFE8                move.l     -[A7], [A6 - 0x18]
0000336C  2F2E FFEE                move.l     -[A7], [A6 - 0x12]
00003370  4EAD 0BD2                jsr        [A5 + 0xBD2 /* export_374, CODE:6 @ 000017A4 */]
00003374  548F                     addq.l     A7, 2
00003376  6092                     bra        -0x6C /* 0000330A */
label00003378:
00003378  7C01                     moveq.l    D6, 0x01
0000337A  608E                     bra        -0x70 /* 0000330A */
label0000337C:
0000337C  7AFF                     moveq.l    D5, 0xFFFFFFFF
0000337E  CA2E FFF1                and.b      D5, [A6 - 0xF]
00003382  082E 0000 FFFA           btst.b     [A6 - 0x6], 0x0
00003388  670E                     beq        +0x10 /* 00003398 */
0000338A  0C05 002E                cmpi.b     D5, 0x2E /* '.' */
0000338E  6600 FF7A                bne        -0x84 /* 0000330A */
00003392  7C02                     moveq.l    D6, 0x02
00003394  6000 FF74                bra        -0x8A /* 0000330A */
label00003398:
00003398  1005                     move.b     D0, D5
0000339A  6B00 FF6E                bmi        -0x90 /* 0000330A */
0000339E  0400 001B                subi.b     D0, 0x1B
000033A2  6734                     beq        +0x36 /* 000033D8 */
000033A4  6A18                     bpl        +0x1A /* 000033BE */
000033A6  0400 00EE                subi.b     D0, 0xEE
000033AA  6726                     beq        +0x28 /* 000033D2 */
000033AC  6A08                     bpl        +0xA /* 000033B6 */
000033AE  5C00                     addq.b     D0, 6
000033B0  6720                     beq        +0x22 /* 000033D2 */
000033B2  6000 FF56                bra        -0xA8 /* 0000330A */
label000033B6:
000033B6  5900                     subq.b     D0, 4
000033B8  6718                     beq        +0x1A /* 000033D2 */
000033BA  6000 FF4E                bra        -0xB0 /* 0000330A */
label000033BE:
000033BE  0400 0045                subi.b     D0, 0x45 /* 'E' */
000033C2  6714                     beq        +0x16 /* 000033D8 */
000033C4  6A00 FF44                bpl        -0xBA /* 0000330A */
000033C8  0400 00C0                subi.b     D0, 0xC0
000033CC  6704                     beq        +0x6 /* 000033D2 */
000033CE  6000 FF3A                bra        -0xC4 /* 0000330A */
label000033D2:
000033D2  7C01                     moveq.l    D6, 0x01
000033D4  6000 FF34                bra        -0xCA /* 0000330A */
label000033D8:
000033D8  7C02                     moveq.l    D6, 0x02
000033DA  6000 FF2E                bra        -0xD0 /* 0000330A */
label000033DE:
000033DE  3006                     move.w     D0, D6
label000033E0:
000033E0  4CDF 00E0                movem.l    D5,D6,D7, [A7]+
000033E4  4E5E                     unlink     A6
000033E6  4E75                     rts
fn000033E8:
000033E8  48E7 0018                movem.l    -[A7], A3,A4
000033EC  286D F414                movea.l    A4, [A5 - 0xBEC]
000033F0  302D F40C                move.w     D0, [A5 - 0xBF4]
000033F4  E748                     lsl        D0.w, 3
000033F6  7200                     moveq.l    D1, 0x00
000033F8  3200                     move.w     D1, D0
000033FA  7000                     moveq.l    D0, 0x00
000033FC  302D F40E                move.w     D0, [A5 - 0xBF2]
00003400  7400                     moveq.l    D2, 0x00
00003402  342D F412                move.w     D2, [A5 - 0xBEE]
00003406  D082                     add.l      D0, D2
00003408  4C3C 0000 0000 0280      mulu.l     D0, 0x0
00003410  D0AD 9CA6                add.l      D0, [A5 - 0x635A]
00003414  D280                     add.l      D1, D0
00003416  2641                     movea.l    A3, D1
00003418  48E7 1E38                movem.l    -[A7], D3,D4,D5,D6,A2,A3,A4
0000341C  204C                     movea.l    A0, A4
0000341E  224B                     movea.l    A1, A3
00003420  362D 9A34                move.w     D3, [A5 - 0x65CC]
00003424  382D F40E                move.w     D4, [A5 - 0xBF2]
00003428  3A2D F410                move.w     D5, [A5 - 0xBF0]
label0000342C:
0000342C  BA44                     cmp.w      D5, D4
0000342E  6F2A                     ble        +0x2C /* 0000345A */
00003430  2448                     movea.l    A2, A0
00003432  2649                     movea.l    A3, A1
00003434  3403                     move.w     D2, D3
label00003436:
00003436  4A42                     tst.w      D2
00003438  6710                     beq        +0x12 /* 0000344A */
0000343A  221A                     move.l     D1, [A2]+
0000343C  4681                     not.l      D1
0000343E  26C1                     move.l     [A3]+, D1
00003440  221A                     move.l     D1, [A2]+
00003442  4681                     not.l      D1
00003444  26C1                     move.l     [A3]+, D1
00003446  5142                     subq.w     D2, 8
00003448  60EC                     bra        -0x12 /* 00003436 */
label0000344A:
0000344A  D1FC 0000 0140           add.l      A0, 0x140
00003450  D3FC 0000 0280           add.l      A1, 0x280
00003456  5244                     addq.w     D4, 1
00003458  60D2                     bra        -0x2C /* 0000342C */
label0000345A:
0000345A  4CDF 1C78                movem.l    D3,D4,D5,D6,A2,A3,A4, [A7]+
0000345E  4CDF 1800                movem.l    A3,A4, [A7]+
00003462  4E75                     rts
fn00003464:
00003464  48E7 0018                movem.l    -[A7], A3,A4
00003468  286D F414                movea.l    A4, [A5 - 0xBEC]
0000346C  302D F40C                move.w     D0, [A5 - 0xBF4]
00003470  E948                     lsl        D0.w, 4
00003472  7200                     moveq.l    D1, 0x00
00003474  3200                     move.w     D1, D0
00003476  7000                     moveq.l    D0, 0x00
00003478  302D F40E                move.w     D0, [A5 - 0xBF2]
0000347C  7400                     moveq.l    D2, 0x00
0000347E  342D F412                move.w     D2, [A5 - 0xBEE]
00003482  D082                     add.l      D0, D2
00003484  4C3C 0000 0000 0500      mulu.l     D0:D0, 0x0
0000348C  D0AD 9CA6                add.l      D0, [A5 - 0x635A]
00003490  D280                     add.l      D1, D0
00003492  2641                     movea.l    A3, D1
00003494  48E7 1F38                movem.l    -[A7], D3,D4,D5,D6,D7,A2,A3,A4
00003498  204C                     movea.l    A0, A4
0000349A  224B                     movea.l    A1, A3
0000349C  362D 9A34                move.w     D3, [A5 - 0x65CC]
000034A0  382D F40E                move.w     D4, [A5 - 0xBF2]
000034A4  3A2D F410                move.w     D5, [A5 - 0xBF0]
000034A8  7C00                     moveq.l    D6, 0x00
000034AA  7E00                     moveq.l    D7, 0x00
label000034AC:
000034AC  BA44                     cmp.w      D5, D4
000034AE  6F00 021E                ble        +0x220 /* 000036CE */
000034B2  2448                     movea.l    A2, A0
000034B4  2649                     movea.l    A3, A1
000034B6  3403                     move.w     D2, D3
label000034B8:
000034B8  4A42                     tst.w      D2
000034BA  6700 00F6                beq        +0xF8 /* 000035B2 */
000034BE  1012                     move.b     D0, [A2]
000034C0  1200                     move.b     D1, D0
000034C2  E149                     lsl        D1.w, 8
000034C4  1200                     move.b     D1, D0
000034C6  4641                     not.w      D1
000034C8  1C2A FEC0                move.b     D6, [A2 - 0x140]
000034CC  4846                     swap.w     D6
000034CE  1C2A 0140                move.b     D6, [A2 + 0x140]
000034D2  4686                     not.l      D6
000034D4  1E2A FFFF                move.b     D7, [A2 - 0x1]
000034D8  4847                     swap.w     D7
000034DA  1E2A 0001                move.b     D7, [A2 + 0x1]
000034DE  4687                     not.l      D7
000034E0  6100 00E2                bsr        +0xE4 /* 000035C4 */
000034E4  528A                     addq.l     A2, 1
000034E6  548B                     addq.l     A3, 2
000034E8  1C2A FEC0                move.b     D6, [A2 - 0x140]
000034EC  4606                     not.b      D6
000034EE  4846                     swap.w     D6
000034F0  1C2A 0140                move.b     D6, [A2 + 0x140]
000034F4  4606                     not.b      D6
000034F6  1E2A 0001                move.b     D7, [A2 + 0x1]
000034FA  4607                     not.b      D7
000034FC  6100 00C6                bsr        +0xC8 /* 000035C4 */
00003500  528A                     addq.l     A2, 1
00003502  548B                     addq.l     A3, 2
00003504  1C2A FEC0                move.b     D6, [A2 - 0x140]
00003508  4606                     not.b      D6
0000350A  4846                     swap.w     D6
0000350C  1C2A 0140                move.b     D6, [A2 + 0x140]
00003510  4606                     not.b      D6
00003512  1E2A 0001                move.b     D7, [A2 + 0x1]
00003516  4607                     not.b      D7
00003518  6100 00AA                bsr        +0xAC /* 000035C4 */
0000351C  528A                     addq.l     A2, 1
0000351E  548B                     addq.l     A3, 2
00003520  1C2A FEC0                move.b     D6, [A2 - 0x140]
00003524  4606                     not.b      D6
00003526  4846                     swap.w     D6
00003528  1C2A 0140                move.b     D6, [A2 + 0x140]
0000352C  4606                     not.b      D6
0000352E  1E2A 0001                move.b     D7, [A2 + 0x1]
00003532  4607                     not.b      D7
00003534  6100 008E                bsr        +0x90 /* 000035C4 */
00003538  528A                     addq.l     A2, 1
0000353A  548B                     addq.l     A3, 2
0000353C  1C2A FEC0                move.b     D6, [A2 - 0x140]
00003540  4606                     not.b      D6
00003542  4846                     swap.w     D6
00003544  1C2A 0140                move.b     D6, [A2 + 0x140]
00003548  4606                     not.b      D6
0000354A  1E2A 0001                move.b     D7, [A2 + 0x1]
0000354E  4607                     not.b      D7
00003550  6100 0072                bsr        +0x74 /* 000035C4 */
00003554  528A                     addq.l     A2, 1
00003556  548B                     addq.l     A3, 2
00003558  1C2A FEC0                move.b     D6, [A2 - 0x140]
0000355C  4606                     not.b      D6
0000355E  4846                     swap.w     D6
00003560  1C2A 0140                move.b     D6, [A2 + 0x140]
00003564  4606                     not.b      D6
00003566  1E2A 0001                move.b     D7, [A2 + 0x1]
0000356A  4607                     not.b      D7
0000356C  6100 0056                bsr        +0x58 /* 000035C4 */
00003570  528A                     addq.l     A2, 1
00003572  548B                     addq.l     A3, 2
00003574  1C2A FEC0                move.b     D6, [A2 - 0x140]
00003578  4606                     not.b      D6
0000357A  4846                     swap.w     D6
0000357C  1C2A 0140                move.b     D6, [A2 + 0x140]
00003580  4606                     not.b      D6
00003582  1E2A 0001                move.b     D7, [A2 + 0x1]
00003586  4607                     not.b      D7
00003588  6100 003A                bsr        +0x3C /* 000035C4 */
0000358C  528A                     addq.l     A2, 1
0000358E  548B                     addq.l     A3, 2
00003590  1C2A FEC0                move.b     D6, [A2 - 0x140]
00003594  4606                     not.b      D6
00003596  4846                     swap.w     D6
00003598  1C2A 0140                move.b     D6, [A2 + 0x140]
0000359C  4606                     not.b      D6
0000359E  1E2A 0001                move.b     D7, [A2 + 0x1]
000035A2  4607                     not.b      D7
000035A4  6100 001E                bsr        +0x20 /* 000035C4 */
000035A8  528A                     addq.l     A2, 1
000035AA  548B                     addq.l     A3, 2
000035AC  5142                     subq.w     D2, 8
000035AE  6000 FF08                bra        -0xF6 /* 000034B8 */
label000035B2:
000035B2  D1FC 0000 0140           add.l      A0, 0x140
000035B8  D3FC 0000 0500           add.l      A1, 0x500
000035BE  5244                     addq.w     D4, 1
000035C0  6000 FEEA                bra        -0x114 /* 000034AC */
fn000035C4:
000035C4  BE86                     cmp.l      D7, D6
000035C6  660A                     bne        +0xC /* 000035D2 */
000035C8  4846                     swap.w     D6
000035CA  BE86                     cmp.l      D7, D6
000035CC  6748                     beq        +0x4A /* 00003616 */
000035CE  6000 00C2                bra        +0xC4 /* 00003692 */
label000035D2:
000035D2  4846                     swap.w     D6
000035D4  BE86                     cmp.l      D7, D6
000035D6  6700 00D8                beq        +0xDA /* 000036B0 */
000035DA  1006                     move.b     D0, D6
000035DC  4846                     swap.w     D6
000035DE  B006                     cmp.b      D0, D6
000035E0  6734                     beq        +0x36 /* 00003616 */
000035E2  1007                     move.b     D0, D7
000035E4  4847                     swap.w     D7
000035E6  B007                     cmp.b      D0, D7
000035E8  672A                     beq        +0x2C /* 00003614 */
000035EA  4846                     swap.w     D6
000035EC  4847                     swap.w     D7
000035EE  BE06                     cmp.b      D7, D6
000035F0  6608                     bne        +0xA /* 000035FA */
000035F2  4846                     swap.w     D6
000035F4  BE06                     cmp.b      D7, D6
000035F6  671E                     beq        +0x20 /* 00003616 */
000035F8  604C                     bra        +0x4E /* 00003646 */
label000035FA:
000035FA  4846                     swap.w     D6
000035FC  BE06                     cmp.b      D7, D6
000035FE  677A                     beq        +0x7C /* 0000367A */
00003600  4847                     swap.w     D7
00003602  BE06                     cmp.b      D7, D6
00003604  6608                     bne        +0xA /* 0000360E */
00003606  4846                     swap.w     D6
00003608  BE06                     cmp.b      D7, D6
0000360A  6708                     beq        +0xA /* 00003614 */
0000360C  6050                     bra        +0x52 /* 0000365E */
label0000360E:
0000360E  4846                     swap.w     D6
00003610  BE06                     cmp.b      D7, D6
00003612  6716                     beq        +0x18 /* 0000362A */
label00003614:
00003614  4847                     swap.w     D7
label00003616:
00003616  1007                     move.b     D0, D7
00003618  3681                     move.w     [A3], D1
0000361A  3741 0280                move.w     [A3 + 0x280], D1
0000361E  1E01                     move.b     D7, D1
00003620  1200                     move.b     D1, D0
00003622  E149                     lsl        D1.w, 8
00003624  1200                     move.b     D1, D0
00003626  4847                     swap.w     D7
00003628  4E75                     rts
label0000362A:
0000362A  4847                     swap.w     D7
0000362C  1007                     move.b     D0, D7
0000362E  4847                     swap.w     D7
00003630  1687                     move.b     [A3], D7
00003632  1741 0001                move.b     [A3 + 0x1], D1
00003636  3741 0280                move.w     [A3 + 0x280], D1
0000363A  1E01                     move.b     D7, D1
0000363C  1200                     move.b     D1, D0
0000363E  E149                     lsl        D1.w, 8
00003640  1200                     move.b     D1, D0
00003642  4847                     swap.w     D7
00003644  4E75                     rts
label00003646:
00003646  1007                     move.b     D0, D7
00003648  3741 0280                move.w     [A3 + 0x280], D1
0000364C  1207                     move.b     D1, D7
0000364E  3681                     move.w     [A3], D1
00003650  E049                     lsr        D1.w, 8
00003652  1E01                     move.b     D7, D1
00003654  1200                     move.b     D1, D0
00003656  E149                     lsl        D1.w, 8
00003658  1200                     move.b     D1, D0
0000365A  4847                     swap.w     D7
0000365C  4E75                     rts
label0000365E:
0000365E  4847                     swap.w     D7
00003660  1007                     move.b     D0, D7
00003662  4847                     swap.w     D7
00003664  1747 0280                move.b     [A3 + 0x280], D7
00003668  1741 0281                move.b     [A3 + 0x281], D1
0000366C  3681                     move.w     [A3], D1
0000366E  1E01                     move.b     D7, D1
00003670  1200                     move.b     D1, D0
00003672  E149                     lsl        D1.w, 8
00003674  1200                     move.b     D1, D0
00003676  4847                     swap.w     D7
00003678  4E75                     rts
label0000367A:
0000367A  1007                     move.b     D0, D7
0000367C  3681                     move.w     [A3], D1
0000367E  1207                     move.b     D1, D7
00003680  3741 0280                move.w     [A3 + 0x280], D1
00003684  E049                     lsr        D1.w, 8
00003686  1E01                     move.b     D7, D1
00003688  1200                     move.b     D1, D0
0000368A  E149                     lsl        D1.w, 8
0000368C  1200                     move.b     D1, D0
0000368E  4847                     swap.w     D7
00003690  4E75                     rts
label00003692:
00003692  1007                     move.b     D0, D7
00003694  1747 0281                move.b     [A3 + 0x281], D7
00003698  1741 0001                move.b     [A3 + 0x1], D1
0000369C  4847                     swap.w     D7
0000369E  1687                     move.b     [A3], D7
000036A0  1741 0280                move.b     [A3 + 0x280], D1
000036A4  1E01                     move.b     D7, D1
000036A6  1200                     move.b     D1, D0
000036A8  E149                     lsl        D1.w, 8
000036AA  1200                     move.b     D1, D0
000036AC  4847                     swap.w     D7
000036AE  4E75                     rts
label000036B0:
000036B0  1007                     move.b     D0, D7
000036B2  1747 0001                move.b     [A3 + 0x1], D7
000036B6  1681                     move.b     [A3], D1
000036B8  4847                     swap.w     D7
000036BA  1747 0280                move.b     [A3 + 0x280], D7
000036BE  1741 0281                move.b     [A3 + 0x281], D1
000036C2  1E01                     move.b     D7, D1
000036C4  1200                     move.b     D1, D0
000036C6  E149                     lsl        D1.w, 8
000036C8  1200                     move.b     D1, D0
000036CA  4847                     swap.w     D7
000036CC  4E75                     rts
label000036CE:
000036CE  4CDF 1CF8                movem.l    D3,D4,D5,D6,D7,A2,A3,A4, [A7]+
000036D2  4CDF 1800                movem.l    A3,A4, [A7]+
000036D6  4E75                     rts
fn000036D8:
000036D8  48E7 1018                movem.l    -[A7], D3,A3,A4
000036DC  286D F414                movea.l    A4, [A5 - 0xBEC]
000036E0  302D F40C                move.w     D0, [A5 - 0xBF4]
000036E4  E748                     lsl        D0.w, 3
000036E6  322D F40C                move.w     D1, [A5 - 0xBF4]
000036EA  E749                     lsl        D1.w, 3
000036EC  142D 9C86                move.b     D2, [A5 - 0x637A]
000036F0  E469                     lsr        D1.w, D2
000036F2  D041                     add.w      D0, D1
000036F4  7200                     moveq.l    D1, 0x00
000036F6  3200                     move.w     D1, D0
000036F8  7000                     moveq.l    D0, 0x00
000036FA  302D F40E                move.w     D0, [A5 - 0xBF2]
000036FE  7400                     moveq.l    D2, 0x00
00003700  342D F412                move.w     D2, [A5 - 0xBEE]
00003704  D082                     add.l      D0, D2
00003706  7400                     moveq.l    D2, 0x00
00003708  342D F40E                move.w     D2, [A5 - 0xBF2]
0000370C  7600                     moveq.l    D3, 0x00
0000370E  362D F412                move.w     D3, [A5 - 0xBEE]
00003712  D483                     add.l      D2, D3
00003714  162D 9C86                move.b     D3, [A5 - 0x637A]
00003718  E6A2                     asr        D2, D3
0000371A  D082                     add.l      D0, D2
0000371C  4C3C 0000 0000 0280      mulu.l     D0, 0x0
00003724  D0AD 9CA6                add.l      D0, [A5 - 0x635A]
00003728  D280                     add.l      D1, D0
0000372A  2641                     movea.l    A3, D1
0000372C  48E7 1F38                movem.l    -[A7], D3,D4,D5,D6,D7,A2,A3,A4
00003730  204C                     movea.l    A0, A4
00003732  224B                     movea.l    A1, A3
00003734  362D 9A34                move.w     D3, [A5 - 0x65CC]
00003738  382D F40E                move.w     D4, [A5 - 0xBF2]
0000373C  3A2D F410                move.w     D5, [A5 - 0xBF0]
00003740  7C00                     moveq.l    D6, 0x00
00003742  7E00                     moveq.l    D7, 0x00
label00003744:
00003744  BA44                     cmp.w      D5, D4
00003746  6F00 02F6                ble        +0x2F8 /* 00003A3E */
0000374A  2448                     movea.l    A2, A0
0000374C  2649                     movea.l    A3, A1
0000374E  3403                     move.w     D2, D3
00003750  0804 0000                btst.b     D4, 0x0
00003754  6600 0088                bne        +0x8A /* 000037DE */
label00003758:
00003758  4A42                     tst.w      D2
0000375A  6700 017C                beq        +0x17E /* 000038D8 */
0000375E  1012                     move.b     D0, [A2]
00003760  1200                     move.b     D1, D0
00003762  E149                     lsl        D1.w, 8
00003764  1200                     move.b     D1, D0
00003766  4641                     not.w      D1
00003768  1E2A 0001                move.b     D7, [A2 + 0x1]
0000376C  4687                     not.l      D7
0000376E  6100 0186                bsr        +0x188 /* 000038F6 */
00003772  528A                     addq.l     A2, 1
00003774  528B                     addq.l     A3, 1
00003776  1E2A 0001                move.b     D7, [A2 + 0x1]
0000377A  4607                     not.b      D7
0000377C  6100 0188                bsr        +0x18A /* 00003906 */
00003780  528A                     addq.l     A2, 1
00003782  548B                     addq.l     A3, 2
00003784  1E2A 0001                move.b     D7, [A2 + 0x1]
00003788  4607                     not.b      D7
0000378A  6100 016A                bsr        +0x16C /* 000038F6 */
0000378E  528A                     addq.l     A2, 1
00003790  528B                     addq.l     A3, 1
00003792  1E2A 0001                move.b     D7, [A2 + 0x1]
00003796  4607                     not.b      D7
00003798  6100 016C                bsr        +0x16E /* 00003906 */
0000379C  528A                     addq.l     A2, 1
0000379E  548B                     addq.l     A3, 2
000037A0  1E2A 0001                move.b     D7, [A2 + 0x1]
000037A4  4607                     not.b      D7
000037A6  6100 014E                bsr        +0x150 /* 000038F6 */
000037AA  528A                     addq.l     A2, 1
000037AC  528B                     addq.l     A3, 1
000037AE  1E2A 0001                move.b     D7, [A2 + 0x1]
000037B2  4607                     not.b      D7
000037B4  6100 0150                bsr        +0x152 /* 00003906 */
000037B8  528A                     addq.l     A2, 1
000037BA  548B                     addq.l     A3, 2
000037BC  1E2A 0001                move.b     D7, [A2 + 0x1]
000037C0  4607                     not.b      D7
000037C2  6100 0132                bsr        +0x134 /* 000038F6 */
000037C6  528A                     addq.l     A2, 1
000037C8  528B                     addq.l     A3, 1
000037CA  1E2A 0001                move.b     D7, [A2 + 0x1]
000037CE  4607                     not.b      D7
000037D0  6100 0134                bsr        +0x136 /* 00003906 */
000037D4  528A                     addq.l     A2, 1
000037D6  548B                     addq.l     A3, 2
000037D8  5142                     subq.w     D2, 8
000037DA  6000 FF7C                bra        -0x82 /* 00003758 */
label000037DE:
000037DE  4A42                     tst.w      D2
000037E0  6700 00F6                beq        +0xF8 /* 000038D8 */
000037E4  1012                     move.b     D0, [A2]
000037E6  1200                     move.b     D1, D0
000037E8  E149                     lsl        D1.w, 8
000037EA  1200                     move.b     D1, D0
000037EC  4641                     not.w      D1
000037EE  1C2A FEC0                move.b     D6, [A2 - 0x140]
000037F2  4846                     swap.w     D6
000037F4  1C2A 0140                move.b     D6, [A2 + 0x140]
000037F8  4686                     not.l      D6
000037FA  1E2A FFFF                move.b     D7, [A2 - 0x1]
000037FE  4847                     swap.w     D7
00003800  1E2A 0001                move.b     D7, [A2 + 0x1]
00003804  4687                     not.l      D7
00003806  6100 0114                bsr        +0x116 /* 0000391C */
0000380A  528A                     addq.l     A2, 1
0000380C  528B                     addq.l     A3, 1
0000380E  1C2A FEC0                move.b     D6, [A2 - 0x140]
00003812  4606                     not.b      D6
00003814  4846                     swap.w     D6
00003816  1C2A 0140                move.b     D6, [A2 + 0x140]
0000381A  4606                     not.b      D6
0000381C  1E2A 0001                move.b     D7, [A2 + 0x1]
00003820  4607                     not.b      D7
00003822  6100 010E                bsr        +0x110 /* 00003932 */
00003826  528A                     addq.l     A2, 1
00003828  548B                     addq.l     A3, 2
0000382A  1C2A FEC0                move.b     D6, [A2 - 0x140]
0000382E  4606                     not.b      D6
00003830  4846                     swap.w     D6
00003832  1C2A 0140                move.b     D6, [A2 + 0x140]
00003836  4606                     not.b      D6
00003838  1E2A 0001                move.b     D7, [A2 + 0x1]
0000383C  4607                     not.b      D7
0000383E  6100 00DC                bsr        +0xDE /* 0000391C */
00003842  528A                     addq.l     A2, 1
00003844  528B                     addq.l     A3, 1
00003846  1C2A FEC0                move.b     D6, [A2 - 0x140]
0000384A  4606                     not.b      D6
0000384C  4846                     swap.w     D6
0000384E  1C2A 0140                move.b     D6, [A2 + 0x140]
00003852  4606                     not.b      D6
00003854  1E2A 0001                move.b     D7, [A2 + 0x1]
00003858  4607                     not.b      D7
0000385A  6100 00D6                bsr        +0xD8 /* 00003932 */
0000385E  528A                     addq.l     A2, 1
00003860  548B                     addq.l     A3, 2
00003862  1C2A FEC0                move.b     D6, [A2 - 0x140]
00003866  4606                     not.b      D6
00003868  4846                     swap.w     D6
0000386A  1C2A 0140                move.b     D6, [A2 + 0x140]
0000386E  4606                     not.b      D6
00003870  1E2A 0001                move.b     D7, [A2 + 0x1]
00003874  4607                     not.b      D7
00003876  6100 00A4                bsr        +0xA6 /* 0000391C */
0000387A  528A                     addq.l     A2, 1
0000387C  528B                     addq.l     A3, 1
0000387E  1C2A FEC0                move.b     D6, [A2 - 0x140]
00003882  4606                     not.b      D6
00003884  4846                     swap.w     D6
00003886  1C2A 0140                move.b     D6, [A2 + 0x140]
0000388A  4606                     not.b      D6
0000388C  1E2A 0001                move.b     D7, [A2 + 0x1]
00003890  4607                     not.b      D7
00003892  6100 009E                bsr        +0xA0 /* 00003932 */
00003896  528A                     addq.l     A2, 1
00003898  548B                     addq.l     A3, 2
0000389A  1C2A FEC0                move.b     D6, [A2 - 0x140]
0000389E  4606                     not.b      D6
000038A0  4846                     swap.w     D6
000038A2  1C2A 0140                move.b     D6, [A2 + 0x140]
000038A6  4606                     not.b      D6
000038A8  1E2A 0001                move.b     D7, [A2 + 0x1]
000038AC  4607                     not.b      D7
000038AE  6100 006C                bsr        +0x6E /* 0000391C */
000038B2  528A                     addq.l     A2, 1
000038B4  528B                     addq.l     A3, 1
000038B6  1C2A FEC0                move.b     D6, [A2 - 0x140]
000038BA  4606                     not.b      D6
000038BC  4846                     swap.w     D6
000038BE  1C2A 0140                move.b     D6, [A2 + 0x140]
000038C2  4606                     not.b      D6
000038C4  1E2A 0001                move.b     D7, [A2 + 0x1]
000038C8  4607                     not.b      D7
000038CA  6100 0066                bsr        +0x68 /* 00003932 */
000038CE  528A                     addq.l     A2, 1
000038D0  548B                     addq.l     A3, 2
000038D2  5142                     subq.w     D2, 8
000038D4  6000 FF08                bra        -0xF6 /* 000037DE */
label000038D8:
000038D8  D1FC 0000 0140           add.l      A0, 0x140
000038DE  D3FC 0000 0280           add.l      A1, 0x280
000038E4  0804 0000                btst.b     D4, 0x0
000038E8  6706                     beq        +0x8 /* 000038F0 */
000038EA  D3FC 0000 0280           add.l      A1, 0x280
label000038F0:
000038F0  5244                     addq.w     D4, 1
000038F2  6000 FE50                bra        -0x1AE /* 00003744 */
fn000038F6:
000038F6  1007                     move.b     D0, D7
000038F8  1681                     move.b     [A3], D1
000038FA  1E01                     move.b     D7, D1
000038FC  1200                     move.b     D1, D0
000038FE  E149                     lsl        D1.w, 8
00003900  1200                     move.b     D1, D0
00003902  4847                     swap.w     D7
00003904  4E75                     rts
fn00003906:
00003906  1007                     move.b     D0, D7
00003908  1E01                     move.b     D7, D1
0000390A  1207                     move.b     D1, D7
0000390C  3681                     move.w     [A3], D1
0000390E  E049                     lsr        D1.w, 8
00003910  1E01                     move.b     D7, D1
00003912  1200                     move.b     D1, D0
00003914  E149                     lsl        D1.w, 8
00003916  1200                     move.b     D1, D0
00003918  4847                     swap.w     D7
0000391A  4E75                     rts
fn0000391C:
0000391C  1007                     move.b     D0, D7
0000391E  1C01                     move.b     D6, D1
00003920  1681                     move.b     [A3], D1
00003922  1746 0280                move.b     [A3 + 0x280], D6
00003926  1E01                     move.b     D7, D1
00003928  1200                     move.b     D1, D0
0000392A  E149                     lsl        D1.w, 8
0000392C  1200                     move.b     D1, D0
0000392E  4847                     swap.w     D7
00003930  4E75                     rts
fn00003932:
00003932  BE86                     cmp.l      D7, D6
00003934  660A                     bne        +0xC /* 00003940 */
00003936  4846                     swap.w     D6
00003938  BE86                     cmp.l      D7, D6
0000393A  6748                     beq        +0x4A /* 00003984 */
0000393C  6000 00C4                bra        +0xC6 /* 00003A02 */
label00003940:
00003940  4846                     swap.w     D6
00003942  BE86                     cmp.l      D7, D6
00003944  6700 00DA                beq        +0xDC /* 00003A20 */
00003948  1006                     move.b     D0, D6
0000394A  4846                     swap.w     D6
0000394C  B006                     cmp.b      D0, D6
0000394E  6734                     beq        +0x36 /* 00003984 */
00003950  1007                     move.b     D0, D7
00003952  4847                     swap.w     D7
00003954  B007                     cmp.b      D0, D7
00003956  672C                     beq        +0x2E /* 00003984 */
00003958  4846                     swap.w     D6
0000395A  4847                     swap.w     D7
0000395C  BE06                     cmp.b      D7, D6
0000395E  6608                     bne        +0xA /* 00003968 */
00003960  4846                     swap.w     D6
00003962  BE06                     cmp.b      D7, D6
00003964  671E                     beq        +0x20 /* 00003984 */
00003966  604E                     bra        +0x50 /* 000039B6 */
label00003968:
00003968  4846                     swap.w     D6
0000396A  BE06                     cmp.b      D7, D6
0000396C  677C                     beq        +0x7E /* 000039EA */
0000396E  4847                     swap.w     D7
00003970  BE06                     cmp.b      D7, D6
00003972  6608                     bne        +0xA /* 0000397C */
00003974  4846                     swap.w     D6
00003976  BE06                     cmp.b      D7, D6
00003978  6708                     beq        +0xA /* 00003982 */
0000397A  6052                     bra        +0x54 /* 000039CE */
label0000397C:
0000397C  4846                     swap.w     D6
0000397E  BE06                     cmp.b      D7, D6
00003980  6718                     beq        +0x1A /* 0000399A */
label00003982:
00003982  4847                     swap.w     D7
label00003984:
00003984  1007                     move.b     D0, D7
00003986  3681                     move.w     [A3], D1
00003988  3741 0280                move.w     [A3 + 0x280], D1
0000398C  E049                     lsr        D1.w, 8
0000398E  1E01                     move.b     D7, D1
00003990  1200                     move.b     D1, D0
00003992  E149                     lsl        D1.w, 8
00003994  1200                     move.b     D1, D0
00003996  4847                     swap.w     D7
00003998  4E75                     rts
label0000399A:
0000399A  4847                     swap.w     D7
0000399C  1007                     move.b     D0, D7
0000399E  4847                     swap.w     D7
000039A0  1687                     move.b     [A3], D7
000039A2  1741 0001                move.b     [A3 + 0x1], D1
000039A6  3741 0280                move.w     [A3 + 0x280], D1
000039AA  1E01                     move.b     D7, D1
000039AC  1200                     move.b     D1, D0
000039AE  E149                     lsl        D1.w, 8
000039B0  1200                     move.b     D1, D0
000039B2  4847                     swap.w     D7
000039B4  4E75                     rts
label000039B6:
000039B6  1007                     move.b     D0, D7
000039B8  3741 0280                move.w     [A3 + 0x280], D1
000039BC  1207                     move.b     D1, D7
000039BE  3681                     move.w     [A3], D1
000039C0  E049                     lsr        D1.w, 8
000039C2  1E01                     move.b     D7, D1
000039C4  1200                     move.b     D1, D0
000039C6  E149                     lsl        D1.w, 8
000039C8  1200                     move.b     D1, D0
000039CA  4847                     swap.w     D7
000039CC  4E75                     rts
label000039CE:
000039CE  4847                     swap.w     D7
000039D0  1007                     move.b     D0, D7
000039D2  4847                     swap.w     D7
000039D4  1747 0280                move.b     [A3 + 0x280], D7
000039D8  1741 0281                move.b     [A3 + 0x281], D1
000039DC  3681                     move.w     [A3], D1
000039DE  1E01                     move.b     D7, D1
000039E0  1200                     move.b     D1, D0
000039E2  E149                     lsl        D1.w, 8
000039E4  1200                     move.b     D1, D0
000039E6  4847                     swap.w     D7
000039E8  4E75                     rts
label000039EA:
000039EA  1007                     move.b     D0, D7
000039EC  3681                     move.w     [A3], D1
000039EE  1207                     move.b     D1, D7
000039F0  3741 0280                move.w     [A3 + 0x280], D1
000039F4  E049                     lsr        D1.w, 8
000039F6  1E01                     move.b     D7, D1
000039F8  1200                     move.b     D1, D0
000039FA  E149                     lsl        D1.w, 8
000039FC  1200                     move.b     D1, D0
000039FE  4847                     swap.w     D7
00003A00  4E75                     rts
label00003A02:
00003A02  1007                     move.b     D0, D7
00003A04  1747 0281                move.b     [A3 + 0x281], D7
00003A08  1741 0001                move.b     [A3 + 0x1], D1
00003A0C  4847                     swap.w     D7
00003A0E  1687                     move.b     [A3], D7
00003A10  1741 0280                move.b     [A3 + 0x280], D1
00003A14  1E01                     move.b     D7, D1
00003A16  1200                     move.b     D1, D0
00003A18  E149                     lsl        D1.w, 8
00003A1A  1200                     move.b     D1, D0
00003A1C  4847                     swap.w     D7
00003A1E  4E75                     rts
label00003A20:
00003A20  1007                     move.b     D0, D7
00003A22  1747 0001                move.b     [A3 + 0x1], D7
00003A26  1681                     move.b     [A3], D1
00003A28  4847                     swap.w     D7
00003A2A  1747 0280                move.b     [A3 + 0x280], D7
00003A2E  1741 0281                move.b     [A3 + 0x281], D1
00003A32  1E01                     move.b     D7, D1
00003A34  1200                     move.b     D1, D0
00003A36  E149                     lsl        D1.w, 8
00003A38  1200                     move.b     D1, D0
00003A3A  4847                     swap.w     D7
00003A3C  4E75                     rts
label00003A3E:
00003A3E  4CDF 1CF8                movem.l    D3,D4,D5,D6,D7,A2,A3,A4, [A7]+
00003A42  4CDF 1808                movem.l    D3,A3,A4, [A7]+
00003A46  4E75                     rts
fn00003A48:
00003A48  48E7 1018                movem.l    -[A7], D3,A3,A4
00003A4C  286D F414                movea.l    A4, [A5 - 0xBEC]
00003A50  302D F40C                move.w     D0, [A5 - 0xBF4]
00003A54  E748                     lsl        D0.w, 3
00003A56  322D F40C                move.w     D1, [A5 - 0xBF4]
00003A5A  E749                     lsl        D1.w, 3
00003A5C  142D 9C86                move.b     D2, [A5 - 0x637A]
00003A60  E469                     lsr        D1.w, D2
00003A62  D041                     add.w      D0, D1
00003A64  7200                     moveq.l    D1, 0x00
00003A66  3200                     move.w     D1, D0
00003A68  7000                     moveq.l    D0, 0x00
00003A6A  302D F40E                move.w     D0, [A5 - 0xBF2]
00003A6E  7400                     moveq.l    D2, 0x00
00003A70  342D F412                move.w     D2, [A5 - 0xBEE]
00003A74  D082                     add.l      D0, D2
00003A76  7400                     moveq.l    D2, 0x00
00003A78  342D F40E                move.w     D2, [A5 - 0xBF2]
00003A7C  7600                     moveq.l    D3, 0x00
00003A7E  362D F412                move.w     D3, [A5 - 0xBEE]
00003A82  D483                     add.l      D2, D3
00003A84  162D 9C86                move.b     D3, [A5 - 0x637A]
00003A88  E6A2                     asr        D2, D3
00003A8A  D082                     add.l      D0, D2
00003A8C  4C3C 0000 0000 0280      mulu.l     D0, 0x0
00003A94  D0AD 9CA6                add.l      D0, [A5 - 0x635A]
00003A98  D280                     add.l      D1, D0
00003A9A  2641                     movea.l    A3, D1
00003A9C  48E7 1E38                movem.l    -[A7], D3,D4,D5,D6,A2,A3,A4
00003AA0  204C                     movea.l    A0, A4
00003AA2  224B                     movea.l    A1, A3
00003AA4  362D 9A34                move.w     D3, [A5 - 0x65CC]
00003AA8  382D F40E                move.w     D4, [A5 - 0xBF2]
00003AAC  3A2D F410                move.w     D5, [A5 - 0xBF0]
label00003AB0:
00003AB0  BA44                     cmp.w      D5, D4
00003AB2  6F54                     ble        +0x56 /* 00003B08 */
00003AB4  2448                     movea.l    A2, A0
00003AB6  2649                     movea.l    A3, A1
00003AB8  3403                     move.w     D2, D3
label00003ABA:
00003ABA  4A42                     tst.w      D2
00003ABC  672E                     beq        +0x30 /* 00003AEC */
00003ABE  1212                     move.b     D1, [A2]
00003AC0  4601                     not.b      D1
00003AC2  1681                     move.b     [A3], D1
00003AC4  0802 0000                btst.b     D2, 0x0
00003AC8  6608                     bne        +0xA /* 00003AD2 */
00003ACA  0804 0000                btst.b     D4, 0x0
00003ACE  6610                     bne        +0x12 /* 00003AE0 */
00003AD0  6012                     bra        +0x14 /* 00003AE4 */
label00003AD2:
00003AD2  528B                     addq.l     A3, 1
00003AD4  1681                     move.b     [A3], D1
00003AD6  0804 0000                btst.b     D4, 0x0
00003ADA  6708                     beq        +0xA /* 00003AE4 */
00003ADC  1741 027F                move.b     [A3 + 0x27F], D1
label00003AE0:
00003AE0  1741 0280                move.b     [A3 + 0x280], D1
label00003AE4:
00003AE4  528A                     addq.l     A2, 1
00003AE6  528B                     addq.l     A3, 1
00003AE8  5342                     subq.w     D2, 1
00003AEA  60CE                     bra        -0x30 /* 00003ABA */
label00003AEC:
00003AEC  0804 0000                btst.b     D4, 0x0
00003AF0  6706                     beq        +0x8 /* 00003AF8 */
00003AF2  D3FC 0000 0280           add.l      A1, 0x280
label00003AF8:
00003AF8  D1FC 0000 0140           add.l      A0, 0x140
00003AFE  D3FC 0000 0280           add.l      A1, 0x280
00003B04  5244                     addq.w     D4, 1
00003B06  60A8                     bra        -0x56 /* 00003AB0 */
label00003B08:
00003B08  4CDF 1C78                movem.l    D3,D4,D5,D6,A2,A3,A4, [A7]+
00003B0C  4CDF 1808                movem.l    D3,A3,A4, [A7]+
00003B10  4E75                     rts
fn00003B12:
00003B12  48E7 0018                movem.l    -[A7], A3,A4
00003B16  286D F414                movea.l    A4, [A5 - 0xBEC]
00003B1A  302D F40C                move.w     D0, [A5 - 0xBF4]
00003B1E  E948                     lsl        D0.w, 4
00003B20  7200                     moveq.l    D1, 0x00
00003B22  3200                     move.w     D1, D0
00003B24  7000                     moveq.l    D0, 0x00
00003B26  302D F40E                move.w     D0, [A5 - 0xBF2]
00003B2A  7400                     moveq.l    D2, 0x00
00003B2C  342D F412                move.w     D2, [A5 - 0xBEE]
00003B30  D082                     add.l      D0, D2
00003B32  4C3C 0000 0000 0500      mulu.l     D0:D0, 0x0
00003B3A  D0AD 9CA6                add.l      D0, [A5 - 0x635A]
00003B3E  D280                     add.l      D1, D0
00003B40  2641                     movea.l    A3, D1
00003B42  48E7 1E38                movem.l    -[A7], D3,D4,D5,D6,A2,A3,A4
00003B46  204C                     movea.l    A0, A4
00003B48  224B                     movea.l    A1, A3
00003B4A  362D 9A34                move.w     D3, [A5 - 0x65CC]
00003B4E  382D F40E                move.w     D4, [A5 - 0xBF2]
00003B52  3A2D F410                move.w     D5, [A5 - 0xBF0]
label00003B56:
00003B56  BA44                     cmp.w      D5, D4
00003B58  6F00 00C6                ble        +0xC8 /* 00003C20 */
00003B5C  2448                     movea.l    A2, A0
00003B5E  2649                     movea.l    A3, A1
00003B60  3403                     move.w     D2, D3
label00003B62:
00003B62  4A42                     tst.w      D2
00003B64  6700 00A8                beq        +0xAA /* 00003C0E */
00003B68  1012                     move.b     D0, [A2]
00003B6A  1200                     move.b     D1, D0
00003B6C  E149                     lsl        D1.w, 8
00003B6E  1200                     move.b     D1, D0
00003B70  4641                     not.w      D1
00003B72  3681                     move.w     [A3], D1
00003B74  3741 0280                move.w     [A3 + 0x280], D1
00003B78  528A                     addq.l     A2, 1
00003B7A  548B                     addq.l     A3, 2
00003B7C  1012                     move.b     D0, [A2]
00003B7E  1200                     move.b     D1, D0
00003B80  E149                     lsl        D1.w, 8
00003B82  1200                     move.b     D1, D0
00003B84  4641                     not.w      D1
00003B86  3681                     move.w     [A3], D1
00003B88  3741 0280                move.w     [A3 + 0x280], D1
00003B8C  528A                     addq.l     A2, 1
00003B8E  548B                     addq.l     A3, 2
00003B90  1012                     move.b     D0, [A2]
00003B92  1200                     move.b     D1, D0
00003B94  E149                     lsl        D1.w, 8
00003B96  1200                     move.b     D1, D0
00003B98  4641                     not.w      D1
00003B9A  3681                     move.w     [A3], D1
00003B9C  3741 0280                move.w     [A3 + 0x280], D1
00003BA0  528A                     addq.l     A2, 1
00003BA2  548B                     addq.l     A3, 2
00003BA4  1012                     move.b     D0, [A2]
00003BA6  1200                     move.b     D1, D0
00003BA8  E149                     lsl        D1.w, 8
00003BAA  1200                     move.b     D1, D0
00003BAC  4641                     not.w      D1
00003BAE  3681                     move.w     [A3], D1
00003BB0  3741 0280                move.w     [A3 + 0x280], D1
00003BB4  528A                     addq.l     A2, 1
00003BB6  548B                     addq.l     A3, 2
00003BB8  1012                     move.b     D0, [A2]
00003BBA  1200                     move.b     D1, D0
00003BBC  E149                     lsl        D1.w, 8
00003BBE  1200                     move.b     D1, D0
00003BC0  4641                     not.w      D1
00003BC2  3681                     move.w     [A3], D1
00003BC4  3741 0280                move.w     [A3 + 0x280], D1
00003BC8  528A                     addq.l     A2, 1
00003BCA  548B                     addq.l     A3, 2
00003BCC  1012                     move.b     D0, [A2]
00003BCE  1200                     move.b     D1, D0
00003BD0  E149                     lsl        D1.w, 8
00003BD2  1200                     move.b     D1, D0
00003BD4  4641                     not.w      D1
00003BD6  3681                     move.w     [A3], D1
00003BD8  3741 0280                move.w     [A3 + 0x280], D1
00003BDC  528A                     addq.l     A2, 1
00003BDE  548B                     addq.l     A3, 2
00003BE0  1012                     move.b     D0, [A2]
00003BE2  1200                     move.b     D1, D0
00003BE4  E149                     lsl        D1.w, 8
00003BE6  1200                     move.b     D1, D0
00003BE8  4641                     not.w      D1
00003BEA  3681                     move.w     [A3], D1
00003BEC  3741 0280                move.w     [A3 + 0x280], D1
00003BF0  528A                     addq.l     A2, 1
00003BF2  548B                     addq.l     A3, 2
00003BF4  1012                     move.b     D0, [A2]
00003BF6  1200                     move.b     D1, D0
00003BF8  E149                     lsl        D1.w, 8
00003BFA  1200                     move.b     D1, D0
00003BFC  4641                     not.w      D1
00003BFE  3681                     move.w     [A3], D1
00003C00  3741 0280                move.w     [A3 + 0x280], D1
00003C04  528A                     addq.l     A2, 1
00003C06  548B                     addq.l     A3, 2
00003C08  5142                     subq.w     D2, 8
00003C0A  6000 FF56                bra        -0xA8 /* 00003B62 */
label00003C0E:
00003C0E  D1FC 0000 0140           add.l      A0, 0x140
00003C14  D3FC 0000 0500           add.l      A1, 0x500
00003C1A  5244                     addq.w     D4, 1
00003C1C  6000 FF38                bra        -0xC6 /* 00003B56 */
label00003C20:
00003C20  4CDF 1C78                movem.l    D3,D4,D5,D6,A2,A3,A4, [A7]+
00003C24  4CDF 1800                movem.l    A3,A4, [A7]+
00003C28  4E75                     rts
export_207:
00003C2A  4E75                     rts
fn00003C2C:
00003C2C  4EBA C674                jsr        [PC - 0x398C /* 000002A2 */]
00003C30  4E75                     rts
export_208:
00003C32  4E56 FFFE                link       A6, -0x0002
00003C36  302E FFFE                move.w     D0, [A6 - 0x2]
00003C3A  4E5E                     unlink     A6
00003C3C  4E75                     rts
export_209:
00003C3E  4E56 FFFE                link       A6, -0x0002
00003C42  4E5E                     unlink     A6
00003C44  4E75                     rts
export_210:
00003C46  302D EDE2                move.w     D0, [A5 - 0x121E]
00003C4A  4E75                     rts
00003C4C  0C39 00FF FFFF 000E      cmpi.b     [0xFFFF000E], 0xFF
00003C54  660A                     bne        +0xC /* 00003C60 */
00003C56  0C39 0021 FC00 0000      cmpi.b     [0xFC000000], 0x21 /* '!' */
00003C5E  6704                     beq        +0x6 /* 00003C64 */
label00003C60:
00003C60  7000                     moveq.l    D0, 0x00
00003C62  6002                     bra        +0x4 /* 00003C66 */
label00003C64:
00003C64  7001                     moveq.l    D0, 0x01
label00003C66:
00003C66  4E75                     rts
fn00003C68:
00003C68  4E56 0000                link       A6, 0
00003C6C  48E7 0318                movem.l    -[A7], D6,D7,A3,A4
00003C70  206E 000A                movea.l    A0, [A6 + 0xA]
00003C74  2B50 9EA2                move.l     [A5 - 0x615E], [A0]
00003C78  7E01                     moveq.l    D7, 0x01
00003C7A  387C 0004                movea.w    A4, 0x4
00003C7E  604C                     bra        +0x4E /* 00003CCC */
label00003C80:
00003C80  2676 C925 000A           movea.l    A3, [[A6 + 0xA] + A4]
00003C86  1C13                     move.b     D6, [A3]
00003C88  1006                     move.b     D0, D6
00003C8A  6B32                     bmi        +0x34 /* 00003CBE */
00003C8C  0400 0064                subi.b     D0, 0x64 /* 'd' */
00003C90  6724                     beq        +0x26 /* 00003CB6 */
00003C92  6A08                     bpl        +0xA /* 00003C9C */
00003C94  0400 00E0                subi.b     D0, 0xE0
00003C98  671C                     beq        +0x1E /* 00003CB6 */
00003C9A  6022                     bra        +0x24 /* 00003CBE */
label00003C9C:
00003C9C  0400 000C                subi.b     D0, 0xC
00003CA0  6702                     beq        +0x4 /* 00003CA4 */
00003CA2  601A                     bra        +0x1C /* 00003CBE */
label00003CA4:
00003CA4  42AD F73A                clr.l      [A5 - 0x8C6]
00003CA8  42AD F73E                clr.l      [A5 - 0x8C2]
00003CAC  2B7C 0000 0F42 F73E      move.l     [A5 - 0x8C2], 0xF42
00003CB4  6012                     bra        +0x14 /* 00003CC8 */
label00003CB6:
00003CB6  3B7C 0002 EDE2           move.w     [A5 - 0x121E], 0x2
00003CBC  600A                     bra        +0xC /* 00003CC8 */
label00003CBE:
00003CBE  0C06 0030                cmpi.b     D6, 0x30 /* '0' */
00003CC2  6D04                     blt        +0x6 /* 00003CC8 */
00003CC4  0C06 0039                cmpi.b     D6, 0x39 /* '9' */
label00003CC8:
00003CC8  5247                     addq.w     D7, 1
00003CCA  588C                     addq.l     A4, 4
label00003CCC:
00003CCC  BE6E 0008                cmp.w      D7, [A6 + 0x8]
00003CD0  6DAE                     blt        -0x50 /* 00003C80 */
00003CD2  4CDF 18C0                movem.l    D6,D7,A3,A4, [A7]+
00003CD6  4E5E                     unlink     A6
00003CD8  4E75                     rts
00003CDA  48E7 0300                movem.l    -[A7], D6,D7
00003CDE  2F2D 9EA2                move.l     -[A7], [A5 - 0x615E]
00003CE2  486D F680                pea.l      [A5 - 0x980]
00003CE6  4EAD 0CD2                jsr        [A5 + 0xCD2 /* export_406, CODE:7 @ 000049C2 */]
00003CEA  486D F680                pea.l      [A5 - 0x980]
00003CEE  4EAD 0CE2                jsr        [A5 + 0xCE2 /* export_408, CODE:7 @ 00004AE2 */]
00003CF2  3E00                     move.w     D7, D0
00003CF4  4FEF 000C                lea.l      A7, [A7 + 0xC]
00003CF8  6014                     bra        +0x16 /* 00003D0E */
label00003CFA:
00003CFA  1C35 7120 F680           move.b     D6, [A5 - 0x980 + D7]
00003D00  0C06 005C                cmpi.b     D6, 0x5C /* '\\' */
00003D04  670C                     beq        +0xE /* 00003D12 */
00003D06  0C06 003A                cmpi.b     D6, 0x3A /* ':' */
00003D0A  6706                     beq        +0x8 /* 00003D12 */
00003D0C  5347                     subq.w     D7, 1
label00003D0E:
00003D0E  4A47                     tst.w      D7
00003D10  6EE8                     bgt        -0x16 /* 00003CFA */
label00003D12:
00003D12  4235 7120 F681           clr.b      [A5 - 0x97F + D7]
00003D18  41ED F680                lea.l      A0, [A5 - 0x980]
00003D1C  2008                     move.l     D0, A0
00003D1E  4CDF 00C0                movem.l    D6,D7, [A7]+
00003D22  4E75                     rts
fn00003D24:
00003D24  4E56 FFFE                link       A6, -0x0002
00003D28  3B7C 0003 9FA8           move.w     [A5 - 0x6058], 0x3
00003D2E  102D 9C6C                move.b     D0, [A5 - 0x6394]
00003D32  49C0                     lea.l      A4, D0
00003D34  5D40                     subq.w     D0, 6
00003D36  0C40 000D                cmpi.w     D0, 0xD /* '\r' */
00003D3A  621A                     bhi        +0x1C /* 00003D56 */
00003D3C  43FA 00D2                lea.l      A1, [PC + 0xD2 /* 00003E10, value 0xFF36FF36 */]
00003D40  D2F1 0200                add.w      A1, [A1 + D0.w * 2]
00003D44  4ED1                     jmp        [A1]
00003D46  3B7C 0002 9FA6           move.w     [A5 - 0x605A], 0x2
00003D4C  601E                     bra        +0x20 /* 00003D6C */
00003D4E  3B7C 0003 9FA6           move.w     [A5 - 0x605A], 0x3
00003D54  6016                     bra        +0x18 /* 00003D6C */
label00003D56:
00003D56  0C2D 0004 9C6D           cmpi.b     [A5 - 0x6393], 0x4
00003D5C  6D08                     blt        +0xA /* 00003D66 */
00003D5E  3B7C 0003 9FA6           move.w     [A5 - 0x605A], 0x3
00003D64  6006                     bra        +0x8 /* 00003D6C */
label00003D66:
00003D66  3B7C 0002 9FA6           move.w     [A5 - 0x605A], 0x2
label00003D6C:
00003D6C  0C6D 0607 9C6E           cmpi.w     [A5 - 0x6392], 0x607
00003D72  6C06                     bge        +0x8 /* 00003D7A */
00003D74  3B7C 0001 9FA6           move.w     [A5 - 0x605A], 0x1
label00003D7A:
00003D7A  7006                     moveq.l    D0, 0x06
00003D7C  C1ED 9FA8                muls.w     D0, [A5 - 0x6058]
00003D80  D08D                     add.l      D0, A5
00003D82  2040                     movea.l    A0, D0
00003D84  302D 9FA6                move.w     D0, [A5 - 0x605A]
00003D88  3030 0320 A0CA           move.w     D0, [A0 - 0x5F36 + D0 * 2]
00003D8E  3B40 9FB0                move.w     [A5 - 0x6050], D0
00003D92  3B40 9FAE                move.w     [A5 - 0x6052], D0
00003D96  426D 9FAC                clr.w      [A5 - 0x6054]
00003D9A  322D 9FA6                move.w     D1, [A5 - 0x605A]
00003D9E  3235 1320 A0DC           move.w     D1, [A5 - 0x5F24 + D1 * 2]
00003DA4  3B41 9FAE                move.w     [A5 - 0x6052], D1
00003DA8  3B41 9FB0                move.w     [A5 - 0x6050], D1
00003DAC  6038                     bra        +0x3A /* 00003DE6 */
label00003DAE:
00003DAE  4EBA 04BC                jsr        [PC + 0x4BC /* 0000426C */]
00003DB2  0C6D 0009 9FAE           cmpi.w     [A5 - 0x6052], 0x9 /* '\t' */
00003DB8  6D08                     blt        +0xA /* 00003DC2 */
00003DBA  3B7C 0007 9FAE           move.w     [A5 - 0x6052], 0x7
00003DC0  601E                     bra        +0x20 /* 00003DE0 */
label00003DC2:
00003DC2  0C6D 0007 9FAE           cmpi.w     [A5 - 0x6052], 0x7
00003DC8  6D08                     blt        +0xA /* 00003DD2 */
00003DCA  3B7C 0006 9FAE           move.w     [A5 - 0x6052], 0x6
00003DD0  600E                     bra        +0x10 /* 00003DE0 */
label00003DD2:
00003DD2  0C6D 0006 9FAE           cmpi.w     [A5 - 0x6052], 0x6
00003DD8  6E06                     bgt        +0x8 /* 00003DE0 */
00003DDA  3B7C 0006 9FAE           move.w     [A5 - 0x6052], 0x6
label00003DE0:
00003DE0  3B6D 9FAE 9FB0           move.w     [A5 - 0x6050], [A5 - 0x6052]
label00003DE6:
00003DE6  0C6D 0006 9FAE           cmpi.w     [A5 - 0x6052], 0x6
00003DEC  6F08                     ble        +0xA /* 00003DF6 */
00003DEE  4EBA 057E                jsr        [PC + 0x57E /* 0000436E */]
00003DF2  4A40                     tst.w      D0
00003DF4  67B8                     beq        -0x46 /* 00003DAE */
label00003DF6:
00003DF6  7006                     moveq.l    D0, 0x06
00003DF8  C1ED 9FA8                muls.w     D0, [A5 - 0x6058]
00003DFC  D08D                     add.l      D0, A5
00003DFE  2040                     movea.l    A0, D0
00003E00  302D 9FA6                move.w     D0, [A5 - 0x605A]
00003E04  31AD 9FAE 0320 A0CA      move.w     [A0 - 0x5F36 + D0 * 2], [A5 - 0x6052]
00003E0C  4E5E                     unlink     A6
00003E0E  4E75                     rts
00003E10  FF36                     .extension 0xF36 <<F/4-5/7>> // unimplemented
00003E12  FF36                     .extension 0xF36 <<F/4-5/7>> // unimplemented
00003E14  FF36                     .extension 0xF36 <<F/4-5/7>> // unimplemented
00003E16  FF36                     .extension 0xF36 <<F/4-5/7>> // unimplemented
00003E18  FF46                     .extension 0xF46 <<F/4-5/7>> // unimplemented
00003E1A  FF3E                     .extension 0xF3E <<F/4-5/7>> // unimplemented
00003E1C  FF46                     .extension 0xF46 <<F/4-5/7>> // unimplemented
00003E1E  FF3E                     .extension 0xF3E <<F/4-5/7>> // unimplemented
00003E20  FF46                     .extension 0xF46 <<F/4-5/7>> // unimplemented
00003E22  FF46                     .extension 0xF46 <<F/4-5/7>> // unimplemented
00003E24  FF46                     .extension 0xF46 <<F/4-5/7>> // unimplemented
00003E26  FF46                     .extension 0xF46 <<F/4-5/7>> // unimplemented
00003E28  FF36                     .extension 0xF36 <<F/4-5/7>> // unimplemented
00003E2A  FF36                     .extension 0xF36 <<F/4-5/7>> // unimplemented
00003E2C  4EBA 043E                jsr        [PC + 0x43E /* 0000426C */]
00003E30  7006                     moveq.l    D0, 0x06
00003E32  C1ED 9FA8                muls.w     D0, [A5 - 0x6058]
00003E36  D08D                     add.l      D0, A5
00003E38  2040                     movea.l    A0, D0
00003E3A  302D 9FA6                move.w     D0, [A5 - 0x605A]
00003E3E  3030 0320 A0CA           move.w     D0, [A0 - 0x5F36 + D0 * 2]
00003E44  3B40 9FB0                move.w     [A5 - 0x6050], D0
00003E48  3B40 9FAE                move.w     [A5 - 0x6052], D0
00003E4C  426D 9FAC                clr.w      [A5 - 0x6054]
00003E50  6038                     bra        +0x3A /* 00003E8A */
label00003E52:
00003E52  4EBA 0418                jsr        [PC + 0x418 /* 0000426C */]
00003E56  0C6D 0009 9FAE           cmpi.w     [A5 - 0x6052], 0x9 /* '\t' */
00003E5C  6D08                     blt        +0xA /* 00003E66 */
00003E5E  3B7C 0007 9FAE           move.w     [A5 - 0x6052], 0x7
00003E64  601E                     bra        +0x20 /* 00003E84 */
label00003E66:
00003E66  0C6D 0007 9FAE           cmpi.w     [A5 - 0x6052], 0x7
00003E6C  6D08                     blt        +0xA /* 00003E76 */
00003E6E  3B7C 0006 9FAE           move.w     [A5 - 0x6052], 0x6
00003E74  600E                     bra        +0x10 /* 00003E84 */
label00003E76:
00003E76  0C6D 0006 9FAE           cmpi.w     [A5 - 0x6052], 0x6
00003E7C  6E06                     bgt        +0x8 /* 00003E84 */
00003E7E  3B7C 0006 9FAE           move.w     [A5 - 0x6052], 0x6
label00003E84:
00003E84  3B6D 9FAE 9FB0           move.w     [A5 - 0x6050], [A5 - 0x6052]
label00003E8A:
00003E8A  0C6D 0006 9FAE           cmpi.w     [A5 - 0x6052], 0x6
00003E90  6F08                     ble        +0xA /* 00003E9A */
00003E92  4EBA 04DA                jsr        [PC + 0x4DA /* 0000436E */]
00003E96  4A40                     tst.w      D0
00003E98  67B8                     beq        -0x46 /* 00003E52 */
label00003E9A:
00003E9A  7006                     moveq.l    D0, 0x06
00003E9C  C1ED 9FA8                muls.w     D0, [A5 - 0x6058]
00003EA0  D08D                     add.l      D0, A5
00003EA2  2040                     movea.l    A0, D0
00003EA4  302D 9FA6                move.w     D0, [A5 - 0x605A]
00003EA8  31AD 9FAE 0320 A0CA      move.w     [A0 - 0x5F36 + D0 * 2], [A5 - 0x6052]
00003EB0  4E75                     rts
export_212:
fn00003EB2:
00003EB2  4E56 FFFC                link       A6, -0x0004
00003EB6  48E7 0108                movem.l    -[A7], D7,A4
00003EBA  3E2E 0008                move.w     D7, [A6 + 0x8]
00003EBE  4A6D 9FB6                tst.w      [A5 - 0x604A]
00003EC2  6600 0198                bne        +0x19A /* 0000405C */
00003EC6  3F07                     move.w     -[A7], D7
00003EC8  3F3C 0004                move.w     -[A7], 0x4
00003ECC  4EAD 03E2                jsr        [A5 + 0x3E2 /* export_120, CODE:2 @ 00003CEE */]
00003ED0  2840                     movea.l    A4, D0
00003ED2  4A2D 9FBA                tst.b      [A5 - 0x6046]
00003ED6  588F                     addq.l     A7, 4
00003ED8  6708                     beq        +0xA /* 00003EE2 */
00003EDA  4A2C 000D                tst.b      [A4 + 0xD]
00003EDE  6700 017C                beq        +0x17E /* 0000405C */
label00003EE2:
00003EE2  2B4C A0F6                move.l     [A5 - 0x5F0A], A4
00003EE6  206D A0F6                movea.l    A0, [A5 - 0x5F0A]
00003EEA  0C90 4D61 6330           cmpi.l     [A0], 0x4D616330 /* 'Mac0' */
00003EF0  670E                     beq        +0x10 /* 00003F00 */
00003EF2  206D A0F6                movea.l    A0, [A5 - 0x5F0A]
00003EF6  0C90 4D61 6331           cmpi.l     [A0], 0x4D616331 /* 'Mac1' */
00003EFC  6600 015E                bne        +0x160 /* 0000405C */
label00003F00:
00003F00  422D 9FAA                clr.b      [A5 - 0x6056]
00003F04  4A6D 9FB2                tst.w      [A5 - 0x604E]
00003F08  6708                     beq        +0xA /* 00003F12 */
00003F0A  4EBA 0316                jsr        [PC + 0x316 /* 00004222 */]
00003F0E  4EBA 035C                jsr        [PC + 0x35C /* 0000426C */]
label00003F12:
00003F12  4A6D 9FAE                tst.w      [A5 - 0x6052]
00003F16  660C                     bne        +0xE /* 00003F24 */
00003F18  4A6D C98C                tst.w      [A5 - 0x3674]
00003F1C  6700 013E                beq        +0x140 /* 0000405C */
00003F20  4EBA FE02                jsr        [PC - 0x1FE /* 00003D24 */]
label00003F24:
00003F24  4A6D 9FAE                tst.w      [A5 - 0x6052]
00003F28  6700 0132                beq        +0x134 /* 0000405C */
00003F2C  206D A0F6                movea.l    A0, [A5 - 0x5F0A]
00003F30  4AA8 0010                tst.l      [A0 + 0x10]
00003F34  6712                     beq        +0x14 /* 00003F48 */
00003F36  206D A0F6                movea.l    A0, [A5 - 0x5F0A]
00003F3A  2068 0010                movea.l    A0, [A0 + 0x10]
00003F3E  D1ED A0F6                add.l      A0, [A5 - 0x5F0A]
00003F42  2B48 A0FA                move.l     [A5 - 0x5F06], A0
00003F46  6004                     bra        +0x6 /* 00003F4C */
label00003F48:
00003F48  42AD A0FA                clr.l      [A5 - 0x5F06]
label00003F4C:
00003F4C  206D A0F6                movea.l    A0, [A5 - 0x5F0A]
00003F50  4AA8 0014                tst.l      [A0 + 0x14]
00003F54  6712                     beq        +0x14 /* 00003F68 */
00003F56  206D A0F6                movea.l    A0, [A5 - 0x5F0A]
00003F5A  2068 0014                movea.l    A0, [A0 + 0x14]
00003F5E  D1ED A0F6                add.l      A0, [A5 - 0x5F0A]
00003F62  2B48 A0FE                move.l     [A5 - 0x5F02], A0
00003F66  6004                     bra        +0x6 /* 00003F6C */
label00003F68:
00003F68  42AD A0FE                clr.l      [A5 - 0x5F02]
label00003F6C:
00003F6C  206D A0F6                movea.l    A0, [A5 - 0x5F0A]
00003F70  4AA8 0018                tst.l      [A0 + 0x18]
00003F74  6712                     beq        +0x14 /* 00003F88 */
00003F76  206D A0F6                movea.l    A0, [A5 - 0x5F0A]
00003F7A  2068 0018                movea.l    A0, [A0 + 0x18]
00003F7E  D1ED A0F6                add.l      A0, [A5 - 0x5F0A]
00003F82  2B48 A102                move.l     [A5 - 0x5EFE], A0
00003F86  6004                     bra        +0x6 /* 00003F8C */
label00003F88:
00003F88  42AD A102                clr.l      [A5 - 0x5EFE]
label00003F8C:
00003F8C  206D A0F6                movea.l    A0, [A5 - 0x5F0A]
00003F90  4AA8 001C                tst.l      [A0 + 0x1C]
00003F94  6712                     beq        +0x14 /* 00003FA8 */
00003F96  206D A0F6                movea.l    A0, [A5 - 0x5F0A]
00003F9A  2068 001C                movea.l    A0, [A0 + 0x1C]
00003F9E  D1ED A0F6                add.l      A0, [A5 - 0x5F0A]
00003FA2  2B48 A106                move.l     [A5 - 0x5EFA], A0
00003FA6  6004                     bra        +0x6 /* 00003FAC */
label00003FA8:
00003FA8  42AD A106                clr.l      [A5 - 0x5EFA]
label00003FAC:
00003FAC  4EBA 0C3A                jsr        [PC + 0xC3A /* 00004BE8 */]
00003FB0  4A2D 9C51                tst.b      [A5 - 0x63AF]
00003FB4  6718                     beq        +0x1A /* 00003FCE */
00003FB6  4A6D A0F0                tst.w      [A5 - 0x5F10]
00003FBA  6712                     beq        +0x14 /* 00003FCE */
00003FBC  4EBA 00D6                jsr        [PC + 0xD6 /* 00004094 */]
00003FC0  4A40                     tst.w      D0
00003FC2  6700 0098                beq        +0x9A /* 0000405C */
00003FC6  3B47 F8F4                move.w     [A5 - 0x70C], D7
00003FCA  6000 0090                bra        +0x92 /* 0000405C */
label00003FCE:
00003FCE  082D 0001 9C51           btst.b     [A5 - 0x63AF], 0x1
00003FD4  6600 0086                bne        +0x88 /* 0000405C */
00003FD8  3B6D 9FAE 9FB0           move.w     [A5 - 0x6050], [A5 - 0x6052]
00003FDE  4A6D A0F2                tst.w      [A5 - 0x5F0E]
00003FE2  6706                     beq        +0x8 /* 00003FEA */
00003FE4  3B6D A0F2 9FB0           move.w     [A5 - 0x6050], [A5 - 0x5F0E]
label00003FEA:
00003FEA  3B47 9FB2                move.w     [A5 - 0x604E], D7
00003FEE  4A6D A0F0                tst.w      [A5 - 0x5F10]
00003FF2  6714                     beq        +0x16 /* 00004008 */
00003FF4  4EBA 009E                jsr        [PC + 0x9E /* 00004094 */]
00003FF8  4A40                     tst.w      D0
00003FFA  6704                     beq        +0x6 /* 00004000 */
00003FFC  3B47 F8F4                move.w     [A5 - 0x70C], D7
label00004000:
00004000  1B7C 0001 9FBA           move.b     [A5 - 0x6046], 0x1
00004006  6008                     bra        +0xA /* 00004010 */
label00004008:
00004008  426D F8F4                clr.w      [A5 - 0x70C]
0000400C  422D 9FBA                clr.b      [A5 - 0x6046]
label00004010:
00004010  4EBA 035C                jsr        [PC + 0x35C /* 0000436E */]
00004014  3B47 9FB2                move.w     [A5 - 0x604E], D7
00004018  4A2D 9C51                tst.b      [A5 - 0x63AF]
0000401C  6706                     beq        +0x8 /* 00004024 */
0000401E  4A6D A0F0                tst.w      [A5 - 0x5F10]
00004022  660A                     bne        +0xC /* 0000402E */
label00004024:
00004024  2F2D 9FBC                move.l     -[A7], [A5 - 0x6044]
00004028  4EBA 05C0                jsr        [PC + 0x5C0 /* 000045EA */]
0000402C  588F                     addq.l     A7, 4
label0000402E:
0000402E  4AAD 9FBC                tst.l      [A5 - 0x6044]
00004032  670E                     beq        +0x10 /* 00004042 */
00004034  3B6D 9FB4 A0F4           move.w     [A5 - 0x5F0C], [A5 - 0x604C]
0000403A  3B6D 9FB8 9C58           move.w     [A5 - 0x63A8], [A5 - 0x6048]
00004040  6008                     bra        +0xA /* 0000404A */
label00004042:
00004042  426D A0F4                clr.w      [A5 - 0x5F0C]
00004046  426D 9C58                clr.w      [A5 - 0x63A8]
label0000404A:
0000404A  426D 9FB4                clr.w      [A5 - 0x604C]
0000404E  426D 9FB8                clr.w      [A5 - 0x6048]
00004052  42AD 9FBC                clr.l      [A5 - 0x6044]
00004056  1B7C 0001 9FAA           move.b     [A5 - 0x6056], 0x1
label0000405C:
0000405C  4CDF 1080                movem.l    D7,A4, [A7]+
00004060  4E5E                     unlink     A6
00004062  4E75                     rts
fn00004064:
00004064  2F07                     move.l     -[A7], D7
00004066  4A2D 9C51                tst.b      [A5 - 0x63AF]
0000406A  670E                     beq        +0x10 /* 0000407A */
0000406C  3E2D F8F4                move.w     D7, [A5 - 0x70C]
00004070  4EBA 01B0                jsr        [PC + 0x1B0 /* 00004222 */]
00004074  3B47 F8F4                move.w     [A5 - 0x70C], D7
00004078  6016                     bra        +0x18 /* 00004090 */
label0000407A:
0000407A  4A6D F8F4                tst.w      [A5 - 0x70C]
0000407E  6710                     beq        +0x12 /* 00004090 */
00004080  3E2D F8F4                move.w     D7, [A5 - 0x70C]
00004084  426D F8F4                clr.w      [A5 - 0x70C]
00004088  3F07                     move.w     -[A7], D7
0000408A  4EAD 021A                jsr        [A5 + 0x21A /* export_63, CODE:2 @ 00001E98 */]
0000408E  548F                     addq.l     A7, 2
label00004090:
00004090  2E1F                     move.l     D7, [A7]+
00004092  4E75                     rts
fn00004094:
00004094  4E56 FFFE                link       A6, -0x0002
00004098  48E7 0308                movem.l    -[A7], D6,D7,A4
0000409C  422D 9FAA                clr.b      [A5 - 0x6056]
000040A0  7E00                     moveq.l    D7, 0x00
000040A2  7000                     moveq.l    D0, 0x00
000040A4  3007                     move.w     D0, D7
000040A6  4AB5 0D20 A0FE           tst.l      [A5 - 0x5F02 + D0 * 4]
000040AC  6734                     beq        +0x36 /* 000040E2 */
000040AE  7000                     moveq.l    D0, 0x00
000040B0  3007                     move.w     D0, D7
000040B2  720C                     moveq.l    D1, 0x0C
000040B4  D2B5 0D20 A0FE           add.l      D1, [A5 - 0x5F02 + D0 * 4]
000040BA  2841                     movea.l    A4, D1
000040BC  7C00                     moveq.l    D6, 0x00
label000040BE:
000040BE  2014                     move.l     D0, [A4]
000040C0  6B1C                     bmi        +0x1E /* 000040DE */
000040C2  0480 4C6F 6F70           subi.l     D0, 0x4C6F6F70 /* 'Loop' */
000040C8  670C                     beq        +0xE /* 000040D6 */
000040CA  6A12                     bpl        +0x14 /* 000040DE */
000040CC  0480 F7FF FEF5           subi.l     D0, 0xF7FFFEF5
000040D2  6706                     beq        +0x8 /* 000040DA */
000040D4  6008                     bra        +0xA /* 000040DE */
label000040D6:
000040D6  7001                     moveq.l    D0, 0x01
000040D8  600A                     bra        +0xC /* 000040E4 */
label000040DA:
000040DA  7000                     moveq.l    D0, 0x00
000040DC  6006                     bra        +0x8 /* 000040E4 */
label000040DE:
000040DE  588C                     addq.l     A4, 4
000040E0  60DC                     bra        -0x22 /* 000040BE */
label000040E2:
000040E2  7000                     moveq.l    D0, 0x00
label000040E4:
000040E4  4CDF 10C0                movem.l    D6,D7,A4, [A7]+
000040E8  4E5E                     unlink     A6
000040EA  4E75                     rts
fn000040EC:
000040EC  4A6D F8F4                tst.w      [A5 - 0x70C]
000040F0  670A                     beq        +0xC /* 000040FC */
000040F2  3F2D F8F4                move.w     -[A7], [A5 - 0x70C]
000040F6  4EAD 021A                jsr        [A5 + 0x21A /* export_63, CODE:2 @ 00001E98 */]
000040FA  548F                     addq.l     A7, 2
label000040FC:
000040FC  4E75                     rts
fn000040FE:
000040FE  4E56 0000                link       A6, 0
00004102  4A6E 0008                tst.w      [A6 + 0x8]
00004106  6708                     beq        +0xA /* 00004110 */
00004108  3B7C 0001 A0E4           move.w     [A5 - 0x5F1C], 0x1
0000410E  600E                     bra        +0x10 /* 0000411E */
label00004110:
00004110  4A6D A0E4                tst.w      [A5 - 0x5F1C]
00004114  6708                     beq        +0xA /* 0000411E */
00004116  426D A0E4                clr.w      [A5 - 0x5F1C]
0000411A  4EBA 0006                jsr        [PC + 0x6 /* 00004122 */]
label0000411E:
0000411E  4E5E                     unlink     A6
00004120  4E75                     rts
fn00004122:
00004122  2F07                     move.l     -[A7], D7
00004124  3E2D 9FB2                move.w     D7, [A5 - 0x604E]
00004128  42AD 9FBC                clr.l      [A5 - 0x6044]
0000412C  4EBA 00F4                jsr        [PC + 0xF4 /* 00004222 */]
00004130  3F07                     move.w     -[A7], D7
00004132  4EBA FD7E                jsr        [PC - 0x282 /* 00003EB2 */]
00004136  548F                     addq.l     A7, 2
00004138  2E1F                     move.l     D7, [A7]+
0000413A  4E75                     rts
0000413C  302D A0F4                move.w     D0, [A5 - 0x5F0C]
00004140  4E75                     rts
export_214:
fn00004142:
00004142  4E56 FFFE                link       A6, -0x0002
00004146  3B6D A0F4 9FB4           move.w     [A5 - 0x604C], [A5 - 0x5F0C]
0000414C  3B6D 9C58 9FB8           move.w     [A5 - 0x6048], [A5 - 0x63A8]
00004152  4A2D 9FBA                tst.b      [A5 - 0x6046]
00004156  671E                     beq        +0x20 /* 00004176 */
00004158  4A6D 9FB2                tst.w      [A5 - 0x604E]
0000415C  6718                     beq        +0x1A /* 00004176 */
0000415E  422D 9FAA                clr.b      [A5 - 0x6056]
00004162  4EBA 0108                jsr        [PC + 0x108 /* 0000426C */]
00004166  526D 9FB6                addq.w     [A5 - 0x604A], 1
0000416A  3B6D A0F4 9FB4           move.w     [A5 - 0x604C], [A5 - 0x5F0C]
00004170  3B6D 9C58 9FB8           move.w     [A5 - 0x6048], [A5 - 0x63A8]
label00004176:
00004176  4E5E                     unlink     A6
00004178  4E75                     rts
export_215:
fn0000417A:
0000417A  4E56 FFF6                link       A6, -0x000A
0000417E  2F06                     move.l     -[A7], D6
00004180  426E FFFA                clr.w      [A6 - 0x6]
00004184  42AE FFF6                clr.l      [A6 - 0xA]
00004188  3B6D 9FB4 A0F4           move.w     [A5 - 0x5F0C], [A5 - 0x604C]
0000418E  3B6D 9FB8 9C58           move.w     [A5 - 0x63A8], [A5 - 0x6048]
00004194  4A6D 9FB6                tst.w      [A5 - 0x604A]
00004198  675C                     beq        +0x5E /* 000041F6 */
0000419A  536D 9FB6                subq.w     [A5 - 0x604A], 1
0000419E  4A6D 9FB6                tst.w      [A5 - 0x604A]
000041A2  6652                     bne        +0x54 /* 000041F6 */
000041A4  082D 0001 9C51           btst.b     [A5 - 0x63AF], 0x1
000041AA  664A                     bne        +0x4C /* 000041F6 */
000041AC  4A2D 9C51                tst.b      [A5 - 0x63AF]
000041B0  6706                     beq        +0x8 /* 000041B8 */
000041B2  4A6D A0F0                tst.w      [A5 - 0x5F10]
000041B6  663E                     bne        +0x40 /* 000041F6 */
label000041B8:
000041B8  4A2D 9FBA                tst.b      [A5 - 0x6046]
000041BC  6738                     beq        +0x3A /* 000041F6 */
000041BE  4A6D 9FB2                tst.w      [A5 - 0x604E]
000041C2  6732                     beq        +0x34 /* 000041F6 */
000041C4  422D 9FAA                clr.b      [A5 - 0x6056]
000041C8  3C2D 9FB2                move.w     D6, [A5 - 0x604E]
000041CC  303C 03E8                move.w     D0, 0x3E8
000041D0  C0ED 9FB4                mulu.w     D0, [A5 - 0x604C]
000041D4  721E                     moveq.l    D1, 0x1E
000041D6  343C 03E8                move.w     D2, 0x3E8
000041DA  C4ED 9FB8                mulu.w     D2, [A5 - 0x6048]
000041DE  4C41 2802                divs.l     D2:D2, D1
000041E2  D082                     add.l      D0, D2
000041E4  2B40 9FBC                move.l     [A5 - 0x6044], D0
000041E8  4EBA 0082                jsr        [PC + 0x82 /* 0000426C */]
000041EC  4EBA 0034                jsr        [PC + 0x34 /* 00004222 */]
000041F0  3F06                     move.w     -[A7], D6
000041F2  4EBA FCBE                jsr        [PC - 0x342 /* 00003EB2 */]
label000041F6:
000041F6  2C2E FFF2                move.l     D6, [A6 - 0xE]
000041FA  4E5E                     unlink     A6
000041FC  4E75                     rts
export_216:
000041FE  4E56 0000                link       A6, 0
00004202  302D F8F4                move.w     D0, [A5 - 0x70C]
00004206  B06E 0008                cmp.w      D0, [A6 + 0x8]
0000420A  670A                     beq        +0xC /* 00004216 */
0000420C  302D 9FB2                move.w     D0, [A5 - 0x604E]
00004210  B06E 0008                cmp.w      D0, [A6 + 0x8]
00004214  6608                     bne        +0xA /* 0000421E */
label00004216:
00004216  4EBA 000A                jsr        [PC + 0xA /* 00004222 */]
0000421A  4EBA 0050                jsr        [PC + 0x50 /* 0000426C */]
label0000421E:
0000421E  4E5E                     unlink     A6
00004220  4E75                     rts
export_213:
fn00004222:
00004222  2F07                     move.l     -[A7], D7
00004224  422D 9FAA                clr.b      [A5 - 0x6056]
00004228  7E00                     moveq.l    D7, 0x00
0000422A  601A                     bra        +0x1C /* 00004246 */
label0000422C:
0000422C  4AB5 7520 9FE0           tst.l      [A5 - 0x6020 + D7 * 4]
00004232  6710                     beq        +0x12 /* 00004244 */
00004234  4267                     clr.w      -[A7]
00004236  2F35 7520 9FE0           move.l     -[A7], [A5 - 0x6020 + D7 * 4]
0000423C  486D A00C                pea.l      [A5 - 0x5FF4]
00004240  A804                     syscall    SndDoImmediate
00004242  548F                     addq.l     A7, 2
label00004244:
00004244  5247                     addq.w     D7, 1
label00004246:
00004246  0C47 0003                cmpi.w     D7, 0x3
0000424A  6DE0                     blt        -0x1E /* 0000422C */
0000424C  426D 9FB2                clr.w      [A5 - 0x604E]
00004250  426D F8F4                clr.w      [A5 - 0x70C]
00004254  422D 9FBA                clr.b      [A5 - 0x6046]
00004258  426D 9FB6                clr.w      [A5 - 0x604A]
0000425C  2E1F                     move.l     D7, [A7]+
0000425E  4E75                     rts
00004260  4EBA FFC0                jsr        [PC - 0x40 /* 00004222 */]
00004264  4E75                     rts
00004266  4EBA FFBA                jsr        [PC - 0x46 /* 00004222 */]
0000426A  4E75                     rts
export_211:
fn0000426C:
0000426C  4E56 FFF2                link       A6, -0x000E
00004270  48E7 0300                movem.l    -[A7], D6,D7
00004274  7C00                     moveq.l    D6, 0x00
00004276  422D 9FAA                clr.b      [A5 - 0x6056]
0000427A  7E00                     moveq.l    D7, 0x00
0000427C  6058                     bra        +0x5A /* 000042D6 */
label0000427E:
0000427E  7000                     moveq.l    D0, 0x00
00004280  3007                     move.w     D0, D7
00004282  4AB5 0D20 9FE0           tst.l      [A5 - 0x6020 + D0 * 4]
00004288  674A                     beq        +0x4C /* 000042D4 */
0000428A  4267                     clr.w      -[A7]
0000428C  7000                     moveq.l    D0, 0x00
0000428E  3007                     move.w     D0, D7
00004290  2F35 0D20 9FE0           move.l     -[A7], [A5 - 0x6020 + D0 * 4]
00004296  486D A014                pea.l      [A5 - 0x5FEC]
0000429A  A804                     syscall    SndDoImmediate
0000429C  4257                     clr.w      [A7]
0000429E  7000                     moveq.l    D0, 0x00
000042A0  3007                     move.w     D0, D7
000042A2  2F35 0D20 9FE0           move.l     -[A7], [A5 - 0x6020 + D0 * 4]
000042A8  486D A00C                pea.l      [A5 - 0x5FF4]
000042AC  A804                     syscall    SndDoImmediate
000042AE  4257                     clr.w      [A7]
000042B0  7000                     moveq.l    D0, 0x00
000042B2  3007                     move.w     D0, D7
000042B4  2F35 0D20 9FE0           move.l     -[A7], [A5 - 0x6020 + D0 * 4]
000042BA  486D A00C                pea.l      [A5 - 0x5FF4]
000042BE  A804                     syscall    SndDoImmediate
000042C0  4257                     clr.w      [A7]
000042C2  7000                     moveq.l    D0, 0x00
000042C4  3007                     move.w     D0, D7
000042C6  2F35 0D20 9FE0           move.l     -[A7], [A5 - 0x6020 + D0 * 4]
000042CC  486D A00C                pea.l      [A5 - 0x5FF4]
000042D0  A804                     syscall    SndDoImmediate
000042D2  548F                     addq.l     A7, 2
label000042D4:
000042D4  5247                     addq.w     D7, 1
label000042D6:
000042D6  0C47 0003                cmpi.w     D7, 0x3
000042DA  65A2                     bcs        -0x5C /* 0000427E */
000042DC  7E00                     moveq.l    D7, 0x00
000042DE  602C                     bra        +0x2E /* 0000430C */
label000042E0:
000042E0  7000                     moveq.l    D0, 0x00
000042E2  3007                     move.w     D0, D7
000042E4  4AB5 0D20 9FE0           tst.l      [A5 - 0x6020 + D0 * 4]
000042EA  671E                     beq        +0x20 /* 0000430A */
000042EC  4267                     clr.w      -[A7]
000042EE  7000                     moveq.l    D0, 0x00
000042F0  3007                     move.w     D0, D7
000042F2  2F35 0D20 9FE0           move.l     -[A7], [A5 - 0x6020 + D0 * 4]
000042F8  1F3C 0001                move.b     -[A7], 0x1
000042FC  A801                     syscall    SndDisposeChannel
000042FE  3C1F                     move.w     D6, [A7]+
00004300  7000                     moveq.l    D0, 0x00
00004302  3007                     move.w     D0, D7
00004304  42B5 0D20 9FE0           clr.l      [A5 - 0x6020 + D0 * 4]
label0000430A:
0000430A  5247                     addq.w     D7, 1
label0000430C:
0000430C  0C47 0003                cmpi.w     D7, 0x3
00004310  65CE                     bcs        -0x30 /* 000042E0 */
00004312  426D 9FAC                clr.w      [A5 - 0x6054]
00004316  4CDF 00C0                movem.l    D6,D7, [A7]+
0000431A  4E5E                     unlink     A6
0000431C  4E75                     rts
export_217:
0000431E  4E56 0000                link       A6, 0
00004322  2F07                     move.l     -[A7], D7
00004324  206E 0008                movea.l    A0, [A6 + 0x8]
00004328  2028 0004                move.l     D0, [A0 + 0x4]
0000432C  C18D                     exg        D0, A5
0000432E  2E00                     move.l     D7, D0
00004330  4A2D 9FC4                tst.b      [A5 - 0x603C]
00004334  6F04                     ble        +0x6 /* 0000433A */
00004336  532D 9FC4                subq.b     [A5 - 0x603C], 1
label0000433A:
0000433A  4A2D 9FC4                tst.b      [A5 - 0x603C]
0000433E  6620                     bne        +0x22 /* 00004360 */
00004340  4A2D 9FAA                tst.b      [A5 - 0x6056]
00004344  671A                     beq        +0x1C /* 00004360 */
00004346  4A2D 9FC0                tst.b      [A5 - 0x6040]
0000434A  670C                     beq        +0xE /* 00004358 */
0000434C  3F3C 0001                move.w     -[A7], 0x1
00004350  4EBA FDAC                jsr        [PC - 0x254 /* 000040FE */]
00004354  548F                     addq.l     A7, 2
00004356  6008                     bra        +0xA /* 00004360 */
label00004358:
00004358  4EBA FEC8                jsr        [PC - 0x138 /* 00004222 */]
0000435C  4EBA FF0E                jsr        [PC - 0xF2 /* 0000426C */]
label00004360:
00004360  2007                     move.l     D0, D7
00004362  C18D                     exg        D0, A5
00004364  2E00                     move.l     D7, D0
00004366  2E1F                     move.l     D7, [A7]+
00004368  4E5E                     unlink     A6
0000436A  4E74 0008                rtd        0x0008
fn0000436E:
0000436E  4E56 FFF2                link       A6, -0x000E
00004372  48E7 0300                movem.l    -[A7], D6,D7
00004376  7C00                     moveq.l    D6, 0x00
00004378  4A6D 9FAE                tst.w      [A5 - 0x6052]
0000437C  6606                     bne        +0x8 /* 00004384 */
0000437E  7000                     moveq.l    D0, 0x00
00004380  6000 0260                bra        +0x262 /* 000045E2 */
label00004384:
00004384  422D 9FAA                clr.b      [A5 - 0x6056]
00004388  302D 9FAC                move.w     D0, [A5 - 0x6054]
0000438C  B06D 9FB0                cmp.w      D0, [A5 - 0x6050]
00004390  6700 01B6                beq        +0x1B8 /* 00004548 */
00004394  4EBA FED6                jsr        [PC - 0x12A /* 0000426C */]
00004398  3B6D 9FB0 9FAC           move.w     [A5 - 0x6054], [A5 - 0x6050]
0000439E  4A6D A0F0                tst.w      [A5 - 0x5F10]
000043A2  6718                     beq        +0x1A /* 000043BC */
000043A4  302D 9FA6                move.w     D0, [A5 - 0x605A]
000043A8  3035 0320 A0DC           move.w     D0, [A5 - 0x5F24 + D0 * 2]
000043AE  3B40 9FAE                move.w     [A5 - 0x6052], D0
000043B2  3B40 9FB0                move.w     [A5 - 0x6050], D0
000043B6  3B40 9FAC                move.w     [A5 - 0x6054], D0
000043BA  600E                     bra        +0x10 /* 000043CA */
label000043BC:
000043BC  7007                     moveq.l    D0, 0x07
000043BE  3B40 9FAE                move.w     [A5 - 0x6052], D0
000043C2  3B40 9FB0                move.w     [A5 - 0x6050], D0
000043C6  3B40 9FAC                move.w     [A5 - 0x6054], D0
label000043CA:
000043CA  302D 9FAC                move.w     D0, [A5 - 0x6054]
000043CE  3B75 0320 A07C A0E8      move.w     [A5 - 0x5F18], [A5 - 0x5F84 + D0 * 2]
000043D6  3B75 0320 A090 A0E6      move.w     [A5 - 0x5F1A], [A5 - 0x5F70 + D0 * 2]
000043DE  322D A0E8                move.w     D1, [A5 - 0x5F18]
000043E2  6B00 0164                bmi        +0x166 /* 00004548 */
000043E6  5741                     subq.w     D1, 3
000043E8  6700 015E                beq        +0x160 /* 00004548 */
000043EC  6A08                     bpl        +0xA /* 000043F6 */
000043EE  5241                     addq.w     D1, 1
000043F0  6A0E                     bpl        +0x10 /* 00004400 */
000043F2  6000 0154                bra        +0x156 /* 00004548 */
label000043F6:
000043F6  5541                     subq.w     D1, 2
000043F8  6A00 014E                bpl        +0x150 /* 00004548 */
000043FC  6000 00B6                bra        +0xB8 /* 000044B4 */
label00004400:
00004400  426D 9FDA                clr.w      [A5 - 0x6026]
00004404  0C2D 0013 9C6C           cmpi.b     [A5 - 0x6394], 0x13
0000440A  660E                     bne        +0x10 /* 0000441A */
0000440C  0C6D 0700 9C6E           cmpi.w     [A5 - 0x6392], 0x700
00004412  6C06                     bge        +0x8 /* 0000441A */
00004414  3B7C 000C 9FDA           move.w     [A5 - 0x6026], 0xC
label0000441A:
0000441A  7E00                     moveq.l    D7, 0x00
0000441C  6000 008A                bra        +0x8C /* 000044A8 */
label00004420:
00004420  7000                     moveq.l    D0, 0x00
00004422  3007                     move.w     D0, D7
00004424  3075 0B20 9FD2           movea.w    A0, [A5 - 0x602E + D0 * 2]
0000442A  2008                     move.l     D0, A0
0000442C  EB88                     lsl        D0, 5
0000442E  0CB5 7369 6C65 0920 A126 cmpi.l     [A5 - 0x5EDA + D0], 0x73696C65 /* 'sile' */
00004438  676C                     beq        +0x6E /* 000044A6 */
0000443A  7000                     moveq.l    D0, 0x00
0000443C  3007                     move.w     D0, D7
0000443E  4AB5 0D20 9FE0           tst.l      [A5 - 0x6020 + D0 * 4]
00004444  6660                     bne        +0x62 /* 000044A6 */
00004446  7000                     moveq.l    D0, 0x00
00004448  3007                     move.w     D0, D7
0000444A  7200                     moveq.l    D1, 0x00
0000444C  3207                     move.w     D1, D7
0000444E  2BB5 0D20 9FF4 1D20 9FE0 move.l     [A5 - 0x6020 + D1 * 4], [A5 - 0x600C + D0 * 4]
00004458  7000                     moveq.l    D0, 0x00
0000445A  3007                     move.w     D0, D7
0000445C  4AB5 0D20 9FE0           tst.l      [A5 - 0x6020 + D0 * 4]
00004462  660C                     bne        +0xE /* 00004470 */
00004464  2F3C 0000 0F43           move.l     -[A7], 0xF43
0000446A  4EBA DAC6                jsr        [PC - 0x253A /* 00001F32 */]
0000446E  588F                     addq.l     A7, 4
label00004470:
00004470  7000                     moveq.l    D0, 0x00
00004472  3007                     move.w     D0, D7
00004474  3BBC 05DC 0D22 9FE0 001E move.w     [[A5 - 0x6020 + D0 * 4] + 0x1E], 0x5DC
0000447E  4267                     clr.w      -[A7]
00004480  7000                     moveq.l    D0, 0x00
00004482  3007                     move.w     D0, D7
00004484  4875 0D20 9FE0           pea.l      [A5 - 0x6020 + D0 * 4]
0000448A  3F3C 0003                move.w     -[A7], 0x3
0000448E  302D 9FAC                move.w     D0, [A5 - 0x6054]
00004492  7200                     moveq.l    D1, 0x00
00004494  3207                     move.w     D1, D7
00004496  D2B5 0520 A0A4           add.l      D1, [A5 - 0x5F5C + D0 * 4]
0000449C  2F01                     move.l     -[A7], D1
0000449E  486D 06EA                pea.l      [A5 + 0x6EA /* export_217, CODE:4 @ 0000431E */]
000044A2  A807                     syscall    SndNewChannel
000044A4  3C1F                     move.w     D6, [A7]+
label000044A6:
000044A6  5247                     addq.w     D7, 1
label000044A8:
000044A8  0C47 0003                cmpi.w     D7, 0x3
000044AC  6500 FF72                bcs        -0x8C /* 00004420 */
000044B0  6000 0096                bra        +0x98 /* 00004548 */
label000044B4:
000044B4  426D 9FDA                clr.w      [A5 - 0x6026]
000044B8  7E00                     moveq.l    D7, 0x00
000044BA  6000 0084                bra        +0x86 /* 00004540 */
label000044BE:
000044BE  7000                     moveq.l    D0, 0x00
000044C0  3007                     move.w     D0, D7
000044C2  3075 0B20 9FD2           movea.w    A0, [A5 - 0x602E + D0 * 2]
000044C8  2008                     move.l     D0, A0
000044CA  EB88                     lsl        D0, 5
000044CC  0CB5 7369 6C65 0920 A126 cmpi.l     [A5 - 0x5EDA + D0], 0x73696C65 /* 'sile' */
000044D6  6766                     beq        +0x68 /* 0000453E */
000044D8  7000                     moveq.l    D0, 0x00
000044DA  3007                     move.w     D0, D7
000044DC  4AB5 0D20 9FE0           tst.l      [A5 - 0x6020 + D0 * 4]
000044E2  665A                     bne        +0x5C /* 0000453E */
000044E4  7000                     moveq.l    D0, 0x00
000044E6  3007                     move.w     D0, D7
000044E8  7200                     moveq.l    D1, 0x00
000044EA  3207                     move.w     D1, D7
000044EC  2BB5 0D20 9FF4 1D20 9FE0 move.l     [A5 - 0x6020 + D1 * 4], [A5 - 0x600C + D0 * 4]
000044F6  7000                     moveq.l    D0, 0x00
000044F8  3007                     move.w     D0, D7
000044FA  4AB5 0D20 9FE0           tst.l      [A5 - 0x6020 + D0 * 4]
00004500  660C                     bne        +0xE /* 0000450E */
00004502  2F3C 0000 0F63           move.l     -[A7], 0xF63
00004508  4EBA DA28                jsr        [PC - 0x25D8 /* 00001F32 */]
0000450C  588F                     addq.l     A7, 4
label0000450E:
0000450E  7000                     moveq.l    D0, 0x00
00004510  3007                     move.w     D0, D7
00004512  3BBC 05DC 0D22 9FE0 001E move.w     [[A5 - 0x6020 + D0 * 4] + 0x1E], 0x5DC
0000451C  4267                     clr.w      -[A7]
0000451E  7000                     moveq.l    D0, 0x00
00004520  3007                     move.w     D0, D7
00004522  4875 0D20 9FE0           pea.l      [A5 - 0x6020 + D0 * 4]
00004528  3F3C 0005                move.w     -[A7], 0x5
0000452C  302D 9FAC                move.w     D0, [A5 - 0x6054]
00004530  2F35 0520 A0A4           move.l     -[A7], [A5 - 0x5F5C + D0 * 4]
00004536  486D 06EA                pea.l      [A5 + 0x6EA /* export_217, CODE:4 @ 0000431E */]
0000453A  A807                     syscall    SndNewChannel
0000453C  3C1F                     move.w     D6, [A7]+
label0000453E:
0000453E  5247                     addq.w     D7, 1
label00004540:
00004540  0C47 0003                cmpi.w     D7, 0x3
00004544  6500 FF78                bcs        -0x86 /* 000044BE */
label00004548:
00004548  302D A0E8                move.w     D0, [A5 - 0x5F18]
0000454C  6B00 008A                bmi        +0x8C /* 000045D8 */
00004550  5740                     subq.w     D0, 3
00004552  6700 0084                beq        +0x86 /* 000045D8 */
00004556  6A06                     bpl        +0x8 /* 0000455E */
00004558  5240                     addq.w     D0, 1
0000455A  6A08                     bpl        +0xA /* 00004564 */
0000455C  607A                     bra        +0x7C /* 000045D8 */
label0000455E:
0000455E  5540                     subq.w     D0, 2
00004560  6A76                     bpl        +0x78 /* 000045D8 */
00004562  6040                     bra        +0x42 /* 000045A4 */
label00004564:
00004564  7E00                     moveq.l    D7, 0x00
00004566  6034                     bra        +0x36 /* 0000459C */
label00004568:
00004568  7000                     moveq.l    D0, 0x00
0000456A  3007                     move.w     D0, D7
0000456C  4AB5 0D20 9FE0           tst.l      [A5 - 0x6020 + D0 * 4]
00004572  6726                     beq        +0x28 /* 0000459A */
00004574  3B7C 0100 A04E           move.w     [A5 - 0x5FB2], 0x100
0000457A  41ED 9EA6                lea.l      A0, [A5 - 0x615A]
0000457E  2B48 A050                move.l     [A5 - 0x5FB0], A0
00004582  4267                     clr.w      -[A7]
00004584  7000                     moveq.l    D0, 0x00
00004586  3007                     move.w     D0, D7
00004588  2F35 0D20 9FE0           move.l     -[A7], [A5 - 0x6020 + D0 * 4]
0000458E  486D A04C                pea.l      [A5 - 0x5FB4]
00004592  1F3C 0001                move.b     -[A7], 0x1
00004596  A803                     syscall    SndDoCommand
00004598  3C1F                     move.w     D6, [A7]+
label0000459A:
0000459A  5247                     addq.w     D7, 1
label0000459C:
0000459C  0C47 0004                cmpi.w     D7, 0x4
000045A0  65C6                     bcs        -0x38 /* 00004568 */
000045A2  6034                     bra        +0x36 /* 000045D8 */
label000045A4:
000045A4  7E00                     moveq.l    D7, 0x00
000045A6  602A                     bra        +0x2C /* 000045D2 */
label000045A8:
000045A8  7000                     moveq.l    D0, 0x00
000045AA  3007                     move.w     D0, D7
000045AC  4AB5 0D20 9FE0           tst.l      [A5 - 0x6020 + D0 * 4]
000045B2  671C                     beq        +0x1E /* 000045D0 */
000045B4  7000                     moveq.l    D0, 0x00
000045B6  3007                     move.w     D0, D7
000045B8  2F35 0D20 9FE0           move.l     -[A7], [A5 - 0x6020 + D0 * 4]
000045BE  3F07                     move.w     -[A7], D7
000045C0  7000                     moveq.l    D0, 0x00
000045C2  3007                     move.w     D0, D7
000045C4  3F35 0B20 9FD2           move.w     -[A7], [A5 - 0x602E + D0 * 2]
000045CA  4EBA 03AE                jsr        [PC + 0x3AE /* 0000497A */]
000045CE  508F                     addq.l     A7, 8
label000045D0:
000045D0  5247                     addq.w     D7, 1
label000045D2:
000045D2  0C47 0003                cmpi.w     D7, 0x3
000045D6  65D0                     bcs        -0x2E /* 000045A8 */
label000045D8:
000045D8  4A46                     tst.w      D6
000045DA  6704                     beq        +0x6 /* 000045E0 */
000045DC  7000                     moveq.l    D0, 0x00
000045DE  6002                     bra        +0x4 /* 000045E2 */
label000045E0:
000045E0  7001                     moveq.l    D0, 0x01
label000045E2:
000045E2  4CDF 00C0                movem.l    D6,D7, [A7]+
000045E6  4E5E                     unlink     A6
000045E8  4E75                     rts
fn000045EA:
000045EA  4E56 FFE6                link       A6, -0x001A
000045EE  48E7 1F08                movem.l    -[A7], D3,D4,D5,D6,D7,A4
000045F2  7800                     moveq.l    D4, 0x00
000045F4  7600                     moveq.l    D3, 0x00
000045F6  422D 9FAA                clr.b      [A5 - 0x6056]
000045FA  202E 0008                move.l     D0, [A6 + 0x8]
000045FE  2D40 FFEE                move.l     [A6 - 0x12], D0
00004602  2D40 FFEA                move.l     [A6 - 0x16], D0
00004606  2D40 FFE6                move.l     [A6 - 0x1A], D0
0000460A  0C6D 0001 A0E6           cmpi.w     [A5 - 0x5F1A], 0x1
00004610  0C6D 0004 A0E6           cmpi.w     [A5 - 0x5F1A], 0x4
00004616  6600 0286                bne        +0x288 /* 0000489E */
0000461A  7E00                     moveq.l    D7, 0x00
0000461C  6000 0278                bra        +0x27A /* 00004896 */
label00004620:
00004620  7600                     moveq.l    D3, 0x00
00004622  7000                     moveq.l    D0, 0x00
00004624  3007                     move.w     D0, D7
00004626  4AB5 0D20 9FE0           tst.l      [A5 - 0x6020 + D0 * 4]
0000462C  6700 0266                beq        +0x268 /* 00004894 */
00004630  7000                     moveq.l    D0, 0x00
00004632  3007                     move.w     D0, D7
00004634  4AB5 0D20 A0FE           tst.l      [A5 - 0x5F02 + D0 * 4]
0000463A  6700 0258                beq        +0x25A /* 00004894 */
0000463E  7000                     moveq.l    D0, 0x00
00004640  3007                     move.w     D0, D7
00004642  720C                     moveq.l    D1, 0x0C
00004644  D2B5 0D20 A0FE           add.l      D1, [A5 - 0x5F02 + D0 * 4]
0000464A  2841                     movea.l    A4, D1
0000464C  7A00                     moveq.l    D5, 0x00
0000464E  6000 0168                bra        +0x16A /* 000047B8 */
label00004652:
00004652  4A54                     tst.w      [A4]
00004654  6636                     bne        +0x38 /* 0000468C */
00004656  588C                     addq.l     A4, 4
00004658  2014                     move.l     D0, [A4]
0000465A  6B00 015A                bmi        +0x15C /* 000047B6 */
0000465E  0480 4C6F 6F70           subi.l     D0, 0x4C6F6F70 /* 'Loop' */
00004664  6710                     beq        +0x12 /* 00004676 */
00004666  6A00 014E                bpl        +0x150 /* 000047B6 */
0000466A  0480 F7FF FEF5           subi.l     D0, 0xF7FFFEF5
00004670  6710                     beq        +0x12 /* 00004682 */
00004672  6000 0142                bra        +0x144 /* 000047B6 */
label00004676:
00004676  1B7C 0001 9FC0           move.b     [A5 - 0x6040], 0x1
0000467C  7A01                     moveq.l    D5, 0x01
0000467E  6000 0136                bra        +0x138 /* 000047B6 */
label00004682:
00004682  422D 9FC0                clr.b      [A5 - 0x6040]
00004686  7A01                     moveq.l    D5, 0x01
00004688  6000 012C                bra        +0x12E /* 000047B6 */
label0000468C:
0000468C  3D7C 0001 FFFE           move.w     [A6 - 0x2], 0x1
00004692  3D7C 0028 FFF6           move.w     [A6 - 0xA], 0x28 /* '(' */
00004698  3D54 FFF8                move.w     [A6 - 0x8], [A4]
0000469C  3D7C 8F00 FFFA           move.w     [A6 - 0x6], 0x8F00
000046A2  7000                     moveq.l    D0, 0x00
000046A4  102C 0002                move.b     D0, [A4 + 0x2]
000046A8  3D40 FFFC                move.w     [A6 - 0x4], D0
000046AC  0C6D 0004 A0E8           cmpi.w     [A5 - 0x5F18], 0x4
000046B2  666C                     bne        +0x6E /* 00004720 */
000046B4  302E FFFC                move.w     D0, [A6 - 0x4]
000046B8  6708                     beq        +0xA /* 000046C2 */
000046BA  6B30                     bmi        +0x32 /* 000046EC */
000046BC  5540                     subq.w     D0, 2
000046BE  6A2C                     bpl        +0x2E /* 000046EC */
000046C0  6020                     bra        +0x22 /* 000046E2 */
label000046C2:
000046C2  7000                     moveq.l    D0, 0x00
000046C4  3007                     move.w     D0, D7
000046C6  2F35 0D20 9FE0           move.l     -[A7], [A5 - 0x6020 + D0 * 4]
000046CC  3F07                     move.w     -[A7], D7
000046CE  3F2D 9FC2                move.w     -[A7], [A5 - 0x603E]
000046D2  4EBA 02A6                jsr        [PC + 0x2A6 /* 0000497A */]
000046D6  3D7C 003C FFFC           move.w     [A6 - 0x4], 0x3C /* '<' */
000046DC  7601                     moveq.l    D3, 0x01
000046DE  508F                     addq.l     A7, 8
000046E0  6058                     bra        +0x5A /* 0000473A */
label000046E2:
000046E2  426E FFF8                clr.w      [A6 - 0x8]
000046E6  426E FFFE                clr.w      [A6 - 0x2]
000046EA  604E                     bra        +0x50 /* 0000473A */
label000046EC:
000046EC  0C2C 0001 0006           cmpi.b     [A4 + 0x6], 0x1
000046F2  6608                     bne        +0xA /* 000046FC */
000046F4  302C 0004                move.w     D0, [A4 + 0x4]
000046F8  D16E FFF8                add.w      [A6 - 0x8], D0
label000046FC:
000046FC  4A43                     tst.w      D3
000046FE  673A                     beq        +0x3C /* 0000473A */
00004700  7000                     moveq.l    D0, 0x00
00004702  3007                     move.w     D0, D7
00004704  2F35 0D20 9FE0           move.l     -[A7], [A5 - 0x6020 + D0 * 4]
0000470A  3F07                     move.w     -[A7], D7
0000470C  7000                     moveq.l    D0, 0x00
0000470E  3007                     move.w     D0, D7
00004710  3F35 0B20 9FD2           move.w     -[A7], [A5 - 0x602E + D0 * 2]
00004716  4EBA 0262                jsr        [PC + 0x262 /* 0000497A */]
0000471A  7600                     moveq.l    D3, 0x00
0000471C  508F                     addq.l     A7, 8
0000471E  601A                     bra        +0x1C /* 0000473A */
label00004720:
00004720  302E FFFC                move.w     D0, [A6 - 0x4]
00004724  6714                     beq        +0x16 /* 0000473A */
00004726  6B0A                     bmi        +0xC /* 00004732 */
00004728  5540                     subq.w     D0, 2
0000472A  6A06                     bpl        +0x8 /* 00004732 */
0000472C  426E FFFC                clr.w      [A6 - 0x4]
00004730  6008                     bra        +0xA /* 0000473A */
label00004732:
00004732  302D 9FDA                move.w     D0, [A5 - 0x6026]
00004736  D16E FFFC                add.w      [A6 - 0x4], D0
label0000473A:
0000473A  7000                     moveq.l    D0, 0x00
0000473C  3007                     move.w     D0, D7
0000473E  4AB6 0CE6                tst.l      [A6 + D0 * 4 - 0x1A]
00004742  6F54                     ble        +0x56 /* 00004798 */
00004744  7000                     moveq.l    D0, 0x00
00004746  3007                     move.w     D0, D7
00004748  7200                     moveq.l    D1, 0x00
0000474A  322E FFF8                move.w     D1, [A6 - 0x8]
0000474E  B2B6 0CE6                cmp.l      D1, [A6 + D0 * 4 - 0x1A]
00004752  6E10                     bgt        +0x12 /* 00004764 */
00004754  7000                     moveq.l    D0, 0x00
00004756  302E FFF8                move.w     D0, [A6 - 0x8]
0000475A  7200                     moveq.l    D1, 0x00
0000475C  3207                     move.w     D1, D7
0000475E  91B6 1CE6                sub.l      [A6 + D1 * 4 - 0x1A], D0
00004762  6052                     bra        +0x54 /* 000047B6 */
label00004764:
00004764  7000                     moveq.l    D0, 0x00
00004766  3007                     move.w     D0, D7
00004768  3036 0CE8                move.w     D0, [A6 + D0 * 4 - 0x18]
0000476C  916E FFF8                sub.w      [A6 - 0x8], D0
00004770  7000                     moveq.l    D0, 0x00
00004772  3007                     move.w     D0, D7
00004774  42B6 0CE6                clr.l      [A6 + D0 * 4 - 0x1A]
00004778  4A6E FFFE                tst.w      [A6 - 0x2]
0000477C  6738                     beq        +0x3A /* 000047B6 */
0000477E  4267                     clr.w      -[A7]
00004780  7000                     moveq.l    D0, 0x00
00004782  3007                     move.w     D0, D7
00004784  2F35 0D20 9FE0           move.l     -[A7], [A5 - 0x6020 + D0 * 4]
0000478A  486E FFF6                pea.l      [A6 - 0xA]
0000478E  1F3C 0001                move.b     -[A7], 0x1
00004792  A803                     syscall    SndDoCommand
00004794  381F                     move.w     D4, [A7]+
00004796  601E                     bra        +0x20 /* 000047B6 */
label00004798:
00004798  4A6E FFFE                tst.w      [A6 - 0x2]
0000479C  6718                     beq        +0x1A /* 000047B6 */
0000479E  4267                     clr.w      -[A7]
000047A0  7000                     moveq.l    D0, 0x00
000047A2  3007                     move.w     D0, D7
000047A4  2F35 0D20 9FE0           move.l     -[A7], [A5 - 0x6020 + D0 * 4]
000047AA  486E FFF6                pea.l      [A6 - 0xA]
000047AE  1F3C 0001                move.b     -[A7], 0x1
000047B2  A803                     syscall    SndDoCommand
000047B4  381F                     move.w     D4, [A7]+
label000047B6:
000047B6  588C                     addq.l     A4, 4
label000047B8:
000047B8  4A45                     tst.w      D5
000047BA  6700 FE96                beq        -0x168 /* 00004652 */
000047BE  4AAD 9FE0                tst.l      [A5 - 0x6020]
000047C2  6716                     beq        +0x18 /* 000047DA */
000047C4  4AAD A0FE                tst.l      [A5 - 0x5F02]
000047C8  6710                     beq        +0x12 /* 000047DA */
000047CA  4267                     clr.w      -[A7]
000047CC  2F2D 9FE0                move.l     -[A7], [A5 - 0x6020]
000047D0  486D A014                pea.l      [A5 - 0x5FEC]
000047D4  4227                     clr.b      -[A7]
000047D6  A803                     syscall    SndDoCommand
000047D8  381F                     move.w     D4, [A7]+
label000047DA:
000047DA  4AAD 9FE4                tst.l      [A5 - 0x601C]
000047DE  6716                     beq        +0x18 /* 000047F6 */
000047E0  4AAD A102                tst.l      [A5 - 0x5EFE]
000047E4  6710                     beq        +0x12 /* 000047F6 */
000047E6  4267                     clr.w      -[A7]
000047E8  2F2D 9FE4                move.l     -[A7], [A5 - 0x601C]
000047EC  486D A014                pea.l      [A5 - 0x5FEC]
000047F0  4227                     clr.b      -[A7]
000047F2  A803                     syscall    SndDoCommand
000047F4  885F                     or.w       D4, [A7]+
label000047F6:
000047F6  4AAD 9FE8                tst.l      [A5 - 0x6018]
000047FA  6716                     beq        +0x18 /* 00004812 */
000047FC  4AAD A106                tst.l      [A5 - 0x5EFA]
00004800  6710                     beq        +0x12 /* 00004812 */
00004802  4267                     clr.w      -[A7]
00004804  2F2D 9FE8                move.l     -[A7], [A5 - 0x6018]
00004808  486D A014                pea.l      [A5 - 0x5FEC]
0000480C  4227                     clr.b      -[A7]
0000480E  A803                     syscall    SndDoCommand
00004810  885F                     or.w       D4, [A7]+
label00004812:
00004812  200D                     move.l     D0, A5
00004814  2A78 0904                movea.l    A5, [0x00000904 /* CurrentA5 */]
00004818  2B40 A048                move.l     [A5 - 0x5FB8], D0
0000481C  4AAD 9FE0                tst.l      [A5 - 0x6020]
00004820  6716                     beq        +0x18 /* 00004838 */
00004822  4AAD A0FE                tst.l      [A5 - 0x5F02]
00004826  6710                     beq        +0x12 /* 00004838 */
00004828  4267                     clr.w      -[A7]
0000482A  2F2D 9FE0                move.l     -[A7], [A5 - 0x6020]
0000482E  486D A044                pea.l      [A5 - 0x5FBC]
00004832  4227                     clr.b      -[A7]
00004834  A803                     syscall    SndDoCommand
00004836  381F                     move.w     D4, [A7]+
label00004838:
00004838  4AAD 9FE4                tst.l      [A5 - 0x601C]
0000483C  6716                     beq        +0x18 /* 00004854 */
0000483E  4AAD A102                tst.l      [A5 - 0x5EFE]
00004842  6710                     beq        +0x12 /* 00004854 */
00004844  4267                     clr.w      -[A7]
00004846  2F2D 9FE4                move.l     -[A7], [A5 - 0x601C]
0000484A  486D A044                pea.l      [A5 - 0x5FBC]
0000484E  4227                     clr.b      -[A7]
00004850  A803                     syscall    SndDoCommand
00004852  885F                     or.w       D4, [A7]+
label00004854:
00004854  4AAD 9FE8                tst.l      [A5 - 0x6018]
00004858  6716                     beq        +0x18 /* 00004870 */
0000485A  4AAD A106                tst.l      [A5 - 0x5EFA]
0000485E  6710                     beq        +0x12 /* 00004870 */
00004860  4267                     clr.w      -[A7]
00004862  2F2D 9FE8                move.l     -[A7], [A5 - 0x6018]
00004866  486D A044                pea.l      [A5 - 0x5FBC]
0000486A  4227                     clr.b      -[A7]
0000486C  A803                     syscall    SndDoCommand
0000486E  885F                     or.w       D4, [A7]+
label00004870:
00004870  422D 9FC4                clr.b      [A5 - 0x603C]
00004874  7C00                     moveq.l    D6, 0x00
00004876  6016                     bra        +0x18 /* 0000488E */
label00004878:
00004878  4AB5 6520 9FE0           tst.l      [A5 - 0x6020 + D6 * 4]
0000487E  670C                     beq        +0xE /* 0000488C */
00004880  4AB5 6520 A0FE           tst.l      [A5 - 0x5F02 + D6 * 4]
00004886  6704                     beq        +0x6 /* 0000488C */
00004888  522D 9FC4                addq.b     [A5 - 0x603C], 1
label0000488C:
0000488C  5246                     addq.w     D6, 1
label0000488E:
0000488E  0C46 0003                cmpi.w     D6, 0x3
00004892  6DE4                     blt        -0x1A /* 00004878 */
label00004894:
00004894  5247                     addq.w     D7, 1
label00004896:
00004896  0C47 0003                cmpi.w     D7, 0x3
0000489A  6500 FD84                bcs        -0x27A /* 00004620 */
label0000489E:
0000489E  4CDF 10F8                movem.l    D3,D4,D5,D6,D7,A4, [A7]+
000048A2  4E5E                     unlink     A6
000048A4  4E75                     rts
export_218:
000048A6  4E56 FFFE                link       A6, -0x0002
000048AA  2F07                     move.l     -[A7], D7
000048AC  426D F8F4                clr.w      [A5 - 0x70C]
000048B0  422D 9FAA                clr.b      [A5 - 0x6056]
000048B4  7E00                     moveq.l    D7, 0x00
000048B6  6010                     bra        +0x12 /* 000048C8 */
label000048B8:
000048B8  203C 0000 3304           move.l     D0, 0x3304
000048BE  A31E                     syscall    NewPtrClear, flags=3
000048C0  2B88 7520 9FF4           move.l     [A5 - 0x600C + D7 * 4], A0
000048C6  5247                     addq.w     D7, 1
label000048C8:
000048C8  0C47 0003                cmpi.w     D7, 0x3
000048CC  6DEA                     blt        -0x14 /* 000048B8 */
000048CE  3B7C 0011 A124           move.w     [A5 - 0x5EDC], 0x11
000048D4  7E00                     moveq.l    D7, 0x00
000048D6  600E                     bra        +0x10 /* 000048E6 */
label000048D8:
000048D8  3047                     movea.w    A0, D7
000048DA  2008                     move.l     D0, A0
000048DC  EB88                     lsl        D0, 5
000048DE  42B5 0920 A12E           clr.l      [A5 - 0x5ED2 + D0]
000048E4  5247                     addq.w     D7, 1
label000048E6:
000048E6  BE6D A124                cmp.w      D7, [A5 - 0x5EDC]
000048EA  6DEC                     blt        -0x12 /* 000048D8 */
000048EC  7E00                     moveq.l    D7, 0x00
000048EE  600A                     bra        +0xC /* 000048FA */
label000048F0:
000048F0  3F07                     move.w     -[A7], D7
000048F2  4EBA 0106                jsr        [PC + 0x106 /* 000049FA */]
000048F6  548F                     addq.l     A7, 2
000048F8  5247                     addq.w     D7, 1
label000048FA:
000048FA  BE6D A124                cmp.w      D7, [A5 - 0x5EDC]
000048FE  6DF0                     blt        -0xE /* 000048F0 */
00004900  2E1F                     move.l     D7, [A7]+
00004902  4E5E                     unlink     A6
00004904  4E75                     rts
export_219:
00004906  2F07                     move.l     -[A7], D7
00004908  422D 9FAA                clr.b      [A5 - 0x6056]
0000490C  4EBA F914                jsr        [PC - 0x6EC /* 00004222 */]
00004910  4EBA F95A                jsr        [PC - 0x6A6 /* 0000426C */]
00004914  7E00                     moveq.l    D7, 0x00
00004916  600A                     bra        +0xC /* 00004922 */
label00004918:
00004918  3F07                     move.w     -[A7], D7
0000491A  4EBA 0282                jsr        [PC + 0x282 /* 00004B9E */]
0000491E  548F                     addq.l     A7, 2
00004920  5247                     addq.w     D7, 1
label00004922:
00004922  BE6D A124                cmp.w      D7, [A5 - 0x5EDC]
00004926  6DF0                     blt        -0xE /* 00004918 */
00004928  4AAD 9FF0                tst.l      [A5 - 0x6010]
0000492C  6706                     beq        +0x8 /* 00004934 */
0000492E  206D 9FF0                movea.l    A0, [A5 - 0x6010]
00004932  A01F                     syscall    DisposPtr/DisposePtr
label00004934:
00004934  7E00                     moveq.l    D7, 0x00
00004936  6012                     bra        +0x14 /* 0000494A */
label00004938:
00004938  4AB5 7520 9FF4           tst.l      [A5 - 0x600C + D7 * 4]
0000493E  6708                     beq        +0xA /* 00004948 */
00004940  2075 7520 9FF4           movea.l    A0, [A5 - 0x600C + D7 * 4]
00004946  A01F                     syscall    DisposPtr/DisposePtr
label00004948:
00004948  5247                     addq.w     D7, 1
label0000494A:
0000494A  0C47 0003                cmpi.w     D7, 0x3
0000494E  6DE8                     blt        -0x16 /* 00004938 */
00004950  2E1F                     move.l     D7, [A7]+
00004952  4E75                     rts
00004954  4E56 FFFE                link       A6, -0x0002
00004958  0C6D 0001 A0E8           cmpi.w     [A5 - 0x5F18], 0x1
0000495E  6616                     bne        +0x18 /* 00004976 */
00004960  3B6D A0EA A076           move.w     [A5 - 0x5F8A], [A5 - 0x5F16]
00004966  4267                     clr.w      -[A7]
00004968  2F2D 9FDC                move.l     -[A7], [A5 - 0x6024]
0000496C  486D A074                pea.l      [A5 - 0x5F8C]
00004970  A804                     syscall    SndDoImmediate
00004972  3D5F FFFE                move.w     [A6 - 0x2], [A7]+
label00004976:
00004976  4E5E                     unlink     A6
00004978  4E75                     rts
fn0000497A:
0000497A  4E56 0000                link       A6, 0
0000497E  48E7 0308                movem.l    -[A7], D6,D7,A4
00004982  3E2E 0008                move.w     D7, [A6 + 0x8]
00004986  422D 9FAA                clr.b      [A5 - 0x6056]
0000498A  3F07                     move.w     -[A7], D7
0000498C  4EBA 006C                jsr        [PC + 0x6C /* 000049FA */]
00004990  3047                     movea.w    A0, D7
00004992  2008                     move.l     D0, A0
00004994  EB88                     lsl        D0, 5
00004996  2875 0921 A12E           movea.l    A4, [[A5 - 0x5ED2 + D0]]
0000499C  0C54 0001                cmpi.w     [A4], 0x1
000049A0  548F                     addq.l     A7, 2
000049A2  664E                     bne        +0x50 /* 000049F2 */
000049A4  548C                     addq.l     A4, 2
000049A6  7003                     moveq.l    D0, 0x03
000049A8  C0D4                     mulu.w     D0, [A4]
000049AA  5240                     addq.w     D0, 1
000049AC  7200                     moveq.l    D1, 0x00
000049AE  3200                     move.w     D1, D0
000049B0  D9C1                     add.l      A4, D1
000049B2  D28C                     add.l      D1, A4
000049B4  2841                     movea.l    A4, D1
000049B6  3014                     move.w     D0, [A4]
000049B8  E548                     lsl        D0.w, 2
000049BA  5240                     addq.w     D0, 1
000049BC  7200                     moveq.l    D1, 0x00
000049BE  3200                     move.w     D1, D0
000049C0  D9C1                     add.l      A4, D1
000049C2  D28C                     add.l      D1, A4
000049C4  2841                     movea.l    A4, D1
000049C6  3047                     movea.w    A0, D7
000049C8  2008                     move.l     D0, A0
000049CA  EB88                     lsl        D0, 5
000049CC  2B8C 0920 A12A           move.l     [A5 - 0x5ED6 + D0], A4
000049D2  3047                     movea.w    A0, D7
000049D4  2008                     move.l     D0, A0
000049D6  EB88                     lsl        D0, 5
000049D8  2B75 0920 A12A A020      move.l     [A5 - 0x5FE0], [A5 - 0x5ED6 + D0]
000049E0  4267                     clr.w      -[A7]
000049E2  2F2E 000C                move.l     -[A7], [A6 + 0xC]
000049E6  486D A01C                pea.l      [A5 - 0x5FE4]
000049EA  1F3C 0001                move.b     -[A7], 0x1
000049EE  A803                     syscall    SndDoCommand
000049F0  3C1F                     move.w     D6, [A7]+
label000049F2:
000049F2  4CDF 10C0                movem.l    D6,D7,A4, [A7]+
000049F6  4E5E                     unlink     A6
000049F8  4E75                     rts
fn000049FA:
000049FA  4E56 FFF8                link       A6, -0x0008
000049FE  2F07                     move.l     -[A7], D7
00004A00  3E2E 0008                move.w     D7, [A6 + 0x8]
00004A04  3047                     movea.w    A0, D7
00004A06  2008                     move.l     D0, A0
00004A08  EB88                     lsl        D0, 5
00004A0A  4AB5 0920 A12E           tst.l      [A5 - 0x5ED2 + D0]
00004A10  6600 0186                bne        +0x188 /* 00004B98 */
00004A14  422D 9FAA                clr.b      [A5 - 0x6056]
00004A18  70FF                     moveq.l    D0, 0xFFFFFFFF
00004A1A  D06D A124                add.w      D0, [A5 - 0x5EDC]
00004A1E  B047                     cmp.w      D0, D7
00004A20  6642                     bne        +0x44 /* 00004A64 */
00004A22  203C 0000 61A8           move.l     D0, 0x61A8
00004A28  A122                     syscall    NewHandle, flags=1
00004A2A  3247                     movea.w    A1, D7
00004A2C  2009                     move.l     D0, A1
00004A2E  EB88                     lsl        D0, 5
00004A30  2B88 0920 A12E           move.l     [A5 - 0x5ED2 + D0], A0
00004A36  3047                     movea.w    A0, D7
00004A38  2008                     move.l     D0, A0
00004A3A  EB88                     lsl        D0, 5
00004A3C  4AB5 0920 A12E           tst.l      [A5 - 0x5ED2 + D0]
00004A42  660C                     bne        +0xE /* 00004A50 */
00004A44  2F3C 0000 0F83           move.l     -[A7], 0xF83
00004A4A  4EBA D4E6                jsr        [PC - 0x2B1A /* 00001F32 */]
00004A4E  588F                     addq.l     A7, 4
label00004A50:
00004A50  3047                     movea.w    A0, D7
00004A52  2008                     move.l     D0, A0
00004A54  EB88                     lsl        D0, 5
00004A56  2BBC 0000 0080 0920 A126 move.l     [A5 - 0x5EDA + D0], 0x80
00004A60  6000 0128                bra        +0x12A /* 00004B8A */
label00004A64:
00004A64  42A7                     clr.l      -[A7]
00004A66  2F3C 736E 6420           move.l     -[A7], 0x736E6420 /* 'snd ' */
00004A6C  7001                     moveq.l    D0, 0x01
00004A6E  D047                     add.w      D0, D7
00004A70  3F00                     move.w     -[A7], D0
00004A72  A99D                     syscall    GetIndResource
00004A74  3047                     movea.w    A0, D7
00004A76  2008                     move.l     D0, A0
00004A78  EB88                     lsl        D0, 5
00004A7A  2B9F 0920 A12E           move.l     [A5 - 0x5ED2 + D0], [A7]+
00004A80  3047                     movea.w    A0, D7
00004A82  2008                     move.l     D0, A0
00004A84  EB88                     lsl        D0, 5
00004A86  4AB5 0920 A12E           tst.l      [A5 - 0x5ED2 + D0]
00004A8C  660C                     bne        +0xE /* 00004A9A */
00004A8E  2F3C 0000 0FA1           move.l     -[A7], 0xFA1
00004A94  4EBA D49C                jsr        [PC - 0x2B64 /* 00001F32 */]
00004A98  588F                     addq.l     A7, 4
label00004A9A:
00004A9A  3047                     movea.w    A0, D7
00004A9C  2008                     move.l     D0, A0
00004A9E  EB88                     lsl        D0, 5
00004AA0  2F35 0920 A12E           move.l     -[A7], [A5 - 0x5ED2 + D0]
00004AA6  3047                     movea.w    A0, D7
00004AA8  2008                     move.l     D0, A0
00004AAA  EB88                     lsl        D0, 5
00004AAC  4875 0920 A126           pea.l      [A5 - 0x5EDA + D0]
00004AB2  42A7                     clr.l      -[A7]
00004AB4  3047                     movea.w    A0, D7
00004AB6  2008                     move.l     D0, A0
00004AB8  EB88                     lsl        D0, 5
00004ABA  4875 0920 A132           pea.l      [A5 - 0x5ECE + D0]
00004AC0  A9A8                     syscall    GetResInfo
00004AC2  3047                     movea.w    A0, D7
00004AC4  2008                     move.l     D0, A0
00004AC6  EB88                     lsl        D0, 5
00004AC8  1035 0920 A133           move.b     D0, [A5 - 0x5ECD + D0]
00004ACE  49C0                     lea.l      A4, D0
00004AD0  3047                     movea.w    A0, D7
00004AD2  2208                     move.l     D1, A0
00004AD4  EB89                     lsl        D1, 5
00004AD6  2B80 1920 A126           move.l     [A5 - 0x5EDA + D1], D0
00004ADC  3047                     movea.w    A0, D7
00004ADE  2008                     move.l     D0, A0
00004AE0  EB88                     lsl        D0, 5
00004AE2  41ED A126                lea.l      A0, [A5 - 0x5EDA]
00004AE6  D088                     add.l      D0, A0
00004AE8  2040                     movea.l    A0, D0
00004AEA  2010                     move.l     D0, [A0]
00004AEC  E188                     lsl        D0, 8
00004AEE  2080                     move.l     [A0], D0
00004AF0  3247                     movea.w    A1, D7
00004AF2  2009                     move.l     D0, A1
00004AF4  EB88                     lsl        D0, 5
00004AF6  1035 0920 A134           move.b     D0, [A5 - 0x5ECC + D0]
00004AFC  49C0                     lea.l      A4, D0
00004AFE  3247                     movea.w    A1, D7
00004B00  2209                     move.l     D1, A1
00004B02  EB89                     lsl        D1, 5
00004B04  81B5 1920 A126           or.l       [A5 - 0x5EDA + D1], D0
00004B0A  3247                     movea.w    A1, D7
00004B0C  2009                     move.l     D0, A1
00004B0E  EB88                     lsl        D0, 5
00004B10  43ED A126                lea.l      A1, [A5 - 0x5EDA]
00004B14  D089                     add.l      D0, A1
00004B16  2240                     movea.l    A1, D0
00004B18  2011                     move.l     D0, [A1]
00004B1A  E188                     lsl        D0, 8
00004B1C  2280                     move.l     [A1], D0
00004B1E  3047                     movea.w    A0, D7
00004B20  2008                     move.l     D0, A0
00004B22  EB88                     lsl        D0, 5
00004B24  1035 0920 A135           move.b     D0, [A5 - 0x5ECB + D0]
00004B2A  49C0                     lea.l      A4, D0
00004B2C  3047                     movea.w    A0, D7
00004B2E  2208                     move.l     D1, A0
00004B30  EB89                     lsl        D1, 5
00004B32  81B5 1920 A126           or.l       [A5 - 0x5EDA + D1], D0
00004B38  3047                     movea.w    A0, D7
00004B3A  2008                     move.l     D0, A0
00004B3C  EB88                     lsl        D0, 5
00004B3E  41ED A126                lea.l      A0, [A5 - 0x5EDA]
00004B42  D088                     add.l      D0, A0
00004B44  2040                     movea.l    A0, D0
00004B46  2010                     move.l     D0, [A0]
00004B48  E188                     lsl        D0, 8
00004B4A  2080                     move.l     [A0], D0
00004B4C  3047                     movea.w    A0, D7
00004B4E  2008                     move.l     D0, A0
00004B50  EB88                     lsl        D0, 5
00004B52  1035 0920 A136           move.b     D0, [A5 - 0x5ECA + D0]
00004B58  49C0                     lea.l      A4, D0
00004B5A  3047                     movea.w    A0, D7
00004B5C  2208                     move.l     D1, A0
00004B5E  EB89                     lsl        D1, 5
00004B60  81B5 1920 A126           or.l       [A5 - 0x5EDA + D1], D0
00004B66  3047                     movea.w    A0, D7
00004B68  2008                     move.l     D0, A0
00004B6A  EB88                     lsl        D0, 5
00004B6C  2F35 0920 A12E           move.l     -[A7], [A5 - 0x5ED2 + D0]
00004B72  A992                     syscall    DetachResource
00004B74  3047                     movea.w    A0, D7
00004B76  2008                     move.l     D0, A0
00004B78  EB88                     lsl        D0, 5
00004B7A  0CB5 7369 6C65 0920 A126 cmpi.l     [A5 - 0x5EDA + D0], 0x73696C65 /* 'sile' */
00004B84  6604                     bne        +0x6 /* 00004B8A */
00004B86  3B47 9FC2                move.w     [A5 - 0x603E], D7
label00004B8A:
00004B8A  3047                     movea.w    A0, D7
00004B8C  2008                     move.l     D0, A0
00004B8E  EB88                     lsl        D0, 5
00004B90  2075 0920 A12E           movea.l    A0, [A5 - 0x5ED2 + D0]
00004B96  A029                     syscall    HLock
label00004B98:
00004B98  2E1F                     move.l     D7, [A7]+
00004B9A  4E5E                     unlink     A6
00004B9C  4E75                     rts
fn00004B9E:
00004B9E  4E56 0000                link       A6, 0
00004BA2  2F07                     move.l     -[A7], D7
00004BA4  3E2E 0008                move.w     D7, [A6 + 0x8]
00004BA8  422D 9FAA                clr.b      [A5 - 0x6056]
00004BAC  3047                     movea.w    A0, D7
00004BAE  2008                     move.l     D0, A0
00004BB0  EB88                     lsl        D0, 5
00004BB2  4AB5 0920 A12E           tst.l      [A5 - 0x5ED2 + D0]
00004BB8  6728                     beq        +0x2A /* 00004BE2 */
00004BBA  3047                     movea.w    A0, D7
00004BBC  2008                     move.l     D0, A0
00004BBE  EB88                     lsl        D0, 5
00004BC0  2075 0920 A12E           movea.l    A0, [A5 - 0x5ED2 + D0]
00004BC6  A02A                     syscall    HUnlock
00004BC8  3047                     movea.w    A0, D7
00004BCA  2008                     move.l     D0, A0
00004BCC  EB88                     lsl        D0, 5
00004BCE  2075 0920 A12E           movea.l    A0, [A5 - 0x5ED2 + D0]
00004BD4  A023                     syscall    DisposHandle/DisposeHandle
00004BD6  3047                     movea.w    A0, D7
00004BD8  2008                     move.l     D0, A0
00004BDA  EB88                     lsl        D0, 5
00004BDC  42B5 0920 A12E           clr.l      [A5 - 0x5ED2 + D0]
label00004BE2:
00004BE2  2E1F                     move.l     D7, [A7]+
00004BE4  4E5E                     unlink     A6
00004BE6  4E75                     rts
fn00004BE8:
00004BE8  4E56 FFFC                link       A6, -0x0004
00004BEC  422D 9FAA                clr.b      [A5 - 0x6056]
00004BF0  206D A0F6                movea.l    A0, [A5 - 0x5F0A]
00004BF4  7000                     moveq.l    D0, 0x00
00004BF6  1028 0009                move.b     D0, [A0 + 0x9]
00004BFA  3B40 A0EC                move.w     [A5 - 0x5F14], D0
00004BFE  7200                     moveq.l    D1, 0x00
00004C00  1228 000D                move.b     D1, [A0 + 0xD]
00004C04  3B41 A0F0                move.w     [A5 - 0x5F10], D1
00004C08  7400                     moveq.l    D2, 0x00
00004C0A  1428 000A                move.b     D2, [A0 + 0xA]
00004C0E  3B42 A0EE                move.w     [A5 - 0x5F12], D2
00004C12  7000                     moveq.l    D0, 0x00
00004C14  1028 000B                move.b     D0, [A0 + 0xB]
00004C18  3B40 A0F2                move.w     [A5 - 0x5F0E], D0
00004C1C  7000                     moveq.l    D0, 0x00
00004C1E  1028 000C                move.b     D0, [A0 + 0xC]
00004C22  3B40 A0EA                move.w     [A5 - 0x5F16], D0
00004C26  4AAD A0FA                tst.l      [A5 - 0x5F06]
00004C2A  6712                     beq        +0x14 /* 00004C3E */
00004C2C  206D A0FA                movea.l    A0, [A5 - 0x5F06]
00004C30  2F28 0008                move.l     -[A7], [A0 + 0x8]
00004C34  4EBA 0054                jsr        [PC + 0x54 /* 00004C8A */]
00004C38  3B40 9FD0                move.w     [A5 - 0x6030], D0
00004C3C  588F                     addq.l     A7, 4
label00004C3E:
00004C3E  4AAD A0FE                tst.l      [A5 - 0x5F02]
00004C42  6712                     beq        +0x14 /* 00004C56 */
00004C44  206D A0FE                movea.l    A0, [A5 - 0x5F02]
00004C48  2F28 0008                move.l     -[A7], [A0 + 0x8]
00004C4C  4EBA 003C                jsr        [PC + 0x3C /* 00004C8A */]
00004C50  3B40 9FD2                move.w     [A5 - 0x602E], D0
00004C54  588F                     addq.l     A7, 4
label00004C56:
00004C56  4AAD A102                tst.l      [A5 - 0x5EFE]
00004C5A  6712                     beq        +0x14 /* 00004C6E */
00004C5C  206D A102                movea.l    A0, [A5 - 0x5EFE]
00004C60  2F28 0008                move.l     -[A7], [A0 + 0x8]
00004C64  4EBA 0024                jsr        [PC + 0x24 /* 00004C8A */]
00004C68  3B40 9FD4                move.w     [A5 - 0x602C], D0
00004C6C  588F                     addq.l     A7, 4
label00004C6E:
00004C6E  4AAD A106                tst.l      [A5 - 0x5EFA]
00004C72  6712                     beq        +0x14 /* 00004C86 */
00004C74  206D A106                movea.l    A0, [A5 - 0x5EFA]
00004C78  2F28 0008                move.l     -[A7], [A0 + 0x8]
00004C7C  4EBA 000C                jsr        [PC + 0xC /* 00004C8A */]
00004C80  3B40 9FD6                move.w     [A5 - 0x602A], D0
00004C84  588F                     addq.l     A7, 4
label00004C86:
00004C86  4E5E                     unlink     A6
00004C88  4E75                     rts
fn00004C8A:
00004C8A  4E56 FFF4                link       A6, -0x000C
00004C8E  48E7 0308                movem.l    -[A7], D6,D7,A4
00004C92  2E2E 0008                move.l     D7, [A6 + 0x8]
00004C96  E8C7 0008                bftst      D7 {0:8}
00004C9A  6724                     beq        +0x26 /* 00004CC0 */
00004C9C  7C00                     moveq.l    D6, 0x00
00004C9E  6014                     bra        +0x16 /* 00004CB4 */
label00004CA0:
00004CA0  3046                     movea.w    A0, D6
00004CA2  2008                     move.l     D0, A0
00004CA4  EB88                     lsl        D0, 5
00004CA6  BEB5 0920 A126           cmp.l      D7, [A5 - 0x5EDA + D0]
00004CAC  6604                     bne        +0x6 /* 00004CB2 */
00004CAE  3006                     move.w     D0, D6
00004CB0  6052                     bra        +0x54 /* 00004D04 */
label00004CB2:
00004CB2  5246                     addq.w     D6, 1
label00004CB4:
00004CB4  70FF                     moveq.l    D0, 0xFFFFFFFF
00004CB6  D06D A124                add.w      D0, [A5 - 0x5EDC]
00004CBA  B046                     cmp.w      D0, D6
00004CBC  6EE2                     bgt        -0x1C /* 00004CA0 */
00004CBE  602A                     bra        +0x2C /* 00004CEA */
label00004CC0:
00004CC0  7CFF                     moveq.l    D6, 0xFFFFFFFF
00004CC2  DC6D A124                add.w      D6, [A5 - 0x5EDC]
00004CC6  2007                     move.l     D0, D7
00004CC8  D0AD A0F6                add.l      D0, [A5 - 0x5F0A]
00004CCC  2840                     movea.l    A4, D0
00004CCE  41EC 0008                lea.l      A0, [A4 + 0x8]
00004CD2  3246                     movea.w    A1, D6
00004CD4  2009                     move.l     D0, A1
00004CD6  EB88                     lsl        D0, 5
00004CD8  2275 0921 A12E           movea.l    A1, [[A5 - 0x5ED2 + D0]]
00004CDE  70F8                     moveq.l    D0, 0xFFFFFFF8
00004CE0  D0AC 0004                add.l      D0, [A4 + 0x4]
00004CE4  A02E                     syscall    BlockMove/BlockMoveData
00004CE6  3006                     move.w     D0, D6
00004CE8  601A                     bra        +0x1C /* 00004D04 */
label00004CEA:
00004CEA  2F3C 7369 6C65           move.l     -[A7], 0x73696C65 /* 'sile' */
00004CF0  2F3C 0000 0FBB           move.l     -[A7], 0xFBB
00004CF6  4EBA D300                jsr        [PC - 0x2D00 /* 00001FF8 */]
00004CFA  2EBC 7369 6C65           move.l     [A7], 0x73696C65 /* 'sile' */
00004D00  4EBA FF88                jsr        [PC - 0x78 /* 00004C8A */]
label00004D04:
00004D04  4CEE 10C0 FFE8           movem.l    D6,D7,A4, [A6 - 0x18]
00004D0A  4E5E                     unlink     A6
00004D0C  4E75                     rts
export_221:
00004D0E  4E56 FFF4                link       A6, -0x000C
00004D12  48E7 0300                movem.l    -[A7], D6,D7
00004D16  206E 000A                movea.l    A0, [A6 + 0xA]
00004D1A  2010                     move.l     D0, [A0]
00004D1C  2D40 FFF8                move.l     [A6 - 0x8], D0
00004D20  2D40 FFFC                move.l     [A6 - 0x4], D0
00004D24  6014                     bra        +0x16 /* 00004D3A */
label00004D26:
00004D26  206E FFF8                movea.l    A0, [A6 - 0x8]
00004D2A  52AE FFF8                addq.l     [A6 - 0x8], 1
00004D2E  0C10 005C                cmpi.b     [A0], 0x5C /* '\\' */
00004D32  6606                     bne        +0x8 /* 00004D3A */
00004D34  2D6E FFF8 FFFC           move.l     [A6 - 0x4], [A6 - 0x8]
label00004D3A:
00004D3A  206E FFF8                movea.l    A0, [A6 - 0x8]
00004D3E  4A10                     tst.b      [A0]
00004D40  66E4                     bne        -0x1A /* 00004D26 */
00004D42  2F2E FFFC                move.l     -[A7], [A6 - 0x4]
00004D46  486D B0F2                pea.l      [A5 - 0x4F0E]
00004D4A  4EAD 0CD2                jsr        [A5 + 0xCD2 /* export_406, CODE:7 @ 000049C2 */]
00004D4E  41ED B0F2                lea.l      A0, [A5 - 0x4F0E]
00004D52  2D48 FFFC                move.l     [A6 - 0x4], A0
00004D56  508F                     addq.l     A7, 8
00004D58  6014                     bra        +0x16 /* 00004D6E */
label00004D5A:
00004D5A  206E FFFC                movea.l    A0, [A6 - 0x4]
00004D5E  52AE FFFC                addq.l     [A6 - 0x4], 1
00004D62  0C10 002E                cmpi.b     [A0], 0x2E /* '.' */
00004D66  6606                     bne        +0x8 /* 00004D6E */
00004D68  206E FFFC                movea.l    A0, [A6 - 0x4]
00004D6C  4220                     clr.b      -[A0]
label00004D6E:
00004D6E  206E FFFC                movea.l    A0, [A6 - 0x4]
00004D72  4A10                     tst.b      [A0]
00004D74  66E4                     bne        -0x1A /* 00004D5A */
00004D76  426D EDDC                clr.w      [A5 - 0x1224]
00004D7A  3B7C 0001 EDE2           move.w     [A5 - 0x121E], 0x1
00004D80  3B7C FFFF EDD6           move.w     [A5 - 0x122A], 0xFFFF
00004D86  3B7C FFFF EDDE           move.w     [A5 - 0x1222], 0xFFFF
00004D8C  426D EDE0                clr.w      [A5 - 0x1220]
00004D90  426D EDDA                clr.w      [A5 - 0x1226]
00004D94  3B7C FFFF EC98           move.w     [A5 - 0x1368], 0xFFFF
00004D9A  2F2E 000A                move.l     -[A7], [A6 + 0xA]
00004D9E  3F2E 0008                move.w     -[A7], [A6 + 0x8]
00004DA2  4EBA EEC4                jsr        [PC - 0x113C /* 00003C68 */]
00004DA6  4EAD 060A                jsr        [A5 + 0x60A /* export_189, CODE:3 @ 00002CD6 */]
00004DAA  41ED A3A8                lea.l      A0, [A5 - 0x5C58]
00004DAE  7000                     moveq.l    D0, 0x00
00004DB0  43FA 0006                lea.l      A1, [PC + 0x6 /* 00004DB8, value 0x4EAD0612 */]
00004DB4  48D0 DEF8                movem.l    [A0], D3,D4,D5,D6,D7,A1,A2,A3,A4,A6,A7
00004DB8  4EAD 0612                jsr        [A5 + 0x612 /* export_190, CODE:3 @ 00002DF8 */]
00004DBC  486D B02C                pea.l      [A5 - 0x4FD4]
00004DC0  4EAD 0C5A                jsr        [A5 + 0xC5A /* export_391, CODE:7 @ 000004F6 */]
00004DC4  3B40 C9C2                move.w     [A5 - 0x363E], D0
00004DC8  3B6D F27C C97A           move.w     [A5 - 0x3686], [A5 - 0xD84]
00004DCE  486D F8F2                pea.l      [A5 - 0x70E]
00004DD2  42A7                     clr.l      -[A7]
00004DD4  3F3C 0001                move.w     -[A7], 0x1
00004DD8  4EAD 0A02                jsr        [A5 + 0xA02 /* export_316, CODE:5 @ 00002ED2 */]
00004DDC  426D ECD4                clr.w      [A5 - 0x132C]
00004DE0  4FEF 0014                lea.l      A7, [A7 + 0x14]
label00004DE4:
00004DE4  302D ECD4                move.w     D0, [A5 - 0x132C]
00004DE8  E448                     lsr        D0.w, 2
00004DEA  3B40 C988                move.w     [A5 - 0x3678], D0
label00004DEE:
00004DEE  3C2D ECD4                move.w     D6, [A5 - 0x132C]
00004DF2  E44E                     lsr        D6.w, 2
00004DF4  4A6D F27E                tst.w      [A5 - 0xD82]
00004DF8  6704                     beq        +0x6 /* 00004DFE */
00004DFA  0646 000F                addi.w     D6, 0xF
label00004DFE:
00004DFE  BC6D C952                cmp.w      D6, [A5 - 0x36AE]
00004E02  65EA                     bcs        -0x14 /* 00004DEE */
00004E04  426D ECD4                clr.w      [A5 - 0x132C]
00004E08  DD6D C98A                add.w      [A5 - 0x3676], D6
00004E0C  DD6D C942                add.w      [A5 - 0x36BE], D6
00004E10  DD6D C944                add.w      [A5 - 0x36BC], D6
00004E14  DD6D C946                add.w      [A5 - 0x36BA], D6
00004E18  0C46 000F                cmpi.w     D6, 0xF
00004E1C  6302                     bls        +0x4 /* 00004E20 */
00004E1E  7C0F                     moveq.l    D6, 0x0F
label00004E20:
00004E20  3F06                     move.w     -[A7], D6
00004E22  4EAD 0A3A                jsr        [A5 + 0xA3A /* export_323, CODE:5 @ 00003418 */]
00004E26  9D6D ED0C                sub.w      [A5 - 0x12F4], D6
00004E2A  4A6D ED0C                tst.w      [A5 - 0x12F4]
00004E2E  548F                     addq.l     A7, 2
00004E30  6C04                     bge        +0x6 /* 00004E36 */
00004E32  426D ED0C                clr.w      [A5 - 0x12F4]
label00004E36:
00004E36  4EAD 05D2                jsr        [A5 + 0x5D2 /* export_182, CODE:3 @ 00001B0E */]
00004E3A  3B6D EC9E C930           move.w     [A5 - 0x36D0], [A5 - 0x1362]
00004E40  7000                     moveq.l    D0, 0x00
00004E42  102D ED0B                move.b     D0, [A5 - 0x12F5]
00004E46  3B40 C932                move.w     [A5 - 0x36CE], D0
00004E4A  3B6D EDC2 C954           move.w     [A5 - 0x36AC], [A5 - 0x123E]
00004E50  3B6D EDC4 C956           move.w     [A5 - 0x36AA], [A5 - 0x123C]
00004E56  3B6D EDBE C984           move.w     [A5 - 0x367C], [A5 - 0x1242]
00004E5C  3B6D EDC0 C986           move.w     [A5 - 0x367A], [A5 - 0x1240]
00004E62  3B6D F27C C97A           move.w     [A5 - 0x3686], [A5 - 0xD84]
00004E68  4A2D F8EE                tst.b      [A5 - 0x712]
00004E6C  6762                     beq        +0x64 /* 00004ED0 */
00004E6E  0C2D 0001 F8EE           cmpi.b     [A5 - 0x712], 0x1
00004E74  6628                     bne        +0x2A /* 00004E9E */
00004E76  2F3C 0000 0FD2           move.l     -[A7], 0xFD2
00004E7C  7000                     moveq.l    D0, 0x00
00004E7E  102D F8EF                move.b     D0, [A5 - 0x711]
00004E82  3F00                     move.w     -[A7], D0
00004E84  4EAD 094A                jsr        [A5 + 0x94A /* export_293, CODE:5 @ 00000E58 */]
00004E88  4A40                     tst.w      D0
00004E8A  5C8F                     addq.l     A7, 6
00004E8C  6708                     beq        +0xA /* 00004E96 */
00004E8E  3B7C 00C9 C99C           move.w     [A5 - 0x3664], 0xC9
00004E94  6036                     bra        +0x38 /* 00004ECC */
label00004E96:
00004E96  3B7C 00CA C99C           move.w     [A5 - 0x3664], 0xCA
00004E9C  602E                     bra        +0x30 /* 00004ECC */
label00004E9E:
00004E9E  0C2D 0002 F8EE           cmpi.b     [A5 - 0x712], 0x2
00004EA4  6626                     bne        +0x28 /* 00004ECC */
00004EA6  2F3C 0000 0FD4           move.l     -[A7], 0xFD4
00004EAC  7000                     moveq.l    D0, 0x00
00004EAE  102D F8EF                move.b     D0, [A5 - 0x711]
00004EB2  3F00                     move.w     -[A7], D0
00004EB4  4EAD 0952                jsr        [A5 + 0x952 /* export_294, CODE:5 @ 00001180 */]
00004EB8  4A40                     tst.w      D0
00004EBA  5C8F                     addq.l     A7, 6
00004EBC  6708                     beq        +0xA /* 00004EC6 */
00004EBE  3B7C 00CB C99C           move.w     [A5 - 0x3664], 0xCB
00004EC4  6006                     bra        +0x8 /* 00004ECC */
label00004EC6:
00004EC6  3B7C 00CC C99C           move.w     [A5 - 0x3664], 0xCC
label00004ECC:
00004ECC  422D F8EE                clr.b      [A5 - 0x712]
label00004ED0:
00004ED0  4A6D F726                tst.w      [A5 - 0x8DA]
00004ED4  6748                     beq        +0x4A /* 00004F1E */
00004ED6  426D F726                clr.w      [A5 - 0x8DA]
00004EDA  302D F72A                move.w     D0, [A5 - 0x8D6]
00004EDE  906D F728                sub.w      D0, [A5 - 0x8D8]
00004EE2  3F00                     move.w     -[A7], D0
00004EE4  4227                     clr.b      -[A7]
00004EE6  2F3C 000A 0009           move.l     -[A7], 0xA0009 /* '\n\0\t' */
00004EEC  4EAD 03E2                jsr        [A5 + 0x3E2 /* export_120, CODE:2 @ 00003CEE */]
00004EF0  2E80                     move.l     [A7], D0
00004EF2  4EAD 0C02                jsr        [A5 + 0xC02 /* export_380, CODE:6 @ 000000F6 */]
00004EF6  426D F40A                clr.w      [A5 - 0xBF6]
00004EFA  4EAD 0B4A                jsr        [A5 + 0xB4A /* export_357, CODE:6 @ 000002D6 */]
00004EFE  3B7C 0001 F724           move.w     [A5 - 0x8DC], 0x1
00004F04  7E00                     moveq.l    D7, 0x00
00004F06  508F                     addq.l     A7, 8
00004F08  600E                     bra        +0x10 /* 00004F18 */
label00004F0A:
00004F0A  7000                     moveq.l    D0, 0x00
00004F0C  3007                     move.w     D0, D7
00004F0E  1BBC 0001 0920 D6D7      move.b     [A5 - 0x2929 + D0], 0x1
00004F16  5247                     addq.w     D7, 1
label00004F18:
00004F18  0C47 000D                cmpi.w     D7, 0xD /* '\r' */
00004F1C  65EC                     bcs        -0x12 /* 00004F0A */
label00004F1E:
00004F1E  4EAD 09BA                jsr        [A5 + 0x9BA /* export_307, CODE:5 @ 00002876 */]
00004F22  4EAD 0A52                jsr        [A5 + 0xA52 /* export_326, CODE:5 @ 00003586 */]
00004F26  4EAD 0A5A                jsr        [A5 + 0xA5A /* export_327, CODE:5 @ 000036B0 */]
00004F2A  4A2D B2D6                tst.b      [A5 - 0x4D2A]
00004F2E  661A                     bne        +0x1C /* 00004F4A */
00004F30  422D EDBC                clr.b      [A5 - 0x1244]
00004F34  4EBA 05D4                jsr        [PC + 0x5D4 /* 0000550A */]
00004F38  4EAD 0462                jsr        [A5 + 0x462 /* export_136, CODE:2 @ 00004A10 */]
00004F3C  4EAD 0A8A                jsr        [A5 + 0xA8A /* export_333, CODE:5 @ 00003802 */]
00004F40  3B6D EC9E ECA0           move.w     [A5 - 0x1360], [A5 - 0x1362]
00004F46  6000 FE9C                bra        -0x162 /* 00004DE4 */
label00004F4A:
00004F4A  4EAD 04C2                jsr        [A5 + 0x4C2 /* export_148, CODE:2 @ 000001B8 */]
00004F4E  4EAD 0072                jsr        [A5 + 0x72 /* export_10, CODE:2 @ 000008D4 */]
00004F52  4EBA 198A                jsr        [PC + 0x198A /* 000068DE */]
00004F56  4EBA 05B2                jsr        [PC + 0x5B2 /* 0000550A */]
00004F5A  302D EC9E                move.w     D0, [A5 - 0x1362]
00004F5E  B06D ECA0                cmp.w      D0, [A5 - 0x1360]
00004F62  660C                     bne        +0xE /* 00004F70 */
00004F64  4A6D EDF8                tst.w      [A5 - 0x1208]
00004F68  6606                     bne        +0x8 /* 00004F70 */
00004F6A  4A6D F724                tst.w      [A5 - 0x8DC]
00004F6E  6704                     beq        +0x6 /* 00004F74 */
label00004F70:
00004F70  4EAD 04A2                jsr        [A5 + 0x4A2 /* export_144, CODE:2 @ 00004C1E */]
label00004F74:
00004F74  4EBA 1B90                jsr        [PC + 0x1B90 /* 00006B06 */]
00004F78  4EAD 04EA                jsr        [A5 + 0x4EA /* export_153, CODE:3 @ 000001BA */]
00004F7C  4EAD 04F2                jsr        [A5 + 0x4F2 /* export_154, CODE:3 @ 0000021A */]
00004F80  082D 0001 C93F           btst.b     [A5 - 0x36C1], 0x1
00004F86  6610                     bne        +0x12 /* 00004F98 */
00004F88  082D 0002 C93F           btst.b     [A5 - 0x36C1], 0x2
00004F8E  6708                     beq        +0xA /* 00004F98 */
00004F90  4EAD 0502                jsr        [A5 + 0x502 /* export_156, CODE:3 @ 00000500 */]
00004F94  4EAD 04EA                jsr        [A5 + 0x4EA /* export_153, CODE:3 @ 000001BA */]
label00004F98:
00004F98  4EAD 04CA                jsr        [A5 + 0x4CA /* export_149, CODE:2 @ 000001DE */]
00004F9C  4EAD 04B2                jsr        [A5 + 0x4B2 /* export_146, CODE:2 @ 00005210 */]
00004FA0  4EAD 05BA                jsr        [A5 + 0x5BA /* export_179, CODE:3 @ 0000199E */]
00004FA4  4EAD 05B2                jsr        [A5 + 0x5B2 /* export_178, CODE:3 @ 00001924 */]
00004FA8  4A6D EDCA                tst.w      [A5 - 0x1236]
00004FAC  6716                     beq        +0x18 /* 00004FC4 */
00004FAE  7000                     moveq.l    D0, 0x00
00004FB0  102D EDCD                move.b     D0, [A5 - 0x1233]
00004FB4  3F00                     move.w     -[A7], D0
00004FB6  4EAD 050A                jsr        [A5 + 0x50A /* export_157, CODE:3 @ 0000050E */]
00004FBA  426D EDCA                clr.w      [A5 - 0x1236]
00004FBE  4EAD 03CA                jsr        [A5 + 0x3CA /* export_117, CODE:2 @ 00003A9C */]
00004FC2  548F                     addq.l     A7, 2
label00004FC4:
00004FC4  4A2D EDBB                tst.b      [A5 - 0x1245]
00004FC8  6F14                     ble        +0x16 /* 00004FDE */
00004FCA  3F2D EDC0                move.w     -[A7], [A5 - 0x1240]
00004FCE  3F2D EDBE                move.w     -[A7], [A5 - 0x1242]
00004FD2  4EAD 0B52                jsr        [A5 + 0xB52 /* export_358, CODE:6 @ 000002FA */]
00004FD6  3E80                     move.w     [A7], D0
00004FD8  4EAD 0B5A                jsr        [A5 + 0xB5A /* export_359, CODE:6 @ 00000390 */]
00004FDC  588F                     addq.l     A7, 4
label00004FDE:
00004FDE  4A2D EDBB                tst.b      [A5 - 0x1245]
00004FE2  5EC0                     sgt        D0
00004FE4  4400                     neg.b      D0
00004FE6  1B40 EDBC                move.b     [A5 - 0x1244], D0
00004FEA  4EAD 0462                jsr        [A5 + 0x462 /* export_136, CODE:2 @ 00004A10 */]
00004FEE  4EAD 04E2                jsr        [A5 + 0x4E2 /* export_152, CODE:2 @ 0000054E */]
00004FF2  4EAD 0A8A                jsr        [A5 + 0xA8A /* export_333, CODE:5 @ 00003802 */]
00004FF6  3B6D EC9E ECA0           move.w     [A5 - 0x1360], [A5 - 0x1362]
00004FFC  6000 FDE6                bra        -0x218 /* 00004DE4 */
00005000  4CDF 00C0                movem.l    D6,D7, [A7]+
00005004  4E5E                     unlink     A6
00005006  4E75                     rts
export_220:
fn00005008:
00005008  4EAD 0A7A                jsr        [A5 + 0xA7A /* export_331, CODE:5 @ 000037D8 */]
0000500C  4EAD 03BA                jsr        [A5 + 0x3BA /* export_115, CODE:2 @ 00003A0C */]
00005010  4EAD 057A                jsr        [A5 + 0x57A /* export_171, CODE:3 @ 000014C0 */]
00005014  4EBA EC16                jsr        [PC - 0x13EA /* 00003C2C */]
00005018  4267                     clr.w      -[A7]
0000501A  4EAD 0C52                jsr        [A5 + 0xC52 /* export_390, CODE:7 @ 0000042E */]
0000501E  548F                     addq.l     A7, 2
00005020  4E75                     rts
export_228:
fn00005022:
00005022  4E56 0000                link       A6, 0
00005026  48E7 0F38                movem.l    -[A7], D4,D5,D6,D7,A2,A3,A4
0000502A  266E 000A                movea.l    A3, [A6 + 0xA]
0000502E  3A2E 000E                move.w     D5, [A6 + 0xE]
00005032  7E01                     moveq.l    D7, 0x01
00005034  7000                     moveq.l    D0, 0x00
00005036  102D F523                move.b     D0, [A5 - 0xADD]
0000503A  3F00                     move.w     -[A7], D0
0000503C  3F3C 0006                move.w     -[A7], 0x6
00005040  4EAD 03E2                jsr        [A5 + 0x3E2 /* export_120, CODE:2 @ 00003CEE */]
00005044  2840                     movea.l    A4, D0
00005046  49EC 001D                lea.l      A4, [A4 + 0x1D]
0000504A  588F                     addq.l     A7, 4
label0000504C:
0000504C  3005                     move.w     D0, D5
0000504E  5245                     addq.w     D5, 1
00005050  1C33 0000                move.b     D6, [A3 + D0.w]
00005054  6700 009A                beq        +0x9C /* 000050F0 */
00005058  0C06 000D                cmpi.b     D6, 0xD /* '\r' */
0000505C  6700 0092                beq        +0x94 /* 000050F0 */
00005060  0C06 0040                cmpi.b     D6, 0x40 /* '@' */
00005064  67E6                     beq        -0x18 /* 0000504C */
00005066  0C06 00FE                cmpi.b     D6, 0xFE
0000506A  6602                     bne        +0x4 /* 0000506E */
0000506C  7CFF                     moveq.l    D6, 0xFFFFFFFF
label0000506E:
0000506E  0C06 00FF                cmpi.b     D6, 0xFF
00005072  663E                     bne        +0x40 /* 000050B2 */
00005074  3005                     move.w     D0, D5
00005076  5245                     addq.w     D5, 1
00005078  1C33 0000                move.b     D6, [A3 + D0.w]
0000507C  0C06 0003                cmpi.b     D6, 0x3
00005080  676E                     beq        +0x70 /* 000050F0 */
00005082  0C06 0008                cmpi.b     D6, 0x8
00005086  661E                     bne        +0x20 /* 000050A6 */
00005088  0C6E 0001 0008           cmpi.w     [A6 + 0x8], 0x1
0000508E  6760                     beq        +0x62 /* 000050F0 */
00005090  600A                     bra        +0xC /* 0000509C */
label00005092:
00005092  3005                     move.w     D0, D5
00005094  5245                     addq.w     D5, 1
00005096  17BC 0040 0000           move.b     [A3 + D0.w], 0x40 /* '@' */
label0000509C:
0000509C  0C33 0020 5000           cmpi.b     [A3 + D5.w], 0x20 /* ' ' */
000050A2  67EE                     beq        -0x10 /* 00005092 */
000050A4  60A6                     bra        -0x58 /* 0000504C */
label000050A6:
000050A6  0C06 0001                cmpi.b     D6, 0x1
000050AA  6744                     beq        +0x46 /* 000050F0 */
000050AC  0C06 0002                cmpi.b     D6, 0x2
000050B0  673E                     beq        +0x40 /* 000050F0 */
label000050B2:
000050B2  7000                     moveq.l    D0, 0x00
000050B4  1006                     move.b     D0, D6
000050B6  4874 0404                pea.l      [A4 + D0.w * 4 + 0x4]
000050BA  4EAD 0BFA                jsr        [A5 + 0xBFA /* export_379, CODE:6 @ 00000076 */]
000050BE  2800                     move.l     D4, D0
000050C0  4A84                     tst.l      D4
000050C2  588F                     addq.l     A7, 4
000050C4  6786                     beq        -0x78 /* 0000504C */
000050C6  2004                     move.l     D0, D4
000050C8  D08C                     add.l      D0, A4
000050CA  2440                     movea.l    A2, D0
000050CC  1C2A 0002                move.b     D6, [A2 + 0x2]
000050D0  0C06 0080                cmpi.b     D6, 0x80
000050D4  6406                     bcc        +0x8 /* 000050DC */
000050D6  7000                     moveq.l    D0, 0x00
000050D8  1006                     move.b     D0, D6
000050DA  6008                     bra        +0xA /* 000050E4 */
label000050DC:
000050DC  7000                     moveq.l    D0, 0x00
000050DE  1006                     move.b     D0, D6
000050E0  0640 FF00                addi.w     D0, 0xFF00
label000050E4:
000050E4  7200                     moveq.l    D1, 0x00
000050E6  1212                     move.b     D1, [A2]
000050E8  D240                     add.w      D1, D0
000050EA  DE41                     add.w      D7, D1
000050EC  6000 FF5E                bra        -0xA0 /* 0000504C */
label000050F0:
000050F0  3007                     move.w     D0, D7
000050F2  4CDF 1CF0                movem.l    D4,D5,D6,D7,A2,A3,A4, [A7]+
000050F6  4E5E                     unlink     A6
000050F8  4E75                     rts
fn000050FA:
000050FA  4E56 0000                link       A6, 0
000050FE  48E7 1F38                movem.l    -[A7], D3,D4,D5,D6,D7,A2,A3,A4
00005102  266E 000A                movea.l    A3, [A6 + 0xA]
00005106  382E 000E                move.w     D4, [A6 + 0xE]
0000510A  7EFF                     moveq.l    D7, 0xFFFFFFFF
0000510C  7C01                     moveq.l    D6, 0x01
0000510E  7000                     moveq.l    D0, 0x00
00005110  102D F523                move.b     D0, [A5 - 0xADD]
00005114  3F00                     move.w     -[A7], D0
00005116  3F3C 0006                move.w     -[A7], 0x6
0000511A  4EAD 03E2                jsr        [A5 + 0x3E2 /* export_120, CODE:2 @ 00003CEE */]
0000511E  2840                     movea.l    A4, D0
00005120  49EC 001D                lea.l      A4, [A4 + 0x1D]
00005124  588F                     addq.l     A7, 4
label00005126:
00005126  3004                     move.w     D0, D4
00005128  5244                     addq.w     D4, 1
0000512A  1A33 0000                move.b     D5, [A3 + D0.w]
0000512E  6700 00C2                beq        +0xC4 /* 000051F2 */
00005132  0C05 0040                cmpi.b     D5, 0x40 /* '@' */
00005136  67EE                     beq        -0x10 /* 00005126 */
00005138  0C05 00FE                cmpi.b     D5, 0xFE
0000513C  6602                     bne        +0x4 /* 00005140 */
0000513E  7AFF                     moveq.l    D5, 0xFFFFFFFF
label00005140:
00005140  0C05 00FF                cmpi.b     D5, 0xFF
00005144  6646                     bne        +0x48 /* 0000518C */
00005146  3004                     move.w     D0, D4
00005148  5244                     addq.w     D4, 1
0000514A  1A33 0000                move.b     D5, [A3 + D0.w]
0000514E  0C05 0003                cmpi.b     D5, 0x3
00005152  6700 009E                beq        +0xA0 /* 000051F2 */
00005156  0C05 0008                cmpi.b     D5, 0x8
0000515A  6620                     bne        +0x22 /* 0000517C */
0000515C  0C6E 0001 0008           cmpi.w     [A6 + 0x8], 0x1
00005162  660E                     bne        +0x10 /* 00005172 */
00005164  7C01                     moveq.l    D6, 0x01
00005166  60BE                     bra        -0x40 /* 00005126 */
label00005168:
00005168  3004                     move.w     D0, D4
0000516A  5244                     addq.w     D4, 1
0000516C  17BC 0040 0000           move.b     [A3 + D0.w], 0x40 /* '@' */
label00005172:
00005172  0C33 0020 4000           cmpi.b     [A3 + D4.w], 0x20 /* ' ' */
00005178  67EE                     beq        -0x10 /* 00005168 */
0000517A  60AA                     bra        -0x54 /* 00005126 */
label0000517C:
0000517C  0C05 0001                cmpi.b     D5, 0x1
00005180  6604                     bne        +0x6 /* 00005186 */
00005182  7C01                     moveq.l    D6, 0x01
00005184  60A0                     bra        -0x5E /* 00005126 */
label00005186:
00005186  0C05 0002                cmpi.b     D5, 0x2
0000518A  6766                     beq        +0x68 /* 000051F2 */
label0000518C:
0000518C  0C05 0020                cmpi.b     D5, 0x20 /* ' ' */
00005190  6604                     bne        +0x6 /* 00005196 */
00005192  7EFF                     moveq.l    D7, 0xFFFFFFFF
00005194  DE44                     add.w      D7, D4
label00005196:
00005196  7000                     moveq.l    D0, 0x00
00005198  1005                     move.b     D0, D5
0000519A  4874 0404                pea.l      [A4 + D0.w * 4 + 0x4]
0000519E  4EAD 0BFA                jsr        [A5 + 0xBFA /* export_379, CODE:6 @ 00000076 */]
000051A2  2600                     move.l     D3, D0
000051A4  4A83                     tst.l      D3
000051A6  588F                     addq.l     A7, 4
000051A8  6726                     beq        +0x28 /* 000051D0 */
000051AA  2003                     move.l     D0, D3
000051AC  D08C                     add.l      D0, A4
000051AE  2440                     movea.l    A2, D0
000051B0  1A2A 0002                move.b     D5, [A2 + 0x2]
000051B4  0C05 0080                cmpi.b     D5, 0x80
000051B8  6406                     bcc        +0x8 /* 000051C0 */
000051BA  7000                     moveq.l    D0, 0x00
000051BC  1005                     move.b     D0, D5
000051BE  6008                     bra        +0xA /* 000051C8 */
label000051C0:
000051C0  7000                     moveq.l    D0, 0x00
000051C2  1005                     move.b     D0, D5
000051C4  0640 FF00                addi.w     D0, 0xFF00
label000051C8:
000051C8  7200                     moveq.l    D1, 0x00
000051CA  1212                     move.b     D1, [A2]
000051CC  D240                     add.w      D1, D0
000051CE  DC41                     add.w      D6, D1
label000051D0:
000051D0  0C47 FFFF                cmpi.w     D7, 0xFFFF
000051D4  6700 FF50                beq        -0xAE /* 00005126 */
000051D8  BC6E 0010                cmp.w      D6, [A6 + 0x10]
000051DC  6F00 FF48                ble        -0xB6 /* 00005126 */
000051E0  17BC 000D 7000           move.b     [A3 + D7.w], 0xD /* '\r' */
000051E6  7C01                     moveq.l    D6, 0x01
000051E8  7801                     moveq.l    D4, 0x01
000051EA  D847                     add.w      D4, D7
000051EC  7EFF                     moveq.l    D7, 0xFFFFFFFF
000051EE  6000 FF36                bra        -0xC8 /* 00005126 */
label000051F2:
000051F2  4CDF 1CF8                movem.l    D3,D4,D5,D6,D7,A2,A3,A4, [A7]+
000051F6  4E5E                     unlink     A6
000051F8  4E75                     rts
export_222:
000051FA  4E56 FF98                link       A6, -0x0068
000051FE  41EE FF9C                lea.l      A0, [A6 - 0x64]
00005202  2B48 F41E                move.l     [A5 - 0xBE2], A0
00005206  2F2D ED06                move.l     -[A7], [A5 - 0x12FA]
0000520A  4EBA 080A                jsr        [PC + 0x80A /* 00005A16 */]
0000520E  2B40 ED06                move.l     [A5 - 0x12FA], D0
00005212  4E5E                     unlink     A6
00005214  4E75                     rts
export_223:
00005216  4E56 FF9C                link       A6, -0x0064
0000521A  2F0C                     move.l     -[A7], A4
0000521C  41EE FF9C                lea.l      A0, [A6 - 0x64]
00005220  2B48 F41E                move.l     [A5 - 0xBE2], A0
00005224  2F2D ED06                move.l     -[A7], [A5 - 0x12FA]
00005228  4EBA 07EC                jsr        [PC + 0x7EC /* 00005A16 */]
0000522C  2B40 ED06                move.l     [A5 - 0x12FA], D0
00005230  4A6D F5EE                tst.w      [A5 - 0xA12]
00005234  588F                     addq.l     A7, 4
00005236  6606                     bne        +0x8 /* 0000523E */
00005238  3B7C 0004 F5EE           move.w     [A5 - 0xA12], 0x4
label0000523E:
0000523E  286D ED06                movea.l    A4, [A5 - 0x12FA]
00005242  4267                     clr.w      -[A7]
00005244  486E FF9C                pea.l      [A6 - 0x64]
00005248  3F2D F5EE                move.w     -[A7], [A5 - 0xA12]
0000524C  3F3C 00FF                move.w     -[A7], 0xFF
00005250  4EAD 05C2                jsr        [A5 + 0x5C2 /* export_180, CODE:3 @ 00001DF6 */]
00005254  3B5F C92C                move.w     [A5 - 0x36D4], [A7]+
00005258  2B4C ED06                move.l     [A5 - 0x12FA], A4
0000525C  285F                     movea.l    A4, [A7]+
0000525E  4E5E                     unlink     A6
00005260  4E75                     rts
export_224:
00005262  4E56 FF00                link       A6, -0x0100
00005266  48E7 0718                movem.l    -[A7], D5,D6,D7,A3,A4
0000526A  3C2E 0008                move.w     D6, [A6 + 0x8]
0000526E  41EE FF00                lea.l      A0, [A6 - 0x100]
00005272  2B48 F41E                move.l     [A5 - 0xBE2], A0
00005276  2F2D ED06                move.l     -[A7], [A5 - 0x12FA]
0000527A  4EBA 079A                jsr        [PC + 0x79A /* 00005A16 */]
0000527E  2B40 ED06                move.l     [A5 - 0x12FA], D0
00005282  7200                     moveq.l    D1, 0x00
00005284  3206                     move.w     D1, D6
00005286  3E35 1B20 F594           move.w     D7, [A5 - 0xA6C + D1 * 2]
0000528C  7200                     moveq.l    D1, 0x00
0000528E  3206                     move.w     D1, D6
00005290  D281                     add.l      D1, D1
00005292  2841                     movea.l    A4, D1
00005294  3B47 F528                move.w     [A5 - 0xAD8], D7
00005298  41ED F5A0                lea.l      A0, [A5 - 0xA60]
0000529C  D1CC                     add.l      A0, A4
0000529E  3B50 F52A                move.w     [A5 - 0xAD6], [A0]
000052A2  3B47 F530                move.w     [A5 - 0xAD0], D7
000052A6  41ED F5F4                lea.l      A0, [A5 - 0xA0C]
000052AA  D1CC                     add.l      A0, A4
000052AC  1B68 0001 F523           move.b     [A5 - 0xADD], [A0 + 0x1]
000052B2  41ED F5C4                lea.l      A0, [A5 - 0xA3C]
000052B6  D1CC                     add.l      A0, A4
000052B8  1B68 0001 F522           move.b     [A5 - 0xADE], [A0 + 0x1]
000052BE  41ED F5DC                lea.l      A0, [A5 - 0xA24]
000052C2  D1CC                     add.l      A0, A4
000052C4  3B50 F534                move.w     [A5 - 0xACC], [A0]
000052C8  41ED F5E8                lea.l      A0, [A5 - 0xA18]
000052CC  D1CC                     add.l      A0, A4
000052CE  1B68 0001 F532           move.b     [A5 - 0xACE], [A0 + 0x1]
000052D4  422D F533                clr.b      [A5 - 0xACD]
000052D8  1B7C 0001 F53E           move.b     [A5 - 0xAC2], 0x1
000052DE  1B7C 0001 F53F           move.b     [A5 - 0xAC1], 0x1
000052E4  7200                     moveq.l    D1, 0x00
000052E6  122D F523                move.b     D1, [A5 - 0xADD]
000052EA  3E81                     move.w     [A7], D1
000052EC  3F3C 0006                move.w     -[A7], 0x6
000052F0  4EAD 03E2                jsr        [A5 + 0x3E2 /* export_120, CODE:2 @ 00003CEE */]
000052F4  2640                     movea.l    A3, D0
000052F6  47EB 001D                lea.l      A3, [A3 + 0x1D]
000052FA  7E00                     moveq.l    D7, 0x00
000052FC  5C8F                     addq.l     A7, 6
000052FE  601A                     bra        +0x1C /* 0000531A */
label00005300:
00005300  7000                     moveq.l    D0, 0x00
00005302  102D F523                move.b     D0, [A5 - 0xADD]
00005306  E988                     lsl        D0, 4
00005308  41ED EAB6                lea.l      A0, [A5 - 0x154A]
0000530C  D088                     add.l      D0, A0
0000530E  3047                     movea.w    A0, D7
00005310  1BB0 0800 7120 EAA6      move.b     [A5 - 0x155A + D7], [A0 + D0]
00005318  5247                     addq.w     D7, 1
label0000531A:
0000531A  0C47 0004                cmpi.w     D7, 0x4
0000531E  6DE0                     blt        -0x1E /* 00005300 */
00005320  1B6B 0001 F285           move.b     [A5 - 0xD7B], [A3 + 0x1]
00005326  41EE FF00                lea.l      A0, [A6 - 0x100]
0000532A  2B48 F41E                move.l     [A5 - 0xBE2], A0
0000532E  97CB                     sub.l      A3, A3
label00005330:
00005330  206D F41E                movea.l    A0, [A5 - 0xBE2]
00005334  1E10                     move.b     D7, [A0]
00005336  4A07                     tst.b      D7
00005338  6718                     beq        +0x1A /* 00005352 */
0000533A  0C07 0020                cmpi.b     D7, 0x20 /* ' ' */
0000533E  660A                     bne        +0xC /* 0000534A */
00005340  200B                     move.l     D0, A3
00005342  6608                     bne        +0xA /* 0000534C */
00005344  266D F41E                movea.l    A3, [A5 - 0xBE2]
00005348  6002                     bra        +0x4 /* 0000534C */
label0000534A:
0000534A  97CB                     sub.l      A3, A3
label0000534C:
0000534C  52AD F41E                addq.l     [A5 - 0xBE2], 1
00005350  60DE                     bra        -0x20 /* 00005330 */
label00005352:
00005352  200B                     move.l     D0, A3
00005354  6702                     beq        +0x4 /* 00005358 */
00005356  4213                     clr.b      [A3]
label00005358:
00005358  4A2D F522                tst.b      [A5 - 0xADE]
0000535C  6718                     beq        +0x1A /* 00005376 */
0000535E  4267                     clr.w      -[A7]
00005360  486E FF00                pea.l      [A6 - 0x100]
00005364  3F06                     move.w     -[A7], D6
00005366  4EBA FCBA                jsr        [PC - 0x346 /* 00005022 */]
0000536A  48C0                     ext.l      D0
0000536C  81FC 0002                divs.w     D0, 0x2
00005370  916D F528                sub.w      [A5 - 0xAD8], D0
00005374  508F                     addq.l     A7, 8
label00005376:
00005376  3B7C 0001 F734           move.w     [A5 - 0x8CC], 0x1
0000537C  4A2E FF00                tst.b      [A6 - 0x100]
00005380  660A                     bne        +0xC /* 0000538C */
00005382  1D7C 0020 FF00           move.b     [A6 - 0x100], 0x20 /* ' ' */
00005388  422E FF01                clr.b      [A6 - 0xFF]
label0000538C:
0000538C  7E00                     moveq.l    D7, 0x00
0000538E  6072                     bra        +0x74 /* 00005402 */
label00005390:
00005390  0C05 00FE                cmpi.b     D5, 0xFE
00005394  6602                     bne        +0x4 /* 00005398 */
00005396  7AFF                     moveq.l    D5, 0xFFFFFFFF
label00005398:
00005398  0C05 00FF                cmpi.b     D5, 0xFF
0000539C  6658                     bne        +0x5A /* 000053F6 */
0000539E  3007                     move.w     D0, D7
000053A0  5247                     addq.w     D7, 1
000053A2  1A36 0120 FF00           move.b     D5, [A6 - 0x100 + D0]
000053A8  1005                     move.b     D0, D5
000053AA  6756                     beq        +0x58 /* 00005402 */
000053AC  6B54                     bmi        +0x56 /* 00005402 */
000053AE  5100                     subq.b     D0, 8
000053B0  670E                     beq        +0x10 /* 000053C0 */
000053B2  6A06                     bpl        +0x8 /* 000053BA */
000053B4  5C00                     addq.b     D0, 6
000053B6  6A4A                     bpl        +0x4C /* 00005402 */
000053B8  6006                     bra        +0x8 /* 000053C0 */
label000053BA:
000053BA  5500                     subq.b     D0, 2
000053BC  6A44                     bpl        +0x46 /* 00005402 */
000053BE  6032                     bra        +0x34 /* 000053F2 */
label000053C0:
000053C0  4A2D F522                tst.b      [A5 - 0xADE]
000053C4  671A                     beq        +0x1C /* 000053E0 */
000053C6  3F07                     move.w     -[A7], D7
000053C8  486E FF00                pea.l      [A6 - 0x100]
000053CC  3F06                     move.w     -[A7], D6
000053CE  4EBA FC52                jsr        [PC - 0x3AE /* 00005022 */]
000053D2  322D F530                move.w     D1, [A5 - 0xAD0]
000053D6  9240                     sub.w      D1, D0
000053D8  3B41 F528                move.w     [A5 - 0xAD8], D1
000053DC  508F                     addq.l     A7, 8
000053DE  6006                     bra        +0x8 /* 000053E6 */
label000053E0:
000053E0  3B6D F530 F528           move.w     [A5 - 0xAD8], [A5 - 0xAD0]
label000053E6:
000053E6  7000                     moveq.l    D0, 0x00
000053E8  102D F285                move.b     D0, [A5 - 0xD7B]
000053EC  D16D F52A                add.w      [A5 - 0xAD6], D0
000053F0  6010                     bra        +0x12 /* 00005402 */
label000053F2:
000053F2  5447                     addq.w     D7, 2
000053F4  600C                     bra        +0xE /* 00005402 */
label000053F6:
000053F6  7000                     moveq.l    D0, 0x00
000053F8  1005                     move.b     D0, D5
000053FA  3F00                     move.w     -[A7], D0
000053FC  4EAD 0B22                jsr        [A5 + 0xB22 /* export_352, CODE:5 @ 00000000 */]
00005400  548F                     addq.l     A7, 2
label00005402:
00005402  3007                     move.w     D0, D7
00005404  5247                     addq.w     D7, 1
00005406  1A36 0120 FF00           move.b     D5, [A6 - 0x100 + D0]
0000540C  6682                     bne        -0x7C /* 00005390 */
0000540E  426D F734                clr.w      [A5 - 0x8CC]
00005412  41ED F5AC                lea.l      A0, [A5 - 0xA54]
00005416  D1CC                     add.l      A0, A4
00005418  30AD F528                move.w     [A0], [A5 - 0xAD8]
0000541C  41ED F5B8                lea.l      A0, [A5 - 0xA48]
00005420  D1CC                     add.l      A0, A4
00005422  30AD F52A                move.w     [A0], [A5 - 0xAD6]
00005426  4CDF 18E0                movem.l    D5,D6,D7,A3,A4, [A7]+
0000542A  4E5E                     unlink     A6
0000542C  4E75                     rts
export_225:
0000542E  4E56 FFFE                link       A6, -0x0002
00005432  2F07                     move.l     -[A7], D7
00005434  41ED F422                lea.l      A0, [A5 - 0xBDE]
00005438  2B48 F41E                move.l     [A5 - 0xBE2], A0
0000543C  2F2D ED06                move.l     -[A7], [A5 - 0x12FA]
00005440  4EBA 05D4                jsr        [PC + 0x5D4 /* 00005A16 */]
00005444  2B40 ED06                move.l     [A5 - 0x12FA], D0
00005448  0C2D 00FF ED04           cmpi.b     [A5 - 0x12FC], 0xFF
0000544E  588F                     addq.l     A7, 4
00005450  661A                     bne        +0x1C /* 0000546C */
00005452  1E2D ED04                move.b     D7, [A5 - 0x12FC]
00005456  4A6D F758                tst.w      [A5 - 0x8A8]
0000545A  6604                     bne        +0x6 /* 00005460 */
0000545C  4EBA 04A2                jsr        [PC + 0x4A2 /* 00005900 */]
label00005460:
00005460  7000                     moveq.l    D0, 0x00
00005462  1007                     move.b     D0, D7
00005464  3B40 C95E                move.w     [A5 - 0x36A2], D0
00005468  7E00                     moveq.l    D7, 0x00
0000546A  605E                     bra        +0x60 /* 000054CA */
label0000546C:
0000546C  7000                     moveq.l    D0, 0x00
0000546E  102D ED04                move.b     D0, [A5 - 0x12FC]
00005472  1035 0920 D395           move.b     D0, [A5 - 0x2C6B + D0]
00005478  B02D B2D6                cmp.b      D0, [A5 - 0x4D2A]
0000547C  6706                     beq        +0x8 /* 00005484 */
0000547E  3E3C 00FF                move.w     D7, 0xFF
00005482  6046                     bra        +0x48 /* 000054CA */
label00005484:
00005484  4A6D F758                tst.w      [A5 - 0x8A8]
00005488  6604                     bne        +0x6 /* 0000548E */
0000548A  4EBA 0474                jsr        [PC + 0x474 /* 00005900 */]
label0000548E:
0000548E  7000                     moveq.l    D0, 0x00
00005490  102D ED04                move.b     D0, [A5 - 0x12FC]
00005494  3B40 C95E                move.w     [A5 - 0x36A2], D0
00005498  7000                     moveq.l    D0, 0x00
0000549A  102D ED04                move.b     D0, [A5 - 0x12FC]
0000549E  7200                     moveq.l    D1, 0x00
000054A0  1235 0920 D6F1           move.b     D1, [A5 - 0x290F + D0]
000054A6  3F01                     move.w     -[A7], D1
000054A8  7000                     moveq.l    D0, 0x00
000054AA  102D ED04                move.b     D0, [A5 - 0x12FC]
000054AE  7200                     moveq.l    D1, 0x00
000054B0  1235 0920 D759           move.b     D1, [A5 - 0x28A7 + D0]
000054B6  3F01                     move.w     -[A7], D1
000054B8  7000                     moveq.l    D0, 0x00
000054BA  102D ED04                move.b     D0, [A5 - 0x12FC]
000054BE  3F00                     move.w     -[A7], D0
000054C0  4EAD 007A                jsr        [A5 + 0x7A /* export_11, CODE:2 @ 00000B20 */]
000054C4  3E2D C95E                move.w     D7, [A5 - 0x36A2]
000054C8  5C8F                     addq.l     A7, 6
label000054CA:
000054CA  0C47 0080                cmpi.w     D7, 0x80
000054CE  6434                     bcc        +0x36 /* 00005504 */
000054D0  0C6D 007F C95E           cmpi.w     [A5 - 0x36A2], 0x7F
000054D6  6F08                     ble        +0xA /* 000054E0 */
000054D8  1B6D F5E9 ED05           move.b     [A5 - 0x12FB], [A5 - 0xA17]
000054DE  600C                     bra        +0xE /* 000054EC */
label000054E0:
000054E0  302D C95E                move.w     D0, [A5 - 0x36A2]
000054E4  1B75 0120 D44C ED05      move.b     [A5 - 0x12FB], [A5 - 0x2BB4 + D0]
label000054EC:
000054EC  422D ED0A                clr.b      [A5 - 0x12F6]
000054F0  426D ED0C                clr.w      [A5 - 0x12F4]
000054F4  1B7C 00FF ED0B           move.b     [A5 - 0x12F5], 0xFF
000054FA  3B7C 00FF C932           move.w     [A5 - 0x36CE], 0xFF
00005500  4EBA 0008                jsr        [PC + 0x8 /* 0000550A */]
label00005504:
00005504  2E1F                     move.l     D7, [A7]+
00005506  4E5E                     unlink     A6
00005508  4E75                     rts
fn0000550A:
0000550A  4E56 FFF6                link       A6, -0x000A
0000550E  48E7 0F00                movem.l    -[A7], D4,D5,D6,D7
00005512  4A2D ED0B                tst.b      [A5 - 0x12F5]
00005516  6700 03D2                beq        +0x3D4 /* 000058EA */
0000551A  306D EC9E                movea.w    A0, [A5 - 0x1362]
0000551E  2008                     move.l     D0, A0
00005520  81FC 0008                divs.w     D0, 0x8
00005524  306D ECD8                movea.w    A0, [A5 - 0x1328]
00005528  2208                     move.l     D1, A0
0000552A  83FC 0008                divs.w     D1, 0x8
0000552E  B240                     cmp.w      D1, D0
00005530  6600 03B8                bne        +0x3BA /* 000058EA */
00005534  302D EC9E                move.w     D0, [A5 - 0x1362]
00005538  B06D ECA0                cmp.w      D0, [A5 - 0x1360]
0000553C  6600 03AC                bne        +0x3AE /* 000058EA */
00005540  0C6D 00FF C95E           cmpi.w     [A5 - 0x36A2], 0xFF
00005546  6700 0088                beq        +0x8A /* 000055D0 */
0000554A  4A6D F5D0                tst.w      [A5 - 0xA30]
0000554E  6700 0080                beq        +0x82 /* 000055D0 */
00005552  303C 00A0                move.w     D0, 0xA0
00005556  906D EC9E                sub.w      D0, [A5 - 0x1362]
0000555A  322D C95E                move.w     D1, [A5 - 0x36A2]
0000555E  D075 1320 D3B0           add.w      D0, [A5 - 0x2C50 + D1 * 2]
00005564  3B40 F594                move.w     [A5 - 0xA6C], D0
00005568  4A6D C998                tst.w      [A5 - 0x3668]
0000556C  6C32                     bge        +0x34 /* 000055A0 */
0000556E  302D C95E                move.w     D0, [A5 - 0x36A2]
00005572  322D C95E                move.w     D1, [A5 - 0x36A2]
00005576  3035 0320 D3CA           move.w     D0, [A5 - 0x2C36 + D0 * 2]
0000557C  D075 1320 D418           add.w      D0, [A5 - 0x2BE8 + D1 * 2]
00005582  322D C95E                move.w     D1, [A5 - 0x36A2]
00005586  7400                     moveq.l    D2, 0x00
00005588  1435 1120 D621           move.b     D2, [A5 - 0x29DF + D1]
0000558E  C5ED C998                muls.w     D2, [A5 - 0x3668]
00005592  48C2                     ext.l      D2
00005594  85FC 00FF                divs.w     D2, 0xFF
00005598  D042                     add.w      D0, D2
0000559A  3B40 F5A0                move.w     [A5 - 0xA60], D0
0000559E  6006                     bra        +0x8 /* 000055A6 */
label000055A0:
000055A0  3B6D C998 F5A0           move.w     [A5 - 0xA60], [A5 - 0x3668]
label000055A6:
000055A6  0C6D 0001 F5A0           cmpi.w     [A5 - 0xA60], 0x1
000055AC  6C06                     bge        +0x8 /* 000055B4 */
000055AE  3B7C 0001 F5A0           move.w     [A5 - 0xA60], 0x1
label000055B4:
000055B4  0C6D 0050 F594           cmpi.w     [A5 - 0xA6C], 0x50 /* 'P' */
000055BA  6C06                     bge        +0x8 /* 000055C2 */
000055BC  3B7C 0050 F594           move.w     [A5 - 0xA6C], 0x50 /* 'P' */
label000055C2:
000055C2  0C6D 00F0 F594           cmpi.w     [A5 - 0xA6C], 0xF0
000055C8  6F06                     ble        +0x8 /* 000055D0 */
000055CA  3B7C 00F0 F594           move.w     [A5 - 0xA6C], 0xF0
label000055D0:
000055D0  3B6D F594 F528           move.w     [A5 - 0xAD8], [A5 - 0xA6C]
000055D6  3B6D F5A0 F52A           move.w     [A5 - 0xAD6], [A5 - 0xA60]
000055DC  3B6D F594 F530           move.w     [A5 - 0xAD0], [A5 - 0xA6C]
000055E2  1B6D F5F5 F523           move.b     [A5 - 0xADD], [A5 - 0xA0B]
000055E8  302D C95E                move.w     D0, [A5 - 0x36A2]
000055EC  4A35 0120 D725           tst.b      [A5 - 0x28DB + D0]
000055F2  6714                     beq        +0x16 /* 00005608 */
000055F4  0C6D 0080 C95E           cmpi.w     [A5 - 0x36A2], 0x80
000055FA  6C0C                     bge        +0xE /* 00005608 */
000055FC  302D C95E                move.w     D0, [A5 - 0x36A2]
00005600  1B75 0120 D725 F523      move.b     [A5 - 0xADD], [A5 - 0x28DB + D0]
label00005608:
00005608  1B6D F5C5 F522           move.b     [A5 - 0xADE], [A5 - 0xA3B]
0000560E  3B6D F5DC F534           move.w     [A5 - 0xACC], [A5 - 0xA24]
00005614  1B6D ED05 F532           move.b     [A5 - 0xACE], [A5 - 0x12FB]
0000561A  422D F533                clr.b      [A5 - 0xACD]
0000561E  7800                     moveq.l    D4, 0x00
00005620  601A                     bra        +0x1C /* 0000563C */
label00005622:
00005622  7000                     moveq.l    D0, 0x00
00005624  102D F523                move.b     D0, [A5 - 0xADD]
00005628  E988                     lsl        D0, 4
0000562A  41ED EAB6                lea.l      A0, [A5 - 0x154A]
0000562E  D088                     add.l      D0, A0
00005630  3044                     movea.w    A0, D4
00005632  1BB0 0800 4120 EAA6      move.b     [A5 - 0x155A + D4], [A0 + D0]
0000563A  5244                     addq.w     D4, 1
label0000563C:
0000563C  0C44 0004                cmpi.w     D4, 0x4
00005640  6DE0                     blt        -0x1E /* 00005622 */
00005642  4A6D F758                tst.w      [A5 - 0x8A8]
00005646  6718                     beq        +0x1A /* 00005660 */
00005648  3B6D F624 F536           move.w     [A5 - 0xACA], [A5 - 0x9DC]
0000564E  3B6D F618 F538           move.w     [A5 - 0xAC8], [A5 - 0x9E8]
00005654  3B6D F600 F53A           move.w     [A5 - 0xAC6], [A5 - 0xA00]
0000565A  3B6D F60C F53C           move.w     [A5 - 0xAC4], [A5 - 0x9F4]
label00005660:
00005660  4A2D ED0B                tst.b      [A5 - 0x12F5]
00005664  6700 0284                beq        +0x286 /* 000058EA */
00005668  4A6D ED0C                tst.w      [A5 - 0x12F4]
0000566C  6600 027C                bne        +0x27E /* 000058EA */
00005670  0C2D 00FF ED0B           cmpi.b     [A5 - 0x12F5], 0xFF
00005676  6600 026E                bne        +0x270 /* 000058E6 */
0000567A  4A6D C95E                tst.w      [A5 - 0x36A2]
0000567E  672E                     beq        +0x30 /* 000056AE */
00005680  0C6D 0080 C95E           cmpi.w     [A5 - 0x36A2], 0x80
00005686  6C26                     bge        +0x28 /* 000056AE */
00005688  302D C95E                move.w     D0, [A5 - 0x36A2]
0000568C  7200                     moveq.l    D1, 0x00
0000568E  1235 0120 D6F1           move.b     D1, [A5 - 0x290F + D0]
00005694  3F01                     move.w     -[A7], D1
00005696  302D C95E                move.w     D0, [A5 - 0x36A2]
0000569A  7200                     moveq.l    D1, 0x00
0000569C  1235 0120 D759           move.b     D1, [A5 - 0x28A7 + D0]
000056A2  3F01                     move.w     -[A7], D1
000056A4  3F2D C95E                move.w     -[A7], [A5 - 0x36A2]
000056A8  4EAD 007A                jsr        [A5 + 0x7A /* export_11, CODE:2 @ 00000B20 */]
000056AC  5C8F                     addq.l     A7, 6
label000056AE:
000056AE  3B6D ED0E ED0C           move.w     [A5 - 0x12F4], [A5 - 0x12F2]
000056B4  4A6D F758                tst.w      [A5 - 0x8A8]
000056B8  6610                     bne        +0x12 /* 000056CA */
000056BA  4EBA 02A0                jsr        [PC + 0x2A0 /* 0000595C */]
000056BE  3B6D F594 F5AC           move.w     [A5 - 0xA54], [A5 - 0xA6C]
000056C4  3B6D F5A0 F5B8           move.w     [A5 - 0xA48], [A5 - 0xA60]
label000056CA:
000056CA  7CFF                     moveq.l    D6, 0xFFFFFFFF
000056CC  DC6D F534                add.w      D6, [A5 - 0xACC]
000056D0  9C6D F5AC                sub.w      D6, [A5 - 0xA54]
000056D4  4A2D F522                tst.b      [A5 - 0xADE]
000056D8  6710                     beq        +0x12 /* 000056EA */
000056DA  BC6D F5AC                cmp.w      D6, [A5 - 0xA54]
000056DE  6F08                     ble        +0xA /* 000056E8 */
000056E0  3C2D F5AC                move.w     D6, [A5 - 0xA54]
000056E4  DC46                     add.w      D6, D6
000056E6  6002                     bra        +0x4 /* 000056EA */
label000056E8:
000056E8  DC46                     add.w      D6, D6
label000056EA:
000056EA  3F06                     move.w     -[A7], D6
000056EC  7000                     moveq.l    D0, 0x00
000056EE  102D ED0A                move.b     D0, [A5 - 0x12F6]
000056F2  3F00                     move.w     -[A7], D0
000056F4  486D F422                pea.l      [A5 - 0xBDE]
000056F8  4267                     clr.w      -[A7]
000056FA  4EBA F9FE                jsr        [PC - 0x602 /* 000050FA */]
000056FE  3B6D F296 ECA6           move.w     [A5 - 0x135A], [A5 - 0xD6A]
00005704  4A2D F522                tst.b      [A5 - 0xADE]
00005708  4FEF 000A                lea.l      A7, [A7 + 0xA]
0000570C  671E                     beq        +0x20 /* 0000572C */
0000570E  7000                     moveq.l    D0, 0x00
00005710  102D ED0A                move.b     D0, [A5 - 0x12F6]
00005714  3F00                     move.w     -[A7], D0
00005716  486D F422                pea.l      [A5 - 0xBDE]
0000571A  4267                     clr.w      -[A7]
0000571C  4EBA F904                jsr        [PC - 0x6FC /* 00005022 */]
00005720  48C0                     ext.l      D0
00005722  81FC 0002                divs.w     D0, 0x2
00005726  916D F5AC                sub.w      [A5 - 0xA54], D0
0000572A  508F                     addq.l     A7, 8
label0000572C:
0000572C  4A6D F758                tst.w      [A5 - 0x8A8]
00005730  670A                     beq        +0xC /* 0000573C */
00005732  422D F53E                clr.b      [A5 - 0xAC2]
00005736  422D F53F                clr.b      [A5 - 0xAC1]
0000573A  600C                     bra        +0xE /* 00005748 */
label0000573C:
0000573C  1B7C 0001 F53E           move.b     [A5 - 0xAC2], 0x1
00005742  1B7C 0001 F53F           move.b     [A5 - 0xAC1], 0x1
label00005748:
00005748  102D ED0A                move.b     D0, [A5 - 0x12F6]
0000574C  522D ED0A                addq.b     [A5 - 0x12F6], 1
00005750  7200                     moveq.l    D1, 0x00
00005752  1200                     move.b     D1, D0
00005754  7E00                     moveq.l    D7, 0x00
00005756  1E35 1920 F422           move.b     D7, [A5 - 0xBDE + D1]
0000575C  4A47                     tst.w      D7
0000575E  6626                     bne        +0x28 /* 00005786 */
00005760  1B7C 0001 ED0B           move.b     [A5 - 0x12F5], 0x1
00005766  426D F758                clr.w      [A5 - 0x8A8]
0000576A  3B6D F536 F624           move.w     [A5 - 0x9DC], [A5 - 0xACA]
00005770  3B6D F538 F618           move.w     [A5 - 0x9E8], [A5 - 0xAC8]
00005776  3B6D F53A F600           move.w     [A5 - 0xA00], [A5 - 0xAC6]
0000577C  3B6D F53C F60C           move.w     [A5 - 0x9F4], [A5 - 0xAC4]
00005782  6000 0166                bra        +0x168 /* 000058EA */
label00005786:
00005786  0C47 000D                cmpi.w     D7, 0xD /* '\r' */
0000578A  675C                     beq        +0x5E /* 000057E8 */
0000578C  0C47 00FE                cmpi.w     D7, 0xFE
00005790  6604                     bne        +0x6 /* 00005796 */
00005792  3E3C 00FF                move.w     D7, 0xFF
label00005796:
00005796  0C47 00FF                cmpi.w     D7, 0xFF
0000579A  6600 011E                bne        +0x120 /* 000058BA */
0000579E  102D ED0A                move.b     D0, [A5 - 0x12F6]
000057A2  522D ED0A                addq.b     [A5 - 0x12F6], 1
000057A6  7200                     moveq.l    D1, 0x00
000057A8  1200                     move.b     D1, D0
000057AA  7E00                     moveq.l    D7, 0x00
000057AC  1E35 1920 F422           move.b     D7, [A5 - 0xBDE + D1]
000057B2  0C47 0003                cmpi.w     D7, 0x3
000057B6  6626                     bne        +0x28 /* 000057DE */
000057B8  1B7C 00FF ED0B           move.b     [A5 - 0x12F5], 0xFF
000057BE  426D F758                clr.w      [A5 - 0x8A8]
000057C2  3B6D F536 F624           move.w     [A5 - 0x9DC], [A5 - 0xACA]
000057C8  3B6D F538 F618           move.w     [A5 - 0x9E8], [A5 - 0xAC8]
000057CE  3B6D F53A F600           move.w     [A5 - 0xA00], [A5 - 0xAC6]
000057D4  3B6D F53C F60C           move.w     [A5 - 0x9F4], [A5 - 0xAC4]
000057DA  6000 010E                bra        +0x110 /* 000058EA */
label000057DE:
000057DE  0C47 0008                cmpi.w     D7, 0x8
000057E2  0C47 0001                cmpi.w     D7, 0x1
000057E6  6652                     bne        +0x54 /* 0000583A */
label000057E8:
000057E8  3B6D F594 F5AC           move.w     [A5 - 0xA54], [A5 - 0xA6C]
000057EE  4A2D F522                tst.b      [A5 - 0xADE]
000057F2  671E                     beq        +0x20 /* 00005812 */
000057F4  7000                     moveq.l    D0, 0x00
000057F6  102D ED0A                move.b     D0, [A5 - 0x12F6]
000057FA  3F00                     move.w     -[A7], D0
000057FC  486D F422                pea.l      [A5 - 0xBDE]
00005800  4267                     clr.w      -[A7]
00005802  4EBA F81E                jsr        [PC - 0x7E2 /* 00005022 */]
00005806  48C0                     ext.l      D0
00005808  81FC 0002                divs.w     D0, 0x2
0000580C  916D F5AC                sub.w      [A5 - 0xA54], D0
00005810  508F                     addq.l     A7, 8
label00005812:
00005812  7000                     moveq.l    D0, 0x00
00005814  102D F523                move.b     D0, [A5 - 0xADD]
00005818  3F00                     move.w     -[A7], D0
0000581A  3F3C 0006                move.w     -[A7], 0x6
0000581E  4EAD 03E2                jsr        [A5 + 0x3E2 /* export_120, CODE:2 @ 00003CEE */]
00005822  2040                     movea.l    A0, D0
00005824  7000                     moveq.l    D0, 0x00
00005826  1028 001E                move.b     D0, [A0 + 0x1E]
0000582A  D16D F5B8                add.w      [A5 - 0xA48], D0
0000582E  1B7C 0001 F53F           move.b     [A5 - 0xAC1], 0x1
00005834  588F                     addq.l     A7, 4
00005836  6000 FF10                bra        -0xEE /* 00005748 */
label0000583A:
0000583A  0C47 0002                cmpi.w     D7, 0x2
0000583E  6626                     bne        +0x28 /* 00005866 */
00005840  422D ED0B                clr.b      [A5 - 0x12F5]
00005844  3B7C 0001 F758           move.w     [A5 - 0x8A8], 0x1
0000584A  3B6D F536 F624           move.w     [A5 - 0x9DC], [A5 - 0xACA]
00005850  3B6D F538 F618           move.w     [A5 - 0x9E8], [A5 - 0xAC8]
00005856  3B6D F53A F600           move.w     [A5 - 0xA00], [A5 - 0xAC6]
0000585C  3B6D F53C F60C           move.w     [A5 - 0x9F4], [A5 - 0xAC4]
00005862  6000 0086                bra        +0x88 /* 000058EA */
label00005866:
00005866  0C47 0009                cmpi.w     D7, 0x9 /* '\t' */
0000586A  664E                     bne        +0x50 /* 000058BA */
0000586C  102D ED0A                move.b     D0, [A5 - 0x12F6]
00005870  522D ED0A                addq.b     [A5 - 0x12F6], 1
00005874  7200                     moveq.l    D1, 0x00
00005876  1200                     move.b     D1, D0
00005878  7A00                     moveq.l    D5, 0x00
0000587A  1A35 1920 F422           move.b     D5, [A5 - 0xBDE + D1]
00005880  102D ED0A                move.b     D0, [A5 - 0x12F6]
00005884  522D ED0A                addq.b     [A5 - 0x12F6], 1
00005888  7200                     moveq.l    D1, 0x00
0000588A  1200                     move.b     D1, D0
0000588C  7000                     moveq.l    D0, 0x00
0000588E  1035 1920 F422           move.b     D0, [A5 - 0xBDE + D1]
00005894  E148                     lsl        D0.w, 8
00005896  DA40                     add.w      D5, D0
00005898  0C6D 00FF C95E           cmpi.w     [A5 - 0x36A2], 0xFF
0000589E  671A                     beq        +0x1C /* 000058BA */
000058A0  302D C95E                move.w     D0, [A5 - 0x36A2]
000058A4  7200                     moveq.l    D1, 0x00
000058A6  1235 0120 D6F1           move.b     D1, [A5 - 0x290F + D0]
000058AC  3F01                     move.w     -[A7], D1
000058AE  3F05                     move.w     -[A7], D5
000058B0  3F2D C95E                move.w     -[A7], [A5 - 0x36A2]
000058B4  4EAD 007A                jsr        [A5 + 0x7A /* export_11, CODE:2 @ 00000B20 */]
000058B8  5C8F                     addq.l     A7, 6
label000058BA:
000058BA  3B6D F5AC F528           move.w     [A5 - 0xAD8], [A5 - 0xA54]
000058C0  3B6D F5B8 F52A           move.w     [A5 - 0xAD6], [A5 - 0xA48]
000058C6  3F07                     move.w     -[A7], D7
000058C8  4EAD 0B22                jsr        [A5 + 0xB22 /* export_352, CODE:5 @ 00000000 */]
000058CC  3B6D F528 F5AC           move.w     [A5 - 0xA54], [A5 - 0xAD8]
000058D2  3B6D F52A F5B8           move.w     [A5 - 0xA48], [A5 - 0xAD6]
000058D8  302D C976                move.w     D0, [A5 - 0x368A]
000058DC  D16D ED0C                add.w      [A5 - 0x12F4], D0
000058E0  548F                     addq.l     A7, 2
000058E2  6000 FE64                bra        -0x19A /* 00005748 */
label000058E6:
000058E6  4EBA 0018                jsr        [PC + 0x18 /* 00005900 */]
label000058EA:
000058EA  4CDF 00F0                movem.l    D4,D5,D6,D7, [A7]+
000058EE  4E5E                     unlink     A6
000058F0  4E75                     rts
export_226:
000058F2  41ED A3D4                lea.l      A0, [A5 - 0x5C2C]
000058F6  2B48 ED06                move.l     [A5 - 0x12FA], A0
000058FA  4EBA 0004                jsr        [PC + 0x4 /* 00005900 */]
000058FE  4E75                     rts
export_227:
fn00005900:
00005900  422D ED0B                clr.b      [A5 - 0x12F5]
00005904  426D ED0C                clr.w      [A5 - 0x12F4]
00005908  4A6D C95E                tst.w      [A5 - 0x36A2]
0000590C  6744                     beq        +0x46 /* 00005952 */
0000590E  0C6D 0080 C95E           cmpi.w     [A5 - 0x36A2], 0x80
00005914  6C3C                     bge        +0x3E /* 00005952 */
00005916  302D C95E                move.w     D0, [A5 - 0x36A2]
0000591A  1035 0120 D395           move.b     D0, [A5 - 0x2C6B + D0]
00005920  B02D B2D6                cmp.b      D0, [A5 - 0x4D2A]
00005924  6626                     bne        +0x28 /* 0000594C */
00005926  302D C95E                move.w     D0, [A5 - 0x36A2]
0000592A  7200                     moveq.l    D1, 0x00
0000592C  1235 0120 D6F1           move.b     D1, [A5 - 0x290F + D0]
00005932  3F01                     move.w     -[A7], D1
00005934  302D C95E                move.w     D0, [A5 - 0x36A2]
00005938  7200                     moveq.l    D1, 0x00
0000593A  1235 0120 D766           move.b     D1, [A5 - 0x289A + D0]
00005940  3F01                     move.w     -[A7], D1
00005942  3F2D C95E                move.w     -[A7], [A5 - 0x36A2]
00005946  4EAD 007A                jsr        [A5 + 0x7A /* export_11, CODE:2 @ 00000B20 */]
0000594A  5C8F                     addq.l     A7, 6
label0000594C:
0000594C  3B7C 00FF C95E           move.w     [A5 - 0x36A2], 0xFF
label00005952:
00005952  426D F758                clr.w      [A5 - 0x8A8]
00005956  4EBA 0004                jsr        [PC + 0x4 /* 0000595C */]
0000595A  4E75                     rts
fn0000595C:
0000595C  422D F533                clr.b      [A5 - 0xACD]
00005960  0C6D FFFF F624           cmpi.w     [A5 - 0x9DC], 0xFFFF
00005966  6720                     beq        +0x22 /* 00005988 */
00005968  3F2D F60C                move.w     -[A7], [A5 - 0x9F4]
0000596C  3F2D F618                move.w     -[A7], [A5 - 0x9E8]
00005970  3F2D F600                move.w     -[A7], [A5 - 0xA00]
00005974  3F2D F624                move.w     -[A7], [A5 - 0x9DC]
00005978  4EAD 0B2A                jsr        [A5 + 0xB2A /* export_353, CODE:5 @ 0000041E */]
0000597C  426D F40A                clr.w      [A5 - 0xBF6]
00005980  3B7C FFFF F624           move.w     [A5 - 0x9DC], 0xFFFF
00005986  508F                     addq.l     A7, 8
label00005988:
00005988  3B6D F594 F5AC           move.w     [A5 - 0xA54], [A5 - 0xA6C]
0000598E  3B6D F5A0 F5B8           move.w     [A5 - 0xA48], [A5 - 0xA60]
00005994  4E75                     rts
fn00005996:
00005996  4E56 0000                link       A6, 0
0000599A  2F2E 0008                move.l     -[A7], [A6 + 0x8]
0000599E  4EAD 0BF2                jsr        [A5 + 0xBF2 /* export_378, CODE:6 @ 0000005C */]
000059A2  4E5E                     unlink     A6
000059A4  4E75                     rts
fn000059A6:
000059A6  4E56 0000                link       A6, 0
000059AA  48E7 0700                movem.l    -[A7], D5,D6,D7
000059AE  4267                     clr.w      -[A7]
000059B0  3F2E 0008                move.w     -[A7], [A6 + 0x8]
000059B4  4EAD 098A                jsr        [A5 + 0x98A /* export_301, CODE:5 @ 0000311C */]
000059B8  3E1F                     move.w     D7, [A7]+
000059BA  4A47                     tst.w      D7
000059BC  6C12                     bge        +0x14 /* 000059D0 */
000059BE  206D F41E                movea.l    A0, [A5 - 0xBE2]
000059C2  52AD F41E                addq.l     [A5 - 0xBE2], 1
000059C6  10BC 002D                move.b     [A0], 0x2D /* '-' */
000059CA  7000                     moveq.l    D0, 0x00
000059CC  9047                     sub.w      D0, D7
000059CE  3E00                     move.w     D7, D0
label000059D0:
000059D0  7C00                     moveq.l    D6, 0x00
000059D2  3A3C 2710                move.w     D5, 0x2710
label000059D6:
000059D6  BA47                     cmp.w      D5, D7
000059D8  6F04                     ble        +0x6 /* 000059DE */
000059DA  4A06                     tst.b      D6
000059DC  671E                     beq        +0x20 /* 000059FC */
label000059DE:
000059DE  3047                     movea.w    A0, D7
000059E0  2C08                     move.l     D6, A0
000059E2  8DC5                     divs.w     D6, D5
000059E4  7030                     moveq.l    D0, 0x30
000059E6  D006                     add.b      D0, D6
000059E8  206D F41E                movea.l    A0, [A5 - 0xBE2]
000059EC  52AD F41E                addq.l     [A5 - 0xBE2], 1
000059F0  1080                     move.b     [A0], D0
000059F2  7000                     moveq.l    D0, 0x00
000059F4  1006                     move.b     D0, D6
000059F6  C1C5                     muls.w     D0, D5
000059F8  9E40                     sub.w      D7, D0
000059FA  7C01                     moveq.l    D6, 0x01
label000059FC:
000059FC  48C5                     ext.l      D5
000059FE  8BFC 000A                divs.w     D5, 0xA /* '\n' */
00005A02  0C45 0001                cmpi.w     D5, 0x1
00005A06  6602                     bne        +0x4 /* 00005A0A */
00005A08  7C01                     moveq.l    D6, 0x01
label00005A0A:
00005A0A  4A45                     tst.w      D5
00005A0C  66C8                     bne        -0x36 /* 000059D6 */
00005A0E  4CDF 00E0                movem.l    D5,D6,D7, [A7]+
00005A12  4E5E                     unlink     A6
00005A14  4E75                     rts
fn00005A16:
00005A16  4E56 0000                link       A6, 0
00005A1A  48E7 0108                movem.l    -[A7], D7,A4
00005A1E  286E 0008                movea.l    A4, [A6 + 0x8]
00005A22  6000 00C2                bra        +0xC4 /* 00005AE6 */
label00005A26:
00005A26  0C07 00FF                cmpi.b     D7, 0xFF
00005A2A  6600 00AA                bne        +0xAC /* 00005AD6 */
00005A2E  1E1C                     move.b     D7, [A4]+
00005A30  7000                     moveq.l    D0, 0x00
00005A32  1007                     move.b     D0, D7
00005A34  5940                     subq.w     D0, 4
00005A36  0C40 0005                cmpi.w     D0, 0x5
00005A3A  6200 0082                bhi        +0x84 /* 00005ABE */
00005A3E  43FA 00BC                lea.l      A1, [PC + 0xBC /* 00005AFC, value 0xFF4CFF60 */]
00005A42  D2F1 0200                add.w      A1, [A1 + D0.w * 2]
00005A46  4ED1                     jmp        [A1]
00005A48  2F0C                     move.l     -[A7], A4
00005A4A  4EBA FF4A                jsr        [PC - 0xB6 /* 00005996 */]
00005A4E  3E80                     move.w     [A7], D0
00005A50  4EBA FF54                jsr        [PC - 0xAC /* 000059A6 */]
00005A54  548C                     addq.l     A4, 2
00005A56  588F                     addq.l     A7, 4
00005A58  6000 008C                bra        +0x8E /* 00005AE6 */
00005A5C  2F0C                     move.l     -[A7], A4
00005A5E  4EBA FF36                jsr        [PC - 0xCA /* 00005996 */]
00005A62  3E80                     move.w     [A7], D0
00005A64  4EBA 00A2                jsr        [PC + 0xA2 /* 00005B08 */]
00005A68  548C                     addq.l     A4, 2
00005A6A  588F                     addq.l     A7, 4
00005A6C  6078                     bra        +0x7A /* 00005AE6 */
00005A6E  2F0C                     move.l     -[A7], A4
00005A70  4EBA FF24                jsr        [PC - 0xDC /* 00005996 */]
00005A74  3E80                     move.w     [A7], D0
00005A76  4EBA 00FA                jsr        [PC + 0xFA /* 00005B72 */]
00005A7A  548C                     addq.l     A4, 2
00005A7C  588F                     addq.l     A7, 4
00005A7E  6066                     bra        +0x68 /* 00005AE6 */
00005A80  2F0C                     move.l     -[A7], A4
00005A82  4EBA FF12                jsr        [PC - 0xEE /* 00005996 */]
00005A86  3E80                     move.w     [A7], D0
00005A88  4EBA 011C                jsr        [PC + 0x11C /* 00005BA6 */]
00005A8C  548C                     addq.l     A4, 2
00005A8E  588F                     addq.l     A7, 4
00005A90  6054                     bra        +0x56 /* 00005AE6 */
00005A92  206D F41E                movea.l    A0, [A5 - 0xBE2]
00005A96  52AD F41E                addq.l     [A5 - 0xBE2], 1
00005A9A  10BC 00FF                move.b     [A0], 0xFF
00005A9E  206D F41E                movea.l    A0, [A5 - 0xBE2]
00005AA2  52AD F41E                addq.l     [A5 - 0xBE2], 1
00005AA6  1087                     move.b     [A0], D7
00005AA8  206D F41E                movea.l    A0, [A5 - 0xBE2]
00005AAC  52AD F41E                addq.l     [A5 - 0xBE2], 1
00005AB0  109C                     move.b     [A0], [A4]+
00005AB2  206D F41E                movea.l    A0, [A5 - 0xBE2]
00005AB6  52AD F41E                addq.l     [A5 - 0xBE2], 1
00005ABA  109C                     move.b     [A0], [A4]+
00005ABC  6028                     bra        +0x2A /* 00005AE6 */
label00005ABE:
00005ABE  206D F41E                movea.l    A0, [A5 - 0xBE2]
00005AC2  52AD F41E                addq.l     [A5 - 0xBE2], 1
00005AC6  10BC 00FF                move.b     [A0], 0xFF
00005ACA  206D F41E                movea.l    A0, [A5 - 0xBE2]
00005ACE  52AD F41E                addq.l     [A5 - 0xBE2], 1
00005AD2  1087                     move.b     [A0], D7
00005AD4  6010                     bra        +0x12 /* 00005AE6 */
label00005AD6:
00005AD6  0C07 0040                cmpi.b     D7, 0x40 /* '@' */
00005ADA  670A                     beq        +0xC /* 00005AE6 */
00005ADC  206D F41E                movea.l    A0, [A5 - 0xBE2]
00005AE0  52AD F41E                addq.l     [A5 - 0xBE2], 1
00005AE4  1087                     move.b     [A0], D7
label00005AE6:
00005AE6  1E1C                     move.b     D7, [A4]+
00005AE8  6600 FF3C                bne        -0xC2 /* 00005A26 */
00005AEC  206D F41E                movea.l    A0, [A5 - 0xBE2]
00005AF0  4210                     clr.b      [A0]
00005AF2  200C                     move.l     D0, A4
00005AF4  4CDF 1080                movem.l    D7,A4, [A7]+
00005AF8  4E5E                     unlink     A6
00005AFA  4E75                     rts
00005AFC  FF4C                     .extension 0xF4C <<F/4-5/7>> // unimplemented
00005AFE  FF60                     .extension 0xF60 <<F/4-5/7>> // unimplemented
00005B00  FF72                     .extension 0xF72 <<F/4-5/7>> // unimplemented
00005B02  FF84                     .invalid   <<F/6/7>>
00005B04  FFC2                     .invalid   <<F/7/7>>
00005B06  FF96                     .invalid   <<F/6/7>>
fn00005B08:
00005B08  4E56 0000                link       A6, 0
00005B0C  48E7 0308                movem.l    -[A7], D6,D7,A4
00005B10  4267                     clr.w      -[A7]
00005B12  3F2E 0008                move.w     -[A7], [A6 + 0x8]
00005B16  4EAD 098A                jsr        [A5 + 0x98A /* export_301, CODE:5 @ 0000311C */]
00005B1A  3E1F                     move.w     D7, [A7]+
00005B1C  6740                     beq        +0x42 /* 00005B5E */
00005B1E  7C01                     moveq.l    D6, 0x01
00005B20  6036                     bra        +0x38 /* 00005B58 */
label00005B22:
00005B22  701C                     moveq.l    D0, 0x1C
00005B24  C0C6                     mulu.w     D0, D6
00005B26  49ED DFB6                lea.l      A4, [A5 - 0x204A]
00005B2A  D08C                     add.l      D0, A4
00005B2C  2840                     movea.l    A4, D0
00005B2E  7000                     moveq.l    D0, 0x00
00005B30  102C 0010                move.b     D0, [A4 + 0x10]
00005B34  BE40                     cmp.w      D7, D0
00005B36  661E                     bne        +0x20 /* 00005B56 */
00005B38  4A2C 0015                tst.b      [A4 + 0x15]
00005B3C  6618                     bne        +0x1A /* 00005B56 */
00005B3E  4A2C 0018                tst.b      [A4 + 0x18]
00005B42  6612                     bne        +0x14 /* 00005B56 */
00005B44  3F06                     move.w     -[A7], D6
00005B46  3F3C 0008                move.w     -[A7], 0x8
00005B4A  4EAD 03E2                jsr        [A5 + 0x3E2 /* export_120, CODE:2 @ 00003CEE */]
00005B4E  2E80                     move.l     [A7], D0
00005B50  4EBA FEC4                jsr        [PC - 0x13C /* 00005A16 */]
00005B54  6012                     bra        +0x14 /* 00005B68 */
label00005B56:
00005B56  5246                     addq.w     D6, 1
label00005B58:
00005B58  BC6D B116                cmp.w      D6, [A5 - 0x4EEA]
00005B5C  65C4                     bcs        -0x3A /* 00005B22 */
label00005B5E:
00005B5E  2F3C 0000 0FD5           move.l     -[A7], 0xFD5
00005B64  4EBA FEB0                jsr        [PC - 0x150 /* 00005A16 */]
label00005B68:
00005B68  4CEE 10C0 FFF4           movem.l    D6,D7,A4, [A6 - 0xC]
00005B6E  4E5E                     unlink     A6
00005B70  4E75                     rts
fn00005B72:
00005B72  4E56 0000                link       A6, 0
00005B76  2F07                     move.l     -[A7], D7
00005B78  4267                     clr.w      -[A7]
00005B7A  3F2E 0008                move.w     -[A7], [A6 + 0x8]
00005B7E  4EAD 098A                jsr        [A5 + 0x98A /* export_301, CODE:5 @ 0000311C */]
00005B82  3E1F                     move.w     D7, [A7]+
00005B84  670E                     beq        +0x10 /* 00005B94 */
00005B86  3F07                     move.w     -[A7], D7
00005B88  4EBA 041A                jsr        [PC + 0x41A /* 00005FA4 */]
00005B8C  2F00                     move.l     -[A7], D0
00005B8E  4EBA FE86                jsr        [PC - 0x17A /* 00005A16 */]
00005B92  600A                     bra        +0xC /* 00005B9E */
label00005B94:
00005B94  2F3C 0000 0FD7           move.l     -[A7], 0xFD7
00005B9A  4EBA FE7A                jsr        [PC - 0x186 /* 00005A16 */]
label00005B9E:
00005B9E  2E2E FFFC                move.l     D7, [A6 - 0x4]
00005BA2  4E5E                     unlink     A6
00005BA4  4E75                     rts
fn00005BA6:
00005BA6  4E56 0000                link       A6, 0
00005BAA  48E7 0108                movem.l    -[A7], D7,A4
00005BAE  3E2E 0008                move.w     D7, [A6 + 0x8]
00005BB2  671A                     beq        +0x1C /* 00005BCE */
00005BB4  3F07                     move.w     -[A7], D7
00005BB6  3F3C 0007                move.w     -[A7], 0x7
00005BBA  4EAD 03E2                jsr        [A5 + 0x3E2 /* export_120, CODE:2 @ 00003CEE */]
00005BBE  2840                     movea.l    A4, D0
00005BC0  200C                     move.l     D0, A4
00005BC2  588F                     addq.l     A7, 4
00005BC4  6708                     beq        +0xA /* 00005BCE */
00005BC6  2F0C                     move.l     -[A7], A4
00005BC8  4EBA FE4C                jsr        [PC - 0x1B4 /* 00005A16 */]
00005BCC  600A                     bra        +0xC /* 00005BD8 */
label00005BCE:
00005BCE  2F3C 0000 0FD9           move.l     -[A7], 0xFD9
00005BD4  4EBA FE40                jsr        [PC - 0x1C0 /* 00005A16 */]
label00005BD8:
00005BD8  4CEE 1080 FFF8           movem.l    D7,A4, [A6 - 0x8]
00005BDE  4E5E                     unlink     A6
00005BE0  4E75                     rts
export_231:
00005BE2  4E56 0000                link       A6, 0
00005BE6  48E7 0318                movem.l    -[A7], D6,D7,A3,A4
00005BEA  3E2E 0008                move.w     D7, [A6 + 0x8]
00005BEE  3F07                     move.w     -[A7], D7
00005BF0  4EBA 0576                jsr        [PC + 0x576 /* 00006168 */]
00005BF4  5240                     addq.w     D0, 1
00005BF6  548F                     addq.l     A7, 2
00005BF8  6604                     bne        +0x6 /* 00005BFE */
00005BFA  7000                     moveq.l    D0, 0x00
00005BFC  6058                     bra        +0x5A /* 00005C56 */
label00005BFE:
00005BFE  3F07                     move.w     -[A7], D7
00005C00  4EBA 0450                jsr        [PC + 0x450 /* 00006052 */]
00005C04  2840                     movea.l    A4, D0
00005C06  2F0C                     move.l     -[A7], A4
00005C08  2F3C 4252 4556           move.l     -[A7], 0x42524556 /* 'BREV' */
00005C0E  4EAD 051A                jsr        [A5 + 0x51A /* export_159, CODE:3 @ 000009FA */]
00005C12  2640                     movea.l    A3, D0
00005C14  200B                     move.l     D0, A3
00005C16  4FEF 000A                lea.l      A7, [A7 + 0xA]
00005C1A  660E                     bne        +0x10 /* 00005C2A */
00005C1C  3F07                     move.w     -[A7], D7
00005C1E  2F3C 0000 0FDA           move.l     -[A7], 0xFDA
00005C24  4EAD 0A42                jsr        [A5 + 0xA42 /* export_324, CODE:5 @ 000034B4 */]
00005C28  5C8F                     addq.l     A7, 6
label00005C2A:
00005C2A  2E0B                     move.l     D7, A3
00005C2C  9E8C                     sub.l      D7, A4
00005C2E  5A8B                     addq.l     A3, 5
label00005C30:
00005C30  568B                     addq.l     A3, 3
00005C32  1C13                     move.b     D6, [A3]
00005C34  4A06                     tst.b      D6
00005C36  6604                     bne        +0x6 /* 00005C3C */
00005C38  7000                     moveq.l    D0, 0x00
00005C3A  601A                     bra        +0x1C /* 00005C56 */
label00005C3C:
00005C3C  7000                     moveq.l    D0, 0x00
00005C3E  1006                     move.b     D0, D6
00005C40  B06E 000A                cmp.w      D0, [A6 + 0xA]
00005C44  6706                     beq        +0x8 /* 00005C4C */
00005C46  0C06 00FF                cmpi.b     D6, 0xFF
00005C4A  66E4                     bne        -0x1A /* 00005C30 */
label00005C4C:
00005C4C  486B 0001                pea.l      [A3 + 0x1]
00005C50  4EAD 0BF2                jsr        [A5 + 0xBF2 /* export_378, CODE:6 @ 0000005C */]
00005C54  D047                     add.w      D0, D7
label00005C56:
00005C56  4CEE 18C0 FFF0           movem.l    D6,D7,A3,A4, [A6 - 0x10]
00005C5C  4E5E                     unlink     A6
00005C5E  4E75                     rts
export_232:
fn00005C60:
00005C60  4E56 0000                link       A6, 0
00005C64  2F3C 0000 0FF6           move.l     -[A7], 0xFF6
00005C6A  3F2E 0008                move.w     -[A7], [A6 + 0x8]
00005C6E  4267                     clr.w      -[A7]
00005C70  70FF                     moveq.l    D0, 0xFFFFFFFF
00005C72  D06D C922                add.w      D0, [A5 - 0x36DE]
00005C76  3F00                     move.w     -[A7], D0
00005C78  4EAD 09B2                jsr        [A5 + 0x9B2 /* export_306, CODE:5 @ 00003464 */]
00005C7C  7000                     moveq.l    D0, 0x00
00005C7E  302E 0008                move.w     D0, [A6 + 0x8]
00005C82  7200                     moveq.l    D1, 0x00
00005C84  1235 0925 C924           move.b     D1, [[A5 - 0x36DC] + D0]
00005C8A  0241 00F0                andi.w     D1, 0xF0
00005C8E  E841                     asr        D1.w, 4
00005C90  3001                     move.w     D0, D1
00005C92  4E5E                     unlink     A6
00005C94  4E75                     rts
export_233:
00005C96  4E56 0000                link       A6, 0
00005C9A  2F0C                     move.l     -[A7], A4
00005C9C  2F3C 0000 101A           move.l     -[A7], 0x101A
00005CA2  3F2E 0008                move.w     -[A7], [A6 + 0x8]
00005CA6  4267                     clr.w      -[A7]
00005CA8  70FF                     moveq.l    D0, 0xFFFFFFFF
00005CAA  D06D C922                add.w      D0, [A5 - 0x36DE]
00005CAE  3F00                     move.w     -[A7], D0
00005CB0  4EAD 09B2                jsr        [A5 + 0x9B2 /* export_306, CODE:5 @ 00003464 */]
00005CB4  2F3C 0000 103E           move.l     -[A7], 0x103E
00005CBA  3F2E 000A                move.w     -[A7], [A6 + 0xA]
00005CBE  2F3C 000F 0000           move.l     -[A7], 0xF0000
00005CC4  4EAD 09B2                jsr        [A5 + 0x9B2 /* export_306, CODE:5 @ 00003464 */]
00005CC8  7000                     moveq.l    D0, 0x00
00005CCA  302E 0008                move.w     D0, [A6 + 0x8]
00005CCE  D0AD C924                add.l      D0, [A5 - 0x36DC]
00005CD2  2840                     movea.l    A4, D0
00005CD4  700F                     moveq.l    D0, 0x0F
00005CD6  C014                     and.b      D0, [A4]
00005CD8  122E 000B                move.b     D1, [A6 + 0xB]
00005CDC  E909                     lsl        D1.b, 4
00005CDE  8001                     or.b       D0, D1
00005CE0  1880                     move.b     [A4], D0
00005CE2  285F                     movea.l    A4, [A7]+
00005CE4  4E5E                     unlink     A6
00005CE6  4E75                     rts
export_234:
00005CE8  4E56 0000                link       A6, 0
00005CEC  2F3C 0000 1060           move.l     -[A7], 0x1060
00005CF2  3F2E 0008                move.w     -[A7], [A6 + 0x8]
00005CF6  4267                     clr.w      -[A7]
00005CF8  70FF                     moveq.l    D0, 0xFFFFFFFF
00005CFA  D06D C922                add.w      D0, [A5 - 0x36DE]
00005CFE  3F00                     move.w     -[A7], D0
00005D00  4EAD 09B2                jsr        [A5 + 0x9B2 /* export_306, CODE:5 @ 00003464 */]
00005D04  7000                     moveq.l    D0, 0x00
00005D06  302E 0008                move.w     D0, [A6 + 0x8]
00005D0A  7200                     moveq.l    D1, 0x00
00005D0C  1235 0925 C924           move.b     D1, [[A5 - 0x36DC] + D0]
00005D12  700F                     moveq.l    D0, 0x0F
00005D14  C041                     and.w      D0, D1
00005D16  4E5E                     unlink     A6
00005D18  4E75                     rts
export_235:
00005D1A  4E56 0000                link       A6, 0
00005D1E  2F0C                     move.l     -[A7], A4
00005D20  2F3C 0000 1084           move.l     -[A7], 0x1084
00005D26  3F2E 0008                move.w     -[A7], [A6 + 0x8]
00005D2A  4267                     clr.w      -[A7]
00005D2C  70FF                     moveq.l    D0, 0xFFFFFFFF
00005D2E  D06D C922                add.w      D0, [A5 - 0x36DE]
00005D32  3F00                     move.w     -[A7], D0
00005D34  4EAD 09B2                jsr        [A5 + 0x9B2 /* export_306, CODE:5 @ 00003464 */]
00005D38  2F3C 0000 10A8           move.l     -[A7], 0x10A8
00005D3E  3F2E 000A                move.w     -[A7], [A6 + 0xA]
00005D42  2F3C 000F 0000           move.l     -[A7], 0xF0000
00005D48  4EAD 09B2                jsr        [A5 + 0x9B2 /* export_306, CODE:5 @ 00003464 */]
00005D4C  7000                     moveq.l    D0, 0x00
00005D4E  302E 0008                move.w     D0, [A6 + 0x8]
00005D52  D0AD C924                add.l      D0, [A5 - 0x36DC]
00005D56  2840                     movea.l    A4, D0
00005D58  70F0                     moveq.l    D0, 0xFFFFFFF0
00005D5A  C014                     and.b      D0, [A4]
00005D5C  802E 000B                or.b       D0, [A6 + 0xB]
00005D60  1880                     move.b     [A4], D0
00005D62  285F                     movea.l    A4, [A7]+
00005D64  4E5E                     unlink     A6
00005D66  4E75                     rts
export_236:
fn00005D68:
00005D68  4E56 0000                link       A6, 0
00005D6C  2F07                     move.l     -[A7], D7
00005D6E  2F3C 0000 10CA           move.l     -[A7], 0x10CA
00005D74  3F2E 0008                move.w     -[A7], [A6 + 0x8]
00005D78  4267                     clr.w      -[A7]
00005D7A  70FF                     moveq.l    D0, 0xFFFFFFFF
00005D7C  D06D C922                add.w      D0, [A5 - 0x36DE]
00005D80  3F00                     move.w     -[A7], D0
00005D82  4EAD 09B2                jsr        [A5 + 0x9B2 /* export_306, CODE:5 @ 00003464 */]
00005D86  7E7F                     moveq.l    D7, 0x7F
00005D88  CE6E 000A                and.w      D7, [A6 + 0xA]
00005D8C  2F3C 0000 10EE           move.l     -[A7], 0x10EE
00005D92  3F07                     move.w     -[A7], D7
00005D94  2F3C 0020 0001           move.l     -[A7], 0x200001
00005D9A  4EAD 09B2                jsr        [A5 + 0x9B2 /* export_306, CODE:5 @ 00003464 */]
00005D9E  7000                     moveq.l    D0, 0x00
00005DA0  302E 0008                move.w     D0, [A6 + 0x8]
00005DA4  72FF                     moveq.l    D1, 0xFFFFFFFF
00005DA6  D247                     add.w      D1, D7
00005DA8  7400                     moveq.l    D2, 0x00
00005DAA  3401                     move.w     D2, D1
00005DAC  2035 0D25 C928           move.l     D0, [[A5 - 0x36D8] + D0 * 4]
00005DB2  C0B5 2D20 B072           and.l      D0, [A5 - 0x4F8E + D2 * 4]
00005DB8  56C0                     sne        D0
00005DBA  4400                     neg.b      D0
00005DBC  49C0                     lea.l      A4, D0
00005DBE  2E1F                     move.l     D7, [A7]+
00005DC0  4E5E                     unlink     A6
00005DC2  4E75                     rts
export_237:
00005DC4  4E56 FFFE                link       A6, -0x0002
00005DC8  2F06                     move.l     -[A7], D6
00005DCA  2F3C 0000 1110           move.l     -[A7], 0x1110
00005DD0  3F2E 0008                move.w     -[A7], [A6 + 0x8]
00005DD4  4267                     clr.w      -[A7]
00005DD6  70FF                     moveq.l    D0, 0xFFFFFFFF
00005DD8  D06D C922                add.w      D0, [A5 - 0x36DE]
00005DDC  3F00                     move.w     -[A7], D0
00005DDE  4EAD 09B2                jsr        [A5 + 0x9B2 /* export_306, CODE:5 @ 00003464 */]
00005DE2  7C7F                     moveq.l    D6, 0x7F
00005DE4  CC6E 000A                and.w      D6, [A6 + 0xA]
00005DE8  2F3C 0000 1134           move.l     -[A7], 0x1134
00005DEE  3F06                     move.w     -[A7], D6
00005DF0  2F3C 0020 0001           move.l     -[A7], 0x200001
00005DF6  4EAD 09B2                jsr        [A5 + 0x9B2 /* export_306, CODE:5 @ 00003464 */]
00005DFA  4A6E 000C                tst.w      [A6 + 0xC]
00005DFE  671C                     beq        +0x1E /* 00005E1C */
00005E00  70FF                     moveq.l    D0, 0xFFFFFFFF
00005E02  D046                     add.w      D0, D6
00005E04  7200                     moveq.l    D1, 0x00
00005E06  3200                     move.w     D1, D0
00005E08  7000                     moveq.l    D0, 0x00
00005E0A  302E 0008                move.w     D0, [A6 + 0x8]
00005E0E  2235 1D20 B072           move.l     D1, [A5 - 0x4F8E + D1 * 4]
00005E14  83B5 0D25 C928           or.l       [[A5 - 0x36D8] + D0 * 4], D1
00005E1A  601E                     bra        +0x20 /* 00005E3A */
label00005E1C:
00005E1C  70FF                     moveq.l    D0, 0xFFFFFFFF
00005E1E  D046                     add.w      D0, D6
00005E20  7200                     moveq.l    D1, 0x00
00005E22  3200                     move.w     D1, D0
00005E24  2235 1D20 B072           move.l     D1, [A5 - 0x4F8E + D1 * 4]
00005E2A  70FF                     moveq.l    D0, 0xFFFFFFFF
00005E2C  B181                     xor.l      D1, D0
00005E2E  7000                     moveq.l    D0, 0x00
00005E30  302E 0008                move.w     D0, [A6 + 0x8]
00005E34  C3B5 0D25 C928           and.l      [[A5 - 0x36D8] + D0 * 4], D1
label00005E3A:
00005E3A  2C1F                     move.l     D6, [A7]+
00005E3C  4E5E                     unlink     A6
00005E3E  4E75                     rts
fn00005E40:
00005E40  2F07                     move.l     -[A7], D7
00005E42  7E01                     moveq.l    D7, 0x01
00005E44  6012                     bra        +0x14 /* 00005E58 */
label00005E46:
00005E46  7000                     moveq.l    D0, 0x00
00005E48  3007                     move.w     D0, D7
00005E4A  4A75 0B20 C79E           tst.w      [A5 - 0x3862 + D0 * 2]
00005E50  6604                     bne        +0x6 /* 00005E56 */
00005E52  3007                     move.w     D0, D7
00005E54  6018                     bra        +0x1A /* 00005E6E */
label00005E56:
00005E56  5247                     addq.w     D7, 1
label00005E58:
00005E58  BE6D B110                cmp.w      D7, [A5 - 0x4EF0]
00005E5C  65E8                     bcs        -0x16 /* 00005E46 */
00005E5E  3F2D B110                move.w     -[A7], [A5 - 0x4EF0]
00005E62  2F3C 0000 1156           move.l     -[A7], 0x1156
00005E68  4EAD 0A42                jsr        [A5 + 0xA42 /* export_324, CODE:5 @ 000034B4 */]
00005E6C  5C8F                     addq.l     A7, 6
label00005E6E:
00005E6E  2E1F                     move.l     D7, [A7]+
00005E70  4E75                     rts
fn00005E72:
00005E72  2F07                     move.l     -[A7], D7
00005E74  7E01                     moveq.l    D7, 0x01
00005E76  6012                     bra        +0x14 /* 00005E8A */
label00005E78:
00005E78  7000                     moveq.l    D0, 0x00
00005E7A  3007                     move.w     D0, D7
00005E7C  4AB5 0D25 B19A           tst.l      [[A5 - 0x4E66] + D0 * 4]
00005E82  6604                     bne        +0x6 /* 00005E88 */
00005E84  3007                     move.w     D0, D7
00005E86  6018                     bra        +0x1A /* 00005EA0 */
label00005E88:
00005E88  5247                     addq.w     D7, 1
label00005E8A:
00005E8A  BE6D B120                cmp.w      D7, [A5 - 0x4EE0]
00005E8E  65E8                     bcs        -0x16 /* 00005E78 */
00005E90  3F2D B120                move.w     -[A7], [A5 - 0x4EE0]
00005E94  2F3C 0000 1174           move.l     -[A7], 0x1174
00005E9A  4EAD 0A42                jsr        [A5 + 0xA42 /* export_324, CODE:5 @ 000034B4 */]
00005E9E  5C8F                     addq.l     A7, 6
label00005EA0:
00005EA0  2E1F                     move.l     D7, [A7]+
00005EA2  4E75                     rts
export_238:
00005EA4  4E56 0000                link       A6, 0
00005EA8  48E7 1F00                movem.l    -[A7], D3,D4,D5,D6,D7
00005EAC  3E2E 0008                move.w     D7, [A6 + 0x8]
00005EB0  3C2E 000A                move.w     D6, [A6 + 0xA]
00005EB4  BE6D C93C                cmp.w      D7, [A5 - 0x36C4]
00005EB8  623E                     bhi        +0x40 /* 00005EF8 */
00005EBA  BC6D C93C                cmp.w      D6, [A5 - 0x36C4]
00005EBE  6238                     bhi        +0x3A /* 00005EF8 */
00005EC0  7000                     moveq.l    D0, 0x00
00005EC2  3007                     move.w     D0, D7
00005EC4  7200                     moveq.l    D1, 0x00
00005EC6  3206                     move.w     D1, D6
00005EC8  1235 1920 D395           move.b     D1, [A5 - 0x2C6B + D1]
00005ECE  B235 0920 D395           cmp.b      D1, [A5 - 0x2C6B + D0]
00005ED4  6622                     bne        +0x24 /* 00005EF8 */
00005ED6  7000                     moveq.l    D0, 0x00
00005ED8  3007                     move.w     D0, D7
00005EDA  4A35 0920 D395           tst.b      [A5 - 0x2C6B + D0]
00005EE0  6716                     beq        +0x18 /* 00005EF8 */
00005EE2  7000                     moveq.l    D0, 0x00
00005EE4  3007                     move.w     D0, D7
00005EE6  1035 0920 D395           move.b     D0, [A5 - 0x2C6B + D0]
00005EEC  B02D B2D6                cmp.b      D0, [A5 - 0x4D2A]
00005EF0  6706                     beq        +0x8 /* 00005EF8 */
00005EF2  303C 00FF                move.w     D0, 0xFF
00005EF6  607A                     bra        +0x7C /* 00005F72 */
label00005EF8:
00005EF8  3F07                     move.w     -[A7], D7
00005EFA  4EBA 02E6                jsr        [PC + 0x2E6 /* 000061E2 */]
00005EFE  5240                     addq.w     D0, 1
00005F00  548F                     addq.l     A7, 2
00005F02  6606                     bne        +0x8 /* 00005F0A */
00005F04  303C 00FF                move.w     D0, 0xFF
00005F08  6068                     bra        +0x6A /* 00005F72 */
label00005F0A:
00005F0A  3A2D ECAC                move.w     D5, [A5 - 0x1354]
00005F0E  382D ECAE                move.w     D4, [A5 - 0x1352]
00005F12  3F06                     move.w     -[A7], D6
00005F14  4EBA 02CC                jsr        [PC + 0x2CC /* 000061E2 */]
00005F18  5240                     addq.w     D0, 1
00005F1A  548F                     addq.l     A7, 2
00005F1C  6606                     bne        +0x8 /* 00005F24 */
00005F1E  303C 00FF                move.w     D0, 0xFF
00005F22  604E                     bra        +0x50 /* 00005F72 */
label00005F24:
00005F24  BE6D C93C                cmp.w      D7, [A5 - 0x36C4]
00005F28  641C                     bcc        +0x1E /* 00005F46 */
00005F2A  3F2D ECAE                move.w     -[A7], [A5 - 0x1352]
00005F2E  3F2D ECAC                move.w     -[A7], [A5 - 0x1354]
00005F32  3F07                     move.w     -[A7], D7
00005F34  4EAD 0532                jsr        [A5 + 0x532 /* export_162, CODE:3 @ 00000B66 */]
00005F38  3B6D ECF8 ECAC           move.w     [A5 - 0x1354], [A5 - 0x1308]
00005F3E  3B6D ECFA ECAE           move.w     [A5 - 0x1352], [A5 - 0x1306]
00005F44  5C8F                     addq.l     A7, 6
label00005F46:
00005F46  3E2D ECAC                move.w     D7, [A5 - 0x1354]
00005F4A  3C2D ECAE                move.w     D6, [A5 - 0x1352]
00005F4E  3005                     move.w     D0, D5
00005F50  9047                     sub.w      D0, D7
00005F52  3F00                     move.w     -[A7], D0
00005F54  4EAD 0C2A                jsr        [A5 + 0xC2A /* export_385, CODE:7 @ 0000028C */]
00005F58  3600                     move.w     D3, D0
00005F5A  3004                     move.w     D0, D4
00005F5C  9046                     sub.w      D0, D6
00005F5E  3E80                     move.w     [A7], D0
00005F60  4EAD 0C2A                jsr        [A5 + 0xC2A /* export_385, CODE:7 @ 0000028C */]
00005F64  3E00                     move.w     D7, D0
00005F66  BE43                     cmp.w      D7, D3
00005F68  548F                     addq.l     A7, 2
00005F6A  6C04                     bge        +0x6 /* 00005F70 */
00005F6C  3003                     move.w     D0, D3
00005F6E  6002                     bra        +0x4 /* 00005F72 */
label00005F70:
00005F70  3007                     move.w     D0, D7
label00005F72:
00005F72  4CDF 00F8                movem.l    D3,D4,D5,D6,D7, [A7]+
00005F76  4E5E                     unlink     A6
00005F78  4E75                     rts
fn00005F7A:
00005F7A  4E56 0000                link       A6, 0
00005F7E  2F0C                     move.l     -[A7], A4
00005F80  3F2E 0008                move.w     -[A7], [A6 + 0x8]
00005F84  3F3C 0009                move.w     -[A7], 0x9 /* '\t' */
00005F88  4EAD 03E2                jsr        [A5 + 0x3E2 /* export_120, CODE:2 @ 00003CEE */]
00005F8C  2840                     movea.l    A4, D0
00005F8E  200C                     move.l     D0, A4
00005F90  588F                     addq.l     A7, 4
00005F92  6608                     bne        +0xA /* 00005F9C */
00005F94  41ED A3D6                lea.l      A0, [A5 - 0x5C2A]
00005F98  2008                     move.l     D0, A0
00005F9A  6002                     bra        +0x4 /* 00005F9E */
label00005F9C:
00005F9C  200C                     move.l     D0, A4
label00005F9E:
00005F9E  285F                     movea.l    A4, [A7]+
00005FA0  4E5E                     unlink     A6
00005FA2  4E75                     rts
export_230:
fn00005FA4:
00005FA4  4E56 FFFE                link       A6, -0x0002
00005FA8  2F0C                     move.l     -[A7], A4
00005FAA  302E 0008                move.w     D0, [A6 + 0x8]
00005FAE  B06D C93C                cmp.w      D0, [A5 - 0x36C4]
00005FB2  620A                     bhi        +0xC /* 00005FBE */
00005FB4  3F2E 0008                move.w     -[A7], [A6 + 0x8]
00005FB8  4EBA FFC0                jsr        [PC - 0x40 /* 00005F7A */]
00005FBC  6026                     bra        +0x28 /* 00005FE4 */
label00005FBE:
00005FBE  3F2E 0008                move.w     -[A7], [A6 + 0x8]
00005FC2  4EBA 008E                jsr        [PC + 0x8E /* 00006052 */]
00005FC6  2840                     movea.l    A4, D0
00005FC8  200C                     move.l     D0, A4
00005FCA  548F                     addq.l     A7, 2
00005FCC  6608                     bne        +0xA /* 00005FD6 */
00005FCE  41ED A3D6                lea.l      A0, [A5 - 0x5C2A]
00005FD2  2008                     move.l     D0, A0
00005FD4  600E                     bra        +0x10 /* 00005FE4 */
label00005FD6:
00005FD6  2F0C                     move.l     -[A7], A4
00005FD8  2F3C 414E 424F           move.l     -[A7], 0x414E424F /* 'ANBO' */
00005FDE  4EAD 051A                jsr        [A5 + 0x51A /* export_159, CODE:3 @ 000009FA */]
00005FE2  5080                     addq.l     D0, 8
label00005FE4:
00005FE4  286E FFFA                movea.l    A4, [A6 - 0x6]
00005FE8  4E5E                     unlink     A6
00005FEA  4E75                     rts
export_229:
00005FEC  4E56 0000                link       A6, 0
00005FF0  48E7 0108                movem.l    -[A7], D7,A4
00005FF4  7000                     moveq.l    D0, 0x00
00005FF6  302E 0008                move.w     D0, [A6 + 0x8]
00005FFA  7E00                     moveq.l    D7, 0x00
00005FFC  1E35 0925 C924           move.b     D7, [[A5 - 0x36DC] + D0]
00006002  0247 000F                andi.w     D7, 0xF
00006006  0C47 000F                cmpi.w     D7, 0xF
0000600A  6704                     beq        +0x6 /* 00006010 */
0000600C  7000                     moveq.l    D0, 0x00
0000600E  603A                     bra        +0x3C /* 0000604A */
label00006010:
00006010  7E00                     moveq.l    D7, 0x00
00006012  1E2D B2D8                move.b     D7, [A5 - 0x4D28]
00006016  7018                     moveq.l    D0, 0x18
00006018  C1C7                     muls.w     D0, D7
0000601A  49ED B2DA                lea.l      A4, [A5 - 0x4D26]
0000601E  D08C                     add.l      D0, A4
00006020  2840                     movea.l    A4, D0
00006022  6020                     bra        +0x22 /* 00006044 */
label00006024:
00006024  302C 000C                move.w     D0, [A4 + 0xC]
00006028  B06E 0008                cmp.w      D0, [A6 + 0x8]
0000602C  6610                     bne        +0x12 /* 0000603E */
0000602E  4A2C 0016                tst.b      [A4 + 0x16]
00006032  6704                     beq        +0x6 /* 00006038 */
00006034  7008                     moveq.l    D0, 0x08
00006036  6012                     bra        +0x14 /* 0000604A */
label00006038:
00006038  202C 0004                move.l     D0, [A4 + 0x4]
0000603C  600C                     bra        +0xE /* 0000604A */
label0000603E:
0000603E  5347                     subq.w     D7, 1
00006040  49EC FFE8                lea.l      A4, [A4 - 0x18]
label00006044:
00006044  4A47                     tst.w      D7
00006046  6EDC                     bgt        -0x22 /* 00006024 */
00006048  7000                     moveq.l    D0, 0x00
label0000604A:
0000604A  4CDF 1080                movem.l    D7,A4, [A7]+
0000604E  4E5E                     unlink     A6
00006050  4E75                     rts
fn00006052:
00006052  4E56 0000                link       A6, 0
00006056  48E7 0308                movem.l    -[A7], D6,D7,A4
0000605A  3C2E 0008                move.w     D6, [A6 + 0x8]
0000605E  7000                     moveq.l    D0, 0x00
00006060  3006                     move.w     D0, D6
00006062  7E00                     moveq.l    D7, 0x00
00006064  1E35 0925 C924           move.b     D7, [[A5 - 0x36DC] + D0]
0000606A  0247 000F                andi.w     D7, 0xF
0000606E  0C47 000F                cmpi.w     D7, 0xF
00006072  6724                     beq        +0x26 /* 00006098 */
00006074  7E00                     moveq.l    D7, 0x00
00006076  49ED C79E                lea.l      A4, [A5 - 0x3862]
0000607A  6014                     bra        +0x16 /* 00006090 */
label0000607C:
0000607C  BC54                     cmp.w      D6, [A4]
0000607E  660C                     bne        +0xE /* 0000608C */
00006080  3F07                     move.w     -[A7], D7
00006082  3F3C 0005                move.w     -[A7], 0x5
00006086  4EAD 03E2                jsr        [A5 + 0x3E2 /* export_120, CODE:2 @ 00003CEE */]
0000608A  6062                     bra        +0x64 /* 000060EE */
label0000608C:
0000608C  5247                     addq.w     D7, 1
0000608E  548C                     addq.l     A4, 2
label00006090:
00006090  BE6D B110                cmp.w      D7, [A5 - 0x4EF0]
00006094  6DE6                     blt        -0x18 /* 0000607C */
00006096  6054                     bra        +0x56 /* 000060EC */
label00006098:
00006098  7E00                     moveq.l    D7, 0x00
0000609A  1E2D B2D8                move.b     D7, [A5 - 0x4D28]
0000609E  7018                     moveq.l    D0, 0x18
000060A0  C1C7                     muls.w     D0, D7
000060A2  49ED B2DA                lea.l      A4, [A5 - 0x4D26]
000060A6  D08C                     add.l      D0, A4
000060A8  2840                     movea.l    A4, D0
000060AA  603C                     bra        +0x3E /* 000060E8 */
label000060AC:
000060AC  BC6C 000C                cmp.w      D6, [A4 + 0xC]
000060B0  6630                     bne        +0x32 /* 000060E2 */
000060B2  4A2C 0016                tst.b      [A4 + 0x16]
000060B6  6714                     beq        +0x16 /* 000060CC */
000060B8  7000                     moveq.l    D0, 0x00
000060BA  102C 0016                move.b     D0, [A4 + 0x16]
000060BE  3F00                     move.w     -[A7], D0
000060C0  3F3C 000D                move.w     -[A7], 0xD /* '\r' */
000060C4  4EAD 03E2                jsr        [A5 + 0x3E2 /* export_120, CODE:2 @ 00003CEE */]
000060C8  5080                     addq.l     D0, 8
000060CA  6022                     bra        +0x24 /* 000060EE */
label000060CC:
000060CC  7000                     moveq.l    D0, 0x00
000060CE  102D B2D7                move.b     D0, [A5 - 0x4D29]
000060D2  3F00                     move.w     -[A7], D0
000060D4  3F3C 0001                move.w     -[A7], 0x1
000060D8  4EAD 03E2                jsr        [A5 + 0x3E2 /* export_120, CODE:2 @ 00003CEE */]
000060DC  D0AC 0004                add.l      D0, [A4 + 0x4]
000060E0  600C                     bra        +0xE /* 000060EE */
label000060E2:
000060E2  5347                     subq.w     D7, 1
000060E4  49EC FFE8                lea.l      A4, [A4 - 0x18]
label000060E8:
000060E8  4A47                     tst.w      D7
000060EA  6EC0                     bgt        -0x3E /* 000060AC */
label000060EC:
000060EC  7000                     moveq.l    D0, 0x00
label000060EE:
000060EE  4CEE 10C0 FFF4           movem.l    D6,D7,A4, [A6 - 0xC]
000060F4  4E5E                     unlink     A6
000060F6  4E75                     rts
export_239:
fn000060F8:
000060F8  4E56 0000                link       A6, 0
000060FC  48E7 0308                movem.l    -[A7], D6,D7,A4
00006100  3E2E 0008                move.w     D7, [A6 + 0x8]
00006104  7000                     moveq.l    D0, 0x00
00006106  3007                     move.w     D0, D7
00006108  7200                     moveq.l    D1, 0x00
0000610A  1235 0925 C924           move.b     D1, [[A5 - 0x36DC] + D0]
00006110  0241 000F                andi.w     D1, 0xF
00006114  0C41 000F                cmpi.w     D1, 0xF
00006118  671C                     beq        +0x1E /* 00006136 */
0000611A  7C00                     moveq.l    D6, 0x00
0000611C  49ED C79E                lea.l      A4, [A5 - 0x3862]
00006120  600C                     bra        +0xE /* 0000612E */
label00006122:
00006122  BE54                     cmp.w      D7, [A4]
00006124  6604                     bne        +0x6 /* 0000612A */
00006126  3006                     move.w     D0, D6
00006128  6036                     bra        +0x38 /* 00006160 */
label0000612A:
0000612A  5246                     addq.w     D6, 1
0000612C  548C                     addq.l     A4, 2
label0000612E:
0000612E  BC6D B110                cmp.w      D6, [A5 - 0x4EF0]
00006132  6DEE                     blt        -0x10 /* 00006122 */
00006134  6028                     bra        +0x2A /* 0000615E */
label00006136:
00006136  7C00                     moveq.l    D6, 0x00
00006138  1C2D B2D8                move.b     D6, [A5 - 0x4D28]
0000613C  7018                     moveq.l    D0, 0x18
0000613E  C1C6                     muls.w     D0, D6
00006140  49ED B2DA                lea.l      A4, [A5 - 0x4D26]
00006144  D08C                     add.l      D0, A4
00006146  2840                     movea.l    A4, D0
00006148  6010                     bra        +0x12 /* 0000615A */
label0000614A:
0000614A  BE6C 000C                cmp.w      D7, [A4 + 0xC]
0000614E  6604                     bne        +0x6 /* 00006154 */
00006150  3006                     move.w     D0, D6
00006152  600C                     bra        +0xE /* 00006160 */
label00006154:
00006154  5346                     subq.w     D6, 1
00006156  49EC FFE8                lea.l      A4, [A4 - 0x18]
label0000615A:
0000615A  4A46                     tst.w      D6
0000615C  6EEC                     bgt        -0x12 /* 0000614A */
label0000615E:
0000615E  70FF                     moveq.l    D0, 0xFFFFFFFF
label00006160:
00006160  4CDF 10C0                movem.l    D6,D7,A4, [A7]+
00006164  4E5E                     unlink     A6
00006166  4E75                     rts
export_240:
fn00006168:
00006168  4E56 0000                link       A6, 0
0000616C  48E7 0308                movem.l    -[A7], D6,D7,A4
00006170  3E2E 0008                move.w     D7, [A6 + 0x8]
00006174  7000                     moveq.l    D0, 0x00
00006176  3007                     move.w     D0, D7
00006178  7200                     moveq.l    D1, 0x00
0000617A  1235 0925 C924           move.b     D1, [[A5 - 0x36DC] + D0]
00006180  0241 000F                andi.w     D1, 0xF
00006184  0C41 000F                cmpi.w     D1, 0xF
00006188  671C                     beq        +0x1E /* 000061A6 */
0000618A  7C00                     moveq.l    D6, 0x00
0000618C  49ED C79E                lea.l      A4, [A5 - 0x3862]
00006190  600C                     bra        +0xE /* 0000619E */
label00006192:
00006192  BE54                     cmp.w      D7, [A4]
00006194  6604                     bne        +0x6 /* 0000619A */
00006196  7000                     moveq.l    D0, 0x00
00006198  6040                     bra        +0x42 /* 000061DA */
label0000619A:
0000619A  5246                     addq.w     D6, 1
0000619C  548C                     addq.l     A4, 2
label0000619E:
0000619E  BC6D B110                cmp.w      D6, [A5 - 0x4EF0]
000061A2  6DEE                     blt        -0x10 /* 00006192 */
000061A4  6032                     bra        +0x34 /* 000061D8 */
label000061A6:
000061A6  7C00                     moveq.l    D6, 0x00
000061A8  1C2D B2D8                move.b     D6, [A5 - 0x4D28]
000061AC  7018                     moveq.l    D0, 0x18
000061AE  C1C6                     muls.w     D0, D6
000061B0  49ED B2DA                lea.l      A4, [A5 - 0x4D26]
000061B4  D08C                     add.l      D0, A4
000061B6  2840                     movea.l    A4, D0
000061B8  601A                     bra        +0x1C /* 000061D4 */
label000061BA:
000061BA  BE6C 000C                cmp.w      D7, [A4 + 0xC]
000061BE  660E                     bne        +0x10 /* 000061CE */
000061C0  4A2C 0016                tst.b      [A4 + 0x16]
000061C4  6704                     beq        +0x6 /* 000061CA */
000061C6  7004                     moveq.l    D0, 0x04
000061C8  6010                     bra        +0x12 /* 000061DA */
label000061CA:
000061CA  7001                     moveq.l    D0, 0x01
000061CC  600C                     bra        +0xE /* 000061DA */
label000061CE:
000061CE  5346                     subq.w     D6, 1
000061D0  49EC FFE8                lea.l      A4, [A4 - 0x18]
label000061D4:
000061D4  4A46                     tst.w      D6
000061D6  6EE2                     bgt        -0x1C /* 000061BA */
label000061D8:
000061D8  70FF                     moveq.l    D0, 0xFFFFFFFF
label000061DA:
000061DA  4CDF 10C0                movem.l    D6,D7,A4, [A7]+
000061DE  4E5E                     unlink     A6
000061E0  4E75                     rts
export_241:
fn000061E2:
000061E2  4E56 0000                link       A6, 0
000061E6  48E7 0300                movem.l    -[A7], D6,D7
000061EA  3E2E 0008                move.w     D7, [A6 + 0x8]
000061EE  BE6D C93C                cmp.w      D7, [A5 - 0x36C4]
000061F2  6208                     bhi        +0xA /* 000061FC */
000061F4  3F07                     move.w     -[A7], D7
000061F6  4EBA 0090                jsr        [PC + 0x90 /* 00006288 */]
000061FA  6034                     bra        +0x36 /* 00006230 */
label000061FC:
000061FC  3F07                     move.w     -[A7], D7
000061FE  4EBA FF68                jsr        [PC - 0x98 /* 00006168 */]
00006202  3C00                     move.w     D6, D0
00006204  5240                     addq.w     D0, 1
00006206  548F                     addq.l     A7, 2
00006208  6604                     bne        +0x6 /* 0000620E */
0000620A  70FF                     moveq.l    D0, 0xFFFFFFFF
0000620C  6022                     bra        +0x24 /* 00006230 */
label0000620E:
0000620E  4A46                     tst.w      D6
00006210  6618                     bne        +0x1A /* 0000622A */
00006212  7000                     moveq.l    D0, 0x00
00006214  3007                     move.w     D0, D7
00006216  7200                     moveq.l    D1, 0x00
00006218  1235 0925 C924           move.b     D1, [[A5 - 0x36DC] + D0]
0000621E  0241 000F                andi.w     D1, 0xF
00006222  3F01                     move.w     -[A7], D1
00006224  4EBA 0062                jsr        [PC + 0x62 /* 00006288 */]
00006228  6006                     bra        +0x8 /* 00006230 */
label0000622A:
0000622A  3F07                     move.w     -[A7], D7
0000622C  4EBA 000C                jsr        [PC + 0xC /* 0000623A */]
label00006230:
00006230  4CEE 00C0 FFF8           movem.l    D6,D7, [A6 - 0x8]
00006236  4E5E                     unlink     A6
00006238  4E75                     rts
export_242:
fn0000623A:
0000623A  4E56 0000                link       A6, 0
0000623E  48E7 0108                movem.l    -[A7], D7,A4
00006242  3F2E 0008                move.w     -[A7], [A6 + 0x8]
00006246  4EBA FEB0                jsr        [PC - 0x150 /* 000060F8 */]
0000624A  3E00                     move.w     D7, D0
0000624C  7018                     moveq.l    D0, 0x18
0000624E  C0C7                     mulu.w     D0, D7
00006250  49ED B2DA                lea.l      A4, [A5 - 0x4D26]
00006254  D08C                     add.l      D0, A4
00006256  2840                     movea.l    A4, D0
00006258  3EAC 000A                move.w     [A7], [A4 + 0xA]
0000625C  3F2C 0008                move.w     -[A7], [A4 + 0x8]
00006260  4267                     clr.w      -[A7]
00006262  4EAD 0532                jsr        [A5 + 0x532 /* export_162, CODE:3 @ 00000B66 */]
00006266  3B6D ECF8 ECAC           move.w     [A5 - 0x1354], [A5 - 0x1308]
0000626C  3B6D ECFA ECAE           move.w     [A5 - 0x1352], [A5 - 0x1306]
00006272  7003                     moveq.l    D0, 0x03
00006274  C02C 0012                and.b      D0, [A4 + 0x12]
00006278  1B40 ECFD                move.b     [A5 - 0x1303], D0
0000627C  7000                     moveq.l    D0, 0x00
0000627E  4CEE 1080 FFF8           movem.l    D7,A4, [A6 - 0x8]
00006284  4E5E                     unlink     A6
00006286  4E75                     rts
fn00006288:
00006288  4E56 0000                link       A6, 0
0000628C  2F0C                     move.l     -[A7], A4
0000628E  7000                     moveq.l    D0, 0x00
00006290  302E 0008                move.w     D0, [A6 + 0x8]
00006294  1035 0920 D395           move.b     D0, [A5 - 0x2C6B + D0]
0000629A  B02D B2D6                cmp.b      D0, [A5 - 0x4D2A]
0000629E  6704                     beq        +0x6 /* 000062A4 */
000062A0  70FF                     moveq.l    D0, 0xFFFFFFFF
000062A2  6020                     bra        +0x22 /* 000062C4 */
label000062A4:
000062A4  7000                     moveq.l    D0, 0x00
000062A6  302E 0008                move.w     D0, [A6 + 0x8]
000062AA  D080                     add.l      D0, D0
000062AC  2840                     movea.l    A4, D0
000062AE  41ED D3B0                lea.l      A0, [A5 - 0x2C50]
000062B2  D1CC                     add.l      A0, A4
000062B4  3B50 ECAC                move.w     [A5 - 0x1354], [A0]
000062B8  41ED D3CA                lea.l      A0, [A5 - 0x2C36]
000062BC  D1CC                     add.l      A0, A4
000062BE  3B50 ECAE                move.w     [A5 - 0x1352], [A0]
000062C2  7000                     moveq.l    D0, 0x00
label000062C4:
000062C4  285F                     movea.l    A4, [A7]+
000062C6  4E5E                     unlink     A6
000062C8  4E75                     rts
export_243:
000062CA  4E56 FFFE                link       A6, -0x0002
000062CE  48E7 0F18                movem.l    -[A7], D4,D5,D6,D7,A3,A4
000062D2  3C2E 0008                move.w     D6, [A6 + 0x8]
000062D6  3E2E 000A                move.w     D7, [A6 + 0xA]
000062DA  3F07                     move.w     -[A7], D7
000062DC  4EBA FE8A                jsr        [PC - 0x176 /* 00006168 */]
000062E0  5940                     subq.w     D0, 4
000062E2  548F                     addq.l     A7, 2
000062E4  660C                     bne        +0xE /* 000062F2 */
000062E6  2F3C 0000 1196           move.l     -[A7], 0x1196
000062EC  4EAD 0A42                jsr        [A5 + 0xA42 /* export_324, CODE:5 @ 000034B4 */]
000062F0  588F                     addq.l     A7, 4
label000062F2:
000062F2  3F06                     move.w     -[A7], D6
000062F4  3F3C 0001                move.w     -[A7], 0x1
000062F8  4EAD 066A                jsr        [A5 + 0x66A /* export_201, CODE:3 @ 00004418 */]
000062FC  3E86                     move.w     [A7], D6
000062FE  3F3C 0001                move.w     -[A7], 0x1
00006302  4EAD 03E2                jsr        [A5 + 0x3E2 /* export_120, CODE:2 @ 00003CEE */]
00006306  2B40 ECC0                move.l     [A5 - 0x1340], D0
0000630A  2E80                     move.l     [A7], D0
0000630C  2F3C 4448 4D52           move.l     -[A7], 0x44484D52 /* 'DHMR' */
00006312  4EAD 051A                jsr        [A5 + 0x51A /* export_159, CODE:3 @ 000009FA */]
00006316  2B40 F7EA                move.l     [A5 - 0x816], D0
0000631A  2040                     movea.l    A0, D0
0000631C  3EA8 000C                move.w     [A7], [A0 + 0xC]
00006320  4EAD 0C22                jsr        [A5 + 0xC22 /* export_384, CODE:6 @ 0000003E */]
00006324  3A00                     move.w     D5, D0
00006326  4A45                     tst.w      D5
00006328  4FEF 000A                lea.l      A7, [A7 + 0xA]
0000632C  660E                     bne        +0x10 /* 0000633C */
0000632E  3F06                     move.w     -[A7], D6
00006330  2F3C 0000 11BC           move.l     -[A7], 0x11BC
00006336  4EAD 0A42                jsr        [A5 + 0xA42 /* export_324, CODE:5 @ 000034B4 */]
0000633A  5C8F                     addq.l     A7, 6
label0000633C:
0000633C  0C45 00C8                cmpi.w     D5, 0xC8
00006340  6316                     bls        +0x18 /* 00006358 */
00006342  3F06                     move.w     -[A7], D6
00006344  3F3C 00C8                move.w     -[A7], 0xC8
00006348  3F05                     move.w     -[A7], D5
0000634A  2F3C 0000 11D8           move.l     -[A7], 0x11D8
00006350  4EAD 0A42                jsr        [A5 + 0xA42 /* export_324, CODE:5 @ 000034B4 */]
00006354  4FEF 000A                lea.l      A7, [A7 + 0xA]
label00006358:
00006358  286D ECC0                movea.l    A4, [A5 - 0x1340]
0000635C  7801                     moveq.l    D4, 0x01
0000635E  6000 008A                bra        +0x8C /* 000063EA */
label00006362:
00006362  2F0C                     move.l     -[A7], A4
00006364  2F3C 4D49 424F           move.l     -[A7], 0x4D49424F /* 'MIBO' */
0000636A  4EAD 051A                jsr        [A5 + 0x51A /* export_159, CODE:3 @ 000009FA */]
0000636E  2640                     movea.l    A3, D0
00006370  200B                     move.l     D0, A3
00006372  508F                     addq.l     A7, 8
00006374  660E                     bne        +0x10 /* 00006384 */
00006376  3F06                     move.w     -[A7], D6
00006378  2F3C 0000 1200           move.l     -[A7], 0x1200
0000637E  4EAD 0A42                jsr        [A5 + 0xA42 /* export_324, CODE:5 @ 000034B4 */]
00006382  5C8F                     addq.l     A7, 6
label00006384:
00006384  2F0B                     move.l     -[A7], A3
00006386  2F3C 4448 4D49           move.l     -[A7], 0x44484D49 /* 'DHMI' */
0000638C  4EAD 0522                jsr        [A5 + 0x522 /* export_160, CODE:3 @ 00000AB0 */]
00006390  2B40 F7E6                move.l     [A5 - 0x81A], D0
00006394  2040                     movea.l    A0, D0
00006396  3EA8 0008                move.w     [A7], [A0 + 0x8]
0000639A  4EAD 0C22                jsr        [A5 + 0xC22 /* export_384, CODE:6 @ 0000003E */]
0000639E  BE40                     cmp.w      D7, D0
000063A0  508F                     addq.l     A7, 8
000063A2  6642                     bne        +0x44 /* 000063E6 */
000063A4  2E0B                     move.l     D7, A3
000063A6  9EAD ECC0                sub.l      D7, [A5 - 0x1340]
000063AA  2A2B 0004                move.l     D5, [A3 + 0x4]
000063AE  2F05                     move.l     -[A7], D5
000063B0  3F2E 000C                move.w     -[A7], [A6 + 0xC]
000063B4  3F3C 0008                move.w     -[A7], 0x8
000063B8  4EAD 03EA                jsr        [A5 + 0x3EA /* export_121, CODE:2 @ 00003D92 */]
000063BC  2840                     movea.l    A4, D0
000063BE  3E86                     move.w     [A7], D6
000063C0  3F3C 0001                move.w     -[A7], 0x1
000063C4  4EAD 03E2                jsr        [A5 + 0x3E2 /* export_120, CODE:2 @ 00003CEE */]
000063C8  D087                     add.l      D0, D7
000063CA  2640                     movea.l    A3, D0
000063CC  3EAE 000C                move.w     [A7], [A6 + 0xC]
000063D0  3F3C 0008                move.w     -[A7], 0x8
000063D4  4EAD 03E2                jsr        [A5 + 0x3E2 /* export_120, CODE:2 @ 00003CEE */]
000063D8  2840                     movea.l    A4, D0
000063DA  3E85                     move.w     [A7], D5
000063DC  2F0B                     move.l     -[A7], A3
000063DE  2F0C                     move.l     -[A7], A4
000063E0  4EAD 0C0A                jsr        [A5 + 0xC0A /* export_381, CODE:6 @ 0000011E */]
000063E4  6018                     bra        +0x1A /* 000063FE */
label000063E6:
000063E6  99CC                     sub.l      A4, A4
000063E8  5244                     addq.w     D4, 1
label000063EA:
000063EA  BA44                     cmp.w      D5, D4
000063EC  6400 FF74                bcc        -0x8A /* 00006362 */
000063F0  3F06                     move.w     -[A7], D6
000063F2  3F07                     move.w     -[A7], D7
000063F4  2F3C 0000 1224           move.l     -[A7], 0x1224
000063FA  4EAD 0A42                jsr        [A5 + 0xA42 /* export_324, CODE:5 @ 000034B4 */]
label000063FE:
000063FE  4CEE 18F0 FFE6           movem.l    D4,D5,D6,D7,A3,A4, [A6 - 0x1A]
00006404  4E5E                     unlink     A6
00006406  4E75                     rts
export_244:
00006408  4E56 FFF8                link       A6, -0x0008
0000640C  48E7 1F18                movem.l    -[A7], D3,D4,D5,D6,D7,A3,A4
00006410  3C2E 0008                move.w     D6, [A6 + 0x8]
00006414  3E2E 000A                move.w     D7, [A6 + 0xA]
00006418  3F07                     move.w     -[A7], D7
0000641A  4EBA FD4C                jsr        [PC - 0x2B4 /* 00006168 */]
0000641E  5940                     subq.w     D0, 4
00006420  548F                     addq.l     A7, 2
00006422  666A                     bne        +0x6C /* 0000648E */
00006424  3F07                     move.w     -[A7], D7
00006426  4EBA FCD0                jsr        [PC - 0x330 /* 000060F8 */]
0000642A  C1FC 0018                muls.w     D0, 0x18
0000642E  7C00                     moveq.l    D6, 0x00
00006430  1C35 0920 B2F0           move.b     D6, [A5 - 0x4D10 + D0]
00006436  3E86                     move.w     [A7], D6
00006438  3F3C 000D                move.w     -[A7], 0xD /* '\r' */
0000643C  4EAD 03E2                jsr        [A5 + 0x3E2 /* export_120, CODE:2 @ 00003CEE */]
00006440  7240                     moveq.l    D1, 0x40
00006442  D280                     add.l      D1, D0
00006444  2841                     movea.l    A4, D1
00006446  2A2C 0004                move.l     D5, [A4 + 0x4]
0000644A  4EBA F9F4                jsr        [PC - 0x60C /* 00005E40 */]
0000644E  3800                     move.w     D4, D0
00006450  3B87 4320 C79E           move.w     [A5 - 0x3862 + D4 * 2], D7
00006456  2E85                     move.l     [A7], D5
00006458  3F04                     move.w     -[A7], D4
0000645A  3F3C 0005                move.w     -[A7], 0x5
0000645E  4EAD 03EA                jsr        [A5 + 0x3EA /* export_121, CODE:2 @ 00003D92 */]
00006462  2640                     movea.l    A3, D0
00006464  3E86                     move.w     [A7], D6
00006466  3F3C 000D                move.w     -[A7], 0xD /* '\r' */
0000646A  4EAD 03E2                jsr        [A5 + 0x3E2 /* export_120, CODE:2 @ 00003CEE */]
0000646E  7240                     moveq.l    D1, 0x40
00006470  D280                     add.l      D1, D0
00006472  2841                     movea.l    A4, D1
00006474  3E84                     move.w     [A7], D4
00006476  3F3C 0005                move.w     -[A7], 0x5
0000647A  4EAD 03E2                jsr        [A5 + 0x3E2 /* export_120, CODE:2 @ 00003CEE */]
0000647E  2640                     movea.l    A3, D0
00006480  3E85                     move.w     [A7], D5
00006482  2F0C                     move.l     -[A7], A4
00006484  2F0B                     move.l     -[A7], A3
00006486  4EAD 0C0A                jsr        [A5 + 0xC0A /* export_381, CODE:6 @ 0000011E */]
0000648A  6000 0114                bra        +0x116 /* 000065A0 */
label0000648E:
0000648E  3F06                     move.w     -[A7], D6
00006490  3F3C 0001                move.w     -[A7], 0x1
00006494  4EAD 066A                jsr        [A5 + 0x66A /* export_201, CODE:3 @ 00004418 */]
00006498  3E86                     move.w     [A7], D6
0000649A  3F3C 0001                move.w     -[A7], 0x1
0000649E  4EAD 03E2                jsr        [A5 + 0x3E2 /* export_120, CODE:2 @ 00003CEE */]
000064A2  2B40 ECC0                move.l     [A5 - 0x1340], D0
000064A6  2E80                     move.l     [A7], D0
000064A8  2F3C 4448 4D52           move.l     -[A7], 0x44484D52 /* 'DHMR' */
000064AE  4EAD 051A                jsr        [A5 + 0x51A /* export_159, CODE:3 @ 000009FA */]
000064B2  2B40 F7EA                move.l     [A5 - 0x816], D0
000064B6  2040                     movea.l    A0, D0
000064B8  3EA8 000C                move.w     [A7], [A0 + 0xC]
000064BC  4EAD 0C22                jsr        [A5 + 0xC22 /* export_384, CODE:6 @ 0000003E */]
000064C0  3A00                     move.w     D5, D0
000064C2  4A45                     tst.w      D5
000064C4  4FEF 000A                lea.l      A7, [A7 + 0xA]
000064C8  6610                     bne        +0x12 /* 000064DA */
000064CA  3F06                     move.w     -[A7], D6
000064CC  3F07                     move.w     -[A7], D7
000064CE  2F3C 0000 1242           move.l     -[A7], 0x1242
000064D4  4EAD 0A42                jsr        [A5 + 0xA42 /* export_324, CODE:5 @ 000034B4 */]
000064D8  508F                     addq.l     A7, 8
label000064DA:
000064DA  0C45 00C8                cmpi.w     D5, 0xC8
000064DE  6312                     bls        +0x14 /* 000064F2 */
000064E0  3F06                     move.w     -[A7], D6
000064E2  3F3C 00C8                move.w     -[A7], 0xC8
000064E6  2F3C 0000 125E           move.l     -[A7], 0x125E
000064EC  4EAD 0A42                jsr        [A5 + 0xA42 /* export_324, CODE:5 @ 000034B4 */]
000064F0  508F                     addq.l     A7, 8
label000064F2:
000064F2  266D ECC0                movea.l    A3, [A5 - 0x1340]
000064F6  7801                     moveq.l    D4, 0x01
000064F8  6000 0092                bra        +0x94 /* 0000658C */
label000064FC:
000064FC  2F0B                     move.l     -[A7], A3
000064FE  2F3C 4443 424F           move.l     -[A7], 0x4443424F /* 'DCBO' */
00006504  4EAD 051A                jsr        [A5 + 0x51A /* export_159, CODE:3 @ 000009FA */]
00006508  2840                     movea.l    A4, D0
0000650A  200C                     move.l     D0, A4
0000650C  508F                     addq.l     A7, 8
0000650E  660E                     bne        +0x10 /* 0000651E */
00006510  3F06                     move.w     -[A7], D6
00006512  2F3C 0000 1282           move.l     -[A7], 0x1282
00006518  4EAD 0A42                jsr        [A5 + 0xA42 /* export_324, CODE:5 @ 000034B4 */]
0000651C  5C8F                     addq.l     A7, 6
label0000651E:
0000651E  2F0C                     move.l     -[A7], A4
00006520  2F3C 4448 4443           move.l     -[A7], 0x44484443 /* 'DHDC' */
00006526  4EAD 0522                jsr        [A5 + 0x522 /* export_160, CODE:3 @ 00000AB0 */]
0000652A  2B40 F7E2                move.l     [A5 - 0x81E], D0
0000652E  2040                     movea.l    A0, D0
00006530  3EA8 0008                move.w     [A7], [A0 + 0x8]
00006534  4EAD 0C22                jsr        [A5 + 0xC22 /* export_384, CODE:6 @ 0000003E */]
00006538  BE40                     cmp.w      D7, D0
0000653A  508F                     addq.l     A7, 8
0000653C  664A                     bne        +0x4C /* 00006588 */
0000653E  260C                     move.l     D3, A4
00006540  96AD ECC0                sub.l      D3, [A5 - 0x1340]
00006544  2A2C 0004                move.l     D5, [A4 + 0x4]
00006548  4EBA F8F6                jsr        [PC - 0x70A /* 00005E40 */]
0000654C  3800                     move.w     D4, D0
0000654E  3B87 4320 C79E           move.w     [A5 - 0x3862 + D4 * 2], D7
00006554  2F05                     move.l     -[A7], D5
00006556  3F04                     move.w     -[A7], D4
00006558  3F3C 0005                move.w     -[A7], 0x5
0000655C  4EAD 03EA                jsr        [A5 + 0x3EA /* export_121, CODE:2 @ 00003D92 */]
00006560  2640                     movea.l    A3, D0
00006562  3E86                     move.w     [A7], D6
00006564  3F3C 0001                move.w     -[A7], 0x1
00006568  4EAD 03E2                jsr        [A5 + 0x3E2 /* export_120, CODE:2 @ 00003CEE */]
0000656C  D083                     add.l      D0, D3
0000656E  2840                     movea.l    A4, D0
00006570  3E84                     move.w     [A7], D4
00006572  3F3C 0005                move.w     -[A7], 0x5
00006576  4EAD 03E2                jsr        [A5 + 0x3E2 /* export_120, CODE:2 @ 00003CEE */]
0000657A  2640                     movea.l    A3, D0
0000657C  3E85                     move.w     [A7], D5
0000657E  2F0C                     move.l     -[A7], A4
00006580  2F0B                     move.l     -[A7], A3
00006582  4EAD 0C0A                jsr        [A5 + 0xC0A /* export_381, CODE:6 @ 0000011E */]
00006586  6018                     bra        +0x1A /* 000065A0 */
label00006588:
00006588  97CB                     sub.l      A3, A3
0000658A  5244                     addq.w     D4, 1
label0000658C:
0000658C  BA44                     cmp.w      D5, D4
0000658E  6400 FF6C                bcc        -0x92 /* 000064FC */
00006592  3F06                     move.w     -[A7], D6
00006594  3F07                     move.w     -[A7], D7
00006596  2F3C 0000 12A4           move.l     -[A7], 0x12A4
0000659C  4EAD 0A42                jsr        [A5 + 0xA42 /* export_324, CODE:5 @ 000034B4 */]
label000065A0:
000065A0  4CEE 18F8 FFDC           movem.l    D3,D4,D5,D6,D7,A3,A4, [A6 - 0x24]
000065A6  4E5E                     unlink     A6
000065A8  4E75                     rts
export_245:
000065AA  4E56 FFF0                link       A6, -0x0010
000065AE  48E7 1F38                movem.l    -[A7], D3,D4,D5,D6,D7,A2,A3,A4
000065B2  3C2E 000A                move.w     D6, [A6 + 0xA]
000065B6  2F3C 0000 12C4           move.l     -[A7], 0x12C4
000065BC  4EAD 0A4A                jsr        [A5 + 0xA4A /* export_325, CODE:5 @ 000034FC */]
000065C0  3E86                     move.w     [A7], D6
000065C2  3F3C 0001                move.w     -[A7], 0x1
000065C6  4EAD 066A                jsr        [A5 + 0x66A /* export_201, CODE:3 @ 00004418 */]
000065CA  3E86                     move.w     [A7], D6
000065CC  3F3C 0001                move.w     -[A7], 0x1
000065D0  4EAD 03E2                jsr        [A5 + 0x3E2 /* export_120, CODE:2 @ 00003CEE */]
000065D4  2B40 ECC0                move.l     [A5 - 0x1340], D0
000065D8  2E80                     move.l     [A7], D0
000065DA  2F3C 4448 4D52           move.l     -[A7], 0x44484D52 /* 'DHMR' */
000065E0  4EAD 051A                jsr        [A5 + 0x51A /* export_159, CODE:3 @ 000009FA */]
000065E4  2B40 F7EA                move.l     [A5 - 0x816], D0
000065E8  2040                     movea.l    A0, D0
000065EA  3EA8 000C                move.w     [A7], [A0 + 0xC]
000065EE  4EAD 0C22                jsr        [A5 + 0xC22 /* export_384, CODE:6 @ 0000003E */]
000065F2  3600                     move.w     D3, D0
000065F4  4A43                     tst.w      D3
000065F6  4FEF 000C                lea.l      A7, [A7 + 0xC]
000065FA  6612                     bne        +0x14 /* 0000660E */
000065FC  3F06                     move.w     -[A7], D6
000065FE  3F2E 0008                move.w     -[A7], [A6 + 0x8]
00006602  2F3C 0000 12E4           move.l     -[A7], 0x12E4
00006608  4EAD 0A42                jsr        [A5 + 0xA42 /* export_324, CODE:5 @ 000034B4 */]
0000660C  508F                     addq.l     A7, 8
label0000660E:
0000660E  0C43 00C8                cmpi.w     D3, 0xC8
00006612  6312                     bls        +0x14 /* 00006626 */
00006614  3F06                     move.w     -[A7], D6
00006616  3F3C 00C8                move.w     -[A7], 0xC8
0000661A  2F3C 0000 1300           move.l     -[A7], 0x1300
00006620  4EAD 0A42                jsr        [A5 + 0xA42 /* export_324, CODE:5 @ 000034B4 */]
00006624  508F                     addq.l     A7, 8
label00006626:
00006626  246D ECC0                movea.l    A2, [A5 - 0x1340]
0000662A  7E01                     moveq.l    D7, 0x01
0000662C  605A                     bra        +0x5C /* 00006688 */
label0000662E:
0000662E  2F0A                     move.l     -[A7], A2
00006630  2F3C 4443 424F           move.l     -[A7], 0x4443424F /* 'DCBO' */
00006636  4EAD 051A                jsr        [A5 + 0x51A /* export_159, CODE:3 @ 000009FA */]
0000663A  2840                     movea.l    A4, D0
0000663C  200C                     move.l     D0, A4
0000663E  508F                     addq.l     A7, 8
00006640  660E                     bne        +0x10 /* 00006650 */
00006642  3F06                     move.w     -[A7], D6
00006644  2F3C 0000 1324           move.l     -[A7], 0x1324
0000664A  4EAD 0A42                jsr        [A5 + 0xA42 /* export_324, CODE:5 @ 000034B4 */]
0000664E  5C8F                     addq.l     A7, 6
label00006650:
00006650  2F0C                     move.l     -[A7], A4
00006652  2F3C 4448 4443           move.l     -[A7], 0x44484443 /* 'DHDC' */
00006658  4EAD 0522                jsr        [A5 + 0x522 /* export_160, CODE:3 @ 00000AB0 */]
0000665C  2B40 F7E2                move.l     [A5 - 0x81E], D0
00006660  2040                     movea.l    A0, D0
00006662  3EA8 0008                move.w     [A7], [A0 + 0x8]
00006666  4EAD 0C22                jsr        [A5 + 0xC22 /* export_384, CODE:6 @ 0000003E */]
0000666A  B06E 0008                cmp.w      D0, [A6 + 0x8]
0000666E  508F                     addq.l     A7, 8
00006670  6612                     bne        +0x14 /* 00006684 */
00006672  200C                     move.l     D0, A4
00006674  90AD ECC0                sub.l      D0, [A5 - 0x1340]
00006678  2D40 FFF6                move.l     [A6 - 0xA], D0
0000667C  282C 0004                move.l     D4, [A4 + 0x4]
00006680  2A04                     move.l     D5, D4
00006682  601A                     bra        +0x1C /* 0000669E */
label00006684:
00006684  95CA                     sub.l      A2, A2
00006686  5247                     addq.w     D7, 1
label00006688:
00006688  B647                     cmp.w      D3, D7
0000668A  64A2                     bcc        -0x5C /* 0000662E */
0000668C  3F06                     move.w     -[A7], D6
0000668E  3F2E 0008                move.w     -[A7], [A6 + 0x8]
00006692  2F3C 0000 1350           move.l     -[A7], 0x1350
00006698  4EAD 0A42                jsr        [A5 + 0xA42 /* export_324, CODE:5 @ 000034B4 */]
0000669C  508F                     addq.l     A7, 8
label0000669E:
0000669E  246D ECC0                movea.l    A2, [A5 - 0x1340]
000066A2  7E01                     moveq.l    D7, 0x01
000066A4  605A                     bra        +0x5C /* 00006700 */
label000066A6:
000066A6  2F0A                     move.l     -[A7], A2
000066A8  2F3C 4D49 424F           move.l     -[A7], 0x4D49424F /* 'MIBO' */
000066AE  4EAD 051A                jsr        [A5 + 0x51A /* export_159, CODE:3 @ 000009FA */]
000066B2  2840                     movea.l    A4, D0
000066B4  200C                     move.l     D0, A4
000066B6  508F                     addq.l     A7, 8
000066B8  660E                     bne        +0x10 /* 000066C8 */
000066BA  3F06                     move.w     -[A7], D6
000066BC  2F3C 0000 1374           move.l     -[A7], 0x1374
000066C2  4EAD 0A42                jsr        [A5 + 0xA42 /* export_324, CODE:5 @ 000034B4 */]
000066C6  5C8F                     addq.l     A7, 6
label000066C8:
000066C8  2F0C                     move.l     -[A7], A4
000066CA  2F3C 4448 4D49           move.l     -[A7], 0x44484D49 /* 'DHMI' */
000066D0  4EAD 0522                jsr        [A5 + 0x522 /* export_160, CODE:3 @ 00000AB0 */]
000066D4  2B40 F7E6                move.l     [A5 - 0x81A], D0
000066D8  2040                     movea.l    A0, D0
000066DA  3EA8 0008                move.w     [A7], [A0 + 0x8]
000066DE  4EAD 0C22                jsr        [A5 + 0xC22 /* export_384, CODE:6 @ 0000003E */]
000066E2  B06E 0008                cmp.w      D0, [A6 + 0x8]
000066E6  508F                     addq.l     A7, 8
000066E8  6612                     bne        +0x14 /* 000066FC */
000066EA  200C                     move.l     D0, A4
000066EC  90AD ECC0                sub.l      D0, [A5 - 0x1340]
000066F0  2D40 FFFC                move.l     [A6 - 0x4], D0
000066F4  282C 0004                move.l     D4, [A4 + 0x4]
000066F8  DA84                     add.l      D5, D4
000066FA  601A                     bra        +0x1C /* 00006716 */
label000066FC:
000066FC  95CA                     sub.l      A2, A2
000066FE  5247                     addq.w     D7, 1
label00006700:
00006700  B647                     cmp.w      D3, D7
00006702  64A2                     bcc        -0x5C /* 000066A6 */
00006704  3F06                     move.w     -[A7], D6
00006706  3F2E 0008                move.w     -[A7], [A6 + 0x8]
0000670A  2F3C 0000 13A0           move.l     -[A7], 0x13A0
00006710  4EAD 0A42                jsr        [A5 + 0xA42 /* export_324, CODE:5 @ 000034B4 */]
00006714  508F                     addq.l     A7, 8
label00006716:
00006716  522D B2D8                addq.b     [A5 - 0x4D28], 1
0000671A  7600                     moveq.l    D3, 0x00
0000671C  162D B2D8                move.b     D3, [A5 - 0x4D28]
00006720  0C43 00C8                cmpi.w     D3, 0xC8
00006724  650C                     bcs        +0xE /* 00006732 */
00006726  2F3C 0000 13C6           move.l     -[A7], 0x13C6
0000672C  4EAD 0A42                jsr        [A5 + 0xA42 /* export_324, CODE:5 @ 000034B4 */]
00006730  588F                     addq.l     A7, 4
label00006732:
00006732  4EBA F73E                jsr        [PC - 0x8C2 /* 00005E72 */]
00006736  3D40 FFF4                move.w     [A6 - 0xC], D0
0000673A  7218                     moveq.l    D1, 0x18
0000673C  C2C3                     mulu.w     D1, D3
0000673E  1B80 1920 B2F0           move.b     [A5 - 0x4D10 + D1], D0
00006744  5085                     addq.l     D5, 8
00006746  2F05                     move.l     -[A7], D5
00006748  3F00                     move.w     -[A7], D0
0000674A  3F3C 000D                move.w     -[A7], 0xD /* '\r' */
0000674E  4EAD 03EA                jsr        [A5 + 0x3EA /* export_121, CODE:2 @ 00003D92 */]
00006752  2640                     movea.l    A3, D0
00006754  26BC 424F 4C46           move.l     [A3], 0x424F4C46 /* 'BOLF' */
0000675A  2745 0004                move.l     [A3 + 0x4], D5
0000675E  3E86                     move.w     [A7], D6
00006760  3F3C 0001                move.w     -[A7], 0x1
00006764  4EAD 03E2                jsr        [A5 + 0x3E2 /* export_120, CODE:2 @ 00003CEE */]
00006768  D0AE FFF6                add.l      D0, [A6 - 0xA]
0000676C  2840                     movea.l    A4, D0
0000676E  282C 0004                move.l     D4, [A4 + 0x4]
00006772  3EAE FFF4                move.w     [A7], [A6 - 0xC]
00006776  3F3C 000D                move.w     -[A7], 0xD /* '\r' */
0000677A  4EAD 03E2                jsr        [A5 + 0x3E2 /* export_120, CODE:2 @ 00003CEE */]
0000677E  2640                     movea.l    A3, D0
00006780  508B                     addq.l     A3, 8
00006782  3E84                     move.w     [A7], D4
00006784  2F0C                     move.l     -[A7], A4
00006786  2F0B                     move.l     -[A7], A3
00006788  4EAD 0C0A                jsr        [A5 + 0xC0A /* export_381, CODE:6 @ 0000011E */]
0000678C  3E86                     move.w     [A7], D6
0000678E  3F3C 0001                move.w     -[A7], 0x1
00006792  4EAD 03E2                jsr        [A5 + 0x3E2 /* export_120, CODE:2 @ 00003CEE */]
00006796  D0AE FFFC                add.l      D0, [A6 - 0x4]
0000679A  2840                     movea.l    A4, D0
0000679C  282C 0004                move.l     D4, [A4 + 0x4]
000067A0  3E84                     move.w     [A7], D4
000067A2  2F0C                     move.l     -[A7], A4
000067A4  2F0B                     move.l     -[A7], A3
000067A6  4EAD 0C0A                jsr        [A5 + 0xC0A /* export_381, CODE:6 @ 0000011E */]
000067AA  3E86                     move.w     [A7], D6
000067AC  3F3C 0001                move.w     -[A7], 0x1
000067B0  4EAD 03E2                jsr        [A5 + 0x3E2 /* export_120, CODE:2 @ 00003CEE */]
000067B4  D0AE FFF6                add.l      D0, [A6 - 0xA]
000067B8  2B40 F7E2                move.l     [A5 - 0x81E], D0
000067BC  2E80                     move.l     [A7], D0
000067BE  2F3C 4448 4443           move.l     -[A7], 0x44484443 /* 'DHDC' */
000067C4  4EAD 051A                jsr        [A5 + 0x51A /* export_159, CODE:3 @ 000009FA */]
000067C8  2B40 F7E2                move.l     [A5 - 0x81E], D0
000067CC  2040                     movea.l    A0, D0
000067CE  3EA8 0008                move.w     [A7], [A0 + 0x8]
000067D2  4EAD 0C22                jsr        [A5 + 0xC22 /* export_384, CODE:6 @ 0000003E */]
000067D6  7218                     moveq.l    D1, 0x18
000067D8  C2C3                     mulu.w     D1, D3
000067DA  3B80 1920 B2E6           move.w     [A5 - 0x4D1A + D1], D0
000067E0  206D F7E2                movea.l    A0, [A5 - 0x81E]
000067E4  7018                     moveq.l    D0, 0x18
000067E6  C0C3                     mulu.w     D0, D3
000067E8  1BA8 000C 0920 B2EA      move.b     [A5 - 0x4D16 + D0], [A0 + 0xC]
000067F0  7018                     moveq.l    D0, 0x18
000067F2  C0C3                     mulu.w     D0, D3
000067F4  1BA8 000D 0920 B2EB      move.b     [A5 - 0x4D15 + D0], [A0 + 0xD]
000067FC  7018                     moveq.l    D0, 0x18
000067FE  C0C3                     mulu.w     D0, D3
00006800  1BA8 000A 0920 B2E8      move.b     [A5 - 0x4D18 + D0], [A0 + 0xA]
00006808  7018                     moveq.l    D0, 0x18
0000680A  C0C3                     mulu.w     D0, D3
0000680C  1BA8 000B 0920 B2E9      move.b     [A5 - 0x4D17 + D0], [A0 + 0xB]
00006814  0C28 0080 000E           cmpi.b     [A0 + 0xE], 0x80
0000681A  4FEF 0024                lea.l      A7, [A7 + 0x24]
0000681E  660E                     bne        +0x10 /* 0000682E */
00006820  7018                     moveq.l    D0, 0x18
00006822  C0C3                     mulu.w     D0, D3
00006824  1BBC 0010 0920 B2EE      move.b     [A5 - 0x4D12 + D0], 0x10
0000682C  6014                     bra        +0x16 /* 00006842 */
label0000682E:
0000682E  206D F7E2                movea.l    A0, [A5 - 0x81E]
00006832  1028 000E                move.b     D0, [A0 + 0xE]
00006836  E908                     lsl        D0.b, 4
00006838  7218                     moveq.l    D1, 0x18
0000683A  C2C3                     mulu.w     D1, D3
0000683C  1B80 1920 B2EE           move.b     [A5 - 0x4D12 + D1], D0
label00006842:
00006842  206D F7E2                movea.l    A0, [A5 - 0x81E]
00006846  7018                     moveq.l    D0, 0x18
00006848  C0C3                     mulu.w     D0, D3
0000684A  1BA8 000F 0920 B2ED      move.b     [A5 - 0x4D13 + D0], [A0 + 0xF]
00006852  3F28 0010                move.w     -[A7], [A0 + 0x10]
00006856  4EAD 0C22                jsr        [A5 + 0xC22 /* export_384, CODE:6 @ 0000003E */]
0000685A  7218                     moveq.l    D1, 0x18
0000685C  C2C3                     mulu.w     D1, D3
0000685E  3B80 1920 B2E2           move.w     [A5 - 0x4D1E + D1], D0
00006864  206D F7E2                movea.l    A0, [A5 - 0x81E]
00006868  3EA8 0012                move.w     [A7], [A0 + 0x12]
0000686C  4EAD 0C22                jsr        [A5 + 0xC22 /* export_384, CODE:6 @ 0000003E */]
00006870  7218                     moveq.l    D1, 0x18
00006872  C2C3                     mulu.w     D1, D3
00006874  3B80 1920 B2E4           move.w     [A5 - 0x4D1C + D1], D0
0000687A  206D F7E2                movea.l    A0, [A5 - 0x81E]
0000687E  7018                     moveq.l    D0, 0x18
00006880  C0C3                     mulu.w     D0, D3
00006882  1BA8 0014 0920 B2EC      move.b     [A5 - 0x4D14 + D0], [A0 + 0x14]
0000688A  7018                     moveq.l    D0, 0x18
0000688C  C0C3                     mulu.w     D0, D3
0000688E  42B5 0920 B2DE           clr.l      [A5 - 0x4D22 + D0]
00006894  7018                     moveq.l    D0, 0x18
00006896  C0C3                     mulu.w     D0, D3
00006898  42B5 0920 B2DA           clr.l      [A5 - 0x4D26 + D0]
0000689E  4CEE 1CF8 FFD0           movem.l    D3,D4,D5,D6,D7,A2,A3,A4, [A6 - 0x30]
000068A4  4E5E                     unlink     A6
000068A6  4E75                     rts
export_246:
000068A8  422D A4E0                clr.b      [A5 - 0x5B20]
000068AC  4E75                     rts
export_247:
000068AE  4E56 0000                link       A6, 0
000068B2  102D A4E0                move.b     D0, [A5 - 0x5B20]
000068B6  522D A4E0                addq.b     [A5 - 0x5B20], 1
000068BA  7200                     moveq.l    D1, 0x00
000068BC  1200                     move.b     D1, D0
000068BE  1BAE 0009 1920 A418      move.b     [A5 - 0x5BE8 + D1], [A6 + 0x9]
000068C6  0C2D 00C8 A4E0           cmpi.b     [A5 - 0x5B20], 0xC8
000068CC  630C                     bls        +0xE /* 000068DA */
000068CE  2F3C 0000 13E7           move.l     -[A7], 0x13E7
000068D4  4EAD 0A42                jsr        [A5 + 0xA42 /* export_324, CODE:5 @ 000034B4 */]
000068D8  588F                     addq.l     A7, 4
label000068DA:
000068DA  4E5E                     unlink     A6
000068DC  4E75                     rts
fn000068DE:
000068DE  48E7 0108                movem.l    -[A7], D7,A4
000068E2  4A2D B2D8                tst.b      [A5 - 0x4D28]
000068E6  672A                     beq        +0x2C /* 00006912 */
000068E8  7E01                     moveq.l    D7, 0x01
000068EA  601C                     bra        +0x1E /* 00006908 */
label000068EC:
000068EC  7018                     moveq.l    D0, 0x18
000068EE  C0C7                     mulu.w     D0, D7
000068F0  49ED B2DA                lea.l      A4, [A5 - 0x4D26]
000068F4  D08C                     add.l      D0, A4
000068F6  2840                     movea.l    A4, D0
000068F8  7000                     moveq.l    D0, 0x00
000068FA  302C 000C                move.w     D0, [A4 + 0xC]
000068FE  1975 0925 C924 0015      move.b     [A4 + 0x15], [[A5 - 0x36DC] + D0]
00006906  5247                     addq.w     D7, 1
label00006908:
00006908  7000                     moveq.l    D0, 0x00
0000690A  102D B2D8                move.b     D0, [A5 - 0x4D28]
0000690E  B047                     cmp.w      D0, D7
00006910  64DA                     bcc        -0x24 /* 000068EC */
label00006912:
00006912  4CDF 1080                movem.l    D7,A4, [A7]+
00006916  4E75                     rts
export_248:
00006918  4E56 0000                link       A6, 0
0000691C  48E7 0700                movem.l    -[A7], D5,D6,D7
00006920  302E 0008                move.w     D0, [A6 + 0x8]
00006924  E648                     lsr        D0.w, 3
00006926  7200                     moveq.l    D1, 0x00
00006928  3200                     move.w     D1, D0
0000692A  3E35 1B20 EDFA           move.w     D7, [A5 - 0x1206 + D1 * 2]
00006930  E8C7 048E                bftst      D7 {18:14}
00006934  674A                     beq        +0x4C /* 00006980 */
00006936  7C01                     moveq.l    D6, 0x01
00006938  6040                     bra        +0x42 /* 0000697A */
label0000693A:
0000693A  7A00                     moveq.l    D5, 0x00
0000693C  3A06                     move.w     D5, D6
0000693E  3007                     move.w     D0, D7
00006940  C075 5B20 B052           and.w      D0, [A5 - 0x4FAE + D5 * 2]
00006946  6730                     beq        +0x32 /* 00006978 */
00006948  3F3C 0020                move.w     -[A7], 0x20 /* ' ' */
0000694C  3F06                     move.w     -[A7], D6
0000694E  4EBA F418                jsr        [PC - 0xBE8 /* 00005D68 */]
00006952  4A40                     tst.w      D0
00006954  588F                     addq.l     A7, 4
00006956  6620                     bne        +0x22 /* 00006978 */
00006958  7000                     moveq.l    D0, 0x00
0000695A  1035 5920 D6BD           move.b     D0, [A5 - 0x2943 + D5]
00006960  B06E 000A                cmp.w      D0, [A6 + 0xA]
00006964  6212                     bhi        +0x14 /* 00006978 */
00006966  7000                     moveq.l    D0, 0x00
00006968  1035 5920 D6CA           move.b     D0, [A5 - 0x2936 + D5]
0000696E  B06E 000A                cmp.w      D0, [A6 + 0xA]
00006972  6504                     bcs        +0x6 /* 00006978 */
00006974  3006                     move.w     D0, D6
00006976  600A                     bra        +0xC /* 00006982 */
label00006978:
00006978  5246                     addq.w     D6, 1
label0000697A:
0000697A  0C46 000D                cmpi.w     D6, 0xD /* '\r' */
0000697E  65BA                     bcs        -0x44 /* 0000693A */
label00006980:
00006980  7000                     moveq.l    D0, 0x00
label00006982:
00006982  4CDF 00E0                movem.l    D5,D6,D7, [A7]+
00006986  4E5E                     unlink     A6
00006988  4E75                     rts
export_249:
0000698A  4E56 FFFA                link       A6, -0x0006
0000698E  48E7 1F00                movem.l    -[A7], D3,D4,D5,D6,D7
00006992  4A2D B2D8                tst.b      [A5 - 0x4D28]
00006996  6606                     bne        +0x8 /* 0000699E */
00006998  7000                     moveq.l    D0, 0x00
0000699A  6000 00E8                bra        +0xEA /* 00006A84 */
label0000699E:
0000699E  4A6E 000A                tst.w      [A6 + 0xA]
000069A2  6406                     bcc        +0x8 /* 000069AA */
000069A4  7000                     moveq.l    D0, 0x00
000069A6  6000 00DC                bra        +0xDE /* 00006A84 */
label000069AA:
000069AA  7601                     moveq.l    D3, 0x01
label000069AC:
000069AC  3F3C 0020                move.w     -[A7], 0x20 /* ' ' */
000069B0  7018                     moveq.l    D0, 0x18
000069B2  C1C3                     muls.w     D0, D3
000069B4  3F35 0920 B2E6           move.w     -[A7], [A5 - 0x4D1A + D0]
000069BA  4EBA F3AC                jsr        [PC - 0xC54 /* 00005D68 */]
000069BE  4A40                     tst.w      D0
000069C0  588F                     addq.l     A7, 4
000069C2  6600 00B0                bne        +0xB2 /* 00006A74 */
000069C6  3E03                     move.w     D7, D3
label000069C8:
000069C8  7018                     moveq.l    D0, 0x18
000069CA  C1C3                     muls.w     D0, D3
000069CC  7200                     moveq.l    D1, 0x00
000069CE  1235 0920 B2EE           move.b     D1, [A5 - 0x4D12 + D0]
000069D4  3D41 FFFE                move.w     [A6 - 0x2], D1
000069D8  7018                     moveq.l    D0, 0x18
000069DA  C1C3                     muls.w     D0, D3
000069DC  7C00                     moveq.l    D6, 0x00
000069DE  1C35 0920 B2ED           move.b     D6, [A5 - 0x4D13 + D0]
000069E4  4A46                     tst.w      D6
000069E6  6670                     bne        +0x72 /* 00006A58 */
000069E8  3607                     move.w     D3, D7
000069EA  382E 0008                move.w     D4, [A6 + 0x8]
000069EE  E64C                     lsr        D4.w, 3
000069F0  302E 000A                move.w     D0, [A6 + 0xA]
000069F4  E648                     lsr        D0.w, 3
000069F6  3D40 FFFA                move.w     [A6 - 0x6], D0
000069FA  7218                     moveq.l    D1, 0x18
000069FC  C3C3                     muls.w     D1, D3
000069FE  7A00                     moveq.l    D5, 0x00
00006A00  1A35 1920 B2E8           move.b     D5, [A5 - 0x4D18 + D1]
00006A06  7218                     moveq.l    D1, 0x18
00006A08  C3C3                     muls.w     D1, D3
00006A0A  7400                     moveq.l    D2, 0x00
00006A0C  1435 1920 B2E9           move.b     D2, [A5 - 0x4D17 + D1]
00006A12  3D42 FFFC                move.w     [A6 - 0x4], D2
00006A16  B845                     cmp.w      D4, D5
00006A18  655A                     bcs        +0x5C /* 00006A74 */
00006A1A  7018                     moveq.l    D0, 0x18
00006A1C  C1C3                     muls.w     D0, D3
00006A1E  7200                     moveq.l    D1, 0x00
00006A20  1235 0920 B2EA           move.b     D1, [A5 - 0x4D16 + D0]
00006A26  D245                     add.w      D1, D5
00006A28  B841                     cmp.w      D4, D1
00006A2A  6448                     bcc        +0x4A /* 00006A74 */
00006A2C  302E FFFC                move.w     D0, [A6 - 0x4]
00006A30  B06E FFFA                cmp.w      D0, [A6 - 0x6]
00006A34  623E                     bhi        +0x40 /* 00006A74 */
00006A36  7018                     moveq.l    D0, 0x18
00006A38  C1C3                     muls.w     D0, D3
00006A3A  7200                     moveq.l    D1, 0x00
00006A3C  1235 0920 B2EB           move.b     D1, [A5 - 0x4D15 + D0]
00006A42  D26E FFFC                add.w      D1, [A6 - 0x4]
00006A46  B26E FFFA                cmp.w      D1, [A6 - 0x6]
00006A4A  6328                     bls        +0x2A /* 00006A74 */
00006A4C  7018                     moveq.l    D0, 0x18
00006A4E  C1C3                     muls.w     D0, D3
00006A50  3035 0920 B2E6           move.w     D0, [A5 - 0x4D1A + D0]
00006A56  602C                     bra        +0x2E /* 00006A84 */
label00006A58:
00006A58  3606                     move.w     D3, D6
00006A5A  7018                     moveq.l    D0, 0x18
00006A5C  C1C3                     muls.w     D0, D3
00006A5E  7200                     moveq.l    D1, 0x00
00006A60  1235 0920 B2EF           move.b     D1, [A5 - 0x4D11 + D0]
00006A66  0241 00F0                andi.w     D1, 0xF0
00006A6A  B26E FFFE                cmp.w      D1, [A6 - 0x2]
00006A6E  6700 FF58                beq        -0xA6 /* 000069C8 */
00006A72  3607                     move.w     D3, D7
label00006A74:
00006A74  5243                     addq.w     D3, 1
00006A76  7000                     moveq.l    D0, 0x00
00006A78  102D B2D8                move.b     D0, [A5 - 0x4D28]
00006A7C  B043                     cmp.w      D0, D3
00006A7E  6C00 FF2C                bge        -0xD2 /* 000069AC */
00006A82  7000                     moveq.l    D0, 0x00
label00006A84:
00006A84  4CDF 00F8                movem.l    D3,D4,D5,D6,D7, [A7]+
00006A88  4E5E                     unlink     A6
00006A8A  4E75                     rts
export_250:
00006A8C  4E56 0000                link       A6, 0
00006A90  48E7 0700                movem.l    -[A7], D5,D6,D7
00006A94  7A00                     moveq.l    D5, 0x00
00006A96  1A2D B2D8                move.b     D5, [A5 - 0x4D28]
00006A9A  4A45                     tst.w      D5
00006A9C  6760                     beq        +0x62 /* 00006AFE */
label00006A9E:
00006A9E  7018                     moveq.l    D0, 0x18
00006AA0  C1C5                     muls.w     D0, D5
00006AA2  E8F5 0004 0920 B2EF      bftst      [A5 - 0x4D11 + D0] {0:4}
00006AAA  674C                     beq        +0x4E /* 00006AF8 */
00006AAC  3E05                     move.w     D7, D5
label00006AAE:
00006AAE  7018                     moveq.l    D0, 0x18
00006AB0  C1C5                     muls.w     D0, D5
00006AB2  7C00                     moveq.l    D6, 0x00
00006AB4  1C35 0920 B2EE           move.b     D6, [A5 - 0x4D12 + D0]
00006ABA  7018                     moveq.l    D0, 0x18
00006ABC  C1C5                     muls.w     D0, D5
00006ABE  4A35 0920 B2ED           tst.b      [A5 - 0x4D13 + D0]
00006AC4  6610                     bne        +0x12 /* 00006AD6 */
00006AC6  3A07                     move.w     D5, D7
00006AC8  3F2E 0008                move.w     -[A7], [A6 + 0x8]
00006ACC  3F05                     move.w     -[A7], D5
00006ACE  4EBA 0074                jsr        [PC + 0x74 /* 00006B44 */]
00006AD2  588F                     addq.l     A7, 4
00006AD4  6022                     bra        +0x24 /* 00006AF8 */
label00006AD6:
00006AD6  7018                     moveq.l    D0, 0x18
00006AD8  C1C5                     muls.w     D0, D5
00006ADA  7A00                     moveq.l    D5, 0x00
00006ADC  1A35 0920 B2ED           move.b     D5, [A5 - 0x4D13 + D0]
00006AE2  7018                     moveq.l    D0, 0x18
00006AE4  C1C5                     muls.w     D0, D5
00006AE6  7200                     moveq.l    D1, 0x00
00006AE8  1235 0920 B2EF           move.b     D1, [A5 - 0x4D11 + D0]
00006AEE  0241 00F0                andi.w     D1, 0xF0
00006AF2  BC41                     cmp.w      D6, D1
00006AF4  67B8                     beq        -0x46 /* 00006AAE */
00006AF6  3A07                     move.w     D5, D7
label00006AF8:
00006AF8  5345                     subq.w     D5, 1
00006AFA  4A45                     tst.w      D5
00006AFC  66A0                     bne        -0x5E /* 00006A9E */
label00006AFE:
00006AFE  4CDF 00E0                movem.l    D5,D6,D7, [A7]+
00006B02  4E5E                     unlink     A6
00006B04  4E75                     rts
fn00006B06:
00006B06  48E7 0300                movem.l    -[A7], D6,D7
00006B0A  4A2D A4E0                tst.b      [A5 - 0x5B20]
00006B0E  672E                     beq        +0x30 /* 00006B3E */
00006B10  7E00                     moveq.l    D7, 0x00
00006B12  601C                     bra        +0x1E /* 00006B30 */
label00006B14:
00006B14  7000                     moveq.l    D0, 0x00
00006B16  3007                     move.w     D0, D7
00006B18  7C00                     moveq.l    D6, 0x00
00006B1A  1C35 0920 A418           move.b     D6, [A5 - 0x5BE8 + D0]
00006B20  4A46                     tst.w      D6
00006B22  670A                     beq        +0xC /* 00006B2E */
00006B24  4267                     clr.w      -[A7]
00006B26  3F06                     move.w     -[A7], D6
00006B28  4EBA 001A                jsr        [PC + 0x1A /* 00006B44 */]
00006B2C  588F                     addq.l     A7, 4
label00006B2E:
00006B2E  5247                     addq.w     D7, 1
label00006B30:
00006B30  7000                     moveq.l    D0, 0x00
00006B32  102D A4E0                move.b     D0, [A5 - 0x5B20]
00006B36  B047                     cmp.w      D0, D7
00006B38  62DA                     bhi        -0x24 /* 00006B14 */
00006B3A  422D A4E0                clr.b      [A5 - 0x5B20]
label00006B3E:
00006B3E  4CDF 00C0                movem.l    D6,D7, [A7]+
00006B42  4E75                     rts
fn00006B44:
00006B44  4E56 FFFA                link       A6, -0x0006
00006B48  48E7 1F38                movem.l    -[A7], D3,D4,D5,D6,D7,A2,A3,A4
00006B4C  3C2E 0008                move.w     D6, [A6 + 0x8]
00006B50  4A6D EDF8                tst.w      [A5 - 0x1208]
00006B54  6704                     beq        +0x6 /* 00006B5A */
00006B56  426E 000A                clr.w      [A6 + 0xA]
label00006B5A:
00006B5A  426D F286                clr.w      [A5 - 0xD7A]
00006B5E  7018                     moveq.l    D0, 0x18
00006B60  C1C6                     muls.w     D0, D6
00006B62  49ED B2DA                lea.l      A4, [A5 - 0x4D26]
00006B66  D08C                     add.l      D0, A4
00006B68  2840                     movea.l    A4, D0
00006B6A  7A00                     moveq.l    D5, 0x00
00006B6C  1A2C 000E                move.b     D5, [A4 + 0xE]
00006B70  7000                     moveq.l    D0, 0x00
00006B72  102C 000F                move.b     D0, [A4 + 0xF]
00006B76  3D40 FFFC                move.w     [A6 - 0x4], D0
00006B7A  7600                     moveq.l    D3, 0x00
00006B7C  162C 0010                move.b     D3, [A4 + 0x10]
00006B80  7200                     moveq.l    D1, 0x00
00006B82  122C 0011                move.b     D1, [A4 + 0x11]
00006B86  3D41 FFFA                move.w     [A6 - 0x6], D1
00006B8A  4A43                     tst.w      D3
00006B8C  6700 0140                beq        +0x142 /* 00006CCE */
00006B90  BA6D ECA4                cmp.w      D5, [A5 - 0x135C]
00006B94  6200 0138                bhi        +0x13A /* 00006CCE */
00006B98  3005                     move.w     D0, D5
00006B9A  D043                     add.w      D0, D3
00006B9C  B06D ECA2                cmp.w      D0, [A5 - 0x135E]
00006BA0  6500 012C                bcs        +0x12E /* 00006CCE */
00006BA4  7018                     moveq.l    D0, 0x18
00006BA6  C1C6                     muls.w     D0, D6
00006BA8  47ED B2F0                lea.l      A3, [A5 - 0x4D10]
00006BAC  D08B                     add.l      D0, A3
00006BAE  2640                     movea.l    A3, D0
00006BB0  4A13                     tst.b      [A3]
00006BB2  6722                     beq        +0x24 /* 00006BD6 */
00006BB4  7000                     moveq.l    D0, 0x00
00006BB6  1013                     move.b     D0, [A3]
00006BB8  3F00                     move.w     -[A7], D0
00006BBA  3F3C 000D                move.w     -[A7], 0xD /* '\r' */
00006BBE  4EAD 03E2                jsr        [A5 + 0x3E2 /* export_120, CODE:2 @ 00003CEE */]
00006BC2  2440                     movea.l    A2, D0
00006BC4  2E8A                     move.l     [A7], A2
00006BC6  2F3C 4D49 424F           move.l     -[A7], 0x4D49424F /* 'MIBO' */
00006BCC  4EAD 051A                jsr        [A5 + 0x51A /* export_159, CODE:3 @ 000009FA */]
00006BD0  2440                     movea.l    A2, D0
00006BD2  508F                     addq.l     A7, 8
00006BD4  6016                     bra        +0x18 /* 00006BEC */
label00006BD6:
00006BD6  7000                     moveq.l    D0, 0x00
00006BD8  102D B2D7                move.b     D0, [A5 - 0x4D29]
00006BDC  3F00                     move.w     -[A7], D0
00006BDE  3F3C 0001                move.w     -[A7], 0x1
00006BE2  4EAD 03E2                jsr        [A5 + 0x3E2 /* export_120, CODE:2 @ 00003CEE */]
00006BE6  D094                     add.l      D0, [A4]
00006BE8  2440                     movea.l    A2, D0
00006BEA  588F                     addq.l     A7, 4
label00006BEC:
00006BEC  7018                     moveq.l    D0, 0x18
00006BEE  C1C6                     muls.w     D0, D6
00006BF0  49ED B2E6                lea.l      A4, [A5 - 0x4D1A]
00006BF4  D08C                     add.l      D0, A4
00006BF6  2840                     movea.l    A4, D0
00006BF8  2F0A                     move.l     -[A7], A2
00006BFA  3F14                     move.w     -[A7], [A4]
00006BFC  4EBA F062                jsr        [PC - 0xF9E /* 00005C60 */]
00006C00  548F                     addq.l     A7, 2
00006C02  2F35 0520 A3D8           move.l     -[A7], [A5 - 0x5C28 + D0 * 4]
00006C08  4EAD 051A                jsr        [A5 + 0x51A /* export_159, CODE:3 @ 000009FA */]
00006C0C  2440                     movea.l    A2, D0
00006C0E  200A                     move.l     D0, A2
00006C10  508F                     addq.l     A7, 8
00006C12  6700 00BA                beq        +0xBC /* 00006CCE */
00006C16  7CFF                     moveq.l    D6, 0xFFFFFFFF
00006C18  7800                     moveq.l    D4, 0x00
00006C1A  7E00                     moveq.l    D7, 0x00
00006C1C  605C                     bra        +0x5E /* 00006C7A */
label00006C1E:
00006C1E  3005                     move.w     D0, D5
00006C20  D047                     add.w      D0, D7
00006C22  3B40 EF52                move.w     [A5 - 0x10AE], D0
00006C26  0C6E 0001 000A           cmpi.w     [A6 + 0xA], 0x1
00006C2C  660A                     bne        +0xC /* 00006C38 */
00006C2E  302D EF52                move.w     D0, [A5 - 0x10AE]
00006C32  B06D ECA2                cmp.w      D0, [A5 - 0x135E]
00006C36  6640                     bne        +0x42 /* 00006C78 */
label00006C38:
00006C38  0C6E 0002 000A           cmpi.w     [A6 + 0xA], 0x2
00006C3E  660A                     bne        +0xC /* 00006C4A */
00006C40  302D EF52                move.w     D0, [A5 - 0x10AE]
00006C44  B06D ECA4                cmp.w      D0, [A5 - 0x135C]
00006C48  662E                     bne        +0x30 /* 00006C78 */
label00006C4A:
00006C4A  302D EF52                move.w     D0, [A5 - 0x10AE]
00006C4E  B06D ECA2                cmp.w      D0, [A5 - 0x135E]
00006C52  6524                     bcs        +0x26 /* 00006C78 */
00006C54  302D EF52                move.w     D0, [A5 - 0x10AE]
00006C58  B06D ECA4                cmp.w      D0, [A5 - 0x135C]
00006C5C  621A                     bhi        +0x1C /* 00006C78 */
00006C5E  7000                     moveq.l    D0, 0x00
00006C60  302D EF52                move.w     D0, [A5 - 0x10AE]
00006C64  0075 4000 0B20 EDFA      ori.w      [A5 - 0x1206 + D0 * 2], 0x4000 /* '@\0' */
00006C6C  BC6D EF52                cmp.w      D6, [A5 - 0x10AE]
00006C70  6304                     bls        +0x6 /* 00006C76 */
00006C72  3C2D EF52                move.w     D6, [A5 - 0x10AE]
label00006C76:
00006C76  5244                     addq.w     D4, 1
label00006C78:
00006C78  5247                     addq.w     D7, 1
label00006C7A:
00006C7A  B647                     cmp.w      D3, D7
00006C7C  62A0                     bhi        -0x5E /* 00006C1E */
00006C7E  4A44                     tst.w      D4
00006C80  674C                     beq        +0x4E /* 00006CCE */
00006C82  3B46 EF52                move.w     [A5 - 0x10AE], D6
00006C86  302E FFFC                move.w     D0, [A6 - 0x4]
00006C8A  E748                     lsl        D0.w, 3
00006C8C  3B40 EF54                move.w     [A5 - 0x10AC], D0
00006C90  122E FFFB                move.b     D1, [A6 - 0x5]
00006C94  E709                     lsl        D1.b, 3
00006C96  1B41 EF58                move.b     [A5 - 0x10A8], D1
00006C9A  4A01                     tst.b      D1
00006C9C  6214                     bhi        +0x16 /* 00006CB2 */
00006C9E  2F3C 0000 1401           move.l     -[A7], 0x1401
00006CA4  7000                     moveq.l    D0, 0x00
00006CA6  102D EF58                move.b     D0, [A5 - 0x10A8]
00006CAA  2F00                     move.l     -[A7], D0
00006CAC  4EBA B342                jsr        [PC - 0x4CBE /* 00001FF0 */]
00006CB0  508F                     addq.l     A7, 8
label00006CB2:
00006CB2  3F14                     move.w     -[A7], [A4]
00006CB4  2F3C 0000 141D           move.l     -[A7], 0x141D
00006CBA  3F04                     move.w     -[A7], D4
00006CBC  302D EF52                move.w     D0, [A5 - 0x10AE]
00006CC0  9045                     sub.w      D0, D5
00006CC2  3F00                     move.w     -[A7], D0
00006CC4  2F0A                     move.l     -[A7], A2
00006CC6  4EAD 04AA                jsr        [A5 + 0x4AA /* export_145, CODE:2 @ 00004D72 */]
00006CCA  4FEF 000E                lea.l      A7, [A7 + 0xE]
label00006CCE:
00006CCE  4CDF 1CF8                movem.l    D3,D4,D5,D6,D7,A2,A3,A4, [A7]+
00006CD2  4E5E                     unlink     A6
00006CD4  4E75                     rts
export_251:
00006CD6  4E56 FFF6                link       A6, -0x000A
00006CDA  48E7 1F38                movem.l    -[A7], D3,D4,D5,D6,D7,A2,A3,A4
00006CDE  382E 0008                move.w     D4, [A6 + 0x8]
00006CE2  3C2E 000C                move.w     D6, [A6 + 0xC]
00006CE6  3F06                     move.w     -[A7], D6
00006CE8  4EAD 0642                jsr        [A5 + 0x642 /* export_196, CODE:3 @ 00003318 */]
00006CEC  5240                     addq.w     D0, 1
00006CEE  548F                     addq.l     A7, 2
00006CF0  6700 016A                beq        +0x16C /* 00006E5C */
00006CF4  3B6D F296 ECA6           move.w     [A5 - 0x135A], [A5 - 0xD6A]
00006CFA  3D6D F730 FFFC           move.w     [A6 - 0x4], [A5 - 0x8D0]
00006D00  426D F730                clr.w      [A5 - 0x8D0]
00006D04  7060                     moveq.l    D0, 0x60
00006D06  C0ED F286                mulu.w     D0, [A5 - 0xD7A]
00006D0A  49ED F294                lea.l      A4, [A5 - 0xD6C]
00006D0E  D08C                     add.l      D0, A4
00006D10  2840                     movea.l    A4, D0
00006D12  7060                     moveq.l    D0, 0x60
00006D14  C0ED F286                mulu.w     D0, [A5 - 0xD7A]
00006D18  47ED F28A                lea.l      A3, [A5 - 0xD76]
00006D1C  D08B                     add.l      D0, A3
00006D1E  2640                     movea.l    A3, D0
00006D20  7000                     moveq.l    D0, 0x00
00006D22  1014                     move.b     D0, [A4]
00006D24  3D40 FFFE                move.w     [A6 - 0x2], D0
00006D28  4214                     clr.b      [A4]
00006D2A  9C6B 0002                sub.w      D6, [A3 + 0x2]
00006D2E  306E 000A                movea.w    A0, [A6 + 0xA]
00006D32  2208                     move.l     D1, A0
00006D34  83FC 0008                divs.w     D1, 0x8
00006D38  3D41 FFF8                move.w     [A6 - 0x8], D1
00006D3C  3D46 FFFA                move.w     [A6 - 0x6], D6
00006D40  3F04                     move.w     -[A7], D4
00006D42  3F3C 0008                move.w     -[A7], 0x8
00006D46  4EAD 03E2                jsr        [A5 + 0x3E2 /* export_120, CODE:2 @ 00003CEE */]
00006D4A  2840                     movea.l    A4, D0
00006D4C  2E8C                     move.l     [A7], A4
00006D4E  2F3C 4448 4D49           move.l     -[A7], 0x44484D49 /* 'DHMI' */
00006D54  4EAD 0522                jsr        [A5 + 0x522 /* export_160, CODE:3 @ 00000AB0 */]
00006D58  2B40 F7E6                move.l     [A5 - 0x81A], D0
00006D5C  2040                     movea.l    A0, D0
00006D5E  3EA8 0014                move.w     [A7], [A0 + 0x14]
00006D62  4EAD 0C22                jsr        [A5 + 0xC22 /* export_384, CODE:6 @ 0000003E */]
00006D66  E648                     lsr        D0.w, 3
00006D68  1C00                     move.b     D6, D0
00006D6A  206D F7E6                movea.l    A0, [A5 - 0x81A]
00006D6E  3EA8 0016                move.w     [A7], [A0 + 0x16]
00006D72  4EAD 0C22                jsr        [A5 + 0xC22 /* export_384, CODE:6 @ 0000003E */]
00006D76  E648                     lsr        D0.w, 3
00006D78  1A00                     move.b     D5, D0
00006D7A  4297                     clr.l      [A7]
00006D7C  2F3C 3130 4D49           move.l     -[A7], 0x31304D49 /* '10MI' */
00006D82  4EAD 0522                jsr        [A5 + 0x522 /* export_160, CODE:3 @ 00000AB0 */]
00006D86  2840                     movea.l    A4, D0
00006D88  200C                     move.l     D0, A4
00006D8A  4FEF 000C                lea.l      A7, [A7 + 0xC]
00006D8E  660E                     bne        +0x10 /* 00006D9E */
00006D90  3F04                     move.w     -[A7], D4
00006D92  2F3C 0000 1425           move.l     -[A7], 0x1425
00006D98  4EAD 0A42                jsr        [A5 + 0xA42 /* export_324, CODE:5 @ 000034B4 */]
00006D9C  5C8F                     addq.l     A7, 6
label00006D9E:
00006D9E  7600                     moveq.l    D3, 0x00
label00006DA0:
00006DA0  7000                     moveq.l    D0, 0x00
00006DA2  1006                     move.b     D0, D6
00006DA4  3D40 FFF6                move.w     [A6 - 0xA], D0
00006DA8  B043                     cmp.w      D0, D3
00006DAA  6346                     bls        +0x48 /* 00006DF2 */
00006DAC  302E FFF8                move.w     D0, [A6 - 0x8]
00006DB0  D043                     add.w      D0, D3
00006DB2  3B40 EF52                move.w     [A5 - 0x10AE], D0
00006DB6  4A40                     tst.w      D0
00006DB8  6534                     bcs        +0x36 /* 00006DEE */
00006DBA  0C6D 0028 EF52           cmpi.w     [A5 - 0x10AE], 0x28 /* '(' */
00006DC0  642C                     bcc        +0x2E /* 00006DEE */
00006DC2  3B6E FFFA EF54           move.w     [A5 - 0x10AC], [A6 - 0x6]
00006DC8  1005                     move.b     D0, D5
00006DCA  E708                     lsl        D0.b, 3
00006DCC  1B40 EF58                move.b     [A5 - 0x10A8], D0
00006DD0  206D F7E6                movea.l    A0, [A5 - 0x81A]
00006DD4  3F28 0008                move.w     -[A7], [A0 + 0x8]
00006DD8  2F3C 0000 143B           move.l     -[A7], 0x143B
00006DDE  3F3C 0001                move.w     -[A7], 0x1
00006DE2  3F03                     move.w     -[A7], D3
00006DE4  2F0C                     move.l     -[A7], A4
00006DE6  4EAD 04AA                jsr        [A5 + 0x4AA /* export_145, CODE:2 @ 00004D72 */]
00006DEA  4FEF 000E                lea.l      A7, [A7 + 0xE]
label00006DEE:
00006DEE  5243                     addq.w     D3, 1
00006DF0  60AE                     bra        -0x50 /* 00006DA0 */
label00006DF2:
00006DF2  701C                     moveq.l    D0, 0x1C
00006DF4  C0C4                     mulu.w     D0, D4
00006DF6  49ED DFBA                lea.l      A4, [A5 - 0x2046]
00006DFA  D08C                     add.l      D0, A4
00006DFC  2840                     movea.l    A4, D0
00006DFE  701C                     moveq.l    D0, 0x1C
00006E00  C0C4                     mulu.w     D0, D4
00006E02  47ED DFB6                lea.l      A3, [A5 - 0x204A]
00006E06  D08B                     add.l      D0, A3
00006E08  2640                     movea.l    A3, D0
00006E0A  302E FFF6                move.w     D0, [A6 - 0xA]
00006E0E  E748                     lsl        D0.w, 3
00006E10  D053                     add.w      D0, [A3]
00006E12  3880                     move.w     [A4], D0
00006E14  701C                     moveq.l    D0, 0x1C
00006E16  C0C4                     mulu.w     D0, D4
00006E18  45ED DFBC                lea.l      A2, [A5 - 0x2044]
00006E1C  D08A                     add.l      D0, A2
00006E1E  2440                     movea.l    A2, D0
00006E20  7E1C                     moveq.l    D7, 0x1C
00006E22  CEC4                     mulu.w     D7, D4
00006E24  41ED DFB8                lea.l      A0, [A5 - 0x2048]
00006E28  DE88                     add.l      D7, A0
00006E2A  2047                     movea.l    A0, D7
00006E2C  7000                     moveq.l    D0, 0x00
00006E2E  1005                     move.b     D0, D5
00006E30  E748                     lsl        D0.w, 3
00006E32  D050                     add.w      D0, [A0]
00006E34  3480                     move.w     [A2], D0
00006E36  3753 0008                move.w     [A3 + 0x8], [A3]
00006E3A  3754 000C                move.w     [A3 + 0xC], [A4]
00006E3E  2047                     movea.l    A0, D7
00006E40  3750 000A                move.w     [A3 + 0xA], [A0]
00006E44  3752 000E                move.w     [A3 + 0xE], [A2]
00006E48  3B6E FFFC F730           move.w     [A5 - 0x8D0], [A6 - 0x4]
00006E4E  7060                     moveq.l    D0, 0x60
00006E50  C0ED F286                mulu.w     D0, [A5 - 0xD7A]
00006E54  1BAE FFFF 0920 F294      move.b     [A5 - 0xD6C + D0], [A6 - 0x1]
label00006E5C:
00006E5C  4CDF 1CF8                movem.l    D3,D4,D5,D6,D7,A2,A3,A4, [A7]+
00006E60  4E5E                     unlink     A6
00006E62  4E75                     rts
export_252:
00006E64  4E56 0000                link       A6, 0
00006E68  48E7 0708                movem.l    -[A7], D5,D6,D7,A4
00006E6C  4878 00C8                push.l     0xC8
00006E70  3F2E 0008                move.w     -[A7], [A6 + 0x8]
00006E74  3F3C 000B                move.w     -[A7], 0xB
00006E78  4EAD 03EA                jsr        [A5 + 0x3EA /* export_121, CODE:2 @ 00003D92 */]
00006E7C  2840                     movea.l    A4, D0
00006E7E  3E2E 000E                move.w     D7, [A6 + 0xE]
00006E82  9E6E 000A                sub.w      D7, [A6 + 0xA]
00006E86  4A47                     tst.w      D7
00006E88  508F                     addq.l     A7, 8
00006E8A  6738                     beq        +0x3A /* 00006EC4 */
00006E8C  7C00                     moveq.l    D6, 0x00
00006E8E  602E                     bra        +0x30 /* 00006EBE */
label00006E90:
00006E90  302E 0010                move.w     D0, [A6 + 0x10]
00006E94  906E 000C                sub.w      D0, [A6 + 0xC]
00006E98  3A06                     move.w     D5, D6
00006E9A  9A6E 000A                sub.w      D5, [A6 + 0xA]
00006E9E  CBC0                     muls.w     D5, D0
00006EA0  48C5                     ext.l      D5
00006EA2  8BC7                     divs.w     D5, D7
00006EA4  DA6E 000C                add.w      D5, [A6 + 0xC]
00006EA8  0C45 0001                cmpi.w     D5, 0x1
00006EAC  6C02                     bge        +0x4 /* 00006EB0 */
00006EAE  7A01                     moveq.l    D5, 0x01
label00006EB0:
00006EB0  0C45 00FF                cmpi.w     D5, 0xFF
00006EB4  6F04                     ble        +0x6 /* 00006EBA */
00006EB6  3A3C 00FF                move.w     D5, 0xFF
label00006EBA:
00006EBA  18C5                     move.b     [A4]+, D5
00006EBC  5246                     addq.w     D6, 1
label00006EBE:
00006EBE  0C46 00C8                cmpi.w     D6, 0xC8
00006EC2  6DCC                     blt        -0x32 /* 00006E90 */
label00006EC4:
00006EC4  4CDF 10E0                movem.l    D5,D6,D7,A4, [A7]+
00006EC8  4E5E                     unlink     A6
00006ECA  4E75                     rts
fn00006ECC:
00006ECC  4E56 0000                link       A6, 0
00006ED0  48E7 0300                movem.l    -[A7], D6,D7
00006ED4  3C2E 0008                move.w     D6, [A6 + 0x8]
00006ED8  0C6D 0010 F8F0           cmpi.w     [A5 - 0x710], 0x10
00006EDE  664C                     bne        +0x4E /* 00006F2C */
00006EE0  3E2D A9FC                move.w     D7, [A5 - 0x5604]
00006EE4  0C46 0001                cmpi.w     D6, 0x1
00006EE8  6F02                     ble        +0x4 /* 00006EEC */
00006EEA  CFC6                     muls.w     D7, D6
label00006EEC:
00006EEC  206D ECC8                movea.l    A0, [A5 - 0x1338]
00006EF0  52AD ECC8                addq.l     [A5 - 0x1338], 1
00006EF4  1B50 A9F9                move.b     [A5 - 0x5607], [A0]
00006EF8  700F                     moveq.l    D0, 0x0F
00006EFA  C02D A9F9                and.b      D0, [A5 - 0x5607]
00006EFE  1B40 A9F8                move.b     [A5 - 0x5608], D0
00006F02  4A00                     tst.b      D0
00006F04  660C                     bne        +0xE /* 00006F12 */
00006F06  206D ECC8                movea.l    A0, [A5 - 0x1338]
00006F0A  52AD ECC8                addq.l     [A5 - 0x1338], 1
00006F0E  1B50 A9F8                move.b     [A5 - 0x5608], [A0]
label00006F12:
00006F12  5347                     subq.w     D7, 1
00006F14  660E                     bne        +0x10 /* 00006F24 */
00006F16  7000                     moveq.l    D0, 0x00
00006F18  102D A9F9                move.b     D0, [A5 - 0x5607]
00006F1C  E840                     asr        D0.w, 4
00006F1E  1B40 A9F9                move.b     [A5 - 0x5607], D0
00006F22  6054                     bra        +0x56 /* 00006F78 */
label00006F24:
00006F24  532D A9F8                subq.b     [A5 - 0x5608], 1
00006F28  66E8                     bne        -0x16 /* 00006F12 */
00006F2A  60C0                     bra        -0x3E /* 00006EEC */
label00006F2C:
00006F2C  3E2D A9FC                move.w     D7, [A5 - 0x5604]
00006F30  0C46 0001                cmpi.w     D6, 0x1
00006F34  6F02                     ble        +0x4 /* 00006F38 */
00006F36  CFC6                     muls.w     D7, D6
label00006F38:
00006F38  206D ECC8                movea.l    A0, [A5 - 0x1338]
00006F3C  52AD ECC8                addq.l     [A5 - 0x1338], 1
00006F40  1B50 A9F9                move.b     [A5 - 0x5607], [A0]
00006F44  7007                     moveq.l    D0, 0x07
00006F46  C02D A9F9                and.b      D0, [A5 - 0x5607]
00006F4A  1B40 A9F8                move.b     [A5 - 0x5608], D0
00006F4E  4A00                     tst.b      D0
00006F50  660C                     bne        +0xE /* 00006F5E */
00006F52  206D ECC8                movea.l    A0, [A5 - 0x1338]
00006F56  52AD ECC8                addq.l     [A5 - 0x1338], 1
00006F5A  1B50 A9F8                move.b     [A5 - 0x5608], [A0]
label00006F5E:
00006F5E  5347                     subq.w     D7, 1
00006F60  660E                     bne        +0x10 /* 00006F70 */
00006F62  7000                     moveq.l    D0, 0x00
00006F64  102D A9F9                move.b     D0, [A5 - 0x5607]
00006F68  E640                     asr        D0.w, 3
00006F6A  1B40 A9F9                move.b     [A5 - 0x5607], D0
00006F6E  6008                     bra        +0xA /* 00006F78 */
label00006F70:
00006F70  532D A9F8                subq.b     [A5 - 0x5608], 1
00006F74  66E8                     bne        -0x16 /* 00006F5E */
00006F76  60C0                     bra        -0x3E /* 00006F38 */
label00006F78:
00006F78  4CDF 00C0                movem.l    D6,D7, [A7]+
00006F7C  4E5E                     unlink     A6
00006F7E  4E75                     rts
export_253:
00006F80  4E56 FFFE                link       A6, -0x0002
00006F84  48E7 1F08                movem.l    -[A7], D3,D4,D5,D6,D7,A4
00006F88  426D F286                clr.w      [A5 - 0xD7A]
00006F8C  206D ECC8                movea.l    A0, [A5 - 0x1338]
00006F90  1010                     move.b     D0, [A0]
00006F92  1B40 A9FE                move.b     [A5 - 0x5602], D0
00006F96  7200                     moveq.l    D1, 0x00
00006F98  1200                     move.b     D1, D0
00006F9A  3B41 A9FA                move.w     [A5 - 0x5606], D1
00006F9E  1428 0002                move.b     D2, [A0 + 0x2]
00006FA2  1B42 A9FF                move.b     [A5 - 0x5601], D2
00006FA6  7000                     moveq.l    D0, 0x00
00006FA8  1002                     move.b     D0, D2
00006FAA  3B40 A9FC                move.w     [A5 - 0x5604], D0
00006FAE  4868 0004                pea.l      [A0 + 0x4]
00006FB2  4EAD 0BF2                jsr        [A5 + 0xBF2 /* export_378, CODE:6 @ 0000005C */]
00006FB6  D06D ECB4                add.w      D0, [A5 - 0x134C]
00006FBA  3E00                     move.w     D7, D0
00006FBC  206D ECC8                movea.l    A0, [A5 - 0x1338]
00006FC0  4868 0006                pea.l      [A0 + 0x6]
00006FC4  4EAD 0BF2                jsr        [A5 + 0xBF2 /* export_378, CODE:6 @ 0000005C */]
00006FC8  D06D ECB6                add.w      D0, [A5 - 0x134A]
00006FCC  3C00                     move.w     D6, D0
00006FCE  206D ECC8                movea.l    A0, [A5 - 0x1338]
00006FD2  4868 0008                pea.l      [A0 + 0x8]
00006FD6  4EAD 0BF2                jsr        [A5 + 0xBF2 /* export_378, CODE:6 @ 0000005C */]
00006FDA  D16D ECB4                add.w      [A5 - 0x134C], D0
00006FDE  206D ECC8                movea.l    A0, [A5 - 0x1338]
00006FE2  4868 000A                pea.l      [A0 + 0xA]
00006FE6  4EAD 0BF2                jsr        [A5 + 0xBF2 /* export_378, CODE:6 @ 0000005C */]
00006FEA  916D ECB6                sub.w      [A5 - 0x134A], D0
00006FEE  700C                     moveq.l    D0, 0x0C
00006FF0  D1AD ECC8                add.l      [A5 - 0x1338], D0
00006FF4  3B6D ECB0 AA04           move.w     [A5 - 0x55FC], [A5 - 0x1350]
00006FFA  3B6D ECB2 AA06           move.w     [A5 - 0x55FA], [A5 - 0x134E]
00007000  0C6D 00FF ECBC           cmpi.w     [A5 - 0x1344], 0xFF
00007006  4FEF 0010                lea.l      A7, [A7 + 0x10]
0000700A  660C                     bne        +0xE /* 00007018 */
0000700C  0C6D 00FF ECBE           cmpi.w     [A5 - 0x1342], 0xFF
00007012  6604                     bne        +0x6 /* 00007018 */
00007014  7A00                     moveq.l    D5, 0x00
00007016  6002                     bra        +0x4 /* 0000701A */
label00007018:
00007018  7A01                     moveq.l    D5, 0x01
label0000701A:
0000701A  7800                     moveq.l    D4, 0x00
0000701C  4A05                     tst.b      D5
0000701E  6700 01D2                beq        +0x1D4 /* 000071F2 */
00007022  3B7C FFFF AA0E           move.w     [A5 - 0x55F2], 0xFFFF
00007028  4A47                     tst.w      D7
0000702A  6C08                     bge        +0xA /* 00007034 */
0000702C  4447                     neg.w      D7
0000702E  3B7C 0001 AA0E           move.w     [A5 - 0x55F2], 0x1
label00007034:
00007034  4A6D ECB8                tst.w      [A5 - 0x1348]
00007038  6700 009A                beq        +0x9C /* 000070D4 */
0000703C  7080                     moveq.l    D0, 0xFFFFFF80
0000703E  9007                     sub.b      D0, D7
00007040  1B40 AA12                move.b     [A5 - 0x55EE], D0
00007044  1B40 AA15                move.b     [A5 - 0x55EB], D0
00007048  7600                     moveq.l    D3, 0x00
0000704A  6026                     bra        +0x28 /* 00007072 */
label0000704C:
0000704C  102D AA0F                move.b     D0, [A5 - 0x55F1]
00007050  D12D AA12                add.b      [A5 - 0x55EE], D0
00007054  7000                     moveq.l    D0, 0x00
00007056  102D AA12                move.b     D0, [A5 - 0x55EE]
0000705A  7200                     moveq.l    D1, 0x00
0000705C  1235 0920 A8EA           move.b     D1, [A5 - 0x5716 + D0]
00007062  B26D ECBC                cmp.w      D1, [A5 - 0x1344]
00007066  6408                     bcc        +0xA /* 00007070 */
00007068  302D AA0E                move.w     D0, [A5 - 0x55F2]
0000706C  916D AA04                sub.w      [A5 - 0x55FC], D0
label00007070:
00007070  5243                     addq.w     D3, 1
label00007072:
00007072  BE43                     cmp.w      D7, D3
00007074  6ED6                     bgt        -0x28 /* 0000704C */
00007076  302D AA04                move.w     D0, [A5 - 0x55FC]
0000707A  3B40 A9EC                move.w     [A5 - 0x5614], D0
0000707E  3B40 A9EA                move.w     [A5 - 0x5616], D0
00007082  1B6D AA15 AA12           move.b     [A5 - 0x55EE], [A5 - 0x55EB]
00007088  7600                     moveq.l    D3, 0x00
0000708A  6030                     bra        +0x32 /* 000070BC */
label0000708C:
0000708C  4A6D A9EC                tst.w      [A5 - 0x5614]
00007090  6C08                     bge        +0xA /* 0000709A */
00007092  5244                     addq.w     D4, 1
00007094  1B6D AA12 AA15           move.b     [A5 - 0x55EB], [A5 - 0x55EE]
label0000709A:
0000709A  102D AA0F                move.b     D0, [A5 - 0x55F1]
0000709E  D12D AA12                add.b      [A5 - 0x55EE], D0
000070A2  7000                     moveq.l    D0, 0x00
000070A4  102D AA12                move.b     D0, [A5 - 0x55EE]
000070A8  7200                     moveq.l    D1, 0x00
000070AA  1235 0920 A8EA           move.b     D1, [A5 - 0x5716 + D0]
000070B0  B26D ECBC                cmp.w      D1, [A5 - 0x1344]
000070B4  6404                     bcc        +0x6 /* 000070BA */
000070B6  526D A9EC                addq.w     [A5 - 0x5614], 1
label000070BA:
000070BA  5243                     addq.w     D3, 1
label000070BC:
000070BC  B66D A9FA                cmp.w      D3, [A5 - 0x5606]
000070C0  6DCA                     blt        -0x34 /* 0000708C */
000070C2  1B6D AA15 AA12           move.b     [A5 - 0x55EE], [A5 - 0x55EB]
000070C8  4A44                     tst.w      D4
000070CA  6700 009C                beq        +0x9E /* 00007168 */
000070CE  5344                     subq.w     D4, 1
000070D0  6000 0096                bra        +0x98 /* 00007168 */
label000070D4:
000070D4  7080                     moveq.l    D0, 0xFFFFFF80
000070D6  D007                     add.b      D0, D7
000070D8  1B40 AA12                move.b     [A5 - 0x55EE], D0
000070DC  1B40 AA15                move.b     [A5 - 0x55EB], D0
000070E0  7600                     moveq.l    D3, 0x00
000070E2  6026                     bra        +0x28 /* 0000710A */
label000070E4:
000070E4  102D AA0F                move.b     D0, [A5 - 0x55F1]
000070E8  912D AA12                sub.b      [A5 - 0x55EE], D0
000070EC  7000                     moveq.l    D0, 0x00
000070EE  102D AA12                move.b     D0, [A5 - 0x55EE]
000070F2  7200                     moveq.l    D1, 0x00
000070F4  1235 0920 A8EA           move.b     D1, [A5 - 0x5716 + D0]
000070FA  B26D ECBC                cmp.w      D1, [A5 - 0x1344]
000070FE  6408                     bcc        +0xA /* 00007108 */
00007100  302D AA0E                move.w     D0, [A5 - 0x55F2]
00007104  D16D AA04                add.w      [A5 - 0x55FC], D0
label00007108:
00007108  5243                     addq.w     D3, 1
label0000710A:
0000710A  BE43                     cmp.w      D7, D3
0000710C  6ED6                     bgt        -0x28 /* 000070E4 */
0000710E  302D AA04                move.w     D0, [A5 - 0x55FC]
00007112  3B40 A9EC                move.w     [A5 - 0x5614], D0
00007116  3B40 A9EA                move.w     [A5 - 0x5616], D0
0000711A  1B6D AA15 AA12           move.b     [A5 - 0x55EE], [A5 - 0x55EB]
00007120  7600                     moveq.l    D3, 0x00
00007122  6032                     bra        +0x34 /* 00007156 */
label00007124:
00007124  0C6D 013F A9EA           cmpi.w     [A5 - 0x5616], 0x13F
0000712A  6F08                     ble        +0xA /* 00007134 */
0000712C  5244                     addq.w     D4, 1
0000712E  1B6D AA12 AA15           move.b     [A5 - 0x55EB], [A5 - 0x55EE]
label00007134:
00007134  102D AA0F                move.b     D0, [A5 - 0x55F1]
00007138  912D AA12                sub.b      [A5 - 0x55EE], D0
0000713C  7000                     moveq.l    D0, 0x00
0000713E  102D AA12                move.b     D0, [A5 - 0x55EE]
00007142  7200                     moveq.l    D1, 0x00
00007144  1235 0920 A8EA           move.b     D1, [A5 - 0x5716 + D0]
0000714A  B26D ECBC                cmp.w      D1, [A5 - 0x1344]
0000714E  6404                     bcc        +0x6 /* 00007154 */
00007150  536D A9EA                subq.w     [A5 - 0x5616], 1
label00007154:
00007154  5243                     addq.w     D3, 1
label00007156:
00007156  B66D A9FA                cmp.w      D3, [A5 - 0x5606]
0000715A  6DC8                     blt        -0x36 /* 00007124 */
0000715C  1B6D AA15 AA12           move.b     [A5 - 0x55EE], [A5 - 0x55EB]
00007162  4A44                     tst.w      D4
00007164  6702                     beq        +0x4 /* 00007168 */
00007166  5344                     subq.w     D4, 1
label00007168:
00007168  3B7C FFFF AA10           move.w     [A5 - 0x55F0], 0xFFFF
0000716E  4A46                     tst.w      D6
00007170  6C08                     bge        +0xA /* 0000717A */
00007172  4446                     neg.w      D6
00007174  3B7C 0001 AA10           move.w     [A5 - 0x55F0], 0x1
label0000717A:
0000717A  7E80                     moveq.l    D7, 0xFFFFFF80
0000717C  9E06                     sub.b      D7, D6
0000717E  1B47 AA13                move.b     [A5 - 0x55ED], D7
00007182  7600                     moveq.l    D3, 0x00
00007184  6024                     bra        +0x26 /* 000071AA */
label00007186:
00007186  102D AA13                move.b     D0, [A5 - 0x55ED]
0000718A  522D AA13                addq.b     [A5 - 0x55ED], 1
0000718E  7200                     moveq.l    D1, 0x00
00007190  1200                     move.b     D1, D0
00007192  7000                     moveq.l    D0, 0x00
00007194  1035 1920 A8EA           move.b     D0, [A5 - 0x5716 + D1]
0000719A  B06D ECBE                cmp.w      D0, [A5 - 0x1342]
0000719E  6408                     bcc        +0xA /* 000071A8 */
000071A0  302D AA10                move.w     D0, [A5 - 0x55F0]
000071A4  916D AA06                sub.w      [A5 - 0x55FA], D0
label000071A8:
000071A8  5243                     addq.w     D3, 1
label000071AA:
000071AA  BC43                     cmp.w      D6, D3
000071AC  6ED8                     bgt        -0x26 /* 00007186 */
000071AE  302D AA06                move.w     D0, [A5 - 0x55FA]
000071B2  3B40 A9F0                move.w     [A5 - 0x5610], D0
000071B6  3B40 A9EE                move.w     [A5 - 0x5612], D0
000071BA  1B47 AA13                move.b     [A5 - 0x55ED], D7
000071BE  7600                     moveq.l    D3, 0x00
000071C0  6020                     bra        +0x22 /* 000071E2 */
label000071C2:
000071C2  102D AA13                move.b     D0, [A5 - 0x55ED]
000071C6  522D AA13                addq.b     [A5 - 0x55ED], 1
000071CA  7200                     moveq.l    D1, 0x00
000071CC  1200                     move.b     D1, D0
000071CE  7000                     moveq.l    D0, 0x00
000071D0  1035 1920 A8EA           move.b     D0, [A5 - 0x5716 + D1]
000071D6  B06D ECBE                cmp.w      D0, [A5 - 0x1342]
000071DA  6404                     bcc        +0x6 /* 000071E0 */
000071DC  526D A9F0                addq.w     [A5 - 0x5610], 1
label000071E0:
000071E0  5243                     addq.w     D3, 1
label000071E2:
000071E2  B66D A9FC                cmp.w      D3, [A5 - 0x5604]
000071E6  6DDA                     blt        -0x24 /* 000071C2 */
000071E8  1B47 AA14                move.b     [A5 - 0x55EC], D7
000071EC  1B47 AA13                move.b     [A5 - 0x55ED], D7
000071F0  604E                     bra        +0x50 /* 00007240 */
label000071F2:
000071F2  4A6D ECB8                tst.w      [A5 - 0x1348]
000071F6  6602                     bne        +0x4 /* 000071FA */
000071F8  4447                     neg.w      D7
label000071FA:
000071FA  DF6D AA04                add.w      [A5 - 0x55FC], D7
000071FE  DD6D AA06                add.w      [A5 - 0x55FA], D6
00007202  4A6D ECB8                tst.w      [A5 - 0x1348]
00007206  6714                     beq        +0x16 /* 0000721C */
00007208  3B6D AA04 A9EA           move.w     [A5 - 0x5616], [A5 - 0x55FC]
0000720E  302D AA04                move.w     D0, [A5 - 0x55FC]
00007212  D06D A9FA                add.w      D0, [A5 - 0x5606]
00007216  3B40 A9EC                move.w     [A5 - 0x5614], D0
0000721A  6012                     bra        +0x14 /* 0000722E */
label0000721C:
0000721C  302D AA04                move.w     D0, [A5 - 0x55FC]
00007220  906D A9FA                sub.w      D0, [A5 - 0x5606]
00007224  3B40 A9EA                move.w     [A5 - 0x5616], D0
00007228  3B6D AA04 A9EC           move.w     [A5 - 0x5614], [A5 - 0x55FC]
label0000722E:
0000722E  3B6D AA06 A9EE           move.w     [A5 - 0x5612], [A5 - 0x55FA]
00007234  302D AA06                move.w     D0, [A5 - 0x55FA]
00007238  D06D A9FC                add.w      D0, [A5 - 0x5604]
0000723C  3B40 A9F0                move.w     [A5 - 0x5610], D0
label00007240:
00007240  3B7C FFFF AA0E           move.w     [A5 - 0x55F2], 0xFFFF
00007246  4A6D ECB8                tst.w      [A5 - 0x1348]
0000724A  6706                     beq        +0x8 /* 00007252 */
0000724C  3B7C 0001 AA0E           move.w     [A5 - 0x55F2], 0x1
label00007252:
00007252  3B6D AA06 AA08           move.w     [A5 - 0x55F8], [A5 - 0x55FA]
00007258  7060                     moveq.l    D0, 0x60
0000725A  C0ED F286                mulu.w     D0, [A5 - 0xD7A]
0000725E  3B75 0920 F290 AA0A      move.w     [A5 - 0x55F6], [A5 - 0xD70 + D0]
00007266  302E 0008                move.w     D0, [A6 + 0x8]
0000726A  3F35 0320 B052           move.w     -[A7], [A5 - 0x4FAE + D0 * 2]
00007270  3F2D A9F0                move.w     -[A7], [A5 - 0x5610]
00007274  3F2D A9EE                move.w     -[A7], [A5 - 0x5612]
00007278  3F2D A9EC                move.w     -[A7], [A5 - 0x5614]
0000727C  3F2D A9EA                move.w     -[A7], [A5 - 0x5616]
00007280  3F2D F286                move.w     -[A7], [A5 - 0xD7A]
00007284  4EAD 04FA                jsr        [A5 + 0x4FA /* export_155, CODE:3 @ 00000406 */]
00007288  302D A9EE                move.w     D0, [A5 - 0x5612]
0000728C  B06D AA0A                cmp.w      D0, [A5 - 0x55F6]
00007290  4FEF 000C                lea.l      A7, [A7 + 0xC]
00007294  6C06                     bge        +0x8 /* 0000729C */
00007296  4A6D A9F0                tst.w      [A5 - 0x5610]
0000729A  6E06                     bgt        +0x8 /* 000072A2 */
label0000729C:
0000729C  7000                     moveq.l    D0, 0x00
0000729E  6000 026C                bra        +0x26E /* 0000750C */
label000072A2:
000072A2  302D A9FC                move.w     D0, [A5 - 0x5604]
000072A6  E548                     lsl        D0.w, 2
000072A8  D06D A9FC                add.w      D0, [A5 - 0x5604]
000072AC  ED48                     lsl        D0.w, 6
000072AE  3B40 AA02                move.w     [A5 - 0x55FE], D0
000072B2  3B40 AA00                move.w     [A5 - 0x5600], D0
000072B6  422D AA0C                clr.b      [A5 - 0x55F4]
000072BA  7E01                     moveq.l    D7, 0x01
000072BC  0C6D 013F A9EA           cmpi.w     [A5 - 0x5616], 0x13F
000072C2  6E06                     bgt        +0x8 /* 000072CA */
000072C4  4A6D A9EC                tst.w      [A5 - 0x5614]
000072C8  6E06                     bgt        +0x8 /* 000072D0 */
label000072CA:
000072CA  7000                     moveq.l    D0, 0x00
000072CC  6000 023E                bra        +0x240 /* 0000750C */
label000072D0:
000072D0  4A6D ECB8                tst.w      [A5 - 0x1348]
000072D4  6740                     beq        +0x42 /* 00007316 */
000072D6  536D AA00                subq.w     [A5 - 0x5600], 1
000072DA  4A05                     tst.b      D5
000072DC  6606                     bne        +0x8 /* 000072E4 */
000072DE  382D AA04                move.w     D4, [A5 - 0x55FC]
000072E2  4444                     neg.w      D4
label000072E4:
000072E4  4A44                     tst.w      D4
000072E6  6F18                     ble        +0x1A /* 00007300 */
000072E8  992D A9FE                sub.b      [A5 - 0x5602], D4
000072EC  3F04                     move.w     -[A7], D4
000072EE  4EBA FBDC                jsr        [PC - 0x424 /* 00006ECC */]
000072F2  426D AA04                clr.w      [A5 - 0x55FC]
000072F6  1B7C 0001 AA0C           move.b     [A5 - 0x55F4], 0x1
000072FC  548F                     addq.l     A7, 2
000072FE  6056                     bra        +0x58 /* 00007356 */
label00007300:
00007300  382D A9EC                move.w     D4, [A5 - 0x5614]
00007304  0644 FEC0                addi.w     D4, 0xFEC0
00007308  4A44                     tst.w      D4
0000730A  6F06                     ble        +0x8 /* 00007312 */
0000730C  992D A9FE                sub.b      [A5 - 0x5602], D4
00007310  6044                     bra        +0x46 /* 00007356 */
label00007312:
00007312  7E02                     moveq.l    D7, 0x02
00007314  6040                     bra        +0x42 /* 00007356 */
label00007316:
00007316  526D AA00                addq.w     [A5 - 0x5600], 1
0000731A  4A05                     tst.b      D5
0000731C  6608                     bne        +0xA /* 00007326 */
0000731E  382D A9EC                move.w     D4, [A5 - 0x5614]
00007322  0644 FEC0                addi.w     D4, 0xFEC0
label00007326:
00007326  4A44                     tst.w      D4
00007328  6F1A                     ble        +0x1C /* 00007344 */
0000732A  992D A9FE                sub.b      [A5 - 0x5602], D4
0000732E  3F04                     move.w     -[A7], D4
00007330  4EBA FB9A                jsr        [PC - 0x466 /* 00006ECC */]
00007334  3B7C 013F AA04           move.w     [A5 - 0x55FC], 0x13F
0000733A  1B7C 0001 AA0C           move.b     [A5 - 0x55F4], 0x1
00007340  548F                     addq.l     A7, 2
00007342  6012                     bra        +0x14 /* 00007356 */
label00007344:
00007344  78FF                     moveq.l    D4, 0xFFFFFFFF
00007346  986D A9EA                sub.w      D4, [A5 - 0x5616]
0000734A  4A44                     tst.w      D4
0000734C  6F06                     ble        +0x8 /* 00007354 */
0000734E  992D A9FE                sub.b      [A5 - 0x5602], D4
00007352  6002                     bra        +0x4 /* 00007356 */
label00007354:
00007354  7E02                     moveq.l    D7, 0x02
label00007356:
00007356  302D A9EE                move.w     D0, [A5 - 0x5612]
0000735A  B06D AA0A                cmp.w      D0, [A5 - 0x55F6]
0000735E  6206                     bhi        +0x8 /* 00007366 */
00007360  4A6D A9EE                tst.w      [A5 - 0x5612]
00007364  6C04                     bge        +0x6 /* 0000736A */
label00007366:
00007366  426D A9EE                clr.w      [A5 - 0x5612]
label0000736A:
0000736A  302D A9F0                move.w     D0, [A5 - 0x5610]
0000736E  B06D AA0A                cmp.w      D0, [A5 - 0x55F6]
00007372  6306                     bls        +0x8 /* 0000737A */
00007374  3B6D AA0A A9F0           move.w     [A5 - 0x5610], [A5 - 0x55F6]
label0000737A:
0000737A  49ED D6BD                lea.l      A4, [A5 - 0x2943]
0000737E  D8EE 0008                add.w      A4, [A6 + 0x8]
00007382  7000                     moveq.l    D0, 0x00
00007384  1014                     move.b     D0, [A4]
00007386  B06D A9EE                cmp.w      D0, [A5 - 0x5612]
0000738A  6F04                     ble        +0x6 /* 00007390 */
0000738C  18AD A9EF                move.b     [A4], [A5 - 0x5611]
label00007390:
00007390  49ED D6CA                lea.l      A4, [A5 - 0x2936]
00007394  D8EE 0008                add.w      A4, [A6 + 0x8]
00007398  7000                     moveq.l    D0, 0x00
0000739A  1014                     move.b     D0, [A4]
0000739C  B06D A9F0                cmp.w      D0, [A5 - 0x5610]
000073A0  6C04                     bge        +0x6 /* 000073A6 */
000073A2  18AD A9F1                move.b     [A4], [A5 - 0x560F]
label000073A6:
000073A6  7000                     moveq.l    D0, 0x00
000073A8  102D A9FF                move.b     D0, [A5 - 0x5601]
000073AC  D06D A9EE                add.w      D0, [A5 - 0x5612]
000073B0  0C40 0100                cmpi.w     D0, 0x100
000073B4  6D06                     blt        +0x8 /* 000073BC */
000073B6  7002                     moveq.l    D0, 0x02
000073B8  6000 0152                bra        +0x154 /* 0000750C */
label000073BC:
000073BC  7001                     moveq.l    D0, 0x01
000073BE  D06D F286                add.w      D0, [A5 - 0xD7A]
000073C2  3F00                     move.w     -[A7], D0
000073C4  3F3C 000A                move.w     -[A7], 0xA /* '\n' */
000073C8  4EAD 03E2                jsr        [A5 + 0x3E2 /* export_120, CODE:2 @ 00003CEE */]
000073CC  7260                     moveq.l    D1, 0x60
000073CE  C2ED F286                mulu.w     D1, [A5 - 0xD7A]
000073D2  7400                     moveq.l    D2, 0x00
000073D4  3435 1920 F296           move.w     D2, [A5 - 0xD6A + D1]
000073DA  D082                     add.l      D0, D2
000073DC  322D AA06                move.w     D1, [A5 - 0x55FA]
000073E0  41F0 1590                lea.l      A0, [ + D1 * 4]
000073E4  D0C1                     add.w      A0, D1
000073E6  2408                     move.l     D2, A0
000073E8  ED8A                     lsl        D2, 6
000073EA  306D AA04                movea.w    A0, [A5 - 0x55FC]
000073EE  D488                     add.l      D2, A0
000073F0  D082                     add.l      D0, D2
000073F2  2B40 EF3E                move.l     [A5 - 0x10C2], D0
000073F6  3EAD A9F0                move.w     [A7], [A5 - 0x5610]
000073FA  3F2D A9EC                move.w     -[A7], [A5 - 0x5614]
000073FE  3F2D A9EE                move.w     -[A7], [A5 - 0x5612]
00007402  3F2D A9EA                move.w     -[A7], [A5 - 0x5616]
00007406  4EAD 0B32                jsr        [A5 + 0xB32 /* export_354, CODE:5 @ 000005F4 */]
0000740A  3C00                     move.w     D6, D0
0000740C  7800                     moveq.l    D4, 0x00
0000740E  182D ECBA                move.b     D4, [A5 - 0x1346]
00007412  4A2D ECBA                tst.b      [A5 - 0x1346]
00007416  4FEF 000A                lea.l      A7, [A7 + 0xA]
0000741A  6606                     bne        +0x8 /* 00007422 */
0000741C  4A46                     tst.w      D6
0000741E  6700 009A                beq        +0x9C /* 000074BA */
label00007422:
00007422  2F3C 000A 0009           move.l     -[A7], 0xA0009 /* '\n\0\t' */
00007428  4EAD 03E2                jsr        [A5 + 0x3E2 /* export_120, CODE:2 @ 00003CEE */]
0000742C  7200                     moveq.l    D1, 0x00
0000742E  122D ECBA                move.b     D1, [A5 - 0x1346]
00007432  7400                     moveq.l    D2, 0x00
00007434  3435 1B20 F728           move.w     D2, [A5 - 0x8D8 + D1 * 2]
0000743A  306D ECA2                movea.w    A0, [A5 - 0x135E]
0000743E  D088                     add.l      D0, A0
00007440  D082                     add.l      D0, D2
00007442  2E80                     move.l     [A7], D0
00007444  3F2D A9F0                move.w     -[A7], [A5 - 0x5610]
00007448  3F2D A9EC                move.w     -[A7], [A5 - 0x5614]
0000744C  3F2D A9EE                move.w     -[A7], [A5 - 0x5612]
00007450  3F2D A9EA                move.w     -[A7], [A5 - 0x5616]
00007454  4EAD 0B1A                jsr        [A5 + 0xB1A /* export_351, CODE:5 @ 00000640 */]
00007458  3800                     move.w     D4, D0
0000745A  2EBC 000A 0009           move.l     [A7], 0xA0009 /* '\n\0\t' */
00007460  4EAD 03E2                jsr        [A5 + 0x3E2 /* export_120, CODE:2 @ 00003CEE */]
00007464  322D AA06                move.w     D1, [A5 - 0x55FA]
00007468  E549                     lsl        D1.w, 2
0000746A  306D AA06                movea.w    A0, [A5 - 0x55FA]
0000746E  D0C1                     add.w      A0, D1
00007470  2208                     move.l     D1, A0
00007472  E789                     lsl        D1, 3
00007474  306D ECA2                movea.w    A0, [A5 - 0x135E]
00007478  D088                     add.l      D0, A0
0000747A  D081                     add.l      D0, D1
0000747C  2B40 A9F2                move.l     [A5 - 0x560E], D0
00007480  7200                     moveq.l    D1, 0x00
00007482  122D ECBA                move.b     D1, [A5 - 0x1346]
00007486  3B75 1B20 F728 A9F6      move.w     [A5 - 0x560A], [A5 - 0x8D8 + D1 * 2]
0000748E  4A46                     tst.w      D6
00007490  4FEF 000C                lea.l      A7, [A7 + 0xC]
00007494  6610                     bne        +0x12 /* 000074A6 */
00007496  4A2D ECBA                tst.b      [A5 - 0x1346]
0000749A  670A                     beq        +0xC /* 000074A6 */
0000749C  7000                     moveq.l    D0, 0x00
0000749E  302D A9F6                move.w     D0, [A5 - 0x560A]
000074A2  D1AD A9F2                add.l      [A5 - 0x560E], D0
label000074A6:
000074A6  306D AA04                movea.w    A0, [A5 - 0x55FC]
000074AA  2008                     move.l     D0, A0
000074AC  81FC 0008                divs.w     D0, 0x8
000074B0  48C0                     ext.l      D0
000074B2  D0AD A9F2                add.l      D0, [A5 - 0x560E]
000074B6  2B40 EF42                move.l     [A5 - 0x10BE], D0
label000074BA:
000074BA  7000                     moveq.l    D0, 0x00
000074BC  1005                     move.b     D0, D5
000074BE  4A44                     tst.w      D4
000074C0  56C1                     sne        D1
000074C2  4401                     neg.b      D1
000074C4  49C1                     lea.l      A4, D1
000074C6  E548                     lsl        D0.w, 2
000074C8  D241                     add.w      D1, D1
000074CA  D041                     add.w      D0, D1
000074CC  D046                     add.w      D0, D6
000074CE  6716                     beq        +0x18 /* 000074E6 */
000074D0  6B36                     bmi        +0x38 /* 00007508 */
000074D2  5940                     subq.w     D0, 4
000074D4  6722                     beq        +0x24 /* 000074F8 */
000074D6  6A06                     bpl        +0x8 /* 000074DE */
000074D8  5240                     addq.w     D0, 1
000074DA  6A16                     bpl        +0x18 /* 000074F2 */
000074DC  600E                     bra        +0x10 /* 000074EC */
label000074DE:
000074DE  5740                     subq.w     D0, 3
000074E0  6722                     beq        +0x24 /* 00007504 */
000074E2  6A24                     bpl        +0x26 /* 00007508 */
000074E4  6018                     bra        +0x1A /* 000074FE */
label000074E6:
000074E6  4EAD 0442                jsr        [A5 + 0x442 /* export_132, CODE:2 @ 00004302 */]
000074EA  601C                     bra        +0x1E /* 00007508 */
label000074EC:
000074EC  4EAD 044A                jsr        [A5 + 0x44A /* export_133, CODE:2 @ 000043AE */]
000074F0  6016                     bra        +0x18 /* 00007508 */
label000074F2:
000074F2  4EAD 0452                jsr        [A5 + 0x452 /* export_134, CODE:2 @ 0000447A */]
000074F6  6010                     bra        +0x12 /* 00007508 */
label000074F8:
000074F8  4EBA 001A                jsr        [PC + 0x1A /* 00007514 */]
000074FC  600A                     bra        +0xC /* 00007508 */
label000074FE:
000074FE  4EBA 011A                jsr        [PC + 0x11A /* 0000761A */]
00007502  6004                     bra        +0x6 /* 00007508 */
label00007504:
00007504  4EBA 027A                jsr        [PC + 0x27A /* 00007780 */]
label00007508:
00007508  7000                     moveq.l    D0, 0x00
0000750A  1007                     move.b     D0, D7
label0000750C:
0000750C  4CDF 10F8                movem.l    D3,D4,D5,D6,D7,A4, [A7]+
00007510  4E5E                     unlink     A6
00007512  4E75                     rts
fn00007514:
00007514  2F0C                     move.l     -[A7], A4
00007516  286D EF3E                movea.l    A4, [A5 - 0x10C2]
0000751A  4A2D AA0C                tst.b      [A5 - 0x55F4]
0000751E  6600 00EA                bne        +0xEC /* 0000760A */
label00007522:
00007522  0C6D 0010 F8F0           cmpi.w     [A5 - 0x710], 0x10
00007528  661C                     bne        +0x1E /* 00007546 */
0000752A  206D ECC8                movea.l    A0, [A5 - 0x1338]
0000752E  7000                     moveq.l    D0, 0x00
00007530  1010                     move.b     D0, [A0]
00007532  E840                     asr        D0.w, 4
00007534  1B40 A9F9                move.b     [A5 - 0x5607], D0
00007538  52AD ECC8                addq.l     [A5 - 0x1338], 1
0000753C  720F                     moveq.l    D1, 0x0F
0000753E  C210                     and.b      D1, [A0]
00007540  1B41 A9F8                move.b     [A5 - 0x5608], D1
00007544  601A                     bra        +0x1C /* 00007560 */
label00007546:
00007546  206D ECC8                movea.l    A0, [A5 - 0x1338]
0000754A  7000                     moveq.l    D0, 0x00
0000754C  1010                     move.b     D0, [A0]
0000754E  E640                     asr        D0.w, 3
00007550  1B40 A9F9                move.b     [A5 - 0x5607], D0
00007554  52AD ECC8                addq.l     [A5 - 0x1338], 1
00007558  7207                     moveq.l    D1, 0x07
0000755A  C210                     and.b      D1, [A0]
0000755C  1B41 A9F8                move.b     [A5 - 0x5608], D1
label00007560:
00007560  4A2D A9F8                tst.b      [A5 - 0x5608]
00007564  660C                     bne        +0xE /* 00007572 */
00007566  206D ECC8                movea.l    A0, [A5 - 0x1338]
0000756A  52AD ECC8                addq.l     [A5 - 0x1338], 1
0000756E  1B50 A9F8                move.b     [A5 - 0x5608], [A0]
label00007572:
00007572  102D AA13                move.b     D0, [A5 - 0x55ED]
00007576  522D AA13                addq.b     [A5 - 0x55ED], 1
0000757A  7200                     moveq.l    D1, 0x00
0000757C  1200                     move.b     D1, D0
0000757E  7000                     moveq.l    D0, 0x00
00007580  1035 1920 A8EA           move.b     D0, [A5 - 0x5716 + D1]
00007586  B06D ECBE                cmp.w      D0, [A5 - 0x1342]
0000758A  642C                     bcc        +0x2E /* 000075B8 */
0000758C  4A2D A9F9                tst.b      [A5 - 0x5607]
00007590  671A                     beq        +0x1C /* 000075AC */
00007592  302D AA06                move.w     D0, [A5 - 0x55FA]
00007596  B06D AA0A                cmp.w      D0, [A5 - 0x55F6]
0000759A  6410                     bcc        +0x12 /* 000075AC */
0000759C  7000                     moveq.l    D0, 0x00
0000759E  102D A9F9                move.b     D0, [A5 - 0x5607]
000075A2  206D EF3E                movea.l    A0, [A5 - 0x10C2]
000075A6  10B5 0920 F25A           move.b     [A0], [A5 - 0xDA6 + D0]
label000075AC:
000075AC  06AD 0000 0140 EF3E      addi.l     [A5 - 0x10C2], 0x140
000075B4  526D AA06                addq.w     [A5 - 0x55FA], 1
label000075B8:
000075B8  532D A9FF                subq.b     [A5 - 0x5601], 1
000075BC  664C                     bne        +0x4E /* 0000760A */
000075BE  532D A9FE                subq.b     [A5 - 0x5602], 1
000075C2  6752                     beq        +0x54 /* 00007616 */
000075C4  1B6D A9FD A9FF           move.b     [A5 - 0x5601], [A5 - 0x5603]
000075CA  3B6D AA08 AA06           move.w     [A5 - 0x55FA], [A5 - 0x55F8]
000075D0  1B6D AA14 AA13           move.b     [A5 - 0x55ED], [A5 - 0x55EC]
000075D6  102D AA0F                move.b     D0, [A5 - 0x55F1]
000075DA  D12D AA12                add.b      [A5 - 0x55EE], D0
000075DE  7000                     moveq.l    D0, 0x00
000075E0  102D AA12                move.b     D0, [A5 - 0x55EE]
000075E4  7200                     moveq.l    D1, 0x00
000075E6  1235 0920 A8EA           move.b     D1, [A5 - 0x5716 + D0]
000075EC  B26D ECBC                cmp.w      D1, [A5 - 0x1344]
000075F0  6414                     bcc        +0x16 /* 00007606 */
000075F2  302D AA0E                move.w     D0, [A5 - 0x55F2]
000075F6  D16D AA04                add.w      [A5 - 0x55FC], D0
000075FA  0C6D 0140 AA04           cmpi.w     [A5 - 0x55FC], 0x140
00007600  6414                     bcc        +0x16 /* 00007616 */
00007602  D8ED AA0E                add.w      A4, [A5 - 0x55F2]
label00007606:
00007606  2B4C EF3E                move.l     [A5 - 0x10C2], A4
label0000760A:
0000760A  532D A9F8                subq.b     [A5 - 0x5608], 1
0000760E  6600 FF62                bne        -0x9C /* 00007572 */
00007612  6000 FF0E                bra        -0xF0 /* 00007522 */
label00007616:
00007616  285F                     movea.l    A4, [A7]+
00007618  4E75                     rts
fn0000761A:
0000761A  2F0C                     move.l     -[A7], A4
0000761C  7007                     moveq.l    D0, 0x07
0000761E  C06D AA04                and.w      D0, [A5 - 0x55FC]
00007622  1B75 0120 A8E2 AA0D      move.b     [A5 - 0x55F3], [A5 - 0x571E + D0]
0000762A  286D EF3E                movea.l    A4, [A5 - 0x10C2]
0000762E  4A2D AA0C                tst.b      [A5 - 0x55F4]
00007632  6600 013C                bne        +0x13E /* 00007770 */
label00007636:
00007636  0C6D 0010 F8F0           cmpi.w     [A5 - 0x710], 0x10
0000763C  661C                     bne        +0x1E /* 0000765A */
0000763E  206D ECC8                movea.l    A0, [A5 - 0x1338]
00007642  7000                     moveq.l    D0, 0x00
00007644  1010                     move.b     D0, [A0]
00007646  E840                     asr        D0.w, 4
00007648  1B40 A9F9                move.b     [A5 - 0x5607], D0
0000764C  52AD ECC8                addq.l     [A5 - 0x1338], 1
00007650  720F                     moveq.l    D1, 0x0F
00007652  C210                     and.b      D1, [A0]
00007654  1B41 A9F8                move.b     [A5 - 0x5608], D1
00007658  601A                     bra        +0x1C /* 00007674 */
label0000765A:
0000765A  206D ECC8                movea.l    A0, [A5 - 0x1338]
0000765E  7000                     moveq.l    D0, 0x00
00007660  1010                     move.b     D0, [A0]
00007662  E640                     asr        D0.w, 3
00007664  1B40 A9F9                move.b     [A5 - 0x5607], D0
00007668  52AD ECC8                addq.l     [A5 - 0x1338], 1
0000766C  7207                     moveq.l    D1, 0x07
0000766E  C210                     and.b      D1, [A0]
00007670  1B41 A9F8                move.b     [A5 - 0x5608], D1
label00007674:
00007674  4A2D A9F8                tst.b      [A5 - 0x5608]
00007678  660C                     bne        +0xE /* 00007686 */
0000767A  206D ECC8                movea.l    A0, [A5 - 0x1338]
0000767E  52AD ECC8                addq.l     [A5 - 0x1338], 1
00007682  1B50 A9F8                move.b     [A5 - 0x5608], [A0]
label00007686:
00007686  102D AA13                move.b     D0, [A5 - 0x55ED]
0000768A  522D AA13                addq.b     [A5 - 0x55ED], 1
0000768E  7200                     moveq.l    D1, 0x00
00007690  1200                     move.b     D1, D0
00007692  7000                     moveq.l    D0, 0x00
00007694  1035 1920 A8EA           move.b     D0, [A5 - 0x5716 + D1]
0000769A  B06D ECBE                cmp.w      D0, [A5 - 0x1342]
0000769E  6444                     bcc        +0x46 /* 000076E4 */
000076A0  4A2D A9F9                tst.b      [A5 - 0x5607]
000076A4  672C                     beq        +0x2E /* 000076D2 */
000076A6  302D AA06                move.w     D0, [A5 - 0x55FA]
000076AA  B06D AA0A                cmp.w      D0, [A5 - 0x55F6]
000076AE  6422                     bcc        +0x24 /* 000076D2 */
000076B0  206D EF42                movea.l    A0, [A5 - 0x10BE]
000076B4  7000                     moveq.l    D0, 0x00
000076B6  1010                     move.b     D0, [A0]
000076B8  7200                     moveq.l    D1, 0x00
000076BA  122D AA0D                move.b     D1, [A5 - 0x55F3]
000076BE  C041                     and.w      D0, D1
000076C0  6610                     bne        +0x12 /* 000076D2 */
000076C2  7000                     moveq.l    D0, 0x00
000076C4  102D A9F9                move.b     D0, [A5 - 0x5607]
000076C8  206D EF3E                movea.l    A0, [A5 - 0x10C2]
000076CC  10B5 0920 F25A           move.b     [A0], [A5 - 0xDA6 + D0]
label000076D2:
000076D2  06AD 0000 0140 EF3E      addi.l     [A5 - 0x10C2], 0x140
000076DA  7028                     moveq.l    D0, 0x28
000076DC  D1AD EF42                add.l      [A5 - 0x10BE], D0
000076E0  526D AA06                addq.w     [A5 - 0x55FA], 1
label000076E4:
000076E4  532D A9FF                subq.b     [A5 - 0x5601], 1
000076E8  6600 0086                bne        +0x88 /* 00007770 */
000076EC  532D A9FE                subq.b     [A5 - 0x5602], 1
000076F0  6700 008A                beq        +0x8C /* 0000777C */
000076F4  1B6D A9FD A9FF           move.b     [A5 - 0x5601], [A5 - 0x5603]
000076FA  3B6D AA08 AA06           move.w     [A5 - 0x55FA], [A5 - 0x55F8]
00007700  1B6D AA14 AA13           move.b     [A5 - 0x55ED], [A5 - 0x55EC]
00007706  102D AA0F                move.b     D0, [A5 - 0x55F1]
0000770A  D12D AA12                add.b      [A5 - 0x55EE], D0
0000770E  7000                     moveq.l    D0, 0x00
00007710  102D AA12                move.b     D0, [A5 - 0x55EE]
00007714  7200                     moveq.l    D1, 0x00
00007716  1235 0920 A8EA           move.b     D1, [A5 - 0x5716 + D0]
0000771C  B26D ECBC                cmp.w      D1, [A5 - 0x1344]
00007720  6436                     bcc        +0x38 /* 00007758 */
00007722  302D AA0E                move.w     D0, [A5 - 0x55F2]
00007726  D16D AA04                add.w      [A5 - 0x55FC], D0
0000772A  0C6D 0140 AA04           cmpi.w     [A5 - 0x55FC], 0x140
00007730  644A                     bcc        +0x4C /* 0000777C */
00007732  306D AA04                movea.w    A0, [A5 - 0x55FC]
00007736  2008                     move.l     D0, A0
00007738  81FC 0008                divs.w     D0, 0x8
0000773C  48C0                     ext.l      D0
0000773E  D0AD A9F2                add.l      D0, [A5 - 0x560E]
00007742  2B40 EF42                move.l     [A5 - 0x10BE], D0
00007746  7207                     moveq.l    D1, 0x07
00007748  C26D AA04                and.w      D1, [A5 - 0x55FC]
0000774C  1B75 1120 A8E2 AA0D      move.b     [A5 - 0x55F3], [A5 - 0x571E + D1]
00007754  D8ED AA0E                add.w      A4, [A5 - 0x55F2]
label00007758:
00007758  2B4C EF3E                move.l     [A5 - 0x10C2], A4
0000775C  306D AA04                movea.w    A0, [A5 - 0x55FC]
00007760  2008                     move.l     D0, A0
00007762  81FC 0008                divs.w     D0, 0x8
00007766  48C0                     ext.l      D0
00007768  D0AD A9F2                add.l      D0, [A5 - 0x560E]
0000776C  2B40 EF42                move.l     [A5 - 0x10BE], D0
label00007770:
00007770  532D A9F8                subq.b     [A5 - 0x5608], 1
00007774  6600 FF10                bne        -0xEE /* 00007686 */
00007778  6000 FEBC                bra        -0x142 /* 00007636 */
label0000777C:
0000777C  285F                     movea.l    A4, [A7]+
0000777E  4E75                     rts
fn00007780:
00007780  2F0C                     move.l     -[A7], A4
00007782  7007                     moveq.l    D0, 0x07
00007784  C06D AA04                and.w      D0, [A5 - 0x55FC]
00007788  1B75 0120 A8E2 AA0D      move.b     [A5 - 0x55F3], [A5 - 0x571E + D0]
00007790  286D EF3E                movea.l    A4, [A5 - 0x10C2]
00007794  4A2D AA0C                tst.b      [A5 - 0x55F4]
00007798  6600 014A                bne        +0x14C /* 000078E4 */
label0000779C:
0000779C  0C6D 0010 F8F0           cmpi.w     [A5 - 0x710], 0x10
000077A2  661C                     bne        +0x1E /* 000077C0 */
000077A4  206D ECC8                movea.l    A0, [A5 - 0x1338]
000077A8  7000                     moveq.l    D0, 0x00
000077AA  1010                     move.b     D0, [A0]
000077AC  E840                     asr        D0.w, 4
000077AE  1B40 A9F9                move.b     [A5 - 0x5607], D0
000077B2  52AD ECC8                addq.l     [A5 - 0x1338], 1
000077B6  720F                     moveq.l    D1, 0x0F
000077B8  C210                     and.b      D1, [A0]
000077BA  1B41 A9F8                move.b     [A5 - 0x5608], D1
000077BE  601A                     bra        +0x1C /* 000077DA */
label000077C0:
000077C0  206D ECC8                movea.l    A0, [A5 - 0x1338]
000077C4  7000                     moveq.l    D0, 0x00
000077C6  1010                     move.b     D0, [A0]
000077C8  E640                     asr        D0.w, 3
000077CA  1B40 A9F9                move.b     [A5 - 0x5607], D0
000077CE  52AD ECC8                addq.l     [A5 - 0x1338], 1
000077D2  7207                     moveq.l    D1, 0x07
000077D4  C210                     and.b      D1, [A0]
000077D6  1B41 A9F8                move.b     [A5 - 0x5608], D1
label000077DA:
000077DA  4A2D A9F8                tst.b      [A5 - 0x5608]
000077DE  660C                     bne        +0xE /* 000077EC */
000077E0  206D ECC8                movea.l    A0, [A5 - 0x1338]
000077E4  52AD ECC8                addq.l     [A5 - 0x1338], 1
000077E8  1B50 A9F8                move.b     [A5 - 0x5608], [A0]
label000077EC:
000077EC  102D AA13                move.b     D0, [A5 - 0x55ED]
000077F0  522D AA13                addq.b     [A5 - 0x55ED], 1
000077F4  7200                     moveq.l    D1, 0x00
000077F6  1200                     move.b     D1, D0
000077F8  7000                     moveq.l    D0, 0x00
000077FA  1035 1920 A8EA           move.b     D0, [A5 - 0x5716 + D1]
00007800  B06D ECBE                cmp.w      D0, [A5 - 0x1342]
00007804  6452                     bcc        +0x54 /* 00007858 */
00007806  4A2D A9F9                tst.b      [A5 - 0x5607]
0000780A  673A                     beq        +0x3C /* 00007846 */
0000780C  302D AA06                move.w     D0, [A5 - 0x55FA]
00007810  B06D AA0A                cmp.w      D0, [A5 - 0x55F6]
00007814  6430                     bcc        +0x32 /* 00007846 */
00007816  206D EF42                movea.l    A0, [A5 - 0x10BE]
0000781A  7000                     moveq.l    D0, 0x00
0000781C  1010                     move.b     D0, [A0]
0000781E  7200                     moveq.l    D1, 0x00
00007820  322D A9F6                move.w     D1, [A5 - 0x560A]
00007824  7400                     moveq.l    D2, 0x00
00007826  1430 1800                move.b     D2, [A0 + D1]
0000782A  8042                     or.w       D0, D2
0000782C  7200                     moveq.l    D1, 0x00
0000782E  122D AA0D                move.b     D1, [A5 - 0x55F3]
00007832  C041                     and.w      D0, D1
00007834  6610                     bne        +0x12 /* 00007846 */
00007836  7000                     moveq.l    D0, 0x00
00007838  102D A9F9                move.b     D0, [A5 - 0x5607]
0000783C  206D EF3E                movea.l    A0, [A5 - 0x10C2]
00007840  10B5 0920 F25A           move.b     [A0], [A5 - 0xDA6 + D0]
label00007846:
00007846  06AD 0000 0140 EF3E      addi.l     [A5 - 0x10C2], 0x140
0000784E  7028                     moveq.l    D0, 0x28
00007850  D1AD EF42                add.l      [A5 - 0x10BE], D0
00007854  526D AA06                addq.w     [A5 - 0x55FA], 1
label00007858:
00007858  532D A9FF                subq.b     [A5 - 0x5601], 1
0000785C  6600 0086                bne        +0x88 /* 000078E4 */
00007860  532D A9FE                subq.b     [A5 - 0x5602], 1
00007864  6700 008A                beq        +0x8C /* 000078F0 */
00007868  1B6D A9FD A9FF           move.b     [A5 - 0x5601], [A5 - 0x5603]
0000786E  3B6D AA08 AA06           move.w     [A5 - 0x55FA], [A5 - 0x55F8]
00007874  1B6D AA14 AA13           move.b     [A5 - 0x55ED], [A5 - 0x55EC]
0000787A  102D AA0F                move.b     D0, [A5 - 0x55F1]
0000787E  D12D AA12                add.b      [A5 - 0x55EE], D0
00007882  7000                     moveq.l    D0, 0x00
00007884  102D AA12                move.b     D0, [A5 - 0x55EE]
00007888  7200                     moveq.l    D1, 0x00
0000788A  1235 0920 A8EA           move.b     D1, [A5 - 0x5716 + D0]
00007890  B26D ECBC                cmp.w      D1, [A5 - 0x1344]
00007894  6436                     bcc        +0x38 /* 000078CC */
00007896  302D AA0E                move.w     D0, [A5 - 0x55F2]
0000789A  D16D AA04                add.w      [A5 - 0x55FC], D0
0000789E  0C6D 0140 AA04           cmpi.w     [A5 - 0x55FC], 0x140
000078A4  644A                     bcc        +0x4C /* 000078F0 */
000078A6  306D AA04                movea.w    A0, [A5 - 0x55FC]
000078AA  2008                     move.l     D0, A0
000078AC  81FC 0008                divs.w     D0, 0x8
000078B0  48C0                     ext.l      D0
000078B2  D0AD A9F2                add.l      D0, [A5 - 0x560E]
000078B6  2B40 EF42                move.l     [A5 - 0x10BE], D0
000078BA  7207                     moveq.l    D1, 0x07
000078BC  C26D AA04                and.w      D1, [A5 - 0x55FC]
000078C0  1B75 1120 A8E2 AA0D      move.b     [A5 - 0x55F3], [A5 - 0x571E + D1]
000078C8  D8ED AA0E                add.w      A4, [A5 - 0x55F2]
label000078CC:
000078CC  2B4C EF3E                move.l     [A5 - 0x10C2], A4
000078D0  306D AA04                movea.w    A0, [A5 - 0x55FC]
000078D4  2008                     move.l     D0, A0
000078D6  81FC 0008                divs.w     D0, 0x8
000078DA  48C0                     ext.l      D0
000078DC  D0AD A9F2                add.l      D0, [A5 - 0x560E]
000078E0  2B40 EF42                move.l     [A5 - 0x10BE], D0
label000078E4:
000078E4  532D A9F8                subq.b     [A5 - 0x5608], 1
000078E8  6600 FF02                bne        -0xFC /* 000077EC */
000078EC  6000 FEAE                bra        -0x150 /* 0000779C */
label000078F0:
000078F0  285F                     movea.l    A4, [A7]+
000078F2  4E75                     rts
