# near model CODE resource
# jump table entries: 33992-34045 (54 of them)
export_202:
fn00000000:
00000000  48E7 0300                movem.l    -[A7], D6,D7
00000004  7E00                     moveq.l    D7, 0x00
00000006  6020                     bra        +0x22 /* 00000028 */
label00000008:
00000008  7C00                     moveq.l    D6, 0x00
0000000A  600C                     bra        +0xE /* 00000018 */
label0000000C:
0000000C  206D EF3E                movea.l    A0, [A5 - 0x10C2]
00000010  52AD EF3E                addq.l     [A5 - 0x10C2], 1
00000014  4210                     clr.b      [A0]
00000016  5246                     addq.w     D6, 1
label00000018:
00000018  0C46 0008                cmpi.w     D6, 0x8
0000001C  6DEE                     blt        -0x10 /* 0000000C */
0000001E  06AD 0000 0138 EF3E      addi.l     [A5 - 0x10C2], 0x138
00000026  5247                     addq.w     D7, 1
label00000028:
00000028  7000                     moveq.l    D0, 0x00
0000002A  102D EF58                move.b     D0, [A5 - 0x10A8]
0000002E  B047                     cmp.w      D0, D7
00000030  6ED6                     bgt        -0x28 /* 00000008 */
00000032  4CDF 00C0                movem.l    D6,D7, [A7]+
00000036  4E75                     rts
export_203:
00000038  48E7 0300                movem.l    -[A7], D6,D7
0000003C  7E00                     moveq.l    D7, 0x00
0000003E  603E                     bra        +0x40 /* 0000007E */
label00000040:
00000040  206D EF46                movea.l    A0, [A5 - 0x10BA]
00000044  1B50 9A5E                move.b     [A5 - 0x65A2], [A0]
00000048  7C00                     moveq.l    D6, 0x00
0000004A  601C                     bra        +0x1E /* 00000068 */
label0000004C:
0000004C  4A2D 9A5E                tst.b      [A5 - 0x65A2]
00000050  6B06                     bmi        +0x8 /* 00000058 */
00000052  206D EF3E                movea.l    A0, [A5 - 0x10C2]
00000056  4210                     clr.b      [A0]
label00000058:
00000058  52AD EF3E                addq.l     [A5 - 0x10C2], 1
0000005C  102D 9A5E                move.b     D0, [A5 - 0x65A2]
00000060  D000                     add.b      D0, D0
00000062  1B40 9A5E                move.b     [A5 - 0x65A2], D0
00000066  5246                     addq.w     D6, 1
label00000068:
00000068  0C46 0008                cmpi.w     D6, 0x8
0000006C  6DDE                     blt        -0x20 /* 0000004C */
0000006E  06AD 0000 0138 EF3E      addi.l     [A5 - 0x10C2], 0x138
00000076  7028                     moveq.l    D0, 0x28
00000078  D1AD EF46                add.l      [A5 - 0x10BA], D0
0000007C  5247                     addq.w     D7, 1
label0000007E:
0000007E  7000                     moveq.l    D0, 0x00
00000080  102D EF58                move.b     D0, [A5 - 0x10A8]
00000084  B047                     cmp.w      D0, D7
00000086  6EB8                     bgt        -0x46 /* 00000040 */
00000088  4CDF 00C0                movem.l    D6,D7, [A7]+
0000008C  4E75                     rts
export_204:
0000008E  48E7 0700                movem.l    -[A7], D5,D6,D7
00000092  1E2D EF58                move.b     D7, [A5 - 0x10A8]
label00000096:
00000096  206D EF4E                movea.l    A0, [A5 - 0x10B2]
0000009A  52AD EF4E                addq.l     [A5 - 0x10B2], 1
0000009E  1C10                     move.b     D6, [A0]
000000A0  4A06                     tst.b      D6
000000A2  6A24                     bpl        +0x26 /* 000000C8 */
000000A4  0206 007F                andi.b     D6, 0x7F
000000A8  206D EF4E                movea.l    A0, [A5 - 0x10B2]
000000AC  52AD EF4E                addq.l     [A5 - 0x10B2], 1
000000B0  1A10                     move.b     D5, [A0]
label000000B2:
000000B2  206D EF42                movea.l    A0, [A5 - 0x10BE]
000000B6  1085                     move.b     [A0], D5
000000B8  7028                     moveq.l    D0, 0x28
000000BA  D1AD EF42                add.l      [A5 - 0x10BE], D0
000000BE  5307                     subq.b     D7, 1
000000C0  6724                     beq        +0x26 /* 000000E6 */
000000C2  5306                     subq.b     D6, 1
000000C4  66EC                     bne        -0x12 /* 000000B2 */
000000C6  60CE                     bra        -0x30 /* 00000096 */
label000000C8:
000000C8  206D EF4E                movea.l    A0, [A5 - 0x10B2]
000000CC  52AD EF4E                addq.l     [A5 - 0x10B2], 1
000000D0  226D EF42                movea.l    A1, [A5 - 0x10BE]
000000D4  1290                     move.b     [A1], [A0]
000000D6  7028                     moveq.l    D0, 0x28
000000D8  D1AD EF42                add.l      [A5 - 0x10BE], D0
000000DC  5307                     subq.b     D7, 1
000000DE  6706                     beq        +0x8 /* 000000E6 */
000000E0  5306                     subq.b     D6, 1
000000E2  66E4                     bne        -0x1A /* 000000C8 */
000000E4  60B0                     bra        -0x4E /* 00000096 */
label000000E6:
000000E6  4CDF 00E0                movem.l    D5,D6,D7, [A7]+
000000EA  4E75                     rts
export_205:
000000EC  48E7 0700                movem.l    -[A7], D5,D6,D7
000000F0  1E2D EF58                move.b     D7, [A5 - 0x10A8]
label000000F4:
000000F4  206D EF4E                movea.l    A0, [A5 - 0x10B2]
000000F8  52AD EF4E                addq.l     [A5 - 0x10B2], 1
000000FC  1C10                     move.b     D6, [A0]
000000FE  4A06                     tst.b      D6
00000100  6A24                     bpl        +0x26 /* 00000126 */
00000102  0206 007F                andi.b     D6, 0x7F
00000106  206D EF4E                movea.l    A0, [A5 - 0x10B2]
0000010A  52AD EF4E                addq.l     [A5 - 0x10B2], 1
0000010E  1A10                     move.b     D5, [A0]
label00000110:
00000110  206D EF42                movea.l    A0, [A5 - 0x10BE]
00000114  8B10                     or.b       [A0], D5
00000116  7028                     moveq.l    D0, 0x28
00000118  D1AD EF42                add.l      [A5 - 0x10BE], D0
0000011C  5307                     subq.b     D7, 1
0000011E  6726                     beq        +0x28 /* 00000146 */
00000120  5306                     subq.b     D6, 1
00000122  66EC                     bne        -0x12 /* 00000110 */
00000124  60CE                     bra        -0x30 /* 000000F4 */
label00000126:
00000126  206D EF4E                movea.l    A0, [A5 - 0x10B2]
0000012A  52AD EF4E                addq.l     [A5 - 0x10B2], 1
0000012E  1010                     move.b     D0, [A0]
00000130  206D EF42                movea.l    A0, [A5 - 0x10BE]
00000134  8110                     or.b       [A0], D0
00000136  7028                     moveq.l    D0, 0x28
00000138  D1AD EF42                add.l      [A5 - 0x10BE], D0
0000013C  5307                     subq.b     D7, 1
0000013E  6706                     beq        +0x8 /* 00000146 */
00000140  5306                     subq.b     D6, 1
00000142  66E2                     bne        -0x1C /* 00000126 */
00000144  60AE                     bra        -0x50 /* 000000F4 */
label00000146:
00000146  4CDF 00E0                movem.l    D5,D6,D7, [A7]+
0000014A  4E75                     rts
export_206:
fn0000014C:
0000014C  4E56 0000                link       A6, 0
00000150  48E7 0030                movem.l    -[A7], A2,A3
00000154  7000                     moveq.l    D0, 0x00
00000156  7400                     moveq.l    D2, 0x00
00000158  7200                     moveq.l    D1, 0x00
0000015A  246E 000C                movea.l    A2, [A6 + 0xC]
0000015E  266E 0008                movea.l    A3, [A6 + 0x8]
00000162  322E 0010                move.w     D1, [A6 + 0x10]
00000166  6F4A                     ble        +0x4C /* 000001B2 */
00000168  342E 0012                move.w     D2, [A6 + 0x12]
0000016C  6F44                     ble        +0x46 /* 000001B2 */
0000016E  1001                     move.b     D0, D1
00000170  0200 0007                andi.b     D0, 0x7
00000174  671E                     beq        +0x20 /* 00000194 */
label00000176:
00000176  204A                     movea.l    A0, A2
00000178  224B                     movea.l    A1, A3
0000017A  3001                     move.w     D0, D1
label0000017C:
0000017C  12D8                     move.b     [A1]+, [A0]+
0000017E  5380                     subq.l     D0, 1
00000180  6EFA                     bgt        -0x4 /* 0000017C */
00000182  D5FC 0000 0140           add.l      A2, 0x140
00000188  D7FC 0000 0140           add.l      A3, 0x140
0000018E  5382                     subq.l     D2, 1
00000190  6EE4                     bgt        -0x1A /* 00000176 */
00000192  601E                     bra        +0x20 /* 000001B2 */
label00000194:
00000194  204A                     movea.l    A0, A2
00000196  224B                     movea.l    A1, A3
00000198  3001                     move.w     D0, D1
label0000019A:
0000019A  22D8                     move.l     [A1]+, [A0]+
0000019C  22D8                     move.l     [A1]+, [A0]+
0000019E  5180                     subq.l     D0, 8
000001A0  6EF8                     bgt        -0x6 /* 0000019A */
000001A2  D5FC 0000 0140           add.l      A2, 0x140
000001A8  D7FC 0000 0140           add.l      A3, 0x140
000001AE  5382                     subq.l     D2, 1
000001B0  6EE2                     bgt        -0x1C /* 00000194 */
label000001B2:
000001B2  4CDF 0C00                movem.l    A2,A3, [A7]+
000001B6  4E5E                     unlink     A6
000001B8  4E75                     rts
export_153:
000001BA  48E7 1F00                movem.l    -[A7], D3,D4,D5,D6,D7
000001BE  7E00                     moveq.l    D7, 0x00
000001C0  604C                     bra        +0x4E /* 0000020E */
label000001C2:
000001C2  7000                     moveq.l    D0, 0x00
000001C4  1007                     move.b     D0, D7
000001C6  306D ECA2                movea.w    A0, [A5 - 0x135E]
000001CA  D0C0                     add.w      A0, D0
000001CC  D1C8                     add.l      A0, A0
000001CE  41E8 EDFA                lea.l      A0, [A0 - 0x1206]
000001D2  D1CD                     add.l      A0, A5
000001D4  3C10                     move.w     D6, [A0]
000001D6  E8C6 048E                bftst      D6 {18:14}
000001DA  6730                     beq        +0x32 /* 0000020C */
000001DC  7A01                     moveq.l    D5, 0x01
000001DE  6026                     bra        +0x28 /* 00000206 */
label000001E0:
000001E0  7800                     moveq.l    D4, 0x00
000001E2  3805                     move.w     D4, D5
000001E4  3635 4B20 B052           move.w     D3, [A5 - 0x4FAE + D4 * 2]
000001EA  3006                     move.w     D0, D6
000001EC  C043                     and.w      D0, D3
000001EE  6714                     beq        +0x16 /* 00000204 */
000001F0  B646                     cmp.w      D3, D6
000001F2  6710                     beq        +0x12 /* 00000204 */
000001F4  1BBC 0001 4920 D6D7      move.b     [A5 - 0x2929 + D4], 0x1
000001FC  1BBC 0001 4920 D6E4      move.b     [A5 - 0x291C + D4], 0x1
label00000204:
00000204  5245                     addq.w     D5, 1
label00000206:
00000206  0C45 000D                cmpi.w     D5, 0xD /* '\r' */
0000020A  65D4                     bcs        -0x2A /* 000001E0 */
label0000020C:
0000020C  5207                     addq.b     D7, 1
label0000020E:
0000020E  0C07 0028                cmpi.b     D7, 0x28 /* '(' */
00000212  65AE                     bcs        -0x50 /* 000001C2 */
00000214  4CDF 00F8                movem.l    D3,D4,D5,D6,D7, [A7]+
00000218  4E75                     rts
export_154:
0000021A  48E7 0308                movem.l    -[A7], D6,D7,A4
0000021E  426D 9A64                clr.w      [A5 - 0x659C]
00000222  6000 01B2                bra        +0x1B4 /* 000003D6 */
label00000226:
00000226  302D 9A64                move.w     D0, [A5 - 0x659C]
0000022A  D06D ECA2                add.w      D0, [A5 - 0x135E]
0000022E  7200                     moveq.l    D1, 0x00
00000230  3200                     move.w     D1, D0
00000232  49F5 1B20 EDFA           lea.l      A4, [A5 - 0x1206 + D1 * 2]
00000238  3014                     move.w     D0, [A4]
0000023A  0240 3FFF                andi.w     D0, 0x3FFF
0000023E  3B40 9A60                move.w     [A5 - 0x65A0], D0
00000242  3880                     move.w     [A4], D0
00000244  7E00                     moveq.l    D7, 0x00
00000246  3B7C 0001 9A62           move.w     [A5 - 0x659E], 0x1
0000024C  6000 017C                bra        +0x17E /* 000003CA */
label00000250:
00000250  082D 0000 9A61           btst.b     [A5 - 0x659F], 0x0
00000256  6700 0168                beq        +0x16A /* 000003C0 */
0000025A  1C35 7120 D6BD           move.b     D6, [A5 - 0x2943 + D7]
00000260  0C06 00FF                cmpi.b     D6, 0xFF
00000264  6700 015A                beq        +0x15C /* 000003C0 */
00000268  4A35 7120 D6E4           tst.b      [A5 - 0x291C + D7]
0000026E  6700 0150                beq        +0x152 /* 000003C0 */
00000272  1B46 9A66                move.b     [A5 - 0x659A], D6
00000276  1B75 7120 D6CA 9A67      move.b     [A5 - 0x6599], [A5 - 0x2936 + D7]
0000027E  7000                     moveq.l    D0, 0x00
00000280  302D 9A64                move.w     D0, [A5 - 0x659C]
00000284  49ED F298                lea.l      A4, [A5 - 0xD68]
00000288  D08C                     add.l      D0, A4
0000028A  2840                     movea.l    A4, D0
0000028C  102D 9A66                move.b     D0, [A5 - 0x659A]
00000290  B014                     cmp.b      D0, [A4]
00000292  6404                     bcc        +0x6 /* 00000298 */
00000294  18AD 9A66                move.b     [A4], [A5 - 0x659A]
label00000298:
00000298  7000                     moveq.l    D0, 0x00
0000029A  302D 9A64                move.w     D0, [A5 - 0x659C]
0000029E  49ED F2C0                lea.l      A4, [A5 - 0xD40]
000002A2  D08C                     add.l      D0, A4
000002A4  2840                     movea.l    A4, D0
000002A6  102D 9A67                move.b     D0, [A5 - 0x6599]
000002AA  B014                     cmp.b      D0, [A4]
000002AC  6304                     bls        +0x6 /* 000002B2 */
000002AE  18AD 9A67                move.b     [A4], [A5 - 0x6599]
label000002B2:
000002B2  302D ECA2                move.w     D0, [A5 - 0x135E]
000002B6  D06D 9A64                add.w      D0, [A5 - 0x659C]
000002BA  7200                     moveq.l    D1, 0x00
000002BC  3200                     move.w     D1, D0
000002BE  302D 9A62                move.w     D0, [A5 - 0x659E]
000002C2  B175 1B20 EDFA           xor.w      [A5 - 0x1206 + D1 * 2], D0
000002C8  2F3C 000A 0005           move.l     -[A7], 0xA0005
000002CE  4EAD 03E2                jsr        [A5 + 0x3E2 /* export_120, CODE:2 @ 00003CEE */]
000002D2  7C00                     moveq.l    D6, 0x00
000002D4  1C2D 9A66                move.b     D6, [A5 - 0x659A]
000002D8  322D ECA2                move.w     D1, [A5 - 0x135E]
000002DC  D26D 9A64                add.w      D1, [A5 - 0x659C]
000002E0  E749                     lsl        D1.w, 3
000002E2  3406                     move.w     D2, D6
000002E4  E54A                     lsl        D2.w, 2
000002E6  D446                     add.w      D2, D6
000002E8  ED4A                     lsl        D2.w, 6
000002EA  D242                     add.w      D1, D2
000002EC  7400                     moveq.l    D2, 0x00
000002EE  3401                     move.w     D2, D1
000002F0  D082                     add.l      D0, D2
000002F2  2B40 EF3A                move.l     [A5 - 0x10C6], D0
000002F6  2EBC 000A 0001           move.l     [A7], 0xA0001
000002FC  4EAD 03E2                jsr        [A5 + 0x3E2 /* export_120, CODE:2 @ 00003CEE */]
00000300  7C00                     moveq.l    D6, 0x00
00000302  1C2D 9A66                move.b     D6, [A5 - 0x659A]
00000306  322D ECA2                move.w     D1, [A5 - 0x135E]
0000030A  D26D 9A64                add.w      D1, [A5 - 0x659C]
0000030E  E749                     lsl        D1.w, 3
00000310  3406                     move.w     D2, D6
00000312  E54A                     lsl        D2.w, 2
00000314  D446                     add.w      D2, D6
00000316  ED4A                     lsl        D2.w, 6
00000318  D242                     add.w      D1, D2
0000031A  7400                     moveq.l    D2, 0x00
0000031C  3401                     move.w     D2, D1
0000031E  D082                     add.l      D0, D2
00000320  2B40 EF3E                move.l     [A5 - 0x10C2], D0
00000324  2EBC 000A 0009           move.l     [A7], 0xA0009 /* '\n\0\t' */
0000032A  4EAD 03E2                jsr        [A5 + 0x3E2 /* export_120, CODE:2 @ 00003CEE */]
0000032E  7C00                     moveq.l    D6, 0x00
00000330  1C2D 9A66                move.b     D6, [A5 - 0x659A]
00000334  322D ECA2                move.w     D1, [A5 - 0x135E]
00000338  D26D 9A64                add.w      D1, [A5 - 0x659C]
0000033C  7400                     moveq.l    D2, 0x00
0000033E  3401                     move.w     D2, D1
00000340  D082                     add.l      D0, D2
00000342  3206                     move.w     D1, D6
00000344  E549                     lsl        D1.w, 2
00000346  D246                     add.w      D1, D6
00000348  E749                     lsl        D1.w, 3
0000034A  3041                     movea.w    A0, D1
0000034C  D088                     add.l      D0, A0
0000034E  2B40 EF46                move.l     [A5 - 0x10BA], D0
00000352  122D 9A67                move.b     D1, [A5 - 0x6599]
00000356  922D 9A66                sub.b      D1, [A5 - 0x659A]
0000035A  1B41 EF58                move.b     [A5 - 0x10A8], D1
0000035E  4A01                     tst.b      D1
00000360  588F                     addq.l     A7, 4
00000362  675C                     beq        +0x5E /* 000003C0 */
00000364  082D 0001 C93F           btst.b     [A5 - 0x36C1], 0x1
0000036A  6750                     beq        +0x52 /* 000003BC */
0000036C  7000                     moveq.l    D0, 0x00
0000036E  102D 9A67                move.b     D0, [A5 - 0x6599]
00000372  3F00                     move.w     -[A7], D0
00000374  302D 9A64                move.w     D0, [A5 - 0x659C]
00000378  E748                     lsl        D0.w, 3
0000037A  5040                     addq.w     D0, 8
0000037C  3F00                     move.w     -[A7], D0
0000037E  7000                     moveq.l    D0, 0x00
00000380  102D 9A66                move.b     D0, [A5 - 0x659A]
00000384  3F00                     move.w     -[A7], D0
00000386  302D 9A64                move.w     D0, [A5 - 0x659C]
0000038A  E748                     lsl        D0.w, 3
0000038C  3F00                     move.w     -[A7], D0
0000038E  4EAD 0B32                jsr        [A5 + 0xB32 /* export_354, CODE:5 @ 000005F4 */]
00000392  4A40                     tst.w      D0
00000394  508F                     addq.l     A7, 8
00000396  6706                     beq        +0x8 /* 0000039E */
00000398  4EAD 0B0A                jsr        [A5 + 0xB0A /* export_349, CODE:5 @ 00003D0C */]
0000039C  6022                     bra        +0x24 /* 000003C0 */
label0000039E:
0000039E  7000                     moveq.l    D0, 0x00
000003A0  102D EF58                move.b     D0, [A5 - 0x10A8]
000003A4  3F00                     move.w     -[A7], D0
000003A6  3F3C 0008                move.w     -[A7], 0x8
000003AA  2F2D EF3A                move.l     -[A7], [A5 - 0x10C6]
000003AE  2F2D EF3E                move.l     -[A7], [A5 - 0x10C2]
000003B2  4EBA FD98                jsr        [PC - 0x268 /* 0000014C */]
000003B6  4FEF 000C                lea.l      A7, [A7 + 0xC]
000003BA  6004                     bra        +0x6 /* 000003C0 */
label000003BC:
000003BC  4EBA FC42                jsr        [PC - 0x3BE /* 00000000 */]
label000003C0:
000003C0  5247                     addq.w     D7, 1
000003C2  E2ED 9A60                lsr   .w   [A5 - 0x65A0]
000003C6  E3ED 9A62                lsl   .w   [A5 - 0x659E]
label000003CA:
000003CA  4A6D 9A60                tst.w      [A5 - 0x65A0]
000003CE  6600 FE80                bne        -0x17E /* 00000250 */
000003D2  526D 9A64                addq.w     [A5 - 0x659C], 1
label000003D6:
000003D6  0C6D 0028 9A64           cmpi.w     [A5 - 0x659C], 0x28 /* '(' */
000003DC  6500 FE48                bcs        -0x1B6 /* 00000226 */
000003E0  3B7C 0001 9A64           move.w     [A5 - 0x659C], 0x1
000003E6  6010                     bra        +0x12 /* 000003F8 */
label000003E8:
000003E8  7000                     moveq.l    D0, 0x00
000003EA  302D 9A64                move.w     D0, [A5 - 0x659C]
000003EE  4235 0920 D6E4           clr.b      [A5 - 0x291C + D0]
000003F4  526D 9A64                addq.w     [A5 - 0x659C], 1
label000003F8:
000003F8  0C6D 000D 9A64           cmpi.w     [A5 - 0x659C], 0xD /* '\r' */
000003FE  65E8                     bcs        -0x16 /* 000003E8 */
00000400  4CDF 10C0                movem.l    D6,D7,A4, [A7]+
00000404  4E75                     rts
export_155:
00000406  4E56 FFFE                link       A6, -0x0002
0000040A  48E7 1F08                movem.l    -[A7], D3,D4,D5,D6,D7,A4
0000040E  3A2E 000E                move.w     D5, [A6 + 0xE]
00000412  3C2E 0010                move.w     D6, [A6 + 0x10]
00000416  7060                     moveq.l    D0, 0x60
00000418  C1EE 0008                muls.w     D0, [A6 + 0x8]
0000041C  3E35 0920 F290           move.w     D7, [A5 - 0xD70 + D0]
00000422  BE45                     cmp.w      D7, D5
00000424  6D00 00D2                blt        +0xD4 /* 000004F8 */
00000428  4A46                     tst.w      D6
0000042A  6D00 00CC                blt        +0xCE /* 000004F8 */
0000042E  4A45                     tst.w      D5
00000430  6C02                     bge        +0x4 /* 00000434 */
00000432  7A00                     moveq.l    D5, 0x00
label00000434:
00000434  BE46                     cmp.w      D7, D6
00000436  6C02                     bge        +0x4 /* 0000043A */
00000438  3C07                     move.w     D6, D7
label0000043A:
0000043A  4A6E 0008                tst.w      [A6 + 0x8]
0000043E  664A                     bne        +0x4C /* 0000048A */
00000440  4A6E 0012                tst.w      [A6 + 0x12]
00000444  6744                     beq        +0x46 /* 0000048A */
00000446  306E 000A                movea.w    A0, [A6 + 0xA]
0000044A  2E08                     move.l     D7, A0
0000044C  8FFC 0008                divs.w     D7, 0x8
00000450  DE6D ECA2                add.w      D7, [A5 - 0x135E]
00000454  306E 000C                movea.w    A0, [A6 + 0xC]
00000458  2608                     move.l     D3, A0
0000045A  87FC 0008                divs.w     D3, 0x8
0000045E  D66D ECA2                add.w      D3, [A5 - 0x135E]
00000462  4A47                     tst.w      D7
00000464  6C02                     bge        +0x4 /* 00000468 */
00000466  7E00                     moveq.l    D7, 0x00
label00000468:
00000468  0C43 00A0                cmpi.w     D3, 0xA0
0000046C  6D04                     blt        +0x6 /* 00000472 */
0000046E  363C 009F                move.w     D3, 0x9F
label00000472:
00000472  3807                     move.w     D4, D7
00000474  49F5 4320 EDFA           lea.l      A4, [A5 - 0x1206 + D4 * 2]
0000047A  600A                     bra        +0xC /* 00000486 */
label0000047C:
0000047C  302E 0012                move.w     D0, [A6 + 0x12]
00000480  8154                     or.w       [A4], D0
00000482  5244                     addq.w     D4, 1
00000484  548C                     addq.l     A4, 2
label00000486:
00000486  B644                     cmp.w      D3, D4
00000488  6CF2                     bge        -0xC /* 0000047C */
label0000048A:
0000048A  306E 000A                movea.w    A0, [A6 + 0xA]
0000048E  2E08                     move.l     D7, A0
00000490  8FFC 0008                divs.w     D7, 0x8
00000494  306E 000C                movea.w    A0, [A6 + 0xC]
00000498  2608                     move.l     D3, A0
0000049A  87FC 0008                divs.w     D3, 0x8
0000049E  0C47 0028                cmpi.w     D7, 0x28 /* '(' */
000004A2  6C54                     bge        +0x56 /* 000004F8 */
000004A4  4A43                     tst.w      D3
000004A6  6D50                     blt        +0x52 /* 000004F8 */
000004A8  4A47                     tst.w      D7
000004AA  6C02                     bge        +0x4 /* 000004AE */
000004AC  7E00                     moveq.l    D7, 0x00
label000004AE:
000004AE  0C43 0028                cmpi.w     D3, 0x28 /* '(' */
000004B2  6D02                     blt        +0x4 /* 000004B6 */
000004B4  7627                     moveq.l    D3, 0x27
label000004B6:
000004B6  3807                     move.w     D4, D7
000004B8  603A                     bra        +0x3C /* 000004F4 */
label000004BA:
000004BA  7060                     moveq.l    D0, 0x60
000004BC  C1EE 0008                muls.w     D0, [A6 + 0x8]
000004C0  49ED F298                lea.l      A4, [A5 - 0xD68]
000004C4  D08C                     add.l      D0, A4
000004C6  3844                     movea.w    A4, D4
000004C8  D08C                     add.l      D0, A4
000004CA  2840                     movea.l    A4, D0
000004CC  7000                     moveq.l    D0, 0x00
000004CE  1014                     move.b     D0, [A4]
000004D0  B045                     cmp.w      D0, D5
000004D2  6F02                     ble        +0x4 /* 000004D6 */
000004D4  1885                     move.b     [A4], D5
label000004D6:
000004D6  7060                     moveq.l    D0, 0x60
000004D8  C1EE 0008                muls.w     D0, [A6 + 0x8]
000004DC  49ED F2C0                lea.l      A4, [A5 - 0xD40]
000004E0  D08C                     add.l      D0, A4
000004E2  3844                     movea.w    A4, D4
000004E4  D08C                     add.l      D0, A4
000004E6  2840                     movea.l    A4, D0
000004E8  7000                     moveq.l    D0, 0x00
000004EA  1014                     move.b     D0, [A4]
000004EC  B046                     cmp.w      D0, D6
000004EE  6C02                     bge        +0x4 /* 000004F2 */
000004F0  1886                     move.b     [A4], D6
label000004F2:
000004F2  5244                     addq.w     D4, 1
label000004F4:
000004F4  B644                     cmp.w      D3, D4
000004F6  6CC2                     bge        -0x3C /* 000004BA */
label000004F8:
000004F8  4CDF 10F8                movem.l    D3,D4,D5,D6,D7,A4, [A7]+
000004FC  4E5E                     unlink     A6
000004FE  4E75                     rts
export_156:
00000500  2F3C 0000 045E           move.l     -[A7], 0x45E
00000506  4EAD 0A42                jsr        [A5 + 0xA42 /* export_324, CODE:5 @ 000034B4 */]
0000050A  588F                     addq.l     A7, 4
0000050C  4E75                     rts
export_157:
0000050E  4E56 0000                link       A6, 0
00000512  4EAD 03D2                jsr        [A5 + 0x3D2 /* export_118, CODE:2 @ 00003ABC */]
00000516  3B7C 0001 EDD0           move.w     [A5 - 0x1230], 0x1
0000051C  302E 0008                move.w     D0, [A6 + 0x8]
00000520  6762                     beq        +0x64 /* 00000584 */
00000522  6B60                     bmi        +0x62 /* 00000584 */
00000524  0440 0083                subi.w     D0, 0x83
00000528  672E                     beq        +0x30 /* 00000558 */
0000052A  6A14                     bpl        +0x16 /* 00000540 */
0000052C  5640                     addq.w     D0, 3
0000052E  6754                     beq        +0x56 /* 00000584 */
00000530  6A08                     bpl        +0xA /* 0000053A */
00000532  0440 FF84                subi.w     D0, 0xFF84
00000536  6A4C                     bpl        +0x4E /* 00000584 */
00000538  6030                     bra        +0x32 /* 0000056A */
label0000053A:
0000053A  5540                     subq.w     D0, 2
0000053C  6A14                     bpl        +0x16 /* 00000552 */
0000053E  6044                     bra        +0x46 /* 00000584 */
label00000540:
00000540  5740                     subq.w     D0, 3
00000542  672C                     beq        +0x2E /* 00000570 */
00000544  6A06                     bpl        +0x8 /* 0000054C */
00000546  5240                     addq.w     D0, 1
00000548  6A1A                     bpl        +0x1C /* 00000564 */
0000054A  6012                     bra        +0x14 /* 0000055E */
label0000054C:
0000054C  5540                     subq.w     D0, 2
0000054E  6A34                     bpl        +0x36 /* 00000584 */
00000550  6028                     bra        +0x2A /* 0000057A */
label00000552:
00000552  4EBA 03E4                jsr        [PC + 0x3E4 /* 00000938 */]
00000556  602C                     bra        +0x2E /* 00000584 */
label00000558:
00000558  4EBA 03E0                jsr        [PC + 0x3E0 /* 0000093A */]
0000055C  6026                     bra        +0x28 /* 00000584 */
label0000055E:
0000055E  4EBA 03DC                jsr        [PC + 0x3DC /* 0000093C */]
00000562  6020                     bra        +0x22 /* 00000584 */
label00000564:
00000564  4EBA 03D8                jsr        [PC + 0x3D8 /* 0000093E */]
00000568  601A                     bra        +0x1C /* 00000584 */
label0000056A:
0000056A  4EAD 08D2                jsr        [A5 + 0x8D2 /* export_278, CODE:4 @ 000022BC */]
0000056E  6014                     bra        +0x16 /* 00000584 */
label00000570:
00000570  4267                     clr.w      -[A7]
00000572  4EBA 03CC                jsr        [PC + 0x3CC /* 00000940 */]
00000576  548F                     addq.l     A7, 2
00000578  600A                     bra        +0xC /* 00000584 */
label0000057A:
0000057A  3F3C 0001                move.w     -[A7], 0x1
0000057E  4EBA 03C0                jsr        [PC + 0x3C0 /* 00000940 */]
00000582  548F                     addq.l     A7, 2
label00000584:
00000584  3B7C 0001 F732           move.w     [A5 - 0x8CE], 0x1
0000058A  4E5E                     unlink     A6
0000058C  4E75                     rts
export_158:
fn0000058E:
0000058E  4E56 0000                link       A6, 0
00000592  42A7                     clr.l      -[A7]
00000594  4267                     clr.w      -[A7]
00000596  4EBA 2D4A                jsr        [PC + 0x2D4A /* 000032E2 */]
0000059A  3B6D EC9E ECA0           move.w     [A5 - 0x1360], [A5 - 0x1362]
000005A0  4EAD 0732                jsr        [A5 + 0x732 /* export_226, CODE:4 @ 000058F2 */]
000005A4  4EAD 03D2                jsr        [A5 + 0x3D2 /* export_118, CODE:2 @ 00003ABC */]
000005A8  3B7C 0002 EDD0           move.w     [A5 - 0x1230], 0x2
000005AE  3EBC 0001                move.w     [A7], 0x1
000005B2  4EAD 046A                jsr        [A5 + 0x46A /* export_137, CODE:2 @ 00004A3E */]
000005B6  3EBC 0001                move.w     [A7], 0x1
000005BA  4EAD 047A                jsr        [A5 + 0x47A /* export_139, CODE:2 @ 00004BFC */]
000005BE  3B7C 0001 EDD0           move.w     [A5 - 0x1230], 0x1
000005C4  4A6D F732                tst.w      [A5 - 0x8CE]
000005C8  5C8F                     addq.l     A7, 6
000005CA  6700 0084                beq        +0x86 /* 00000650 */
000005CE  426D F732                clr.w      [A5 - 0x8CE]
000005D2  4A6E 0008                tst.w      [A6 + 0x8]
000005D6  6778                     beq        +0x7A /* 00000650 */
000005D8  2F3C 000A 0001           move.l     -[A7], 0xA0001
000005DE  4EAD 03E2                jsr        [A5 + 0x3E2 /* export_120, CODE:2 @ 00003CEE */]
000005E2  7200                     moveq.l    D1, 0x00
000005E4  322D F296                move.w     D1, [A5 - 0xD6A]
000005E8  D081                     add.l      D0, D1
000005EA  2B40 EF3E                move.l     [A5 - 0x10C2], D0
000005EE  3EAD F292                move.w     [A7], [A5 - 0xD6E]
000005F2  4227                     clr.b      -[A7]
000005F4  2F00                     move.l     -[A7], D0
000005F6  4EAD 0C02                jsr        [A5 + 0xC02 /* export_380, CODE:6 @ 000000F6 */]
000005FA  302E 0008                move.w     D0, [A6 + 0x8]
000005FE  4FEF 000A                lea.l      A7, [A7 + 0xA]
00000602  674C                     beq        +0x4E /* 00000650 */
00000604  6B4A                     bmi        +0x4C /* 00000650 */
00000606  0440 0082                subi.w     D0, 0x82
0000060A  6A0C                     bpl        +0xE /* 00000618 */
0000060C  5440                     addq.w     D0, 2
0000060E  6A10                     bpl        +0x12 /* 00000620 */
00000610  0440 FF84                subi.w     D0, 0xFF84
00000614  6A3A                     bpl        +0x3C /* 00000650 */
00000616  6034                     bra        +0x36 /* 0000064C */
label00000618:
00000618  5D40                     subq.w     D0, 6
0000061A  6A34                     bpl        +0x36 /* 00000650 */
0000061C  5440                     addq.w     D0, 2
0000061E  6B30                     bmi        +0x32 /* 00000650 */
label00000620:
00000620  3F2D F290                move.w     -[A7], [A5 - 0xD70]
00000624  42A7                     clr.l      -[A7]
00000626  4EBA 2CBA                jsr        [PC + 0x2CBA /* 000032E2 */]
0000062A  3B7C 0002 EDD0           move.w     [A5 - 0x1230], 0x2
00000630  4257                     clr.w      [A7]
00000632  4EAD 046A                jsr        [A5 + 0x46A /* export_137, CODE:2 @ 00004A3E */]
00000636  4257                     clr.w      [A7]
00000638  4EAD 047A                jsr        [A5 + 0x47A /* export_139, CODE:2 @ 00004BFC */]
0000063C  4EAD 048A                jsr        [A5 + 0x48A /* export_141, CODE:2 @ 00004C18 */]
00000640  4EAD 0852                jsr        [A5 + 0x852 /* export_262, CODE:4 @ 00001640 */]
00000644  4EAD 0862                jsr        [A5 + 0x862 /* export_264, CODE:4 @ 0000164E */]
00000648  5C8F                     addq.l     A7, 6
0000064A  6004                     bra        +0x6 /* 00000650 */
label0000064C:
0000064C  4EAD 08CA                jsr        [A5 + 0x8CA /* export_277, CODE:4 @ 00002184 */]
label00000650:
00000650  4E5E                     unlink     A6
00000652  4E75                     rts
00000654  4E56 FFBA                link       A6, -0x0046
00000658  48E7 1F18                movem.l    -[A7], D3,D4,D5,D6,D7,A3,A4
0000065C  7E00                     moveq.l    D7, 0x00
0000065E  49EE FFC0                lea.l      A4, [A6 - 0x40]
00000662  47EE FFE0                lea.l      A3, [A6 - 0x20]
00000666  602E                     bra        +0x30 /* 00000696 */
label00000668:
00000668  3C2E 0008                move.w     D6, [A6 + 0x8]
0000066C  E94E                     lsl        D6.w, 4
0000066E  DC47                     add.w      D6, D7
00000670  7000                     moveq.l    D0, 0x00
00000672  1035 6120 9A68           move.b     D0, [A5 - 0x6598 + D6]
00000678  3680                     move.w     [A3], D0
0000067A  38B5 6320 9AAA           move.w     [A4], [A5 - 0x6556 + D6 * 2]
00000680  0C53 0018                cmpi.w     [A3], 0x18
00000684  660A                     bne        +0xC /* 00000690 */
00000686  302D F290                move.w     D0, [A5 - 0xD70]
0000068A  E648                     lsr        D0.w, 3
0000068C  5340                     subq.w     D0, 1
0000068E  3680                     move.w     [A3], D0
label00000690:
00000690  5247                     addq.w     D7, 1
00000692  548C                     addq.l     A4, 2
00000694  548B                     addq.l     A3, 2
label00000696:
00000696  0C47 0010                cmpi.w     D7, 0x10
0000069A  6DCC                     blt        -0x32 /* 00000668 */
0000069C  3C2D F290                move.w     D6, [A5 - 0xD70]
000006A0  E64E                     lsr        D6.w, 3
000006A2  3F2D F290                move.w     -[A7], [A5 - 0xD70]
000006A6  42A7                     clr.l      -[A7]
000006A8  4EBA 2C38                jsr        [PC + 0x2C38 /* 000032E2 */]
000006AC  4257                     clr.w      [A7]
000006AE  4EAD 046A                jsr        [A5 + 0x46A /* export_137, CODE:2 @ 00004A3E */]
000006B2  426E FFBE                clr.w      [A6 - 0x42]
000006B6  5C8F                     addq.l     A7, 6
000006B8  6000 0154                bra        +0x156 /* 0000080E */
label000006BC:
000006BC  3B6D ECD4 9B32           move.w     [A5 - 0x64CE], [A5 - 0x132C]
000006C2  7E00                     moveq.l    D7, 0x00
000006C4  6000 0100                bra        +0x102 /* 000007C6 */
label000006C8:
000006C8  3807                     move.w     D4, D7
000006CA  E54C                     lsl        D4.w, 2
000006CC  3636 42E0                move.w     D3, [A6 + D4.w * 2 - 0x20]
000006D0  3A36 42E2                move.w     D5, [A6 + D4.w * 2 - 0x1E]
000006D4  3D76 42E4 FFBC           move.w     [A6 - 0x44], [A6 + D4.w * 2 - 0x1C]
000006DA  3D76 42E6 FFBA           move.w     [A6 - 0x46], [A6 + D4.w * 2 - 0x1A]
000006E0  BA6E FFBA                cmp.w      D5, [A6 - 0x46]
000006E4  666C                     bne        +0x6E /* 00000752 */
000006E6  4A43                     tst.w      D3
000006E8  6D00 00DA                blt        +0xDC /* 000007C4 */
000006EC  0C6E 0028 FFBC           cmpi.w     [A6 - 0x44], 0x28 /* '(' */
000006F2  6C00 00D0                bge        +0xD2 /* 000007C4 */
000006F6  BC45                     cmp.w      D6, D5
000006F8  6F00 00CA                ble        +0xCC /* 000007C4 */
000006FC  3003                     move.w     D0, D3
000006FE  E748                     lsl        D0.w, 3
00000700  122D 9C86                move.b     D1, [A5 - 0x637A]
00000704  E260                     asr        D0.w, D1
00000706  3203                     move.w     D1, D3
00000708  E749                     lsl        D1.w, 3
0000070A  D240                     add.w      D1, D0
0000070C  3B41 9D52                move.w     [A5 - 0x62AE], D1
00000710  3805                     move.w     D4, D5
00000712  E74C                     lsl        D4.w, 3
00000714  3004                     move.w     D0, D4
00000716  122D 9C86                move.b     D1, [A5 - 0x637A]
0000071A  E260                     asr        D0.w, D1
0000071C  D044                     add.w      D0, D4
0000071E  3B40 9D50                move.w     [A5 - 0x62B0], D0
00000722  362E FFBC                move.w     D3, [A6 - 0x44]
00000726  E74B                     lsl        D3.w, 3
00000728  5043                     addq.w     D3, 8
0000072A  3003                     move.w     D0, D3
0000072C  122D 9C86                move.b     D1, [A5 - 0x637A]
00000730  E260                     asr        D0.w, D1
00000732  D043                     add.w      D0, D3
00000734  3B40 9D56                move.w     [A5 - 0x62AA], D0
00000738  7008                     moveq.l    D0, 0x08
0000073A  D044                     add.w      D0, D4
0000073C  122D 9C86                move.b     D1, [A5 - 0x637A]
00000740  E260                     asr        D0.w, D1
00000742  7208                     moveq.l    D1, 0x08
00000744  D244                     add.w      D1, D4
00000746  D240                     add.w      D1, D0
00000748  3B41 9D54                move.w     [A5 - 0x62AC], D1
0000074C  4EAD 0862                jsr        [A5 + 0x862 /* export_264, CODE:4 @ 0000164E */]
00000750  6072                     bra        +0x74 /* 000007C4 */
label00000752:
00000752  4A43                     tst.w      D3
00000754  6D6E                     blt        +0x70 /* 000007C4 */
00000756  0C43 0028                cmpi.w     D3, 0x28 /* '(' */
0000075A  6C68                     bge        +0x6A /* 000007C4 */
0000075C  BA6E FFBA                cmp.w      D5, [A6 - 0x46]
00000760  6C62                     bge        +0x64 /* 000007C4 */
00000762  4A45                     tst.w      D5
00000764  6C02                     bge        +0x4 /* 00000768 */
00000766  7A00                     moveq.l    D5, 0x00
label00000768:
00000768  BC6E FFBA                cmp.w      D6, [A6 - 0x46]
0000076C  6C04                     bge        +0x6 /* 00000772 */
0000076E  3D46 FFBA                move.w     [A6 - 0x46], D6
label00000772:
00000772  3803                     move.w     D4, D3
00000774  E74C                     lsl        D4.w, 3
00000776  3004                     move.w     D0, D4
00000778  122D 9C86                move.b     D1, [A5 - 0x637A]
0000077C  E260                     asr        D0.w, D1
0000077E  D044                     add.w      D0, D4
00000780  3B40 9D52                move.w     [A5 - 0x62AE], D0
00000784  3005                     move.w     D0, D5
00000786  E748                     lsl        D0.w, 3
00000788  122D 9C86                move.b     D1, [A5 - 0x637A]
0000078C  E260                     asr        D0.w, D1
0000078E  3205                     move.w     D1, D5
00000790  E749                     lsl        D1.w, 3
00000792  D240                     add.w      D1, D0
00000794  3B41 9D50                move.w     [A5 - 0x62B0], D1
00000798  7608                     moveq.l    D3, 0x08
0000079A  D644                     add.w      D3, D4
0000079C  3003                     move.w     D0, D3
0000079E  122D 9C86                move.b     D1, [A5 - 0x637A]
000007A2  E260                     asr        D0.w, D1
000007A4  D043                     add.w      D0, D3
000007A6  3B40 9D56                move.w     [A5 - 0x62AA], D0
000007AA  382E FFBA                move.w     D4, [A6 - 0x46]
000007AE  E74C                     lsl        D4.w, 3
000007B0  5044                     addq.w     D4, 8
000007B2  3004                     move.w     D0, D4
000007B4  122D 9C86                move.b     D1, [A5 - 0x637A]
000007B8  E260                     asr        D0.w, D1
000007BA  D044                     add.w      D0, D4
000007BC  3B40 9D54                move.w     [A5 - 0x62AC], D0
000007C0  4EAD 0862                jsr        [A5 + 0x862 /* export_264, CODE:4 @ 0000164E */]
label000007C4:
000007C4  5247                     addq.w     D7, 1
label000007C6:
000007C6  0C47 0004                cmpi.w     D7, 0x4
000007CA  6D00 FEFC                blt        -0x102 /* 000006C8 */
000007CE  7E00                     moveq.l    D7, 0x00
000007D0  49EE FFC0                lea.l      A4, [A6 - 0x40]
000007D4  47EE FFE0                lea.l      A3, [A6 - 0x20]
000007D8  600A                     bra        +0xC /* 000007E4 */
label000007DA:
000007DA  3014                     move.w     D0, [A4]
000007DC  D153                     add.w      [A3], D0
000007DE  5247                     addq.w     D7, 1
000007E0  548C                     addq.l     A4, 2
000007E2  548B                     addq.l     A3, 2
label000007E4:
000007E4  0C47 0010                cmpi.w     D7, 0x10
000007E8  6DF0                     blt        -0xE /* 000007DA */
000007EA  4A6D F27E                tst.w      [A5 - 0xD82]
000007EE  660E                     bne        +0x10 /* 000007FE */
label000007F0:
000007F0  302D 9B32                move.w     D0, [A5 - 0x64CE]
000007F4  D06D C9A2                add.w      D0, [A5 - 0x365E]
000007F8  B06D ECD4                cmp.w      D0, [A5 - 0x132C]
000007FC  62F2                     bhi        -0xC /* 000007F0 */
label000007FE:
000007FE  4EAD 048A                jsr        [A5 + 0x48A /* export_141, CODE:2 @ 00004C18 */]
00000802  4EAD 049A                jsr        [A5 + 0x49A /* export_143, CODE:2 @ 00004C1C */]
00000806  4EAD 0492                jsr        [A5 + 0x492 /* export_142, CODE:2 @ 00004C1A */]
0000080A  526E FFBE                addq.w     [A6 - 0x42], 1
label0000080E:
0000080E  306E 0008                movea.w    A0, [A6 + 0x8]
00000812  D1CD                     add.l      A0, A5
00000814  7000                     moveq.l    D0, 0x00
00000816  1028 9B2C                move.b     D0, [A0 - 0x64D4]
0000081A  B06E FFBE                cmp.w      D0, [A6 - 0x42]
0000081E  6E00 FE9C                bgt        -0x162 /* 000006BC */
00000822  4267                     clr.w      -[A7]
00000824  4EAD 0482                jsr        [A5 + 0x482 /* export_140, CODE:2 @ 00004C04 */]
00000828  4CEE 18F8 FF9E           movem.l    D3,D4,D5,D6,D7,A3,A4, [A6 - 0x62]
0000082E  4E5E                     unlink     A6
00000830  4E75                     rts
00000832  4E56 FF4C                link       A6, -0x00B4
00000836  48E7 0718                movem.l    -[A7], D5,D6,D7,A3,A4
0000083A  7E00                     moveq.l    D7, 0x00
0000083C  6014                     bra        +0x16 /* 00000852 */
label0000083E:
0000083E  3F3C 0031                move.w     -[A7], 0x31 /* '1' */
00000842  4EAD 08F2                jsr        [A5 + 0x8F2 /* export_282, CODE:5 @ 00000AAC */]
00000846  7200                     moveq.l    D1, 0x00
00000848  3207                     move.w     D1, D7
0000084A  3D80 1AB0                move.w     [A6 + D1 * 2 - 0x50], D0
0000084E  548F                     addq.l     A7, 2
00000850  5247                     addq.w     D7, 1
label00000852:
00000852  0C47 0028                cmpi.w     D7, 0x28 /* '(' */
00000856  65E6                     bcs        -0x18 /* 0000083E */
00000858  7E00                     moveq.l    D7, 0x00
0000085A  600C                     bra        +0xE /* 00000868 */
label0000085C:
0000085C  7000                     moveq.l    D0, 0x00
0000085E  3007                     move.w     D0, D7
00000860  3D87 0B20 FF4C           move.w     [A6 - 0xB4 + D0 * 2], D7
00000866  5247                     addq.w     D7, 1
label00000868:
00000868  0C47 0032                cmpi.w     D7, 0x32 /* '2' */
0000086C  65EE                     bcs        -0x10 /* 0000085C */
0000086E  7E00                     moveq.l    D7, 0x00
00000870  6028                     bra        +0x2A /* 0000089A */
label00000872:
00000872  3F3C 0031                move.w     -[A7], 0x31 /* '1' */
00000876  4EAD 08F2                jsr        [A5 + 0x8F2 /* export_282, CODE:5 @ 00000AAC */]
0000087A  3C00                     move.w     D6, D0
0000087C  7000                     moveq.l    D0, 0x00
0000087E  3007                     move.w     D0, D7
00000880  49F6 0B20 FF4C           lea.l      A4, [A6 - 0xB4 + D0 * 2]
00000886  3A14                     move.w     D5, [A4]
00000888  7000                     moveq.l    D0, 0x00
0000088A  3006                     move.w     D0, D6
0000088C  47F6 0B20 FF4C           lea.l      A3, [A6 - 0xB4 + D0 * 2]
00000892  3893                     move.w     [A4], [A3]
00000894  3685                     move.w     [A3], D5
00000896  548F                     addq.l     A7, 2
00000898  5247                     addq.w     D7, 1
label0000089A:
0000089A  0C47 0032                cmpi.w     D7, 0x32 /* '2' */
0000089E  65D2                     bcs        -0x2C /* 00000872 */
000008A0  426D F286                clr.w      [A5 - 0xD7A]
000008A4  3B6D F28C F412           move.w     [A5 - 0xBEE], [A5 - 0xD74]
000008AA  3B6D F290 F41A           move.w     [A5 - 0xBE6], [A5 - 0xD70]
000008B0  426D F418                clr.w      [A5 - 0xBE8]
000008B4  4A2D F295                tst.b      [A5 - 0xD6B]
000008B8  6706                     beq        +0x8 /* 000008C0 */
000008BA  3B6D ECA2 F418           move.w     [A5 - 0xBE8], [A5 - 0x135E]
label000008C0:
000008C0  7E00                     moveq.l    D7, 0x00
000008C2  605A                     bra        +0x5C /* 0000091E */
label000008C4:
000008C4  426D F40C                clr.w      [A5 - 0xBF4]
000008C8  603E                     bra        +0x40 /* 00000908 */
label000008CA:
000008CA  7000                     moveq.l    D0, 0x00
000008CC  302D F40C                move.w     D0, [A5 - 0xBF4]
000008D0  49F6 0AB0                lea.l      A4, [A6 + D0 * 2 - 0x50]
000008D4  3014                     move.w     D0, [A4]
000008D6  3236 0320 FF4C           move.w     D1, [A6 - 0xB4 + D0 * 2]
000008DC  E549                     lsl        D1.w, 2
000008DE  0241 00FC                andi.w     D1, 0xFC
000008E2  3B41 F40E                move.w     [A5 - 0xBF2], D1
000008E6  5841                     addq.w     D1, 4
000008E8  3B41 F410                move.w     [A5 - 0xBF0], D1
000008EC  5254                     addq.w     [A4], 1
000008EE  0C54 0032                cmpi.w     [A4], 0x32 /* '2' */
000008F2  6602                     bne        +0x4 /* 000008F6 */
000008F4  4254                     clr.w      [A4]
label000008F6:
000008F6  302D F40E                move.w     D0, [A5 - 0xBF2]
000008FA  B06D F41A                cmp.w      D0, [A5 - 0xBE6]
000008FE  6404                     bcc        +0x6 /* 00000904 */
00000900  4EAD 0472                jsr        [A5 + 0x472 /* export_138, CODE:2 @ 00004B84 */]
label00000904:
00000904  526D F40C                addq.w     [A5 - 0xBF4], 1
label00000908:
00000908  0C6D 0028 F40C           cmpi.w     [A5 - 0xBF4], 0x28 /* '(' */
0000090E  65BA                     bcs        -0x44 /* 000008CA */
00000910  4EAD 048A                jsr        [A5 + 0x48A /* export_141, CODE:2 @ 00004C18 */]
00000914  4EAD 049A                jsr        [A5 + 0x49A /* export_143, CODE:2 @ 00004C1C */]
00000918  4EAD 0492                jsr        [A5 + 0x492 /* export_142, CODE:2 @ 00004C1A */]
0000091C  5247                     addq.w     D7, 1
label0000091E:
0000091E  0C47 0032                cmpi.w     D7, 0x32 /* '2' */
00000922  65A0                     bcs        -0x5E /* 000008C4 */
00000924  3F2D F41A                move.w     -[A7], [A5 - 0xBE6]
00000928  42A7                     clr.l      -[A7]
0000092A  4EBA 29B6                jsr        [PC + 0x29B6 /* 000032E2 */]
0000092E  4CEE 18E0 FF38           movem.l    D5,D6,D7,A3,A4, [A6 - 0xC8]
00000934  4E5E                     unlink     A6
00000936  4E75                     rts
fn00000938:
00000938  4E75 4E75 4E75 4E75      dc.b       "NuNuNuNu"
// begin alternate branch 0000093A-0000093C
fn0000093A:
0000093A  4E75                     rts
// end alternate branch 0000093A-0000093C
// begin alternate branch 0000093C-0000093E
fn0000093C:
0000093C  4E75                     rts
// end alternate branch 0000093C-0000093E
// begin alternate branch 0000093E-00000940
fn0000093E:
0000093E  4E75                     rts
// end alternate branch 0000093E-00000940
fn0000093A: // (misaligned)
fn0000093C: // (misaligned)
fn0000093E: // (misaligned)
fn00000940:
00000940  4E56 0000                link       A6, 0
00000944  4E5E                     unlink     A6
00000946  4E75                     rts
fn00000948:
00000948  4E56 0000                link       A6, 0
0000094C  48E7 1100                movem.l    -[A7], D3,D7
00000950  206E 0008                movea.l    A0, [A6 + 0x8]
00000954  2E10                     move.l     D7, [A0]
00000956  2007                     move.l     D0, D7
00000958  ECC0 0018                bfclr      D0 {0:24}
0000095C  7218                     moveq.l    D1, 0x18
0000095E  E3A8                     lsl        D0, D1
00000960  2207                     move.l     D1, D7
00000962  0281 0000 FF00           andi.l     D1, 0xFF00
00000968  E189                     lsl        D1, 8
0000096A  2407                     move.l     D2, D7
0000096C  0282 00FF 0000           andi.l     D2, 0xFF0000
00000972  E08A                     lsr        D2, 8
00000974  ECC7 0218                bfclr      D7 {8:24}
00000978  7618                     moveq.l    D3, 0x18
0000097A  E6AF                     lsr        D7, D3
0000097C  8E82                     or.l       D7, D2
0000097E  8E81                     or.l       D7, D1
00000980  8E80                     or.l       D7, D0
00000982  2087                     move.l     [A0], D7
00000984  4CDF 0088                movem.l    D3,D7, [A7]+
00000988  4E5E                     unlink     A6
0000098A  4E75                     rts
fn0000098C:
0000098C  4E56 FFFC                link       A6, -0x0004
00000990  2F2E 0008                move.l     -[A7], [A6 + 0x8]
00000994  4EAD 0BFA                jsr        [A5 + 0xBFA /* export_379, CODE:6 @ 00000076 */]
00000998  2D40 FFFC                move.l     [A6 - 0x4], D0
0000099C  486E FFFC                pea.l      [A6 - 0x4]
000009A0  4EBA FFA6                jsr        [PC - 0x5A /* 00000948 */]
000009A4  202E FFFC                move.l     D0, [A6 - 0x4]
000009A8  4E5E                     unlink     A6
000009AA  4E75                     rts
export_161:
fn000009AC:
000009AC  4E56 0000                link       A6, 0
000009B0  2F07                     move.l     -[A7], D7
000009B2  2E2E 0008                move.l     D7, [A6 + 0x8]
000009B6  70FF                     moveq.l    D0, 0xFFFFFFFF
000009B8  C007                     and.b      D0, D7
000009BA  1B40 9B34                move.b     [A5 - 0x64CC], D0
000009BE  2007                     move.l     D0, D7
000009C0  0280 0000 FF00           andi.l     D0, 0xFF00
000009C6  E080                     asr        D0, 8
000009C8  1B40 9B35                move.b     [A5 - 0x64CB], D0
000009CC  2007                     move.l     D0, D7
000009CE  0280 00FF 0000           andi.l     D0, 0xFF0000
000009D4  7210                     moveq.l    D1, 0x10
000009D6  E2A0                     asr        D0, D1
000009D8  1B40 9B36                move.b     [A5 - 0x64CA], D0
000009DC  2007                     move.l     D0, D7
000009DE  ECC0 0218                bfclr      D0 {8:24}
000009E2  7218                     moveq.l    D1, 0x18
000009E4  E2A8                     lsr        D0, D1
000009E6  1B40 9B37                move.b     [A5 - 0x64C9], D0
000009EA  422D 9B38                clr.b      [A5 - 0x64C8]
000009EE  41ED 9B34                lea.l      A0, [A5 - 0x64CC]
000009F2  2008                     move.l     D0, A0
000009F4  2E1F                     move.l     D7, [A7]+
000009F6  4E5E                     unlink     A6
000009F8  4E75                     rts
export_159:
fn000009FA:
000009FA  4E56 FFF6                link       A6, -0x000A
000009FE  2F07                     move.l     -[A7], D7
00000A00  4AAE 000C                tst.l      [A6 + 0xC]
00000A04  6724                     beq        +0x26 /* 00000A2A */
00000A06  7008                     moveq.l    D0, 0x08
00000A08  2B40 9B46                move.l     [A5 - 0x64BA], D0
00000A0C  206E 000C                movea.l    A0, [A6 + 0xC]
00000A10  4868 0004                pea.l      [A0 + 0x4]
00000A14  4EBA FF76                jsr        [PC - 0x8A /* 0000098C */]
00000A18  2B40 9B42                move.l     [A5 - 0x64BE], D0
00000A1C  7208                     moveq.l    D1, 0x08
00000A1E  D2AE 000C                add.l      D1, [A6 + 0xC]
00000A22  2B41 9B3E                move.l     [A5 - 0x64C2], D1
00000A26  588F                     addq.l     A7, 4
00000A28  6074                     bra        +0x76 /* 00000A9E */
label00000A2A:
00000A2A  206D 9B3E                movea.l    A0, [A5 - 0x64C2]
00000A2E  4868 0004                pea.l      [A0 + 0x4]
00000A32  4EBA FF58                jsr        [PC - 0xA8 /* 0000098C */]
00000A36  2E00                     move.l     D7, D0
00000A38  DFAD 9B46                add.l      [A5 - 0x64BA], D7
00000A3C  DFAD 9B3E                add.l      [A5 - 0x64C2], D7
00000A40  588F                     addq.l     A7, 4
00000A42  605A                     bra        +0x5C /* 00000A9E */
label00000A44:
00000A44  2F2D 9B3E                move.l     -[A7], [A5 - 0x64C2]
00000A48  4EAD 0BFA                jsr        [A5 + 0xBFA /* export_379, CODE:6 @ 00000076 */]
00000A4C  B0AE 0008                cmp.l      D0, [A6 + 0x8]
00000A50  588F                     addq.l     A7, 4
00000A52  6606                     bne        +0x8 /* 00000A5A */
00000A54  202D 9B3E                move.l     D0, [A5 - 0x64C2]
00000A58  6050                     bra        +0x52 /* 00000AAA */
label00000A5A:
00000A5A  206D 9B3E                movea.l    A0, [A5 - 0x64C2]
00000A5E  4868 0004                pea.l      [A0 + 0x4]
00000A62  4EBA FF28                jsr        [PC - 0xD8 /* 0000098C */]
00000A66  2E00                     move.l     D7, D0
00000A68  4A87                     tst.l      D7
00000A6A  588F                     addq.l     A7, 4
00000A6C  6E22                     bgt        +0x24 /* 00000A90 */
00000A6E  2F07                     move.l     -[A7], D7
00000A70  7000                     moveq.l    D0, 0x00
00000A72  102D B2D7                move.b     D0, [A5 - 0x4D29]
00000A76  3F00                     move.w     -[A7], D0
00000A78  2F2E 0008                move.l     -[A7], [A6 + 0x8]
00000A7C  4EBA FF2E                jsr        [PC - 0xD2 /* 000009AC */]
00000A80  2E80                     move.l     [A7], D0
00000A82  2F3C 0000 0489           move.l     -[A7], 0x489
00000A88  4EAD 0A42                jsr        [A5 + 0xA42 /* export_324, CODE:5 @ 000034B4 */]
00000A8C  4FEF 000E                lea.l      A7, [A7 + 0xE]
label00000A90:
00000A90  DFAD 9B46                add.l      [A5 - 0x64BA], D7
00000A94  2007                     move.l     D0, D7
00000A96  D0AD 9B3E                add.l      D0, [A5 - 0x64C2]
00000A9A  2B40 9B3E                move.l     [A5 - 0x64C2], D0
label00000A9E:
00000A9E  202D 9B46                move.l     D0, [A5 - 0x64BA]
00000AA2  B0AD 9B42                cmp.l      D0, [A5 - 0x64BE]
00000AA6  6D9C                     blt        -0x62 /* 00000A44 */
00000AA8  7000                     moveq.l    D0, 0x00
label00000AAA:
00000AAA  2E1F                     move.l     D7, [A7]+
00000AAC  4E5E                     unlink     A6
00000AAE  4E75                     rts
export_160:
fn00000AB0:
00000AB0  4E56 FFF6                link       A6, -0x000A
00000AB4  2F07                     move.l     -[A7], D7
00000AB6  4AAE 000C                tst.l      [A6 + 0xC]
00000ABA  6724                     beq        +0x26 /* 00000AE0 */
00000ABC  7008                     moveq.l    D0, 0x08
00000ABE  2B40 9B52                move.l     [A5 - 0x64AE], D0
00000AC2  206E 000C                movea.l    A0, [A6 + 0xC]
00000AC6  4868 0004                pea.l      [A0 + 0x4]
00000ACA  4EBA FEC0                jsr        [PC - 0x140 /* 0000098C */]
00000ACE  2B40 9B4E                move.l     [A5 - 0x64B2], D0
00000AD2  7208                     moveq.l    D1, 0x08
00000AD4  D2AE 000C                add.l      D1, [A6 + 0xC]
00000AD8  2B41 9B4A                move.l     [A5 - 0x64B6], D1
00000ADC  588F                     addq.l     A7, 4
00000ADE  6074                     bra        +0x76 /* 00000B54 */
label00000AE0:
00000AE0  206D 9B4A                movea.l    A0, [A5 - 0x64B6]
00000AE4  4868 0004                pea.l      [A0 + 0x4]
00000AE8  4EBA FEA2                jsr        [PC - 0x15E /* 0000098C */]
00000AEC  2E00                     move.l     D7, D0
00000AEE  DFAD 9B52                add.l      [A5 - 0x64AE], D7
00000AF2  DFAD 9B4A                add.l      [A5 - 0x64B6], D7
00000AF6  588F                     addq.l     A7, 4
00000AF8  605A                     bra        +0x5C /* 00000B54 */
label00000AFA:
00000AFA  2F2D 9B4A                move.l     -[A7], [A5 - 0x64B6]
00000AFE  4EAD 0BFA                jsr        [A5 + 0xBFA /* export_379, CODE:6 @ 00000076 */]
00000B02  B0AE 0008                cmp.l      D0, [A6 + 0x8]
00000B06  588F                     addq.l     A7, 4
00000B08  6606                     bne        +0x8 /* 00000B10 */
00000B0A  202D 9B4A                move.l     D0, [A5 - 0x64B6]
00000B0E  6050                     bra        +0x52 /* 00000B60 */
label00000B10:
00000B10  206D 9B4A                movea.l    A0, [A5 - 0x64B6]
00000B14  4868 0004                pea.l      [A0 + 0x4]
00000B18  4EBA FE72                jsr        [PC - 0x18E /* 0000098C */]
00000B1C  2E00                     move.l     D7, D0
00000B1E  4A87                     tst.l      D7
00000B20  588F                     addq.l     A7, 4
00000B22  6E22                     bgt        +0x24 /* 00000B46 */
00000B24  2F07                     move.l     -[A7], D7
00000B26  7000                     moveq.l    D0, 0x00
00000B28  102D B2D7                move.b     D0, [A5 - 0x4D29]
00000B2C  3F00                     move.w     -[A7], D0
00000B2E  2F2E 0008                move.l     -[A7], [A6 + 0x8]
00000B32  4EBA FE78                jsr        [PC - 0x188 /* 000009AC */]
00000B36  2E80                     move.l     [A7], D0
00000B38  2F3C 0000 04B9           move.l     -[A7], 0x4B9
00000B3E  4EAD 0A42                jsr        [A5 + 0xA42 /* export_324, CODE:5 @ 000034B4 */]
00000B42  4FEF 000E                lea.l      A7, [A7 + 0xE]
label00000B46:
00000B46  DFAD 9B52                add.l      [A5 - 0x64AE], D7
00000B4A  2007                     move.l     D0, D7
00000B4C  D0AD 9B4A                add.l      D0, [A5 - 0x64B6]
00000B50  2B40 9B4A                move.l     [A5 - 0x64B6], D0
label00000B54:
00000B54  202D 9B52                move.l     D0, [A5 - 0x64AE]
00000B58  B0AD 9B4E                cmp.l      D0, [A5 - 0x64B2]
00000B5C  6D9C                     blt        -0x62 /* 00000AFA */
00000B5E  7000                     moveq.l    D0, 0x00
label00000B60:
00000B60  2E1F                     move.l     D7, [A7]+
00000B62  4E5E                     unlink     A6
00000B64  4E75                     rts
export_162:
00000B66  4E56 FFFE                link       A6, -0x0002
00000B6A  48E7 1F00                movem.l    -[A7], D3,D4,D5,D6,D7
00000B6E  3C2E 000A                move.w     D6, [A6 + 0xA]
00000B72  4A6E 0008                tst.w      [A6 + 0x8]
00000B76  670C                     beq        +0xE /* 00000B84 */
00000B78  306E 0008                movea.w    A0, [A6 + 0x8]
00000B7C  D1CD                     add.l      A0, A5
00000B7E  4A28 D67C                tst.b      [A0 - 0x2984]
00000B82  6712                     beq        +0x14 /* 00000B96 */
label00000B84:
00000B84  3B46 ECF8                move.w     [A5 - 0x1308], D6
00000B88  3B6E 000C ECFA           move.w     [A5 - 0x1306], [A6 + 0xC]
00000B8E  422D ECFC                clr.b      [A5 - 0x1304]
00000B92  6000 00DE                bra        +0xE0 /* 00000C72 */
label00000B96:
00000B96  781E                     moveq.l    D4, 0x1E
label00000B98:
00000B98  4EBA 0730                jsr        [PC + 0x730 /* 000012CA */]
00000B9C  5300                     subq.b     D0, 1
00000B9E  1600                     move.b     D3, D0
00000BA0  7AFF                     moveq.l    D5, 0xFFFFFFFF
00000BA2  7E00                     moveq.l    D7, 0x00
label00000BA4:
00000BA4  7000                     moveq.l    D0, 0x00
00000BA6  1003                     move.b     D0, D3
00000BA8  3F00                     move.w     -[A7], D0
00000BAA  4EBA 074C                jsr        [PC + 0x74C /* 000012F8 */]
00000BAE  1D40 FFFF                move.b     [A6 - 0x1], D0
00000BB2  0200 0080                andi.b     D0, 0x80
00000BB6  548F                     addq.l     A7, 2
00000BB8  671C                     beq        +0x1E /* 00000BD6 */
00000BBA  082E 0005 FFFF           btst.b     [A6 - 0x1], 0x5
00000BC0  6700 0088                beq        +0x8A /* 00000C4A */
00000BC4  3F3C 001F                move.w     -[A7], 0x1F
00000BC8  3F2E 0008                move.w     -[A7], [A6 + 0x8]
00000BCC  4EAD 0782                jsr        [A5 + 0x782 /* export_236, CODE:4 @ 00005D68 */]
00000BD0  4A40                     tst.w      D0
00000BD2  588F                     addq.l     A7, 4
00000BD4  6674                     bne        +0x76 /* 00000C4A */
label00000BD6:
00000BD6  3F04                     move.w     -[A7], D4
00000BD8  3F2E 000C                move.w     -[A7], [A6 + 0xC]
00000BDC  3F06                     move.w     -[A7], D6
00000BDE  7000                     moveq.l    D0, 0x00
00000BE0  1003                     move.b     D0, D3
00000BE2  3F00                     move.w     -[A7], D0
00000BE4  4EBA 0094                jsr        [PC + 0x94 /* 00000C7A */]
00000BE8  4A40                     tst.w      D0
00000BEA  508F                     addq.l     A7, 8
00000BEC  675C                     beq        +0x5E /* 00000C4A */
00000BEE  3F2E 000C                move.w     -[A7], [A6 + 0xC]
00000BF2  3F06                     move.w     -[A7], D6
00000BF4  7000                     moveq.l    D0, 0x00
00000BF6  1003                     move.b     D0, D3
00000BF8  3F00                     move.w     -[A7], D0
00000BFA  4EBA 0504                jsr        [PC + 0x504 /* 00001100 */]
00000BFE  4A40                     tst.w      D0
00000C00  5C8F                     addq.l     A7, 6
00000C02  6710                     beq        +0x12 /* 00000C14 */
00000C04  3B46 ECF8                move.w     [A5 - 0x1308], D6
00000C08  3B6E 000C ECFA           move.w     [A5 - 0x1306], [A6 + 0xC]
00000C0E  1B43 ECFC                move.b     [A5 - 0x1304], D3
00000C12  605E                     bra        +0x60 /* 00000C72 */
label00000C14:
00000C14  3F2E 000C                move.w     -[A7], [A6 + 0xC]
00000C18  3F06                     move.w     -[A7], D6
00000C1A  7000                     moveq.l    D0, 0x00
00000C1C  1003                     move.b     D0, D3
00000C1E  3F00                     move.w     -[A7], D0
00000C20  4EBA 0106                jsr        [PC + 0x106 /* 00000D28 */]
00000C24  BA6D ECF6                cmp.w      D5, [A5 - 0x130A]
00000C28  5C8F                     addq.l     A7, 6
00000C2A  631E                     bls        +0x20 /* 00000C4A */
00000C2C  3B6D ECF2 ECF8           move.w     [A5 - 0x1308], [A5 - 0x130E]
00000C32  3B6D ECF4 ECFA           move.w     [A5 - 0x1306], [A5 - 0x130C]
00000C38  4A6D ECF6                tst.w      [A5 - 0x130A]
00000C3C  6606                     bne        +0x8 /* 00000C44 */
00000C3E  1B43 ECFC                move.b     [A5 - 0x1304], D3
00000C42  602E                     bra        +0x30 /* 00000C72 */
label00000C44:
00000C44  3A2D ECF6                move.w     D5, [A5 - 0x130A]
00000C48  1E03                     move.b     D7, D3
label00000C4A:
00000C4A  5303                     subq.b     D3, 1
00000C4C  6600 FF56                bne        -0xA8 /* 00000BA4 */
00000C50  4A44                     tst.w      D4
00000C52  671A                     beq        +0x1C /* 00000C6E */
00000C54  3004                     move.w     D0, D4
00000C56  C0C4                     mulu.w     D0, D4
00000C58  B045                     cmp.w      D0, D5
00000C5A  6412                     bcc        +0x14 /* 00000C6E */
00000C5C  0C44 001E                cmpi.w     D4, 0x1E
00000C60  6606                     bne        +0x8 /* 00000C68 */
00000C62  7850                     moveq.l    D4, 0x50
00000C64  6000 FF32                bra        -0xCC /* 00000B98 */
label00000C68:
00000C68  7800                     moveq.l    D4, 0x00
00000C6A  6000 FF2C                bra        -0xD2 /* 00000B98 */
label00000C6E:
00000C6E  1B47 ECFC                move.b     [A5 - 0x1304], D7
label00000C72:
00000C72  4CDF 00F8                movem.l    D3,D4,D5,D6,D7, [A7]+
00000C76  4E5E                     unlink     A6
00000C78  4E75                     rts
fn00000C7A:
00000C7A  4E56 0000                link       A6, 0
00000C7E  48E7 0300                movem.l    -[A7], D6,D7
00000C82  3C2E 000E                move.w     D6, [A6 + 0xE]
00000C86  3F2E 0008                move.w     -[A7], [A6 + 0x8]
00000C8A  4EBA 06E6                jsr        [PC + 0x6E6 /* 00001372 */]
00000C8E  4A46                     tst.w      D6
00000C90  548F                     addq.l     A7, 2
00000C92  6700 008A                beq        +0x8C /* 00000D1E */
00000C96  3E2E 000A                move.w     D7, [A6 + 0xA]
00000C9A  9E46                     sub.w      D7, D6
00000C9C  BE6D ECE2                cmp.w      D7, [A5 - 0x131E]
00000CA0  6F16                     ble        +0x18 /* 00000CB8 */
00000CA2  BE6D ECE6                cmp.w      D7, [A5 - 0x131A]
00000CA6  6F10                     ble        +0x12 /* 00000CB8 */
00000CA8  BE6D ECEA                cmp.w      D7, [A5 - 0x1316]
00000CAC  6F0A                     ble        +0xC /* 00000CB8 */
00000CAE  BE6D ECEE                cmp.w      D7, [A5 - 0x1312]
00000CB2  6F04                     ble        +0x6 /* 00000CB8 */
00000CB4  7000                     moveq.l    D0, 0x00
00000CB6  6068                     bra        +0x6A /* 00000D20 */
label00000CB8:
00000CB8  3E2E 000A                move.w     D7, [A6 + 0xA]
00000CBC  DE46                     add.w      D7, D6
00000CBE  BE6D ECE2                cmp.w      D7, [A5 - 0x131E]
00000CC2  6C16                     bge        +0x18 /* 00000CDA */
00000CC4  BE6D ECE6                cmp.w      D7, [A5 - 0x131A]
00000CC8  6C10                     bge        +0x12 /* 00000CDA */
00000CCA  BE6D ECEA                cmp.w      D7, [A5 - 0x1316]
00000CCE  6C0A                     bge        +0xC /* 00000CDA */
00000CD0  BE6D ECEE                cmp.w      D7, [A5 - 0x1312]
00000CD4  6C04                     bge        +0x6 /* 00000CDA */
00000CD6  7000                     moveq.l    D0, 0x00
00000CD8  6046                     bra        +0x48 /* 00000D20 */
label00000CDA:
00000CDA  3E2E 000C                move.w     D7, [A6 + 0xC]
00000CDE  9E46                     sub.w      D7, D6
00000CE0  BE6D ECE4                cmp.w      D7, [A5 - 0x131C]
00000CE4  6F16                     ble        +0x18 /* 00000CFC */
00000CE6  BE6D ECE8                cmp.w      D7, [A5 - 0x1318]
00000CEA  6F10                     ble        +0x12 /* 00000CFC */
00000CEC  BE6D ECEC                cmp.w      D7, [A5 - 0x1314]
00000CF0  6F0A                     ble        +0xC /* 00000CFC */
00000CF2  BE6D ECF0                cmp.w      D7, [A5 - 0x1310]
00000CF6  6F04                     ble        +0x6 /* 00000CFC */
00000CF8  7000                     moveq.l    D0, 0x00
00000CFA  6024                     bra        +0x26 /* 00000D20 */
label00000CFC:
00000CFC  3E2E 000C                move.w     D7, [A6 + 0xC]
00000D00  DE46                     add.w      D7, D6
00000D02  BE6D ECE4                cmp.w      D7, [A5 - 0x131C]
00000D06  6C16                     bge        +0x18 /* 00000D1E */
00000D08  BE6D ECE8                cmp.w      D7, [A5 - 0x1318]
00000D0C  6C10                     bge        +0x12 /* 00000D1E */
00000D0E  BE6D ECEC                cmp.w      D7, [A5 - 0x1314]
00000D12  6C0A                     bge        +0xC /* 00000D1E */
00000D14  BE6D ECF0                cmp.w      D7, [A5 - 0x1310]
00000D18  6C04                     bge        +0x6 /* 00000D1E */
00000D1A  7000                     moveq.l    D0, 0x00
00000D1C  6002                     bra        +0x4 /* 00000D20 */
label00000D1E:
00000D1E  7001                     moveq.l    D0, 0x01
label00000D20:
00000D20  4CDF 00C0                movem.l    D6,D7, [A7]+
00000D24  4E5E                     unlink     A6
00000D26  4E75                     rts
fn00000D28:
00000D28  4E56 0000                link       A6, 0
00000D2C  48E7 1F00                movem.l    -[A7], D3,D4,D5,D6,D7
00000D30  3A2E 000A                move.w     D5, [A6 + 0xA]
00000D34  3C2E 000C                move.w     D6, [A6 + 0xC]
00000D38  3F2E 0008                move.w     -[A7], [A6 + 0x8]
00000D3C  4EBA 0634                jsr        [PC + 0x634 /* 00001372 */]
00000D40  3B7C FFFF ECF6           move.w     [A5 - 0x130A], 0xFFFF
00000D46  3E86                     move.w     [A7], D6
00000D48  3F05                     move.w     -[A7], D5
00000D4A  3F2D ECE8                move.w     -[A7], [A5 - 0x1318]
00000D4E  3F2D ECE6                move.w     -[A7], [A5 - 0x131A]
00000D52  3F2D ECE4                move.w     -[A7], [A5 - 0x131C]
00000D56  3F2D ECE2                move.w     -[A7], [A5 - 0x131E]
00000D5A  4EBA 00FA                jsr        [PC + 0xFA /* 00000E56 */]
00000D5E  3EAD ECF4                move.w     [A7], [A5 - 0x130C]
00000D62  3F2D ECF2                move.w     -[A7], [A5 - 0x130E]
00000D66  3F06                     move.w     -[A7], D6
00000D68  3F05                     move.w     -[A7], D5
00000D6A  4EBA 0324                jsr        [PC + 0x324 /* 00001090 */]
00000D6E  3E00                     move.w     D7, D0
00000D70  BE6D ECF6                cmp.w      D7, [A5 - 0x130A]
00000D74  4FEF 0012                lea.l      A7, [A7 + 0x12]
00000D78  640C                     bcc        +0xE /* 00000D86 */
00000D7A  3B47 ECF6                move.w     [A5 - 0x130A], D7
00000D7E  382D ECF2                move.w     D4, [A5 - 0x130E]
00000D82  362D ECF4                move.w     D3, [A5 - 0x130C]
label00000D86:
00000D86  3F06                     move.w     -[A7], D6
00000D88  3F05                     move.w     -[A7], D5
00000D8A  3F2D ECEC                move.w     -[A7], [A5 - 0x1314]
00000D8E  3F2D ECEA                move.w     -[A7], [A5 - 0x1316]
00000D92  3F2D ECE8                move.w     -[A7], [A5 - 0x1318]
00000D96  3F2D ECE6                move.w     -[A7], [A5 - 0x131A]
00000D9A  4EBA 00BA                jsr        [PC + 0xBA /* 00000E56 */]
00000D9E  3EAD ECF4                move.w     [A7], [A5 - 0x130C]
00000DA2  3F2D ECF2                move.w     -[A7], [A5 - 0x130E]
00000DA6  3F06                     move.w     -[A7], D6
00000DA8  3F05                     move.w     -[A7], D5
00000DAA  4EBA 02E4                jsr        [PC + 0x2E4 /* 00001090 */]
00000DAE  3E00                     move.w     D7, D0
00000DB0  BE6D ECF6                cmp.w      D7, [A5 - 0x130A]
00000DB4  4FEF 0012                lea.l      A7, [A7 + 0x12]
00000DB8  640C                     bcc        +0xE /* 00000DC6 */
00000DBA  3B47 ECF6                move.w     [A5 - 0x130A], D7
00000DBE  382D ECF2                move.w     D4, [A5 - 0x130E]
00000DC2  362D ECF4                move.w     D3, [A5 - 0x130C]
label00000DC6:
00000DC6  3F06                     move.w     -[A7], D6
00000DC8  3F05                     move.w     -[A7], D5
00000DCA  3F2D ECF0                move.w     -[A7], [A5 - 0x1310]
00000DCE  3F2D ECEE                move.w     -[A7], [A5 - 0x1312]
00000DD2  3F2D ECEC                move.w     -[A7], [A5 - 0x1314]
00000DD6  3F2D ECEA                move.w     -[A7], [A5 - 0x1316]
00000DDA  4EBA 007A                jsr        [PC + 0x7A /* 00000E56 */]
00000DDE  3EAD ECF4                move.w     [A7], [A5 - 0x130C]
00000DE2  3F2D ECF2                move.w     -[A7], [A5 - 0x130E]
00000DE6  3F06                     move.w     -[A7], D6
00000DE8  3F05                     move.w     -[A7], D5
00000DEA  4EBA 02A4                jsr        [PC + 0x2A4 /* 00001090 */]
00000DEE  3E00                     move.w     D7, D0
00000DF0  BE6D ECF6                cmp.w      D7, [A5 - 0x130A]
00000DF4  4FEF 0012                lea.l      A7, [A7 + 0x12]
00000DF8  640C                     bcc        +0xE /* 00000E06 */
00000DFA  3B47 ECF6                move.w     [A5 - 0x130A], D7
00000DFE  382D ECF2                move.w     D4, [A5 - 0x130E]
00000E02  362D ECF4                move.w     D3, [A5 - 0x130C]
label00000E06:
00000E06  3F06                     move.w     -[A7], D6
00000E08  3F05                     move.w     -[A7], D5
00000E0A  3F2D ECE4                move.w     -[A7], [A5 - 0x131C]
00000E0E  3F2D ECE2                move.w     -[A7], [A5 - 0x131E]
00000E12  3F2D ECF0                move.w     -[A7], [A5 - 0x1310]
00000E16  3F2D ECEE                move.w     -[A7], [A5 - 0x1312]
00000E1A  4EBA 003A                jsr        [PC + 0x3A /* 00000E56 */]
00000E1E  3EAD ECF4                move.w     [A7], [A5 - 0x130C]
00000E22  3F2D ECF2                move.w     -[A7], [A5 - 0x130E]
00000E26  3F06                     move.w     -[A7], D6
00000E28  3F05                     move.w     -[A7], D5
00000E2A  4EBA 0264                jsr        [PC + 0x264 /* 00001090 */]
00000E2E  3E00                     move.w     D7, D0
00000E30  BE6D ECF6                cmp.w      D7, [A5 - 0x130A]
00000E34  4FEF 0012                lea.l      A7, [A7 + 0x12]
00000E38  640C                     bcc        +0xE /* 00000E46 */
00000E3A  3B47 ECF6                move.w     [A5 - 0x130A], D7
00000E3E  382D ECF2                move.w     D4, [A5 - 0x130E]
00000E42  362D ECF4                move.w     D3, [A5 - 0x130C]
label00000E46:
00000E46  3B44 ECF2                move.w     [A5 - 0x130E], D4
00000E4A  3B43 ECF4                move.w     [A5 - 0x130C], D3
00000E4E  4CDF 00F8                movem.l    D3,D4,D5,D6,D7, [A7]+
00000E52  4E5E                     unlink     A6
00000E54  4E75                     rts
fn00000E56:
00000E56  4E56 FFF8                link       A6, -0x0008
00000E5A  48E7 1F00                movem.l    -[A7], D3,D4,D5,D6,D7
00000E5E  3E2E 0008                move.w     D7, [A6 + 0x8]
00000E62  3C2E 000A                move.w     D6, [A6 + 0xA]
00000E66  BE6E 000C                cmp.w      D7, [A6 + 0xC]
00000E6A  660E                     bne        +0x10 /* 00000E7A */
00000E6C  3B47 ECF2                move.w     [A5 - 0x130E], D7
00000E70  3B6E 0012 ECF4           move.w     [A5 - 0x130C], [A6 + 0x12]
00000E76  6000 0120                bra        +0x122 /* 00000F98 */
label00000E7A:
00000E7A  BC6E 000E                cmp.w      D6, [A6 + 0xE]
00000E7E  660E                     bne        +0x10 /* 00000E8E */
00000E80  3B6E 0010 ECF2           move.w     [A5 - 0x130E], [A6 + 0x10]
00000E86  3B46 ECF4                move.w     [A5 - 0x130C], D6
00000E8A  6000 010C                bra        +0x10E /* 00000F98 */
label00000E8E:
00000E8E  362E 000C                move.w     D3, [A6 + 0xC]
00000E92  9647                     sub.w      D3, D7
00000E94  48C3                     ext.l      D3
00000E96  382E 000E                move.w     D4, [A6 + 0xE]
00000E9A  9846                     sub.w      D4, D6
00000E9C  48C4                     ext.l      D4
00000E9E  2F03                     move.l     -[A7], D3
00000EA0  4EAD 0C32                jsr        [A5 + 0xC32 /* export_386, CODE:7 @ 000002A6 */]
00000EA4  2D40 FFF8                move.l     [A6 - 0x8], D0
00000EA8  2E84                     move.l     [A7], D4
00000EAA  4EAD 0C32                jsr        [A5 + 0xC32 /* export_386, CODE:7 @ 000002A6 */]
00000EAE  B0AE FFF8                cmp.l      D0, [A6 - 0x8]
00000EB2  588F                     addq.l     A7, 4
00000EB4  6C6A                     bge        +0x6C /* 00000F20 */
00000EB6  2004                     move.l     D0, D4
00000EB8  4C04 0000                mulu.l     D0, D4
00000EBC  2203                     move.l     D1, D3
00000EBE  4C03 1000                mulu.l     D1, D3
00000EC2  D081                     add.l      D0, D1
00000EC4  3046                     movea.w    A0, D6
00000EC6  326E 0010                movea.w    A1, [A6 + 0x10]
00000ECA  2209                     move.l     D1, A1
00000ECC  4C03 1000                mulu.l     D1, D3
00000ED0  4C44 1801                divs.l     D1:D1, D4
00000ED4  326E 0012                movea.w    A1, [A6 + 0x12]
00000ED8  D289                     add.l      D1, A1
00000EDA  9288                     sub.l      D1, A0
00000EDC  3047                     movea.w    A0, D7
00000EDE  2408                     move.l     D2, A0
00000EE0  4C04 2000                mulu.l     D2, D4
00000EE4  4C43 2802                divs.l     D2:D2, D3
00000EE8  D282                     add.l      D1, D2
00000EEA  4C03 1000                mulu.l     D1, D3
00000EEE  4C04 1000                mulu.l     D1, D4
00000EF2  4C40 1801                divs.l     D1:D1, D0
00000EF6  2D41 FFFC                move.l     [A6 - 0x4], D1
00000EFA  3B41 ECF2                move.w     [A5 - 0x130E], D1
00000EFE  3047                     movea.w    A0, D7
00000F00  2008                     move.l     D0, A0
00000F02  4C04 0000                mulu.l     D0, D4
00000F06  4C43 0800                divs.l     D0:D0, D3
00000F0A  2404                     move.l     D2, D4
00000F0C  4C2E 2000 FFFC           muls.l     D4:D7, [A6 + 0x2000]
00000F12  4C43 2802                divs.l     D2:D2, D3
00000F16  D446                     add.w      D2, D6
00000F18  9440                     sub.w      D2, D0
00000F1A  3B42 ECF4                move.w     [A5 - 0x130C], D2
00000F1E  6078                     bra        +0x7A /* 00000F98 */
label00000F20:
00000F20  362E 000E                move.w     D3, [A6 + 0xE]
00000F24  9646                     sub.w      D3, D6
00000F26  48C3                     ext.l      D3
00000F28  382E 000C                move.w     D4, [A6 + 0xC]
00000F2C  9847                     sub.w      D4, D7
00000F2E  48C4                     ext.l      D4
00000F30  2004                     move.l     D0, D4
00000F32  4C04 0000                mulu.l     D0, D4
00000F36  2203                     move.l     D1, D3
00000F38  4C03 1000                mulu.l     D1, D3
00000F3C  D081                     add.l      D0, D1
00000F3E  3047                     movea.w    A0, D7
00000F40  326E 0012                movea.w    A1, [A6 + 0x12]
00000F44  2209                     move.l     D1, A1
00000F46  4C03 1000                mulu.l     D1, D3
00000F4A  4C44 1801                divs.l     D1:D1, D4
00000F4E  326E 0010                movea.w    A1, [A6 + 0x10]
00000F52  D289                     add.l      D1, A1
00000F54  9288                     sub.l      D1, A0
00000F56  3046                     movea.w    A0, D6
00000F58  2408                     move.l     D2, A0
00000F5A  4C04 2000                mulu.l     D2, D4
00000F5E  4C43 2802                divs.l     D2:D2, D3
00000F62  D282                     add.l      D1, D2
00000F64  4C03 1000                mulu.l     D1, D3
00000F68  4C04 1000                mulu.l     D1, D4
00000F6C  4C40 1801                divs.l     D1:D1, D0
00000F70  2D41 FFFC                move.l     [A6 - 0x4], D1
00000F74  3B41 ECF4                move.w     [A5 - 0x130C], D1
00000F78  3046                     movea.w    A0, D6
00000F7A  2008                     move.l     D0, A0
00000F7C  4C04 0000                mulu.l     D0, D4
00000F80  4C43 0800                divs.l     D0:D0, D3
00000F84  2404                     move.l     D2, D4
00000F86  4C2E 2000 FFFC           muls.l     D4:D7, [A6 + 0x2000]
00000F8C  4C43 2802                divs.l     D2:D2, D3
00000F90  D447                     add.w      D2, D7
00000F92  9440                     sub.w      D2, D0
00000F94  3B42 ECF2                move.w     [A5 - 0x130E], D2
label00000F98:
00000F98  7A00                     moveq.l    D5, 0x00
00000F9A  302E 000C                move.w     D0, [A6 + 0xC]
00000F9E  9047                     sub.w      D0, D7
00000FA0  3F00                     move.w     -[A7], D0
00000FA2  4EAD 0C2A                jsr        [A5 + 0xC2A /* export_385, CODE:7 @ 0000028C */]
00000FA6  3D40 FFFA                move.w     [A6 - 0x6], D0
00000FAA  302E 000E                move.w     D0, [A6 + 0xE]
00000FAE  9046                     sub.w      D0, D6
00000FB0  3E80                     move.w     [A7], D0
00000FB2  4EAD 0C2A                jsr        [A5 + 0xC2A /* export_385, CODE:7 @ 0000028C */]
00000FB6  B06E FFFA                cmp.w      D0, [A6 - 0x6]
00000FBA  548F                     addq.l     A7, 2
00000FBC  6C68                     bge        +0x6A /* 00001026 */
00000FBE  302E 000C                move.w     D0, [A6 + 0xC]
00000FC2  9047                     sub.w      D0, D7
00000FC4  4A40                     tst.w      D0
00000FC6  6F32                     ble        +0x34 /* 00000FFA */
00000FC8  BE6D ECF2                cmp.w      D7, [A5 - 0x130E]
00000FCC  6F0E                     ble        +0x10 /* 00000FDC */
00000FCE  3B47 ECF2                move.w     [A5 - 0x130E], D7
00000FD2  3B46 ECF4                move.w     [A5 - 0x130C], D6
00000FD6  7A01                     moveq.l    D5, 0x01
00000FD8  6000 00AC                bra        +0xAE /* 00001086 */
label00000FDC:
00000FDC  302D ECF2                move.w     D0, [A5 - 0x130E]
00000FE0  B06E 000C                cmp.w      D0, [A6 + 0xC]
00000FE4  6F00 00A0                ble        +0xA2 /* 00001086 */
00000FE8  3B6E 000C ECF2           move.w     [A5 - 0x130E], [A6 + 0xC]
00000FEE  3B6E 000E ECF4           move.w     [A5 - 0x130C], [A6 + 0xE]
00000FF4  7A01                     moveq.l    D5, 0x01
00000FF6  6000 008E                bra        +0x90 /* 00001086 */
label00000FFA:
00000FFA  BE6D ECF2                cmp.w      D7, [A5 - 0x130E]
00000FFE  6C0C                     bge        +0xE /* 0000100C */
00001000  3B47 ECF2                move.w     [A5 - 0x130E], D7
00001004  3B46 ECF4                move.w     [A5 - 0x130C], D6
00001008  7A01                     moveq.l    D5, 0x01
0000100A  607A                     bra        +0x7C /* 00001086 */
label0000100C:
0000100C  302D ECF2                move.w     D0, [A5 - 0x130E]
00001010  B06E 000C                cmp.w      D0, [A6 + 0xC]
00001014  6C70                     bge        +0x72 /* 00001086 */
00001016  3B6E 000C ECF2           move.w     [A5 - 0x130E], [A6 + 0xC]
0000101C  3B6E 000E ECF4           move.w     [A5 - 0x130C], [A6 + 0xE]
00001022  7A01                     moveq.l    D5, 0x01
00001024  6060                     bra        +0x62 /* 00001086 */
label00001026:
00001026  302E 000E                move.w     D0, [A6 + 0xE]
0000102A  9046                     sub.w      D0, D6
0000102C  4A40                     tst.w      D0
0000102E  6F2C                     ble        +0x2E /* 0000105C */
00001030  BC6D ECF4                cmp.w      D6, [A5 - 0x130C]
00001034  6F0C                     ble        +0xE /* 00001042 */
00001036  3B47 ECF2                move.w     [A5 - 0x130E], D7
0000103A  3B46 ECF4                move.w     [A5 - 0x130C], D6
0000103E  7A01                     moveq.l    D5, 0x01
00001040  6044                     bra        +0x46 /* 00001086 */
label00001042:
00001042  302D ECF4                move.w     D0, [A5 - 0x130C]
00001046  B06E 000E                cmp.w      D0, [A6 + 0xE]
0000104A  6F3A                     ble        +0x3C /* 00001086 */
0000104C  3B6E 000C ECF2           move.w     [A5 - 0x130E], [A6 + 0xC]
00001052  3B6E 000E ECF4           move.w     [A5 - 0x130C], [A6 + 0xE]
00001058  7A01                     moveq.l    D5, 0x01
0000105A  602A                     bra        +0x2C /* 00001086 */
label0000105C:
0000105C  BC6D ECF4                cmp.w      D6, [A5 - 0x130C]
00001060  6C0C                     bge        +0xE /* 0000106E */
00001062  3B47 ECF2                move.w     [A5 - 0x130E], D7
00001066  3B46 ECF4                move.w     [A5 - 0x130C], D6
0000106A  7A01                     moveq.l    D5, 0x01
0000106C  6018                     bra        +0x1A /* 00001086 */
label0000106E:
0000106E  302D ECF4                move.w     D0, [A5 - 0x130C]
00001072  B06E 000E                cmp.w      D0, [A6 + 0xE]
00001076  6C0E                     bge        +0x10 /* 00001086 */
00001078  3B6E 000C ECF2           move.w     [A5 - 0x130E], [A6 + 0xC]
0000107E  3B6E 000E ECF4           move.w     [A5 - 0x130C], [A6 + 0xE]
00001084  7A01                     moveq.l    D5, 0x01
label00001086:
00001086  3005                     move.w     D0, D5
00001088  4CDF 00F8                movem.l    D3,D4,D5,D6,D7, [A7]+
0000108C  4E5E                     unlink     A6
0000108E  4E75                     rts
fn00001090:
00001090  4E56 0000                link       A6, 0
00001094  48E7 1F00                movem.l    -[A7], D3,D4,D5,D6,D7
00001098  3A2E 0008                move.w     D5, [A6 + 0x8]
0000109C  362E 000A                move.w     D3, [A6 + 0xA]
000010A0  3C2E 000C                move.w     D6, [A6 + 0xC]
000010A4  382E 000E                move.w     D4, [A6 + 0xE]
000010A8  3E06                     move.w     D7, D6
000010AA  9E45                     sub.w      D7, D5
000010AC  BA46                     cmp.w      D5, D6
000010AE  6F04                     ble        +0x6 /* 000010B4 */
000010B0  3E05                     move.w     D7, D5
000010B2  9E46                     sub.w      D7, D6
label000010B4:
000010B4  0C47 0100                cmpi.w     D7, 0x100
000010B8  6504                     bcs        +0x6 /* 000010BE */
000010BA  70FF                     moveq.l    D0, 0xFFFFFFFF
000010BC  603A                     bra        +0x3C /* 000010F8 */
label000010BE:
000010BE  3C04                     move.w     D6, D4
000010C0  9C43                     sub.w      D6, D3
000010C2  B644                     cmp.w      D3, D4
000010C4  6F04                     ble        +0x6 /* 000010CA */
000010C6  3C03                     move.w     D6, D3
000010C8  9C44                     sub.w      D6, D4
label000010CA:
000010CA  0C46 0100                cmpi.w     D6, 0x100
000010CE  6504                     bcs        +0x6 /* 000010D4 */
000010D0  70FF                     moveq.l    D0, 0xFFFFFFFF
000010D2  6024                     bra        +0x26 /* 000010F8 */
label000010D4:
000010D4  3007                     move.w     D0, D7
000010D6  C0C7                     mulu.w     D0, D7
000010D8  3E00                     move.w     D7, D0
000010DA  3006                     move.w     D0, D6
000010DC  C0C6                     mulu.w     D0, D6
000010DE  3C00                     move.w     D6, D0
000010E0  7AFF                     moveq.l    D5, 0xFFFFFFFF
000010E2  7000                     moveq.l    D0, 0x00
000010E4  3006                     move.w     D0, D6
000010E6  7800                     moveq.l    D4, 0x00
000010E8  3807                     move.w     D4, D7
000010EA  D880                     add.l      D4, D0
000010EC  0C84 0001 0000           cmpi.l     D4, 0x10000
000010F2  6C02                     bge        +0x4 /* 000010F6 */
000010F4  3A04                     move.w     D5, D4
label000010F6:
000010F6  3005                     move.w     D0, D5
label000010F8:
000010F8  4CDF 00F8                movem.l    D3,D4,D5,D6,D7, [A7]+
000010FC  4E5E                     unlink     A6
000010FE  4E75                     rts
export_163:
fn00001100:
00001100  4E56 0000                link       A6, 0
00001104  48E7 0700                movem.l    -[A7], D5,D6,D7
00001108  3E2E 0008                move.w     D7, [A6 + 0x8]
0000110C  3C2E 000A                move.w     D6, [A6 + 0xA]
00001110  3A2E 000C                move.w     D5, [A6 + 0xC]
00001114  4A47                     tst.w      D7
00001116  6606                     bne        +0x8 /* 0000111E */
00001118  7000                     moveq.l    D0, 0x00
0000111A  6000 0110                bra        +0x112 /* 0000122C */
label0000111E:
0000111E  3F07                     move.w     -[A7], D7
00001120  4EBA 0250                jsr        [PC + 0x250 /* 00001372 */]
00001124  BC6D ECE2                cmp.w      D6, [A5 - 0x131E]
00001128  548F                     addq.l     A7, 2
0000112A  6F18                     ble        +0x1A /* 00001144 */
0000112C  BC6D ECE6                cmp.w      D6, [A5 - 0x131A]
00001130  6F12                     ble        +0x14 /* 00001144 */
00001132  BC6D ECEA                cmp.w      D6, [A5 - 0x1316]
00001136  6F0C                     ble        +0xE /* 00001144 */
00001138  BC6D ECEE                cmp.w      D6, [A5 - 0x1312]
0000113C  6F06                     ble        +0x8 /* 00001144 */
0000113E  7000                     moveq.l    D0, 0x00
00001140  6000 00EA                bra        +0xEC /* 0000122C */
label00001144:
00001144  BC6D ECE2                cmp.w      D6, [A5 - 0x131E]
00001148  6C18                     bge        +0x1A /* 00001162 */
0000114A  BC6D ECE6                cmp.w      D6, [A5 - 0x131A]
0000114E  6C12                     bge        +0x14 /* 00001162 */
00001150  BC6D ECEA                cmp.w      D6, [A5 - 0x1316]
00001154  6C0C                     bge        +0xE /* 00001162 */
00001156  BC6D ECEE                cmp.w      D6, [A5 - 0x1312]
0000115A  6C06                     bge        +0x8 /* 00001162 */
0000115C  7000                     moveq.l    D0, 0x00
0000115E  6000 00CC                bra        +0xCE /* 0000122C */
label00001162:
00001162  BA6D ECE4                cmp.w      D5, [A5 - 0x131C]
00001166  6F18                     ble        +0x1A /* 00001180 */
00001168  BA6D ECE8                cmp.w      D5, [A5 - 0x1318]
0000116C  6F12                     ble        +0x14 /* 00001180 */
0000116E  BA6D ECEC                cmp.w      D5, [A5 - 0x1314]
00001172  6F0C                     ble        +0xE /* 00001180 */
00001174  BA6D ECF0                cmp.w      D5, [A5 - 0x1310]
00001178  6F06                     ble        +0x8 /* 00001180 */
0000117A  7000                     moveq.l    D0, 0x00
0000117C  6000 00AE                bra        +0xB0 /* 0000122C */
label00001180:
00001180  BA6D ECE4                cmp.w      D5, [A5 - 0x131C]
00001184  6C18                     bge        +0x1A /* 0000119E */
00001186  BA6D ECE8                cmp.w      D5, [A5 - 0x1318]
0000118A  6C12                     bge        +0x14 /* 0000119E */
0000118C  BA6D ECEC                cmp.w      D5, [A5 - 0x1314]
00001190  6C0C                     bge        +0xE /* 0000119E */
00001192  BA6D ECF0                cmp.w      D5, [A5 - 0x1310]
00001196  6C06                     bge        +0x8 /* 0000119E */
00001198  7000                     moveq.l    D0, 0x00
0000119A  6000 0090                bra        +0x92 /* 0000122C */
label0000119E:
0000119E  3F07                     move.w     -[A7], D7
000011A0  3F05                     move.w     -[A7], D5
000011A2  3F06                     move.w     -[A7], D6
000011A4  3F2D ECE8                move.w     -[A7], [A5 - 0x1318]
000011A8  3F2D ECE6                move.w     -[A7], [A5 - 0x131A]
000011AC  3F2D ECE4                move.w     -[A7], [A5 - 0x131C]
000011B0  3F2D ECE2                move.w     -[A7], [A5 - 0x131E]
000011B4  4EBA 007E                jsr        [PC + 0x7E /* 00001234 */]
000011B8  4A40                     tst.w      D0
000011BA  4FEF 000E                lea.l      A7, [A7 + 0xE]
000011BE  676A                     beq        +0x6C /* 0000122A */
000011C0  3F07                     move.w     -[A7], D7
000011C2  3F05                     move.w     -[A7], D5
000011C4  3F06                     move.w     -[A7], D6
000011C6  3F2D ECEC                move.w     -[A7], [A5 - 0x1314]
000011CA  3F2D ECEA                move.w     -[A7], [A5 - 0x1316]
000011CE  3F2D ECE8                move.w     -[A7], [A5 - 0x1318]
000011D2  3F2D ECE6                move.w     -[A7], [A5 - 0x131A]
000011D6  4EBA 005C                jsr        [PC + 0x5C /* 00001234 */]
000011DA  4A40                     tst.w      D0
000011DC  4FEF 000E                lea.l      A7, [A7 + 0xE]
000011E0  6748                     beq        +0x4A /* 0000122A */
000011E2  3F07                     move.w     -[A7], D7
000011E4  3F05                     move.w     -[A7], D5
000011E6  3F06                     move.w     -[A7], D6
000011E8  3F2D ECF0                move.w     -[A7], [A5 - 0x1310]
000011EC  3F2D ECEE                move.w     -[A7], [A5 - 0x1312]
000011F0  3F2D ECEC                move.w     -[A7], [A5 - 0x1314]
000011F4  3F2D ECEA                move.w     -[A7], [A5 - 0x1316]
000011F8  4EBA 003A                jsr        [PC + 0x3A /* 00001234 */]
000011FC  4A40                     tst.w      D0
000011FE  4FEF 000E                lea.l      A7, [A7 + 0xE]
00001202  6726                     beq        +0x28 /* 0000122A */
00001204  3F07                     move.w     -[A7], D7
00001206  3F05                     move.w     -[A7], D5
00001208  3F06                     move.w     -[A7], D6
0000120A  3F2D ECE4                move.w     -[A7], [A5 - 0x131C]
0000120E  3F2D ECE2                move.w     -[A7], [A5 - 0x131E]
00001212  3F2D ECF0                move.w     -[A7], [A5 - 0x1310]
00001216  3F2D ECEE                move.w     -[A7], [A5 - 0x1312]
0000121A  4EBA 0018                jsr        [PC + 0x18 /* 00001234 */]
0000121E  4A40                     tst.w      D0
00001220  4FEF 000E                lea.l      A7, [A7 + 0xE]
00001224  6704                     beq        +0x6 /* 0000122A */
00001226  7001                     moveq.l    D0, 0x01
00001228  6002                     bra        +0x4 /* 0000122C */
label0000122A:
0000122A  7000                     moveq.l    D0, 0x00
label0000122C:
0000122C  4CDF 00E0                movem.l    D5,D6,D7, [A7]+
00001230  4E5E                     unlink     A6
00001232  4E75                     rts
fn00001234:
00001234  4E56 0000                link       A6, 0
00001238  302E 000E                move.w     D0, [A6 + 0xE]
0000123C  906E 000A                sub.w      D0, [A6 + 0xA]
00001240  322E 0010                move.w     D1, [A6 + 0x10]
00001244  926E 0008                sub.w      D1, [A6 + 0x8]
00001248  C1C1                     muls.w     D0, D1
0000124A  322E 0012                move.w     D1, [A6 + 0x12]
0000124E  926E 000A                sub.w      D1, [A6 + 0xA]
00001252  342E 000C                move.w     D2, [A6 + 0xC]
00001256  946E 0008                sub.w      D2, [A6 + 0x8]
0000125A  C3C2                     muls.w     D1, D2
0000125C  B240                     cmp.w      D1, D0
0000125E  6C04                     bge        +0x6 /* 00001264 */
00001260  7000                     moveq.l    D0, 0x00
00001262  6002                     bra        +0x4 /* 00001266 */
label00001264:
00001264  7001                     moveq.l    D0, 0x01
label00001266:
00001266  4E5E                     unlink     A6
00001268  4E75                     rts
fn0000126A:
0000126A  4E56 0000                link       A6, 0
0000126E  2F0C                     move.l     -[A7], A4
00001270  2F3C 000E 0002           move.l     -[A7], 0xE0002
00001276  4EAD 03E2                jsr        [A5 + 0x3E2 /* export_120, CODE:2 @ 00003CEE */]
0000127A  2840                     movea.l    A4, D0
0000127C  2EBC 0000 04E9           move.l     [A7], 0x4E9
00001282  3F2E 0008                move.w     -[A7], [A6 + 0x8]
00001286  4267                     clr.w      -[A7]
00001288  7000                     moveq.l    D0, 0x00
0000128A  102C 0008                move.b     D0, [A4 + 0x8]
0000128E  5340                     subq.w     D0, 1
00001290  3F00                     move.w     -[A7], D0
00001292  4EAD 09B2                jsr        [A5 + 0x9B2 /* export_306, CODE:5 @ 00003464 */]
00001296  7014                     moveq.l    D0, 0x14
00001298  C1EE 0008                muls.w     D0, [A6 + 0x8]
0000129C  720A                     moveq.l    D1, 0x0A
0000129E  D081                     add.l      D0, D1
000012A0  D08C                     add.l      D0, A4
000012A2  285F                     movea.l    A4, [A7]+
000012A4  4E5E                     unlink     A6
000012A6  4E75                     rts
fn000012A8:
000012A8  2F0C                     move.l     -[A7], A4
000012AA  2F3C 000E 0001           move.l     -[A7], 0xE0001
000012B0  4EAD 03E2                jsr        [A5 + 0x3E2 /* export_120, CODE:2 @ 00003CEE */]
000012B4  2840                     movea.l    A4, D0
000012B6  0C2C 00FF 0008           cmpi.b     [A4 + 0x8], 0xFF
000012BC  588F                     addq.l     A7, 4
000012BE  6602                     bne        +0x4 /* 000012C2 */
000012C0  528C                     addq.l     A4, 1
label000012C2:
000012C2  200C                     move.l     D0, A4
000012C4  5080                     addq.l     D0, 8
000012C6  285F                     movea.l    A4, [A7]+
000012C8  4E75                     rts
fn000012CA:
000012CA  2F3C 000E 0002           move.l     -[A7], 0xE0002
000012D0  4EAD 03E2                jsr        [A5 + 0x3E2 /* export_120, CODE:2 @ 00003CEE */]
000012D4  2040                     movea.l    A0, D0
000012D6  7000                     moveq.l    D0, 0x00
000012D8  1028 0008                move.b     D0, [A0 + 0x8]
000012DC  588F                     addq.l     A7, 4
000012DE  4E75                     rts
export_164:
000012E0  4E56 0000                link       A6, 0
000012E4  3F2E 0008                move.w     -[A7], [A6 + 0x8]
000012E8  4EBA FF80                jsr        [PC - 0x80 /* 0000126A */]
000012EC  2040                     movea.l    A0, D0
000012EE  7000                     moveq.l    D0, 0x00
000012F0  1028 0010                move.b     D0, [A0 + 0x10]
000012F4  4E5E                     unlink     A6
000012F6  4E75                     rts
export_165:
fn000012F8:
000012F8  4E56 0000                link       A6, 0
000012FC  3F2E 0008                move.w     -[A7], [A6 + 0x8]
00001300  4EBA FF68                jsr        [PC - 0x98 /* 0000126A */]
00001304  2040                     movea.l    A0, D0
00001306  7000                     moveq.l    D0, 0x00
00001308  1028 0011                move.b     D0, [A0 + 0x11]
0000130C  4E5E                     unlink     A6
0000130E  4E75                     rts
export_166:
00001310  4E56 0000                link       A6, 0
00001314  3F2E 0008                move.w     -[A7], [A6 + 0x8]
00001318  4EBA FF50                jsr        [PC - 0xB0 /* 0000126A */]
0000131C  2040                     movea.l    A0, D0
0000131E  116E 000B 0011           move.b     [A0 + 0x11], [A6 + 0xB]
00001324  4E5E                     unlink     A6
00001326  4E75                     rts
export_167:
00001328  4E56 0000                link       A6, 0
0000132C  3F2E 0008                move.w     -[A7], [A6 + 0x8]
00001330  4EBA FF38                jsr        [PC - 0xC8 /* 0000126A */]
00001334  2040                     movea.l    A0, D0
00001336  3EA8 0012                move.w     [A7], [A0 + 0x12]
0000133A  4EAD 0C22                jsr        [A5 + 0xC22 /* export_384, CODE:6 @ 0000003E */]
0000133E  4E5E                     unlink     A6
00001340  4E75                     rts
export_168:
00001342  4E56 0000                link       A6, 0
00001346  3F2E 0008                move.w     -[A7], [A6 + 0x8]
0000134A  4EBA FF1E                jsr        [PC - 0xE2 /* 0000126A */]
0000134E  322E 000A                move.w     D1, [A6 + 0xA]
00001352  E041                     asr        D1.w, 8
00001354  2040                     movea.l    A0, D0
00001356  1141 0012                move.b     [A0 + 0x12], D1
0000135A  3EAE 0008                move.w     [A7], [A6 + 0x8]
0000135E  4EBA FF0A                jsr        [PC - 0xF6 /* 0000126A */]
00001362  72FF                     moveq.l    D1, 0xFFFFFFFF
00001364  C22E 000B                and.b      D1, [A6 + 0xB]
00001368  2040                     movea.l    A0, D0
0000136A  1141 0013                move.b     [A0 + 0x13], D1
0000136E  4E5E                     unlink     A6
00001370  4E75                     rts
export_169:
fn00001372:
00001372  4E56 0000                link       A6, 0
00001376  2F0C                     move.l     -[A7], A4
00001378  3F2E 0008                move.w     -[A7], [A6 + 0x8]
0000137C  4EBA FEEC                jsr        [PC - 0x114 /* 0000126A */]
00001380  2840                     movea.l    A4, D0
00001382  3E94                     move.w     [A7], [A4]
00001384  4EAD 0C22                jsr        [A5 + 0xC22 /* export_384, CODE:6 @ 0000003E */]
00001388  3B40 ECE2                move.w     [A5 - 0x131E], D0
0000138C  3EAC 0002                move.w     [A7], [A4 + 0x2]
00001390  4EAD 0C22                jsr        [A5 + 0xC22 /* export_384, CODE:6 @ 0000003E */]
00001394  3B40 ECE4                move.w     [A5 - 0x131C], D0
00001398  3EAC 0004                move.w     [A7], [A4 + 0x4]
0000139C  4EAD 0C22                jsr        [A5 + 0xC22 /* export_384, CODE:6 @ 0000003E */]
000013A0  3B40 ECE6                move.w     [A5 - 0x131A], D0
000013A4  3EAC 0006                move.w     [A7], [A4 + 0x6]
000013A8  4EAD 0C22                jsr        [A5 + 0xC22 /* export_384, CODE:6 @ 0000003E */]
000013AC  3B40 ECE8                move.w     [A5 - 0x1318], D0
000013B0  3EAC 0008                move.w     [A7], [A4 + 0x8]
000013B4  4EAD 0C22                jsr        [A5 + 0xC22 /* export_384, CODE:6 @ 0000003E */]
000013B8  3B40 ECEA                move.w     [A5 - 0x1316], D0
000013BC  3EAC 000A                move.w     [A7], [A4 + 0xA]
000013C0  4EAD 0C22                jsr        [A5 + 0xC22 /* export_384, CODE:6 @ 0000003E */]
000013C4  3B40 ECEC                move.w     [A5 - 0x1314], D0
000013C8  3EAC 000C                move.w     [A7], [A4 + 0xC]
000013CC  4EAD 0C22                jsr        [A5 + 0xC22 /* export_384, CODE:6 @ 0000003E */]
000013D0  3B40 ECEE                move.w     [A5 - 0x1312], D0
000013D4  3EAC 000E                move.w     [A7], [A4 + 0xE]
000013D8  4EAD 0C22                jsr        [A5 + 0xC22 /* export_384, CODE:6 @ 0000003E */]
000013DC  3B40 ECF0                move.w     [A5 - 0x1310], D0
000013E0  286E FFFC                movea.l    A4, [A6 - 0x4]
000013E4  4E5E                     unlink     A6
000013E6  4E75                     rts
export_170:
000013E8  4E56 0000                link       A6, 0
000013EC  48E7 0708                movem.l    -[A7], D5,D6,D7,A4
000013F0  3C2E 000A                move.w     D6, [A6 + 0xA]
000013F4  BC6E 0008                cmp.w      D6, [A6 + 0x8]
000013F8  6604                     bne        +0x6 /* 000013FE */
000013FA  3006                     move.w     D0, D6
000013FC  6044                     bra        +0x46 /* 00001442 */
label000013FE:
000013FE  4EBA FEA8                jsr        [PC - 0x158 /* 000012A8 */]
00001402  2840                     movea.l    A4, D0
00001404  7A00                     moveq.l    D5, 0x00
00001406  600C                     bra        +0xE /* 00001414 */
label00001408:
00001408  568C                     addq.l     A4, 3
label0000140A:
0000140A  0C14 00FF                cmpi.b     [A4], 0xFF
0000140E  66F8                     bne        -0x6 /* 00001408 */
00001410  5245                     addq.w     D5, 1
00001412  528C                     addq.l     A4, 1
label00001414:
00001414  BA6E 0008                cmp.w      D5, [A6 + 0x8]
00001418  66F0                     bne        -0xE /* 0000140A */
0000141A  7E00                     moveq.l    D7, 0x00
label0000141C:
0000141C  1A14                     move.b     D5, [A4]
0000141E  0C05 00FF                cmpi.b     D5, 0xFF
00001422  671A                     beq        +0x1C /* 0000143E */
00001424  7000                     moveq.l    D0, 0x00
00001426  1005                     move.b     D0, D5
00001428  B046                     cmp.w      D0, D6
0000142A  620E                     bhi        +0x10 /* 0000143A */
0000142C  7000                     moveq.l    D0, 0x00
0000142E  102C 0001                move.b     D0, [A4 + 0x1]
00001432  B046                     cmp.w      D0, D6
00001434  6504                     bcs        +0x6 /* 0000143A */
00001436  1E2C 0002                move.b     D7, [A4 + 0x2]
label0000143A:
0000143A  568C                     addq.l     A4, 3
0000143C  60DE                     bra        -0x20 /* 0000141C */
label0000143E:
0000143E  7000                     moveq.l    D0, 0x00
00001440  1007                     move.b     D0, D7
label00001442:
00001442  4CDF 10E0                movem.l    D5,D6,D7,A4, [A7]+
00001446  4E5E                     unlink     A6
00001448  4E75                     rts
fn0000144A:
0000144A  4E56 FFF0                link       A6, -0x0010
0000144E  4EBA 0046                jsr        [PC + 0x46 /* 00001496 */]
00001452  7000                     moveq.l    D0, 0x00
00001454  102D EDD3                move.b     D0, [A5 - 0x122D]
00001458  3B40 C98E                move.w     [A5 - 0x3672], D0
0000145C  4267                     clr.w      -[A7]
0000145E  4EBA 0062                jsr        [PC + 0x62 /* 000014C2 */]
00001462  102D EDD3                move.b     D0, [A5 - 0x122D]
00001466  548F                     addq.l     A7, 2
00001468  6B28                     bmi        +0x2A /* 00001492 */
0000146A  0400 0013                subi.b     D0, 0x13
0000146E  6702                     beq        +0x4 /* 00001472 */
00001470  6020                     bra        +0x22 /* 00001492 */
label00001472:
00001472  41ED 0892                lea.l      A0, [A5 + 0x892 /* export_270, CODE:4 @ 000017E4 */]
00001476  2B48 F742                move.l     [A5 - 0x8BE], A0
0000147A  43ED 0862                lea.l      A1, [A5 + 0x862 /* export_264, CODE:4 @ 0000164E */]
0000147E  2B49 F746                move.l     [A5 - 0x8BA], A1
00001482  41ED 0882                lea.l      A0, [A5 + 0x882 /* export_268, CODE:4 @ 0000163C */]
00001486  2B48 9B64                move.l     [A5 - 0x649C], A0
0000148A  41ED 088A                lea.l      A0, [A5 + 0x88A /* export_269, CODE:4 @ 0000163E */]
0000148E  2B48 9B68                move.l     [A5 - 0x6498], A0
label00001492:
00001492  4E5E                     unlink     A6
00001494  4E75                     rts
fn00001496:
00001496  422D EDD3                clr.b      [A5 - 0x122D]
0000149A  426D EDD4                clr.w      [A5 - 0x122C]
0000149E  1B7C 0013 EDD3           move.b     [A5 - 0x122D], 0x13
000014A4  4A6D EDDC                tst.w      [A5 - 0x1224]
000014A8  6706                     beq        +0x8 /* 000014B0 */
000014AA  1B6D EDDD EDD3           move.b     [A5 - 0x122D], [A5 - 0x1223]
label000014B0:
000014B0  4A2D EDD3                tst.b      [A5 - 0x122D]
000014B4  6608                     bne        +0xA /* 000014BE */
000014B6  4267                     clr.w      -[A7]
000014B8  4EAD 0C52                jsr        [A5 + 0xC52 /* export_390, CODE:7 @ 0000042E */]
000014BC  548F                     addq.l     A7, 2
label000014BE:
000014BE  4E75                     rts
export_171:
000014C0  4E75                     rts
export_172:
fn000014C2:
000014C2  4E56 FFFE                link       A6, -0x0002
000014C6  0C6E FFFF 0008           cmpi.w     [A6 + 0x8], 0xFFFF
000014CC  662E                     bne        +0x30 /* 000014FC */
000014CE  4A2D 9B5F                tst.b      [A5 - 0x64A1]
000014D2  6748                     beq        +0x4A /* 0000151C */
000014D4  102D 9B5E                move.b     D0, [A5 - 0x64A2]
000014D8  49C0                     lea.l      A4, D0
000014DA  5240                     addq.w     D0, 1
000014DC  48C0                     ext.l      D0
000014DE  81FC 0008                divs.w     D0, 0x8
000014E2  4840                     swap.w     D0
000014E4  1B40 9B5E                move.b     [A5 - 0x64A2], D0
000014E8  49C0                     lea.l      A4, D0
000014EA  7200                     moveq.l    D1, 0x00
000014EC  1235 0920 9B56           move.b     D1, [A5 - 0x64AA + D0]
000014F2  3B41 9C9A                move.w     [A5 - 0x6366], D1
000014F6  4EAD 0852                jsr        [A5 + 0x852 /* export_262, CODE:4 @ 00001640 */]
000014FA  6020                     bra        +0x22 /* 0000151C */
label000014FC:
000014FC  4A6E 0008                tst.w      [A6 + 0x8]
00001500  670E                     beq        +0x10 /* 00001510 */
00001502  4A2D 9B5F                tst.b      [A5 - 0x64A1]
00001506  6614                     bne        +0x16 /* 0000151C */
00001508  1B7C 0001 9B5F           move.b     [A5 - 0x64A1], 0x1
0000150E  600C                     bra        +0xE /* 0000151C */
label00001510:
00001510  422D 9B5F                clr.b      [A5 - 0x64A1]
00001514  426D 9C9A                clr.w      [A5 - 0x6366]
00001518  4EAD 0852                jsr        [A5 + 0x852 /* export_262, CODE:4 @ 00001640 */]
label0000151C:
0000151C  4E5E                     unlink     A6
0000151E  4E75                     rts
export_173:
00001520  4E56 0000                link       A6, 0
00001524  48E7 0300                movem.l    -[A7], D6,D7
00001528  3E2E 0008                move.w     D7, [A6 + 0x8]
0000152C  3F07                     move.w     -[A7], D7
0000152E  3F3C 0006                move.w     -[A7], 0x6
00001532  4EAD 03E2                jsr        [A5 + 0x3E2 /* export_120, CODE:2 @ 00003CEE */]
00001536  4A80                     tst.l      D0
00001538  588F                     addq.l     A7, 4
0000153A  6608                     bne        +0xA /* 00001544 */
0000153C  3F07                     move.w     -[A7], D7
0000153E  4EBA 1B90                jsr        [PC + 0x1B90 /* 000030D0 */]
00001542  548F                     addq.l     A7, 2
label00001544:
00001544  3B47 F588                move.w     [A5 - 0xA78], D7
00001548  3B6D F588 F58A           move.w     [A5 - 0xA76], [A5 - 0xA78]
0000154E  7C00                     moveq.l    D6, 0x00
00001550  6018                     bra        +0x1A /* 0000156A */
label00001552:
00001552  3047                     movea.w    A0, D7
00001554  2008                     move.l     D0, A0
00001556  E988                     lsl        D0, 4
00001558  41ED EAB6                lea.l      A0, [A5 - 0x154A]
0000155C  D088                     add.l      D0, A0
0000155E  3046                     movea.w    A0, D6
00001560  1BB0 0800 6120 EAA6      move.b     [A5 - 0x155A + D6], [A0 + D0]
00001568  5246                     addq.w     D6, 1
label0000156A:
0000156A  0C46 0010                cmpi.w     D6, 0x10
0000156E  6DE2                     blt        -0x1C /* 00001552 */
00001570  4CDF 00C0                movem.l    D6,D7, [A7]+
00001574  4E5E                     unlink     A6
00001576  4E75                     rts
00001578  4E75                     rts
export_174:
0000157A  4E56 FFF2                link       A6, -0x000E
0000157E  48E7 1F18                movem.l    -[A7], D3,D4,D5,D6,D7,A3,A4
00001582  7000                     moveq.l    D0, 0x00
00001584  102D B2D7                move.b     D0, [A5 - 0x4D29]
00001588  3F00                     move.w     -[A7], D0
0000158A  3F3C 0001                move.w     -[A7], 0x1
0000158E  4EAD 03E2                jsr        [A5 + 0x3E2 /* export_120, CODE:2 @ 00003CEE */]
00001592  5080                     addq.l     D0, 8
00001594  D0AD B2CA                add.l      D0, [A5 - 0x4D36]
00001598  2840                     movea.l    A4, D0
0000159A  7E00                     moveq.l    D7, 0x00
0000159C  588F                     addq.l     A7, 4
0000159E  6000 00C6                bra        +0xC8 /* 00001666 */
label000015A2:
000015A2  7003                     moveq.l    D0, 0x03
000015A4  C1C7                     muls.w     D0, D7
000015A6  3640                     movea.w    A3, D0
000015A8  D7CC                     add.l      A3, A4
000015AA  7C00                     moveq.l    D6, 0x00
000015AC  1C1B                     move.b     D6, [A3]+
000015AE  E446                     asr        D6.w, 2
000015B0  CDEE 000C                muls.w     D6, [A6 + 0xC]
000015B4  48C6                     ext.l      D6
000015B6  8DFC 0100                divs.w     D6, 0x100
000015BA  7000                     moveq.l    D0, 0x00
000015BC  101B                     move.b     D0, [A3]+
000015BE  E440                     asr        D0.w, 2
000015C0  C1EE 000E                muls.w     D0, [A6 + 0xE]
000015C4  48C0                     ext.l      D0
000015C6  81FC 0100                divs.w     D0, 0x100
000015CA  3D40 FFFC                move.w     [A6 - 0x4], D0
000015CE  7200                     moveq.l    D1, 0x00
000015D0  121B                     move.b     D1, [A3]+
000015D2  E441                     asr        D1.w, 2
000015D4  C3EE 0010                muls.w     D1, [A6 + 0x10]
000015D8  48C1                     ext.l      D1
000015DA  83FC 0100                divs.w     D1, 0x100
000015DE  3D41 FFFE                move.w     [A6 - 0x2], D1
000015E2  3A3C 7D00                move.w     D5, 0x7D00 /* '}\0' */
000015E6  7403                     moveq.l    D2, 0x03
000015E8  C5EE 0008                muls.w     D2, [A6 + 0x8]
000015EC  3642                     movea.w    A3, D2
000015EE  D7CC                     add.l      A3, A4
000015F0  382E 0008                move.w     D4, [A6 + 0x8]
000015F4  6060                     bra        +0x62 /* 00001656 */
label000015F6:
000015F6  7600                     moveq.l    D3, 0x00
000015F8  161B                     move.b     D3, [A3]+
000015FA  E443                     asr        D3.w, 2
000015FC  7000                     moveq.l    D0, 0x00
000015FE  101B                     move.b     D0, [A3]+
00001600  E440                     asr        D0.w, 2
00001602  3D40 FFFA                move.w     [A6 - 0x6], D0
00001606  7200                     moveq.l    D1, 0x00
00001608  121B                     move.b     D1, [A3]+
0000160A  E441                     asr        D1.w, 2
0000160C  3D41 FFF8                move.w     [A6 - 0x8], D1
00001610  3406                     move.w     D2, D6
00001612  9443                     sub.w      D2, D3
00001614  3F02                     move.w     -[A7], D2
00001616  4EAD 0C2A                jsr        [A5 + 0xC2A /* export_385, CODE:7 @ 0000028C */]
0000161A  3D40 FFF4                move.w     [A6 - 0xC], D0
0000161E  302E FFFC                move.w     D0, [A6 - 0x4]
00001622  906E FFFA                sub.w      D0, [A6 - 0x6]
00001626  3E80                     move.w     [A7], D0
00001628  4EAD 0C2A                jsr        [A5 + 0xC2A /* export_385, CODE:7 @ 0000028C */]
0000162C  3D40 FFF2                move.w     [A6 - 0xE], D0
00001630  302E FFFE                move.w     D0, [A6 - 0x2]
00001634  906E FFF8                sub.w      D0, [A6 - 0x8]
00001638  3E80                     move.w     [A7], D0
0000163A  4EAD 0C2A                jsr        [A5 + 0xC2A /* export_385, CODE:7 @ 0000028C */]
0000163E  362E FFF2                move.w     D3, [A6 - 0xE]
00001642  D66E FFF4                add.w      D3, [A6 - 0xC]
00001646  D640                     add.w      D3, D0
00001648  BA43                     cmp.w      D5, D3
0000164A  548F                     addq.l     A7, 2
0000164C  6F06                     ble        +0x8 /* 00001654 */
0000164E  3A03                     move.w     D5, D3
00001650  3D44 FFF6                move.w     [A6 - 0xA], D4
label00001654:
00001654  5244                     addq.w     D4, 1
label00001656:
00001656  B86E 000A                cmp.w      D4, [A6 + 0xA]
0000165A  6F9A                     ble        -0x64 /* 000015F6 */
0000165C  1BAE FFF7 7120 F7EE      move.b     [A5 - 0x812 + D7], [A6 - 0x9]
00001664  5247                     addq.w     D7, 1
label00001666:
00001666  0C47 0100                cmpi.w     D7, 0x100
0000166A  6D00 FF36                blt        -0xC8 /* 000015A2 */
0000166E  4CDF 18F8                movem.l    D3,D4,D5,D6,D7,A3,A4, [A7]+
00001672  4E5E                     unlink     A6
00001674  4E75                     rts
fn00001676:
00001676  4E56 0000                link       A6, 0
0000167A  302E 0008                move.w     D0, [A6 + 0x8]
0000167E  B06D 9B60                cmp.w      D0, [A5 - 0x64A0]
00001682  6C06                     bge        +0x8 /* 0000168A */
00001684  3B6E 0008 9B60           move.w     [A5 - 0x64A0], [A6 + 0x8]
label0000168A:
0000168A  302E 000A                move.w     D0, [A6 + 0xA]
0000168E  B06D 9B62                cmp.w      D0, [A5 - 0x649E]
00001692  6F06                     ble        +0x8 /* 0000169A */
00001694  3B6E 000A 9B62           move.w     [A5 - 0x649E], [A6 + 0xA]
label0000169A:
0000169A  4E5E                     unlink     A6
0000169C  4E75                     rts
fn0000169E:
0000169E  48E7 0F18                movem.l    -[A7], D4,D5,D6,D7,A3,A4
000016A2  7000                     moveq.l    D0, 0x00
000016A4  102D B2D7                move.b     D0, [A5 - 0x4D29]
000016A8  3F00                     move.w     -[A7], D0
000016AA  3F3C 0001                move.w     -[A7], 0x1
000016AE  4EAD 03E2                jsr        [A5 + 0x3E2 /* export_120, CODE:2 @ 00003CEE */]
000016B2  D0AD B2CA                add.l      D0, [A5 - 0x4D36]
000016B6  2840                     movea.l    A4, D0
000016B8  486C 0004                pea.l      [A4 + 0x4]
000016BC  4EBA F2CE                jsr        [PC - 0xD32 /* 0000098C */]
000016C0  7203                     moveq.l    D1, 0x03
000016C2  5180                     subq.l     D0, 8
000016C4  4C41 0000                divu.l     D0:D0, D1
000016C8  3B40 9B74                move.w     [A5 - 0x648C], D0
000016CC  508C                     addq.l     A4, 8
000016CE  2EBC 0000 04F8           move.l     [A7], 0x4F8
000016D4  3F00                     move.w     -[A7], D0
000016D6  2F3C 0100 0000           move.l     -[A7], 0x1000000
000016DC  4EAD 09B2                jsr        [A5 + 0x9B2 /* export_306, CODE:5 @ 00003464 */]
000016E0  47ED EF5A                lea.l      A3, [A5 - 0x10A6]
000016E4  0C2D 0013 EDD3           cmpi.b     [A5 - 0x122D], 0x13
000016EA  588F                     addq.l     A7, 4
000016EC  6708                     beq        +0xA /* 000016F6 */
000016EE  0C2D 0013 EDD3           cmpi.b     [A5 - 0x122D], 0x13
000016F4  662A                     bne        +0x2C /* 00001720 */
label000016F6:
000016F6  7E00                     moveq.l    D7, 0x00
000016F8  6020                     bra        +0x22 /* 0000171A */
label000016FA:
000016FA  7C00                     moveq.l    D6, 0x00
000016FC  1C1C                     move.b     D6, [A4]+
000016FE  7A00                     moveq.l    D5, 0x00
00001700  1A1C                     move.b     D5, [A4]+
00001702  7800                     moveq.l    D4, 0x00
00001704  181C                     move.b     D4, [A4]+
00001706  3006                     move.w     D0, D6
00001708  E440                     asr        D0.w, 2
0000170A  16C0                     move.b     [A3]+, D0
0000170C  3005                     move.w     D0, D5
0000170E  E440                     asr        D0.w, 2
00001710  16C0                     move.b     [A3]+, D0
00001712  3004                     move.w     D0, D4
00001714  E440                     asr        D0.w, 2
00001716  16C0                     move.b     [A3]+, D0
00001718  5247                     addq.w     D7, 1
label0000171A:
0000171A  BE6D 9B74                cmp.w      D7, [A5 - 0x648C]
0000171E  6DDA                     blt        -0x24 /* 000016FA */
label00001720:
00001720  0C2D 000E EDD3           cmpi.b     [A5 - 0x122D], 0xE
00001726  663C                     bne        +0x3E /* 00001764 */
00001728  7000                     moveq.l    D0, 0x00
0000172A  102D B2D7                move.b     D0, [A5 - 0x4D29]
0000172E  3F00                     move.w     -[A7], D0
00001730  3F3C 0001                move.w     -[A7], 0x1
00001734  4EAD 03E2                jsr        [A5 + 0x3E2 /* export_120, CODE:2 @ 00003CEE */]
00001738  5080                     addq.l     D0, 8
0000173A  D0AD B2CE                add.l      D0, [A5 - 0x4D32]
0000173E  2840                     movea.l    A4, D0
00001740  7E00                     moveq.l    D7, 0x00
00001742  588F                     addq.l     A7, 4
00001744  6018                     bra        +0x1A /* 0000175E */
label00001746:
00001746  700F                     moveq.l    D0, 0x0F
00001748  C014                     and.b      D0, [A4]
0000174A  1B80 7120 EF5A           move.b     [A5 - 0x10A6 + D7], D0
00001750  7000                     moveq.l    D0, 0x00
00001752  101C                     move.b     D0, [A4]+
00001754  E840                     asr        D0.w, 4
00001756  1B80 7120 F05A           move.b     [A5 - 0xFA6 + D7], D0
0000175C  5247                     addq.w     D7, 1
label0000175E:
0000175E  0C47 0100                cmpi.w     D7, 0x100
00001762  6DE2                     blt        -0x1C /* 00001746 */
label00001764:
00001764  70FF                     moveq.l    D0, 0xFFFFFFFF
00001766  D06D 9B74                add.w      D0, [A5 - 0x648C]
0000176A  3F00                     move.w     -[A7], D0
0000176C  4267                     clr.w      -[A7]
0000176E  4EBA FF06                jsr        [PC - 0xFA /* 00001676 */]
00001772  588F                     addq.l     A7, 4
00001774  4CDF 18F0                movem.l    D4,D5,D6,D7,A3,A4, [A7]+
00001778  4E75                     rts
0000177A  4E56 0000                link       A6, 0
0000177E  48E7 0118                movem.l    -[A7], D7,A3,A4
00001782  3E2E 000A                move.w     D7, [A6 + 0xA]
00001786  0C2D 0013 EDD3           cmpi.b     [A5 - 0x122D], 0x13
0000178C  6708                     beq        +0xA /* 00001796 */
0000178E  0C2D 0013 EDD3           cmpi.b     [A5 - 0x122D], 0x13
00001794  6626                     bne        +0x28 /* 000017BC */
label00001796:
00001796  7003                     moveq.l    D0, 0x03
00001798  C1EE 0008                muls.w     D0, [A6 + 0x8]
0000179C  49ED EF5A                lea.l      A4, [A5 - 0x10A6]
000017A0  D8C0                     add.w      A4, D0
000017A2  7003                     moveq.l    D0, 0x03
000017A4  C1C7                     muls.w     D0, D7
000017A6  47ED EF5A                lea.l      A3, [A5 - 0x10A6]
000017AA  D6C0                     add.w      A3, D0
000017AC  16DC                     move.b     [A3]+, [A4]+
000017AE  16DC                     move.b     [A3]+, [A4]+
000017B0  16DC                     move.b     [A3]+, [A4]+
000017B2  3F07                     move.w     -[A7], D7
000017B4  3F07                     move.w     -[A7], D7
000017B6  4EBA FEBE                jsr        [PC - 0x142 /* 00001676 */]
000017BA  588F                     addq.l     A7, 4
label000017BC:
000017BC  4CDF 1880                movem.l    D7,A3,A4, [A7]+
000017C0  4E5E                     unlink     A6
000017C2  4E75                     rts
export_175:
000017C4  70FF                     moveq.l    D0, 0xFFFFFFFF
000017C6  D06D 9B74                add.w      D0, [A5 - 0x648C]
000017CA  3F00                     move.w     -[A7], D0
000017CC  4267                     clr.w      -[A7]
000017CE  4EBA FEA6                jsr        [PC - 0x15A /* 00001676 */]
000017D2  588F                     addq.l     A7, 4
000017D4  4E75                     rts
export_176:
000017D6  4E56 FFFE                link       A6, -0x0002
000017DA  2F0C                     move.l     -[A7], A4
000017DC  0C2D 0013 EDD3           cmpi.b     [A5 - 0x122D], 0x13
000017E2  6708                     beq        +0xA /* 000017EC */
000017E4  0C2D 0013 EDD3           cmpi.b     [A5 - 0x122D], 0x13
000017EA  6638                     bne        +0x3A /* 00001824 */
label000017EC:
000017EC  7003                     moveq.l    D0, 0x03
000017EE  C0EE 0008                mulu.w     D0, [A6 + 0x8]
000017F2  7200                     moveq.l    D1, 0x00
000017F4  3200                     move.w     D1, D0
000017F6  49ED EF5A                lea.l      A4, [A5 - 0x10A6]
000017FA  D28C                     add.l      D1, A4
000017FC  2841                     movea.l    A4, D1
000017FE  302E 000A                move.w     D0, [A6 + 0xA]
00001802  E448                     lsr        D0.w, 2
00001804  18C0                     move.b     [A4]+, D0
00001806  302E 000C                move.w     D0, [A6 + 0xC]
0000180A  E448                     lsr        D0.w, 2
0000180C  18C0                     move.b     [A4]+, D0
0000180E  302E 000E                move.w     D0, [A6 + 0xE]
00001812  E448                     lsr        D0.w, 2
00001814  18C0                     move.b     [A4]+, D0
00001816  3F2E 0008                move.w     -[A7], [A6 + 0x8]
0000181A  3F2E 0008                move.w     -[A7], [A6 + 0x8]
0000181E  4EBA FE56                jsr        [PC - 0x1AA /* 00001676 */]
00001822  588F                     addq.l     A7, 4
label00001824:
00001824  285F                     movea.l    A4, [A7]+
00001826  4E5E                     unlink     A6
00001828  4E75                     rts
export_177:
0000182A  4E56 0000                link       A6, 0
0000182E  48E7 0718                movem.l    -[A7], D5,D6,D7,A3,A4
00001832  3C2E 0008                move.w     D6, [A6 + 0x8]
00001836  0C2D 0013 EDD3           cmpi.b     [A5 - 0x122D], 0x13
0000183C  670A                     beq        +0xC /* 00001848 */
0000183E  0C2D 0013 EDD3           cmpi.b     [A5 - 0x122D], 0x13
00001844  6600 00D6                bne        +0xD8 /* 0000191C */
label00001848:
00001848  7000                     moveq.l    D0, 0x00
0000184A  102D B2D7                move.b     D0, [A5 - 0x4D29]
0000184E  3F00                     move.w     -[A7], D0
00001850  3F3C 0001                move.w     -[A7], 0x1
00001854  4EAD 03E2                jsr        [A5 + 0x3E2 /* export_120, CODE:2 @ 00003CEE */]
00001858  7E03                     moveq.l    D7, 0x03
0000185A  CFC6                     muls.w     D7, D6
0000185C  5080                     addq.l     D0, 8
0000185E  D0AD B2CA                add.l      D0, [A5 - 0x4D36]
00001862  3847                     movea.w    A4, D7
00001864  D08C                     add.l      D0, A4
00001866  2840                     movea.l    A4, D0
00001868  47ED EF5A                lea.l      A3, [A5 - 0x10A6]
0000186C  D6C7                     add.w      A3, D7
0000186E  3E06                     move.w     D7, D6
00001870  588F                     addq.l     A7, 4
00001872  6000 0094                bra        +0x96 /* 00001908 */
label00001876:
00001876  0C6E 00FF 000C           cmpi.w     [A6 + 0xC], 0xFF
0000187C  6718                     beq        +0x1A /* 00001896 */
0000187E  302E 000C                move.w     D0, [A6 + 0xC]
00001882  E448                     lsr        D0.w, 2
00001884  7A00                     moveq.l    D5, 0x00
00001886  1A1C                     move.b     D5, [A4]+
00001888  CAC0                     mulu.w     D5, D0
0000188A  7000                     moveq.l    D0, 0x00
0000188C  3005                     move.w     D0, D5
0000188E  80FC 00FF                divu.w     D0, 0xFF
00001892  3A00                     move.w     D5, D0
00001894  6006                     bra        +0x8 /* 0000189C */
label00001896:
00001896  7A00                     moveq.l    D5, 0x00
00001898  1A1C                     move.b     D5, [A4]+
0000189A  E445                     asr        D5.w, 2
label0000189C:
0000189C  0C45 003F                cmpi.w     D5, 0x3F /* '?' */
000018A0  6302                     bls        +0x4 /* 000018A4 */
000018A2  7A3F                     moveq.l    D5, 0x3F
label000018A4:
000018A4  16C5                     move.b     [A3]+, D5
000018A6  0C6E 00FF 000E           cmpi.w     [A6 + 0xE], 0xFF
000018AC  6718                     beq        +0x1A /* 000018C6 */
000018AE  302E 000E                move.w     D0, [A6 + 0xE]
000018B2  E448                     lsr        D0.w, 2
000018B4  7A00                     moveq.l    D5, 0x00
000018B6  1A1C                     move.b     D5, [A4]+
000018B8  CAC0                     mulu.w     D5, D0
000018BA  7000                     moveq.l    D0, 0x00
000018BC  3005                     move.w     D0, D5
000018BE  80FC 00FF                divu.w     D0, 0xFF
000018C2  3A00                     move.w     D5, D0
000018C4  6006                     bra        +0x8 /* 000018CC */
label000018C6:
000018C6  7A00                     moveq.l    D5, 0x00
000018C8  1A1C                     move.b     D5, [A4]+
000018CA  E445                     asr        D5.w, 2
label000018CC:
000018CC  0C45 003F                cmpi.w     D5, 0x3F /* '?' */
000018D0  6302                     bls        +0x4 /* 000018D4 */
000018D2  7A3F                     moveq.l    D5, 0x3F
label000018D4:
000018D4  16C5                     move.b     [A3]+, D5
000018D6  0C6E 00FF 0010           cmpi.w     [A6 + 0x10], 0xFF
000018DC  6718                     beq        +0x1A /* 000018F6 */
000018DE  302E 0010                move.w     D0, [A6 + 0x10]
000018E2  E448                     lsr        D0.w, 2
000018E4  7A00                     moveq.l    D5, 0x00
000018E6  1A1C                     move.b     D5, [A4]+
000018E8  CAC0                     mulu.w     D5, D0
000018EA  7000                     moveq.l    D0, 0x00
000018EC  3005                     move.w     D0, D5
000018EE  80FC 00FF                divu.w     D0, 0xFF
000018F2  3A00                     move.w     D5, D0
000018F4  6006                     bra        +0x8 /* 000018FC */
label000018F6:
000018F6  7A00                     moveq.l    D5, 0x00
000018F8  1A1C                     move.b     D5, [A4]+
000018FA  E445                     asr        D5.w, 2
label000018FC:
000018FC  0C45 003F                cmpi.w     D5, 0x3F /* '?' */
00001900  6302                     bls        +0x4 /* 00001904 */
00001902  7A3F                     moveq.l    D5, 0x3F
label00001904:
00001904  16C5                     move.b     [A3]+, D5
00001906  5247                     addq.w     D7, 1
label00001908:
00001908  BE6E 000A                cmp.w      D7, [A6 + 0xA]
0000190C  6F00 FF68                ble        -0x96 /* 00001876 */
00001910  3F2E 000A                move.w     -[A7], [A6 + 0xA]
00001914  3F06                     move.w     -[A7], D6
00001916  4EBA FD5E                jsr        [PC - 0x2A2 /* 00001676 */]
0000191A  588F                     addq.l     A7, 4
label0000191C:
0000191C  4CDF 18E0                movem.l    D5,D6,D7,A3,A4, [A7]+
00001920  4E5E                     unlink     A6
00001922  4E75                     rts
export_178:
00001924  4E56 FFF6                link       A6, -0x000A
00001928  0C6D FFFF 9B62           cmpi.w     [A5 - 0x649E], 0xFFFF
0000192E  6710                     beq        +0x12 /* 00001940 */
00001930  4EAD 08E2                jsr        [A5 + 0x8E2 /* export_280, CODE:4 @ 000024A2 */]
00001934  3B7C FFFF 9B62           move.w     [A5 - 0x649E], 0xFFFF
0000193A  3B7C 03E8 9B60           move.w     [A5 - 0x64A0], 0x3E8
label00001940:
00001940  4E5E                     unlink     A6
00001942  4E75                     rts
fn00001944:
00001944  4E56 0000                link       A6, 0
00001948  48E7 0318                movem.l    -[A7], D6,D7,A3,A4
0000194C  266E 0008                movea.l    A3, [A6 + 0x8]
00001950  7E01                     moveq.l    D7, 0x01
00001952  49ED F77E                lea.l      A4, [A5 - 0x882]
00001956  6006                     bra        +0x8 /* 0000195E */
label00001958:
00001958  4254                     clr.w      [A4]
0000195A  5247                     addq.w     D7, 1
0000195C  548C                     addq.l     A4, 2
label0000195E:
0000195E  0C47 0010                cmpi.w     D7, 0x10
00001962  6FF4                     ble        -0xA /* 00001958 */
00001964  6028                     bra        +0x2A /* 0000198E */
label00001966:
00001966  3C13                     move.w     D6, [A3]
00001968  548B                     addq.l     A3, 2
0000196A  3847                     movea.w    A4, D7
0000196C  D9CC                     add.l      A4, A4
0000196E  41ED F77C                lea.l      A0, [A5 - 0x884]
00001972  D1CC                     add.l      A0, A4
00001974  3093                     move.w     [A0], [A3]
00001976  548B                     addq.l     A3, 2
00001978  41ED F79E                lea.l      A0, [A5 - 0x862]
0000197C  D1CC                     add.l      A0, A4
0000197E  3093                     move.w     [A0], [A3]
00001980  548B                     addq.l     A3, 2
00001982  1B9B 7120 F7C0           move.b     [A5 - 0x840 + D7], [A3]+
00001988  1B9B 7120 F7D1           move.b     [A5 - 0x82F + D7], [A3]+
label0000198E:
0000198E  7E00                     moveq.l    D7, 0x00
00001990  1E1B                     move.b     D7, [A3]+
00001992  4A47                     tst.w      D7
00001994  66D0                     bne        -0x2E /* 00001966 */
00001996  4CDF 18C0                movem.l    D6,D7,A3,A4, [A7]+
0000199A  4E5E                     unlink     A6
0000199C  4E75                     rts
export_179:
0000199E  4E56 FFFC                link       A6, -0x0004
000019A2  48E7 1F38                movem.l    -[A7], D3,D4,D5,D6,D7,A2,A3,A4
000019A6  0C2D 0013 EDD3           cmpi.b     [A5 - 0x122D], 0x13
000019AC  670A                     beq        +0xC /* 000019B8 */
000019AE  0C2D 0013 EDD3           cmpi.b     [A5 - 0x122D], 0x13
000019B4  6600 00DE                bne        +0xE0 /* 00001A94 */
label000019B8:
000019B8  7A01                     moveq.l    D5, 0x01
000019BA  41ED F7A0                lea.l      A0, [A5 - 0x860]
000019BE  2C08                     move.l     D6, A0
000019C0  41ED F77E                lea.l      A0, [A5 - 0x882]
000019C4  2E08                     move.l     D7, A0
000019C6  6000 00C4                bra        +0xC6 /* 00001A8C */
label000019CA:
000019CA  2047                     movea.l    A0, D7
000019CC  4A50                     tst.w      [A0]
000019CE  6700 00B6                beq        +0xB8 /* 00001A86 */
000019D2  49ED F7C0                lea.l      A4, [A5 - 0x840]
000019D6  D8C5                     add.w      A4, D5
000019D8  7000                     moveq.l    D0, 0x00
000019DA  1035 5120 F7D1           move.b     D0, [A5 - 0x82F + D5]
000019E0  3F00                     move.w     -[A7], D0
000019E2  7000                     moveq.l    D0, 0x00
000019E4  1014                     move.b     D0, [A4]
000019E6  3F00                     move.w     -[A7], D0
000019E8  4EBA FC8C                jsr        [PC - 0x374 /* 00001676 */]
000019EC  2046                     movea.l    A0, D6
000019EE  0810 0001                btst.b     [A0], 0x1
000019F2  588F                     addq.l     A7, 4
000019F4  6744                     beq        +0x46 /* 00001A3A */
000019F6  7000                     moveq.l    D0, 0x00
000019F8  1014                     move.b     D0, [A4]
000019FA  C1FC 0003                muls.w     D0, 0x3
000019FE  45ED EF5A                lea.l      A2, [A5 - 0x10A6]
00001A02  D4C0                     add.w      A2, D0
00001A04  47EA 0003                lea.l      A3, [A2 + 0x3]
00001A08  1D52 FFFC                move.b     [A6 - 0x4], [A2]
00001A0C  1D6A 0001 FFFD           move.b     [A6 - 0x3], [A2 + 0x1]
00001A12  1D6A 0002 FFFE           move.b     [A6 - 0x2], [A2 + 0x2]
00001A18  7800                     moveq.l    D4, 0x00
00001A1A  1814                     move.b     D4, [A4]
label00001A1C:
00001A1C  7600                     moveq.l    D3, 0x00
00001A1E  1635 5120 F7D1           move.b     D3, [A5 - 0x82F + D5]
00001A24  B644                     cmp.w      D3, D4
00001A26  6D5E                     blt        +0x60 /* 00001A86 */
00001A28  B644                     cmp.w      D3, D4
00001A2A  6604                     bne        +0x6 /* 00001A30 */
00001A2C  47EE FFFC                lea.l      A3, [A6 - 0x4]
label00001A30:
00001A30  14DB                     move.b     [A2]+, [A3]+
00001A32  14DB                     move.b     [A2]+, [A3]+
00001A34  14DB                     move.b     [A2]+, [A3]+
00001A36  5244                     addq.w     D4, 1
00001A38  60E2                     bra        -0x1C /* 00001A1C */
label00001A3A:
00001A3A  7000                     moveq.l    D0, 0x00
00001A3C  1035 5120 F7D1           move.b     D0, [A5 - 0x82F + D5]
00001A42  C1FC 0003                muls.w     D0, 0x3
00001A46  45ED EF5A                lea.l      A2, [A5 - 0x10A6]
00001A4A  D4C0                     add.w      A2, D0
00001A4C  47EA FFFD                lea.l      A3, [A2 - 0x3]
00001A50  1D52 FFFC                move.b     [A6 - 0x4], [A2]
00001A54  1D6A 0001 FFFD           move.b     [A6 - 0x3], [A2 + 0x1]
00001A5A  1D6A 0002 FFFE           move.b     [A6 - 0x2], [A2 + 0x2]
00001A60  7800                     moveq.l    D4, 0x00
00001A62  1814                     move.b     D4, [A4]
label00001A64:
00001A64  7600                     moveq.l    D3, 0x00
00001A66  1635 5120 F7D1           move.b     D3, [A5 - 0x82F + D5]
00001A6C  B644                     cmp.w      D3, D4
00001A6E  6D16                     blt        +0x18 /* 00001A86 */
00001A70  B644                     cmp.w      D3, D4
00001A72  6604                     bne        +0x6 /* 00001A78 */
00001A74  47EE FFFC                lea.l      A3, [A6 - 0x4]
label00001A78:
00001A78  14DB                     move.b     [A2]+, [A3]+
00001A7A  14DB                     move.b     [A2]+, [A3]+
00001A7C  14DB                     move.b     [A2]+, [A3]+
00001A7E  5D8B                     subq.l     A3, 6
00001A80  5D8A                     subq.l     A2, 6
00001A82  5244                     addq.w     D4, 1
00001A84  60DE                     bra        -0x20 /* 00001A64 */
label00001A86:
00001A86  5245                     addq.w     D5, 1
00001A88  5486                     addq.l     D6, 2
00001A8A  5487                     addq.l     D7, 2
label00001A8C:
00001A8C  0C45 0010                cmpi.w     D5, 0x10
00001A90  6F00 FF38                ble        -0xC6 /* 000019CA */
label00001A94:
00001A94  4CDF 1CF8                movem.l    D3,D4,D5,D6,D7,A2,A3,A4, [A7]+
00001A98  4E5E                     unlink     A6
00001A9A  4E75                     rts
fn00001A9C:
00001A9C  4E56 0000                link       A6, 0
00001AA0  48E7 0108                movem.l    -[A7], D7,A4
00001AA4  3E2E 0008                move.w     D7, [A6 + 0x8]
00001AA8  2F3C 0000 0518           move.l     -[A7], 0x518
00001AAE  3F07                     move.w     -[A7], D7
00001AB0  2F3C 0010 0000           move.l     -[A7], 0x100000
00001AB6  4EAD 09B2                jsr        [A5 + 0x9B2 /* export_306, CODE:5 @ 00003464 */]
00001ABA  4A47                     tst.w      D7
00001ABC  6708                     beq        +0xA /* 00001AC6 */
00001ABE  4275 7320 F77C           clr.w      [A5 - 0x884 + D7 * 2]
00001AC4  6014                     bra        +0x16 /* 00001ADA */
label00001AC6:
00001AC6  7E01                     moveq.l    D7, 0x01
00001AC8  49ED F77E                lea.l      A4, [A5 - 0x882]
00001ACC  6006                     bra        +0x8 /* 00001AD4 */
label00001ACE:
00001ACE  4254                     clr.w      [A4]
00001AD0  5247                     addq.w     D7, 1
00001AD2  548C                     addq.l     A4, 2
label00001AD4:
00001AD4  0C47 0010                cmpi.w     D7, 0x10
00001AD8  6FF4                     ble        -0xA /* 00001ACE */
label00001ADA:
00001ADA  4CDF 1080                movem.l    D7,A4, [A7]+
00001ADE  4E5E                     unlink     A6
00001AE0  4E75                     rts
fn00001AE2:
00001AE2  426D ECAA                clr.w      [A5 - 0x1356]
label00001AE6:
00001AE6  3F3C 0002                move.w     -[A7], 0x2
00001AEA  4EAD 03C2                jsr        [A5 + 0x3C2 /* export_116, CODE:2 @ 00003A0E */]
00001AEE  548F                     addq.l     A7, 2
00001AF0  4A6D ECA8                tst.w      [A5 - 0x1358]
00001AF4  6606                     bne        +0x8 /* 00001AFC */
00001AF6  4A6D ECAA                tst.w      [A5 - 0x1356]
00001AFA  67EA                     beq        -0x14 /* 00001AE6 */
label00001AFC:
00001AFC  0C6D 0003 ECA8           cmpi.w     [A5 - 0x1358], 0x3
00001B02  6604                     bne        +0x6 /* 00001B08 */
00001B04  4EAD 0702                jsr        [A5 + 0x702 /* export_220, CODE:4 @ 00005008 */]
label00001B08:
00001B08  302D ECA8                move.w     D0, [A5 - 0x1358]
00001B0C  4E75                     rts
export_182:
00001B0E  48E7 0308                movem.l    -[A7], D6,D7,A4
00001B12  4267                     clr.w      -[A7]
00001B14  4EAD 03C2                jsr        [A5 + 0x3C2 /* export_116, CODE:2 @ 00003A0E */]
00001B18  302D EDBE                move.w     D0, [A5 - 0x1242]
00001B1C  D06D F296                add.w      D0, [A5 - 0xD6A]
00001B20  3B40 EDC2                move.w     [A5 - 0x123E], D0
00001B24  322D EDC0                move.w     D1, [A5 - 0x1240]
00001B28  926D F28C                sub.w      D1, [A5 - 0xD74]
00001B2C  3B41 EDC4                move.w     [A5 - 0x123C], D1
00001B30  4A41                     tst.w      D1
00001B32  548F                     addq.l     A7, 2
00001B34  6C06                     bge        +0x8 /* 00001B3C */
00001B36  3B7C FFFF EDC4           move.w     [A5 - 0x123C], 0xFFFF
label00001B3C:
00001B3C  302D EDC4                move.w     D0, [A5 - 0x123C]
00001B40  B06D F290                cmp.w      D0, [A5 - 0xD70]
00001B44  6506                     bcs        +0x8 /* 00001B4C */
00001B46  3B7C FFFF EDC4           move.w     [A5 - 0x123C], 0xFFFF
label00001B4C:
00001B4C  4A6D ECA8                tst.w      [A5 - 0x1358]
00001B50  6700 0240                beq        +0x242 /* 00001D92 */
label00001B54:
00001B54  302D ECA8                move.w     D0, [A5 - 0x1358]
00001B58  6B0E                     bmi        +0x10 /* 00001B68 */
00001B5A  5740                     subq.w     D0, 3
00001B5C  6702                     beq        +0x4 /* 00001B60 */
00001B5E  6008                     bra        +0xA /* 00001B68 */
label00001B60:
00001B60  4EBA 0558                jsr        [PC + 0x558 /* 000020BA */]
00001B64  6000 022C                bra        +0x22E /* 00001D92 */
label00001B68:
00001B68  4A6D F736                tst.w      [A5 - 0x8CA]
00001B6C  6600 00E8                bne        +0xEA /* 00001C56 */
00001B70  302D ECA8                move.w     D0, [A5 - 0x1358]
00001B74  6B00 00E0                bmi        +0xE2 /* 00001C56 */
00001B78  0440 002D                subi.w     D0, 0x2D /* '-' */
00001B7C  6772                     beq        +0x74 /* 00001BF0 */
00001B7E  6A14                     bpl        +0x16 /* 00001B94 */
00001B80  5440                     addq.w     D0, 2
00001B82  6700 0080                beq        +0x82 /* 00001C04 */
00001B86  6A00 00CE                bpl        +0xD0 /* 00001C56 */
00001B8A  0440 FFD9                subi.w     D0, 0xFFD9
00001B8E  6718                     beq        +0x1A /* 00001BA8 */
00001B90  6000 00C4                bra        +0xC6 /* 00001C56 */
label00001B94:
00001B94  0440 0032                subi.w     D0, 0x32 /* '2' */
00001B98  6756                     beq        +0x58 /* 00001BF0 */
00001B9A  6A00 00BA                bpl        +0xBC /* 00001C56 */
00001B9E  0440 FFDE                subi.w     D0, 0xFFDE
00001BA2  6760                     beq        +0x62 /* 00001C04 */
00001BA4  6000 00B0                bra        +0xB2 /* 00001C56 */
label00001BA8:
00001BA8  4A6D F27C                tst.w      [A5 - 0xD84]
00001BAC  6708                     beq        +0xA /* 00001BB6 */
00001BAE  426D F27C                clr.w      [A5 - 0xD84]
00001BB2  6000 01DE                bra        +0x1E0 /* 00001D92 */
label00001BB6:
00001BB6  2F3C 0007 0016           move.l     -[A7], 0x70016
00001BBC  4EAD 03E2                jsr        [A5 + 0x3E2 /* export_120, CODE:2 @ 00003CEE */]
00001BC0  2840                     movea.l    A4, D0
00001BC2  2E8C                     move.l     [A7], A4
00001BC4  4EAD 0CE2                jsr        [A5 + 0xCE2 /* export_408, CODE:7 @ 00004AE2 */]
00001BC8  3C00                     move.w     D6, D0
00001BCA  3E86                     move.w     [A7], D6
00001BCC  3046                     movea.w    A0, D6
00001BCE  43ED 9BB2                lea.l      A1, [A5 - 0x644E]
00001BD2  93C8                     sub.l      A1, A0
00001BD4  2F09                     move.l     -[A7], A1
00001BD6  2F0C                     move.l     -[A7], A4
00001BD8  4EAD 0CEA                jsr        [A5 + 0xCEA /* export_409, CODE:7 @ 00004B2E */]
00001BDC  4A40                     tst.w      D0
00001BDE  4FEF 000C                lea.l      A7, [A7 + 0xC]
00001BE2  6600 01AE                bne        +0x1B0 /* 00001D92 */
00001BE6  3B7C 0001 F27C           move.w     [A5 - 0xD84], 0x1
00001BEC  6000 01A4                bra        +0x1A6 /* 00001D92 */
label00001BF0:
00001BF0  526D C976                addq.w     [A5 - 0x368A], 1
00001BF4  0C6D 0009 C976           cmpi.w     [A5 - 0x368A], 0x9 /* '\t' */
00001BFA  6F16                     ble        +0x18 /* 00001C12 */
00001BFC  3B7C 0009 C976           move.w     [A5 - 0x368A], 0x9 /* '\t' */
00001C02  600E                     bra        +0x10 /* 00001C12 */
label00001C04:
00001C04  536D C976                subq.w     [A5 - 0x368A], 1
00001C08  4A6D C976                tst.w      [A5 - 0x368A]
00001C0C  6C04                     bge        +0x6 /* 00001C12 */
00001C0E  426D C976                clr.w      [A5 - 0x368A]
label00001C12:
00001C12  426D ECA8                clr.w      [A5 - 0x1358]
00001C16  7E00                     moveq.l    D7, 0x00
00001C18  600A                     bra        +0xC /* 00001C24 */
label00001C1A:
00001C1A  1BBC 000B 7120 9B89      move.b     [A5 - 0x6477 + D7], 0xB
00001C22  5247                     addq.w     D7, 1
label00001C24:
00001C24  0C47 000A                cmpi.w     D7, 0xA /* '\n' */
00001C28  6DF0                     blt        -0xE /* 00001C1A */
00001C2A  701C                     moveq.l    D0, 0x1C
00001C2C  906D C976                sub.w      D0, [A5 - 0x368A]
00001C30  1BBC 000C 0120 9B76      move.b     [A5 - 0x648A + D0], 0xC
00001C38  4267                     clr.w      -[A7]
00001C3A  486D 9B76                pea.l      [A5 - 0x648A]
00001C3E  2F3C 005A 0000           move.l     -[A7], 0x5A0000 /* 'Z\0\0' */
00001C44  4EBA 01B0                jsr        [PC + 0x1B0 /* 00001DF6 */]
00001C48  4A6D ECA8                tst.w      [A5 - 0x1358]
00001C4C  548F                     addq.l     A7, 2
00001C4E  6600 FF04                bne        -0xFA /* 00001B54 */
00001C52  6000 013E                bra        +0x140 /* 00001D92 */
label00001C56:
00001C56  302D ECA8                move.w     D0, [A5 - 0x1358]
00001C5A  B06D C990                cmp.w      D0, [A5 - 0x3670]
00001C5E  6608                     bne        +0xA /* 00001C68 */
00001C60  4A2D B2D6                tst.b      [A5 - 0x4D2A]
00001C64  6000 012C                bra        +0x12E /* 00001D92 */
label00001C68:
00001C68  302D ECA8                move.w     D0, [A5 - 0x1358]
00001C6C  B06D C980                cmp.w      D0, [A5 - 0x3680]
00001C70  660E                     bne        +0x10 /* 00001C80 */
00001C72  3F3C 0001                move.w     -[A7], 0x1
00001C76  4EBA 03B2                jsr        [PC + 0x3B2 /* 0000202A */]
00001C7A  548F                     addq.l     A7, 2
00001C7C  6000 0114                bra        +0x116 /* 00001D92 */
label00001C80:
00001C80  302D ECA8                move.w     D0, [A5 - 0x1358]
00001C84  B06D C982                cmp.w      D0, [A5 - 0x367E]
00001C88  662A                     bne        +0x2C /* 00001CB4 */
00001C8A  4EAD 0AAA                jsr        [A5 + 0xAAA /* export_337, CODE:5 @ 00003866 */]
00001C8E  3F3C 0004                move.w     -[A7], 0x4
00001C92  4EBA 0104                jsr        [PC + 0x104 /* 00001D98 */]
00001C96  4257                     clr.w      [A7]
00001C98  486D F630                pea.l      [A5 - 0x9D0]
00001C9C  2F3C 00FF 0000           move.l     -[A7], 0xFF0000
00001CA2  4EBA 0152                jsr        [PC + 0x152 /* 00001DF6 */]
00001CA6  4EAD 0AB2                jsr        [A5 + 0xAB2 /* export_338, CODE:5 @ 0000386C */]
00001CAA  426D ECD4                clr.w      [A5 - 0x132C]
00001CAE  548F                     addq.l     A7, 2
00001CB0  6000 00E0                bra        +0xE2 /* 00001D92 */
label00001CB4:
00001CB4  302D ECA8                move.w     D0, [A5 - 0x1358]
00001CB8  B06D C95C                cmp.w      D0, [A5 - 0x36A4]
00001CBC  6600 0090                bne        +0x92 /* 00001D4E */
00001CC0  7000                     moveq.l    D0, 0x00
00001CC2  102D ED3E                move.b     D0, [A5 - 0x12C2]
00001CC6  4AB5 0D20 ED40           tst.l      [A5 - 0x12C0 + D0 * 4]
00001CCC  6700 0080                beq        +0x82 /* 00001D4E */
00001CD0  7000                     moveq.l    D0, 0x00
00001CD2  102D ED3E                move.b     D0, [A5 - 0x12C2]
00001CD6  7200                     moveq.l    D1, 0x00
00001CD8  122D ED3E                move.b     D1, [A5 - 0x12C2]
00001CDC  7400                     moveq.l    D2, 0x00
00001CDE  1435 1920 ED54           move.b     D2, [A5 - 0x12AC + D1]
00001CE4  C5FC 0012                muls.w     D2, 0x12
00001CE8  2BB5 0D20 ED40 2920 C59A move.l     [A5 - 0x3A66 + D2], [A5 - 0x12C0 + D0 * 4]
00001CF2  7000                     moveq.l    D0, 0x00
00001CF4  102D ED3E                move.b     D0, [A5 - 0x12C2]
00001CF8  7200                     moveq.l    D1, 0x00
00001CFA  1235 0920 ED54           move.b     D1, [A5 - 0x12AC + D0]
00001D00  C3FC 0012                muls.w     D1, 0x12
00001D04  1BBC 0002 1920 C5A4      move.b     [A5 - 0x3A5C + D1], 0x2
00001D0C  7000                     moveq.l    D0, 0x00
00001D0E  102D ED3E                move.b     D0, [A5 - 0x12C2]
00001D12  7200                     moveq.l    D1, 0x00
00001D14  1235 0920 ED54           move.b     D1, [A5 - 0x12AC + D0]
00001D1A  C3FC 0012                muls.w     D1, 0x12
00001D1E  4235 1920 C5A8           clr.b      [A5 - 0x3A58 + D1]
00001D24  7000                     moveq.l    D0, 0x00
00001D26  102D ED3E                move.b     D0, [A5 - 0x12C2]
00001D2A  7200                     moveq.l    D1, 0x00
00001D2C  1235 0920 ED54           move.b     D1, [A5 - 0x12AC + D0]
00001D32  C3FC 0012                muls.w     D1, 0x12
00001D36  5335 1920 C5AA           subq.b     [A5 - 0x3A56 + D1], 1
00001D3C  3B7C 0001 C936           move.w     [A5 - 0x36CA], 0x1
00001D42  7000                     moveq.l    D0, 0x00
00001D44  102D ED3E                move.b     D0, [A5 - 0x12C2]
00001D48  42B5 0D20 ED40           clr.l      [A5 - 0x12C0 + D0 * 4]
label00001D4E:
00001D4E  302D ECA8                move.w     D0, [A5 - 0x1358]
00001D52  B06D C99E                cmp.w      D0, [A5 - 0x3662]
00001D56  6606                     bne        +0x8 /* 00001D5E */
00001D58  426D ED0C                clr.w      [A5 - 0x12F4]
00001D5C  6034                     bra        +0x36 /* 00001D92 */
label00001D5E:
00001D5E  7E00                     moveq.l    D7, 0x00
00001D60  600C                     bra        +0xE /* 00001D6E */
label00001D62:
00001D62  1BB5 7120 9B9F 7120 9B9E move.b     [A5 - 0x6462 + D7], [A5 - 0x6461 + D7]
00001D6C  5247                     addq.w     D7, 1
label00001D6E:
00001D6E  0C47 0013                cmpi.w     D7, 0x13
00001D72  6DEE                     blt        -0x10 /* 00001D62 */
00001D74  709D                     moveq.l    D0, 0xFFFFFF9D
00001D76  D02D ECA9                add.b      D0, [A5 - 0x1357]
00001D7A  1B40 9BB1                move.b     [A5 - 0x644F], D0
00001D7E  4A6D F27C                tst.w      [A5 - 0xD84]
00001D82  6708                     beq        +0xA /* 00001D8C */
00001D84  4EAD 045A                jsr        [A5 + 0x45A /* export_135, CODE:2 @ 0000455C */]
00001D88  5340                     subq.w     D0, 1
00001D8A  6706                     beq        +0x8 /* 00001D92 */
label00001D8C:
00001D8C  3B6D ECA8 ECAA           move.w     [A5 - 0x1356], [A5 - 0x1358]
label00001D92:
00001D92  4CDF 10C0                movem.l    D6,D7,A4, [A7]+
00001D96  4E75                     rts
fn00001D98:
00001D98  4E56 0000                link       A6, 0
00001D9C  3F2E 0008                move.w     -[A7], [A6 + 0x8]
00001DA0  3F3C 0007                move.w     -[A7], 0x7
00001DA4  4EAD 03E2                jsr        [A5 + 0x3E2 /* export_120, CODE:2 @ 00003CEE */]
00001DA8  2E80                     move.l     [A7], D0
00001DAA  486D F630                pea.l      [A5 - 0x9D0]
00001DAE  4EAD 0962                jsr        [A5 + 0x962 /* export_296, CODE:5 @ 00001B0E */]
00001DB2  4E5E                     unlink     A6
00001DB4  4E75                     rts
fn00001DB6:
00001DB6  4E56 0000                link       A6, 0
00001DBA  2F07                     move.l     -[A7], D7
00001DBC  3E2E 0008                move.w     D7, [A6 + 0x8]
00001DC0  E54F                     lsl        D7.w, 2
00001DC2  DE6D ECD4                add.w      D7, [A5 - 0x132C]
00001DC6  426D ECA8                clr.w      [A5 - 0x1358]
00001DCA  4A6D F27E                tst.w      [A5 - 0xD82]
00001DCE  6710                     beq        +0x12 /* 00001DE0 */
00001DD0  601A                     bra        +0x1C /* 00001DEC */
label00001DD2:
00001DD2  3F3C 0001                move.w     -[A7], 0x1
00001DD6  4EAD 03C2                jsr        [A5 + 0x3C2 /* export_116, CODE:2 @ 00003A0E */]
00001DDA  3B40 ECA8                move.w     [A5 - 0x1358], D0
00001DDE  548F                     addq.l     A7, 2
label00001DE0:
00001DE0  BE6D ECD4                cmp.w      D7, [A5 - 0x132C]
00001DE4  6506                     bcs        +0x8 /* 00001DEC */
00001DE6  4A6D ECA8                tst.w      [A5 - 0x1358]
00001DEA  67E6                     beq        -0x18 /* 00001DD2 */
label00001DEC:
00001DEC  302D ECA8                move.w     D0, [A5 - 0x1358]
00001DF0  2E1F                     move.l     D7, [A7]+
00001DF2  4E5E                     unlink     A6
00001DF4  4E75                     rts
export_180:
fn00001DF6:
00001DF6  4E56 FFF8                link       A6, -0x0008
00001DFA  48E7 1F38                movem.l    -[A7], D3,D4,D5,D6,D7,A2,A3,A4
00001DFE  286E 000C                movea.l    A4, [A6 + 0xC]
00001E02  426E 000A                clr.w      [A6 + 0xA]
00001E06  4EAD 0AAA                jsr        [A5 + 0xAAA /* export_337, CODE:5 @ 00003866 */]
00001E0A  2F3C 0006 0001           move.l     -[A7], 0x60001
00001E10  4EAD 0412                jsr        [A5 + 0x412 /* export_126, CODE:2 @ 000040EA */]
00001E14  4A40                     tst.w      D0
00001E16  588F                     addq.l     A7, 4
00001E18  6618                     bne        +0x1A /* 00001E32 */
00001E1A  2F0C                     move.l     -[A7], A4
00001E1C  2F3C 0000 0533           move.l     -[A7], 0x533
00001E22  4EAD 08C2                jsr        [A5 + 0x8C2 /* export_276, CODE:4 @ 00001FF8 */]
00001E26  4EBA FCBA                jsr        [PC - 0x346 /* 00001AE2 */]
00001E2A  426E 0010                clr.w      [A6 + 0x10]
00001E2E  6000 0170                bra        +0x172 /* 00001FA0 */
label00001E32:
00001E32  3F3C FFFF                move.w     -[A7], 0xFFFF
00001E36  4EBA F68A                jsr        [PC - 0x976 /* 000014C2 */]
00001E3A  1E2D EDC9                move.b     D7, [A5 - 0x1237]
00001E3E  4A6D EDC8                tst.w      [A5 - 0x1238]
00001E42  548F                     addq.l     A7, 2
00001E44  6704                     beq        +0x6 /* 00001E4A */
00001E46  4EAD 03D2                jsr        [A5 + 0x3D2 /* export_118, CODE:2 @ 00003ABC */]
label00001E4A:
00001E4A  1C2D F287                move.b     D6, [A5 - 0xD79]
00001E4E  266D ED06                movea.l    A3, [A5 - 0x12FA]
00001E52  1D6D F523 FFF9           move.b     [A6 - 0x7], [A5 - 0xADD]
00001E58  1D6D F532 FFFF           move.b     [A6 - 0x1], [A5 - 0xACE]
00001E5E  1B7C 0001 F523           move.b     [A5 - 0xADD], 0x1
00001E64  4267                     clr.w      -[A7]
00001E66  2F0C                     move.l     -[A7], A4
00001E68  3F3C 0003                move.w     -[A7], 0x3
00001E6C  4EAD 0742                jsr        [A5 + 0x742 /* export_228, CODE:4 @ 00005022 */]
00001E70  3600                     move.w     D3, D0
00001E72  0C43 0064                cmpi.w     D3, 0x64 /* 'd' */
00001E76  508F                     addq.l     A7, 8
00001E78  6C02                     bge        +0x4 /* 00001E7C */
00001E7A  7664                     moveq.l    D3, 0x64
label00001E7C:
00001E7C  3043                     movea.w    A0, D3
00001E7E  2808                     move.l     D4, A0
00001E80  89FC 0002                divs.w     D4, 0x2
00001E84  363C 00A0                move.w     D3, 0xA0
00001E88  9644                     sub.w      D3, D4
00001E8A  5943                     subq.w     D3, 4
00001E8C  3004                     move.w     D0, D4
00001E8E  0640 00A4                addi.w     D0, 0xA4
00001E92  3D40 FFFC                move.w     [A6 - 0x4], D0
00001E96  4A6D 9BB4                tst.w      [A5 - 0x644C]
00001E9A  6640                     bne        +0x42 /* 00001EDC */
00001E9C  2F3C 000A 0001           move.l     -[A7], 0xA0001
00001EA2  4EAD 03E2                jsr        [A5 + 0x3E2 /* export_120, CODE:2 @ 00003CEE */]
00001EA6  7200                     moveq.l    D1, 0x00
00001EA8  322D F296                move.w     D1, [A5 - 0xD6A]
00001EAC  D081                     add.l      D0, D1
00001EAE  0680 0000 6400           addi.l     D0, 0x6400 /* 'd\0' */
00001EB4  2B40 EF3E                move.l     [A5 - 0x10C2], D0
00001EB8  2EBC 000A 0004           move.l     [A7], 0xA0004
00001EBE  4EAD 03E2                jsr        [A5 + 0x3E2 /* export_120, CODE:2 @ 00003CEE */]
00001EC2  2440                     movea.l    A2, D0
00001EC4  3EAD F3B2                move.w     [A7], [A5 - 0xC4E]
00001EC8  2F2D EF3E                move.l     -[A7], [A5 - 0x10C2]
00001ECC  2F0A                     move.l     -[A7], A2
00001ECE  4EAD 0C0A                jsr        [A5 + 0xC0A /* export_381, CODE:6 @ 0000011E */]
00001ED2  3B7C 0001 9BB4           move.w     [A5 - 0x644C], 0x1
00001ED8  4FEF 000C                lea.l      A7, [A7 + 0xC]
label00001EDC:
00001EDC  2F3C 0007 0015           move.l     -[A7], 0x70015
00001EE2  4EAD 03E2                jsr        [A5 + 0x3E2 /* export_120, CODE:2 @ 00003CEE */]
00001EE6  2440                     movea.l    A2, D0
00001EE8  7006                     moveq.l    D0, 0x06
00001EEA  C1EE 000A                muls.w     D0, [A6 + 0xA]
00001EEE  D4C0                     add.w      A2, D0
00001EF0  2EBC 0001 0001           move.l     [A7], 0x10001
00001EF6  2F0C                     move.l     -[A7], A4
00001EF8  3F3C FFF4                move.w     -[A7], 0xFFF4
00001EFC  3F2E FFFC                move.w     -[A7], [A6 - 0x4]
00001F00  3F3C 0050                move.w     -[A7], 0x50 /* 'P' */
00001F04  3F03                     move.w     -[A7], D3
00001F06  42A7                     clr.l      -[A7]
00001F08  7000                     moveq.l    D0, 0x00
00001F0A  102A 001E                move.b     D0, [A2 + 0x1E]
00001F0E  3F00                     move.w     -[A7], D0
00001F10  7000                     moveq.l    D0, 0x00
00001F12  102A 001C                move.b     D0, [A2 + 0x1C]
00001F16  3F00                     move.w     -[A7], D0
00001F18  7000                     moveq.l    D0, 0x00
00001F1A  102A 001D                move.b     D0, [A2 + 0x1D]
00001F1E  3F00                     move.w     -[A7], D0
00001F20  7000                     moveq.l    D0, 0x00
00001F22  102A 001B                move.b     D0, [A2 + 0x1B]
00001F26  3F00                     move.w     -[A7], D0
00001F28  7000                     moveq.l    D0, 0x00
00001F2A  102A 0019                move.b     D0, [A2 + 0x19]
00001F2E  3F00                     move.w     -[A7], D0
00001F30  7000                     moveq.l    D0, 0x00
00001F32  102A 001A                move.b     D0, [A2 + 0x1A]
00001F36  3F00                     move.w     -[A7], D0
00001F38  4267                     clr.w      -[A7]
00001F3A  4EAD 096A                jsr        [A5 + 0x96A /* export_297, CODE:5 @ 00001C68 */]
00001F3E  4297                     clr.l      [A7]
00001F40  4EAD 0972                jsr        [A5 + 0x972 /* export_298, CODE:5 @ 00002484 */]
00001F44  2B4B ED06                move.l     [A5 - 0x12FA], A3
00001F48  1B6E FFF9 F523           move.b     [A5 - 0xADD], [A6 - 0x7]
00001F4E  1B6E FFFF F532           move.b     [A5 - 0xACE], [A6 - 0x1]
00001F54  4EAD 0462                jsr        [A5 + 0x462 /* export_136, CODE:2 @ 00004A10 */]
00001F58  7000                     moveq.l    D0, 0x00
00001F5A  1007                     move.b     D0, D7
00001F5C  3B40 EDC8                move.w     [A5 - 0x1238], D0
00001F60  0C6E 00FF 0008           cmpi.w     [A6 + 0x8], 0xFF
00001F66  4FEF 0022                lea.l      A7, [A7 + 0x22]
00001F6A  6608                     bne        +0xA /* 00001F74 */
00001F6C  4EBA FB74                jsr        [PC - 0x48C /* 00001AE2 */]
00001F70  3A00                     move.w     D5, D0
00001F72  600A                     bra        +0xC /* 00001F7E */
label00001F74:
00001F74  3F2E 0008                move.w     -[A7], [A6 + 0x8]
00001F78  4EBA FE3C                jsr        [PC - 0x1C4 /* 00001DB6 */]
00001F7C  548F                     addq.l     A7, 2
label00001F7E:
00001F7E  4A6E 0008                tst.w      [A6 + 0x8]
00001F82  6704                     beq        +0x6 /* 00001F88 */
00001F84  4EBA 0026                jsr        [PC + 0x26 /* 00001FAC */]
label00001F88:
00001F88  7000                     moveq.l    D0, 0x00
00001F8A  1006                     move.b     D0, D6
00001F8C  3B40 F286                move.w     [A5 - 0xD7A], D0
00001F90  0C6D 0003 ECA8           cmpi.w     [A5 - 0x1358], 0x3
00001F96  6604                     bne        +0x6 /* 00001F9C */
00001F98  4EBA 0120                jsr        [PC + 0x120 /* 000020BA */]
label00001F9C:
00001F9C  3D45 0010                move.w     [A6 + 0x10], D5
label00001FA0:
00001FA0  4CEE 1CF8 FFD8           movem.l    D3,D4,D5,D6,D7,A2,A3,A4, [A6 - 0x28]
00001FA6  4E5E                     unlink     A6
00001FA8  4E74 0008                rtd        0x0008
export_181:
fn00001FAC:
00001FAC  2F0C                     move.l     -[A7], A4
00001FAE  2F3C 0006 0001           move.l     -[A7], 0x60001
00001FB4  4EAD 0412                jsr        [A5 + 0x412 /* export_126, CODE:2 @ 000040EA */]
00001FB8  4A40                     tst.w      D0
00001FBA  588F                     addq.l     A7, 4
00001FBC  675E                     beq        +0x60 /* 0000201C */
00001FBE  4A6D 9BB4                tst.w      [A5 - 0x644C]
00001FC2  674E                     beq        +0x50 /* 00002012 */
00001FC4  426D 9BB4                clr.w      [A5 - 0x644C]
00001FC8  2F3C 000A 0001           move.l     -[A7], 0xA0001
00001FCE  4EAD 03E2                jsr        [A5 + 0x3E2 /* export_120, CODE:2 @ 00003CEE */]
00001FD2  7200                     moveq.l    D1, 0x00
00001FD4  322D F296                move.w     D1, [A5 - 0xD6A]
00001FD8  D081                     add.l      D0, D1
00001FDA  0680 0000 6400           addi.l     D0, 0x6400 /* 'd\0' */
00001FE0  2B40 EF3E                move.l     [A5 - 0x10C2], D0
00001FE4  2EBC 000A 0004           move.l     [A7], 0xA0004
00001FEA  4EAD 03E2                jsr        [A5 + 0x3E2 /* export_120, CODE:2 @ 00003CEE */]
00001FEE  2840                     movea.l    A4, D0
00001FF0  3EAD F3B2                move.w     [A7], [A5 - 0xC4E]
00001FF4  2F0C                     move.l     -[A7], A4
00001FF6  2F2D EF3E                move.l     -[A7], [A5 - 0x10C2]
00001FFA  4EAD 0C0A                jsr        [A5 + 0xC0A /* export_381, CODE:6 @ 0000011E */]
00001FFE  2EBC 0050 005D           move.l     [A7], 0x50005D /* 'P\0]' */
00002004  4267                     clr.w      -[A7]
00002006  4EBA 12DA                jsr        [PC + 0x12DA /* 000032E2 */]
0000200A  4EAD 0462                jsr        [A5 + 0x462 /* export_136, CODE:2 @ 00004A10 */]
0000200E  4FEF 000E                lea.l      A7, [A7 + 0xE]
label00002012:
00002012  3F2D F754                move.w     -[A7], [A5 - 0x8AC]
00002016  4EBA F4AA                jsr        [PC - 0xB56 /* 000014C2 */]
0000201A  548F                     addq.l     A7, 2
label0000201C:
0000201C  4A6D F736                tst.w      [A5 - 0x8CA]
00002020  6604                     bne        +0x6 /* 00002026 */
00002022  4EAD 0AB2                jsr        [A5 + 0xAB2 /* export_338, CODE:5 @ 0000386C */]
label00002026:
00002026  285F                     movea.l    A4, [A7]+
00002028  4E75                     rts
export_183:
fn0000202A:
0000202A  4E56 0000                link       A6, 0
0000202E  2F07                     move.l     -[A7], D7
00002030  4A6E 0008                tst.w      [A6 + 0x8]
00002034  6750                     beq        +0x52 /* 00002086 */
00002036  3F3C 0005                move.w     -[A7], 0x5
0000203A  4EBA FD5C                jsr        [PC - 0x2A4 /* 00001D98 */]
0000203E  486D F630                pea.l      [A5 - 0x9D0]
00002042  4EAD 0CE2                jsr        [A5 + 0xCE2 /* export_408, CODE:7 @ 00004AE2 */]
00002046  1E35 0120 F62F           move.b     D7, [A5 - 0x9D1 + D0]
0000204C  49C7                     lea.l      A4, D7
0000204E  486D F630                pea.l      [A5 - 0x9D0]
00002052  4EAD 0CE2                jsr        [A5 + 0xCE2 /* export_408, CODE:7 @ 00004AE2 */]
00002056  4235 0120 F62F           clr.b      [A5 - 0x9D1 + D0]
0000205C  4257                     clr.w      [A7]
0000205E  486D F630                pea.l      [A5 - 0x9D0]
00002062  4878 000C                push.l     0xC
00002066  4EBA FD8E                jsr        [PC - 0x272 /* 00001DF6 */]
0000206A  4EBA FA76                jsr        [PC - 0x58A /* 00001AE2 */]
0000206E  4EBA FF3C                jsr        [PC - 0xC4 /* 00001FAC */]
00002072  BE6D ECA8                cmp.w      D7, [A5 - 0x1358]
00002076  4FEF 000A                lea.l      A7, [A7 + 0xA]
0000207A  670A                     beq        +0xC /* 00002086 */
0000207C  7020                     moveq.l    D0, 0x20
0000207E  D047                     add.w      D0, D7
00002080  B06D ECA8                cmp.w      D0, [A5 - 0x1358]
00002084  662E                     bne        +0x30 /* 000020B4 */
label00002086:
00002086  4EAD 0A6A                jsr        [A5 + 0xA6A /* export_329, CODE:5 @ 000037C8 */]
0000208A  4267                     clr.w      -[A7]
0000208C  4EBA F434                jsr        [PC - 0xBCC /* 000014C2 */]
00002090  4EAD 03D2                jsr        [A5 + 0x3D2 /* export_118, CODE:2 @ 00003ABC */]
00002094  3EBC 0080                move.w     [A7], 0x80
00002098  4EBA E4F4                jsr        [PC - 0x1B0C /* 0000058E */]
0000209C  4EAD 095A                jsr        [A5 + 0x95A /* export_295, CODE:5 @ 0000131C */]
000020A0  41ED A3A8                lea.l      A0, [A5 - 0x5C58]
000020A4  70FF                     moveq.l    D0, 0xFFFFFFFF
000020A6  4A40                     tst.w      D0
000020A8  6602                     bne        +0x4 /* 000020AC */
000020AA  7001                     moveq.l    D0, 0x01
label000020AC:
000020AC  4CD8 DEF8                movem.l    D3,D4,D5,D6,D7,A1,A2,A3,A4,A6,A7, [A0]+
000020B0  4ED1                     jmp        [A1]
000020B2  548F                     addq.l     A7, 2
label000020B4:
000020B4  2E1F                     move.l     D7, [A7]+
000020B6  4E5E                     unlink     A6
000020B8  4E75                     rts
fn000020BA:
000020BA  2F07                     move.l     -[A7], D7
000020BC  3F3C 0006                move.w     -[A7], 0x6
000020C0  4EBA FCD6                jsr        [PC - 0x32A /* 00001D98 */]
000020C4  486D F630                pea.l      [A5 - 0x9D0]
000020C8  4EAD 0CE2                jsr        [A5 + 0xCE2 /* export_408, CODE:7 @ 00004AE2 */]
000020CC  1E35 0120 F62F           move.b     D7, [A5 - 0x9D1 + D0]
000020D2  49C7                     lea.l      A4, D7
000020D4  486D F630                pea.l      [A5 - 0x9D0]
000020D8  4EAD 0CE2                jsr        [A5 + 0xCE2 /* export_408, CODE:7 @ 00004AE2 */]
000020DC  4235 0120 F62F           clr.b      [A5 - 0x9D1 + D0]
000020E2  4257                     clr.w      [A7]
000020E4  486D F630                pea.l      [A5 - 0x9D0]
000020E8  4878 000C                push.l     0xC
000020EC  4EBA FD08                jsr        [PC - 0x2F8 /* 00001DF6 */]
000020F0  4EBA F9F0                jsr        [PC - 0x610 /* 00001AE2 */]
000020F4  4EBA FEB6                jsr        [PC - 0x14A /* 00001FAC */]
000020F8  BE6D ECA8                cmp.w      D7, [A5 - 0x1358]
000020FC  4FEF 000A                lea.l      A7, [A7 + 0xA]
00002100  670A                     beq        +0xC /* 0000210C */
00002102  7020                     moveq.l    D0, 0x20
00002104  D047                     add.w      D0, D7
00002106  B06D ECA8                cmp.w      D0, [A5 - 0x1358]
0000210A  6604                     bne        +0x6 /* 00002110 */
label0000210C:
0000210C  4EAD 0702                jsr        [A5 + 0x702 /* export_220, CODE:4 @ 00005008 */]
label00002110:
00002110  2E1F                     move.l     D7, [A7]+
00002112  4E75                     rts
export_184:
00002114  48E7 0108                movem.l    -[A7], D7,A4
00002118  286D 9BBA                movea.l    A4, [A5 - 0x6446]
0000211C  7E00                     moveq.l    D7, 0x00
0000211E  6006                     bra        +0x8 /* 00002126 */
label00002120:
00002120  DEAC 0004                add.l      D7, [A4 + 0x4]
00002124  2854                     movea.l    A4, [A4]
label00002126:
00002126  200C                     move.l     D0, A4
00002128  66F6                     bne        -0x8 /* 00002120 */
0000212A  2007                     move.l     D0, D7
0000212C  4CDF 1080                movem.l    D7,A4, [A7]+
00002130  4E75                     rts
fn00002132:
00002132  4E56 0000                link       A6, 0
00002136  48E7 0338                movem.l    -[A7], D6,D7,A2,A3,A4
0000213A  266E 0008                movea.l    A3, [A6 + 0x8]
0000213E  202E 000C                move.l     D0, [A6 + 0xC]
00002142  D08B                     add.l      D0, A3
00002144  2840                     movea.l    A4, D0
00002146  6064                     bra        +0x66 /* 000021AC */
label00002148:
00002148  244B                     movea.l    A2, A3
0000214A  2E0B                     move.l     D7, A3
0000214C  7000                     moveq.l    D0, 0x00
0000214E  102A 0005                move.b     D0, [A2 + 0x5]
00002152  3F00                     move.w     -[A7], D0
00002154  7000                     moveq.l    D0, 0x00
00002156  102A 0004                move.b     D0, [A2 + 0x4]
0000215A  3F00                     move.w     -[A7], D0
0000215C  2F3C 0000 0537           move.l     -[A7], 0x537
00002162  4EAD 043A                jsr        [A5 + 0x43A /* export_131, CODE:2 @ 000042C2 */]
00002166  1C2A 0004                move.b     D6, [A2 + 0x4]
0000216A  0C06 0010                cmpi.b     D6, 0x10
0000216E  508F                     addq.l     A7, 8
00002170  6204                     bhi        +0x6 /* 00002176 */
00002172  4A06                     tst.b      D6
00002174  621C                     bhi        +0x1E /* 00002192 */
label00002176:
00002176  7000                     moveq.l    D0, 0x00
00002178  102A 0004                move.b     D0, [A2 + 0x4]
0000217C  3F00                     move.w     -[A7], D0
0000217E  7000                     moveq.l    D0, 0x00
00002180  102A 0005                move.b     D0, [A2 + 0x5]
00002184  3F00                     move.w     -[A7], D0
00002186  2F3C 0000 0549           move.l     -[A7], 0x549
0000218C  4EAD 0A42                jsr        [A5 + 0xA42 /* export_324, CODE:5 @ 000034B4 */]
00002190  508F                     addq.l     A7, 8
label00002192:
00002192  7000                     moveq.l    D0, 0x00
00002194  102A 0004                move.b     D0, [A2 + 0x4]
00002198  7200                     moveq.l    D1, 0x00
0000219A  122A 0005                move.b     D1, [A2 + 0x5]
0000219E  E589                     lsl        D1, 2
000021A0  D2B5 0D20 B166           add.l      D1, [A5 - 0x4E9A + D0 * 4]
000021A6  2041                     movea.l    A0, D1
000021A8  2087                     move.l     [A0], D7
000021AA  D7D2                     add.l      A3, [A2]
label000021AC:
000021AC  B9CB                     cmpa.l     A4, A3
000021AE  6298                     bhi        -0x66 /* 00002148 */
000021B0  4CDF 1CC0                movem.l    D6,D7,A2,A3,A4, [A7]+
000021B4  4E5E                     unlink     A6
000021B6  4E75                     rts
fn000021B8:
000021B8  4E56 0000                link       A6, 0
000021BC  48E7 0338                movem.l    -[A7], D6,D7,A2,A3,A4
000021C0  2C2E 0008                move.l     D6, [A6 + 0x8]
000021C4  2E2E 000C                move.l     D7, [A6 + 0xC]
000021C8  266E 0010                movea.l    A3, [A6 + 0x10]
000021CC  49EB 0004                lea.l      A4, [A3 + 0x4]
000021D0  2014                     move.l     D0, [A4]
000021D2  9086                     sub.l      D0, D6
000021D4  5180                     subq.l     D0, 8
000021D6  6412                     bcc        +0x14 /* 000021EA */
000021D8  4A87                     tst.l      D7
000021DA  6606                     bne        +0x8 /* 000021E2 */
000021DC  2B53 9BBA                move.l     [A5 - 0x6446], [A3]
000021E0  6004                     bra        +0x6 /* 000021E6 */
label000021E2:
000021E2  2047                     movea.l    A0, D7
000021E4  2093                     move.l     [A0], [A3]
label000021E6:
000021E6  2C14                     move.l     D6, [A4]
000021E8  601E                     bra        +0x20 /* 00002208 */
label000021EA:
000021EA  2006                     move.l     D0, D6
000021EC  D08B                     add.l      D0, A3
000021EE  2440                     movea.l    A2, D0
000021F0  2014                     move.l     D0, [A4]
000021F2  9086                     sub.l      D0, D6
000021F4  2540 0004                move.l     [A2 + 0x4], D0
000021F8  2493                     move.l     [A2], [A3]
000021FA  4A87                     tst.l      D7
000021FC  6606                     bne        +0x8 /* 00002204 */
000021FE  2B4A 9BBA                move.l     [A5 - 0x6446], A2
00002202  6004                     bra        +0x6 /* 00002208 */
label00002204:
00002204  2047                     movea.l    A0, D7
00002206  208A                     move.l     [A0], A2
label00002208:
00002208  284B                     movea.l    A4, A3
0000220A  264C                     movea.l    A3, A4
0000220C  2686                     move.l     [A3], D6
0000220E  200C                     move.l     D0, A4
00002210  4CDF 1CC0                movem.l    D6,D7,A2,A3,A4, [A7]+
00002214  4E5E                     unlink     A6
00002216  4E75                     rts
export_185:
fn00002218:
00002218  4E56 FFFC                link       A6, -0x0004
0000221C  48E7 1F38                movem.l    -[A7], D3,D4,D5,D6,D7,A2,A3,A4
00002220  4AAD 9BBA                tst.l      [A5 - 0x6446]
00002224  6606                     bne        +0x8 /* 0000222C */
00002226  7000                     moveq.l    D0, 0x00
00002228  6000 012A                bra        +0x12C /* 00002354 */
label0000222C:
0000222C  206D 9BBA                movea.l    A0, [A5 - 0x6446]
00002230  2850                     movea.l    A4, [A0]
00002232  6000 0118                bra        +0x11A /* 0000234C */
label00002236:
00002236  206D 9BBA                movea.l    A0, [A5 - 0x6446]
0000223A  2E28 0004                move.l     D7, [A0 + 0x4]
0000223E  2648                     movea.l    A3, A0
00002240  2028 0004                move.l     D0, [A0 + 0x4]
00002244  D088                     add.l      D0, A0
00002246  2440                     movea.l    A2, D0
00002248  2C0C                     move.l     D6, A4
0000224A  9C8A                     sub.l      D6, A2
0000224C  2A06                     move.l     D5, D6
0000224E  DA8B                     add.l      D5, A3
00002250  B5C5                     cmpa.l     A2, D5
00002252  631A                     bls        +0x1C /* 0000226E */
00002254  2F06                     move.l     -[A7], D6
00002256  2F0B                     move.l     -[A7], A3
00002258  2F0A                     move.l     -[A7], A2
0000225A  4EAD 0C12                jsr        [A5 + 0xC12 /* export_382, CODE:6 @ 0000014C */]
0000225E  2E86                     move.l     [A7], D6
00002260  2F0B                     move.l     -[A7], A3
00002262  4EBA FECE                jsr        [PC - 0x132 /* 00002132 */]
00002266  4FEF 0010                lea.l      A7, [A7 + 0x10]
0000226A  6000 009C                bra        +0x9E /* 00002308 */
label0000226E:
0000226E  2A06                     move.l     D5, D6
00002270  DA8A                     add.l      D5, A2
00002272  280A                     move.l     D4, A2
00002274  7C00                     moveq.l    D6, 0x00
00002276  6072                     bra        +0x74 /* 000022EA */
label00002278:
00002278  2604                     move.l     D3, D4
0000227A  2043                     movea.l    A0, D3
0000227C  0C28 0004 0004           cmpi.b     [A0 + 0x4], 0x4
00002282  665E                     bne        +0x60 /* 000022E2 */
00002284  2043                     movea.l    A0, D3
00002286  7000                     moveq.l    D0, 0x00
00002288  1028 0005                move.b     D0, [A0 + 0x5]
0000228C  3F00                     move.w     -[A7], D0
0000228E  4EAD 0AA2                jsr        [A5 + 0xAA2 /* export_336, CODE:5 @ 0000384E */]
00002292  4A40                     tst.w      D0
00002294  548F                     addq.l     A7, 2
00002296  674A                     beq        +0x4C /* 000022E2 */
00002298  4A86                     tst.l      D6
0000229A  671A                     beq        +0x1C /* 000022B6 */
0000229C  2F06                     move.l     -[A7], D6
0000229E  2F0B                     move.l     -[A7], A3
000022A0  2F0A                     move.l     -[A7], A2
000022A2  4EAD 0C12                jsr        [A5 + 0xC12 /* export_382, CODE:6 @ 0000014C */]
000022A6  2E86                     move.l     [A7], D6
000022A8  2F0B                     move.l     -[A7], A3
000022AA  4EBA FE86                jsr        [PC - 0x17A /* 00002132 */]
000022AE  D5C6                     add.l      A2, D6
000022B0  D7C6                     add.l      A3, D6
000022B2  4FEF 0010                lea.l      A7, [A7 + 0x10]
label000022B6:
000022B6  2043                     movea.l    A0, D3
000022B8  2C10                     move.l     D6, [A0]
000022BA  4EAD 0ABA                jsr        [A5 + 0xABA /* export_339, CODE:5 @ 00003872 */]
000022BE  2F06                     move.l     -[A7], D6
000022C0  2F0B                     move.l     -[A7], A3
000022C2  2F0A                     move.l     -[A7], A2
000022C4  4EAD 0C12                jsr        [A5 + 0xC12 /* export_382, CODE:6 @ 0000014C */]
000022C8  2E86                     move.l     [A7], D6
000022CA  2F0B                     move.l     -[A7], A3
000022CC  4EBA FE64                jsr        [PC - 0x19C /* 00002132 */]
000022D0  4EAD 0AC2                jsr        [A5 + 0xAC2 /* export_340, CODE:5 @ 00003874 */]
000022D4  D5C6                     add.l      A2, D6
000022D6  D7C6                     add.l      A3, D6
000022D8  D886                     add.l      D4, D6
000022DA  7C00                     moveq.l    D6, 0x00
000022DC  4FEF 0010                lea.l      A7, [A7 + 0x10]
000022E0  6008                     bra        +0xA /* 000022EA */
label000022E2:
000022E2  2043                     movea.l    A0, D3
000022E4  D890                     add.l      D4, [A0]
000022E6  2043                     movea.l    A0, D3
000022E8  DC90                     add.l      D6, [A0]
label000022EA:
000022EA  BA84                     cmp.l      D5, D4
000022EC  628A                     bhi        -0x74 /* 00002278 */
000022EE  4A86                     tst.l      D6
000022F0  6716                     beq        +0x18 /* 00002308 */
000022F2  2F06                     move.l     -[A7], D6
000022F4  2F0B                     move.l     -[A7], A3
000022F6  2F0A                     move.l     -[A7], A2
000022F8  4EAD 0C12                jsr        [A5 + 0xC12 /* export_382, CODE:6 @ 0000014C */]
000022FC  2E86                     move.l     [A7], D6
000022FE  2F0B                     move.l     -[A7], A3
00002300  4EBA FE30                jsr        [PC - 0x1D0 /* 00002132 */]
00002304  4FEF 0010                lea.l      A7, [A7 + 0x10]
label00002308:
00002308  200C                     move.l     D0, A4
0000230A  9087                     sub.l      D0, D7
0000230C  2B40 9BBA                move.l     [A5 - 0x6446], D0
00002310  2207                     move.l     D1, D7
00002312  D2AC 0004                add.l      D1, [A4 + 0x4]
00002316  2040                     movea.l    A0, D0
00002318  2141 0004                move.l     [A0 + 0x4], D1
0000231C  206D 9BBA                movea.l    A0, [A5 - 0x6446]
00002320  2094                     move.l     [A0], [A4]
00002322  206D 9BBA                movea.l    A0, [A5 - 0x6446]
00002326  2850                     movea.l    A4, [A0]
00002328  2028 0004                move.l     D0, [A0 + 0x4]
0000232C  B0AE 0008                cmp.l      D0, [A6 + 0x8]
00002330  6D1A                     blt        +0x1C /* 0000234C */
00002332  4AAE 0008                tst.l      [A6 + 0x8]
00002336  6714                     beq        +0x16 /* 0000234C */
00002338  2F2D 9BBA                move.l     -[A7], [A5 - 0x6446]
0000233C  42A7                     clr.l      -[A7]
0000233E  2F2E 0008                move.l     -[A7], [A6 + 0x8]
00002342  4EBA FE74                jsr        [PC - 0x18C /* 000021B8 */]
00002346  2D40 FFFC                move.l     [A6 - 0x4], D0
0000234A  6008                     bra        +0xA /* 00002354 */
label0000234C:
0000234C  200C                     move.l     D0, A4
0000234E  6600 FEE6                bne        -0x118 /* 00002236 */
00002352  7000                     moveq.l    D0, 0x00
label00002354:
00002354  4CEE 1CF8 FFDC           movem.l    D3,D4,D5,D6,D7,A2,A3,A4, [A6 - 0x24]
0000235A  4E5E                     unlink     A6
0000235C  4E75                     rts
export_186:
0000235E  4E56 0000                link       A6, 0
00002362  48E7 0118                movem.l    -[A7], D7,A3,A4
00002366  2E2E 0008                move.l     D7, [A6 + 0x8]
0000236A  7008                     moveq.l    D0, 0x08
0000236C  B087                     cmp.l      D0, D7
0000236E  6302                     bls        +0x4 /* 00002372 */
00002370  7E08                     moveq.l    D7, 0x08
label00002372:
00002372  5E87                     addq.l     D7, 7
00002374  70F8                     moveq.l    D0, 0xFFFFFFF8
00002376  CE80                     and.l      D7, D0
00002378  286D 9BBA                movea.l    A4, [A5 - 0x6446]
0000237C  97CB                     sub.l      A3, A3
0000237E  6016                     bra        +0x18 /* 00002396 */
label00002380:
00002380  BEAC 0004                cmp.l      D7, [A4 + 0x4]
00002384  6E0C                     bgt        +0xE /* 00002392 */
00002386  2F0C                     move.l     -[A7], A4
00002388  2F0B                     move.l     -[A7], A3
0000238A  2F07                     move.l     -[A7], D7
0000238C  4EBA FE2A                jsr        [PC - 0x1D6 /* 000021B8 */]
00002390  600E                     bra        +0x10 /* 000023A0 */
label00002392:
00002392  264C                     movea.l    A3, A4
00002394  2854                     movea.l    A4, [A4]
label00002396:
00002396  200C                     move.l     D0, A4
00002398  66E6                     bne        -0x18 /* 00002380 */
0000239A  2F07                     move.l     -[A7], D7
0000239C  4EBA FE7A                jsr        [PC - 0x186 /* 00002218 */]
label000023A0:
000023A0  4CEE 1880 FFF4           movem.l    D7,A3,A4, [A6 - 0xC]
000023A6  4E5E                     unlink     A6
000023A8  4E75                     rts
export_187:
000023AA  4E56 0000                link       A6, 0
000023AE  48E7 0138                movem.l    -[A7], D7,A2,A3,A4
000023B2  286E 0008                movea.l    A4, [A6 + 0x8]
000023B6  2E14                     move.l     D7, [A4]
000023B8  264C                     movea.l    A3, A4
000023BA  2747 0004                move.l     [A3 + 0x4], D7
000023BE  286D 9BBA                movea.l    A4, [A5 - 0x6446]
000023C2  95CA                     sub.l      A2, A2
000023C4  6004                     bra        +0x6 /* 000023CA */
label000023C6:
000023C6  244C                     movea.l    A2, A4
000023C8  2854                     movea.l    A4, [A4]
label000023CA:
000023CA  200C                     move.l     D0, A4
000023CC  6704                     beq        +0x6 /* 000023D2 */
000023CE  B9CB                     cmpa.l     A4, A3
000023D0  65F4                     bcs        -0xA /* 000023C6 */
label000023D2:
000023D2  268C                     move.l     [A3], A4
000023D4  200A                     move.l     D0, A2
000023D6  6606                     bne        +0x8 /* 000023DE */
000023D8  2B4B 9BBA                move.l     [A5 - 0x6446], A3
000023DC  6002                     bra        +0x4 /* 000023E0 */
label000023DE:
000023DE  248B                     move.l     [A2], A3
label000023E0:
000023E0  2007                     move.l     D0, D7
000023E2  D08B                     add.l      D0, A3
000023E4  B9C0                     cmpa.l     A4, D0
000023E6  660A                     bne        +0xC /* 000023F2 */
000023E8  202C 0004                move.l     D0, [A4 + 0x4]
000023EC  D1AB 0004                add.l      [A3 + 0x4], D0
000023F0  2694                     move.l     [A3], [A4]
label000023F2:
000023F2  200A                     move.l     D0, A2
000023F4  6714                     beq        +0x16 /* 0000240A */
000023F6  202A 0004                move.l     D0, [A2 + 0x4]
000023FA  D08A                     add.l      D0, A2
000023FC  B7C0                     cmpa.l     A3, D0
000023FE  660A                     bne        +0xC /* 0000240A */
00002400  202B 0004                move.l     D0, [A3 + 0x4]
00002404  D1AA 0004                add.l      [A2 + 0x4], D0
00002408  2493                     move.l     [A2], [A3]
label0000240A:
0000240A  4CDF 1C80                movem.l    D7,A2,A3,A4, [A7]+
0000240E  4E5E                     unlink     A6
00002410  4E75                     rts
fn00002412:
00002412  4E56 0000                link       A6, 0
00002416  202E 0008                move.l     D0, [A6 + 0x8]
0000241A  A11E                     syscall    NewPtr, flags=1
0000241C  2008                     move.l     D0, A0
0000241E  4E5E                     unlink     A6
00002420  4E75                     rts
00002422  4E56 0000                link       A6, 0
00002426  206E 0008                movea.l    A0, [A6 + 0x8]
0000242A  A01F                     syscall    DisposPtr/DisposePtr
0000242C  4E5E                     unlink     A6
0000242E  4E75                     rts
fn00002430:
00002430  4E56 FFFC                link       A6, -0x0004
00002434  2F07                     move.l     -[A7], D7
00002436  2E2D 9C54                move.l     D7, [A5 - 0x63AC]
0000243A  70F0                     moveq.l    D0, 0xFFFFFFF0
0000243C  CE80                     and.l      D7, D0
0000243E  2F07                     move.l     -[A7], D7
00002440  4EBA FFD0                jsr        [PC - 0x30 /* 00002412 */]
00002444  2B40 9BBA                move.l     [A5 - 0x6446], D0
00002448  4A80                     tst.l      D0
0000244A  588F                     addq.l     A7, 4
0000244C  660C                     bne        +0xE /* 0000245A */
0000244E  2F3C 0000 0567           move.l     -[A7], 0x567
00002454  4EAD 0A42                jsr        [A5 + 0xA42 /* export_324, CODE:5 @ 000034B4 */]
00002458  588F                     addq.l     A7, 4
label0000245A:
0000245A  206D 9BBA                movea.l    A0, [A5 - 0x6446]
0000245E  4290                     clr.l      [A0]
00002460  2007                     move.l     D0, D7
00002462  4C7C 0800 0000 0400      divul.l    D0:D0, 0x8000000
0000246A  3B40 F280                move.w     [A5 - 0xD80], D0
0000246E  206D 9BBA                movea.l    A0, [A5 - 0x6446]
00002472  2147 0004                move.l     [A0 + 0x4], D7
00002476  2B6D 9BBA 9BBE           move.l     [A5 - 0x6442], [A5 - 0x6446]
0000247C  2007                     move.l     D0, D7
0000247E  D0AD 9BBE                add.l      D0, [A5 - 0x6442]
00002482  2B40 9BC2                move.l     [A5 - 0x643E], D0
00002486  7001                     moveq.l    D0, 0x01
00002488  2E1F                     move.l     D7, [A7]+
0000248A  4E5E                     unlink     A6
0000248C  4E75                     rts
0000248E  4E56 FF00                link       A6, -0x0100
00002492  48E7 0108                movem.l    -[A7], D7,A4
00002496  49EE FF00                lea.l      A4, [A6 - 0x100]
label0000249A:
0000249A  206E 0008                movea.l    A0, [A6 + 0x8]
0000249E  1E10                     move.b     D7, [A0]
000024A0  4A07                     tst.b      D7
000024A2  671A                     beq        +0x1C /* 000024BE */
000024A4  0C07 0020                cmpi.b     D7, 0x20 /* ' ' */
000024A8  6D06                     blt        +0x8 /* 000024B0 */
000024AA  0C07 007F                cmpi.b     D7, 0x7F
000024AE  6F06                     ble        +0x8 /* 000024B6 */
label000024B0:
000024B0  18FC 002D                move.b     [A4]+, 0x2D /* '-' */
000024B4  6002                     bra        +0x4 /* 000024B8 */
label000024B6:
000024B6  18C7                     move.b     [A4]+, D7
label000024B8:
000024B8  52AE 0008                addq.l     [A6 + 0x8], 1
000024BC  60DC                     bra        -0x22 /* 0000249A */
label000024BE:
000024BE  4214                     clr.b      [A4]
000024C0  41EE FF00                lea.l      A0, [A6 - 0x100]
000024C4  2008                     move.l     D0, A0
000024C6  4CDF 1080                movem.l    D7,A4, [A7]+
000024CA  4E5E                     unlink     A6
000024CC  4E75                     rts
fn000024CE:
000024CE  4E56 0000                link       A6, 0
000024D2  2F0C                     move.l     -[A7], A4
000024D4  286D 9BCC                movea.l    A4, [A5 - 0x6434]
000024D8  306E 0008                movea.w    A0, [A6 + 0x8]
000024DC  2008                     move.l     D0, A0
000024DE  D1AD 9BCC                add.l      [A5 - 0x6434], D0
000024E2  302E 0008                move.w     D0, [A6 + 0x8]
000024E6  D16D 9BD0                add.w      [A5 - 0x6430], D0
000024EA  322D 9BD0                move.w     D1, [A5 - 0x6430]
000024EE  B26D 9BD8                cmp.w      D1, [A5 - 0x6428]
000024F2  6F0C                     ble        +0xE /* 00002500 */
000024F4  2F3C 0000 0579           move.l     -[A7], 0x579
000024FA  4EAD 0A42                jsr        [A5 + 0xA42 /* export_324, CODE:5 @ 000034B4 */]
000024FE  588F                     addq.l     A7, 4
label00002500:
00002500  200C                     move.l     D0, A4
00002502  285F                     movea.l    A4, [A7]+
00002504  4E5E                     unlink     A6
00002506  4E75                     rts
fn00002508:
00002508  4E56 0000                link       A6, 0
0000250C  302D 9BD2                move.w     D0, [A5 - 0x642E]
00002510  526D 9BD2                addq.w     [A5 - 0x642E], 1
00002514  0C40 07D8                cmpi.w     D0, 0x7D8
00002518  6F0C                     ble        +0xE /* 00002526 */
0000251A  2F3C 0000 0597           move.l     -[A7], 0x597
00002520  4EAD 0A42                jsr        [A5 + 0xA42 /* export_324, CODE:5 @ 000034B4 */]
00002524  588F                     addq.l     A7, 4
label00002526:
00002526  206D 9BD4                movea.l    A0, [A5 - 0x642C]
0000252A  52AD 9BD4                addq.l     [A5 - 0x642C], 1
0000252E  10AE 0009                move.b     [A0], [A6 + 0x9]
00002532  4E5E                     unlink     A6
00002534  4E75                     rts
export_188:
00002536  4E56 FEE0                link       A6, -0x0120
0000253A  48E7 1F38                movem.l    -[A7], D3,D4,D5,D6,D7,A2,A3,A4
0000253E  3B7C 02A6 9BD8           move.w     [A5 - 0x6428], 0x2A6
00002544  306D 9BD8                movea.w    A0, [A5 - 0x6428]
00002548  2F08                     move.l     -[A7], A0
0000254A  2F3C 000E 0004           move.l     -[A7], 0xE0004
00002550  4EAD 03EA                jsr        [A5 + 0x3EA /* export_121, CODE:2 @ 00003D92 */]
00002554  4878 1040                push.l     0x1040
00002558  2F3C 000E 0003           move.l     -[A7], 0xE0003
0000255E  4EAD 03EA                jsr        [A5 + 0x3EA /* export_121, CODE:2 @ 00003D92 */]
00002562  4878 07D8                push.l     0x7D8
00002566  2F3C 000E 0001           move.l     -[A7], 0xE0001
0000256C  4EAD 03EA                jsr        [A5 + 0x3EA /* export_121, CODE:2 @ 00003D92 */]
00002570  2EBC 000E 0001           move.l     [A7], 0xE0001
00002576  4EAD 03E2                jsr        [A5 + 0x3E2 /* export_120, CODE:2 @ 00003CEE */]
0000257A  5880                     addq.l     D0, 4
0000257C  2D40 FFFC                move.l     [A6 - 0x4], D0
00002580  2040                     movea.l    A0, D0
00002582  4210                     clr.b      [A0]
00002584  2040                     movea.l    A0, D0
00002586  4228 0001                clr.b      [A0 + 0x1]
0000258A  2040                     movea.l    A0, D0
0000258C  117C 0007 0002           move.b     [A0 + 0x2], 0x7
00002592  2040                     movea.l    A0, D0
00002594  117C 00D8 0003           move.b     [A0 + 0x3], 0xD8
0000259A  2EBC 000E 0001           move.l     [A7], 0xE0001
000025A0  4EAD 03E2                jsr        [A5 + 0x3E2 /* export_120, CODE:2 @ 00003CEE */]
000025A4  2040                     movea.l    A0, D0
000025A6  20BC 4D58 4F42           move.l     [A0], 0x4D584F42 /* 'MXOB' */
000025AC  2EBC 000E 0004           move.l     [A7], 0xE0004
000025B2  4EAD 03E2                jsr        [A5 + 0x3E2 /* export_120, CODE:2 @ 00003CEE */]
000025B6  2B40 9BCC                move.l     [A5 - 0x6434], D0
000025BA  2EBC 000E 0001           move.l     [A7], 0xE0001
000025C0  4EAD 03E2                jsr        [A5 + 0x3E2 /* export_120, CODE:2 @ 00003CEE */]
000025C4  5080                     addq.l     D0, 8
000025C6  2B40 9BD4                move.l     [A5 - 0x642C], D0
000025CA  2EBC 000E 0003           move.l     [A7], 0xE0003
000025D0  4EAD 03E2                jsr        [A5 + 0x3E2 /* export_120, CODE:2 @ 00003CEE */]
000025D4  2B40 9BC8                move.l     [A5 - 0x6438], D0
000025D8  426D 9BD0                clr.w      [A5 - 0x6430]
000025DC  426D 9BD2                clr.w      [A5 - 0x642E]
000025E0  4EBA ECE8                jsr        [PC - 0x1318 /* 000012CA */]
000025E4  3600                     move.w     D3, D0
000025E6  7E00                     moveq.l    D7, 0x00
000025E8  4FEF 0018                lea.l      A7, [A7 + 0x18]
000025EC  604A                     bra        +0x4C /* 00002638 */
label000025EE:
000025EE  7C00                     moveq.l    D6, 0x00
000025F0  6040                     bra        +0x42 /* 00002632 */
label000025F2:
000025F2  BC47                     cmp.w      D6, D7
000025F4  660E                     bne        +0x10 /* 00002604 */
000025F6  3007                     move.w     D0, D7
000025F8  ED48                     lsl        D0.w, 6
000025FA  D046                     add.w      D0, D6
000025FC  4235 0125 9BC8           clr.b      [[A5 - 0x6438] + D0]
00002602  602C                     bra        +0x2E /* 00002630 */
label00002604:
00002604  3F06                     move.w     -[A7], D6
00002606  3F07                     move.w     -[A7], D7
00002608  4EBA 02DA                jsr        [PC + 0x2DA /* 000028E4 */]
0000260C  4A40                     tst.w      D0
0000260E  588F                     addq.l     A7, 4
00002610  6710                     beq        +0x12 /* 00002622 */
00002612  3007                     move.w     D0, D7
00002614  ED48                     lsl        D0.w, 6
00002616  D046                     add.w      D0, D6
00002618  1BBC 0001 0125 9BC8      move.b     [[A5 - 0x6438] + D0], 0x1
00002620  600E                     bra        +0x10 /* 00002630 */
label00002622:
00002622  3007                     move.w     D0, D7
00002624  ED48                     lsl        D0.w, 6
00002626  D046                     add.w      D0, D6
00002628  1BBC 00FA 0125 9BC8      move.b     [[A5 - 0x6438] + D0], 0xFA
label00002630:
00002630  5246                     addq.w     D6, 1
label00002632:
00002632  B646                     cmp.w      D3, D6
00002634  6EBC                     bgt        -0x42 /* 000025F2 */
00002636  5247                     addq.w     D7, 1
label00002638:
00002638  B647                     cmp.w      D3, D7
0000263A  6EB2                     bgt        -0x4C /* 000025EE */
0000263C  7C00                     moveq.l    D6, 0x00
0000263E  6000 0278                bra        +0x27A /* 000028B8 */
label00002642:
00002642  3F06                     move.w     -[A7], D6
00002644  4EBA ECB2                jsr        [PC - 0x134E /* 000012F8 */]
00002648  0240 0080                andi.w     D0, 0x80
0000264C  548F                     addq.l     A7, 2
0000264E  6720                     beq        +0x22 /* 00002670 */
00002650  3F3C 00FF                move.w     -[A7], 0xFF
00002654  4EBA FEB2                jsr        [PC - 0x14E /* 00002508 */]
00002658  3E86                     move.w     [A7], D6
0000265A  4EBA FEAC                jsr        [PC - 0x154 /* 00002508 */]
0000265E  3E86                     move.w     [A7], D6
00002660  4EBA FEA6                jsr        [PC - 0x15A /* 00002508 */]
00002664  3E86                     move.w     [A7], D6
00002666  4EBA FEA0                jsr        [PC - 0x160 /* 00002508 */]
0000266A  548F                     addq.l     A7, 2
0000266C  6000 0248                bra        +0x24A /* 000028B6 */
label00002670:
00002670  4EBA 0556                jsr        [PC + 0x556 /* 00002BC8 */]
00002674  2840                     movea.l    A4, D0
00002676  7E00                     moveq.l    D7, 0x00
00002678  6022                     bra        +0x24 /* 0000269C */
label0000267A:
0000267A  3F06                     move.w     -[A7], D6
0000267C  4EBA EC7A                jsr        [PC - 0x1386 /* 000012F8 */]
00002680  0240 0080                andi.w     D0, 0x80
00002684  548F                     addq.l     A7, 2
00002686  6612                     bne        +0x14 /* 0000269A */
00002688  3F07                     move.w     -[A7], D7
0000268A  2F0C                     move.l     -[A7], A4
0000268C  4EBA 0566                jsr        [PC + 0x566 /* 00002BF4 */]
00002690  2640                     movea.l    A3, D0
00002692  BC47                     cmp.w      D6, D7
00002694  5C8F                     addq.l     A7, 6
00002696  6602                     bne        +0x4 /* 0000269A */
00002698  244B                     movea.l    A2, A3
label0000269A:
0000269A  5247                     addq.w     D7, 1
label0000269C:
0000269C  B647                     cmp.w      D3, D7
0000269E  6EDA                     bgt        -0x24 /* 0000267A */
000026A0  2F0A                     move.l     -[A7], A2
000026A2  2F0C                     move.l     -[A7], A4
000026A4  4EBA 05D4                jsr        [PC + 0x5D4 /* 00002C7A */]
000026A8  2840                     movea.l    A4, D0
000026AA  4276 6320 FEE4           clr.w      [A6 - 0x11C + D6 * 2]
000026B0  3D86 6320 FF64           move.w     [A6 - 0x9C + D6 * 2], D6
000026B6  200C                     move.l     D0, A4
000026B8  508F                     addq.l     A7, 8
000026BA  6704                     beq        +0x6 /* 000026C0 */
000026BC  2654                     movea.l    A3, [A4]
000026BE  6002                     bra        +0x4 /* 000026C2 */
label000026C0:
000026C0  97CB                     sub.l      A3, A3
label000026C2:
000026C2  3A3C 00FA                move.w     D5, 0xFA
000026C6  6048                     bra        +0x4A /* 00002710 */
label000026C8:
000026C8  3006                     move.w     D0, D6
000026CA  ED48                     lsl        D0.w, 6
000026CC  3053                     movea.w    A0, [A3]
000026CE  D0C0                     add.w      A0, D0
000026D0  D1ED 9BC8                add.l      A0, [A5 - 0x6438]
000026D4  7000                     moveq.l    D0, 0x00
000026D6  1010                     move.b     D0, [A0]
000026D8  3213                     move.w     D1, [A3]
000026DA  3D80 1320 FEE4           move.w     [A6 - 0x11C + D1 * 2], D0
000026E0  BA40                     cmp.w      D5, D0
000026E2  6F08                     ble        +0xA /* 000026EC */
000026E4  3013                     move.w     D0, [A3]
000026E6  3A36 0320 FEE4           move.w     D5, [A6 - 0x11C + D0 * 2]
label000026EC:
000026EC  3013                     move.w     D0, [A3]
000026EE  0C76 00FA 0320 FEE4      cmpi.w     [A6 - 0x11C + D0 * 2], 0xFA
000026F6  670A                     beq        +0xC /* 00002702 */
000026F8  3013                     move.w     D0, [A3]
000026FA  3D93 0320 FF64           move.w     [A6 - 0x9C + D0 * 2], [A3]
00002700  600A                     bra        +0xC /* 0000270C */
label00002702:
00002702  3013                     move.w     D0, [A3]
00002704  3DBC FFFF 0320 FF64      move.w     [A6 - 0x9C + D0 * 2], 0xFFFF
label0000270C:
0000270C  266B 0002                movea.l    A3, [A3 + 0x2]
label00002710:
00002710  200B                     move.l     D0, A3
00002712  66B4                     bne        -0x4A /* 000026C8 */
00002714  6000 0082                bra        +0x84 /* 00002798 */
label00002718:
00002718  2654                     movea.l    A3, [A4]
0000271A  3A3C 00FA                move.w     D5, 0xFA
0000271E  244B                     movea.l    A2, A3
00002720  6018                     bra        +0x1A /* 0000273A */
label00002722:
00002722  3013                     move.w     D0, [A3]
00002724  BA76 0320 FEE4           cmp.w      D5, [A6 - 0x11C + D0 * 2]
0000272A  6F0A                     ble        +0xC /* 00002736 */
0000272C  3013                     move.w     D0, [A3]
0000272E  3A36 0320 FEE4           move.w     D5, [A6 - 0x11C + D0 * 2]
00002734  244B                     movea.l    A2, A3
label00002736:
00002736  266B 0002                movea.l    A3, [A3 + 0x2]
label0000273A:
0000273A  200B                     move.l     D0, A3
0000273C  66E4                     bne        -0x1A /* 00002722 */
0000273E  2F0A                     move.l     -[A7], A2
00002740  2F0C                     move.l     -[A7], A4
00002742  4EBA 0536                jsr        [PC + 0x536 /* 00002C7A */]
00002746  2840                     movea.l    A4, D0
00002748  200C                     move.l     D0, A4
0000274A  508F                     addq.l     A7, 8
0000274C  6704                     beq        +0x6 /* 00002752 */
0000274E  2654                     movea.l    A3, [A4]
00002750  6042                     bra        +0x44 /* 00002794 */
label00002752:
00002752  97CB                     sub.l      A3, A3
00002754  603E                     bra        +0x40 /* 00002794 */
label00002756:
00002756  3012                     move.w     D0, [A2]
00002758  ED48                     lsl        D0.w, 6
0000275A  3053                     movea.w    A0, [A3]
0000275C  D0C0                     add.w      A0, D0
0000275E  D1ED 9BC8                add.l      A0, [A5 - 0x6438]
00002762  7000                     moveq.l    D0, 0x00
00002764  1010                     move.b     D0, [A0]
00002766  3212                     move.w     D1, [A2]
00002768  D076 1320 FEE4           add.w      D0, [A6 - 0x11C + D1 * 2]
0000276E  3800                     move.w     D4, D0
00002770  3013                     move.w     D0, [A3]
00002772  B876 0320 FEE4           cmp.w      D4, [A6 - 0x11C + D0 * 2]
00002778  6C16                     bge        +0x18 /* 00002790 */
0000277A  3013                     move.w     D0, [A3]
0000277C  3D84 0320 FEE4           move.w     [A6 - 0x11C + D0 * 2], D4
00002782  3012                     move.w     D0, [A2]
00002784  3213                     move.w     D1, [A3]
00002786  3DB6 0320 FF64 1320 FF64 move.w     [A6 - 0x9C + D1 * 2], [A6 - 0x9C + D0 * 2]
label00002790:
00002790  266B 0002                movea.l    A3, [A3 + 0x2]
label00002794:
00002794  200B                     move.l     D0, A3
00002796  66BE                     bne        -0x40 /* 00002756 */
label00002798:
00002798  200C                     move.l     D0, A4
0000279A  6600 FF7C                bne        -0x82 /* 00002718 */
0000279E  3F3C 00FF                move.w     -[A7], 0xFF
000027A2  4EBA FD64                jsr        [PC - 0x29C /* 00002508 */]
000027A6  7E01                     moveq.l    D7, 0x01
000027A8  548F                     addq.l     A7, 2
000027AA  6000 0104                bra        +0x106 /* 000028B0 */
label000027AE:
000027AE  0C76 FFFF 7320 FF62      cmpi.w     [A6 - 0x9E + D7 * 2], 0xFFFF
000027B6  6700 00C6                beq        +0xC8 /* 0000287E */
000027BA  70FF                     moveq.l    D0, 0xFFFFFFFF
000027BC  D047                     add.w      D0, D7
000027BE  3F00                     move.w     -[A7], D0
000027C0  4EBA FD46                jsr        [PC - 0x2BA /* 00002508 */]
000027C4  3036 7320 FF64           move.w     D0, [A6 - 0x9C + D7 * 2]
000027CA  B076 7320 FF62           cmp.w      D0, [A6 - 0x9E + D7 * 2]
000027D0  548F                     addq.l     A7, 2
000027D2  6754                     beq        +0x56 /* 00002828 */
000027D4  70FF                     moveq.l    D0, 0xFFFFFFFF
000027D6  D047                     add.w      D0, D7
000027D8  3F00                     move.w     -[A7], D0
000027DA  4EBA FD2C                jsr        [PC - 0x2D4 /* 00002508 */]
000027DE  3EB6 7320 FF62           move.w     [A7], [A6 - 0x9E + D7 * 2]
000027E4  4EBA FD22                jsr        [PC - 0x2DE /* 00002508 */]
000027E8  5247                     addq.w     D7, 1
000027EA  B647                     cmp.w      D3, D7
000027EC  548F                     addq.l     A7, 2
000027EE  6600 00C0                bne        +0xC2 /* 000028B0 */
000027F2  0C76 FFFF 7320 FF62      cmpi.w     [A6 - 0x9E + D7 * 2], 0xFFFF
000027FA  6700 00BA                beq        +0xBC /* 000028B6 */
000027FE  70FF                     moveq.l    D0, 0xFFFFFFFF
00002800  D047                     add.w      D0, D7
00002802  3F00                     move.w     -[A7], D0
00002804  4EBA FD02                jsr        [PC - 0x2FE /* 00002508 */]
00002808  70FF                     moveq.l    D0, 0xFFFFFFFF
0000280A  D047                     add.w      D0, D7
0000280C  3E80                     move.w     [A7], D0
0000280E  4EBA FCF8                jsr        [PC - 0x308 /* 00002508 */]
00002812  3EB6 7320 FF62           move.w     [A7], [A6 - 0x9E + D7 * 2]
00002818  4EBA FCEE                jsr        [PC - 0x312 /* 00002508 */]
0000281C  548F                     addq.l     A7, 2
0000281E  6000 0096                bra        +0x98 /* 000028B6 */
label00002822:
00002822  5247                     addq.w     D7, 1
00002824  B647                     cmp.w      D3, D7
00002826  670E                     beq        +0x10 /* 00002836 */
label00002828:
00002828  3036 7320 FF64           move.w     D0, [A6 - 0x9C + D7 * 2]
0000282E  B076 7320 FF62           cmp.w      D0, [A6 - 0x9E + D7 * 2]
00002834  67EC                     beq        -0x12 /* 00002822 */
label00002836:
00002836  70FF                     moveq.l    D0, 0xFFFFFFFF
00002838  D047                     add.w      D0, D7
0000283A  3F00                     move.w     -[A7], D0
0000283C  4EBA FCCA                jsr        [PC - 0x336 /* 00002508 */]
00002840  3EB6 7320 FF62           move.w     [A7], [A6 - 0x9E + D7 * 2]
00002846  4EBA FCC0                jsr        [PC - 0x340 /* 00002508 */]
0000284A  5247                     addq.w     D7, 1
0000284C  B647                     cmp.w      D3, D7
0000284E  548F                     addq.l     A7, 2
00002850  665E                     bne        +0x60 /* 000028B0 */
00002852  0C76 FFFF 7320 FF62      cmpi.w     [A6 - 0x9E + D7 * 2], 0xFFFF
0000285A  675A                     beq        +0x5C /* 000028B6 */
0000285C  70FF                     moveq.l    D0, 0xFFFFFFFF
0000285E  D047                     add.w      D0, D7
00002860  3F00                     move.w     -[A7], D0
00002862  4EBA FCA4                jsr        [PC - 0x35C /* 00002508 */]
00002866  70FF                     moveq.l    D0, 0xFFFFFFFF
00002868  D047                     add.w      D0, D7
0000286A  3E80                     move.w     [A7], D0
0000286C  4EBA FC9A                jsr        [PC - 0x366 /* 00002508 */]
00002870  3EB6 7320 FF62           move.w     [A7], [A6 - 0x9E + D7 * 2]
00002876  4EBA FC90                jsr        [PC - 0x370 /* 00002508 */]
0000287A  548F                     addq.l     A7, 2
0000287C  6038                     bra        +0x3A /* 000028B6 */
label0000287E:
0000287E  5247                     addq.w     D7, 1
00002880  B647                     cmp.w      D3, D7
00002882  662C                     bne        +0x2E /* 000028B0 */
00002884  0C76 FFFF 7320 FF62      cmpi.w     [A6 - 0x9E + D7 * 2], 0xFFFF
0000288C  6728                     beq        +0x2A /* 000028B6 */
0000288E  70FF                     moveq.l    D0, 0xFFFFFFFF
00002890  D047                     add.w      D0, D7
00002892  3F00                     move.w     -[A7], D0
00002894  4EBA FC72                jsr        [PC - 0x38E /* 00002508 */]
00002898  70FF                     moveq.l    D0, 0xFFFFFFFF
0000289A  D047                     add.w      D0, D7
0000289C  3E80                     move.w     [A7], D0
0000289E  4EBA FC68                jsr        [PC - 0x398 /* 00002508 */]
000028A2  3EB6 7320 FF62           move.w     [A7], [A6 - 0x9E + D7 * 2]
000028A8  4EBA FC5E                jsr        [PC - 0x3A2 /* 00002508 */]
000028AC  548F                     addq.l     A7, 2
000028AE  6006                     bra        +0x8 /* 000028B6 */
label000028B0:
000028B0  B647                     cmp.w      D3, D7
000028B2  6E00 FEFA                bgt        -0x104 /* 000027AE */
label000028B6:
000028B6  5246                     addq.w     D6, 1
label000028B8:
000028B8  B646                     cmp.w      D3, D6
000028BA  6E00 FD86                bgt        -0x278 /* 00002642 */
000028BE  3F3C 00FF                move.w     -[A7], 0xFF
000028C2  4EBA FC44                jsr        [PC - 0x3BC /* 00002508 */]
000028C6  2F3C 000E 0004           move.l     -[A7], 0xE0004
000028CC  4EAD 03F2                jsr        [A5 + 0x3F2 /* export_122, CODE:2 @ 00003D58 */]
000028D0  2EBC 000E 0003           move.l     [A7], 0xE0003
000028D6  4EAD 03F2                jsr        [A5 + 0x3F2 /* export_122, CODE:2 @ 00003D58 */]
000028DA  4CEE 1CF8 FEC0           movem.l    D3,D4,D5,D6,D7,A2,A3,A4, [A6 - 0x140]
000028E0  4E5E                     unlink     A6
000028E2  4E75                     rts
fn000028E4:
000028E4  4E56 FFEC                link       A6, -0x0014
000028E8  48E7 1F00                movem.l    -[A7], D3,D4,D5,D6,D7
000028EC  3F2E 0008                move.w     -[A7], [A6 + 0x8]
000028F0  4EBA EA06                jsr        [PC - 0x15FA /* 000012F8 */]
000028F4  0240 0080                andi.w     D0, 0x80
000028F8  548F                     addq.l     A7, 2
000028FA  6706                     beq        +0x8 /* 00002902 */
000028FC  7000                     moveq.l    D0, 0x00
000028FE  6000 02C0                bra        +0x2C2 /* 00002BC0 */
label00002902:
00002902  3F2E 000A                move.w     -[A7], [A6 + 0xA]
00002906  4EBA E9F0                jsr        [PC - 0x1610 /* 000012F8 */]
0000290A  0240 0080                andi.w     D0, 0x80
0000290E  548F                     addq.l     A7, 2
00002910  6706                     beq        +0x8 /* 00002918 */
00002912  7000                     moveq.l    D0, 0x00
00002914  6000 02AA                bra        +0x2AC /* 00002BC0 */
label00002918:
00002918  3F2E 0008                move.w     -[A7], [A6 + 0x8]
0000291C  4EBA EA54                jsr        [PC - 0x15AC /* 00001372 */]
00002920  362D ECE2                move.w     D3, [A5 - 0x131E]
00002924  3C2D ECE4                move.w     D6, [A5 - 0x131C]
00002928  3E2D ECE6                move.w     D7, [A5 - 0x131A]
0000292C  3D6D ECE8 FFF4           move.w     [A6 - 0xC], [A5 - 0x1318]
00002932  3D6D ECEA FFF2           move.w     [A6 - 0xE], [A5 - 0x1316]
00002938  3D6D ECEC FFF0           move.w     [A6 - 0x10], [A5 - 0x1314]
0000293E  3D6D ECEE FFEE           move.w     [A6 - 0x12], [A5 - 0x1312]
00002944  3D6D ECF0 FFEC           move.w     [A6 - 0x14], [A5 - 0x1310]
0000294A  3EAE 000A                move.w     [A7], [A6 + 0xA]
0000294E  4EBA EA22                jsr        [PC - 0x15DE /* 00001372 */]
00002952  426E FFFA                clr.w      [A6 - 0x6]
00002956  426E FFFC                clr.w      [A6 - 0x4]
0000295A  548F                     addq.l     A7, 2
0000295C  6000 0254                bra        +0x256 /* 00002BB2 */
label00002960:
00002960  426E FFFE                clr.w      [A6 - 0x2]
00002964  6000 020A                bra        +0x20C /* 00002B70 */
label00002968:
00002968  BE43                     cmp.w      D7, D3
0000296A  6600 00F6                bne        +0xF8 /* 00002A62 */
0000296E  B66D ECE2                cmp.w      D3, [A5 - 0x131E]
00002972  6600 00EE                bne        +0xF0 /* 00002A62 */
00002976  BE6D ECE6                cmp.w      D7, [A5 - 0x131A]
0000297A  6600 00E6                bne        +0xE8 /* 00002A62 */
0000297E  426E FFF8                clr.w      [A6 - 0x8]
00002982  426E FFF6                clr.w      [A6 - 0xA]
00002986  BC6E FFF4                cmp.w      D6, [A6 - 0xC]
0000298A  6F10                     ble        +0x12 /* 0000299C */
0000298C  3D7C 0001 FFF6           move.w     [A6 - 0xA], 0x1
00002992  3806                     move.w     D4, D6
00002994  3C2E FFF4                move.w     D6, [A6 - 0xC]
00002998  3D44 FFF4                move.w     [A6 - 0xC], D4
label0000299C:
0000299C  302D ECE4                move.w     D0, [A5 - 0x131C]
000029A0  B06D ECE8                cmp.w      D0, [A5 - 0x1318]
000029A4  6F14                     ble        +0x16 /* 000029BA */
000029A6  3D7C 0001 FFF8           move.w     [A6 - 0x8], 0x1
000029AC  382D ECE4                move.w     D4, [A5 - 0x131C]
000029B0  3B6D ECE8 ECE4           move.w     [A5 - 0x131C], [A5 - 0x1318]
000029B6  3B44 ECE8                move.w     [A5 - 0x1318], D4
label000029BA:
000029BA  BC6D ECE8                cmp.w      D6, [A5 - 0x1318]
000029BE  6E0A                     bgt        +0xC /* 000029CA */
000029C0  302D ECE4                move.w     D0, [A5 - 0x131C]
000029C4  B06E FFF4                cmp.w      D0, [A6 - 0xC]
000029C8  6F28                     ble        +0x2A /* 000029F2 */
label000029CA:
000029CA  4A6E FFF6                tst.w      [A6 - 0xA]
000029CE  670A                     beq        +0xC /* 000029DA */
000029D0  3806                     move.w     D4, D6
000029D2  3C2E FFF4                move.w     D6, [A6 - 0xC]
000029D6  3D44 FFF4                move.w     [A6 - 0xC], D4
label000029DA:
000029DA  4A6E FFF8                tst.w      [A6 - 0x8]
000029DE  6700 0082                beq        +0x84 /* 00002A62 */
000029E2  382D ECE4                move.w     D4, [A5 - 0x131C]
000029E6  3B6D ECE8 ECE4           move.w     [A5 - 0x131C], [A5 - 0x1318]
000029EC  3B44 ECE8                move.w     [A5 - 0x1318], D4
000029F0  6070                     bra        +0x72 /* 00002A62 */
label000029F2:
000029F2  302E FFF4                move.w     D0, [A6 - 0xC]
000029F6  B06D ECE4                cmp.w      D0, [A5 - 0x131C]
000029FA  6706                     beq        +0x8 /* 00002A02 */
000029FC  BC6D ECE8                cmp.w      D6, [A5 - 0x1318]
00002A00  6636                     bne        +0x38 /* 00002A38 */
label00002A02:
00002A02  BC6E FFF4                cmp.w      D6, [A6 - 0xC]
00002A06  6730                     beq        +0x32 /* 00002A38 */
00002A08  302D ECE4                move.w     D0, [A5 - 0x131C]
00002A0C  B06D ECE8                cmp.w      D0, [A5 - 0x1318]
00002A10  6726                     beq        +0x28 /* 00002A38 */
00002A12  4A6E FFF6                tst.w      [A6 - 0xA]
00002A16  670A                     beq        +0xC /* 00002A22 */
00002A18  3806                     move.w     D4, D6
00002A1A  3C2E FFF4                move.w     D6, [A6 - 0xC]
00002A1E  3D44 FFF4                move.w     [A6 - 0xC], D4
label00002A22:
00002A22  4A6E FFF8                tst.w      [A6 - 0x8]
00002A26  673A                     beq        +0x3C /* 00002A62 */
00002A28  382D ECE4                move.w     D4, [A5 - 0x131C]
00002A2C  3B6D ECE8 ECE4           move.w     [A5 - 0x131C], [A5 - 0x1318]
00002A32  3B44 ECE8                move.w     [A5 - 0x1318], D4
00002A36  602A                     bra        +0x2C /* 00002A62 */
label00002A38:
00002A38  4A6E FFF6                tst.w      [A6 - 0xA]
00002A3C  670A                     beq        +0xC /* 00002A48 */
00002A3E  3806                     move.w     D4, D6
00002A40  3C2E FFF4                move.w     D6, [A6 - 0xC]
00002A44  3D44 FFF4                move.w     [A6 - 0xC], D4
label00002A48:
00002A48  4A6E FFF8                tst.w      [A6 - 0x8]
00002A4C  670E                     beq        +0x10 /* 00002A5C */
00002A4E  382D ECE4                move.w     D4, [A5 - 0x131C]
00002A52  3B6D ECE8 ECE4           move.w     [A5 - 0x131C], [A5 - 0x1318]
00002A58  3B44 ECE8                move.w     [A5 - 0x1318], D4
label00002A5C:
00002A5C  3D7C 0001 FFFA           move.w     [A6 - 0x6], 0x1
label00002A62:
00002A62  BC6E FFF4                cmp.w      D6, [A6 - 0xC]
00002A66  6600 00DC                bne        +0xDE /* 00002B44 */
00002A6A  BC6D ECE4                cmp.w      D6, [A5 - 0x131C]
00002A6E  6600 00D4                bne        +0xD6 /* 00002B44 */
00002A72  302E FFF4                move.w     D0, [A6 - 0xC]
00002A76  B06D ECE8                cmp.w      D0, [A5 - 0x1318]
00002A7A  6600 00C8                bne        +0xCA /* 00002B44 */
00002A7E  426E FFF8                clr.w      [A6 - 0x8]
00002A82  426E FFF6                clr.w      [A6 - 0xA]
00002A86  BE43                     cmp.w      D7, D3
00002A88  6C0C                     bge        +0xE /* 00002A96 */
00002A8A  3D7C 0001 FFF6           move.w     [A6 - 0xA], 0x1
00002A90  3A03                     move.w     D5, D3
00002A92  3607                     move.w     D3, D7
00002A94  3E05                     move.w     D7, D5
label00002A96:
00002A96  302D ECE2                move.w     D0, [A5 - 0x131E]
00002A9A  B06D ECE6                cmp.w      D0, [A5 - 0x131A]
00002A9E  6F14                     ble        +0x16 /* 00002AB4 */
00002AA0  3D7C 0001 FFF8           move.w     [A6 - 0x8], 0x1
00002AA6  3A2D ECE2                move.w     D5, [A5 - 0x131E]
00002AAA  3B6D ECE6 ECE2           move.w     [A5 - 0x131E], [A5 - 0x131A]
00002AB0  3B45 ECE6                move.w     [A5 - 0x131A], D5
label00002AB4:
00002AB4  B66D ECE6                cmp.w      D3, [A5 - 0x131A]
00002AB8  6E06                     bgt        +0x8 /* 00002AC0 */
00002ABA  BE6D ECE2                cmp.w      D7, [A5 - 0x131E]
00002ABE  6C22                     bge        +0x24 /* 00002AE2 */
label00002AC0:
00002AC0  4A6E FFF6                tst.w      [A6 - 0xA]
00002AC4  6706                     beq        +0x8 /* 00002ACC */
00002AC6  3A03                     move.w     D5, D3
00002AC8  3607                     move.w     D3, D7
00002ACA  3E05                     move.w     D7, D5
label00002ACC:
00002ACC  4A6E FFF8                tst.w      [A6 - 0x8]
00002AD0  6772                     beq        +0x74 /* 00002B44 */
00002AD2  3A2D ECE2                move.w     D5, [A5 - 0x131E]
00002AD6  3B6D ECE6 ECE2           move.w     [A5 - 0x131E], [A5 - 0x131A]
00002ADC  3B45 ECE6                move.w     [A5 - 0x131A], D5
00002AE0  6062                     bra        +0x64 /* 00002B44 */
label00002AE2:
00002AE2  BE6D ECE2                cmp.w      D7, [A5 - 0x131E]
00002AE6  6706                     beq        +0x8 /* 00002AEE */
00002AE8  B66D ECE6                cmp.w      D3, [A5 - 0x131A]
00002AEC  6630                     bne        +0x32 /* 00002B1E */
label00002AEE:
00002AEE  BE43                     cmp.w      D7, D3
00002AF0  672C                     beq        +0x2E /* 00002B1E */
00002AF2  302D ECE2                move.w     D0, [A5 - 0x131E]
00002AF6  B06D ECE6                cmp.w      D0, [A5 - 0x131A]
00002AFA  6722                     beq        +0x24 /* 00002B1E */
00002AFC  4A6E FFF6                tst.w      [A6 - 0xA]
00002B00  6706                     beq        +0x8 /* 00002B08 */
00002B02  3A03                     move.w     D5, D3
00002B04  3607                     move.w     D3, D7
00002B06  3E05                     move.w     D7, D5
label00002B08:
00002B08  4A6E FFF8                tst.w      [A6 - 0x8]
00002B0C  6736                     beq        +0x38 /* 00002B44 */
00002B0E  3A2D ECE2                move.w     D5, [A5 - 0x131E]
00002B12  3B6D ECE6 ECE2           move.w     [A5 - 0x131E], [A5 - 0x131A]
00002B18  3B45 ECE6                move.w     [A5 - 0x131A], D5
00002B1C  6026                     bra        +0x28 /* 00002B44 */
label00002B1E:
00002B1E  4A6E FFF6                tst.w      [A6 - 0xA]
00002B22  6706                     beq        +0x8 /* 00002B2A */
00002B24  3A03                     move.w     D5, D3
00002B26  3607                     move.w     D3, D7
00002B28  3E05                     move.w     D7, D5
label00002B2A:
00002B2A  4A6E FFF8                tst.w      [A6 - 0x8]
00002B2E  670E                     beq        +0x10 /* 00002B3E */
00002B30  3A2D ECE2                move.w     D5, [A5 - 0x131E]
00002B34  3B6D ECE6 ECE2           move.w     [A5 - 0x131E], [A5 - 0x131A]
00002B3A  3B45 ECE6                move.w     [A5 - 0x131A], D5
label00002B3E:
00002B3E  3D7C 0001 FFFA           move.w     [A6 - 0x6], 0x1
label00002B44:
00002B44  3A03                     move.w     D5, D3
00002B46  3806                     move.w     D4, D6
00002B48  3607                     move.w     D3, D7
00002B4A  3C2E FFF4                move.w     D6, [A6 - 0xC]
00002B4E  3E2E FFF2                move.w     D7, [A6 - 0xE]
00002B52  3D6E FFF0 FFF4           move.w     [A6 - 0xC], [A6 - 0x10]
00002B58  3D6E FFEE FFF2           move.w     [A6 - 0xE], [A6 - 0x12]
00002B5E  3D6E FFEC FFF0           move.w     [A6 - 0x10], [A6 - 0x14]
00002B64  3D45 FFEE                move.w     [A6 - 0x12], D5
00002B68  3D44 FFEC                move.w     [A6 - 0x14], D4
00002B6C  526E FFFE                addq.w     [A6 - 0x2], 1
label00002B70:
00002B70  0C6E 0004 FFFE           cmpi.w     [A6 - 0x2], 0x4
00002B76  6D00 FDF0                blt        -0x20E /* 00002968 */
00002B7A  3A2D ECE2                move.w     D5, [A5 - 0x131E]
00002B7E  382D ECE4                move.w     D4, [A5 - 0x131C]
00002B82  3B6D ECE6 ECE2           move.w     [A5 - 0x131E], [A5 - 0x131A]
00002B88  3B6D ECE8 ECE4           move.w     [A5 - 0x131C], [A5 - 0x1318]
00002B8E  3B6D ECEA ECE6           move.w     [A5 - 0x131A], [A5 - 0x1316]
00002B94  3B6D ECEC ECE8           move.w     [A5 - 0x1318], [A5 - 0x1314]
00002B9A  3B6D ECEE ECEA           move.w     [A5 - 0x1316], [A5 - 0x1312]
00002BA0  3B6D ECF0 ECEC           move.w     [A5 - 0x1314], [A5 - 0x1310]
00002BA6  3B45 ECEE                move.w     [A5 - 0x1312], D5
00002BAA  3B44 ECF0                move.w     [A5 - 0x1310], D4
00002BAE  526E FFFC                addq.w     [A6 - 0x4], 1
label00002BB2:
00002BB2  0C6E 0004 FFFC           cmpi.w     [A6 - 0x4], 0x4
00002BB8  6D00 FDA6                blt        -0x258 /* 00002960 */
00002BBC  302E FFFA                move.w     D0, [A6 - 0x6]
label00002BC0:
00002BC0  4CDF 00F8                movem.l    D3,D4,D5,D6,D7, [A7]+
00002BC4  4E5E                     unlink     A6
00002BC6  4E75                     rts
fn00002BC8:
00002BC8  2F0C                     move.l     -[A7], A4
00002BCA  2F3C 000E 0004           move.l     -[A7], 0xE0004
00002BD0  4EAD 03E2                jsr        [A5 + 0x3E2 /* export_120, CODE:2 @ 00003CEE */]
00002BD4  2B40 9BCC                move.l     [A5 - 0x6434], D0
00002BD8  426D 9BD0                clr.w      [A5 - 0x6430]
00002BDC  3EBC 0008                move.w     [A7], 0x8
00002BE0  4EBA F8EC                jsr        [PC - 0x714 /* 000024CE */]
00002BE4  2840                     movea.l    A4, D0
00002BE6  42AC 0004                clr.l      [A4 + 0x4]
00002BEA  4294                     clr.l      [A4]
00002BEC  200C                     move.l     D0, A4
00002BEE  588F                     addq.l     A7, 4
00002BF0  285F                     movea.l    A4, [A7]+
00002BF2  4E75                     rts
fn00002BF4:
00002BF4  4E56 0000                link       A6, 0
00002BF8  2F0C                     move.l     -[A7], A4
00002BFA  286E 0008                movea.l    A4, [A6 + 0x8]
00002BFE  200C                     move.l     D0, A4
00002C00  6604                     bne        +0x6 /* 00002C06 */
00002C02  7000                     moveq.l    D0, 0x00
00002C04  606E                     bra        +0x70 /* 00002C74 */
label00002C06:
00002C06  4AAC 0004                tst.l      [A4 + 0x4]
00002C0A  662A                     bne        +0x2C /* 00002C36 */
00002C0C  3F3C 000A                move.w     -[A7], 0xA /* '\n' */
00002C10  4EBA F8BC                jsr        [PC - 0x744 /* 000024CE */]
00002C14  2940 0004                move.l     [A4 + 0x4], D0
00002C18  2880                     move.l     [A4], D0
00002C1A  206C 0004                movea.l    A0, [A4 + 0x4]
00002C1E  30AE 000C                move.w     [A0], [A6 + 0xC]
00002C22  206C 0004                movea.l    A0, [A4 + 0x4]
00002C26  42A8 0002                clr.l      [A0 + 0x2]
00002C2A  206C 0004                movea.l    A0, [A4 + 0x4]
00002C2E  42A8 0006                clr.l      [A0 + 0x6]
00002C32  548F                     addq.l     A7, 2
00002C34  603A                     bra        +0x3C /* 00002C70 */
label00002C36:
00002C36  3F3C 000A                move.w     -[A7], 0xA /* '\n' */
00002C3A  4EBA F892                jsr        [PC - 0x76E /* 000024CE */]
00002C3E  206C 0004                movea.l    A0, [A4 + 0x4]
00002C42  2140 0002                move.l     [A0 + 0x2], D0
00002C46  206C 0004                movea.l    A0, [A4 + 0x4]
00002C4A  2068 0002                movea.l    A0, [A0 + 0x2]
00002C4E  216C 0004 0006           move.l     [A0 + 0x6], [A4 + 0x4]
00002C54  206C 0004                movea.l    A0, [A4 + 0x4]
00002C58  2968 0002 0004           move.l     [A4 + 0x4], [A0 + 0x2]
00002C5E  206C 0004                movea.l    A0, [A4 + 0x4]
00002C62  30AE 000C                move.w     [A0], [A6 + 0xC]
00002C66  206C 0004                movea.l    A0, [A4 + 0x4]
00002C6A  42A8 0002                clr.l      [A0 + 0x2]
00002C6E  548F                     addq.l     A7, 2
label00002C70:
00002C70  202C 0004                move.l     D0, [A4 + 0x4]
label00002C74:
00002C74  285F                     movea.l    A4, [A7]+
00002C76  4E5E                     unlink     A6
00002C78  4E75                     rts
fn00002C7A:
00002C7A  4E56 FFFC                link       A6, -0x0004
00002C7E  48E7 0018                movem.l    -[A7], A3,A4
00002C82  286E 0008                movea.l    A4, [A6 + 0x8]
00002C86  266E 000C                movea.l    A3, [A6 + 0xC]
00002C8A  200B                     move.l     D0, A3
00002C8C  6704                     beq        +0x6 /* 00002C92 */
00002C8E  200C                     move.l     D0, A4
00002C90  6604                     bne        +0x6 /* 00002C96 */
label00002C92:
00002C92  7000                     moveq.l    D0, 0x00
00002C94  6038                     bra        +0x3A /* 00002CCE */
label00002C96:
00002C96  4AAB 0006                tst.l      [A3 + 0x6]
00002C9A  6606                     bne        +0x8 /* 00002CA2 */
00002C9C  28AB 0002                move.l     [A4], [A3 + 0x2]
00002CA0  600A                     bra        +0xC /* 00002CAC */
label00002CA2:
00002CA2  206B 0006                movea.l    A0, [A3 + 0x6]
00002CA6  216B 0002 0002           move.l     [A0 + 0x2], [A3 + 0x2]
label00002CAC:
00002CAC  4AAB 0002                tst.l      [A3 + 0x2]
00002CB0  6608                     bne        +0xA /* 00002CBA */
00002CB2  296B 0006 0004           move.l     [A4 + 0x4], [A3 + 0x6]
00002CB8  600A                     bra        +0xC /* 00002CC4 */
label00002CBA:
00002CBA  206B 0002                movea.l    A0, [A3 + 0x2]
00002CBE  216B 0006 0006           move.l     [A0 + 0x6], [A3 + 0x6]
label00002CC4:
00002CC4  4A94                     tst.l      [A4]
00002CC6  6604                     bne        +0x6 /* 00002CCC */
00002CC8  7000                     moveq.l    D0, 0x00
00002CCA  6002                     bra        +0x4 /* 00002CCE */
label00002CCC:
00002CCC  200C                     move.l     D0, A4
label00002CCE:
00002CCE  4CDF 1800                movem.l    A3,A4, [A7]+
00002CD2  4E5E                     unlink     A6
00002CD4  4E75                     rts
export_189:
00002CD6  4EAD 069A                jsr        [A5 + 0x69A /* export_207, CODE:4 @ 00003C2A */]
00002CDA  4EBA 145A                jsr        [PC + 0x145A /* 00004136 */]
00002CDE  4267                     clr.w      -[A7]
00002CE0  2F3C 0000 05AB           move.l     -[A7], 0x5AB
00002CE6  3F3C 0050                move.w     -[A7], 0x50 /* 'P' */
00002CEA  2F3C 454E 4F4E           move.l     -[A7], 0x454E4F4E /* 'ENON' */
00002CF0  3F3C 0005                move.w     -[A7], 0x5
00002CF4  4EAD 03FA                jsr        [A5 + 0x3FA /* export_123, CODE:2 @ 00003C5C */]
00002CF8  4257                     clr.w      [A7]
00002CFA  2F3C 0000 05B5           move.l     -[A7], 0x5B5
00002D00  3F3C 0014                move.w     -[A7], 0x14
00002D04  2F3C 454E 4F4E           move.l     -[A7], 0x454E4F4E /* 'ENON' */
00002D0A  3F3C 000C                move.w     -[A7], 0xC
00002D0E  4EAD 03FA                jsr        [A5 + 0x3FA /* export_123, CODE:2 @ 00003C5C */]
00002D12  4257                     clr.w      [A7]
00002D14  2F3C 0000 05BB           move.l     -[A7], 0x5BB
00002D1A  3F3C 0005                move.w     -[A7], 0x5
00002D1E  2F3C 454E 4F4E           move.l     -[A7], 0x454E4F4E /* 'ENON' */
00002D24  3F3C 000B                move.w     -[A7], 0xB
00002D28  4EAD 03FA                jsr        [A5 + 0x3FA /* export_123, CODE:2 @ 00003C5C */]
00002D2C  4257                     clr.w      [A7]
00002D2E  2F3C 0000 05C7           move.l     -[A7], 0x5C7
00002D34  3F3C 000D                move.w     -[A7], 0xD /* '\r' */
00002D38  2F3C 454E 4F4E           move.l     -[A7], 0x454E4F4E /* 'ENON' */
00002D3E  3F3C 0009                move.w     -[A7], 0x9 /* '\t' */
00002D42  4EAD 03FA                jsr        [A5 + 0x3FA /* export_123, CODE:2 @ 00003C5C */]
00002D46  4257                     clr.w      [A7]
00002D48  2F3C 0000 05D3           move.l     -[A7], 0x5D3
00002D4E  3F3C 000A                move.w     -[A7], 0xA /* '\n' */
00002D52  2F3C 454E 4F4E           move.l     -[A7], 0x454E4F4E /* 'ENON' */
00002D58  3F3C 000A                move.w     -[A7], 0xA /* '\n' */
00002D5C  4EAD 03FA                jsr        [A5 + 0x3FA /* export_123, CODE:2 @ 00003C5C */]
00002D60  4257                     clr.w      [A7]
00002D62  2F3C 0000 05DB           move.l     -[A7], 0x5DB
00002D68  3F3C 0064                move.w     -[A7], 0x64 /* 'd' */
00002D6C  2F3C 454E 4F4E           move.l     -[A7], 0x454E4F4E /* 'ENON' */
00002D72  3F3C 0008                move.w     -[A7], 0x8
00002D76  4EAD 03FA                jsr        [A5 + 0x3FA /* export_123, CODE:2 @ 00003C5C */]
00002D7A  4257                     clr.w      [A7]
00002D7C  2F3C 0000 05E1           move.l     -[A7], 0x5E1
00002D82  3F3C 0032                move.w     -[A7], 0x32 /* '2' */
00002D86  2F3C 454E 4F4E           move.l     -[A7], 0x454E4F4E /* 'ENON' */
00002D8C  3F3C 0007                move.w     -[A7], 0x7
00002D90  4EAD 03FA                jsr        [A5 + 0x3FA /* export_123, CODE:2 @ 00003C5C */]
00002D94  4257                     clr.w      [A7]
00002D96  2F3C 0000 05E9           move.l     -[A7], 0x5E9
00002D9C  3F3C 0032                move.w     -[A7], 0x32 /* '2' */
00002DA0  2F3C 454E 4F4E           move.l     -[A7], 0x454E4F4E /* 'ENON' */
00002DA6  3F3C 000D                move.w     -[A7], 0xD /* '\r' */
00002DAA  4EAD 03FA                jsr        [A5 + 0x3FA /* export_123, CODE:2 @ 00003C5C */]
00002DAE  4257                     clr.w      [A7]
00002DB0  2F3C 0000 05F3           move.l     -[A7], 0x5F3
00002DB6  3F3C 000A                move.w     -[A7], 0xA /* '\n' */
00002DBA  2F3C 454E 4F4E           move.l     -[A7], 0x454E4F4E /* 'ENON' */
00002DC0  3F3C 000E                move.w     -[A7], 0xE
00002DC4  4EAD 03FA                jsr        [A5 + 0x3FA /* export_123, CODE:2 @ 00003C5C */]
00002DC8  4FEF 006E                lea.l      A7, [A7 + 0x6E]
00002DCC  4EBA E67C                jsr        [PC - 0x1984 /* 0000144A */]
00002DD0  4EAD 03B2                jsr        [A5 + 0x3B2 /* export_114, CODE:2 @ 00003A0A */]
00002DD4  4EAD 0A72                jsr        [A5 + 0xA72 /* export_330, CODE:5 @ 000037D2 */]
00002DD8  4A6D EDE0                tst.w      [A5 - 0x1220]
00002DDC  670C                     beq        +0xE /* 00002DEA */
00002DDE  3F2D EDE0                move.w     -[A7], [A5 - 0x1220]
00002DE2  4EBA F64C                jsr        [PC - 0x9B4 /* 00002430 */]
00002DE6  548F                     addq.l     A7, 2
00002DE8  6008                     bra        +0xA /* 00002DF2 */
label00002DEA:
00002DEA  4267                     clr.w      -[A7]
00002DEC  4EBA F642                jsr        [PC - 0x9BE /* 00002430 */]
00002DF0  548F                     addq.l     A7, 2
label00002DF2:
00002DF2  4EAD 08EA                jsr        [A5 + 0x8EA /* export_281, CODE:5 @ 00000A9A */]
00002DF6  4E75                     rts
export_190:
00002DF8  48E7 0108                movem.l    -[A7], D7,A4
00002DFC  4EBA 1338                jsr        [PC + 0x1338 /* 00004136 */]
00002E00  3F3C 0001                move.w     -[A7], 0x1
00002E04  4EBA 02CA                jsr        [PC + 0x2CA /* 000030D0 */]
00002E08  2F3C 0140 0090           move.l     -[A7], 0x1400090
00002E0E  4878 0010                push.l     0x10
00002E12  4EBA 035A                jsr        [PC + 0x35A /* 0000316E */]
00002E16  4257                     clr.w      [A7]
00002E18  4EBA E6A8                jsr        [PC - 0x1958 /* 000014C2 */]
00002E1C  4EAD 097A                jsr        [A5 + 0x97A /* export_299, CODE:5 @ 0000286E */]
00002E20  3B7C 003C ED0E           move.w     [A5 - 0x12F2], 0x3C /* '<' */
00002E26  3B7C 0004 C976           move.w     [A5 - 0x368A], 0x4
00002E2C  3B7C 0001 C9A4           move.w     [A5 - 0x365C], 0x1
00002E32  4257                     clr.w      [A7]
00002E34  4EAD 03DA                jsr        [A5 + 0x3DA /* export_119, CODE:2 @ 00003AE0 */]
00002E38  7E01                     moveq.l    D7, 0x01
00002E3A  4FEF 000A                lea.l      A7, [A7 + 0xA]
00002E3E  600E                     bra        +0x10 /* 00002E4E */
label00002E40:
00002E40  3F3C 0001                move.w     -[A7], 0x1
00002E44  3F07                     move.w     -[A7], D7
00002E46  4EBA 01BA                jsr        [PC + 0x1BA /* 00003002 */]
00002E4A  588F                     addq.l     A7, 4
00002E4C  5247                     addq.w     D7, 1
label00002E4E:
00002E4E  0C47 000D                cmpi.w     D7, 0xD /* '\r' */
00002E52  65EC                     bcs        -0x12 /* 00002E40 */
00002E54  4878 0642                push.l     0x642
00002E58  4267                     clr.w      -[A7]
00002E5A  486D C92C                pea.l      [A5 - 0x36D4]
00002E5E  4EAD 0CAA                jsr        [A5 + 0xCAA /* export_401, CODE:7 @ 00003152 */]
00002E62  4878 0100                push.l     0x100
00002E66  4267                     clr.w      -[A7]
00002E68  486D D216                pea.l      [A5 - 0x2DEA]
00002E6C  4EAD 0CAA                jsr        [A5 + 0xCAA /* export_401, CODE:7 @ 00003152 */]
00002E70  4878 0168                push.l     0x168
00002E74  4267                     clr.w      -[A7]
00002E76  486D C59A                pea.l      [A5 - 0x3A66]
00002E7A  4EAD 0CAA                jsr        [A5 + 0xCAA /* export_401, CODE:7 @ 00003152 */]
00002E7E  4878 00A0                push.l     0xA0
00002E82  4267                     clr.w      -[A7]
00002E84  486D C79E                pea.l      [A5 - 0x3862]
00002E88  4EAD 0CAA                jsr        [A5 + 0xCAA /* export_401, CODE:7 @ 00003152 */]
00002E8C  422D EDB0                clr.b      [A5 - 0x1250]
00002E90  422D ED3E                clr.b      [A5 - 0x12C2]
00002E94  7014                     moveq.l    D0, 0x14
00002E96  2E80                     move.l     [A7], D0
00002E98  4267                     clr.w      -[A7]
00002E9A  486D ED40                pea.l      [A5 - 0x12C0]
00002E9E  4EAD 0CAA                jsr        [A5 + 0xCAA /* export_401, CODE:7 @ 00003152 */]
00002EA2  7005                     moveq.l    D0, 0x05
00002EA4  2E80                     move.l     [A7], D0
00002EA6  4267                     clr.w      -[A7]
00002EA8  486D ED54                pea.l      [A5 - 0x12AC]
00002EAC  4EAD 0CAA                jsr        [A5 + 0xCAA /* export_401, CODE:7 @ 00003152 */]
00002EB0  49ED DFB6                lea.l      A4, [A5 - 0x204A]
00002EB4  7E00                     moveq.l    D7, 0x00
00002EB6  4FEF 0034                lea.l      A7, [A7 + 0x34]
00002EBA  603A                     bra        +0x3C /* 00002EF6 */
label00002EBC:
00002EBC  422C 0010                clr.b      [A4 + 0x10]
00002EC0  397C 013F 0004           move.w     [A4 + 0x4], 0x13F
00002EC6  397C FFFF 0008           move.w     [A4 + 0x8], 0xFFFF
00002ECC  422C 0015                clr.b      [A4 + 0x15]
00002ED0  197C 0002 0011           move.b     [A4 + 0x11], 0x2
00002ED6  422C 0012                clr.b      [A4 + 0x12]
00002EDA  197C 0001 0016           move.b     [A4 + 0x16], 0x1
00002EE0  422C 0017                clr.b      [A4 + 0x17]
00002EE4  422C 0018                clr.b      [A4 + 0x18]
00002EE8  422C 001A                clr.b      [A4 + 0x1A]
00002EEC  422C 0019                clr.b      [A4 + 0x19]
00002EF0  49EC 001C                lea.l      A4, [A4 + 0x1C]
00002EF4  5247                     addq.w     D7, 1
label00002EF6:
00002EF6  BE6D B116                cmp.w      D7, [A5 - 0x4EEA]
00002EFA  65C0                     bcs        -0x3E /* 00002EBC */
00002EFC  1B7C 00FF ED12           move.b     [A5 - 0x12EE], 0xFF
00002F02  422D ECD6                clr.b      [A5 - 0x132A]
00002F06  422D ECDA                clr.b      [A5 - 0x1326]
00002F0A  3B7C 000A ECDC           move.w     [A5 - 0x1324], 0xA /* '\n' */
00002F10  3B7C 001E ECDE           move.w     [A5 - 0x1322], 0x1E
00002F16  426D ECA2                clr.w      [A5 - 0x135E]
00002F1A  426D F296                clr.w      [A5 - 0xD6A]
00002F1E  3B7C 000B C93E           move.w     [A5 - 0x36C2], 0xB
00002F24  3B7C 0007 ECFE           move.w     [A5 - 0x1302], 0x7
00002F2A  3B7C 0007 ED00           move.w     [A5 - 0x1300], 0x7
00002F30  3B7C 0003 C9A2           move.w     [A5 - 0x365E], 0x3
00002F36  3B7C 0068 EDBE           move.w     [A5 - 0x1242], 0x68 /* 'h' */
00002F3C  3B7C 0038 EDC0           move.w     [A5 - 0x1240], 0x38 /* '8' */
00002F42  422D B2D6                clr.b      [A5 - 0x4D2A]
00002F46  42AD B2BE                clr.l      [A5 - 0x4D42]
00002F4A  42AD B2BA                clr.l      [A5 - 0x4D46]
00002F4E  1B7C 00FF C702           move.b     [A5 - 0x38FE], 0xFF
00002F54  422D B2D8                clr.b      [A5 - 0x4D28]
00002F58  426D C95E                clr.w      [A5 - 0x36A2]
00002F5C  422D ED04                clr.b      [A5 - 0x12FC]
00002F60  422D ED0A                clr.b      [A5 - 0x12F6]
00002F64  422D ED0B                clr.b      [A5 - 0x12F5]
00002F68  426D ED0C                clr.w      [A5 - 0x12F4]
00002F6C  426D F758                clr.w      [A5 - 0x8A8]
00002F70  422D EDBB                clr.b      [A5 - 0x1245]
00002F74  422D EDBA                clr.b      [A5 - 0x1246]
00002F78  1B7C 0081 EDCD           move.b     [A5 - 0x1233], 0x81
00002F7E  3B7C 0001 F724           move.w     [A5 - 0x8DC], 0x1
00002F84  4EAD 07D2                jsr        [A5 + 0x7D2 /* export_246, CODE:4 @ 000068A8 */]
00002F88  7E00                     moveq.l    D7, 0x00
00002F8A  6042                     bra        +0x44 /* 00002FCE */
label00002F8C:
00002F8C  7000                     moveq.l    D0, 0x00
00002F8E  3007                     move.w     D0, D7
00002F90  D080                     add.l      D0, D0
00002F92  2840                     movea.l    A4, D0
00002F94  41ED F540                lea.l      A0, [A5 - 0xAC0]
00002F98  D1CC                     add.l      A0, A4
00002F9A  30BC 0002                move.w     [A0], 0x2
00002F9E  41ED F54C                lea.l      A0, [A5 - 0xAB4]
00002FA2  D1CC                     add.l      A0, A4
00002FA4  30BC 0005                move.w     [A0], 0x5
00002FA8  41ED F558                lea.l      A0, [A5 - 0xAA8]
00002FAC  D1CC                     add.l      A0, A4
00002FAE  4250                     clr.w      [A0]
00002FB0  41ED F570                lea.l      A0, [A5 - 0xA90]
00002FB4  D1CC                     add.l      A0, A4
00002FB6  30BC 013F                move.w     [A0], 0x13F
00002FBA  41ED F57C                lea.l      A0, [A5 - 0xA84]
00002FBE  D1CC                     add.l      A0, A4
00002FC0  30BC 000F                move.w     [A0], 0xF
00002FC4  41ED F588                lea.l      A0, [A5 - 0xA78]
00002FC8  D1CC                     add.l      A0, A4
00002FCA  4250                     clr.w      [A0]
00002FCC  5247                     addq.w     D7, 1
label00002FCE:
00002FCE  0C47 0006                cmpi.w     D7, 0x6
00002FD2  65B8                     bcs        -0x46 /* 00002F8C */
00002FD4  3B6D F282 C940           move.w     [A5 - 0x36C0], [A5 - 0xD7E]
00002FDA  3B7C 0001 C992           move.w     [A5 - 0x366E], 0x1
00002FE0  3B6D EDD6 C98C           move.w     [A5 - 0x3674], [A5 - 0x122A]
00002FE6  7000                     moveq.l    D0, 0x00
00002FE8  102D EDD3                move.b     D0, [A5 - 0x122D]
00002FEC  3B40 C98E                move.w     [A5 - 0x3672], D0
00002FF0  3B6D F280 C97C           move.w     [A5 - 0x3684], [A5 - 0xD80]
00002FF6  3B7C FFB0 C998           move.w     [A5 - 0x3668], 0xFFB0
00002FFC  4CDF 1080                movem.l    D7,A4, [A7]+
00003000  4E75                     rts
export_191:
fn00003002:
00003002  4E56 0000                link       A6, 0
00003006  48E7 0108                movem.l    -[A7], D7,A4
0000300A  3E2E 0008                move.w     D7, [A6 + 0x8]
0000300E  4A6E 000A                tst.w      [A6 + 0xA]
00003012  6728                     beq        +0x2A /* 0000303C */
00003014  4235 7120 D3A2           clr.b      [A5 - 0x2C5E + D7]
0000301A  1BBC 0002 7120 D6F1      move.b     [A5 - 0x290F + D7], 0x2
00003022  4235 7120 D395           clr.b      [A5 - 0x2C6B + D7]
00003028  3847                     movea.w    A4, D7
0000302A  D9CC                     add.l      A4, A4
0000302C  41ED D3B0                lea.l      A0, [A5 - 0x2C50]
00003030  D1CC                     add.l      A0, A4
00003032  4250                     clr.w      [A0]
00003034  41ED D3CA                lea.l      A0, [A5 - 0x2C36]
00003038  D1CC                     add.l      A0, A4
0000303A  4250                     clr.w      [A0]
label0000303C:
0000303C  3847                     movea.w    A4, D7
0000303E  D9CC                     add.l      A4, A4
00003040  41ED D418                lea.l      A0, [A5 - 0x2BE8]
00003044  D1CC                     add.l      A0, A4
00003046  4250                     clr.w      [A0]
00003048  41ED D62E                lea.l      A0, [A5 - 0x29D2]
0000304C  D1CC                     add.l      A0, A4
0000304E  30BC 0018                move.w     [A0], 0x18
00003052  1BBC 000F 7120 D44C      move.b     [A5 - 0x2BB4 + D7], 0xF
0000305A  4235 7120 D725           clr.b      [A5 - 0x28DB + D7]
00003060  4235 7120 D43F           clr.b      [A5 - 0x2BC1 + D7]
00003066  70FF                     moveq.l    D0, 0xFFFFFFFF
00003068  1B80 7120 D621           move.b     [A5 - 0x29DF + D7], D0
0000306E  1B80 7120 D614           move.b     [A5 - 0x29EC + D7], D0
00003074  4235 7120 D6FE           clr.b      [A5 - 0x2902 + D7]
0000307A  4235 7120 D70B           clr.b      [A5 - 0x28F5 + D7]
00003080  2F3C 0008 0002           move.l     -[A7], 0x80002
00003086  3F07                     move.w     -[A7], D7
00003088  4EAD 0B8A                jsr        [A5 + 0xB8A /* export_365, CODE:6 @ 0000110A */]
0000308C  4235 7120 D67C           clr.b      [A5 - 0x2984 + D7]
00003092  4235 7120 D689           clr.b      [A5 - 0x2977 + D7]
00003098  1BBC 0001 7120 D732      move.b     [A5 - 0x28CE + D7], 0x1
000030A0  1BBC 0002 7120 D73F      move.b     [A5 - 0x28C1 + D7], 0x2
000030A8  1BBC 0003 7120 D74C      move.b     [A5 - 0x28B4 + D7], 0x3
000030B0  1BBC 0004 7120 D759      move.b     [A5 - 0x28A7 + D7], 0x4
000030B8  1BBC 0005 7120 D766      move.b     [A5 - 0x289A + D7], 0x5
000030C0  42B5 7525 C928           clr.l      [[A5 - 0x36D8] + D7 * 4]
000030C6  4CEE 1080 FFF8           movem.l    D7,A4, [A6 - 0x8]
000030CC  4E5E                     unlink     A6
000030CE  4E75                     rts
export_192:
fn000030D0:
000030D0  4E56 0000                link       A6, 0
000030D4  48E7 1308                movem.l    -[A7], D3,D6,D7,A4
000030D8  3E2E 0008                move.w     D7, [A6 + 0x8]
000030DC  2F3C 0000 05F9           move.l     -[A7], 0x5F9
000030E2  3F07                     move.w     -[A7], D7
000030E4  3F3C 0001                move.w     -[A7], 0x1
000030E8  70FF                     moveq.l    D0, 0xFFFFFFFF
000030EA  D06D B112                add.w      D0, [A5 - 0x4EEE]
000030EE  3F00                     move.w     -[A7], D0
000030F0  4EAD 09B2                jsr        [A5 + 0x9B2 /* export_306, CODE:5 @ 00003464 */]
000030F4  3F07                     move.w     -[A7], D7
000030F6  3F3C 0006                move.w     -[A7], 0x6
000030FA  4EBA 131C                jsr        [PC + 0x131C /* 00004418 */]
000030FE  3E87                     move.w     [A7], D7
00003100  3F3C 0006                move.w     -[A7], 0x6
00003104  4EAD 03E2                jsr        [A5 + 0x3E2 /* export_120, CODE:2 @ 00003CEE */]
00003108  2840                     movea.l    A4, D0
0000310A  7C00                     moveq.l    D6, 0x00
0000310C  5C8F                     addq.l     A7, 6
0000310E  6022                     bra        +0x24 /* 00003132 */
label00003110:
00003110  7000                     moveq.l    D0, 0x00
00003112  3006                     move.w     D0, D6
00003114  3047                     movea.w    A0, D7
00003116  2208                     move.l     D1, A0
00003118  E989                     lsl        D1, 4
0000311A  7401                     moveq.l    D2, 0x01
0000311C  D446                     add.w      D2, D6
0000311E  7600                     moveq.l    D3, 0x00
00003120  3602                     move.w     D3, D2
00003122  41ED EAB6                lea.l      A0, [A5 - 0x154A]
00003126  D288                     add.l      D1, A0
00003128  D283                     add.l      D1, D3
0000312A  2041                     movea.l    A0, D1
0000312C  10B4 080E                move.b     [A0], [A4 + D0 + 0xE]
00003130  5246                     addq.w     D6, 1
label00003132:
00003132  0C46 000F                cmpi.w     D6, 0xF
00003136  65D8                     bcs        -0x26 /* 00003110 */
00003138  4CDF 10C8                movem.l    D3,D6,D7,A4, [A7]+
0000313C  4E5E                     unlink     A6
0000313E  4E75                     rts
export_193:
00003140  4E56 0000                link       A6, 0
00003144  2F3C 0000 0615           move.l     -[A7], 0x615
0000314A  3F2E 0008                move.w     -[A7], [A6 + 0x8]
0000314E  3F3C 0001                move.w     -[A7], 0x1
00003152  70FF                     moveq.l    D0, 0xFFFFFFFF
00003154  D06D B112                add.w      D0, [A5 - 0x4EEE]
00003158  3F00                     move.w     -[A7], D0
0000315A  4EAD 09B2                jsr        [A5 + 0x9B2 /* export_306, CODE:5 @ 00003464 */]
0000315E  3F2E 0008                move.w     -[A7], [A6 + 0x8]
00003162  3F3C 0006                move.w     -[A7], 0x6
00003166  4EAD 03F2                jsr        [A5 + 0x3F2 /* export_122, CODE:2 @ 00003D58 */]
0000316A  4E5E                     unlink     A6
0000316C  4E75                     rts
export_194:
fn0000316E:
0000316E  4E56 FFFC                link       A6, -0x0004
00003172  2F07                     move.l     -[A7], D7
00003174  3B7C 0001 F720           move.w     [A5 - 0x8E0], 0x1
0000317A  7E00                     moveq.l    D7, 0x00
0000317C  6020                     bra        +0x22 /* 0000319E */
label0000317E:
0000317E  7001                     moveq.l    D0, 0x01
00003180  D047                     add.w      D0, D7
00003182  3F00                     move.w     -[A7], D0
00003184  3F3C 000A                move.w     -[A7], 0xA /* '\n' */
00003188  4EAD 03F2                jsr        [A5 + 0x3F2 /* export_122, CODE:2 @ 00003D58 */]
0000318C  7005                     moveq.l    D0, 0x05
0000318E  D047                     add.w      D0, D7
00003190  3E80                     move.w     [A7], D0
00003192  3F3C 000A                move.w     -[A7], 0xA /* '\n' */
00003196  4EAD 03F2                jsr        [A5 + 0x3F2 /* export_122, CODE:2 @ 00003D58 */]
0000319A  5C8F                     addq.l     A7, 6
0000319C  5247                     addq.w     D7, 1
label0000319E:
0000319E  0C47 0003                cmpi.w     D7, 0x3
000031A2  6DDA                     blt        -0x24 /* 0000317E */
000031A4  2F3C 000A 0004           move.l     -[A7], 0xA0004
000031AA  4EAD 03E2                jsr        [A5 + 0x3E2 /* export_120, CODE:2 @ 00003CEE */]
000031AE  4A80                     tst.l      D0
000031B0  588F                     addq.l     A7, 4
000031B2  6614                     bne        +0x16 /* 000031C8 */
000031B4  42A7                     clr.l      -[A7]
000031B6  2F3C 0050 000D           move.l     -[A7], 0x50000D /* 'P\0\r' */
000031BC  3F3C 0003                move.w     -[A7], 0x3
000031C0  4EBA 0050                jsr        [PC + 0x50 /* 00003212 */]
000031C4  4FEF 000A                lea.l      A7, [A7 + 0xA]
label000031C8:
000031C8  2F3C 0001 0001           move.l     -[A7], 0x10001
000031CE  302E 000E                move.w     D0, [A6 + 0xE]
000031D2  906E 000A                sub.w      D0, [A6 + 0xA]
000031D6  3F00                     move.w     -[A7], D0
000031D8  3F2E 000A                move.w     -[A7], [A6 + 0xA]
000031DC  4267                     clr.w      -[A7]
000031DE  4EBA 0032                jsr        [PC + 0x32 /* 00003212 */]
000031E2  4297                     clr.l      [A7]
000031E4  3F2E 000A                move.w     -[A7], [A6 + 0xA]
000031E8  2F3C 0001 0000           move.l     -[A7], 0x10000
000031EE  4EBA 0022                jsr        [PC + 0x22 /* 00003212 */]
000031F2  4297                     clr.l      [A7]
000031F4  303C 00C8                move.w     D0, 0xC8
000031F8  906E 000E                sub.w      D0, [A6 + 0xE]
000031FC  3F00                     move.w     -[A7], D0
000031FE  3F2E 000E                move.w     -[A7], [A6 + 0xE]
00003202  3F3C 0002                move.w     -[A7], 0x2
00003206  4EBA 000A                jsr        [PC + 0xA /* 00003212 */]
0000320A  2E2E FFF8                move.l     D7, [A6 - 0x8]
0000320E  4E5E                     unlink     A6
00003210  4E75                     rts
fn00003212:
00003212  4E56 FFFE                link       A6, -0x0002
00003216  48E7 0738                movem.l    -[A7], D5,D6,D7,A2,A3,A4
0000321A  3E2E 0008                move.w     D7, [A6 + 0x8]
0000321E  7060                     moveq.l    D0, 0x60
00003220  C1C7                     muls.w     D0, D7
00003222  49ED F28A                lea.l      A4, [A5 - 0xD76]
00003226  D08C                     add.l      D0, A4
00003228  2840                     movea.l    A4, D0
0000322A  4254                     clr.w      [A4]
0000322C  7060                     moveq.l    D0, 0x60
0000322E  C1C7                     muls.w     D0, D7
00003230  47ED F28E                lea.l      A3, [A5 - 0xD72]
00003234  D08B                     add.l      D0, A3
00003236  2640                     movea.l    A3, D0
00003238  36BC 0140                move.w     [A3], 0x140
0000323C  396E 000A 0002           move.w     [A4 + 0x2], [A6 + 0xA]
00003242  7060                     moveq.l    D0, 0x60
00003244  C1C7                     muls.w     D0, D7
00003246  45ED F290                lea.l      A2, [A5 - 0xD70]
0000324A  D08A                     add.l      D0, A2
0000324C  2440                     movea.l    A2, D0
0000324E  34AE 000C                move.w     [A2], [A6 + 0xC]
00003252  196E 000F 000A           move.b     [A4 + 0xA], [A6 + 0xF]
00003258  196E 0011 000B           move.b     [A4 + 0xB], [A6 + 0x11]
0000325E  426C 000C                clr.w      [A4 + 0xC]
00003262  7060                     moveq.l    D0, 0x60
00003264  C1C7                     muls.w     D0, D7
00003266  49ED F292                lea.l      A4, [A5 - 0xD6E]
0000326A  D08C                     add.l      D0, A4
0000326C  2840                     movea.l    A4, D0
0000326E  3013                     move.w     D0, [A3]
00003270  C0D2                     mulu.w     D0, [A2]
00003272  3880                     move.w     [A4], D0
00003274  3C14                     move.w     D6, [A4]
00003276  4A6E 0010                tst.w      [A6 + 0x10]
0000327A  6704                     beq        +0x6 /* 00003280 */
0000327C  0646 0500                addi.w     D6, 0x500
label00003280:
00003280  7A00                     moveq.l    D5, 0x00
00003282  3A06                     move.w     D5, D6
00003284  2F05                     move.l     -[A7], D5
00003286  7001                     moveq.l    D0, 0x01
00003288  D047                     add.w      D0, D7
0000328A  3F00                     move.w     -[A7], D0
0000328C  3F3C 000A                move.w     -[A7], 0xA /* '\n' */
00003290  4EAD 03EA                jsr        [A5 + 0x3EA /* export_121, CODE:2 @ 00003D92 */]
00003294  2840                     movea.l    A4, D0
00003296  3E86                     move.w     [A7], D6
00003298  4227                     clr.b      -[A7]
0000329A  2F0C                     move.l     -[A7], A4
0000329C  4EAD 0C02                jsr        [A5 + 0xC02 /* export_380, CODE:6 @ 000000F6 */]
000032A0  4A6E 000E                tst.w      [A6 + 0xE]
000032A4  4FEF 000E                lea.l      A7, [A7 + 0xE]
000032A8  6722                     beq        +0x24 /* 000032CC */
000032AA  2F05                     move.l     -[A7], D5
000032AC  7005                     moveq.l    D0, 0x05
000032AE  D047                     add.w      D0, D7
000032B0  3F00                     move.w     -[A7], D0
000032B2  3F3C 000A                move.w     -[A7], 0xA /* '\n' */
000032B6  4EAD 03EA                jsr        [A5 + 0x3EA /* export_121, CODE:2 @ 00003D92 */]
000032BA  2840                     movea.l    A4, D0
000032BC  3E86                     move.w     [A7], D6
000032BE  1F3C 0023                move.b     -[A7], 0x23 /* '#' */
000032C2  2F0C                     move.l     -[A7], A4
000032C4  4EAD 0C02                jsr        [A5 + 0xC02 /* export_380, CODE:6 @ 000000F6 */]
000032C8  4FEF 000E                lea.l      A7, [A7 + 0xE]
label000032CC:
000032CC  3F2E 000C                move.w     -[A7], [A6 + 0xC]
000032D0  4267                     clr.w      -[A7]
000032D2  3F07                     move.w     -[A7], D7
000032D4  4EBA 000C                jsr        [PC + 0xC /* 000032E2 */]
000032D8  4CEE 1CE0 FFE6           movem.l    D5,D6,D7,A2,A3,A4, [A6 - 0x1A]
000032DE  4E5E                     unlink     A6
000032E0  4E75                     rts
export_195:
fn000032E2:
000032E2  4E56 0000                link       A6, 0
000032E6  48E7 0108                movem.l    -[A7], D7,A4
000032EA  7E00                     moveq.l    D7, 0x00
000032EC  601C                     bra        +0x1E /* 0000330A */
label000032EE:
000032EE  7060                     moveq.l    D0, 0x60
000032F0  C1EE 0008                muls.w     D0, [A6 + 0x8]
000032F4  49ED F28A                lea.l      A4, [A5 - 0xD76]
000032F8  D08C                     add.l      D0, A4
000032FA  2840                     movea.l    A4, D0
000032FC  19AE 000B 700E           move.b     [A4 + D7.w + 0xE], [A6 + 0xB]
00003302  19AE 000D 7036           move.b     [A4 + D7.w + 0x36], [A6 + 0xD]
00003308  5247                     addq.w     D7, 1
label0000330A:
0000330A  0C47 0028                cmpi.w     D7, 0x28 /* '(' */
0000330E  6DDE                     blt        -0x20 /* 000032EE */
00003310  4CDF 1080                movem.l    D7,A4, [A7]+
00003314  4E5E                     unlink     A6
00003316  4E75                     rts
export_196:
00003318  4E56 0000                link       A6, 0
0000331C  48E7 0308                movem.l    -[A7], D6,D7,A4
00003320  3B7C FFFF F286           move.w     [A5 - 0xD7A], 0xFFFF
00003326  7E00                     moveq.l    D7, 0x00
00003328  49ED F28A                lea.l      A4, [A5 - 0xD76]
0000332C  6022                     bra        +0x24 /* 00003350 */
label0000332E:
0000332E  3C2C 0002                move.w     D6, [A4 + 0x2]
00003332  BC6E 0008                cmp.w      D6, [A6 + 0x8]
00003336  6212                     bhi        +0x14 /* 0000334A */
00003338  302C 0006                move.w     D0, [A4 + 0x6]
0000333C  D046                     add.w      D0, D6
0000333E  B06E 0008                cmp.w      D0, [A6 + 0x8]
00003342  6306                     bls        +0x8 /* 0000334A */
00003344  3B47 F286                move.w     [A5 - 0xD7A], D7
00003348  600C                     bra        +0xE /* 00003356 */
label0000334A:
0000334A  5247                     addq.w     D7, 1
0000334C  49EC 0060                lea.l      A4, [A4 + 0x60]
label00003350:
00003350  0C47 0003                cmpi.w     D7, 0x3
00003354  6DD8                     blt        -0x26 /* 0000332E */
label00003356:
00003356  4A2D F288                tst.b      [A5 - 0xD78]
0000335A  6706                     beq        +0x8 /* 00003362 */
0000335C  3B7C 0003 F286           move.w     [A5 - 0xD7A], 0x3
label00003362:
00003362  302D F286                move.w     D0, [A5 - 0xD7A]
00003366  4CDF 10C0                movem.l    D6,D7,A4, [A7]+
0000336A  4E5E                     unlink     A6
0000336C  4E75                     rts
fn0000336E:
0000336E  48E7 0318                movem.l    -[A7], D6,D7,A3,A4
00003372  7E00                     moveq.l    D7, 0x00
00003374  6062                     bra        +0x64 /* 000033D8 */
label00003376:
00003376  7012                     moveq.l    D0, 0x12
00003378  C0C7                     mulu.w     D0, D7
0000337A  49ED C5A5                lea.l      A4, [A5 - 0x3A5B]
0000337E  D08C                     add.l      D0, A4
00003380  2840                     movea.l    A4, D0
00003382  7012                     moveq.l    D0, 0x12
00003384  C0C7                     mulu.w     D0, D7
00003386  47ED C59A                lea.l      A3, [A5 - 0x3A66]
0000338A  D08B                     add.l      D0, A3
0000338C  2640                     movea.l    A3, D0
0000338E  1C14                     move.b     D6, [A4]
00003390  0C06 0001                cmpi.b     D6, 0x1
00003394  6706                     beq        +0x8 /* 0000339C */
00003396  0C06 0004                cmpi.b     D6, 0x4
0000339A  661A                     bne        +0x1C /* 000033B6 */
label0000339C:
0000339C  4A2B 0010                tst.b      [A3 + 0x10]
000033A0  6710                     beq        +0x12 /* 000033B2 */
000033A2  3F2B 0008                move.w     -[A7], [A3 + 0x8]
000033A6  2F3C 0000 062F           move.l     -[A7], 0x62F
000033AC  4EAD 0A42                jsr        [A5 + 0xA42 /* export_324, CODE:5 @ 000034B4 */]
000033B0  5C8F                     addq.l     A7, 6
label000033B2:
000033B2  422B 000A                clr.b      [A3 + 0xA]
label000033B6:
000033B6  0C14 0003                cmpi.b     [A4], 0x3
000033BA  661A                     bne        +0x1C /* 000033D6 */
000033BC  4A2B 0010                tst.b      [A3 + 0x10]
000033C0  6710                     beq        +0x12 /* 000033D2 */
000033C2  3F2B 0008                move.w     -[A7], [A3 + 0x8]
000033C6  2F3C 0000 0667           move.l     -[A7], 0x667
000033CC  4EAD 0A42                jsr        [A5 + 0xA42 /* export_324, CODE:5 @ 000034B4 */]
000033D0  5C8F                     addq.l     A7, 6
label000033D2:
000033D2  422B 000A                clr.b      [A3 + 0xA]
label000033D6:
000033D6  5247                     addq.w     D7, 1
label000033D8:
000033D8  0C47 0014                cmpi.w     D7, 0x14
000033DC  6598                     bcs        -0x66 /* 00003376 */
000033DE  7E00                     moveq.l    D7, 0x00
000033E0  6022                     bra        +0x24 /* 00003404 */
label000033E2:
000033E2  7018                     moveq.l    D0, 0x18
000033E4  C0C7                     mulu.w     D0, D7
000033E6  49ED B2F0                lea.l      A4, [A5 - 0x4D10]
000033EA  D08C                     add.l      D0, A4
000033EC  2840                     movea.l    A4, D0
000033EE  4A14                     tst.b      [A4]
000033F0  6710                     beq        +0x12 /* 00003402 */
000033F2  7000                     moveq.l    D0, 0x00
000033F4  1014                     move.b     D0, [A4]
000033F6  3F00                     move.w     -[A7], D0
000033F8  3F3C 000D                move.w     -[A7], 0xD /* '\r' */
000033FC  4EAD 03F2                jsr        [A5 + 0x3F2 /* export_122, CODE:2 @ 00003D58 */]
00003400  588F                     addq.l     A7, 4
label00003402:
00003402  5247                     addq.w     D7, 1
label00003404:
00003404  7000                     moveq.l    D0, 0x00
00003406  102D B2D8                move.b     D0, [A5 - 0x4D28]
0000340A  B047                     cmp.w      D0, D7
0000340C  64D4                     bcc        -0x2A /* 000033E2 */
0000340E  4CDF 18C0                movem.l    D6,D7,A3,A4, [A7]+
00003412  4E75                     rts
export_197:
00003414  4E56 0000                link       A6, 0
00003418  48E7 0308                movem.l    -[A7], D6,D7,A4
0000341C  3C2E 0008                move.w     D6, [A6 + 0x8]
00003420  4EAD 03D2                jsr        [A5 + 0x3D2 /* export_118, CODE:2 @ 00003ABC */]
00003424  7000                     moveq.l    D0, 0x00
00003426  102D EDCE                move.b     D0, [A5 - 0x1232]
0000342A  3F00                     move.w     -[A7], D0
0000342C  4EBA D160                jsr        [PC - 0x2EA0 /* 0000058E */]
00003430  1B6D EDCC EDCD           move.b     [A5 - 0x1233], [A5 - 0x1234]
00003436  0C2D 00FF C702           cmpi.b     [A5 - 0x38FE], 0xFF
0000343C  548F                     addq.l     A7, 2
0000343E  6774                     beq        +0x76 /* 000034B4 */
00003440  7000                     moveq.l    D0, 0x00
00003442  102D C702                move.b     D0, [A5 - 0x38FE]
00003446  C1FC 0012                muls.w     D0, 0x12
0000344A  49ED C59A                lea.l      A4, [A5 - 0x3A66]
0000344E  D08C                     add.l      D0, A4
00003450  2840                     movea.l    A4, D0
00003452  1E2C 000B                move.b     D7, [A4 + 0xB]
00003456  0C07 0001                cmpi.b     D7, 0x1
0000345A  6706                     beq        +0x8 /* 00003462 */
0000345C  0C07 0004                cmpi.b     D7, 0x4
00003460  661C                     bne        +0x1E /* 0000347E */
label00003462:
00003462  4A2C 0010                tst.b      [A4 + 0x10]
00003466  6710                     beq        +0x12 /* 00003478 */
00003468  3F2C 0008                move.w     -[A7], [A4 + 0x8]
0000346C  2F3C 0000 069F           move.l     -[A7], 0x69F
00003472  4EAD 0A42                jsr        [A5 + 0xA42 /* export_324, CODE:5 @ 000034B4 */]
00003476  5C8F                     addq.l     A7, 6
label00003478:
00003478  1B7C 00FF C702           move.b     [A5 - 0x38FE], 0xFF
label0000347E:
0000347E  7000                     moveq.l    D0, 0x00
00003480  102D C702                move.b     D0, [A5 - 0x38FE]
00003484  C1FC 0012                muls.w     D0, 0x12
00003488  49ED C59A                lea.l      A4, [A5 - 0x3A66]
0000348C  D08C                     add.l      D0, A4
0000348E  2840                     movea.l    A4, D0
00003490  0C2C 0003 000B           cmpi.b     [A4 + 0xB], 0x3
00003496  661C                     bne        +0x1E /* 000034B4 */
00003498  4A2C 0010                tst.b      [A4 + 0x10]
0000349C  6710                     beq        +0x12 /* 000034AE */
0000349E  3F2C 0008                move.w     -[A7], [A4 + 0x8]
000034A2  2F3C 0000 06D7           move.l     -[A7], 0x6D7
000034A8  4EAD 0A42                jsr        [A5 + 0xA42 /* export_324, CODE:5 @ 000034B4 */]
000034AC  5C8F                     addq.l     A7, 6
label000034AE:
000034AE  1B7C 00FF C702           move.b     [A5 - 0x38FE], 0xFF
label000034B4:
000034B4  4EBA 07AC                jsr        [PC + 0x7AC /* 00003C62 */]
000034B8  4EBA FEB4                jsr        [PC - 0x14C /* 0000336E */]
000034BC  4EAD 0A92                jsr        [A5 + 0xA92 /* export_334, CODE:5 @ 00003830 */]
000034C0  4267                     clr.w      -[A7]
000034C2  4EBA E5D8                jsr        [PC - 0x1A28 /* 00001A9C */]
000034C6  7E01                     moveq.l    D7, 0x01
000034C8  548F                     addq.l     A7, 2
000034CA  6012                     bra        +0x14 /* 000034DE */
label000034CC:
000034CC  4A35 7120 D648           tst.b      [A5 - 0x29B8 + D7]
000034D2  6708                     beq        +0xA /* 000034DC */
000034D4  3F07                     move.w     -[A7], D7
000034D6  4EAD 04DA                jsr        [A5 + 0x4DA /* export_151, CODE:2 @ 00000388 */]
000034DA  548F                     addq.l     A7, 2
label000034DC:
000034DC  5247                     addq.w     D7, 1
label000034DE:
000034DE  0C47 000D                cmpi.w     D7, 0xD /* '\r' */
000034E2  6DE8                     blt        -0x16 /* 000034CC */
000034E4  7E00                     moveq.l    D7, 0x00
000034E6  6008                     bra        +0xA /* 000034F0 */
label000034E8:
000034E8  1B87 7120 F7EE           move.b     [A5 - 0x812 + D7], D7
000034EE  5247                     addq.w     D7, 1
label000034F0:
000034F0  0C47 0100                cmpi.w     D7, 0x100
000034F4  6DF2                     blt        -0xC /* 000034E8 */
000034F6  4EAD 07D2                jsr        [A5 + 0x7D2 /* export_246, CODE:4 @ 000068A8 */]
000034FA  3B46 C934                move.w     [A5 - 0x36CC], D6
000034FE  3B7C 0001 F724           move.w     [A5 - 0x8DC], 0x1
00003504  1B7C 00FF B2D6           move.b     [A5 - 0x4D2A], 0xFF
0000350A  1B7C 00FF B2D7           move.b     [A5 - 0x4D29], 0xFF
00003510  4EAD 040A                jsr        [A5 + 0x40A /* export_125, CODE:2 @ 00003F34 */]
00003514  4A46                     tst.w      D6
00003516  670C                     beq        +0xE /* 00003524 */
00003518  3F06                     move.w     -[A7], D6
0000351A  3F3C 0001                move.w     -[A7], 0x1
0000351E  4EBA 0EF8                jsr        [PC + 0xEF8 /* 00004418 */]
00003522  588F                     addq.l     A7, 4
label00003524:
00003524  1B46 B2D6                move.b     [A5 - 0x4D2A], D6
00003528  3B46 C934                move.w     [A5 - 0x36CC], D6
0000352C  0C46 007F                cmpi.w     D6, 0x7F
00003530  6312                     bls        +0x14 /* 00003544 */
00003532  707F                     moveq.l    D0, 0x7F
00003534  C046                     and.w      D0, D6
00003536  7200                     moveq.l    D1, 0x00
00003538  3200                     move.w     D1, D0
0000353A  1B75 1920 D316 B2D7      move.b     [A5 - 0x4D29], [A5 - 0x2CEA + D1]
00003542  6004                     bra        +0x6 /* 00003548 */
label00003544:
00003544  1B46 B2D7                move.b     [A5 - 0x4D29], D6
label00003548:
00003548  7000                     moveq.l    D0, 0x00
0000354A  102D B2D7                move.b     D0, [A5 - 0x4D29]
0000354E  3B40 C958                move.w     [A5 - 0x36A8], D0
00003552  4A2D B2D6                tst.b      [A5 - 0x4D2A]
00003556  660E                     bne        +0x10 /* 00003566 */
00003558  42AD B2BA                clr.l      [A5 - 0x4D46]
0000355C  42AD B2BE                clr.l      [A5 - 0x4D42]
00003560  422D B2D8                clr.b      [A5 - 0x4D28]
00003564  6050                     bra        +0x52 /* 000035B6 */
label00003566:
00003566  4EBA 0058                jsr        [PC + 0x58 /* 000035C0 */]
0000356A  4EBA 0438                jsr        [PC + 0x438 /* 000039A4 */]
0000356E  1B7C 0003 ECD6           move.b     [A5 - 0x132A], 0x3
00003574  3B7C 00A0 ECD8           move.w     [A5 - 0x1328], 0xA0
0000357A  3B7C 00A0 EC9E           move.w     [A5 - 0x1362], 0xA0
00003580  4A2D B2D7                tst.b      [A5 - 0x4D29]
00003584  6730                     beq        +0x32 /* 000035B6 */
00003586  302D B2B6                move.w     D0, [A5 - 0x4D4A]
0000358A  E748                     lsl        D0.w, 3
0000358C  0640 FF60                addi.w     D0, 0xFF60
00003590  3B40 C950                move.w     [A5 - 0x36B0], D0
00003594  3B7C 00A0 C94E           move.w     [A5 - 0x36B2], 0xA0
0000359A  4878 0140                push.l     0x140
0000359E  4267                     clr.w      -[A7]
000035A0  486D EDFA                pea.l      [A5 - 0x1206]
000035A4  4EAD 0CAA                jsr        [A5 + 0xCAA /* export_401, CODE:7 @ 00003152 */]
000035A8  4EBA 03D0                jsr        [PC + 0x3D0 /* 0000397A */]
000035AC  4EBA 063C                jsr        [PC + 0x63C /* 00003BEA */]
000035B0  3B7C 0001 EDCA           move.w     [A5 - 0x1236], 0x1
label000035B6:
000035B6  4CEE 10C0 FFF4           movem.l    D6,D7,A4, [A6 - 0xC]
000035BC  4E5E                     unlink     A6
000035BE  4E75                     rts
fn000035C0:
000035C0  48E7 1F18                movem.l    -[A7], D3,D4,D5,D6,D7,A3,A4
000035C4  42AD B2BE                clr.l      [A5 - 0x4D42]
000035C8  42AD B2BA                clr.l      [A5 - 0x4D46]
000035CC  2F3C 000E 0001           move.l     -[A7], 0xE0001
000035D2  4EAD 03F2                jsr        [A5 + 0x3F2 /* export_122, CODE:2 @ 00003D58 */]
000035D6  2EBC 000E 0002           move.l     [A7], 0xE0002
000035DC  4EAD 03F2                jsr        [A5 + 0x3F2 /* export_122, CODE:2 @ 00003D58 */]
000035E0  7E01                     moveq.l    D7, 0x01
000035E2  588F                     addq.l     A7, 4
000035E4  600E                     bra        +0x10 /* 000035F4 */
label000035E6:
000035E6  3F07                     move.w     -[A7], D7
000035E8  3F3C 000B                move.w     -[A7], 0xB
000035EC  4EAD 03F2                jsr        [A5 + 0x3F2 /* export_122, CODE:2 @ 00003D58 */]
000035F0  588F                     addq.l     A7, 4
000035F2  5247                     addq.w     D7, 1
label000035F4:
000035F4  BE6D B11C                cmp.w      D7, [A5 - 0x4EE4]
000035F8  6DEC                     blt        -0x12 /* 000035E6 */
000035FA  7000                     moveq.l    D0, 0x00
000035FC  102D B2D7                move.b     D0, [A5 - 0x4D29]
00003600  3F00                     move.w     -[A7], D0
00003602  3F3C 0001                move.w     -[A7], 0x1
00003606  4EAD 03E2                jsr        [A5 + 0x3E2 /* export_120, CODE:2 @ 00003CEE */]
0000360A  2B40 ECC0                move.l     [A5 - 0x1340], D0
0000360E  2E80                     move.l     [A7], D0
00003610  2F3C 4448 4D52           move.l     -[A7], 0x44484D52 /* 'DHMR' */
00003616  4EBA D3E2                jsr        [PC - 0x2C1E /* 000009FA */]
0000361A  2840                     movea.l    A4, D0
0000361C  486C 0008                pea.l      [A4 + 0x8]
00003620  4EAD 0BF2                jsr        [A5 + 0xBF2 /* export_378, CODE:6 @ 0000005C */]
00003624  E648                     lsr        D0.w, 3
00003626  3B40 B2B6                move.w     [A5 - 0x4D4A], D0
0000362A  486C 000A                pea.l      [A4 + 0xA]
0000362E  4EAD 0BF2                jsr        [A5 + 0xBF2 /* export_378, CODE:6 @ 0000005C */]
00003632  3B40 B2B8                move.w     [A5 - 0x4D48], D0
00003636  2EAD ECC0                move.l     [A7], [A5 - 0x1340]
0000363A  2F3C 4D49 4D52           move.l     -[A7], 0x4D494D52 /* 'MIMR' */
00003640  4EBA D3B8                jsr        [PC - 0x2C48 /* 000009FA */]
00003644  2840                     movea.l    A4, D0
00003646  2E8C                     move.l     [A7], A4
00003648  2F3C 3030 4D49           move.l     -[A7], 0x30304D49 /* '00MI' */
0000364E  4EBA D3AA                jsr        [PC - 0x2C56 /* 000009FA */]
00003652  2840                     movea.l    A4, D0
00003654  200C                     move.l     D0, A4
00003656  90AD ECC0                sub.l      D0, [A5 - 0x1340]
0000365A  2B40 B2C2                move.l     [A5 - 0x4D3E], D0
0000365E  2EAD ECC0                move.l     [A7], [A5 - 0x1340]
00003662  2F3C 4443 5845           move.l     -[A7], 0x44435845 /* 'DCXE' */
00003668  4EBA D390                jsr        [PC - 0x2C70 /* 000009FA */]
0000366C  2840                     movea.l    A4, D0
0000366E  200C                     move.l     D0, A4
00003670  4FEF 001C                lea.l      A7, [A7 + 0x1C]
00003674  670A                     beq        +0xC /* 00003680 */
00003676  200C                     move.l     D0, A4
00003678  90AD ECC0                sub.l      D0, [A5 - 0x1340]
0000367C  2B40 B2BA                move.l     [A5 - 0x4D46], D0
label00003680:
00003680  2F2D ECC0                move.l     -[A7], [A5 - 0x1340]
00003684  2F3C 4443 4E45           move.l     -[A7], 0x44434E45 /* 'DCNE' */
0000368A  4EBA D36E                jsr        [PC - 0x2C92 /* 000009FA */]
0000368E  2840                     movea.l    A4, D0
00003690  200C                     move.l     D0, A4
00003692  508F                     addq.l     A7, 8
00003694  670A                     beq        +0xC /* 000036A0 */
00003696  200C                     move.l     D0, A4
00003698  90AD ECC0                sub.l      D0, [A5 - 0x1340]
0000369C  2B40 B2BE                move.l     [A5 - 0x4D42], D0
label000036A0:
000036A0  2F2D ECC0                move.l     -[A7], [A5 - 0x1340]
000036A4  2F3C 4458 4F42           move.l     -[A7], 0x44584F42 /* 'DXOB' */
000036AA  4EBA D34E                jsr        [PC - 0x2CB2 /* 000009FA */]
000036AE  2840                     movea.l    A4, D0
000036B0  200C                     move.l     D0, A4
000036B2  508F                     addq.l     A7, 8
000036B4  674C                     beq        +0x4E /* 00003702 */
000036B6  2E2C 0004                move.l     D7, [A4 + 0x4]
000036BA  2F07                     move.l     -[A7], D7
000036BC  2F3C 000E 0002           move.l     -[A7], 0xE0002
000036C2  4EAD 03EA                jsr        [A5 + 0x3EA /* export_121, CODE:2 @ 00003D92 */]
000036C6  7000                     moveq.l    D0, 0x00
000036C8  102D B2D7                move.b     D0, [A5 - 0x4D29]
000036CC  3E80                     move.w     [A7], D0
000036CE  3F3C 0001                move.w     -[A7], 0x1
000036D2  4EAD 03E2                jsr        [A5 + 0x3E2 /* export_120, CODE:2 @ 00003CEE */]
000036D6  2B40 ECC0                move.l     [A5 - 0x1340], D0
000036DA  2E80                     move.l     [A7], D0
000036DC  2F3C 4458 4F42           move.l     -[A7], 0x44584F42 /* 'DXOB' */
000036E2  4EBA D316                jsr        [PC - 0x2CEA /* 000009FA */]
000036E6  2840                     movea.l    A4, D0
000036E8  2EBC 000E 0002           move.l     [A7], 0xE0002
000036EE  4EAD 03E2                jsr        [A5 + 0x3E2 /* export_120, CODE:2 @ 00003CEE */]
000036F2  2640                     movea.l    A3, D0
000036F4  3E87                     move.w     [A7], D7
000036F6  2F0C                     move.l     -[A7], A4
000036F8  2F0B                     move.l     -[A7], A3
000036FA  4EAD 0C0A                jsr        [A5 + 0xC0A /* export_381, CODE:6 @ 0000011E */]
000036FE  4FEF 0016                lea.l      A7, [A7 + 0x16]
label00003702:
00003702  2F2D ECC0                move.l     -[A7], [A5 - 0x1340]
00003706  2F3C 4D58 4F42           move.l     -[A7], 0x4D584F42 /* 'MXOB' */
0000370C  4EBA D2EC                jsr        [PC - 0x2D14 /* 000009FA */]
00003710  2840                     movea.l    A4, D0
00003712  200C                     move.l     D0, A4
00003714  508F                     addq.l     A7, 8
00003716  674C                     beq        +0x4E /* 00003764 */
00003718  2E2C 0004                move.l     D7, [A4 + 0x4]
0000371C  2F07                     move.l     -[A7], D7
0000371E  2F3C 000E 0001           move.l     -[A7], 0xE0001
00003724  4EAD 03EA                jsr        [A5 + 0x3EA /* export_121, CODE:2 @ 00003D92 */]
00003728  7000                     moveq.l    D0, 0x00
0000372A  102D B2D7                move.b     D0, [A5 - 0x4D29]
0000372E  3E80                     move.w     [A7], D0
00003730  3F3C 0001                move.w     -[A7], 0x1
00003734  4EAD 03E2                jsr        [A5 + 0x3E2 /* export_120, CODE:2 @ 00003CEE */]
00003738  2B40 ECC0                move.l     [A5 - 0x1340], D0
0000373C  2E80                     move.l     [A7], D0
0000373E  2F3C 4D58 4F42           move.l     -[A7], 0x4D584F42 /* 'MXOB' */
00003744  4EBA D2B4                jsr        [PC - 0x2D4C /* 000009FA */]
00003748  2840                     movea.l    A4, D0
0000374A  2EBC 000E 0001           move.l     [A7], 0xE0001
00003750  4EAD 03E2                jsr        [A5 + 0x3E2 /* export_120, CODE:2 @ 00003CEE */]
00003754  2640                     movea.l    A3, D0
00003756  3E87                     move.w     [A7], D7
00003758  2F0C                     move.l     -[A7], A4
0000375A  2F0B                     move.l     -[A7], A3
0000375C  4EAD 0C0A                jsr        [A5 + 0xC0A /* export_381, CODE:6 @ 0000011E */]
00003760  4FEF 0016                lea.l      A7, [A7 + 0x16]
label00003764:
00003764  2F2D ECC0                move.l     -[A7], [A5 - 0x1340]
00003768  2F3C 4C41 4353           move.l     -[A7], 0x4C414353 /* 'LACS' */
0000376E  4EBA D28A                jsr        [PC - 0x2D76 /* 000009FA */]
00003772  2840                     movea.l    A4, D0
00003774  200C                     move.l     D0, A4
00003776  508F                     addq.l     A7, 8
00003778  6770                     beq        +0x72 /* 000037EA */
0000377A  7E01                     moveq.l    D7, 0x01
0000377C  6066                     bra        +0x68 /* 000037E4 */
label0000377E:
0000377E  486C 0008                pea.l      [A4 + 0x8]
00003782  4EAD 0BF2                jsr        [A5 + 0xBF2 /* export_378, CODE:6 @ 0000005C */]
00003786  3C00                     move.w     D6, D0
00003788  486C 000A                pea.l      [A4 + 0xA]
0000378C  4EAD 0BF2                jsr        [A5 + 0xBF2 /* export_378, CODE:6 @ 0000005C */]
00003790  3A00                     move.w     D5, D0
00003792  486C 000C                pea.l      [A4 + 0xC]
00003796  4EAD 0BF2                jsr        [A5 + 0xBF2 /* export_378, CODE:6 @ 0000005C */]
0000379A  3800                     move.w     D4, D0
0000379C  486C 000E                pea.l      [A4 + 0xE]
000037A0  4EAD 0BF2                jsr        [A5 + 0xBF2 /* export_378, CODE:6 @ 0000005C */]
000037A4  3600                     move.w     D3, D0
000037A6  4A46                     tst.w      D6
000037A8  4FEF 0010                lea.l      A7, [A7 + 0x10]
000037AC  660C                     bne        +0xE /* 000037BA */
000037AE  4A45                     tst.w      D5
000037B0  6608                     bne        +0xA /* 000037BA */
000037B2  4A44                     tst.w      D4
000037B4  6604                     bne        +0x6 /* 000037BA */
000037B6  4A43                     tst.w      D3
000037B8  6726                     beq        +0x28 /* 000037E0 */
label000037BA:
000037BA  3F04                     move.w     -[A7], D4
000037BC  3F03                     move.w     -[A7], D3
000037BE  3F06                     move.w     -[A7], D6
000037C0  3F05                     move.w     -[A7], D5
000037C2  3F07                     move.w     -[A7], D7
000037C4  4EAD 0802                jsr        [A5 + 0x802 /* export_252, CODE:4 @ 00006E64 */]
000037C8  7000                     moveq.l    D0, 0x00
000037CA  102D B2D7                move.b     D0, [A5 - 0x4D29]
000037CE  3E80                     move.w     [A7], D0
000037D0  3F3C 0001                move.w     -[A7], 0x1
000037D4  4EAD 03E2                jsr        [A5 + 0x3E2 /* export_120, CODE:2 @ 00003CEE */]
000037D8  2B40 ECC0                move.l     [A5 - 0x1340], D0
000037DC  4FEF 000C                lea.l      A7, [A7 + 0xC]
label000037E0:
000037E0  508C                     addq.l     A4, 8
000037E2  5247                     addq.w     D7, 1
label000037E4:
000037E4  BE6D B11C                cmp.w      D7, [A5 - 0x4EE4]
000037E8  6D94                     blt        -0x6A /* 0000377E */
label000037EA:
000037EA  7C00                     moveq.l    D6, 0x00
000037EC  1C2D EC8E                move.b     D6, [A5 - 0x1372]
000037F0  3E06                     move.w     D7, D6
000037F2  600C                     bra        +0xE /* 00003800 */
label000037F4:
000037F4  3007                     move.w     D0, D7
000037F6  9046                     sub.w      D0, D6
000037F8  42B5 0520 C83E           clr.l      [A5 - 0x37C2 + D0 * 4]
000037FE  5247                     addq.w     D7, 1
label00003800:
00003800  0C47 0100                cmpi.w     D7, 0x100
00003804  6DEE                     blt        -0x10 /* 000037F4 */
00003806  7000                     moveq.l    D0, 0x00
00003808  102D B2D7                move.b     D0, [A5 - 0x4D29]
0000380C  3F00                     move.w     -[A7], D0
0000380E  3F3C 0001                move.w     -[A7], 0x1
00003812  4EAD 03E2                jsr        [A5 + 0x3E2 /* export_120, CODE:2 @ 00003CEE */]
00003816  2B40 ECC0                move.l     [A5 - 0x1340], D0
0000381A  2E80                     move.l     [A7], D0
0000381C  2F3C 5243 534C           move.l     -[A7], 0x5243534C /* 'RCSL' */
00003822  4EBA D1D6                jsr        [PC - 0x2E2A /* 000009FA */]
00003826  2840                     movea.l    A4, D0
00003828  508F                     addq.l     A7, 8
0000382A  602A                     bra        +0x2C /* 00003856 */
label0000382C:
0000382C  200C                     move.l     D0, A4
0000382E  90AD ECC0                sub.l      D0, [A5 - 0x1340]
00003832  7200                     moveq.l    D1, 0x00
00003834  122D EC8E                move.b     D1, [A5 - 0x1372]
00003838  7400                     moveq.l    D2, 0x00
0000383A  142C 0008                move.b     D2, [A4 + 0x8]
0000383E  9441                     sub.w      D2, D1
00003840  2B80 2520 C83E           move.l     [A5 - 0x37C2 + D2 * 4], D0
00003846  42A7                     clr.l      -[A7]
00003848  2F3C 5243 534C           move.l     -[A7], 0x5243534C /* 'RCSL' */
0000384E  4EBA D1AA                jsr        [PC - 0x2E56 /* 000009FA */]
00003852  2840                     movea.l    A4, D0
00003854  508F                     addq.l     A7, 8
label00003856:
00003856  200C                     move.l     D0, A4
00003858  66D2                     bne        -0x2C /* 0000382C */
0000385A  2F2D ECC0                move.l     -[A7], [A5 - 0x1340]
0000385E  2F3C 5455 4C43           move.l     -[A7], 0x54554C43 /* 'TULC' */
00003864  4EBA D194                jsr        [PC - 0x2E6C /* 000009FA */]
00003868  2840                     movea.l    A4, D0
0000386A  200C                     move.l     D0, A4
0000386C  90AD ECC0                sub.l      D0, [A5 - 0x1340]
00003870  2B40 B2CA                move.l     [A5 - 0x4D36], D0
00003874  2EAD ECC0                move.l     [A7], [A5 - 0x1340]
00003878  2F3C 4C41 5045           move.l     -[A7], 0x4C415045 /* 'LAPE' */
0000387E  4EBA D17A                jsr        [PC - 0x2E86 /* 000009FA */]
00003882  2840                     movea.l    A4, D0
00003884  200C                     move.l     D0, A4
00003886  4FEF 000C                lea.l      A7, [A7 + 0xC]
0000388A  670A                     beq        +0xC /* 00003896 */
0000388C  200C                     move.l     D0, A4
0000388E  90AD ECC0                sub.l      D0, [A5 - 0x1340]
00003892  2B40 B2CE                move.l     [A5 - 0x4D32], D0
label00003896:
00003896  4EAD 08DA                jsr        [A5 + 0x8DA /* export_279, CODE:4 @ 0000249A */]
0000389A  4EBA DE02                jsr        [PC - 0x21FE /* 0000169E */]
0000389E  2F2D ECC0                move.l     -[A7], [A5 - 0x1340]
000038A2  2F3C 4C43 5943           move.l     -[A7], 0x4C435943 /* 'LCYC' */
000038A8  4EBA D150                jsr        [PC - 0x2EB0 /* 000009FA */]
000038AC  2840                     movea.l    A4, D0
000038AE  486C 0008                pea.l      [A4 + 0x8]
000038B2  4EBA E090                jsr        [PC - 0x1F70 /* 00001944 */]
000038B6  2EAD ECC0                move.l     [A7], [A5 - 0x1340]
000038BA  2F3C 534E 5254           move.l     -[A7], 0x534E5254 /* 'SNRT' */
000038C0  4EBA D138                jsr        [PC - 0x2EC8 /* 000009FA */]
000038C4  2840                     movea.l    A4, D0
000038C6  200C                     move.l     D0, A4
000038C8  4FEF 0010                lea.l      A7, [A7 + 0x10]
000038CC  6608                     bne        +0xA /* 000038D6 */
000038CE  1B7C 00FF EF59           move.b     [A5 - 0x10A7], 0xFF
000038D4  6006                     bra        +0x8 /* 000038DC */
label000038D6:
000038D6  1B6C 0008 EF59           move.b     [A5 - 0x10A7], [A4 + 0x8]
label000038DC:
000038DC  4EBA 0008                jsr        [PC + 0x8 /* 000038E6 */]
000038E0  4CDF 18F8                movem.l    D3,D4,D5,D6,D7,A3,A4, [A7]+
000038E4  4E75                     rts
export_198:
fn000038E6:
000038E6  4E56 FFFC                link       A6, -0x0004
000038EA  48E7 0308                movem.l    -[A7], D6,D7,A4
000038EE  7000                     moveq.l    D0, 0x00
000038F0  102D B2D7                move.b     D0, [A5 - 0x4D29]
000038F4  3F00                     move.w     -[A7], D0
000038F6  3F3C 0001                move.w     -[A7], 0x1
000038FA  4EAD 03E2                jsr        [A5 + 0x3E2 /* export_120, CODE:2 @ 00003CEE */]
000038FE  2B40 ECC0                move.l     [A5 - 0x1340], D0
00003902  2E80                     move.l     [A7], D0
00003904  2F3C 4D49 4D52           move.l     -[A7], 0x4D494D52 /* 'MIMR' */
0000390A  4EBA D0EE                jsr        [PC - 0x2F12 /* 000009FA */]
0000390E  2840                     movea.l    A4, D0
00003910  2E8C                     move.l     [A7], A4
00003912  2F3C 4849 4D52           move.l     -[A7], 0x48494D52 /* 'HIMR' */
00003918  4EBA D0E0                jsr        [PC - 0x2F20 /* 000009FA */]
0000391C  2840                     movea.l    A4, D0
0000391E  486C 0008                pea.l      [A4 + 0x8]
00003922  4EAD 0BF2                jsr        [A5 + 0xBF2 /* export_378, CODE:6 @ 0000005C */]
00003926  5240                     addq.w     D0, 1
00003928  3B40 F730                move.w     [A5 - 0x8D0], D0
0000392C  7E28                     moveq.l    D7, 0x28
0000392E  CEED B2B8                mulu.w     D7, [A5 - 0x4D48]
00003932  0647 00A0                addi.w     D7, 0xA0
00003936  C0C7                     mulu.w     D0, D7
00003938  3C00                     move.w     D6, D0
0000393A  7000                     moveq.l    D0, 0x00
0000393C  3006                     move.w     D0, D6
0000393E  2E80                     move.l     [A7], D0
00003940  2F3C 000A 0009           move.l     -[A7], 0xA0009 /* '\n\0\t' */
00003946  4EAD 03EA                jsr        [A5 + 0x3EA /* export_121, CODE:2 @ 00003D92 */]
0000394A  2840                     movea.l    A4, D0
0000394C  3E86                     move.w     [A7], D6
0000394E  4227                     clr.b      -[A7]
00003950  2F0C                     move.l     -[A7], A4
00003952  4EAD 0C02                jsr        [A5 + 0xC02 /* export_380, CODE:6 @ 000000F6 */]
00003956  7C00                     moveq.l    D6, 0x00
00003958  49ED F728                lea.l      A4, [A5 - 0x8D8]
0000395C  4FEF 001A                lea.l      A7, [A7 + 0x1A]
00003960  600A                     bra        +0xC /* 0000396C */
label00003962:
00003962  3007                     move.w     D0, D7
00003964  C0C6                     mulu.w     D0, D6
00003966  3880                     move.w     [A4], D0
00003968  5246                     addq.w     D6, 1
0000396A  548C                     addq.l     A4, 2
label0000396C:
0000396C  0C46 0004                cmpi.w     D6, 0x4
00003970  6DF0                     blt        -0xE /* 00003962 */
00003972  4CDF 10C0                movem.l    D6,D7,A4, [A7]+
00003976  4E5E                     unlink     A6
00003978  4E75                     rts
fn0000397A:
0000397A  2F07                     move.l     -[A7], D7
0000397C  7E01                     moveq.l    D7, 0x01
0000397E  601A                     bra        +0x1C /* 0000399A */
label00003980:
00003980  7000                     moveq.l    D0, 0x00
00003982  3007                     move.w     D0, D7
00003984  1035 0920 D395           move.b     D0, [A5 - 0x2C6B + D0]
0000398A  B02D B2D6                cmp.b      D0, [A5 - 0x4D2A]
0000398E  6608                     bne        +0xA /* 00003998 */
00003990  3F07                     move.w     -[A7], D7
00003992  4EAD 04D2                jsr        [A5 + 0x4D2 /* export_150, CODE:2 @ 00000310 */]
00003996  548F                     addq.l     A7, 2
label00003998:
00003998  5247                     addq.w     D7, 1
label0000399A:
0000399A  0C47 000D                cmpi.w     D7, 0xD /* '\r' */
0000399E  65E0                     bcs        -0x1E /* 00003980 */
000039A0  2E1F                     move.l     D7, [A7]+
000039A2  4E75                     rts
fn000039A4:
000039A4  48E7 0318                movem.l    -[A7], D6,D7,A3,A4
000039A8  7000                     moveq.l    D0, 0x00
000039AA  102D B2D7                move.b     D0, [A5 - 0x4D29]
000039AE  3F00                     move.w     -[A7], D0
000039B0  3F3C 0001                move.w     -[A7], 0x1
000039B4  4EAD 03E2                jsr        [A5 + 0x3E2 /* export_120, CODE:2 @ 00003CEE */]
000039B8  2B40 ECC0                move.l     [A5 - 0x1340], D0
000039BC  2E80                     move.l     [A7], D0
000039BE  2F3C 4448 4D52           move.l     -[A7], 0x44484D52 /* 'DHMR' */
000039C4  4EBA D034                jsr        [PC - 0x2FCC /* 000009FA */]
000039C8  2B40 F7EA                move.l     [A5 - 0x816], D0
000039CC  2040                     movea.l    A0, D0
000039CE  3EA8 000C                move.w     [A7], [A0 + 0xC]
000039D2  4EAD 0C22                jsr        [A5 + 0xC22 /* export_384, CODE:6 @ 0000003E */]
000039D6  1B40 B2D8                move.b     [A5 - 0x4D28], D0
000039DA  4A2D B2D8                tst.b      [A5 - 0x4D28]
000039DE  508F                     addq.l     A7, 8
000039E0  6700 0202                beq        +0x204 /* 00003BE4 */
000039E4  0C2D 00C8 B2D8           cmpi.b     [A5 - 0x4D28], 0xC8
000039EA  6318                     bls        +0x1A /* 00003A04 */
000039EC  7000                     moveq.l    D0, 0x00
000039EE  102D B2D7                move.b     D0, [A5 - 0x4D29]
000039F2  3F00                     move.w     -[A7], D0
000039F4  3F3C 00C8                move.w     -[A7], 0xC8
000039F8  2F3C 0000 070F           move.l     -[A7], 0x70F
000039FE  4EAD 0A42                jsr        [A5 + 0xA42 /* export_324, CODE:5 @ 000034B4 */]
00003A02  508F                     addq.l     A7, 8
label00003A04:
00003A04  286D ECC0                movea.l    A4, [A5 - 0x1340]
00003A08  7E01                     moveq.l    D7, 0x01
00003A0A  6062                     bra        +0x64 /* 00003A6E */
label00003A0C:
00003A0C  2F0C                     move.l     -[A7], A4
00003A0E  2F3C 4443 424F           move.l     -[A7], 0x4443424F /* 'DCBO' */
00003A14  4EBA CFE4                jsr        [PC - 0x301C /* 000009FA */]
00003A18  2640                     movea.l    A3, D0
00003A1A  200B                     move.l     D0, A3
00003A1C  508F                     addq.l     A7, 8
00003A1E  6614                     bne        +0x16 /* 00003A34 */
00003A20  7000                     moveq.l    D0, 0x00
00003A22  102D B2D7                move.b     D0, [A5 - 0x4D29]
00003A26  3F00                     move.w     -[A7], D0
00003A28  2F3C 0000 072F           move.l     -[A7], 0x72F
00003A2E  4EAD 0A42                jsr        [A5 + 0xA42 /* export_324, CODE:5 @ 000034B4 */]
00003A32  5C8F                     addq.l     A7, 6
label00003A34:
00003A34  7018                     moveq.l    D0, 0x18
00003A36  C0C7                     mulu.w     D0, D7
00003A38  49ED B2DA                lea.l      A4, [A5 - 0x4D26]
00003A3C  D08C                     add.l      D0, A4
00003A3E  2840                     movea.l    A4, D0
00003A40  200B                     move.l     D0, A3
00003A42  90AD ECC0                sub.l      D0, [A5 - 0x1340]
00003A46  2940 0004                move.l     [A4 + 0x4], D0
00003A4A  2F0B                     move.l     -[A7], A3
00003A4C  2F3C 4448 4443           move.l     -[A7], 0x44484443 /* 'DHDC' */
00003A52  4EBA D05C                jsr        [PC - 0x2FA4 /* 00000AB0 */]
00003A56  2B40 F7E2                move.l     [A5 - 0x81E], D0
00003A5A  2040                     movea.l    A0, D0
00003A5C  3EA8 0008                move.w     [A7], [A0 + 0x8]
00003A60  4EAD 0C22                jsr        [A5 + 0xC22 /* export_384, CODE:6 @ 0000003E */]
00003A64  3940 000C                move.w     [A4 + 0xC], D0
00003A68  99CC                     sub.l      A4, A4
00003A6A  508F                     addq.l     A7, 8
00003A6C  5247                     addq.w     D7, 1
label00003A6E:
00003A6E  7000                     moveq.l    D0, 0x00
00003A70  102D B2D8                move.b     D0, [A5 - 0x4D28]
00003A74  B047                     cmp.w      D0, D7
00003A76  6494                     bcc        -0x6A /* 00003A0C */
00003A78  286D ECC0                movea.l    A4, [A5 - 0x1340]
00003A7C  7E01                     moveq.l    D7, 0x01
00003A7E  6000 008C                bra        +0x8E /* 00003B0C */
label00003A82:
00003A82  2F0C                     move.l     -[A7], A4
00003A84  2F3C 4D49 424F           move.l     -[A7], 0x4D49424F /* 'MIBO' */
00003A8A  4EBA CF6E                jsr        [PC - 0x3092 /* 000009FA */]
00003A8E  2640                     movea.l    A3, D0
00003A90  200B                     move.l     D0, A3
00003A92  508F                     addq.l     A7, 8
00003A94  6614                     bne        +0x16 /* 00003AAA */
00003A96  7000                     moveq.l    D0, 0x00
00003A98  102D B2D7                move.b     D0, [A5 - 0x4D29]
00003A9C  3F00                     move.w     -[A7], D0
00003A9E  2F3C 0000 0755           move.l     -[A7], 0x755
00003AA4  4EAD 0A42                jsr        [A5 + 0xA42 /* export_324, CODE:5 @ 000034B4 */]
00003AA8  5C8F                     addq.l     A7, 6
label00003AAA:
00003AAA  2F0B                     move.l     -[A7], A3
00003AAC  2F3C 4448 4D49           move.l     -[A7], 0x44484D49 /* 'DHMI' */
00003AB2  4EBA CFFC                jsr        [PC - 0x3004 /* 00000AB0 */]
00003AB6  2B40 F7E6                move.l     [A5 - 0x81A], D0
00003ABA  2040                     movea.l    A0, D0
00003ABC  3EA8 0008                move.w     [A7], [A0 + 0x8]
00003AC0  4EAD 0C22                jsr        [A5 + 0xC22 /* export_384, CODE:6 @ 0000003E */]
00003AC4  3B40 ED10                move.w     [A5 - 0x12F0], D0
00003AC8  220B                     move.l     D1, A3
00003ACA  508F                     addq.l     A7, 8
00003ACC  6730                     beq        +0x32 /* 00003AFE */
00003ACE  7C01                     moveq.l    D6, 0x01
00003AD0  6020                     bra        +0x22 /* 00003AF2 */
label00003AD2:
00003AD2  7018                     moveq.l    D0, 0x18
00003AD4  C0C6                     mulu.w     D0, D6
00003AD6  49ED B2DA                lea.l      A4, [A5 - 0x4D26]
00003ADA  D08C                     add.l      D0, A4
00003ADC  2840                     movea.l    A4, D0
00003ADE  302D ED10                move.w     D0, [A5 - 0x12F0]
00003AE2  B06C 000C                cmp.w      D0, [A4 + 0xC]
00003AE6  6608                     bne        +0xA /* 00003AF0 */
00003AE8  200B                     move.l     D0, A3
00003AEA  90AD ECC0                sub.l      D0, [A5 - 0x1340]
00003AEE  2880                     move.l     [A4], D0
label00003AF0:
00003AF0  5246                     addq.w     D6, 1
label00003AF2:
00003AF2  7000                     moveq.l    D0, 0x00
00003AF4  102D B2D8                move.b     D0, [A5 - 0x4D28]
00003AF8  B046                     cmp.w      D0, D6
00003AFA  64D6                     bcc        -0x28 /* 00003AD2 */
00003AFC  600A                     bra        +0xC /* 00003B08 */
label00003AFE:
00003AFE  7018                     moveq.l    D0, 0x18
00003B00  C0C6                     mulu.w     D0, D6
00003B02  42B5 0920 B2DA           clr.l      [A5 - 0x4D26 + D0]
label00003B08:
00003B08  99CC                     sub.l      A4, A4
00003B0A  5247                     addq.w     D7, 1
label00003B0C:
00003B0C  7000                     moveq.l    D0, 0x00
00003B0E  102D B2D8                move.b     D0, [A5 - 0x4D28]
00003B12  B047                     cmp.w      D0, D7
00003B14  6400 FF6C                bcc        -0x92 /* 00003A82 */
00003B18  7E01                     moveq.l    D7, 0x01
00003B1A  6000 00BC                bra        +0xBE /* 00003BD8 */
label00003B1E:
00003B1E  7018                     moveq.l    D0, 0x18
00003B20  C0C7                     mulu.w     D0, D7
00003B22  49ED B2DA                lea.l      A4, [A5 - 0x4D26]
00003B26  D08C                     add.l      D0, A4
00003B28  2840                     movea.l    A4, D0
00003B2A  266C 0004                movea.l    A3, [A4 + 0x4]
00003B2E  D7ED ECC0                add.l      A3, [A5 - 0x1340]
00003B32  2F0B                     move.l     -[A7], A3
00003B34  2F3C 4448 4443           move.l     -[A7], 0x44484443 /* 'DHDC' */
00003B3A  4EBA CF74                jsr        [PC - 0x308C /* 00000AB0 */]
00003B3E  2B40 F7E2                move.l     [A5 - 0x81E], D0
00003B42  2040                     movea.l    A0, D0
00003B44  3EA8 0008                move.w     [A7], [A0 + 0x8]
00003B48  4EAD 0C22                jsr        [A5 + 0xC22 /* export_384, CODE:6 @ 0000003E */]
00003B4C  3940 000C                move.w     [A4 + 0xC], D0
00003B50  206D F7E2                movea.l    A0, [A5 - 0x81E]
00003B54  1968 000C 0010           move.b     [A4 + 0x10], [A0 + 0xC]
00003B5A  206D F7E2                movea.l    A0, [A5 - 0x81E]
00003B5E  1968 000D 0011           move.b     [A4 + 0x11], [A0 + 0xD]
00003B64  206D F7E2                movea.l    A0, [A5 - 0x81E]
00003B68  1968 000A 000E           move.b     [A4 + 0xE], [A0 + 0xA]
00003B6E  206D F7E2                movea.l    A0, [A5 - 0x81E]
00003B72  1968 000B 000F           move.b     [A4 + 0xF], [A0 + 0xB]
00003B78  206D F7E2                movea.l    A0, [A5 - 0x81E]
00003B7C  0C28 0080 000E           cmpi.b     [A0 + 0xE], 0x80
00003B82  508F                     addq.l     A7, 8
00003B84  6608                     bne        +0xA /* 00003B8E */
00003B86  197C 0010 0014           move.b     [A4 + 0x14], 0x10
00003B8C  600E                     bra        +0x10 /* 00003B9C */
label00003B8E:
00003B8E  206D F7E2                movea.l    A0, [A5 - 0x81E]
00003B92  1028 000E                move.b     D0, [A0 + 0xE]
00003B96  E908                     lsl        D0.b, 4
00003B98  1940 0014                move.b     [A4 + 0x14], D0
label00003B9C:
00003B9C  206D F7E2                movea.l    A0, [A5 - 0x81E]
00003BA0  1968 000F 0013           move.b     [A4 + 0x13], [A0 + 0xF]
00003BA6  206D F7E2                movea.l    A0, [A5 - 0x81E]
00003BAA  3F28 0010                move.w     -[A7], [A0 + 0x10]
00003BAE  4EAD 0C22                jsr        [A5 + 0xC22 /* export_384, CODE:6 @ 0000003E */]
00003BB2  3940 0008                move.w     [A4 + 0x8], D0
00003BB6  206D F7E2                movea.l    A0, [A5 - 0x81E]
00003BBA  3EA8 0012                move.w     [A7], [A0 + 0x12]
00003BBE  4EAD 0C22                jsr        [A5 + 0xC22 /* export_384, CODE:6 @ 0000003E */]
00003BC2  3940 000A                move.w     [A4 + 0xA], D0
00003BC6  206D F7E2                movea.l    A0, [A5 - 0x81E]
00003BCA  1968 0014 0012           move.b     [A4 + 0x12], [A0 + 0x14]
00003BD0  422C 0016                clr.b      [A4 + 0x16]
00003BD4  548F                     addq.l     A7, 2
00003BD6  5247                     addq.w     D7, 1
label00003BD8:
00003BD8  7000                     moveq.l    D0, 0x00
00003BDA  102D B2D8                move.b     D0, [A5 - 0x4D28]
00003BDE  B047                     cmp.w      D0, D7
00003BE0  6400 FF3C                bcc        -0xC2 /* 00003B1E */
label00003BE4:
00003BE4  4CDF 18C0                movem.l    D6,D7,A3,A4, [A7]+
00003BE8  4E75                     rts
fn00003BEA:
00003BEA  48E7 0108                movem.l    -[A7], D7,A4
00003BEE  3E2D C964                move.w     D7, [A5 - 0x369C]
00003BF2  670E                     beq        +0x10 /* 00003C02 */
00003BF4  42A7                     clr.l      -[A7]
00003BF6  42A7                     clr.l      -[A7]
00003BF8  3F07                     move.w     -[A7], D7
00003BFA  4EAD 0A02                jsr        [A5 + 0xA02 /* export_316, CODE:5 @ 00002ED2 */]
00003BFE  4FEF 000A                lea.l      A7, [A7 + 0xA]
label00003C02:
00003C02  4AAD B2BE                tst.l      [A5 - 0x4D42]
00003C06  6740                     beq        +0x42 /* 00003C48 */
00003C08  4EAD 0A0A                jsr        [A5 + 0xA0A /* export_317, CODE:5 @ 00002FCE */]
00003C0C  3E00                     move.w     D7, D0
00003C0E  7012                     moveq.l    D0, 0x12
00003C10  C0C7                     mulu.w     D0, D7
00003C12  49ED C59A                lea.l      A4, [A5 - 0x3A66]
00003C16  D08C                     add.l      D0, A4
00003C18  2840                     movea.l    A4, D0
00003C1A  197C 0002 000A           move.b     [A4 + 0xA], 0x2
00003C20  397C 2712 0008           move.w     [A4 + 0x8], 0x2712
00003C26  197C 0001 000B           move.b     [A4 + 0xB], 0x1
00003C2C  7008                     moveq.l    D0, 0x08
00003C2E  D0AD B2BE                add.l      D0, [A5 - 0x4D42]
00003C32  2880                     move.l     [A4], D0
00003C34  422C 000C                clr.b      [A4 + 0xC]
00003C38  422C 000D                clr.b      [A4 + 0xD]
00003C3C  422C 000E                clr.b      [A4 + 0xE]
00003C40  3F07                     move.w     -[A7], D7
00003C42  4EAD 09F2                jsr        [A5 + 0x9F2 /* export_314, CODE:5 @ 00002CC0 */]
00003C46  548F                     addq.l     A7, 2
label00003C48:
00003C48  3E2D C966                move.w     D7, [A5 - 0x369A]
00003C4C  670E                     beq        +0x10 /* 00003C5C */
00003C4E  42A7                     clr.l      -[A7]
00003C50  42A7                     clr.l      -[A7]
00003C52  3F07                     move.w     -[A7], D7
00003C54  4EAD 0A02                jsr        [A5 + 0xA02 /* export_316, CODE:5 @ 00002ED2 */]
00003C58  4FEF 000A                lea.l      A7, [A7 + 0xA]
label00003C5C:
00003C5C  4CDF 1080                movem.l    D7,A4, [A7]+
00003C60  4E75                     rts
fn00003C62:
00003C62  48E7 0108                movem.l    -[A7], D7,A4
00003C66  3E2D C968                move.w     D7, [A5 - 0x3698]
00003C6A  670E                     beq        +0x10 /* 00003C7A */
00003C6C  42A7                     clr.l      -[A7]
00003C6E  42A7                     clr.l      -[A7]
00003C70  3F07                     move.w     -[A7], D7
00003C72  4EAD 0A02                jsr        [A5 + 0xA02 /* export_316, CODE:5 @ 00002ED2 */]
00003C76  4FEF 000A                lea.l      A7, [A7 + 0xA]
label00003C7A:
00003C7A  4AAD B2BA                tst.l      [A5 - 0x4D46]
00003C7E  6740                     beq        +0x42 /* 00003CC0 */
00003C80  4EAD 0A0A                jsr        [A5 + 0xA0A /* export_317, CODE:5 @ 00002FCE */]
00003C84  3E00                     move.w     D7, D0
00003C86  7012                     moveq.l    D0, 0x12
00003C88  C0C7                     mulu.w     D0, D7
00003C8A  49ED C59A                lea.l      A4, [A5 - 0x3A66]
00003C8E  D08C                     add.l      D0, A4
00003C90  2840                     movea.l    A4, D0
00003C92  197C 0002 000A           move.b     [A4 + 0xA], 0x2
00003C98  397C 2711 0008           move.w     [A4 + 0x8], 0x2711
00003C9E  197C 0001 000B           move.b     [A4 + 0xB], 0x1
00003CA4  7008                     moveq.l    D0, 0x08
00003CA6  D0AD B2BA                add.l      D0, [A5 - 0x4D46]
00003CAA  2880                     move.l     [A4], D0
00003CAC  422C 000C                clr.b      [A4 + 0xC]
00003CB0  422C 000D                clr.b      [A4 + 0xD]
00003CB4  422C 000E                clr.b      [A4 + 0xE]
00003CB8  3F07                     move.w     -[A7], D7
00003CBA  4EAD 09F2                jsr        [A5 + 0x9F2 /* export_314, CODE:5 @ 00002CC0 */]
00003CBE  548F                     addq.l     A7, 2
label00003CC0:
00003CC0  3E2D C96A                move.w     D7, [A5 - 0x3696]
00003CC4  670E                     beq        +0x10 /* 00003CD4 */
00003CC6  42A7                     clr.l      -[A7]
00003CC8  42A7                     clr.l      -[A7]
00003CCA  3F07                     move.w     -[A7], D7
00003CCC  4EAD 0A02                jsr        [A5 + 0xA02 /* export_316, CODE:5 @ 00002ED2 */]
00003CD0  4FEF 000A                lea.l      A7, [A7 + 0xA]
label00003CD4:
00003CD4  4CDF 1080                movem.l    D7,A4, [A7]+
00003CD8  4E75                     rts
export_199:
fn00003CDA:
00003CDA  4E56 0000                link       A6, 0
00003CDE  48E7 0308                movem.l    -[A7], D6,D7,A4
00003CE2  3E2E 0008                move.w     D7, [A6 + 0x8]
00003CE6  BE6D 9BE0                cmp.w      D7, [A5 - 0x6420]
00003CEA  6700 0194                beq        +0x196 /* 00003E80 */
00003CEE  3B47 9BE0                move.w     [A5 - 0x6420], D7
00003CF2  0C47 FFFF                cmpi.w     D7, 0xFFFF
00003CF6  6618                     bne        +0x1A /* 00003D10 */
00003CF8  422D F74A                clr.b      [A5 - 0x8B6]
00003CFC  4EBA 018C                jsr        [PC + 0x18C /* 00003E8A */]
00003D00  3F2D EC98                move.w     -[A7], [A5 - 0x1368]
00003D04  4EAD 092A                jsr        [A5 + 0x92A /* export_289, CODE:5 @ 00000BC4 */]
00003D08  3B40 EC98                move.w     [A5 - 0x1368], D0
00003D0C  6000 0172                bra        +0x174 /* 00003E80 */
label00003D10:
00003D10  4AAD F73A                tst.l      [A5 - 0x8C6]
00003D14  660A                     bne        +0xC /* 00003D20 */
00003D16  70FF                     moveq.l    D0, 0xFFFFFFFF
00003D18  B0B5 7525 B26A           cmp.l      D0, [[A5 - 0x4D96] + D7 * 4]
00003D1E  6672                     bne        +0x74 /* 00003D92 */
label00003D20:
00003D20  2F3C 0000 0775           move.l     -[A7], 0x775
00003D26  486D EDE4                pea.l      [A5 - 0x121C]
00003D2A  4EAD 0CD2                jsr        [A5 + 0xCD2 /* export_406, CODE:7 @ 000049C2 */]
00003D2E  3047                     movea.w    A0, D7
00003D30  2008                     move.l     D0, A0
00003D32  81FC 0064                divs.w     D0, 0x64 /* 'd' */
00003D36  0600 0030                addi.b     D0, 0x30 /* '0' */
00003D3A  1B40 EDE4                move.b     [A5 - 0x121C], D0
00003D3E  3047                     movea.w    A0, D7
00003D40  2008                     move.l     D0, A0
00003D42  81FC 000A                divs.w     D0, 0xA /* '\n' */
00003D46  48C0                     ext.l      D0
00003D48  81FC 000A                divs.w     D0, 0xA /* '\n' */
00003D4C  4840                     swap.w     D0
00003D4E  0600 0030                addi.b     D0, 0x30 /* '0' */
00003D52  1B40 EDE5                move.b     [A5 - 0x121B], D0
00003D56  3047                     movea.w    A0, D7
00003D58  2008                     move.l     D0, A0
00003D5A  81FC 000A                divs.w     D0, 0xA /* '\n' */
00003D5E  4840                     swap.w     D0
00003D60  0600 0030                addi.b     D0, 0x30 /* '0' */
00003D64  1B40 EDE6                move.b     [A5 - 0x121A], D0
00003D68  422D F74A                clr.b      [A5 - 0x8B6]
00003D6C  486D EDE4                pea.l      [A5 - 0x121C]
00003D70  4EBA 0296                jsr        [PC + 0x296 /* 00004008 */]
00003D74  4A40                     tst.w      D0
00003D76  4FEF 000C                lea.l      A7, [A7 + 0xC]
00003D7A  660A                     bne        +0xC /* 00003D86 */
00003D7C  3F07                     move.w     -[A7], D7
00003D7E  4EBA 0192                jsr        [PC + 0x192 /* 00003F12 */]
00003D82  548F                     addq.l     A7, 2
00003D84  608A                     bra        -0x74 /* 00003D10 */
label00003D86:
00003D86  4EBA 0102                jsr        [PC + 0x102 /* 00003E8A */]
00003D8A  42AD 9BE4                clr.l      [A5 - 0x641C]
00003D8E  6000 00F0                bra        +0xF2 /* 00003E80 */
label00003D92:
00003D92  2C35 7525 B26A           move.l     D6, [[A5 - 0x4D96] + D7 * 4]
00003D98  4A86                     tst.l      D6
00003D9A  670C                     beq        +0xE /* 00003DA8 */
00003D9C  4A47                     tst.w      D7
00003D9E  6708                     beq        +0xA /* 00003DA8 */
00003DA0  2B46 9BE4                move.l     [A5 - 0x641C], D6
00003DA4  6000 00DA                bra        +0xDC /* 00003E80 */
label00003DA8:
00003DA8  4A47                     tst.w      D7
00003DAA  6620                     bne        +0x22 /* 00003DCC */
00003DAC  486D B0F2                pea.l      [A5 - 0x4F0E]
00003DB0  486D EDE4                pea.l      [A5 - 0x121C]
00003DB4  4EAD 0CD2                jsr        [A5 + 0xCD2 /* export_406, CODE:7 @ 000049C2 */]
00003DB8  2EBC 0000 077D           move.l     [A7], 0x77D
00003DBE  486D EDE4                pea.l      [A5 - 0x121C]
00003DC2  4EAD 0CDA                jsr        [A5 + 0xCDA /* export_407, CODE:7 @ 000049D2 */]
00003DC6  4FEF 000C                lea.l      A7, [A7 + 0xC]
00003DCA  6068                     bra        +0x6A /* 00003E34 */
label00003DCC:
00003DCC  486D B0F2                pea.l      [A5 - 0x4F0E]
00003DD0  486D EDE4                pea.l      [A5 - 0x121C]
00003DD4  4EAD 0CD2                jsr        [A5 + 0xCD2 /* export_406, CODE:7 @ 000049C2 */]
00003DD8  2EBC 0000 0783           move.l     [A7], 0x783
00003DDE  486D EDE4                pea.l      [A5 - 0x121C]
00003DE2  4EAD 0CDA                jsr        [A5 + 0xCDA /* export_407, CODE:7 @ 000049D2 */]
00003DE6  49ED EDE4                lea.l      A4, [A5 - 0x121C]
00003DEA  4FEF 000C                lea.l      A7, [A7 + 0xC]
label00003DEE:
00003DEE  0C1C 002E                cmpi.b     [A4]+, 0x2E /* '.' */
00003DF2  66FA                     bne        -0x4 /* 00003DEE */
00003DF4  7000                     moveq.l    D0, 0x00
00003DF6  1035 7125 B22A           move.b     D0, [[A5 - 0x4DD6] + D7]
00003DFC  81FC 0064                divs.w     D0, 0x64 /* 'd' */
00003E00  0600 0030                addi.b     D0, 0x30 /* '0' */
00003E04  18C0                     move.b     [A4]+, D0
00003E06  7000                     moveq.l    D0, 0x00
00003E08  1035 7125 B22A           move.b     D0, [[A5 - 0x4DD6] + D7]
00003E0E  81FC 000A                divs.w     D0, 0xA /* '\n' */
00003E12  48C0                     ext.l      D0
00003E14  81FC 000A                divs.w     D0, 0xA /* '\n' */
00003E18  4840                     swap.w     D0
00003E1A  0600 0030                addi.b     D0, 0x30 /* '0' */
00003E1E  18C0                     move.b     [A4]+, D0
00003E20  7000                     moveq.l    D0, 0x00
00003E22  1035 7125 B22A           move.b     D0, [[A5 - 0x4DD6] + D7]
00003E28  81FC 000A                divs.w     D0, 0xA /* '\n' */
00003E2C  4840                     swap.w     D0
00003E2E  0600 0030                addi.b     D0, 0x30 /* '0' */
00003E32  18C0                     move.b     [A4]+, D0
label00003E34:
00003E34  1B7C 0069 F74A           move.b     [A5 - 0x8B6], 0x69 /* 'i' */
00003E3A  486D EDE4                pea.l      [A5 - 0x121C]
00003E3E  4EBA 01C8                jsr        [PC + 0x1C8 /* 00004008 */]
00003E42  4A40                     tst.w      D0
00003E44  588F                     addq.l     A7, 4
00003E46  660C                     bne        +0xE /* 00003E54 */
00003E48  3F07                     move.w     -[A7], D7
00003E4A  4EBA 00C6                jsr        [PC + 0xC6 /* 00003F12 */]
00003E4E  548F                     addq.l     A7, 2
00003E50  6000 FEBE                bra        -0x140 /* 00003D10 */
label00003E54:
00003E54  4A47                     tst.w      D7
00003E56  6728                     beq        +0x2A /* 00003E80 */
00003E58  4EBA 0060                jsr        [PC + 0x60 /* 00003EBA */]
00003E5C  2B75 7525 B26A 9BE4      move.l     [A5 - 0x641C], [[A5 - 0x4D96] + D7 * 4]
00003E64  7008                     moveq.l    D0, 0x08
00003E66  B0AD 9BE4                cmp.l      D0, [A5 - 0x641C]
00003E6A  6614                     bne        +0x16 /* 00003E80 */
00003E6C  486D EDE4                pea.l      [A5 - 0x121C]
00003E70  3F07                     move.w     -[A7], D7
00003E72  2F3C 0000 0789           move.l     -[A7], 0x789
00003E78  4EAD 0A42                jsr        [A5 + 0xA42 /* export_324, CODE:5 @ 000034B4 */]
00003E7C  4FEF 000A                lea.l      A7, [A7 + 0xA]
label00003E80:
00003E80  4CEE 10C0 FFF4           movem.l    D6,D7,A4, [A6 - 0xC]
00003E86  4E5E                     unlink     A6
00003E88  4E75                     rts
fn00003E8A:
00003E8A  48E7 0108                movem.l    -[A7], D7,A4
00003E8E  4A6D 9BE2                tst.w      [A5 - 0x641E]
00003E92  6720                     beq        +0x22 /* 00003EB4 */
00003E94  7E00                     moveq.l    D7, 0x00
00003E96  99CC                     sub.l      A4, A4
00003E98  6014                     bra        +0x16 /* 00003EAE */
label00003E9A:
00003E9A  70FF                     moveq.l    D0, 0xFFFFFFFF
00003E9C  B0B5 C925 B26A           cmp.l      D0, [[A5 - 0x4D96] + A4]
00003EA2  6706                     beq        +0x8 /* 00003EAA */
00003EA4  42B5 C925 B26A           clr.l      [[A5 - 0x4D96] + A4]
label00003EAA:
00003EAA  5247                     addq.w     D7, 1
00003EAC  588C                     addq.l     A4, 4
label00003EAE:
00003EAE  BE6D B108                cmp.w      D7, [A5 - 0x4EF8]
00003EB2  6DE6                     blt        -0x18 /* 00003E9A */
label00003EB4:
00003EB4  4CDF 1080                movem.l    D7,A4, [A7]+
00003EB8  4E75                     rts
fn00003EBA:
00003EBA  48E7 0308                movem.l    -[A7], D6,D7,A4
00003EBE  4EBA FFCA                jsr        [PC - 0x36 /* 00003E8A */]
00003EC2  4A6D 9BE2                tst.w      [A5 - 0x641E]
00003EC6  6744                     beq        +0x46 /* 00003F0C */
00003EC8  4267                     clr.w      -[A7]
00003ECA  4878 0010                push.l     0x10
00003ECE  3F2D EC98                move.w     -[A7], [A5 - 0x1368]
00003ED2  4EAD 091A                jsr        [A5 + 0x91A /* export_287, CODE:5 @ 00000C26 */]
00003ED6  4EAD 08FA                jsr        [A5 + 0x8FA /* export_283, CODE:5 @ 00000DB8 */]
00003EDA  3E00                     move.w     D7, D0
00003EDC  508F                     addq.l     A7, 8
00003EDE  6024                     bra        +0x26 /* 00003F04 */
label00003EE0:
00003EE0  4EAD 08FA                jsr        [A5 + 0x8FA /* export_283, CODE:5 @ 00000DB8 */]
00003EE4  3C00                     move.w     D6, D0
00003EE6  49F0 6590                lea.l      A4, [ + D6 * 4]
00003EEA  70FF                     moveq.l    D0, 0xFFFFFFFF
00003EEC  B0B5 C925 B26A           cmp.l      D0, [[A5 - 0x4D96] + A4]
00003EF2  670C                     beq        +0xE /* 00003F00 */
00003EF4  4EAD 090A                jsr        [A5 + 0x90A /* export_285, CODE:5 @ 00000DFC */]
00003EF8  2B80 C925 B26A           move.l     [[A5 - 0x4D96] + A4], D0
00003EFE  6004                     bra        +0x6 /* 00003F04 */
label00003F00:
00003F00  4EAD 090A                jsr        [A5 + 0x90A /* export_285, CODE:5 @ 00000DFC */]
label00003F04:
00003F04  3007                     move.w     D0, D7
00003F06  5347                     subq.w     D7, 1
00003F08  4A40                     tst.w      D0
00003F0A  66D4                     bne        -0x2A /* 00003EE0 */
label00003F0C:
00003F0C  4CDF 10C0                movem.l    D6,D7,A4, [A7]+
00003F10  4E75                     rts
fn00003F12:
00003F12  4E56 0000                link       A6, 0
00003F16  486D 9BE8                pea.l      [A5 - 0x6418]
00003F1A  4EAD 08AA                jsr        [A5 + 0x8AA /* export_273, CODE:4 @ 00001F6E */]
00003F1E  302D 9BDA                move.w     D0, [A5 - 0x6426]
00003F22  526D 9BDA                addq.w     [A5 - 0x6426], 1
00003F26  5B40                     subq.w     D0, 5
00003F28  588F                     addq.l     A7, 4
00003F2A  6C74                     bge        +0x76 /* 00003FA0 */
00003F2C  2F3C 0007 0001           move.l     -[A7], 0x70001
00003F32  4EAD 03E2                jsr        [A5 + 0x3E2 /* export_120, CODE:2 @ 00003CEE */]
00003F36  4A80                     tst.l      D0
00003F38  588F                     addq.l     A7, 4
00003F3A  670C                     beq        +0xE /* 00003F48 */
00003F3C  3F3C 0001                move.w     -[A7], 0x1
00003F40  4EBA DE56                jsr        [PC - 0x21AA /* 00001D98 */]
00003F44  548F                     addq.l     A7, 2
00003F46  6010                     bra        +0x12 /* 00003F58 */
label00003F48:
00003F48  2F3C 0000 079B           move.l     -[A7], 0x79B
00003F4E  486D F630                pea.l      [A5 - 0x9D0]
00003F52  4EAD 0CD2                jsr        [A5 + 0xCD2 /* export_406, CODE:7 @ 000049C2 */]
00003F56  508F                     addq.l     A7, 8
label00003F58:
00003F58  3F2D 9BDE                move.w     -[A7], [A5 - 0x6422]
00003F5C  302D 9BDC                move.w     D0, [A5 - 0x6424]
00003F60  2F35 0520 B126           move.l     -[A7], [A5 - 0x4EDA + D0 * 4]
00003F66  4EBA CA44                jsr        [PC - 0x35BC /* 000009AC */]
00003F6A  2E80                     move.l     [A7], D0
00003F6C  306E 0008                movea.w    A0, [A6 + 0x8]
00003F70  D1ED B22A                add.l      A0, [A5 - 0x4DD6]
00003F74  7000                     moveq.l    D0, 0x00
00003F76  1010                     move.b     D0, [A0]
00003F78  0640 0030                addi.w     D0, 0x30 /* '0' */
00003F7C  3F00                     move.w     -[A7], D0
00003F7E  486D F630                pea.l      [A5 - 0x9D0]
00003F82  486D F680                pea.l      [A5 - 0x980]
00003F86  4EAD 0CC2                jsr        [A5 + 0xCC2 /* export_404, CODE:7 @ 000048E6 */]
00003F8A  4257                     clr.w      [A7]
00003F8C  486D F680                pea.l      [A5 - 0x980]
00003F90  2F3C 00FF 000C           move.l     -[A7], 0xFF000C
00003F96  4EBA DE5E                jsr        [PC - 0x21A2 /* 00001DF6 */]
00003F9A  4FEF 0010                lea.l      A7, [A7 + 0x10]
00003F9E  6064                     bra        +0x66 /* 00004004 */
label00003FA0:
00003FA0  2F3C 0007 0002           move.l     -[A7], 0x70002
00003FA6  4EAD 03E2                jsr        [A5 + 0x3E2 /* export_120, CODE:2 @ 00003CEE */]
00003FAA  4A80                     tst.l      D0
00003FAC  588F                     addq.l     A7, 4
00003FAE  670C                     beq        +0xE /* 00003FBC */
00003FB0  3F3C 0002                move.w     -[A7], 0x2
00003FB4  4EBA DDE2                jsr        [PC - 0x221E /* 00001D98 */]
00003FB8  548F                     addq.l     A7, 2
00003FBA  6010                     bra        +0x12 /* 00003FCC */
label00003FBC:
00003FBC  2F3C 0000 07BF           move.l     -[A7], 0x7BF
00003FC2  486D F630                pea.l      [A5 - 0x9D0]
00003FC6  4EAD 0CD2                jsr        [A5 + 0xCD2 /* export_406, CODE:7 @ 000049C2 */]
00003FCA  508F                     addq.l     A7, 8
label00003FCC:
00003FCC  3F2D 9BDE                move.w     -[A7], [A5 - 0x6422]
00003FD0  302D 9BDC                move.w     D0, [A5 - 0x6424]
00003FD4  2F35 0520 B126           move.l     -[A7], [A5 - 0x4EDA + D0 * 4]
00003FDA  4EBA C9D0                jsr        [PC - 0x3630 /* 000009AC */]
00003FDE  2E80                     move.l     [A7], D0
00003FE0  486D 9BE8                pea.l      [A5 - 0x6418]
00003FE4  486D F630                pea.l      [A5 - 0x9D0]
00003FE8  486D F680                pea.l      [A5 - 0x980]
00003FEC  4EAD 0CC2                jsr        [A5 + 0xCC2 /* export_404, CODE:7 @ 000048E6 */]
00003FF0  4257                     clr.w      [A7]
00003FF2  486D F680                pea.l      [A5 - 0x980]
00003FF6  2F3C 00FF 000C           move.l     -[A7], 0xFF000C
00003FFC  4EBA DDF8                jsr        [PC - 0x2208 /* 00001DF6 */]
00004000  4FEF 0012                lea.l      A7, [A7 + 0x12]
label00004004:
00004004  4E5E                     unlink     A6
00004006  4E75                     rts
fn00004008:
00004008  4E56 FFFC                link       A6, -0x0004
0000400C  2F07                     move.l     -[A7], D7
0000400E  4AAD F73E                tst.l      [A5 - 0x8C2]
00004012  671C                     beq        +0x1E /* 00004030 */
00004014  2F2E 0008                move.l     -[A7], [A6 + 0x8]
00004018  2F2D F73E                move.l     -[A7], [A5 - 0x8C2]
0000401C  2F3C 0000 07DF           move.l     -[A7], 0x7DF
00004022  486D 9BE8                pea.l      [A5 - 0x6418]
00004026  4EAD 0CC2                jsr        [A5 + 0xCC2 /* export_404, CODE:7 @ 000048E6 */]
0000402A  4FEF 0010                lea.l      A7, [A7 + 0x10]
0000402E  6030                     bra        +0x32 /* 00004060 */
label00004030:
00004030  4AAD F73A                tst.l      [A5 - 0x8C6]
00004034  671C                     beq        +0x1E /* 00004052 */
00004036  2F2E 0008                move.l     -[A7], [A6 + 0x8]
0000403A  2F2D F73A                move.l     -[A7], [A5 - 0x8C6]
0000403E  2F3C 0000 07E5           move.l     -[A7], 0x7E5
00004044  486D 9BE8                pea.l      [A5 - 0x6418]
00004048  4EAD 0CC2                jsr        [A5 + 0xCC2 /* export_404, CODE:7 @ 000048E6 */]
0000404C  4FEF 0010                lea.l      A7, [A7 + 0x10]
00004050  600E                     bra        +0x10 /* 00004060 */
label00004052:
00004052  2F2E 0008                move.l     -[A7], [A6 + 0x8]
00004056  486D 9BE8                pea.l      [A5 - 0x6418]
0000405A  4EAD 0CD2                jsr        [A5 + 0xCD2 /* export_406, CODE:7 @ 000049C2 */]
0000405E  508F                     addq.l     A7, 8
label00004060:
00004060  7E00                     moveq.l    D7, 0x00
label00004062:
00004062  0C6D FFFF EC98           cmpi.w     [A5 - 0x1368], 0xFFFF
00004068  670E                     beq        +0x10 /* 00004078 */
0000406A  3F2D EC98                move.w     -[A7], [A5 - 0x1368]
0000406E  4EAD 092A                jsr        [A5 + 0x92A /* export_289, CODE:5 @ 00000BC4 */]
00004072  3B40 EC98                move.w     [A5 - 0x1368], D0
00004076  548F                     addq.l     A7, 2
label00004078:
00004078  3F3C 0001                move.w     -[A7], 0x1
0000407C  486D 9BE8                pea.l      [A5 - 0x6418]
00004080  4EAD 0922                jsr        [A5 + 0x922 /* export_288, CODE:5 @ 00000B48 */]
00004084  3B40 EC98                move.w     [A5 - 0x1368], D0
00004088  5240                     addq.w     D0, 1
0000408A  5C8F                     addq.l     A7, 6
0000408C  665A                     bne        +0x5C /* 000040E8 */
0000408E  4EAD 06B2                jsr        [A5 + 0x6B2 /* export_210, CODE:4 @ 00003C46 */]
00004092  5340                     subq.w     D0, 1
00004094  6F4E                     ble        +0x50 /* 000040E4 */
00004096  0C47 0002                cmpi.w     D7, 0x2
0000409A  6D04                     blt        +0x6 /* 000040A0 */
0000409C  7000                     moveq.l    D0, 0x00
0000409E  604A                     bra        +0x4C /* 000040EA */
label000040A0:
000040A0  4EAD 06A2                jsr        [A5 + 0x6A2 /* export_208, CODE:4 @ 00003C32 */]
000040A4  5340                     subq.w     D0, 1
000040A6  661A                     bne        +0x1C /* 000040C2 */
000040A8  3F3C 0002                move.w     -[A7], 0x2
000040AC  4EAD 06AA                jsr        [A5 + 0x6AA /* export_209, CODE:4 @ 00003C3E */]
000040B0  4EAD 06A2                jsr        [A5 + 0x6A2 /* export_208, CODE:4 @ 00003C32 */]
000040B4  5540                     subq.w     D0, 2
000040B6  548F                     addq.l     A7, 2
000040B8  6604                     bne        +0x6 /* 000040BE */
000040BA  5247                     addq.w     D7, 1
000040BC  60A4                     bra        -0x5A /* 00004062 */
label000040BE:
000040BE  7000                     moveq.l    D0, 0x00
000040C0  6028                     bra        +0x2A /* 000040EA */
label000040C2:
000040C2  4EAD 06A2                jsr        [A5 + 0x6A2 /* export_208, CODE:4 @ 00003C32 */]
000040C6  5540                     subq.w     D0, 2
000040C8  6698                     bne        -0x66 /* 00004062 */
000040CA  3F3C 0001                move.w     -[A7], 0x1
000040CE  4EAD 06AA                jsr        [A5 + 0x6AA /* export_209, CODE:4 @ 00003C3E */]
000040D2  4EAD 06A2                jsr        [A5 + 0x6A2 /* export_208, CODE:4 @ 00003C32 */]
000040D6  5340                     subq.w     D0, 1
000040D8  548F                     addq.l     A7, 2
000040DA  6604                     bne        +0x6 /* 000040E0 */
000040DC  5247                     addq.w     D7, 1
000040DE  6082                     bra        -0x7C /* 00004062 */
label000040E0:
000040E0  7000                     moveq.l    D0, 0x00
000040E2  6006                     bra        +0x8 /* 000040EA */
label000040E4:
000040E4  7000                     moveq.l    D0, 0x00
000040E6  6002                     bra        +0x4 /* 000040EA */
label000040E8:
000040E8  7001                     moveq.l    D0, 0x01
label000040EA:
000040EA  2E1F                     move.l     D7, [A7]+
000040EC  4E5E                     unlink     A6
000040EE  4E75                     rts
export_200:
fn000040F0:
000040F0  4E56 0000                link       A6, 0
000040F4  48E7 0108                movem.l    -[A7], D7,A4
000040F8  286E 0008                movea.l    A4, [A6 + 0x8]
000040FC  4A94                     tst.l      [A4]
000040FE  662E                     bne        +0x30 /* 0000412E */
00004100  7E00                     moveq.l    D7, 0x00
00004102  3E2E 000C                move.w     D7, [A6 + 0xC]
00004106  2007                     move.l     D0, D7
00004108  A11E                     syscall    NewPtr, flags=1
0000410A  2888                     move.l     [A4], A0
0000410C  2008                     move.l     D0, A0
0000410E  6610                     bne        +0x12 /* 00004120 */
00004110  3F2E 000C                move.w     -[A7], [A6 + 0xC]
00004114  2F3C 0000 07EB           move.l     -[A7], 0x7EB
0000411A  4EAD 0A42                jsr        [A5 + 0xA42 /* export_324, CODE:5 @ 000034B4 */]
0000411E  5C8F                     addq.l     A7, 6
label00004120:
00004120  2F07                     move.l     -[A7], D7
00004122  4267                     clr.w      -[A7]
00004124  2F14                     move.l     -[A7], [A4]
00004126  4EAD 0CAA                jsr        [A5 + 0xCAA /* export_401, CODE:7 @ 00003152 */]
0000412A  4FEF 000A                lea.l      A7, [A7 + 0xA]
label0000412E:
0000412E  4CDF 1080                movem.l    D7,A4, [A7]+
00004132  4E5E                     unlink     A6
00004134  4E75                     rts
fn00004136:
00004136  4E56 FFFA                link       A6, -0x0006
0000413A  48E7 0700                movem.l    -[A7], D5,D6,D7
0000413E  3F3C FFFF                move.w     -[A7], 0xFFFF
00004142  4EBA FB96                jsr        [PC - 0x46A /* 00003CDA */]
00004146  4257                     clr.w      [A7]
00004148  4EBA FB90                jsr        [PC - 0x470 /* 00003CDA */]
0000414C  7A00                     moveq.l    D5, 0x00
0000414E  548F                     addq.l     A7, 2
00004150  6000 01F0                bra        +0x1F2 /* 00004342 */
label00004154:
00004154  4EAD 090A                jsr        [A5 + 0x90A /* export_285, CODE:5 @ 00000DFC */]
00004158  2E00                     move.l     D7, D0
0000415A  3F2D EC98                move.w     -[A7], [A5 - 0x1368]
0000415E  4EAD 093A                jsr        [A5 + 0x93A /* export_291, CODE:5 @ 00000C12 */]
00004162  4A40                     tst.w      D0
00004164  548F                     addq.l     A7, 2
00004166  6600 01EA                bne        +0x1EC /* 00004352 */
0000416A  4EAD 0912                jsr        [A5 + 0x912 /* export_286, CODE:5 @ 00000E36 */]
0000416E  2C00                     move.l     D6, D0
00004170  5245                     addq.w     D5, 1
00004172  2007                     move.l     D0, D7
00004174  6B00 01B8                bmi        +0x1BA /* 0000432E */
00004178  0480 5248 4344           subi.l     D0, 0x52484344 /* 'RHCD' */
0000417E  6700 010A                beq        +0x10C /* 0000428A */
00004182  6A34                     bpl        +0x36 /* 000041B8 */
00004184  0480 FD07 0F00           subi.l     D0, 0xFD070F00
0000418A  6700 00AA                beq        +0xAC /* 00004236 */
0000418E  6A1A                     bpl        +0x1C /* 000041AA */
00004190  0480 FDF1 FC0E           subi.l     D0, 0xFDF1FC0E
00004196  676A                     beq        +0x6C /* 00004202 */
00004198  6A00 0194                bpl        +0x196 /* 0000432E */
0000419C  0480 FD01 00F2           subi.l     D0, 0xFD0100F2
000041A2  6700 0102                beq        +0x104 /* 000042A6 */
000041A6  6000 0186                bra        +0x188 /* 0000432E */
label000041AA:
000041AA  0480 02F4 0100           subi.l     D0, 0x2F40100
000041B0  6700 00BC                beq        +0xBE /* 0000426E */
000041B4  6000 0178                bra        +0x17A /* 0000432E */
label000041B8:
000041B8  0480 010F FE09           subi.l     D0, 0x10FFE09
000041BE  671A                     beq        +0x1C /* 000041DA */
000041C0  6A0C                     bpl        +0xE /* 000041CE */
000041C2  0480 FFF7 01F7           subi.l     D0, 0xFFF701F7
000041C8  6750                     beq        +0x52 /* 0000421A */
000041CA  6000 0162                bra        +0x164 /* 0000432E */
label000041CE:
000041CE  0480 01F7 11F7           subi.l     D0, 0x1F711F7
000041D4  677C                     beq        +0x7E /* 00004252 */
000041D6  6000 0156                bra        +0x158 /* 0000432E */
label000041DA:
000041DA  4EAD 0902                jsr        [A5 + 0x902 /* export_284, CODE:5 @ 00000DE8 */]
000041DE  4EAD 0902                jsr        [A5 + 0x902 /* export_284, CODE:5 @ 00000DE8 */]
000041E2  4EAD 0902                jsr        [A5 + 0x902 /* export_284, CODE:5 @ 00000DE8 */]
000041E6  4EAD 0902                jsr        [A5 + 0x902 /* export_284, CODE:5 @ 00000DE8 */]
000041EA  4EAD 0902                jsr        [A5 + 0x902 /* export_284, CODE:5 @ 00000DE8 */]
000041EE  4EAD 0902                jsr        [A5 + 0x902 /* export_284, CODE:5 @ 00000DE8 */]
000041F2  4EAD 0902                jsr        [A5 + 0x902 /* export_284, CODE:5 @ 00000DE8 */]
000041F6  4EAD 0902                jsr        [A5 + 0x902 /* export_284, CODE:5 @ 00000DE8 */]
000041FA  4EAD 0902                jsr        [A5 + 0x902 /* export_284, CODE:5 @ 00000DE8 */]
000041FE  6000 0142                bra        +0x144 /* 00004342 */
label00004202:
00004202  3F3C 0001                move.w     -[A7], 0x1
00004206  2046                     movea.l    A0, D6
00004208  4868 FFF8                pea.l      [A0 - 0x8]
0000420C  3F2D EC98                move.w     -[A7], [A5 - 0x1368]
00004210  4EAD 091A                jsr        [A5 + 0x91A /* export_287, CODE:5 @ 00000C26 */]
00004214  508F                     addq.l     A7, 8
00004216  6000 012A                bra        +0x12C /* 00004342 */
label0000421A:
0000421A  2F3C 0000 0815           move.l     -[A7], 0x815
00004220  2F3C 5453 4F43           move.l     -[A7], 0x54534F43 /* 'TSOC' */
00004226  3F3C 0003                move.w     -[A7], 0x3
0000422A  4EBA 0156                jsr        [PC + 0x156 /* 00004382 */]
0000422E  4FEF 000A                lea.l      A7, [A7 + 0xA]
00004232  6000 010E                bra        +0x110 /* 00004342 */
label00004236:
00004236  2F3C 0000 081D           move.l     -[A7], 0x81D
0000423C  2F3C 4D4F 4F52           move.l     -[A7], 0x4D4F4F52 /* 'MOOR' */
00004242  3F3C 0001                move.w     -[A7], 0x1
00004246  4EBA 013A                jsr        [PC + 0x13A /* 00004382 */]
0000424A  4FEF 000A                lea.l      A7, [A7 + 0xA]
0000424E  6000 00F2                bra        +0xF4 /* 00004342 */
label00004252:
00004252  2F3C 0000 0823           move.l     -[A7], 0x823
00004258  2F3C 4E55 4F53           move.l     -[A7], 0x4E554F53 /* 'NUOS' */
0000425E  3F3C 0004                move.w     -[A7], 0x4
00004262  4EBA 011E                jsr        [PC + 0x11E /* 00004382 */]
00004266  4FEF 000A                lea.l      A7, [A7 + 0xA]
0000426A  6000 00D6                bra        +0xD8 /* 00004342 */
label0000426E:
0000426E  2F3C 0000 0829           move.l     -[A7], 0x829
00004274  2F3C 5052 4353           move.l     -[A7], 0x50524353 /* 'PRCS' */
0000427A  3F3C 0002                move.w     -[A7], 0x2
0000427E  4EBA 0102                jsr        [PC + 0x102 /* 00004382 */]
00004282  4FEF 000A                lea.l      A7, [A7 + 0xA]
00004286  6000 00BA                bra        +0xBC /* 00004342 */
label0000428A:
0000428A  2F3C 0000 0831           move.l     -[A7], 0x831
00004290  2F3C 5241 4843           move.l     -[A7], 0x52414843 /* 'RAHC' */
00004296  3F3C 0006                move.w     -[A7], 0x6
0000429A  4EBA 00E6                jsr        [PC + 0xE6 /* 00004382 */]
0000429E  4FEF 000A                lea.l      A7, [A7 + 0xA]
000042A2  6000 009E                bra        +0xA0 /* 00004342 */
label000042A6:
000042A6  4EAD 0902                jsr        [A5 + 0x902 /* export_284, CODE:5 @ 00000DE8 */]
000042AA  3B40 C922                move.w     [A5 - 0x36DE], D0
000042AE  3F00                     move.w     -[A7], D0
000042B0  486D C924                pea.l      [A5 - 0x36DC]
000042B4  4EBA FE3A                jsr        [PC - 0x1C6 /* 000040F0 */]
000042B8  302D C922                move.w     D0, [A5 - 0x36DE]
000042BC  E548                     lsl        D0.w, 2
000042BE  3E80                     move.w     [A7], D0
000042C0  486D C928                pea.l      [A5 - 0x36D8]
000042C4  4EBA FE2A                jsr        [PC - 0x1D6 /* 000040F0 */]
000042C8  7000                     moveq.l    D0, 0x00
000042CA  302D C922                move.w     D0, [A5 - 0x36DE]
000042CE  2E80                     move.l     [A7], D0
000042D0  2F2D C924                move.l     -[A7], [A5 - 0x36DC]
000042D4  3F2D EC98                move.w     -[A7], [A5 - 0x1368]
000042D8  4EAD 0942                jsr        [A5 + 0x942 /* export_292, CODE:5 @ 00000C5A */]
000042DC  7000                     moveq.l    D0, 0x00
000042DE  302D C922                move.w     D0, [A5 - 0x36DE]
000042E2  E588                     lsl        D0, 2
000042E4  2E80                     move.l     [A7], D0
000042E6  2F2D C928                move.l     -[A7], [A5 - 0x36D8]
000042EA  3F2D EC98                move.w     -[A7], [A5 - 0x1368]
000042EE  4EAD 0942                jsr        [A5 + 0x942 /* export_292, CODE:5 @ 00000C5A */]
000042F2  426E FFFE                clr.w      [A6 - 0x2]
000042F6  4FEF 0016                lea.l      A7, [A7 + 0x16]
000042FA  6026                     bra        +0x28 /* 00004322 */
label000042FC:
000042FC  302E FFFE                move.w     D0, [A6 - 0x2]
00004300  48C0                     ext.l      D0
00004302  E588                     lsl        D0, 2
00004304  2F35 0925 C928           move.l     -[A7], [[A5 - 0x36D8] + D0]
0000430A  4EAD 0C1A                jsr        [A5 + 0xC1A /* export_383, CODE:6 @ 00000000 */]
0000430E  322E FFFE                move.w     D1, [A6 - 0x2]
00004312  48C1                     ext.l      D1
00004314  E589                     lsl        D1, 2
00004316  2B80 1925 C928           move.l     [[A5 - 0x36D8] + D1], D0
0000431C  588F                     addq.l     A7, 4
0000431E  526E FFFE                addq.w     [A6 - 0x2], 1
label00004322:
00004322  302E FFFE                move.w     D0, [A6 - 0x2]
00004326  B06D C922                cmp.w      D0, [A5 - 0x36DE]
0000432A  65D0                     bcs        -0x2E /* 000042FC */
0000432C  6014                     bra        +0x16 /* 00004342 */
label0000432E:
0000432E  2F07                     move.l     -[A7], D7
00004330  4EBA C67A                jsr        [PC - 0x3986 /* 000009AC */]
00004334  2E80                     move.l     [A7], D0
00004336  2F3C 0000 0839           move.l     -[A7], 0x839
0000433C  4EAD 0A42                jsr        [A5 + 0xA42 /* export_324, CODE:5 @ 000034B4 */]
00004340  508F                     addq.l     A7, 8
label00004342:
00004342  3F2D EC98                move.w     -[A7], [A5 - 0x1368]
00004346  4EAD 093A                jsr        [A5 + 0x93A /* export_291, CODE:5 @ 00000C12 */]
0000434A  4A40                     tst.w      D0
0000434C  548F                     addq.l     A7, 2
0000434E  6700 FE04                beq        -0x1FA /* 00004154 */
label00004352:
00004352  0C45 0008                cmpi.w     D5, 0x8
00004356  670C                     beq        +0xE /* 00004364 */
00004358  2F3C 0000 0857           move.l     -[A7], 0x857
0000435E  4EAD 0A42                jsr        [A5 + 0xA42 /* export_324, CODE:5 @ 000034B4 */]
00004362  588F                     addq.l     A7, 4
label00004364:
00004364  3F3C FFFF                move.w     -[A7], 0xFFFF
00004368  4EBA F970                jsr        [PC - 0x690 /* 00003CDA */]
0000436C  1B6D B10B EC8E           move.b     [A5 - 0x1372], [A5 - 0x4EF5]
00004372  3B7C 0001 9BE2           move.w     [A5 - 0x641E], 0x1
00004378  4CEE 00E0 FFEE           movem.l    D5,D6,D7, [A6 - 0x12]
0000437E  4E5E                     unlink     A6
00004380  4E75                     rts
fn00004382:
00004382  4E56 0000                link       A6, 0
00004386  48E7 0718                movem.l    -[A7], D5,D6,D7,A3,A4
0000438A  3A2E 0008                move.w     D5, [A6 + 0x8]
0000438E  4EAD 0902                jsr        [A5 + 0x902 /* export_284, CODE:5 @ 00000DE8 */]
00004392  3E00                     move.w     D7, D0
00004394  0C47 00FF                cmpi.w     D7, 0xFF
00004398  6F14                     ble        +0x16 /* 000043AE */
0000439A  3F07                     move.w     -[A7], D7
0000439C  2F2E 000E                move.l     -[A7], [A6 + 0xE]
000043A0  2F3C 0000 087D           move.l     -[A7], 0x87D
000043A6  4EAD 0A42                jsr        [A5 + 0xA42 /* export_324, CODE:5 @ 000034B4 */]
000043AA  4FEF 000A                lea.l      A7, [A7 + 0xA]
label000043AE:
000043AE  3F3C 0001                move.w     -[A7], 0x1
000043B2  2F2E 000E                move.l     -[A7], [A6 + 0xE]
000043B6  3F07                     move.w     -[A7], D7
000043B8  2F2E 000A                move.l     -[A7], [A6 + 0xA]
000043BC  3F05                     move.w     -[A7], D5
000043BE  4EAD 03FA                jsr        [A5 + 0x3FA /* export_123, CODE:2 @ 00003C5C */]
000043C2  3047                     movea.w    A0, D7
000043C4  2E88                     move.l     [A7], A0
000043C6  7000                     moveq.l    D0, 0x00
000043C8  3005                     move.w     D0, D5
000043CA  2F35 0D20 B226           move.l     -[A7], [A5 - 0x4DDA + D0 * 4]
000043D0  3F2D EC98                move.w     -[A7], [A5 - 0x1368]
000043D4  4EAD 0942                jsr        [A5 + 0x942 /* export_292, CODE:5 @ 00000C5A */]
000043D8  7000                     moveq.l    D0, 0x00
000043DA  3005                     move.w     D0, D5
000043DC  49F5 0D20 B266           lea.l      A4, [A5 - 0x4D9A + D0 * 4]
000043E2  4870 7590                pea.l      [ + D7 * 4]
000043E6  2F14                     move.l     -[A7], [A4]
000043E8  3F2D EC98                move.w     -[A7], [A5 - 0x1368]
000043EC  4EAD 0942                jsr        [A5 + 0x942 /* export_292, CODE:5 @ 00000C5A */]
000043F0  7C00                     moveq.l    D6, 0x00
000043F2  97CB                     sub.l      A3, A3
000043F4  4FEF 001E                lea.l      A7, [A7 + 0x1E]
000043F8  6012                     bra        +0x14 /* 0000440C */
label000043FA:
000043FA  2F34 B915                move.l     -[A7], [[A4] + A3]
000043FE  4EAD 0C1A                jsr        [A5 + 0xC1A /* export_383, CODE:6 @ 00000000 */]
00004402  2980 B915                move.l     [[A4] + A3], D0
00004406  588F                     addq.l     A7, 4
00004408  5246                     addq.w     D6, 1
0000440A  588B                     addq.l     A3, 4
label0000440C:
0000440C  BE46                     cmp.w      D7, D6
0000440E  6EEA                     bgt        -0x14 /* 000043FA */
00004410  4CDF 18E0                movem.l    D5,D6,D7,A3,A4, [A7]+
00004414  4E5E                     unlink     A6
00004416  4E75                     rts
export_201:
fn00004418:
00004418  4E56 0000                link       A6, 0
0000441C  48E7 0300                movem.l    -[A7], D6,D7
00004420  3E2E 0008                move.w     D7, [A6 + 0x8]
00004424  3C2E 000A                move.w     D6, [A6 + 0xA]
00004428  0C47 0001                cmpi.w     D7, 0x1
0000442C  6612                     bne        +0x14 /* 00004440 */
0000442E  0C46 007F                cmpi.w     D6, 0x7F
00004432  6F0C                     ble        +0xE /* 00004440 */
00004434  707F                     moveq.l    D0, 0x7F
00004436  C046                     and.w      D0, D6
00004438  7C00                     moveq.l    D6, 0x00
0000443A  1C35 0120 D316           move.b     D6, [A5 - 0x2CEA + D0]
label00004440:
00004440  4A46                     tst.w      D6
00004442  672E                     beq        +0x30 /* 00004472 */
00004444  41F0 6590                lea.l      A0, [ + D6 * 4]
00004448  D1F5 7520 B166           add.l      A0, [A5 - 0x4E9A + D7 * 4]
0000444E  4A90                     tst.l      [A0]
00004450  6620                     bne        +0x22 /* 00004472 */
00004452  3F06                     move.w     -[A7], D6
00004454  3F07                     move.w     -[A7], D7
00004456  4EBA 0022                jsr        [PC + 0x22 /* 0000447A */]
0000445A  0C47 0001                cmpi.w     D7, 0x1
0000445E  588F                     addq.l     A7, 4
00004460  6610                     bne        +0x12 /* 00004472 */
00004462  7000                     moveq.l    D0, 0x00
00004464  102D B2D7                move.b     D0, [A5 - 0x4D29]
00004468  B046                     cmp.w      D0, D6
0000446A  6606                     bne        +0x8 /* 00004472 */
0000446C  3B7C 0001 C9B8           move.w     [A5 - 0x3648], 0x1
label00004472:
00004472  4CDF 00C0                movem.l    D6,D7, [A7]+
00004476  4E5E                     unlink     A6
00004478  4E75                     rts
fn0000447A:
0000447A  4E56 FFFA                link       A6, -0x0006
0000447E  48E7 1F08                movem.l    -[A7], D3,D4,D5,D6,D7,A4
00004482  3A2E 0008                move.w     D5, [A6 + 0x8]
00004486  3C2E 000A                move.w     D6, [A6 + 0xA]
0000448A  3F06                     move.w     -[A7], D6
0000448C  3F05                     move.w     -[A7], D5
0000448E  4EAD 0422                jsr        [A5 + 0x422 /* export_128, CODE:2 @ 00004224 */]
00004492  3E00                     move.w     D7, D0
00004494  4A47                     tst.w      D7
00004496  588F                     addq.l     A7, 4
00004498  6708                     beq        +0xA /* 000044A2 */
0000449A  BC75 5320 B106           cmp.w      D6, [A5 - 0x4EFA + D5 * 2]
000044A0  6D16                     blt        +0x18 /* 000044B8 */
label000044A2:
000044A2  3F06                     move.w     -[A7], D6
000044A4  2F35 5520 B1A6           move.l     -[A7], [A5 - 0x4E5A + D5 * 4]
000044AA  2F3C 0000 089D           move.l     -[A7], 0x89D
000044B0  4EAD 0A42                jsr        [A5 + 0xA42 /* export_324, CODE:5 @ 000034B4 */]
000044B4  4FEF 000A                lea.l      A7, [A7 + 0xA]
label000044B8:
000044B8  0C45 0001                cmpi.w     D5, 0x1
000044BC  6604                     bne        +0x6 /* 000044C2 */
000044BE  7800                     moveq.l    D4, 0x00
000044C0  600C                     bra        +0xE /* 000044CE */
label000044C2:
000044C2  41F0 6590                lea.l      A0, [ + D6 * 4]
000044C6  D1F5 5520 B266           add.l      A0, [A5 - 0x4D9A + D5 * 4]
000044CC  2810                     move.l     D4, [A0]
label000044CE:
000044CE  426E FFFA                clr.w      [A6 - 0x6]
000044D2  6000 00BC                bra        +0xBE /* 00004590 */
label000044D6:
000044D6  3F07                     move.w     -[A7], D7
000044D8  4EBA F800                jsr        [PC - 0x800 /* 00003CDA */]
000044DC  4257                     clr.w      [A7]
000044DE  4875 4925 9BE4           pea.l      [[A5 - 0x641C] + D4]
000044E4  3F2D EC98                move.w     -[A7], [A5 - 0x1368]
000044E8  4EAD 091A                jsr        [A5 + 0x91A /* export_287, CODE:5 @ 00000C26 */]
000044EC  0C45 0004                cmpi.w     D5, 0x4
000044F0  508F                     addq.l     A7, 8
000044F2  6614                     bne        +0x16 /* 00004508 */
000044F4  4EAD 090A                jsr        [A5 + 0x90A /* export_285, CODE:5 @ 00000DFC */]
000044F8  4EAD 090A                jsr        [A5 + 0x90A /* export_285, CODE:5 @ 00000DFC */]
000044FC  3F06                     move.w     -[A7], D6
000044FE  3F05                     move.w     -[A7], D5
00004500  4EAD 0ACA                jsr        [A5 + 0xACA /* export_341, CODE:5 @ 00003876 */]
00004504  6000 00D2                bra        +0xD4 /* 000045D8 */
label00004508:
00004508  4EAD 090A                jsr        [A5 + 0x90A /* export_285, CODE:5 @ 00000DFC */]
0000450C  2600                     move.l     D3, D0
0000450E  49F0 5590                lea.l      A4, [ + D5 * 4]
00004512  41ED B126                lea.l      A0, [A5 - 0x4EDA]
00004516  D1CC                     add.l      A0, A4
00004518  B690                     cmp.l      D3, [A0]
0000451A  6720                     beq        +0x22 /* 0000453C */
0000451C  2F04                     move.l     -[A7], D4
0000451E  2F2D 9BE4                move.l     -[A7], [A5 - 0x641C]
00004522  3F07                     move.w     -[A7], D7
00004524  3F06                     move.w     -[A7], D6
00004526  41ED B1A6                lea.l      A0, [A5 - 0x4E5A]
0000452A  D1CC                     add.l      A0, A4
0000452C  2F10                     move.l     -[A7], [A0]
0000452E  2F3C 0000 08AD           move.l     -[A7], 0x8AD
00004534  4EAD 0A42                jsr        [A5 + 0xA42 /* export_324, CODE:5 @ 000034B4 */]
00004538  4FEF 0014                lea.l      A7, [A7 + 0x14]
label0000453C:
0000453C  4EAD 0912                jsr        [A5 + 0x912 /* export_286, CODE:5 @ 00000E36 */]
00004540  2600                     move.l     D3, D0
00004542  3F3C 0001                move.w     -[A7], 0x1
00004546  4878 FFF8                push.l     0xFFF8
0000454A  3F2D EC98                move.w     -[A7], [A5 - 0x1368]
0000454E  4EAD 091A                jsr        [A5 + 0x91A /* export_287, CODE:5 @ 00000C26 */]
00004552  2E83                     move.l     [A7], D3
00004554  2F03                     move.l     -[A7], D3
00004556  3F06                     move.w     -[A7], D6
00004558  3F05                     move.w     -[A7], D5
0000455A  4EAD 03EA                jsr        [A5 + 0x3EA /* export_121, CODE:2 @ 00003D92 */]
0000455E  588F                     addq.l     A7, 4
00004560  2E80                     move.l     [A7], D0
00004562  3F2D EC98                move.w     -[A7], [A5 - 0x1368]
00004566  4EAD 0942                jsr        [A5 + 0x942 /* export_292, CODE:5 @ 00000C5A */]
0000456A  3EAD EC98                move.w     [A7], [A5 - 0x1368]
0000456E  4EAD 0932                jsr        [A5 + 0x932 /* export_290, CODE:5 @ 00000BFA */]
00004572  4A40                     tst.w      D0
00004574  4FEF 000E                lea.l      A7, [A7 + 0xE]
00004578  6608                     bne        +0xA /* 00004582 */
0000457A  426D ECD4                clr.w      [A5 - 0x132C]
0000457E  7001                     moveq.l    D0, 0x01
00004580  6056                     bra        +0x58 /* 000045D8 */
label00004582:
00004582  3F06                     move.w     -[A7], D6
00004584  3F05                     move.w     -[A7], D5
00004586  4EAD 03F2                jsr        [A5 + 0x3F2 /* export_122, CODE:2 @ 00003D58 */]
0000458A  588F                     addq.l     A7, 4
0000458C  526E FFFA                addq.w     [A6 - 0x6], 1
label00004590:
00004590  0C6E 0005 FFFA           cmpi.w     [A6 - 0x6], 0x5
00004596  6D00 FF3E                blt        -0xC0 /* 000044D6 */
0000459A  3F3C 0003                move.w     -[A7], 0x3
0000459E  4EBA D7F8                jsr        [PC - 0x2808 /* 00001D98 */]
000045A2  3E86                     move.w     [A7], D6
000045A4  2F35 5520 B126           move.l     -[A7], [A5 - 0x4EDA + D5 * 4]
000045AA  4EBA C400                jsr        [PC - 0x3C00 /* 000009AC */]
000045AE  2E80                     move.l     [A7], D0
000045B0  486D 9BE8                pea.l      [A5 - 0x6418]
000045B4  486D F630                pea.l      [A5 - 0x9D0]
000045B8  486D F680                pea.l      [A5 - 0x980]
000045BC  4EAD 0CC2                jsr        [A5 + 0xCC2 /* export_404, CODE:7 @ 000048E6 */]
000045C0  4257                     clr.w      [A7]
000045C2  486D F680                pea.l      [A5 - 0x980]
000045C6  2F3C 00FF 0009           move.l     -[A7], 0xFF0009
000045CC  4EBA D828                jsr        [PC - 0x27D8 /* 00001DF6 */]
000045D0  4FEF 0012                lea.l      A7, [A7 + 0x12]
000045D4  6000 FEF8                bra        -0x106 /* 000044CE */
label000045D8:
000045D8  4CEE 10F8 FFE2           movem.l    D3,D4,D5,D6,D7,A4, [A6 - 0x1E]
000045DE  4E5E                     unlink     A6
000045E0  4E75                     rts
