# near model CODE resource
# jump table entries: 728-744 (17 of them)
fn00000000:
00000000  4E56 FFEA                link       A6, -0x0016
00000004  48E7 0300                movem.l    -[A7], D6,D7
00000008  422E 0008                clr.b      [A6 + 0x8]
0000000C  3C2D B8B4                move.w     D6, [A5 - 0x474C]
00000010  0C46 0001                cmpi.w     D6, 0x1
00000014  5DC0                     slt        D0
00000016  0C46 0028                cmpi.w     D6, 0x28 /* '(' */
0000001A  5EC1                     sgt        D1
0000001C  8001                     or.b       D0, D1
0000001E  6640                     bne        +0x42 /* 00000060 */
00000020  3D46 FFEA                move.w     [A6 - 0x16], D6
00000024  7E01                     moveq.l    D7, 0x01
00000026  602C                     bra        +0x2E /* 00000054 */
label00000028:
00000028  3007                     move.w     D0, D7
0000002A  C1FC 013A                muls.w     D0, 0x13A
0000002E  0640 BC8A                addi.w     D0, 0xBC8A
00000032  0C75 00C8 0000           cmpi.w     [A5 + D0.w], 0xC8
00000038  5DC0                     slt        D0
0000003A  3207                     move.w     D1, D7
0000003C  C3FC 013A                muls.w     D1, 0x13A
00000040  0641 BC8A                addi.w     D1, 0xBC8A
00000044  0C75 00D7 1000           cmpi.w     [A5 + D1.w], 0xD7
0000004A  5EC1                     sgt        D1
0000004C  8001                     or.b       D0, D1
0000004E  6610                     bne        +0x12 /* 00000060 */
00000050  5247                     addq.w     D7, 1
00000052  6906                     bvs        +0x8 /* 0000005A */
label00000054:
00000054  BE6E FFEA                cmp.w      D7, [A6 - 0x16]
00000058  6FCE                     ble        -0x30 /* 00000028 */
label0000005A:
0000005A  1D7C 0001 0008           move.b     [A6 + 0x8], 0x1
label00000060:
00000060  4CDF 00C0                movem.l    D6,D7, [A7]+
00000064  4E5E                     unlink     A6
00000066  4E75                     rts
fn00000068:
00000068  4E56 FCE2                link       A6, -0x031E
0000006C  48E7 0308                movem.l    -[A7], D6,D7,A4
00000070  3C2E 0008                move.w     D6, [A6 + 0x8]
00000074  A850                     syscall    InitCursor
00000076  3F2D F84C                move.w     -[A7], [A5 - 0x7B4]
0000007A  A998                     syscall    UseResFile
0000007C  4A46                     tst.w      D6
0000007E  6700 0196                beq        +0x198 /* 00000216 */
00000082  3006                     move.w     D0, D6
00000084  6000 008E                bra        +0x90 /* 00000114 */
label00000088:
00000088  486E FEEE                pea.l      [A6 - 0x112]
0000008C  3F3C 0081                move.w     -[A7], 0x81
00000090  3F3C 0001                move.w     -[A7], 0x1
00000094  4EAD 0162                jsr        [A5 + 0x162 /* export_40, CODE:1 @ 0000093A */]
00000098  6000 00B0                bra        +0xB2 /* 0000014A */
label0000009C:
0000009C  1B7C 0001 FE89           move.b     [A5 - 0x177], 0x1
000000A2  486E FEEE                pea.l      [A6 - 0x112]
000000A6  3F3C 0081                move.w     -[A7], 0x81
000000AA  3F3C 0002                move.w     -[A7], 0x2
000000AE  4EAD 0162                jsr        [A5 + 0x162 /* export_40, CODE:1 @ 0000093A */]
000000B2  6000 0096                bra        +0x98 /* 0000014A */
label000000B6:
000000B6  486E FEEE                pea.l      [A6 - 0x112]
000000BA  3F3C 0081                move.w     -[A7], 0x81
000000BE  3F3C 0003                move.w     -[A7], 0x3
000000C2  4EAD 0162                jsr        [A5 + 0x162 /* export_40, CODE:1 @ 0000093A */]
000000C6  6000 0082                bra        +0x84 /* 0000014A */
label000000CA:
000000CA  486E FEEE                pea.l      [A6 - 0x112]
000000CE  3F3C 0081                move.w     -[A7], 0x81
000000D2  3F3C 0004                move.w     -[A7], 0x4
000000D6  4EAD 0162                jsr        [A5 + 0x162 /* export_40, CODE:1 @ 0000093A */]
000000DA  6000 006E                bra        +0x70 /* 0000014A */
label000000DE:
000000DE  486E FEEE                pea.l      [A6 - 0x112]
000000E2  3F3C 0081                move.w     -[A7], 0x81
000000E6  3F3C 0005                move.w     -[A7], 0x5
000000EA  4EAD 0162                jsr        [A5 + 0x162 /* export_40, CODE:1 @ 0000093A */]
000000EE  605A                     bra        +0x5C /* 0000014A */
label000000F0:
000000F0  486E FEEE                pea.l      [A6 - 0x112]
000000F4  3F3C 0081                move.w     -[A7], 0x81
000000F8  3F3C 0006                move.w     -[A7], 0x6
000000FC  4EAD 0162                jsr        [A5 + 0x162 /* export_40, CODE:1 @ 0000093A */]
00000100  6048                     bra        +0x4A /* 0000014A */
label00000102:
00000102  486E FEEE                pea.l      [A6 - 0x112]
00000106  3F3C 0081                move.w     -[A7], 0x81
0000010A  3F3C 0007                move.w     -[A7], 0x7
0000010E  4EAD 0162                jsr        [A5 + 0x162 /* export_40, CODE:1 @ 0000093A */]
00000112  6036                     bra        +0x38 /* 0000014A */
label00000114:
00000114  0640 0031                addi.w     D0, 0x31 /* '1' */
00000118  67D6                     beq        -0x28 /* 000000F0 */
0000011A  5540                     subq.w     D0, 2
0000011C  67D2                     beq        -0x2C /* 000000F0 */
0000011E  5340                     subq.w     D0, 1
00000120  67BC                     beq        -0x42 /* 000000DE */
00000122  5340                     subq.w     D0, 1
00000124  67A4                     beq        -0x5A /* 000000CA */
00000126  5340                     subq.w     D0, 1
00000128  678C                     beq        -0x72 /* 000000B6 */
0000012A  5340                     subq.w     D0, 1
0000012C  6700 FF6E                beq        -0x90 /* 0000009C */
00000130  5940                     subq.w     D0, 4
00000132  67CE                     beq        -0x30 /* 00000102 */
00000134  5B40                     subq.w     D0, 5
00000136  6700 FF50                beq        -0xAE /* 00000088 */
0000013A  486E FEEE                pea.l      [A6 - 0x112]
0000013E  3F3C 0081                move.w     -[A7], 0x81
00000142  3F3C 000A                move.w     -[A7], 0xA /* '\n' */
00000146  4EAD 0162                jsr        [A5 + 0x162 /* export_40, CODE:1 @ 0000093A */]
label0000014A:
0000014A  3006                     move.w     D0, D6
0000014C  48C0                     ext.l      D0
0000014E  2F00                     move.l     -[A7], D0
00000150  486E FDEE                pea.l      [A6 - 0x212]
00000154  4EAD 0192                jsr        [A5 + 0x192 /* export_46, CODE:1 @ 00000B46 */]
00000158  486E FCE2                pea.l      [A6 - 0x31E]
0000015C  487A 00CC                pea.l      [PC + 0xCC /* 0000022A, value 0xD457272 '\rErr', pstring "Error code = " */]
00000160  486E FDEE                pea.l      [A6 - 0x212]
00000164  3F3C 0002                move.w     -[A7], 0x2
00000168  4EAD 002A                jsr        [A5 + 0x2A /* export_1, CODE:1 @ 00000000 */]
0000016C  584F                     addq.w     A7, 4
0000016E  3F3C 00FF                move.w     -[A7], 0xFF
00000172  486E FCE2                pea.l      [A6 - 0x31E]
00000176  486E FDEE                pea.l      [A6 - 0x212]
0000017A  4EAD 005A                jsr        [A5 + 0x5A /* export_7, CODE:1 @ 0000025C */]
0000017E  486E FEEE                pea.l      [A6 - 0x112]
00000182  486E FDEE                pea.l      [A6 - 0x212]
00000186  487A 00A0                pea.l      [PC + 0xA0 /* 00000228, value 0x120D45, cstring "" */]
0000018A  487A 009A                pea.l      [PC + 0x9A /* 00000226, value 0x160012, cstring "" */]
0000018E  A98B                     syscall    ParamText
00000190  594F                     subq.w     A7, 4
00000192  2F3C 414C 5254           move.l     -[A7], 0x414C5254 /* 'ALRT' */
00000198  3F3C 0081                move.w     -[A7], 0x81
0000019C  A81F                     syscall    Get1Resource
0000019E  285F                     movea.l    A4, [A7]+
000001A0  200C                     move.l     D0, A4
000001A2  6766                     beq        +0x68 /* 0000020A */
000001A4  2F0C                     move.l     -[A7], A4
000001A6  4EAD 00A2                jsr        [A5 + 0xA2 /* export_16, CODE:1 @ 000005E8 */]
000001AA  2054                     movea.l    A0, [A4]
000001AC  43EE FDE2                lea.l      A1, [A6 - 0x21E]
000001B0  22D8                     move.l     [A1]+, [A0]+
000001B2  22D8                     move.l     [A1]+, [A0]+
000001B4  486E FDE2                pea.l      [A6 - 0x21E]
000001B8  302E FDE4                move.w     D0, [A6 - 0x21C]
000001BC  4440                     neg.w      D0
000001BE  3F00                     move.w     -[A7], D0
000001C0  302E FDE2                move.w     D0, [A6 - 0x21E]
000001C4  4440                     neg.w      D0
000001C6  3F00                     move.w     -[A7], D0
000001C8  A8A8                     syscall    OffsetRect
000001CA  3E2D FF5C                move.w     D7, [A5 - 0xA4]
000001CE  9E6E FDE8                sub.w      D7, [A6 - 0x218]
000001D2  48C7                     ext.l      D7
000001D4  8FFC 0002                divs.w     D7, 0x2
000001D8  486E FDE2                pea.l      [A6 - 0x21E]
000001DC  3F07                     move.w     -[A7], D7
000001DE  4267                     clr.w      -[A7]
000001E0  A8A8                     syscall    OffsetRect
000001E2  3E2D FF5A                move.w     D7, [A5 - 0xA6]
000001E6  9E6E FDE6                sub.w      D7, [A6 - 0x21A]
000001EA  48C7                     ext.l      D7
000001EC  8FFC 0003                divs.w     D7, 0x3
000001F0  486E FDE2                pea.l      [A6 - 0x21E]
000001F4  4267                     clr.w      -[A7]
000001F6  3F07                     move.w     -[A7], D7
000001F8  A8A8                     syscall    OffsetRect
000001FA  2054                     movea.l    A0, [A4]
000001FC  43EE FDE2                lea.l      A1, [A6 - 0x21E]
00000200  20D9                     move.l     [A0]+, [A1]+
00000202  20D9                     move.l     [A0]+, [A1]+
00000204  2F0C                     move.l     -[A7], A4
00000206  4EAD 009A                jsr        [A5 + 0x9A /* export_15, CODE:1 @ 000005DE */]
label0000020A:
0000020A  554F                     subq.w     A7, 2
0000020C  3F3C 0081                move.w     -[A7], 0x81
00000210  42A7                     clr.l      -[A7]
00000212  A985                     syscall    Alert
00000214  3E1F                     move.w     D7, [A7]+
label00000216:
00000216  3D46 000A                move.w     [A6 + 0xA], D6
0000021A  4CDF 10C0                movem.l    D6,D7,A4, [A7]+
0000021E  4E5E                     unlink     A6
00000220  205F                     movea.l    A0, [A7]+
00000222  544F                     addq.w     A7, 2
00000224  4ED0                     jmp        [A0]
00000226  0016 0012                ori.b      [A6], 0x12
0000022A  0D45                     bchg       D5, D6
0000022C  7272                     moveq.l    D1, 0x72
0000022E  6F72                     ble        +0x74 /* 000002A2 */
00000230  2063                     movea.l    A0, -[A3]
00000232  6F64                     ble        +0x66 /* 00000298 */
00000234  6520                     bcs        +0x22 /* 00000256 */
00000236  3D20                     move.w     -[A6], -[A0]
fn00000238:
00000238  4E56 FFE8                link       A6, -0x0018
0000023C  422E 0008                clr.b      [A6 + 0x8]
00000240  554F                     subq.w     A7, 2
00000242  42A7                     clr.l      -[A7]
00000244  3F2D F878                move.w     -[A7], [A5 - 0x788]
00000248  4EAD 00FA                jsr        [A5 + 0xFA /* export_27, CODE:1 @ 00000722 */]
0000024C  3B5F EEC8                move.w     [A5 - 0x1138], [A7]+
00000250  554F                     subq.w     A7, 2
00000252  3F2D EEC8                move.w     -[A7], [A5 - 0x1138]
label00000256:
00000256  4EBA FE10                jsr        [PC - 0x1F0 /* 00000068 */]
0000025A  4A5F                     tst.w      [A7]+
0000025C  6600 0100                bne        +0x102 /* 0000035E */
00000260  554F                     subq.w     A7, 2
00000262  486D F986                pea.l      [A5 - 0x67A]
00000266  3F2D F878                move.w     -[A7], [A5 - 0x788]
0000026A  486D F874                pea.l      [A5 - 0x78C]
0000026E  4EAD 00CA                jsr        [A5 + 0xCA /* export_21, CODE:1 @ 00000628 */]
00000272  3B5F EEC8                move.w     [A5 - 0x1138], [A7]+
00000276  554F                     subq.w     A7, 2
00000278  3F2D EEC8                move.w     -[A7], [A5 - 0x1138]
0000027C  4EBA FDEA                jsr        [PC - 0x216 /* 00000068 */]
00000280  4A5F                     tst.w      [A7]+
00000282  675E                     beq        +0x60 /* 000002E2 */
00000284  554F                     subq.w     A7, 2
00000286  4267                     clr.w      -[A7]
00000288  4EBA 018E                jsr        [PC + 0x18E /* 00000418 */]
0000028C  101F                     move.b     D0, [A7]+
0000028E  5300                     subq.b     D0, 1
00000290  6716                     beq        +0x18 /* 000002A8 */
00000292  422D FE7F                clr.b      [A5 - 0x181]
00000296  554F                     subq.w     A7, 2
label00000298:
00000298  3F2D F874                move.w     -[A7], [A5 - 0x78C]
0000029C  4EAD 00D2                jsr        [A5 + 0xD2 /* export_22, CODE:1 @ 00000660 */]
000002A0  3B5F EEC8                move.w     [A5 - 0x1138], [A7]+
// begin alternate branch 000002A2-000002AE
label000002A2:
000002A2  EEC8 6000                bfset      A0 {0:32}
000002A6  00B8 554F 486D F986      ori.l      [0xFFFFF986], 0x554F486D /* 'UOHm' */
// end alternate branch 000002A2-000002AE
label000002A2: // (misaligned)
000002A4  6000 00B8                bra        +0xBA /* 0000035E */
label000002A8:
000002A8  554F                     subq.w     A7, 2
000002AA  486D F986                pea.l      [A5 - 0x67A]
000002AE  3F2D F878                move.w     -[A7], [A5 - 0x788]
000002B2  486D F874                pea.l      [A5 - 0x78C]
000002B6  4EAD 00CA                jsr        [A5 + 0xCA /* export_21, CODE:1 @ 00000628 */]
000002BA  3B5F EEC8                move.w     [A5 - 0x1138], [A7]+
000002BE  554F                     subq.w     A7, 2
000002C0  3F2D EEC8                move.w     -[A7], [A5 - 0x1138]
000002C4  4EBA FDA2                jsr        [PC - 0x25E /* 00000068 */]
000002C8  4A5F                     tst.w      [A7]+
000002CA  6716                     beq        +0x18 /* 000002E2 */
000002CC  422D FE7F                clr.b      [A5 - 0x181]
000002D0  554F                     subq.w     A7, 2
000002D2  3F2D F874                move.w     -[A7], [A5 - 0x78C]
000002D6  4EAD 00D2                jsr        [A5 + 0xD2 /* export_22, CODE:1 @ 00000660 */]
000002DA  3B5F EEC8                move.w     [A5 - 0x1138], [A7]+
000002DE  6000 007E                bra        +0x80 /* 0000035E */
label000002E2:
000002E2  554F                     subq.w     A7, 2
000002E4  3F2D F874                move.w     -[A7], [A5 - 0x78C]
000002E8  3F3C 0001                move.w     -[A7], 0x1
000002EC  42A7                     clr.l      -[A7]
000002EE  4EAD 011A                jsr        [A5 + 0x11A /* export_31, CODE:1 @ 000007C8 */]
000002F2  3B5F EEC8                move.w     [A5 - 0x1138], [A7]+
000002F6  554F                     subq.w     A7, 2
000002F8  3F2D EEC8                move.w     -[A7], [A5 - 0x1138]
000002FC  4EBA FD6A                jsr        [PC - 0x296 /* 00000068 */]
00000300  4A5F                     tst.w      [A7]+
00000302  6714                     beq        +0x16 /* 00000318 */
00000304  422D FE7F                clr.b      [A5 - 0x181]
00000308  554F                     subq.w     A7, 2
0000030A  3F2D F874                move.w     -[A7], [A5 - 0x78C]
0000030E  4EAD 00D2                jsr        [A5 + 0xD2 /* export_22, CODE:1 @ 00000660 */]
00000312  3B5F EEC8                move.w     [A5 - 0x1138], [A7]+
00000316  6046                     bra        +0x48 /* 0000035E */
label00000318:
00000318  2D7C 0000 3606 FFEA      move.l     [A6 - 0x16], 0x3606
00000320  554F                     subq.w     A7, 2
00000322  3F2D F874                move.w     -[A7], [A5 - 0x78C]
00000326  486E FFEA                pea.l      [A6 - 0x16]
0000032A  486D B8B2                pea.l      [A5 - 0x474E]
0000032E  4EAD 00DA                jsr        [A5 + 0xDA /* export_23, CODE:1 @ 0000067C */]
00000332  3B5F EEC8                move.w     [A5 - 0x1138], [A7]+
00000336  554F                     subq.w     A7, 2
00000338  3F2D EEC8                move.w     -[A7], [A5 - 0x1138]
0000033C  4EBA FD2A                jsr        [PC - 0x2D6 /* 00000068 */]
00000340  4A5F                     tst.w      [A7]+
00000342  6714                     beq        +0x16 /* 00000358 */
00000344  422D FE7F                clr.b      [A5 - 0x181]
00000348  554F                     subq.w     A7, 2
0000034A  3F2D F874                move.w     -[A7], [A5 - 0x78C]
0000034E  4EAD 00D2                jsr        [A5 + 0xD2 /* export_22, CODE:1 @ 00000660 */]
00000352  3B5F EEC8                move.w     [A5 - 0x1138], [A7]+
00000356  6006                     bra        +0x8 /* 0000035E */
label00000358:
00000358  1D7C 0001 0008           move.b     [A6 + 0x8], 0x1
label0000035E:
0000035E  4E5E                     unlink     A6
00000360  4E75                     rts
export_91:
00000362  4E56 FEE2                link       A6, -0x011E
00000366  3D6E 000C 000E           move.w     [A6 + 0xE], [A6 + 0xC]
0000036C  302E 000C                move.w     D0, [A6 + 0xC]
00000370  6042                     bra        +0x44 /* 000003B4 */
label00000372:
00000372  486E FEE2                pea.l      [A6 - 0x11E]
00000376  3F3C 0082                move.w     -[A7], 0x82
0000037A  3F2D FE8C                move.w     -[A7], [A5 - 0x174]
0000037E  4EAD 0162                jsr        [A5 + 0x162 /* export_40, CODE:1 @ 0000093A */]
00000382  4A2E FEE2                tst.b      [A6 - 0x11E]
00000386  6722                     beq        +0x24 /* 000003AA */
00000388  2F2E 0008                move.l     -[A7], [A6 + 0x8]
0000038C  3F3C 000B                move.w     -[A7], 0xB
00000390  486E FFE2                pea.l      [A6 - 0x1E]
00000394  486E FFEC                pea.l      [A6 - 0x14]
00000398  486E FFE4                pea.l      [A6 - 0x1C]
0000039C  A98D                     syscall    GetDialogItem/GetDItem
0000039E  2F2E FFEC                move.l     -[A7], [A6 - 0x14]
000003A2  486E FEE2                pea.l      [A6 - 0x11E]
000003A6  A98F                     syscall    SetDialogItemText/SetIText
000003A8  600E                     bra        +0x10 /* 000003B8 */
label000003AA:
000003AA  3F3C 000C                move.w     -[A7], 0xC
000003AE  4EAD 01BA                jsr        [A5 + 0x1BA /* export_51, CODE:1 @ 00001AE2 */]
000003B2  6004                     bra        +0x6 /* 000003B8 */
label000003B4:
000003B4  5240                     addq.w     D0, 1
000003B6  67BA                     beq        -0x44 /* 00000372 */
label000003B8:
000003B8  4E5E                     unlink     A6
000003BA  205F                     movea.l    A0, [A7]+
000003BC  5C4F                     addq.w     A7, 6
000003BE  4ED0                     jmp        [A0]
export_92:
000003C0  4E56 0000                link       A6, 0
000003C4  2F0C                     move.l     -[A7], A4
000003C6  1D7C 0001 000C           move.b     [A6 + 0xC], 0x1
000003CC  206E 0008                movea.l    A0, [A6 + 0x8]
000003D0  49E8 0020                lea.l      A4, [A0 + 0x20]
000003D4  302D FE8C                move.w     D0, [A5 - 0x174]
000003D8  602A                     bra        +0x2C /* 00000404 */
label000003DA:
000003DA  0C94 474C 6873           cmpi.l     [A4], 0x474C6873 /* 'GLhs' */
000003E0  662E                     bne        +0x30 /* 00000410 */
000003E2  422E 000C                clr.b      [A6 + 0xC]
000003E6  6028                     bra        +0x2A /* 00000410 */
label000003E8:
000003E8  0C94 474C 626B           cmpi.l     [A4], 0x474C626B /* 'GLbk' */
000003EE  6620                     bne        +0x22 /* 00000410 */
000003F0  422E 000C                clr.b      [A6 + 0xC]
000003F4  601A                     bra        +0x1C /* 00000410 */
label000003F6:
000003F6  0C94 474C 676D           cmpi.l     [A4], 0x474C676D /* 'GLgm' */
000003FC  6612                     bne        +0x14 /* 00000410 */
000003FE  422E 000C                clr.b      [A6 + 0xC]
00000402  600C                     bra        +0xE /* 00000410 */
label00000404:
00000404  5340                     subq.w     D0, 1
00000406  67D2                     beq        -0x2C /* 000003DA */
00000408  5340                     subq.w     D0, 1
0000040A  67DC                     beq        -0x22 /* 000003E8 */
0000040C  5340                     subq.w     D0, 1
0000040E  67E6                     beq        -0x18 /* 000003F6 */
label00000410:
00000410  285F                     movea.l    A4, [A7]+
00000412  4E5E                     unlink     A6
00000414  2E9F                     move.l     [A7], [A7]+
00000416  4E75                     rts
export_93:
fn00000418:
00000418  4E56 FF92                link       A6, -0x006E
0000041C  3F2D F84C                move.w     -[A7], [A5 - 0x7B4]
00000420  A998                     syscall    UseResFile
00000422  486E FFEC                pea.l      [A6 - 0x14]
00000426  302D F848                move.w     D0, [A5 - 0x7B8]
0000042A  0640 0055                addi.w     D0, 0x55 /* 'U' */
0000042E  3F00                     move.w     -[A7], D0
00000430  302D F84A                move.w     D0, [A5 - 0x7B6]
00000434  0640 0032                addi.w     D0, 0x32 /* '2' */
00000438  3F00                     move.w     -[A7], D0
0000043A  A880                     syscall    SetPt
0000043C  302E 0008                move.w     D0, [A6 + 0x8]
00000440  5240                     addq.w     D0, 1
00000442  3B40 FE8C                move.w     [A5 - 0x174], D0
00000446  2F2E FFEC                move.l     -[A7], [A6 - 0x14]
0000044A  487A 008E                pea.l      [PC + 0x8E /* 000004DA, value 0x124E56, cstring "" */]
0000044E  486D 0302                pea.l      [A5 + 0x302 /* export_92, CODE:4 @ 000003C0 */]
00000452  3F3C FFFF                move.w     -[A7], 0xFFFF
00000456  486E FFDC                pea.l      [A6 - 0x24]
0000045A  486D 02FA                pea.l      [A5 + 0x2FA /* export_91, CODE:4 @ 00000362 */]
0000045E  486E FF92                pea.l      [A6 - 0x6E]
00000462  3F3C 0100                move.w     -[A7], 0x100
00000466  42A7                     clr.l      -[A7]
00000468  4EAD 0182                jsr        [A5 + 0x182 /* export_44, CODE:1 @ 00000B30 */]
0000046C  4A2E FF92                tst.b      [A6 - 0x6E]
00000470  675A                     beq        +0x5C /* 000004CC */
00000472  302E 0008                move.w     D0, [A6 + 0x8]
00000476  6048                     bra        +0x4A /* 000004C0 */
label00000478:
00000478  3F3C 0020                move.w     -[A7], 0x20 /* ' ' */
0000047C  486E FF9C                pea.l      [A6 - 0x64]
00000480  486D F986                pea.l      [A5 - 0x67A]
00000484  4EAD 005A                jsr        [A5 + 0x5A /* export_7, CODE:1 @ 0000025C */]
00000488  3B6E FF98 F878           move.w     [A5 - 0x788], [A6 - 0x68]
0000048E  603C                     bra        +0x3E /* 000004CC */
label00000490:
00000490  3F3C 0020                move.w     -[A7], 0x20 /* ' ' */
00000494  486E FF9C                pea.l      [A6 - 0x64]
00000498  486D F920                pea.l      [A5 - 0x6E0]
0000049C  4EAD 005A                jsr        [A5 + 0x5A /* export_7, CODE:1 @ 0000025C */]
000004A0  3B6E FF98 F87C           move.w     [A5 - 0x784], [A6 - 0x68]
000004A6  6024                     bra        +0x26 /* 000004CC */
label000004A8:
000004A8  3F3C 0020                move.w     -[A7], 0x20 /* ' ' */
000004AC  486E FF9C                pea.l      [A6 - 0x64]
000004B0  486D F8FE                pea.l      [A5 - 0x702]
000004B4  4EAD 005A                jsr        [A5 + 0x5A /* export_7, CODE:1 @ 0000025C */]
000004B8  3B6E FF98 F87A           move.w     [A5 - 0x786], [A6 - 0x68]
000004BE  600C                     bra        +0xE /* 000004CC */
label000004C0:
000004C0  67B6                     beq        -0x48 /* 00000478 */
000004C2  5340                     subq.w     D0, 1
000004C4  67CA                     beq        -0x34 /* 00000490 */
000004C6  5340                     subq.w     D0, 1
000004C8  67DE                     beq        -0x20 /* 000004A8 */
000004CA  6006                     bra        +0x8 /* 000004D2 */
label000004CC:
000004CC  1D6E FF92 000A           move.b     [A6 + 0xA], [A6 - 0x6E]
label000004D2:
000004D2  4E5E                     unlink     A6
000004D4  205F                     movea.l    A0, [A7]+
000004D6  544F                     addq.w     A7, 2
000004D8  4ED0                     jmp        [A0]
000004DA  0012 4E56                ori.b      [A2], 0x56 /* 'V' */
// begin alternate branch 000004DC-000004E2
fn000004DC:
000004DC  4E56 0000                link       A6, 0
000004E0  554F                     subq.w     A7, 2
// end alternate branch 000004DC-000004E2
fn000004DC: // (misaligned)
000004DE  0000 554F                ori.b      D0, 0x4F /* 'O' */
000004E2  3F2D F874                move.w     -[A7], [A5 - 0x78C]
000004E6  4EAD 00D2                jsr        [A5 + 0xD2 /* export_22, CODE:1 @ 00000660 */]
000004EA  3B5F EEC8                move.w     [A5 - 0x1138], [A7]+
000004EE  4A6D EEC8                tst.w      [A5 - 0x1138]
000004F2  670A                     beq        +0xC /* 000004FE */
000004F4  3F2D EEC8                move.w     -[A7], [A5 - 0x1138]
000004F8  4EAD 01BA                jsr        [A5 + 0x1BA /* export_51, CODE:1 @ 00001AE2 */]
000004FC  601E                     bra        +0x20 /* 0000051C */
label000004FE:
000004FE  554F                     subq.w     A7, 2
00000500  42A7                     clr.l      -[A7]
00000502  3F2E 0008                move.w     -[A7], [A6 + 0x8]
00000506  4EAD 0102                jsr        [A5 + 0x102 /* export_28, CODE:1 @ 00000744 */]
0000050A  3B5F EEC8                move.w     [A5 - 0x1138], [A7]+
0000050E  4A6D EEC8                tst.w      [A5 - 0x1138]
00000512  6708                     beq        +0xA /* 0000051C */
00000514  3F2D EEC8                move.w     -[A7], [A5 - 0x1138]
00000518  4EAD 01BA                jsr        [A5 + 0x1BA /* export_51, CODE:1 @ 00001AE2 */]
label0000051C:
0000051C  4E5E                     unlink     A6
0000051E  205F                     movea.l    A0, [A7]+
00000520  544F                     addq.w     A7, 2
00000522  4ED0                     jmp        [A0]
export_94:
fn00000524:
00000524  4E56 FFEE                link       A6, -0x0012
00000528  422E 0008                clr.b      [A6 + 0x8]
0000052C  554F                     subq.w     A7, 2
0000052E  4EBA FD08                jsr        [PC - 0x2F8 /* 00000238 */]
00000532  101F                     move.b     D0, [A7]+
00000534  5300                     subq.b     D0, 1
00000536  670A                     beq        +0xC /* 00000542 */
00000538  3F3C 0017                move.w     -[A7], 0x17
0000053C  4EAD 01BA                jsr        [A5 + 0x1BA /* export_51, CODE:1 @ 00001AE2 */]
00000540  6024                     bra        +0x26 /* 00000566 */
label00000542:
00000542  3F2D F878                move.w     -[A7], [A5 - 0x788]
00000546  4EBA FF94                jsr        [PC - 0x6C /* 000004DC */]
0000054A  554F                     subq.w     A7, 2
0000054C  4EBA FAB2                jsr        [PC - 0x54E /* 00000000 */]
00000550  101F                     move.b     D0, [A7]+
00000552  5300                     subq.b     D0, 1
00000554  670A                     beq        +0xC /* 00000560 */
00000556  3F3C 000F                move.w     -[A7], 0xF
0000055A  4EAD 01BA                jsr        [A5 + 0x1BA /* export_51, CODE:1 @ 00001AE2 */]
0000055E  6006                     bra        +0x8 /* 00000566 */
label00000560:
00000560  1D7C 0001 0008           move.b     [A6 + 0x8], 0x1
label00000566:
00000566  4E5E                     unlink     A6
00000568  4E75                     rts
fn0000056A:
0000056A  4E56 F00C                link       A6, -0x0FF4
0000056E  48E7 0318                movem.l    -[A7], D6,D7,A3,A4
00000572  422E 0008                clr.b      [A6 + 0x8]
00000576  2D7C 0000 0FDC F00C      move.l     [A6 - 0xFF4], 0xFDC
0000057E  554F                     subq.w     A7, 2
00000580  42A7                     clr.l      -[A7]
00000582  3F2D F87A                move.w     -[A7], [A5 - 0x786]
00000586  4EAD 00FA                jsr        [A5 + 0xFA /* export_27, CODE:1 @ 00000722 */]
0000058A  3B5F EEC8                move.w     [A5 - 0x1138], [A7]+
0000058E  554F                     subq.w     A7, 2
00000590  3F2D EEC8                move.w     -[A7], [A5 - 0x1138]
00000594  4EBA FAD2                jsr        [PC - 0x52E /* 00000068 */]
00000598  4A5F                     tst.w      [A7]+
0000059A  6600 023C                bne        +0x23E /* 000007D8 */
0000059E  554F                     subq.w     A7, 2
000005A0  486D F8FE                pea.l      [A5 - 0x702]
000005A4  3F2D F87A                move.w     -[A7], [A5 - 0x786]
000005A8  486D F872                pea.l      [A5 - 0x78E]
000005AC  4EAD 00CA                jsr        [A5 + 0xCA /* export_21, CODE:1 @ 00000628 */]
000005B0  3B5F EEC8                move.w     [A5 - 0x1138], [A7]+
000005B4  554F                     subq.w     A7, 2
000005B6  3F2D EEC8                move.w     -[A7], [A5 - 0x1138]
000005BA  4EBA FAAC                jsr        [PC - 0x554 /* 00000068 */]
000005BE  4A5F                     tst.w      [A7]+
000005C0  674A                     beq        +0x4C /* 0000060C */
000005C2  0C6D FFD5 EEC8           cmpi.w     [A5 - 0x1138], 0xFFD5
000005C8  57C0                     seq        D0
000005CA  2F00                     move.l     -[A7], D0
000005CC  554F                     subq.w     A7, 2
000005CE  3F3C 0002                move.w     -[A7], 0x2
000005D2  4EBA FE44                jsr        [PC - 0x1BC /* 00000418 */]
000005D6  121F                     move.b     D1, [A7]+
000005D8  201F                     move.l     D0, [A7]+
000005DA  C001                     and.b      D0, D1
000005DC  6700 01FA                beq        +0x1FC /* 000007D8 */
000005E0  554F                     subq.w     A7, 2
000005E2  486D F8FE                pea.l      [A5 - 0x702]
000005E6  3F2D F87A                move.w     -[A7], [A5 - 0x786]
000005EA  486D F872                pea.l      [A5 - 0x78E]
000005EE  4EAD 00CA                jsr        [A5 + 0xCA /* export_21, CODE:1 @ 00000628 */]
000005F2  3B5F EEC8                move.w     [A5 - 0x1138], [A7]+
000005F6  554F                     subq.w     A7, 2
000005F8  3F2D EEC8                move.w     -[A7], [A5 - 0x1138]
000005FC  4EBA FA6A                jsr        [PC - 0x596 /* 00000068 */]
00000600  4A5F                     tst.w      [A7]+
00000602  6600 01D4                bne        +0x1D6 /* 000007D8 */
00000606  6004                     bra        +0x6 /* 0000060C */
00000608  6000 01CE                bra        +0x1D0 /* 000007D8 */
label0000060C:
0000060C  554F                     subq.w     A7, 2
0000060E  3F2D F872                move.w     -[A7], [A5 - 0x78E]
00000612  3F3C 0001                move.w     -[A7], 0x1
00000616  42A7                     clr.l      -[A7]
00000618  4EAD 011A                jsr        [A5 + 0x11A /* export_31, CODE:1 @ 000007C8 */]
0000061C  3B5F EEC8                move.w     [A5 - 0x1138], [A7]+
00000620  554F                     subq.w     A7, 2
00000622  3F2D EEC8                move.w     -[A7], [A5 - 0x1138]
00000626  4EBA FA40                jsr        [PC - 0x5C0 /* 00000068 */]
0000062A  4A5F                     tst.w      [A7]+
0000062C  6716                     beq        +0x18 /* 00000644 */
0000062E  422D FE7F                clr.b      [A5 - 0x181]
00000632  554F                     subq.w     A7, 2
00000634  3F2D F872                move.w     -[A7], [A5 - 0x78E]
00000638  4EAD 00D2                jsr        [A5 + 0xD2 /* export_22, CODE:1 @ 00000660 */]
0000063C  3B5F EEC8                move.w     [A5 - 0x1138], [A7]+
00000640  6000 0196                bra        +0x198 /* 000007D8 */
label00000644:
00000644  554F                     subq.w     A7, 2
00000646  3F2D F872                move.w     -[A7], [A5 - 0x78E]
0000064A  486E F00C                pea.l      [A6 - 0xFF4]
0000064E  486E F014                pea.l      [A6 - 0xFEC]
00000652  4EAD 00DA                jsr        [A5 + 0xDA /* export_23, CODE:1 @ 0000067C */]
00000656  3B5F EEC8                move.w     [A5 - 0x1138], [A7]+
0000065A  554F                     subq.w     A7, 2
0000065C  3F2D EEC8                move.w     -[A7], [A5 - 0x1138]
00000660  4EBA FA06                jsr        [PC - 0x5FA /* 00000068 */]
00000664  4A5F                     tst.w      [A7]+
00000666  6716                     beq        +0x18 /* 0000067E */
00000668  422D FE7F                clr.b      [A5 - 0x181]
0000066C  554F                     subq.w     A7, 2
0000066E  3F2D F872                move.w     -[A7], [A5 - 0x78E]
00000672  4EAD 00D2                jsr        [A5 + 0xD2 /* export_22, CODE:1 @ 00000660 */]
00000676  3B5F EEC8                move.w     [A5 - 0x1138], [A7]+
0000067A  6000 015C                bra        +0x15E /* 000007D8 */
label0000067E:
0000067E  554F                     subq.w     A7, 2
00000680  3F2D F872                move.w     -[A7], [A5 - 0x78E]
00000684  4EAD 00D2                jsr        [A5 + 0xD2 /* export_22, CODE:1 @ 00000660 */]
00000688  3B5F EEC8                move.w     [A5 - 0x1138], [A7]+
0000068C  554F                     subq.w     A7, 2
0000068E  3F2D EEC8                move.w     -[A7], [A5 - 0x1138]
00000692  4EBA F9D4                jsr        [PC - 0x62C /* 00000068 */]
00000696  4A5F                     tst.w      [A7]+
00000698  6716                     beq        +0x18 /* 000006B0 */
0000069A  422D FE7F                clr.b      [A5 - 0x181]
0000069E  554F                     subq.w     A7, 2
000006A0  3F2D F872                move.w     -[A7], [A5 - 0x78E]
000006A4  4EAD 00D2                jsr        [A5 + 0xD2 /* export_22, CODE:1 @ 00000660 */]
000006A8  3B5F EEC8                move.w     [A5 - 0x1138], [A7]+
000006AC  6000 012A                bra        +0x12C /* 000007D8 */
label000006B0:
000006B0  0C6E 0200 F014           cmpi.w     [A6 - 0xFEC], 0x200
000006B6  6D0C                     blt        +0xE /* 000006C4 */
000006B8  3F3C 0016                move.w     -[A7], 0x16
000006BC  4EAD 01BA                jsr        [A5 + 0x1BA /* export_51, CODE:1 @ 00001AE2 */]
000006C0  6000 0116                bra        +0x118 /* 000007D8 */
label000006C4:
000006C4  3B6E F01A F86A           move.w     [A5 - 0x796], [A6 - 0xFE6]
000006CA  3B6E F01C F86C           move.w     [A5 - 0x794], [A6 - 0xFE4]
000006D0  3B6E F01E F85A           move.w     [A5 - 0x7A6], [A6 - 0xFE2]
000006D6  3B6E F020 F656           move.w     [A5 - 0x9AA], [A6 - 0xFE0]
000006DC  3B6E F022 F658           move.w     [A5 - 0x9A8], [A6 - 0xFDE]
000006E2  3B7C 0004 F652           move.w     [A5 - 0x9AE], 0x4
000006E8  1B6E F024 F65A           move.b     [A5 - 0x9A6], [A6 - 0xFDC]
000006EE  1B6E F025 FE6C           move.b     [A5 - 0x194], [A6 - 0xFDB]
000006F4  2B6E F026 F830           move.l     [A5 - 0x7D0], [A6 - 0xFDA]
000006FA  2B6E F02A F834           move.l     [A5 - 0x7CC], [A6 - 0xFD6]
00000700  2B6E F02E F840           move.l     [A5 - 0x7C0], [A6 - 0xFD2]
00000706  3F3C 0020                move.w     -[A7], 0x20 /* ' ' */
0000070A  486E F032                pea.l      [A6 - 0xFCE]
0000070E  486D F986                pea.l      [A5 - 0x67A]
00000712  4EAD 005A                jsr        [A5 + 0x5A /* export_7, CODE:1 @ 0000025C */]
00000716  3F3C 0020                move.w     -[A7], 0x20 /* ' ' */
0000071A  486E F054                pea.l      [A6 - 0xFAC]
0000071E  486D F942                pea.l      [A5 - 0x6BE]
00000722  4EAD 005A                jsr        [A5 + 0x5A /* export_7, CODE:1 @ 0000025C */]
00000726  4EAD 01E2                jsr        [A5 + 0x1E2 /* export_56, CODE:1 @ 00001CAA */]
0000072A  202D F830                move.l     D0, [A5 - 0x7D0]
0000072E  D0AD F834                add.l      D0, [A5 - 0x7CC]
00000732  2B40 F838                move.l     [A5 - 0x7C8], D0
00000736  554F                     subq.w     A7, 2
00000738  4EBA FDEA                jsr        [PC - 0x216 /* 00000524 */]
0000073C  101F                     move.b     D0, [A7]+
0000073E  5300                     subq.b     D0, 1
00000740  670C                     beq        +0xE /* 0000074E */
00000742  3F3C 0017                move.w     -[A7], 0x17
00000746  4EAD 01BA                jsr        [A5 + 0x1BA /* export_51, CODE:1 @ 00001AE2 */]
0000074A  6000 008C                bra        +0x8E /* 000007D8 */
label0000074E:
0000074E  202E F016                move.l     D0, [A6 - 0xFEA]
00000752  B0AD B8B6                cmp.l      D0, [A5 - 0x474A]
00000756  6708                     beq        +0xA /* 00000760 */
00000758  3F3C 0018                move.w     -[A7], 0x18
0000075C  4EAD 01BA                jsr        [A5 + 0x1BA /* export_51, CODE:1 @ 00001AE2 */]
label00000760:
00000760  7C01                     moveq.l    D6, 0x01
label00000762:
00000762  41EE F077                lea.l      A0, [A6 - 0xF89]
00000766  43ED F65B                lea.l      A1, [A5 - 0x9A5]
0000076A  13B0 6000 6000           move.b     [A1 + D6.w], [A0 + D6.w]
00000770  3006                     move.w     D0, D6
00000772  C1FC 0062                muls.w     D0, 0x62 /* 'b' */
00000776  0640 F03E                addi.w     D0, 0xF03E
0000077A  49F6 0000                lea.l      A4, [A6 + D0.w]
0000077E  3006                     move.w     D0, D6
00000780  C1FC 013A                muls.w     D0, 0x13A
00000784  0640 BC6E                addi.w     D0, 0xBC6E
00000788  47F5 0000                lea.l      A3, [A5 + D0.w]
0000078C  3754 0038                move.w     [A3 + 0x38], [A4]
00000790  7E01                     moveq.l    D7, 0x01
label00000792:
00000792  3007                     move.w     D0, D7
00000794  C1FC 0006                muls.w     D0, 0x6
00000798  3207                     move.w     D1, D7
0000079A  E941                     asl        D1.w, 4
0000079C  37B4 00FC 1034           move.w     [A3 + D1.w + 0x34], [A4 + D0.w - 0x4]
000007A2  3007                     move.w     D0, D7
000007A4  C1FC 0006                muls.w     D0, 0x6
000007A8  3207                     move.w     D1, D7
000007AA  E941                     asl        D1.w, 4
000007AC  37B4 00FE 1036           move.w     [A3 + D1.w + 0x36], [A4 + D0.w - 0x2]
000007B2  3007                     move.w     D0, D7
000007B4  C1FC 0006                muls.w     D0, 0x6
000007B8  3207                     move.w     D1, D7
000007BA  E941                     asl        D1.w, 4
000007BC  17B4 0000 1038           move.b     [A3 + D1.w + 0x38], [A4 + D0.w]
000007C2  5247                     addq.w     D7, 1
000007C4  0C47 0010                cmpi.w     D7, 0x10
000007C8  6FC8                     ble        -0x36 /* 00000792 */
000007CA  5246                     addq.w     D6, 1
000007CC  0C46 0028                cmpi.w     D6, 0x28 /* '(' */
000007D0  6F90                     ble        -0x6E /* 00000762 */
000007D2  1D7C 0001 0008           move.b     [A6 + 0x8], 0x1
label000007D8:
000007D8  4CDF 18C0                movem.l    D6,D7,A3,A4, [A7]+
000007DC  4E5E                     unlink     A6
000007DE  4E75                     rts
fn000007E0:
000007E0  4E56 F00A                link       A6, -0x0FF6
000007E4  48E7 0718                movem.l    -[A7], D5,D6,D7,A3,A4
000007E8  3A2E 000A                move.w     D5, [A6 + 0xA]
000007EC  422E 000C                clr.b      [A6 + 0xC]
000007F0  3D6D F86E F00A           move.w     [A6 - 0xFF6], [A5 - 0x792]
000007F6  7E01                     moveq.l    D7, 0x01
000007F8  6000 0074                bra        +0x76 /* 0000086E */
label000007FC:
000007FC  3007                     move.w     D0, D7
000007FE  C1FC 000C                muls.w     D0, 0xC
00000802  0640 FD9C                addi.w     D0, 0xFD9C
00000806  2035 0000                move.l     D0, [A5 + D0.w]
0000080A  6046                     bra        +0x48 /* 00000852 */
label0000080C:
0000080C  3007                     move.w     D0, D7
0000080E  C1FC 000C                muls.w     D0, 0xC
00000812  322D F86A                move.w     D1, [A5 - 0x796]
00000816  C3FC 013A                muls.w     D1, 0x13A
0000081A  3407                     move.w     D2, D7
0000081C  E942                     asl        D2.w, 4
0000081E  D242                     add.w      D1, D2
00000820  0640 FDA2                addi.w     D0, 0xFDA2
00000824  0641 BCA2                addi.w     D1, 0xBCA2
00000828  3BB5 0000 1000           move.w     [A5 + D1.w], [A5 + D0.w]
0000082E  603A                     bra        +0x3C /* 0000086A */
label00000830:
00000830  102D FE71                move.b     D0, [A5 - 0x18F]
00000834  5300                     subq.b     D0, 1
00000836  122D FE72                move.b     D1, [A5 - 0x18E]
0000083A  5301                     subq.b     D1, 1
0000083C  C001                     and.b      D0, D1
0000083E  672A                     beq        +0x2C /* 0000086A */
00000840  302D F86A                move.w     D0, [A5 - 0x796]
00000844  C1FC 013A                muls.w     D0, 0x13A
00000848  0640 BCA6                addi.w     D0, 0xBCA6
0000084C  4275 0000                clr.w      [A5 + D0.w]
00000850  6018                     bra        +0x1A /* 0000086A */
label00000852:
00000852  5180                     subq.l     D0, 8
00000854  67B6                     beq        -0x48 /* 0000080C */
00000856  5380                     subq.l     D0, 1
00000858  67B2                     beq        -0x4C /* 0000080C */
0000085A  5780                     subq.l     D0, 3
0000085C  67AE                     beq        -0x50 /* 0000080C */
0000085E  5380                     subq.l     D0, 1
00000860  67AA                     beq        -0x54 /* 0000080C */
00000862  5580                     subq.l     D0, 2
00000864  67CA                     beq        -0x34 /* 00000830 */
00000866  5580                     subq.l     D0, 2
00000868  67C6                     beq        -0x38 /* 00000830 */
label0000086A:
0000086A  5247                     addq.w     D7, 1
0000086C  6906                     bvs        +0x8 /* 00000874 */
label0000086E:
0000086E  BE6E F00A                cmp.w      D7, [A6 - 0xFF6]
00000872  6F88                     ble        -0x76 /* 000007FC */
label00000874:
00000874  4EAD 01E2                jsr        [A5 + 0x1E2 /* export_56, CODE:1 @ 00001CAA */]
00000878  3D7C 0100 F014           move.w     [A6 - 0xFEC], 0x100
0000087E  2D6D B8B6 F016           move.l     [A6 - 0xFEA], [A5 - 0x474A]
00000884  3D6D F86A F01A           move.w     [A6 - 0xFE6], [A5 - 0x796]
0000088A  3D6D F86C F01C           move.w     [A6 - 0xFE4], [A5 - 0x794]
00000890  3D6D F85A F01E           move.w     [A6 - 0xFE2], [A5 - 0x7A6]
00000896  3D6D F656 F020           move.w     [A6 - 0xFE0], [A5 - 0x9AA]
0000089C  3D6D F658 F022           move.w     [A6 - 0xFDE], [A5 - 0x9A8]
000008A2  1D6D F65A F024           move.b     [A6 - 0xFDC], [A5 - 0x9A6]
000008A8  1D6D FE6C F025           move.b     [A6 - 0xFDB], [A5 - 0x194]
000008AE  2D6D F830 F026           move.l     [A6 - 0xFDA], [A5 - 0x7D0]
000008B4  2D6D F834 F02A           move.l     [A6 - 0xFD6], [A5 - 0x7CC]
000008BA  2D6D F840 F02E           move.l     [A6 - 0xFD2], [A5 - 0x7C0]
000008C0  3F3C 0020                move.w     -[A7], 0x20 /* ' ' */
000008C4  486D F986                pea.l      [A5 - 0x67A]
000008C8  486E F032                pea.l      [A6 - 0xFCE]
000008CC  4EAD 005A                jsr        [A5 + 0x5A /* export_7, CODE:1 @ 0000025C */]
000008D0  3F3C 0020                move.w     -[A7], 0x20 /* ' ' */
000008D4  486D F942                pea.l      [A5 - 0x6BE]
000008D8  486E F054                pea.l      [A6 - 0xFAC]
000008DC  4EAD 005A                jsr        [A5 + 0x5A /* export_7, CODE:1 @ 0000025C */]
000008E0  426E F076                clr.w      [A6 - 0xF8A]
000008E4  7E01                     moveq.l    D7, 0x01
label000008E6:
000008E6  41ED F65B                lea.l      A0, [A5 - 0x9A5]
000008EA  43EE F077                lea.l      A1, [A6 - 0xF89]
000008EE  13B0 7000 7000           move.b     [A1 + D7.w], [A0 + D7.w]
000008F4  3007                     move.w     D0, D7
000008F6  C1FC 0062                muls.w     D0, 0x62 /* 'b' */
000008FA  0640 F03E                addi.w     D0, 0xF03E
000008FE  49F6 0000                lea.l      A4, [A6 + D0.w]
00000902  3007                     move.w     D0, D7
00000904  C1FC 013A                muls.w     D0, 0x13A
00000908  0640 BC6E                addi.w     D0, 0xBC6E
0000090C  47F5 0000                lea.l      A3, [A5 + D0.w]
00000910  38AB 0038                move.w     [A4], [A3 + 0x38]
00000914  7C01                     moveq.l    D6, 0x01
label00000916:
00000916  3006                     move.w     D0, D6
00000918  E940                     asl        D0.w, 4
0000091A  3206                     move.w     D1, D6
0000091C  C3FC 0006                muls.w     D1, 0x6
00000920  39B3 0034 10FC           move.w     [A4 + D1.w - 0x4], [A3 + D0.w + 0x34]
00000926  3006                     move.w     D0, D6
00000928  E940                     asl        D0.w, 4
0000092A  3206                     move.w     D1, D6
0000092C  C3FC 0006                muls.w     D1, 0x6
00000930  39B3 0036 10FE           move.w     [A4 + D1.w - 0x2], [A3 + D0.w + 0x36]
00000936  3006                     move.w     D0, D6
00000938  E940                     asl        D0.w, 4
0000093A  3206                     move.w     D1, D6
0000093C  C3FC 0006                muls.w     D1, 0x6
00000940  19B3 0038 1000           move.b     [A4 + D1.w], [A3 + D0.w + 0x38]
00000946  5246                     addq.w     D6, 1
00000948  0C46 0010                cmpi.w     D6, 0x10
0000094C  6FC8                     ble        -0x36 /* 00000916 */
0000094E  5247                     addq.w     D7, 1
00000950  0C47 0028                cmpi.w     D7, 0x28 /* '(' */
00000954  6F90                     ble        -0x6E /* 000008E6 */
00000956  2D7C 0000 0FDC F00C      move.l     [A6 - 0xFF4], 0xFDC
0000095E  554F                     subq.w     A7, 2
00000960  3F05                     move.w     -[A7], D5
00000962  3F3C 0001                move.w     -[A7], 0x1
00000966  42A7                     clr.l      -[A7]
00000968  4EAD 011A                jsr        [A5 + 0x11A /* export_31, CODE:1 @ 000007C8 */]
0000096C  3B5F EEC8                move.w     [A5 - 0x1138], [A7]+
00000970  554F                     subq.w     A7, 2
00000972  3F2D EEC8                move.w     -[A7], [A5 - 0x1138]
00000976  4EBA F6F0                jsr        [PC - 0x910 /* 00000068 */]
0000097A  4A5F                     tst.w      [A7]+
0000097C  6712                     beq        +0x14 /* 00000990 */
0000097E  554F                     subq.w     A7, 2
00000980  3F2D F872                move.w     -[A7], [A5 - 0x78E]
00000984  4EAD 00D2                jsr        [A5 + 0xD2 /* export_22, CODE:1 @ 00000660 */]
00000988  3B5F EEC8                move.w     [A5 - 0x1138], [A7]+
0000098C  6000 00B2                bra        +0xB4 /* 00000A40 */
label00000990:
00000990  554F                     subq.w     A7, 2
00000992  3F05                     move.w     -[A7], D5
00000994  486E F00C                pea.l      [A6 - 0xFF4]
00000998  486E F014                pea.l      [A6 - 0xFEC]
0000099C  4EAD 00E2                jsr        [A5 + 0xE2 /* export_24, CODE:1 @ 00000680 */]
000009A0  3B5F EEC8                move.w     [A5 - 0x1138], [A7]+
000009A4  554F                     subq.w     A7, 2
000009A6  3F2D EEC8                move.w     -[A7], [A5 - 0x1138]
000009AA  4EBA F6BC                jsr        [PC - 0x944 /* 00000068 */]
000009AE  4A5F                     tst.w      [A7]+
000009B0  6712                     beq        +0x14 /* 000009C4 */
000009B2  554F                     subq.w     A7, 2
000009B4  3F2D F872                move.w     -[A7], [A5 - 0x78E]
000009B8  4EAD 00D2                jsr        [A5 + 0xD2 /* export_22, CODE:1 @ 00000660 */]
000009BC  3B5F EEC8                move.w     [A5 - 0x1138], [A7]+
000009C0  6000 007E                bra        +0x80 /* 00000A40 */
label000009C4:
000009C4  554F                     subq.w     A7, 2
000009C6  3F05                     move.w     -[A7], D5
000009C8  2F2E F00C                move.l     -[A7], [A6 - 0xFF4]
000009CC  4EAD 0112                jsr        [A5 + 0x112 /* export_30, CODE:1 @ 000007A6 */]
000009D0  3B5F EEC8                move.w     [A5 - 0x1138], [A7]+
000009D4  554F                     subq.w     A7, 2
000009D6  3F2D EEC8                move.w     -[A7], [A5 - 0x1138]
000009DA  4EBA F68C                jsr        [PC - 0x974 /* 00000068 */]
000009DE  4A5F                     tst.w      [A7]+
000009E0  6710                     beq        +0x12 /* 000009F2 */
000009E2  554F                     subq.w     A7, 2
000009E4  3F2D F872                move.w     -[A7], [A5 - 0x78E]
000009E8  4EAD 00D2                jsr        [A5 + 0xD2 /* export_22, CODE:1 @ 00000660 */]
000009EC  3B5F EEC8                move.w     [A5 - 0x1138], [A7]+
000009F0  604E                     bra        +0x50 /* 00000A40 */
label000009F2:
000009F2  554F                     subq.w     A7, 2
000009F4  3F05                     move.w     -[A7], D5
000009F6  4EAD 00D2                jsr        [A5 + 0xD2 /* export_22, CODE:1 @ 00000660 */]
000009FA  3B5F EEC8                move.w     [A5 - 0x1138], [A7]+
000009FE  554F                     subq.w     A7, 2
00000A00  3F2D EEC8                move.w     -[A7], [A5 - 0x1138]
00000A04  4EBA F662                jsr        [PC - 0x99E /* 00000068 */]
00000A08  4A5F                     tst.w      [A7]+
00000A0A  6710                     beq        +0x12 /* 00000A1C */
00000A0C  554F                     subq.w     A7, 2
00000A0E  3F2D F872                move.w     -[A7], [A5 - 0x78E]
00000A12  4EAD 00D2                jsr        [A5 + 0xD2 /* export_22, CODE:1 @ 00000660 */]
00000A16  3B5F EEC8                move.w     [A5 - 0x1138], [A7]+
00000A1A  6024                     bra        +0x26 /* 00000A40 */
label00000A1C:
00000A1C  554F                     subq.w     A7, 2
00000A1E  42A7                     clr.l      -[A7]
00000A20  3F2E 0008                move.w     -[A7], [A6 + 0x8]
00000A24  4EAD 0102                jsr        [A5 + 0x102 /* export_28, CODE:1 @ 00000744 */]
00000A28  3B5F EEC8                move.w     [A5 - 0x1138], [A7]+
00000A2C  554F                     subq.w     A7, 2
00000A2E  3F2D EEC8                move.w     -[A7], [A5 - 0x1138]
00000A32  4EBA F634                jsr        [PC - 0x9CC /* 00000068 */]
00000A36  4A5F                     tst.w      [A7]+
00000A38  6606                     bne        +0x8 /* 00000A40 */
00000A3A  1D7C 0001 000C           move.b     [A6 + 0xC], 0x1
label00000A40:
00000A40  4CDF 18E0                movem.l    D5,D6,D7,A3,A4, [A7]+
00000A44  4E5E                     unlink     A6
00000A46  2E9F                     move.l     [A7], [A7]+
00000A48  4E75                     rts
fn00000A4A:
00000A4A  4E56 FF92                link       A6, -0x006E
00000A4E  422E 0008                clr.b      [A6 + 0x8]
00000A52  486E FFEC                pea.l      [A6 - 0x14]
00000A56  302D F848                move.w     D0, [A5 - 0x7B8]
00000A5A  0640 0055                addi.w     D0, 0x55 /* 'U' */
00000A5E  0640 0019                addi.w     D0, 0x19
00000A62  3F00                     move.w     -[A7], D0
00000A64  302D F84A                move.w     D0, [A5 - 0x7B6]
00000A68  0640 0032                addi.w     D0, 0x32 /* '2' */
00000A6C  3F00                     move.w     -[A7], D0
00000A6E  A880                     syscall    SetPt
00000A70  2F2E FFEC                move.l     -[A7], [A6 - 0x14]
00000A74  487A 0104                pea.l      [PC + 0x104 /* 00000B7A, value 0xE4E616D, pstring "Name for game:" */]
00000A78  487A 00FE                pea.l      [PC + 0xFE /* 00000B78, value 0x120E4E, cstring "" */]
00000A7C  42A7                     clr.l      -[A7]
00000A7E  486E FFA2                pea.l      [A6 - 0x5E]
00000A82  4EAD 017A                jsr        [A5 + 0x17A /* export_43, CODE:1 @ 00000B26 */]
00000A86  102E FFA2                move.b     D0, [A6 - 0x5E]
00000A8A  5300                     subq.b     D0, 1
00000A8C  6600 00E6                bne        +0xE8 /* 00000B74 */
00000A90  3B6E FFA8 F87A           move.w     [A5 - 0x786], [A6 - 0x58]
00000A96  554F                     subq.w     A7, 2
00000A98  486E FFAC                pea.l      [A6 - 0x54]
00000A9C  3F2D F87A                move.w     -[A7], [A5 - 0x786]
00000AA0  486E FF92                pea.l      [A6 - 0x6E]
00000AA4  4EAD 00EA                jsr        [A5 + 0xEA /* export_25, CODE:1 @ 000006C6 */]
00000AA8  3B5F EEC8                move.w     [A5 - 0x1138], [A7]+
00000AAC  302D EEC8                move.w     D0, [A5 - 0x1138]
00000AB0  6048                     bra        +0x4A /* 00000AFA */
label00000AB2:
00000AB2  0CAE 474C 676D FF92      cmpi.l     [A6 - 0x6E], 0x474C676D /* 'GLgm' */
00000ABA  6754                     beq        +0x56 /* 00000B10 */
00000ABC  3F3C 000D                move.w     -[A7], 0xD /* '\r' */
00000AC0  4EAD 01BA                jsr        [A5 + 0x1BA /* export_51, CODE:1 @ 00001AE2 */]
00000AC4  6000 00AE                bra        +0xB0 /* 00000B74 */
00000AC8  6046                     bra        +0x48 /* 00000B10 */
label00000ACA:
00000ACA  554F                     subq.w     A7, 2
00000ACC  486E FFAC                pea.l      [A6 - 0x54]
00000AD0  3F2D F87A                move.w     -[A7], [A5 - 0x786]
00000AD4  2F3C 474C 4944           move.l     -[A7], 0x474C4944 /* 'GLID' */
00000ADA  2F3C 474C 676D           move.l     -[A7], 0x474C676D /* 'GLgm' */
00000AE0  4EAD 010A                jsr        [A5 + 0x10A /* export_29, CODE:1 @ 00000766 */]
00000AE4  3B5F EEC8                move.w     [A5 - 0x1138], [A7]+
00000AE8  554F                     subq.w     A7, 2
00000AEA  3F2D EEC8                move.w     -[A7], [A5 - 0x1138]
00000AEE  4EBA F578                jsr        [PC - 0xA88 /* 00000068 */]
00000AF2  4A5F                     tst.w      [A7]+
00000AF4  6600 007E                bne        +0x80 /* 00000B74 */
00000AF8  6016                     bra        +0x18 /* 00000B10 */
label00000AFA:
00000AFA  0640 002B                addi.w     D0, 0x2B /* '+' */
00000AFE  67CA                     beq        -0x34 /* 00000ACA */
00000B00  0640 FFD5                addi.w     D0, 0xFFD5
00000B04  67AC                     beq        -0x52 /* 00000AB2 */
00000B06  3F2D EEC8                move.w     -[A7], [A5 - 0x1138]
00000B0A  4EAD 01BA                jsr        [A5 + 0x1BA /* export_51, CODE:1 @ 00001AE2 */]
00000B0E  6064                     bra        +0x66 /* 00000B74 */
label00000B10:
00000B10  3F3C 0020                move.w     -[A7], 0x20 /* ' ' */
00000B14  486E FFAC                pea.l      [A6 - 0x54]
00000B18  486D F8FE                pea.l      [A5 - 0x702]
00000B1C  4EAD 005A                jsr        [A5 + 0x5A /* export_7, CODE:1 @ 0000025C */]
00000B20  554F                     subq.w     A7, 2
00000B22  486E FFAC                pea.l      [A6 - 0x54]
00000B26  3F2D F87A                move.w     -[A7], [A5 - 0x786]
00000B2A  486D F872                pea.l      [A5 - 0x78E]
00000B2E  4EAD 00CA                jsr        [A5 + 0xCA /* export_21, CODE:1 @ 00000628 */]
00000B32  3B5F EEC8                move.w     [A5 - 0x1138], [A7]+
00000B36  554F                     subq.w     A7, 2
00000B38  3F2D EEC8                move.w     -[A7], [A5 - 0x1138]
00000B3C  4EBA F52A                jsr        [PC - 0xAD6 /* 00000068 */]
00000B40  4A5F                     tst.w      [A7]+
00000B42  6630                     bne        +0x32 /* 00000B74 */
00000B44  554F                     subq.w     A7, 2
00000B46  3F2D F872                move.w     -[A7], [A5 - 0x78E]
00000B4A  3F2D F87A                move.w     -[A7], [A5 - 0x786]
00000B4E  4EBA FC90                jsr        [PC - 0x370 /* 000007E0 */]
00000B52  101F                     move.b     D0, [A7]+
00000B54  5300                     subq.b     D0, 1
00000B56  6710                     beq        +0x12 /* 00000B68 */
00000B58  554F                     subq.w     A7, 2
00000B5A  3F2D F872                move.w     -[A7], [A5 - 0x78E]
00000B5E  4EAD 00D2                jsr        [A5 + 0xD2 /* export_22, CODE:1 @ 00000660 */]
00000B62  3B5F EEC8                move.w     [A5 - 0x1138], [A7]+
00000B66  600C                     bra        +0xE /* 00000B74 */
label00000B68:
00000B68  1B7C 0001 FE83           move.b     [A5 - 0x17D], 0x1
00000B6E  1D7C 0001 0008           move.b     [A6 + 0x8], 0x1
label00000B74:
00000B74  4E5E                     unlink     A6
00000B76  4E75                     rts
00000B78  0012 0E4E                ori.b      [A2], 0x4E /* 'N' */
00000B7C  616D                     bsr        +0x6F /* 00000BEB */
00000B7E  6520                     bcs        +0x22 /* 00000BA0 */
00000B80  666F                     bne        +0x71 /* 00000BF1 */
00000B82  7220                     moveq.l    D1, 0x20
00000B84  6761                     beq        +0x63 /* 00000BE7 */
00000B86  6D65                     blt        +0x67 /* 00000BED */
00000B88  3A12                     move.w     D5, [A2]
export_95:
fn00000B8A:
00000B8A  4E56 FEF0                link       A6, -0x0110
00000B8E  422E 0008                clr.b      [A6 + 0x8]
00000B92  4A2D F8FE                tst.b      [A5 - 0x702]
00000B96  660E                     bne        +0x10 /* 00000BA6 */
00000B98  554F                     subq.w     A7, 2
00000B9A  4EBA FEAE                jsr        [PC - 0x152 /* 00000A4A */]
00000B9E  101F                     move.b     D0, [A7]+
label00000BA0:
00000BA0  5300                     subq.b     D0, 1
00000BA2  6646                     bne        +0x48 /* 00000BEA */
00000BA4  6038                     bra        +0x3A /* 00000BDE */
label00000BA6:
00000BA6  554F                     subq.w     A7, 2
00000BA8  486D F8FE                pea.l      [A5 - 0x702]
00000BAC  3F2D F87A                move.w     -[A7], [A5 - 0x786]
00000BB0  486D F872                pea.l      [A5 - 0x78E]
00000BB4  4EAD 00CA                jsr        [A5 + 0xCA /* export_21, CODE:1 @ 00000628 */]
00000BB8  3B5F EEC8                move.w     [A5 - 0x1138], [A7]+
00000BBC  554F                     subq.w     A7, 2
00000BBE  3F2D EEC8                move.w     -[A7], [A5 - 0x1138]
00000BC2  4EBA F4A4                jsr        [PC - 0xB5C /* 00000068 */]
00000BC6  4A5F                     tst.w      [A7]+
00000BC8  6620                     bne        +0x22 /* 00000BEA */
00000BCA  554F                     subq.w     A7, 2
00000BCC  3F2D F872                move.w     -[A7], [A5 - 0x78E]
00000BD0  3F2D F87A                move.w     -[A7], [A5 - 0x786]
00000BD4  4EBA FC0A                jsr        [PC - 0x3F6 /* 000007E0 */]
00000BD8  101F                     move.b     D0, [A7]+
00000BDA  5300                     subq.b     D0, 1
00000BDC  660C                     bne        +0xE /* 00000BEA */
label00000BDE:
00000BDE  1B7C 0001 FE83           move.b     [A5 - 0x17D], 0x1
00000BE4  1D7C 0001 0008           move.b     [A6 + 0x8], 0x1
label00000BEA:
00000BEA  4E5E                     unlink     A6
00000BEC  4E75                     rts
export_96:
fn00000BEE:
00000BEE  4E56 FFEC                link       A6, -0x0014
00000BF2  4EAD 01B2                jsr        [A5 + 0x1B2 /* export_50, CODE:1 @ 00001A6A */]
00000BF6  422E 0008                clr.b      [A6 + 0x8]
00000BFA  2D7C 0000 3606 FFEC      move.l     [A6 - 0x14], 0x3606
00000C02  4EAD 01B2                jsr        [A5 + 0x1B2 /* export_50, CODE:1 @ 00001A6A */]
00000C06  554F                     subq.w     A7, 2
00000C08  42A7                     clr.l      -[A7]
00000C0A  3F2D F878                move.w     -[A7], [A5 - 0x788]
00000C0E  4EAD 00FA                jsr        [A5 + 0xFA /* export_27, CODE:1 @ 00000722 */]
00000C12  3B5F EEC8                move.w     [A5 - 0x1138], [A7]+
00000C16  554F                     subq.w     A7, 2
00000C18  3F2D EEC8                move.w     -[A7], [A5 - 0x1138]
00000C1C  4EBA F44A                jsr        [PC - 0xBB6 /* 00000068 */]
00000C20  4A5F                     tst.w      [A7]+
00000C22  6600 0146                bne        +0x148 /* 00000D6A */
00000C26  554F                     subq.w     A7, 2
00000C28  486D F986                pea.l      [A5 - 0x67A]
00000C2C  3F2D F878                move.w     -[A7], [A5 - 0x788]
00000C30  486D F874                pea.l      [A5 - 0x78C]
00000C34  4EAD 00CA                jsr        [A5 + 0xCA /* export_21, CODE:1 @ 00000628 */]
00000C38  3B5F EEC8                move.w     [A5 - 0x1138], [A7]+
00000C3C  554F                     subq.w     A7, 2
00000C3E  3F2D EEC8                move.w     -[A7], [A5 - 0x1138]
00000C42  4EBA F424                jsr        [PC - 0xBDC /* 00000068 */]
00000C46  4A5F                     tst.w      [A7]+
00000C48  675E                     beq        +0x60 /* 00000CA8 */
00000C4A  554F                     subq.w     A7, 2
00000C4C  4267                     clr.w      -[A7]
00000C4E  4EBA F7C8                jsr        [PC - 0x838 /* 00000418 */]
00000C52  101F                     move.b     D0, [A7]+
00000C54  5300                     subq.b     D0, 1
00000C56  6716                     beq        +0x18 /* 00000C6E */
00000C58  422D FE7F                clr.b      [A5 - 0x181]
00000C5C  554F                     subq.w     A7, 2
00000C5E  3F2D F874                move.w     -[A7], [A5 - 0x78C]
00000C62  4EAD 00D2                jsr        [A5 + 0xD2 /* export_22, CODE:1 @ 00000660 */]
00000C66  3B5F EEC8                move.w     [A5 - 0x1138], [A7]+
00000C6A  6000 00FE                bra        +0x100 /* 00000D6A */
label00000C6E:
00000C6E  554F                     subq.w     A7, 2
00000C70  486D F986                pea.l      [A5 - 0x67A]
00000C74  3F2D F878                move.w     -[A7], [A5 - 0x788]
00000C78  486D F874                pea.l      [A5 - 0x78C]
00000C7C  4EAD 00CA                jsr        [A5 + 0xCA /* export_21, CODE:1 @ 00000628 */]
00000C80  3B5F EEC8                move.w     [A5 - 0x1138], [A7]+
00000C84  554F                     subq.w     A7, 2
00000C86  3F2D EEC8                move.w     -[A7], [A5 - 0x1138]
00000C8A  4EBA F3DC                jsr        [PC - 0xC24 /* 00000068 */]
00000C8E  4A5F                     tst.w      [A7]+
00000C90  6716                     beq        +0x18 /* 00000CA8 */
00000C92  422D FE7F                clr.b      [A5 - 0x181]
00000C96  554F                     subq.w     A7, 2
00000C98  3F2D F874                move.w     -[A7], [A5 - 0x78C]
00000C9C  4EAD 00D2                jsr        [A5 + 0xD2 /* export_22, CODE:1 @ 00000660 */]
00000CA0  3B5F EEC8                move.w     [A5 - 0x1138], [A7]+
00000CA4  6000 00C4                bra        +0xC6 /* 00000D6A */
label00000CA8:
00000CA8  4EAD 01B2                jsr        [A5 + 0x1B2 /* export_50, CODE:1 @ 00001A6A */]
00000CAC  554F                     subq.w     A7, 2
00000CAE  3F2D F874                move.w     -[A7], [A5 - 0x78C]
00000CB2  3F3C 0001                move.w     -[A7], 0x1
00000CB6  42A7                     clr.l      -[A7]
00000CB8  4EAD 011A                jsr        [A5 + 0x11A /* export_31, CODE:1 @ 000007C8 */]
00000CBC  3B5F EEC8                move.w     [A5 - 0x1138], [A7]+
00000CC0  554F                     subq.w     A7, 2
00000CC2  3F2D EEC8                move.w     -[A7], [A5 - 0x1138]
00000CC6  4EBA F3A0                jsr        [PC - 0xC60 /* 00000068 */]
00000CCA  4A5F                     tst.w      [A7]+
00000CCC  6600 009C                bne        +0x9E /* 00000D6A */
00000CD0  4EAD 01B2                jsr        [A5 + 0x1B2 /* export_50, CODE:1 @ 00001A6A */]
00000CD4  554F                     subq.w     A7, 2
00000CD6  3F2D F874                move.w     -[A7], [A5 - 0x78C]
00000CDA  486E FFEC                pea.l      [A6 - 0x14]
00000CDE  486D B8B2                pea.l      [A5 - 0x474E]
00000CE2  4EAD 00E2                jsr        [A5 + 0xE2 /* export_24, CODE:1 @ 00000680 */]
00000CE6  3B5F EEC8                move.w     [A5 - 0x1138], [A7]+
00000CEA  554F                     subq.w     A7, 2
00000CEC  3F2D EEC8                move.w     -[A7], [A5 - 0x1138]
00000CF0  4EBA F376                jsr        [PC - 0xC8A /* 00000068 */]
00000CF4  4A5F                     tst.w      [A7]+
00000CF6  6600 0072                bne        +0x74 /* 00000D6A */
00000CFA  4EAD 01B2                jsr        [A5 + 0x1B2 /* export_50, CODE:1 @ 00001A6A */]
00000CFE  554F                     subq.w     A7, 2
00000D00  3F2D F874                move.w     -[A7], [A5 - 0x78C]
00000D04  2F2E FFEC                move.l     -[A7], [A6 - 0x14]
00000D08  4EAD 0112                jsr        [A5 + 0x112 /* export_30, CODE:1 @ 000007A6 */]
00000D0C  3B5F EEC8                move.w     [A5 - 0x1138], [A7]+
00000D10  554F                     subq.w     A7, 2
00000D12  3F2D EEC8                move.w     -[A7], [A5 - 0x1138]
00000D16  4EBA F350                jsr        [PC - 0xCB0 /* 00000068 */]
00000D1A  4A5F                     tst.w      [A7]+
00000D1C  664C                     bne        +0x4E /* 00000D6A */
00000D1E  4EAD 01B2                jsr        [A5 + 0x1B2 /* export_50, CODE:1 @ 00001A6A */]
00000D22  554F                     subq.w     A7, 2
00000D24  3F2D F874                move.w     -[A7], [A5 - 0x78C]
00000D28  4EAD 00D2                jsr        [A5 + 0xD2 /* export_22, CODE:1 @ 00000660 */]
00000D2C  3B5F EEC8                move.w     [A5 - 0x1138], [A7]+
00000D30  554F                     subq.w     A7, 2
00000D32  3F2D EEC8                move.w     -[A7], [A5 - 0x1138]
00000D36  4EBA F330                jsr        [PC - 0xCD0 /* 00000068 */]
00000D3A  4A5F                     tst.w      [A7]+
00000D3C  662C                     bne        +0x2E /* 00000D6A */
00000D3E  4EAD 01B2                jsr        [A5 + 0x1B2 /* export_50, CODE:1 @ 00001A6A */]
00000D42  554F                     subq.w     A7, 2
00000D44  42A7                     clr.l      -[A7]
00000D46  3F2D F878                move.w     -[A7], [A5 - 0x788]
00000D4A  4EAD 0102                jsr        [A5 + 0x102 /* export_28, CODE:1 @ 00000744 */]
00000D4E  3B5F EEC8                move.w     [A5 - 0x1138], [A7]+
00000D52  554F                     subq.w     A7, 2
00000D54  3F2D EEC8                move.w     -[A7], [A5 - 0x1138]
00000D58  4EBA F30E                jsr        [PC - 0xCF2 /* 00000068 */]
00000D5C  4A5F                     tst.w      [A7]+
00000D5E  660A                     bne        +0xC /* 00000D6A */
00000D60  4EAD 01B2                jsr        [A5 + 0x1B2 /* export_50, CODE:1 @ 00001A6A */]
00000D64  1D7C 0001 0008           move.b     [A6 + 0x8], 0x1
label00000D6A:
00000D6A  4E5E                     unlink     A6
00000D6C  4E75                     rts
fn00000D6E:
00000D6E  4A2D FE7D                tst.b      [A5 - 0x183]
00000D72  6724                     beq        +0x26 /* 00000D98 */
00000D74  206D B84C                movea.l    A0, [A5 - 0x47B4]
00000D78  2068 0002                movea.l    A0, [A0 + 0x2]
00000D7C  2F10                     move.l     -[A7], [A0]
00000D7E  206D B5FA                movea.l    A0, [A5 - 0x4A06]
00000D82  4868 0002                pea.l      [A0 + 0x2]
00000D86  486D B602                pea.l      [A5 - 0x49FE]
00000D8A  486D B602                pea.l      [A5 - 0x49FE]
00000D8E  4267                     clr.w      -[A7]
00000D90  2F2D B62A                move.l     -[A7], [A5 - 0x49D6]
00000D94  A8EC                     syscall    CopyBits
00000D96  601C                     bra        +0x1E /* 00000DB4 */
label00000D98:
00000D98  486D B63C                pea.l      [A5 - 0x49C4]
00000D9C  206D B5FA                movea.l    A0, [A5 - 0x4A06]
00000DA0  4868 0002                pea.l      [A0 + 0x2]
00000DA4  486D B602                pea.l      [A5 - 0x49FE]
00000DA8  486D B602                pea.l      [A5 - 0x49FE]
00000DAC  4267                     clr.w      -[A7]
00000DAE  2F2D B62A                move.l     -[A7], [A5 - 0x49D6]
00000DB2  A8EC                     syscall    CopyBits
label00000DB4:
00000DB4  1F3C 0001                move.b     -[A7], 0x1
00000DB8  4EBA 00C0                jsr        [PC + 0xC0 /* 00000E7A */]
00000DBC  4E75                     rts
fn00000DBE:
00000DBE  4E56 FEF0                link       A6, -0x0110
00000DC2  2F07                     move.l     -[A7], D7
00000DC4  3E2E 000C                move.w     D7, [A6 + 0xC]
00000DC8  4A2D FE7D                tst.b      [A5 - 0x183]
00000DCC  6708                     beq        +0xA /* 00000DD6 */
00000DCE  486D B884                pea.l      [A5 - 0x477C]
00000DD2  AA14                     syscall    RGBForeColor
00000DD4  6006                     bra        +0x8 /* 00000DDC */
label00000DD6:
00000DD6  3F3C 0002                move.w     -[A7], 0x2
00000DDA  A889                     syscall    TextMode
label00000DDC:
00000DDC  3F3C 012C                move.w     -[A7], 0x12C
00000DE0  3F3C 0039                move.w     -[A7], 0x39 /* '9' */
00000DE4  A893                     syscall    MoveTo
00000DE6  486E FEF0                pea.l      [A6 - 0x110]
00000DEA  3F3C 0083                move.w     -[A7], 0x83
00000DEE  3F07                     move.w     -[A7], D7
00000DF0  4EAD 0162                jsr        [A5 + 0x162 /* export_40, CODE:1 @ 0000093A */]
00000DF4  486E FEF0                pea.l      [A6 - 0x110]
00000DF8  A884                     syscall    DrawString
00000DFA  3F3C 012C                move.w     -[A7], 0x12C
00000DFE  3F3C 0046                move.w     -[A7], 0x46 /* 'F' */
00000E02  A893                     syscall    MoveTo
00000E04  486E FEF0                pea.l      [A6 - 0x110]
00000E08  3F3C 0083                move.w     -[A7], 0x83
00000E0C  3007                     move.w     D0, D7
00000E0E  5240                     addq.w     D0, 1
00000E10  3F00                     move.w     -[A7], D0
00000E12  4EAD 0162                jsr        [A5 + 0x162 /* export_40, CODE:1 @ 0000093A */]
00000E16  486E FEF0                pea.l      [A6 - 0x110]
00000E1A  A884                     syscall    DrawString
00000E1C  3F3C 012C                move.w     -[A7], 0x12C
00000E20  3F3C 0053                move.w     -[A7], 0x53 /* 'S' */
00000E24  A893                     syscall    MoveTo
00000E26  486E FEF0                pea.l      [A6 - 0x110]
00000E2A  3F3C 0083                move.w     -[A7], 0x83
00000E2E  3007                     move.w     D0, D7
00000E30  5440                     addq.w     D0, 2
00000E32  3F00                     move.w     -[A7], D0
00000E34  4EAD 0162                jsr        [A5 + 0x162 /* export_40, CODE:1 @ 0000093A */]
00000E38  486E FEF0                pea.l      [A6 - 0x110]
00000E3C  A884                     syscall    DrawString
00000E3E  3F3C 012C                move.w     -[A7], 0x12C
00000E42  3F3C 0060                move.w     -[A7], 0x60 /* '`' */
00000E46  A893                     syscall    MoveTo
00000E48  486E FEF0                pea.l      [A6 - 0x110]
00000E4C  3F3C 0083                move.w     -[A7], 0x83
00000E50  3007                     move.w     D0, D7
00000E52  5640                     addq.w     D0, 3
00000E54  3F00                     move.w     -[A7], D0
00000E56  4EAD 0162                jsr        [A5 + 0x162 /* export_40, CODE:1 @ 0000093A */]
00000E5A  486E FEF0                pea.l      [A6 - 0x110]
00000E5E  A884                     syscall    DrawString
00000E60  4A2D FE7D                tst.b      [A5 - 0x183]
00000E64  6708                     beq        +0xA /* 00000E6E */
00000E66  486D B86C                pea.l      [A5 - 0x4794]
00000E6A  AA14                     syscall    RGBForeColor
00000E6C  6002                     bra        +0x4 /* 00000E70 */
label00000E6E:
00000E6E  A89E                     syscall    PenNormal
label00000E70:
00000E70  2E1F                     move.l     D7, [A7]+
00000E72  4E5E                     unlink     A6
00000E74  205F                     movea.l    A0, [A7]+
00000E76  5C4F                     addq.w     A7, 6
00000E78  4ED0                     jmp        [A0]
fn00000E7A:
00000E7A  4E56 FFD8                link       A6, -0x0028
00000E7E  4A2E 0008                tst.b      [A6 + 0x8]
00000E82  6712                     beq        +0x14 /* 00000E96 */
00000E84  554F                     subq.w     A7, 2
00000E86  3F3C 000B                move.w     -[A7], 0xB
00000E8A  4EAD 01DA                jsr        [A5 + 0x1DA /* export_55, CODE:1 @ 00001C70 */]
00000E8E  301F                     move.w     D0, [A7]+
00000E90  5240                     addq.w     D0, 1
00000E92  3B40 F852                move.w     [A5 - 0x7AE], D0
label00000E96:
00000E96  3F2D F84C                move.w     -[A7], [A5 - 0x7B4]
00000E9A  A998                     syscall    UseResFile
00000E9C  4A2D FE7D                tst.b      [A5 - 0x183]
00000EA0  6708                     beq        +0xA /* 00000EAA */
00000EA2  2F2D B84C                move.l     -[A7], [A5 - 0x47B4]
00000EA6  A873                     syscall    SetPort
00000EA8  6006                     bra        +0x8 /* 00000EB0 */
label00000EAA:
00000EAA  2F2D B678                move.l     -[A7], [A5 - 0x4988]
00000EAE  A873                     syscall    SetPort
label00000EB0:
00000EB0  A89E                     syscall    PenNormal
00000EB2  486E FFE8                pea.l      [A6 - 0x18]
00000EB6  3F3C 012A                move.w     -[A7], 0x12A
00000EBA  3F3C 0014                move.w     -[A7], 0x14
00000EBE  3F3C 01FC                move.w     -[A7], 0x1FC
00000EC2  3F3C 0064                move.w     -[A7], 0x64 /* 'd' */
00000EC6  A8A7                     syscall    SetRect
00000EC8  486E FFE8                pea.l      [A6 - 0x18]
00000ECC  486D FFBA                pea.l      [A5 - 0x46]
00000ED0  A8A5                     syscall    FillRect
00000ED2  3F3C 0010                move.w     -[A7], 0x10
00000ED6  A887                     syscall    TextFont
00000ED8  3F3C 000C                move.w     -[A7], 0xC
00000EDC  A88A                     syscall    TextSize
00000EDE  302D F852                move.w     D0, [A5 - 0x7AE]
00000EE2  6000 04B0                bra        +0x4B2 /* 00001394 */
00000EE6  426D FEE4                clr.w      [A5 - 0x11C]
00000EEA  3B7C 0002 FEE2           move.w     [A5 - 0x11E], 0x2
00000EF0  3B7C 0004 FEE0           move.w     [A5 - 0x120], 0x4
00000EF6  302D FEE2                move.w     D0, [A5 - 0x11E]
00000EFA  C1FC 0090                muls.w     D0, 0x90
00000EFE  322D FEE4                move.w     D1, [A5 - 0x11C]
00000F02  E741                     asl        D1.w, 3
00000F04  D041                     add.w      D0, D1
00000F06  0640 F1A8                addi.w     D0, 0xF1A8
00000F0A  41F5 0000                lea.l      A0, [A5 + D0.w]
00000F0E  43ED FEC6                lea.l      A1, [A5 - 0x13A]
00000F12  22D8                     move.l     [A1]+, [A0]+
00000F14  22D8                     move.l     [A1]+, [A0]+
00000F16  486D FEC6                pea.l      [A5 - 0x13A]
00000F1A  302D FEC8                move.w     D0, [A5 - 0x138]
00000F1E  4440                     neg.w      D0
00000F20  3F00                     move.w     -[A7], D0
00000F22  302D FEC6                move.w     D0, [A5 - 0x13A]
00000F26  4440                     neg.w      D0
00000F28  3F00                     move.w     -[A7], D0
00000F2A  A8A8                     syscall    OffsetRect
00000F2C  486D FEC6                pea.l      [A5 - 0x13A]
00000F30  3F3C 01CC                move.w     -[A7], 0x1CC
00000F34  3F3C 002D                move.w     -[A7], 0x2D /* '-' */
00000F38  A8A8                     syscall    OffsetRect
00000F3A  41ED FEC6                lea.l      A0, [A5 - 0x13A]
00000F3E  43ED FED6                lea.l      A1, [A5 - 0x12A]
00000F42  22D8                     move.l     [A1]+, [A0]+
00000F44  22D8                     move.l     [A1]+, [A0]+
00000F46  41ED FEC6                lea.l      A0, [A5 - 0x13A]
00000F4A  43ED FECE                lea.l      A1, [A5 - 0x132]
00000F4E  22D8                     move.l     [A1]+, [A0]+
00000F50  22D8                     move.l     [A1]+, [A0]+
00000F52  3F3C 0001                move.w     -[A7], 0x1
00000F56  2F0E                     move.l     -[A7], A6
00000F58  4EBA FE64                jsr        [PC - 0x19C /* 00000DBE */]
00000F5C  6000 045E                bra        +0x460 /* 000013BC */
00000F60  426D FEE4                clr.w      [A5 - 0x11C]
00000F64  3B7C 0001 FEE2           move.w     [A5 - 0x11E], 0x1
00000F6A  3B7C 0003 FEE0           move.w     [A5 - 0x120], 0x3
00000F70  302D FEE2                move.w     D0, [A5 - 0x11E]
00000F74  C1FC 0090                muls.w     D0, 0x90
00000F78  322D FEE4                move.w     D1, [A5 - 0x11C]
00000F7C  E741                     asl        D1.w, 3
00000F7E  D041                     add.w      D0, D1
00000F80  0640 F1A8                addi.w     D0, 0xF1A8
00000F84  41F5 0000                lea.l      A0, [A5 + D0.w]
00000F88  43ED FEC6                lea.l      A1, [A5 - 0x13A]
00000F8C  22D8                     move.l     [A1]+, [A0]+
00000F8E  22D8                     move.l     [A1]+, [A0]+
00000F90  486D FEC6                pea.l      [A5 - 0x13A]
00000F94  302D FEC8                move.w     D0, [A5 - 0x138]
00000F98  4440                     neg.w      D0
00000F9A  3F00                     move.w     -[A7], D0
00000F9C  302D FEC6                move.w     D0, [A5 - 0x13A]
00000FA0  4440                     neg.w      D0
00000FA2  3F00                     move.w     -[A7], D0
00000FA4  A8A8                     syscall    OffsetRect
00000FA6  486D FEC6                pea.l      [A5 - 0x13A]
00000FAA  3F3C 01CC                move.w     -[A7], 0x1CC
00000FAE  3F3C 002D                move.w     -[A7], 0x2D /* '-' */
00000FB2  A8A8                     syscall    OffsetRect
00000FB4  41ED FEC6                lea.l      A0, [A5 - 0x13A]
00000FB8  43ED FED6                lea.l      A1, [A5 - 0x12A]
00000FBC  22D8                     move.l     [A1]+, [A0]+
00000FBE  22D8                     move.l     [A1]+, [A0]+
00000FC0  41ED FEC6                lea.l      A0, [A5 - 0x13A]
00000FC4  43ED FECE                lea.l      A1, [A5 - 0x132]
00000FC8  22D8                     move.l     [A1]+, [A0]+
00000FCA  22D8                     move.l     [A1]+, [A0]+
00000FCC  3F3C 0005                move.w     -[A7], 0x5
00000FD0  2F0E                     move.l     -[A7], A6
00000FD2  4EBA FDEA                jsr        [PC - 0x216 /* 00000DBE */]
00000FD6  6000 03E4                bra        +0x3E6 /* 000013BC */
00000FDA  426D FEE4                clr.w      [A5 - 0x11C]
00000FDE  426D FEE2                clr.w      [A5 - 0x11E]
00000FE2  3B7C 0004 FEE0           move.w     [A5 - 0x120], 0x4
00000FE8  302D FEE2                move.w     D0, [A5 - 0x11E]
00000FEC  C1FC 0090                muls.w     D0, 0x90
00000FF0  322D FEE4                move.w     D1, [A5 - 0x11C]
00000FF4  E741                     asl        D1.w, 3
00000FF6  D041                     add.w      D0, D1
00000FF8  0640 F1A8                addi.w     D0, 0xF1A8
00000FFC  41F5 0000                lea.l      A0, [A5 + D0.w]
00001000  43ED FEC6                lea.l      A1, [A5 - 0x13A]
00001004  22D8                     move.l     [A1]+, [A0]+
00001006  22D8                     move.l     [A1]+, [A0]+
00001008  486D FEC6                pea.l      [A5 - 0x13A]
0000100C  302D FEC8                move.w     D0, [A5 - 0x138]
00001010  4440                     neg.w      D0
00001012  3F00                     move.w     -[A7], D0
00001014  302D FEC6                move.w     D0, [A5 - 0x13A]
00001018  4440                     neg.w      D0
0000101A  3F00                     move.w     -[A7], D0
0000101C  A8A8                     syscall    OffsetRect
0000101E  486D FEC6                pea.l      [A5 - 0x13A]
00001022  3F3C 01B3                move.w     -[A7], 0x1B3
00001026  3F3C 002D                move.w     -[A7], 0x2D /* '-' */
0000102A  A8A8                     syscall    OffsetRect
0000102C  41ED FEC6                lea.l      A0, [A5 - 0x13A]
00001030  43ED FED6                lea.l      A1, [A5 - 0x12A]
00001034  22D8                     move.l     [A1]+, [A0]+
00001036  22D8                     move.l     [A1]+, [A0]+
00001038  41ED FEC6                lea.l      A0, [A5 - 0x13A]
0000103C  43ED FECE                lea.l      A1, [A5 - 0x132]
00001040  22D8                     move.l     [A1]+, [A0]+
00001042  22D8                     move.l     [A1]+, [A0]+
00001044  3F3C 0009                move.w     -[A7], 0x9 /* '\t' */
00001048  2F0E                     move.l     -[A7], A6
0000104A  4EBA FD72                jsr        [PC - 0x28E /* 00000DBE */]
0000104E  6000 036C                bra        +0x36E /* 000013BC */
00001052  3F3C 000D                move.w     -[A7], 0xD /* '\r' */
00001056  2F0E                     move.l     -[A7], A6
00001058  4EBA FD64                jsr        [PC - 0x29C /* 00000DBE */]
0000105C  6000 035E                bra        +0x360 /* 000013BC */
00001060  3F3C 0011                move.w     -[A7], 0x11
00001064  2F0E                     move.l     -[A7], A6
00001066  4EBA FD56                jsr        [PC - 0x2AA /* 00000DBE */]
0000106A  6000 0350                bra        +0x352 /* 000013BC */
0000106E  3F3C 0015                move.w     -[A7], 0x15
00001072  2F0E                     move.l     -[A7], A6
00001074  4EBA FD48                jsr        [PC - 0x2B8 /* 00000DBE */]
00001078  6000 0342                bra        +0x344 /* 000013BC */
0000107C  3F3C 0019                move.w     -[A7], 0x19
00001080  2F0E                     move.l     -[A7], A6
00001082  4EBA FD3A                jsr        [PC - 0x2C6 /* 00000DBE */]
00001086  6000 0334                bra        +0x336 /* 000013BC */
0000108A  3F3C 001D                move.w     -[A7], 0x1D
0000108E  2F0E                     move.l     -[A7], A6
00001090  4EBA FD2C                jsr        [PC - 0x2D4 /* 00000DBE */]
00001094  6000 0326                bra        +0x328 /* 000013BC */
00001098  3F3C 0021                move.w     -[A7], 0x21 /* '!' */
0000109C  2F0E                     move.l     -[A7], A6
0000109E  4EBA FD1E                jsr        [PC - 0x2E2 /* 00000DBE */]
000010A2  41ED FA9C                lea.l      A0, [A5 - 0x564]
000010A6  43EE FFE0                lea.l      A1, [A6 - 0x20]
000010AA  22D8                     move.l     [A1]+, [A0]+
000010AC  22D8                     move.l     [A1]+, [A0]+
000010AE  486E FFE0                pea.l      [A6 - 0x20]
000010B2  302E FFE2                move.w     D0, [A6 - 0x1E]
000010B6  4440                     neg.w      D0
000010B8  3F00                     move.w     -[A7], D0
000010BA  302E FFE0                move.w     D0, [A6 - 0x20]
000010BE  4440                     neg.w      D0
000010C0  3F00                     move.w     -[A7], D0
000010C2  A8A8                     syscall    OffsetRect
000010C4  486E FFE0                pea.l      [A6 - 0x20]
000010C8  3F3C 01C8                move.w     -[A7], 0x1C8
000010CC  3F3C 0033                move.w     -[A7], 0x33 /* '3' */
000010D0  A8A8                     syscall    OffsetRect
000010D2  4A2D FE7D                tst.b      [A5 - 0x183]
000010D6  6728                     beq        +0x2A /* 00001100 */
000010D8  206D B854                movea.l    A0, [A5 - 0x47AC]
000010DC  2068 0002                movea.l    A0, [A0 + 0x2]
000010E0  2F10                     move.l     -[A7], [A0]
000010E2  486D B62E                pea.l      [A5 - 0x49D2]
000010E6  206D B84C                movea.l    A0, [A5 - 0x47B4]
000010EA  2068 0002                movea.l    A0, [A0 + 0x2]
000010EE  2F10                     move.l     -[A7], [A0]
000010F0  486D FA9C                pea.l      [A5 - 0x564]
000010F4  486D FA9C                pea.l      [A5 - 0x564]
000010F8  486E FFE0                pea.l      [A6 - 0x20]
000010FC  A817                     syscall    CopyMask
000010FE  601A                     bra        +0x1C /* 0000111A */
label00001100:
00001100  486D B658                pea.l      [A5 - 0x49A8]
00001104  486D B62E                pea.l      [A5 - 0x49D2]
00001108  486D B63C                pea.l      [A5 - 0x49C4]
0000110C  486D FA9C                pea.l      [A5 - 0x564]
00001110  486D FA9C                pea.l      [A5 - 0x564]
00001114  486E FFE0                pea.l      [A6 - 0x20]
00001118  A817                     syscall    CopyMask
label0000111A:
0000111A  41ED FAB4                lea.l      A0, [A5 - 0x54C]
0000111E  43EE FFE0                lea.l      A1, [A6 - 0x20]
00001122  22D8                     move.l     [A1]+, [A0]+
00001124  22D8                     move.l     [A1]+, [A0]+
00001126  486E FFE0                pea.l      [A6 - 0x20]
0000112A  302E FFE2                move.w     D0, [A6 - 0x1E]
0000112E  4440                     neg.w      D0
00001130  3F00                     move.w     -[A7], D0
00001132  302E FFE0                move.w     D0, [A6 - 0x20]
00001136  4440                     neg.w      D0
00001138  3F00                     move.w     -[A7], D0
0000113A  A8A8                     syscall    OffsetRect
0000113C  486E FFE0                pea.l      [A6 - 0x20]
00001140  3F3C 01D2                move.w     -[A7], 0x1D2
00001144  3F3C 004B                move.w     -[A7], 0x4B /* 'K' */
00001148  A8A8                     syscall    OffsetRect
0000114A  4A2D FE7D                tst.b      [A5 - 0x183]
0000114E  672A                     beq        +0x2C /* 0000117A */
00001150  206D B854                movea.l    A0, [A5 - 0x47AC]
00001154  2068 0002                movea.l    A0, [A0 + 0x2]
00001158  2F10                     move.l     -[A7], [A0]
0000115A  486D B62E                pea.l      [A5 - 0x49D2]
0000115E  206D B84C                movea.l    A0, [A5 - 0x47B4]
00001162  2068 0002                movea.l    A0, [A0 + 0x2]
00001166  2F10                     move.l     -[A7], [A0]
00001168  486D FAB4                pea.l      [A5 - 0x54C]
0000116C  486D FAB4                pea.l      [A5 - 0x54C]
00001170  486E FFE0                pea.l      [A6 - 0x20]
00001174  A817                     syscall    CopyMask
00001176  6000 0244                bra        +0x246 /* 000013BC */
label0000117A:
0000117A  486D B658                pea.l      [A5 - 0x49A8]
0000117E  486D B62E                pea.l      [A5 - 0x49D2]
00001182  486D B63C                pea.l      [A5 - 0x49C4]
00001186  486D FAB4                pea.l      [A5 - 0x54C]
0000118A  486D FAB4                pea.l      [A5 - 0x54C]
0000118E  486E FFE0                pea.l      [A6 - 0x20]
00001192  A817                     syscall    CopyMask
00001194  6000 0226                bra        +0x228 /* 000013BC */
00001198  3F3C 0025                move.w     -[A7], 0x25 /* '%' */
0000119C  2F0E                     move.l     -[A7], A6
0000119E  4EBA FC1E                jsr        [PC - 0x3E2 /* 00000DBE */]
000011A2  41ED FB04                lea.l      A0, [A5 - 0x4FC]
000011A6  43EE FFE0                lea.l      A1, [A6 - 0x20]
000011AA  22D8                     move.l     [A1]+, [A0]+
000011AC  22D8                     move.l     [A1]+, [A0]+
000011AE  486E FFE0                pea.l      [A6 - 0x20]
000011B2  302E FFE2                move.w     D0, [A6 - 0x1E]
000011B6  4440                     neg.w      D0
000011B8  3F00                     move.w     -[A7], D0
000011BA  302E FFE0                move.w     D0, [A6 - 0x20]
000011BE  4440                     neg.w      D0
000011C0  3F00                     move.w     -[A7], D0
000011C2  A8A8                     syscall    OffsetRect
000011C4  486E FFE0                pea.l      [A6 - 0x20]
000011C8  3F3C 01D6                move.w     -[A7], 0x1D6
000011CC  3F3C 002D                move.w     -[A7], 0x2D /* '-' */
000011D0  A8A8                     syscall    OffsetRect
000011D2  4A2D FE7D                tst.b      [A5 - 0x183]
000011D6  6728                     beq        +0x2A /* 00001200 */
000011D8  206D B854                movea.l    A0, [A5 - 0x47AC]
000011DC  2068 0002                movea.l    A0, [A0 + 0x2]
000011E0  2F10                     move.l     -[A7], [A0]
000011E2  486D B62E                pea.l      [A5 - 0x49D2]
000011E6  206D B84C                movea.l    A0, [A5 - 0x47B4]
000011EA  2068 0002                movea.l    A0, [A0 + 0x2]
000011EE  2F10                     move.l     -[A7], [A0]
000011F0  486D FB04                pea.l      [A5 - 0x4FC]
000011F4  486D FB04                pea.l      [A5 - 0x4FC]
000011F8  486E FFE0                pea.l      [A6 - 0x20]
000011FC  A817                     syscall    CopyMask
000011FE  601A                     bra        +0x1C /* 0000121A */
label00001200:
00001200  486D B658                pea.l      [A5 - 0x49A8]
00001204  486D B62E                pea.l      [A5 - 0x49D2]
00001208  486D B63C                pea.l      [A5 - 0x49C4]
0000120C  486D FB04                pea.l      [A5 - 0x4FC]
00001210  486D FB04                pea.l      [A5 - 0x4FC]
00001214  486E FFE0                pea.l      [A6 - 0x20]
00001218  A817                     syscall    CopyMask
label0000121A:
0000121A  41ED FAFC                lea.l      A0, [A5 - 0x504]
0000121E  43EE FFE0                lea.l      A1, [A6 - 0x20]
00001222  22D8                     move.l     [A1]+, [A0]+
00001224  22D8                     move.l     [A1]+, [A0]+
00001226  486E FFE0                pea.l      [A6 - 0x20]
0000122A  302E FFE2                move.w     D0, [A6 - 0x1E]
0000122E  4440                     neg.w      D0
00001230  3F00                     move.w     -[A7], D0
00001232  302E FFE0                move.w     D0, [A6 - 0x20]
00001236  4440                     neg.w      D0
00001238  3F00                     move.w     -[A7], D0
0000123A  A8A8                     syscall    OffsetRect
0000123C  486E FFE0                pea.l      [A6 - 0x20]
00001240  3F3C 01DC                move.w     -[A7], 0x1DC
00001244  3F3C 004B                move.w     -[A7], 0x4B /* 'K' */
00001248  A8A8                     syscall    OffsetRect
0000124A  4A2D FE7D                tst.b      [A5 - 0x183]
0000124E  672A                     beq        +0x2C /* 0000127A */
00001250  206D B854                movea.l    A0, [A5 - 0x47AC]
00001254  2068 0002                movea.l    A0, [A0 + 0x2]
00001258  2F10                     move.l     -[A7], [A0]
0000125A  486D B62E                pea.l      [A5 - 0x49D2]
0000125E  206D B84C                movea.l    A0, [A5 - 0x47B4]
00001262  2068 0002                movea.l    A0, [A0 + 0x2]
00001266  2F10                     move.l     -[A7], [A0]
00001268  486D FAFC                pea.l      [A5 - 0x504]
0000126C  486D FAFC                pea.l      [A5 - 0x504]
00001270  486E FFE0                pea.l      [A6 - 0x20]
00001274  A817                     syscall    CopyMask
00001276  6000 0144                bra        +0x146 /* 000013BC */
label0000127A:
0000127A  486D B658                pea.l      [A5 - 0x49A8]
0000127E  486D B62E                pea.l      [A5 - 0x49D2]
00001282  486D B63C                pea.l      [A5 - 0x49C4]
00001286  486D FAFC                pea.l      [A5 - 0x504]
0000128A  486D FAFC                pea.l      [A5 - 0x504]
0000128E  486E FFE0                pea.l      [A6 - 0x20]
00001292  A817                     syscall    CopyMask
00001294  6000 0126                bra        +0x128 /* 000013BC */
00001298  3F3C 0029                move.w     -[A7], 0x29 /* ')' */
0000129C  2F0E                     move.l     -[A7], A6
0000129E  4EBA FB1E                jsr        [PC - 0x4E2 /* 00000DBE */]
000012A2  41ED FAE4                lea.l      A0, [A5 - 0x51C]
000012A6  43EE FFE0                lea.l      A1, [A6 - 0x20]
000012AA  22D8                     move.l     [A1]+, [A0]+
000012AC  22D8                     move.l     [A1]+, [A0]+
000012AE  486E FFE0                pea.l      [A6 - 0x20]
000012B2  302E FFE2                move.w     D0, [A6 - 0x1E]
000012B6  4440                     neg.w      D0
000012B8  3F00                     move.w     -[A7], D0
000012BA  302E FFE0                move.w     D0, [A6 - 0x20]
000012BE  4440                     neg.w      D0
000012C0  3F00                     move.w     -[A7], D0
000012C2  A8A8                     syscall    OffsetRect
000012C4  486E FFE0                pea.l      [A6 - 0x20]
000012C8  3F3C 01CC                move.w     -[A7], 0x1CC
000012CC  3F3C 002D                move.w     -[A7], 0x2D /* '-' */
000012D0  A8A8                     syscall    OffsetRect
000012D2  4A2D FE7D                tst.b      [A5 - 0x183]
000012D6  6728                     beq        +0x2A /* 00001300 */
000012D8  206D B854                movea.l    A0, [A5 - 0x47AC]
000012DC  2068 0002                movea.l    A0, [A0 + 0x2]
000012E0  2F10                     move.l     -[A7], [A0]
000012E2  486D B62E                pea.l      [A5 - 0x49D2]
000012E6  206D B84C                movea.l    A0, [A5 - 0x47B4]
000012EA  2068 0002                movea.l    A0, [A0 + 0x2]
000012EE  2F10                     move.l     -[A7], [A0]
000012F0  486D FAE4                pea.l      [A5 - 0x51C]
000012F4  486D FAE4                pea.l      [A5 - 0x51C]
000012F8  486E FFE0                pea.l      [A6 - 0x20]
000012FC  A817                     syscall    CopyMask
000012FE  601A                     bra        +0x1C /* 0000131A */
label00001300:
00001300  486D B658                pea.l      [A5 - 0x49A8]
00001304  486D B62E                pea.l      [A5 - 0x49D2]
00001308  486D B63C                pea.l      [A5 - 0x49C4]
0000130C  486D FAE4                pea.l      [A5 - 0x51C]
00001310  486D FAE4                pea.l      [A5 - 0x51C]
00001314  486E FFE0                pea.l      [A6 - 0x20]
00001318  A817                     syscall    CopyMask
label0000131A:
0000131A  41ED FADC                lea.l      A0, [A5 - 0x524]
0000131E  43EE FFE0                lea.l      A1, [A6 - 0x20]
00001322  22D8                     move.l     [A1]+, [A0]+
00001324  22D8                     move.l     [A1]+, [A0]+
00001326  486E FFE0                pea.l      [A6 - 0x20]
0000132A  302E FFE2                move.w     D0, [A6 - 0x1E]
0000132E  4440                     neg.w      D0
00001330  3F00                     move.w     -[A7], D0
00001332  302E FFE0                move.w     D0, [A6 - 0x20]
00001336  4440                     neg.w      D0
00001338  3F00                     move.w     -[A7], D0
0000133A  A8A8                     syscall    OffsetRect
0000133C  486E FFE0                pea.l      [A6 - 0x20]
00001340  3F3C 01D4                move.w     -[A7], 0x1D4
00001344  3F3C 0045                move.w     -[A7], 0x45 /* 'E' */
00001348  A8A8                     syscall    OffsetRect
0000134A  4A2D FE7D                tst.b      [A5 - 0x183]
0000134E  6728                     beq        +0x2A /* 00001378 */
00001350  206D B854                movea.l    A0, [A5 - 0x47AC]
00001354  2068 0002                movea.l    A0, [A0 + 0x2]
00001358  2F10                     move.l     -[A7], [A0]
0000135A  486D B62E                pea.l      [A5 - 0x49D2]
0000135E  206D B84C                movea.l    A0, [A5 - 0x47B4]
00001362  2068 0002                movea.l    A0, [A0 + 0x2]
00001366  2F10                     move.l     -[A7], [A0]
00001368  486D FADC                pea.l      [A5 - 0x524]
0000136C  486D FADC                pea.l      [A5 - 0x524]
00001370  486E FFE0                pea.l      [A6 - 0x20]
00001374  A817                     syscall    CopyMask
00001376  6044                     bra        +0x46 /* 000013BC */
label00001378:
00001378  486D B658                pea.l      [A5 - 0x49A8]
0000137C  486D B62E                pea.l      [A5 - 0x49D2]
00001380  486D B63C                pea.l      [A5 - 0x49C4]
00001384  486D FADC                pea.l      [A5 - 0x524]
00001388  486D FADC                pea.l      [A5 - 0x524]
0000138C  486E FFE0                pea.l      [A6 - 0x20]
00001390  A817                     syscall    CopyMask
00001392  6028                     bra        +0x2A /* 000013BC */
label00001394:
00001394  5340                     subq.w     D0, 1
00001396  0C40 000B                cmpi.w     D0, 0xB
0000139A  6420                     bcc        +0x22 /* 000013BC */
0000139C  D040                     add.w      D0, D0
0000139E  303B 0006                move.w     D0, [PC + D0.w + 0x6]
000013A2  4EFB 0002                jmp        [PC + D0.w + 0x2]
000013A6  FB40                     .extension 0xB40 <<F/4-5/5>> // unimplemented
000013A8  FBBA                     .invalid   <<F/6/5>>
000013AA  FC34 FCAC                .unknown   0xFC34 0xFCAC (W = 6)
000013AE  FCBA FCC8                .extension 0xCBA <<F/2-3/6>> // unimplemented
000013B2  FCD6 FCE4                .extension 0xCD6 <<F/2-3/6>> // unimplemented
000013B6  FCF2 FDF2                .extension 0xCF2 <<F/2-3/6>> // unimplemented
000013BA  FEF2 2F2D                .extension 0xEF2 <<F/2-3/7>> // unimplemented
// begin alternate branch 000013BC-000013C2
label000013BC:
000013BC  2F2D B5FA                move.l     -[A7], [A5 - 0x4A06]
000013C0  A873                     syscall    SetPort
// end alternate branch 000013BC-000013C2
label000013BC: // (misaligned)
000013BE  B5FA A873                cmpa.l     A2, [PC - 0x578D /* FFFFBC33 */]
000013C2  4A2D FE7D                tst.b      [A5 - 0x183]
000013C6  6728                     beq        +0x2A /* 000013F0 */
000013C8  206D B84C                movea.l    A0, [A5 - 0x47B4]
000013CC  2068 0002                movea.l    A0, [A0 + 0x2]
000013D0  2F10                     move.l     -[A7], [A0]
000013D2  206D B5FA                movea.l    A0, [A5 - 0x4A06]
000013D6  4868 0002                pea.l      [A0 + 0x2]
000013DA  486E FFE8                pea.l      [A6 - 0x18]
000013DE  486E FFE8                pea.l      [A6 - 0x18]
000013E2  4267                     clr.w      -[A7]
000013E4  206D B5FA                movea.l    A0, [A5 - 0x4A06]
000013E8  2F28 0018                move.l     -[A7], [A0 + 0x18]
000013EC  A8EC                     syscall    CopyBits
000013EE  6020                     bra        +0x22 /* 00001410 */
label000013F0:
000013F0  486D B63C                pea.l      [A5 - 0x49C4]
000013F4  206D B5FA                movea.l    A0, [A5 - 0x4A06]
000013F8  4868 0002                pea.l      [A0 + 0x2]
000013FC  486E FFE8                pea.l      [A6 - 0x18]
00001400  486E FFE8                pea.l      [A6 - 0x18]
00001404  4267                     clr.w      -[A7]
00001406  206D B5FA                movea.l    A0, [A5 - 0x4A06]
0000140A  2F28 0018                move.l     -[A7], [A0 + 0x18]
0000140E  A8EC                     syscall    CopyBits
label00001410:
00001410  4E5E                     unlink     A6
00001412  205F                     movea.l    A0, [A7]+
00001414  544F                     addq.w     A7, 2
00001416  4ED0                     jmp        [A0]
export_97:
fn00001418:
00001418  4E56 FFE2                link       A6, -0x001E
0000141C  48E7 0108                movem.l    -[A7], D7,A4
00001420  486E FFE8                pea.l      [A6 - 0x18]
00001424  3F3C 0004                move.w     -[A7], 0x4
00001428  3F3C 0004                move.w     -[A7], 0x4
0000142C  3F3C 01FB                move.w     -[A7], 0x1FB
00001430  3F3C 0082                move.w     -[A7], 0x82
00001434  A8A7                     syscall    SetRect
00001436  4A2D FE7D                tst.b      [A5 - 0x183]
0000143A  6708                     beq        +0xA /* 00001444 */
0000143C  2F2D B850                move.l     -[A7], [A5 - 0x47B0]
00001440  A873                     syscall    SetPort
00001442  6006                     bra        +0x8 /* 0000144A */
label00001444:
00001444  2F2D B67C                move.l     -[A7], [A5 - 0x4984]
00001448  A873                     syscall    SetPort
label0000144A:
0000144A  594F                     subq.w     A7, 4
0000144C  302D FEBC                move.w     D0, [A5 - 0x144]
00001450  0640 03E8                addi.w     D0, 0x3E8
00001454  3F00                     move.w     -[A7], D0
00001456  A9BC                     syscall    GetPicture
00001458  285F                     movea.l    A4, [A7]+
0000145A  200C                     move.l     D0, A4
0000145C  6728                     beq        +0x2A /* 00001486 */
0000145E  554F                     subq.w     A7, 2
00001460  2F0C                     move.l     -[A7], A4
00001462  4EAD 0152                jsr        [A5 + 0x152 /* export_38, CODE:1 @ 00000926 */]
00001466  1E1F                     move.b     D7, [A7]+
00001468  2F0C                     move.l     -[A7], A4
0000146A  4EAD 0072                jsr        [A5 + 0x72 /* export_10, CODE:1 @ 00000392 */]
0000146E  2F0C                     move.l     -[A7], A4
00001470  4EAD 008A                jsr        [A5 + 0x8A /* export_13, CODE:1 @ 000005CA */]
00001474  2F0C                     move.l     -[A7], A4
00001476  486E FFE8                pea.l      [A6 - 0x18]
0000147A  A8F6                     syscall    DrawPicture
0000147C  2F0C                     move.l     -[A7], A4
0000147E  1F07                     move.b     -[A7], D7
00001480  4EAD 015A                jsr        [A5 + 0x15A /* export_39, CODE:1 @ 00000930 */]
00001484  600A                     bra        +0xC /* 00001490 */
label00001486:
00001486  3F3C 0005                move.w     -[A7], 0x5
0000148A  4EAD 01BA                jsr        [A5 + 0x1BA /* export_51, CODE:1 @ 00001AE2 */]
0000148E  A9F4                     syscall    ExitToShell
label00001490:
00001490  2F0C                     move.l     -[A7], A4
00001492  A9A3                     syscall    ReleaseResource
00001494  4A2D FE7D                tst.b      [A5 - 0x183]
00001498  6736                     beq        +0x38 /* 000014D0 */
0000149A  2F3C 0000 0111           move.l     -[A7], 0x111
000014A0  A863                     syscall    BackColor
000014A2  206D B850                movea.l    A0, [A5 - 0x47B0]
000014A6  2068 0002                movea.l    A0, [A0 + 0x2]
000014AA  2F10                     move.l     -[A7], [A0]
000014AC  206D B5FA                movea.l    A0, [A5 - 0x4A06]
000014B0  4868 0002                pea.l      [A0 + 0x2]
000014B4  486E FFE8                pea.l      [A6 - 0x18]
000014B8  486E FFE8                pea.l      [A6 - 0x18]
000014BC  4267                     clr.w      -[A7]
000014BE  206D B5FA                movea.l    A0, [A5 - 0x4A06]
000014C2  2F28 0018                move.l     -[A7], [A0 + 0x18]
000014C6  A8EC                     syscall    CopyBits
000014C8  701E                     moveq.l    D0, 0x1E
000014CA  2F00                     move.l     -[A7], D0
000014CC  A863                     syscall    BackColor
000014CE  6020                     bra        +0x22 /* 000014F0 */
label000014D0:
000014D0  486D B64A                pea.l      [A5 - 0x49B6]
000014D4  206D B5FA                movea.l    A0, [A5 - 0x4A06]
000014D8  4868 0002                pea.l      [A0 + 0x2]
000014DC  486E FFE8                pea.l      [A6 - 0x18]
000014E0  486E FFE8                pea.l      [A6 - 0x18]
000014E4  4267                     clr.w      -[A7]
000014E6  206D B5FA                movea.l    A0, [A5 - 0x4A06]
000014EA  2F28 0018                move.l     -[A7], [A0 + 0x18]
000014EE  A8EC                     syscall    CopyBits
label000014F0:
000014F0  4CDF 1080                movem.l    D7,A4, [A7]+
000014F4  4E5E                     unlink     A6
000014F6  4E75                     rts
fn000014F8:
000014F8  4A2D FE7D                tst.b      [A5 - 0x183]
000014FC  6750                     beq        +0x52 /* 0000154E */
000014FE  206D B84C                movea.l    A0, [A5 - 0x47B4]
00001502  2068 0002                movea.l    A0, [A0 + 0x2]
00001506  2F10                     move.l     -[A7], [A0]
00001508  206D B5FA                movea.l    A0, [A5 - 0x4A06]
0000150C  4868 0002                pea.l      [A0 + 0x2]
00001510  486D B602                pea.l      [A5 - 0x49FE]
00001514  486D B602                pea.l      [A5 - 0x49FE]
00001518  4267                     clr.w      -[A7]
0000151A  206D B5FA                movea.l    A0, [A5 - 0x4A06]
0000151E  2F28 0018                move.l     -[A7], [A0 + 0x18]
00001522  A8EC                     syscall    CopyBits
00001524  206D B84C                movea.l    A0, [A5 - 0x47B4]
00001528  2068 0002                movea.l    A0, [A0 + 0x2]
0000152C  2F10                     move.l     -[A7], [A0]
0000152E  206D B850                movea.l    A0, [A5 - 0x47B0]
00001532  2068 0002                movea.l    A0, [A0 + 0x2]
00001536  2F10                     move.l     -[A7], [A0]
00001538  486D B602                pea.l      [A5 - 0x49FE]
0000153C  486D B602                pea.l      [A5 - 0x49FE]
00001540  4267                     clr.w      -[A7]
00001542  206D B5FA                movea.l    A0, [A5 - 0x4A06]
00001546  2F28 0018                move.l     -[A7], [A0 + 0x18]
0000154A  A8EC                     syscall    CopyBits
0000154C  603C                     bra        +0x3E /* 0000158A */
label0000154E:
0000154E  486D B63C                pea.l      [A5 - 0x49C4]
00001552  206D B5FA                movea.l    A0, [A5 - 0x4A06]
00001556  4868 0002                pea.l      [A0 + 0x2]
0000155A  486D B602                pea.l      [A5 - 0x49FE]
0000155E  486D B602                pea.l      [A5 - 0x49FE]
00001562  4267                     clr.w      -[A7]
00001564  206D B5FA                movea.l    A0, [A5 - 0x4A06]
00001568  2F28 0018                move.l     -[A7], [A0 + 0x18]
0000156C  A8EC                     syscall    CopyBits
0000156E  486D B63C                pea.l      [A5 - 0x49C4]
00001572  486D B64A                pea.l      [A5 - 0x49B6]
00001576  486D B602                pea.l      [A5 - 0x49FE]
0000157A  486D B602                pea.l      [A5 - 0x49FE]
0000157E  4267                     clr.w      -[A7]
00001580  206D B5FA                movea.l    A0, [A5 - 0x4A06]
00001584  2F28 0018                move.l     -[A7], [A0 + 0x18]
00001588  A8EC                     syscall    CopyBits
label0000158A:
0000158A  0C6D 0156 FF5A           cmpi.w     [A5 - 0xA6], 0x156
00001590  6E04                     bgt        +0x6 /* 00001596 */
00001592  4EAD 020A                jsr        [A5 + 0x20A /* export_61, CODE:1 @ 0000261A */]
label00001596:
00001596  4A2D FE7F                tst.b      [A5 - 0x181]
0000159A  6714                     beq        +0x16 /* 000015B0 */
0000159C  554F                     subq.w     A7, 2
0000159E  3F3C 000B                move.w     -[A7], 0xB
000015A2  4EAD 01DA                jsr        [A5 + 0x1DA /* export_55, CODE:1 @ 00001C70 */]
000015A6  301F                     move.w     D0, [A7]+
000015A8  5240                     addq.w     D0, 1
000015AA  3B40 F852                move.w     [A5 - 0x7AE], D0
000015AE  6008                     bra        +0xA /* 000015B8 */
label000015B0:
000015B0  1F3C 0001                move.b     -[A7], 0x1
000015B4  4EBA F8C4                jsr        [PC - 0x73C /* 00000E7A */]
label000015B8:
000015B8  4E75                     rts
fn000015BA:
000015BA  0C6D 0007 FEBC           cmpi.w     [A5 - 0x144], 0x7
000015C0  6C1A                     bge        +0x1C /* 000015DC */
000015C2  302D FEBC                move.w     D0, [A5 - 0x144]
000015C6  5240                     addq.w     D0, 1
000015C8  3B40 FEBC                move.w     [A5 - 0x144], D0
000015CC  4EBA FE4A                jsr        [PC - 0x1B6 /* 00001418 */]
000015D0  3F3C FFFF                move.w     -[A7], 0xFFFF
000015D4  4267                     clr.w      -[A7]
000015D6  201F                     move.l     D0, [A7]+
000015D8  A032                     syscall    FlushEvents
000015DA  6004                     bra        +0x6 /* 000015E0 */
label000015DC:
000015DC  4EBA FF1A                jsr        [PC - 0xE6 /* 000014F8 */]
label000015E0:
000015E0  4E75                     rts
fn000015E2:
000015E2  3B7C 0001 FEBC           move.w     [A5 - 0x144], 0x1
000015E8  3B7C 0063 F852           move.w     [A5 - 0x7AE], 0x63 /* 'c' */
000015EE  0C6D 0156 FF5A           cmpi.w     [A5 - 0xA6], 0x156
000015F4  6E04                     bgt        +0x6 /* 000015FA */
000015F6  4EAD 0202                jsr        [A5 + 0x202 /* export_60, CODE:1 @ 000025C4 */]
label000015FA:
000015FA  4EBA FE1C                jsr        [PC - 0x1E4 /* 00001418 */]
label000015FE:
000015FE  554F                     subq.w     A7, 2
00001600  A974                     syscall    Button
00001602  101F                     move.b     D0, [A7]+
00001604  5300                     subq.b     D0, 1
00001606  67F6                     beq        -0x8 /* 000015FE */
00001608  4E75                     rts
export_98:
0000160A  4E56 FFEE                link       A6, -0x0012
0000160E  2F07                     move.l     -[A7], D7
00001610  4247                     clr.w      D7
label00001612:
00001612  41ED FE8E                lea.l      A0, [A5 - 0x172]
00001616  4230 7000                clr.b      [A0 + D7.w]
0000161A  5247                     addq.w     D7, 1
0000161C  0C47 0003                cmpi.w     D7, 0x3
00001620  6FF0                     ble        -0xE /* 00001612 */
00001622  486D FE92                pea.l      [A5 - 0x16E]
00001626  4267                     clr.w      -[A7]
00001628  4267                     clr.w      -[A7]
0000162A  3F3C 0030                move.w     -[A7], 0x30 /* '0' */
0000162E  3F3C 0014                move.w     -[A7], 0x14
00001632  A8A7                     syscall    SetRect
00001634  486D FE92                pea.l      [A5 - 0x16E]
00001638  554F                     subq.w     A7, 2
0000163A  3F3C 01C2                move.w     -[A7], 0x1C2
0000163E  4EAD 01DA                jsr        [A5 + 0x1DA /* export_55, CODE:1 @ 00001C70 */]
00001642  301F                     move.w     D0, [A7]+
00001644  0640 FE00                addi.w     D0, 0xFE00
00001648  3F00                     move.w     -[A7], D0
0000164A  554F                     subq.w     A7, 2
0000164C  3F3C 0046                move.w     -[A7], 0x46 /* 'F' */
00001650  4EAD 01DA                jsr        [A5 + 0x1DA /* export_55, CODE:1 @ 00001C70 */]
00001654  301F                     move.w     D0, [A7]+
00001656  0640 0082                addi.w     D0, 0x82
0000165A  3F00                     move.w     -[A7], D0
0000165C  A8A8                     syscall    OffsetRect
0000165E  486D FE9A                pea.l      [A5 - 0x166]
00001662  4267                     clr.w      -[A7]
00001664  4267                     clr.w      -[A7]
00001666  3F3C 0023                move.w     -[A7], 0x23 /* '#' */
0000166A  3F3C 000F                move.w     -[A7], 0xF
0000166E  A8A7                     syscall    SetRect
00001670  486D FE9A                pea.l      [A5 - 0x166]
00001674  554F                     subq.w     A7, 2
00001676  3F3C 01C2                move.w     -[A7], 0x1C2
0000167A  4EAD 01DA                jsr        [A5 + 0x1DA /* export_55, CODE:1 @ 00001C70 */]
0000167E  301F                     move.w     D0, [A7]+
00001680  0640 FE00                addi.w     D0, 0xFE00
00001684  3F00                     move.w     -[A7], D0
00001686  554F                     subq.w     A7, 2
00001688  3F3C 0046                move.w     -[A7], 0x46 /* 'F' */
0000168C  4EAD 01DA                jsr        [A5 + 0x1DA /* export_55, CODE:1 @ 00001C70 */]
00001690  301F                     move.w     D0, [A7]+
00001692  0640 0082                addi.w     D0, 0x82
00001696  3F00                     move.w     -[A7], D0
00001698  A8A8                     syscall    OffsetRect
0000169A  594F                     subq.w     A7, 4
0000169C  A975                     syscall    TickCount
0000169E  2B5F FEC2                move.l     [A5 - 0x13E], [A7]+
000016A2  3F3C 0003                move.w     -[A7], 0x3
000016A6  3F3C 00DE                move.w     -[A7], 0xDE
000016AA  A893                     syscall    MoveTo
000016AC  594F                     subq.w     A7, 4
000016AE  A8D8                     syscall    NewRgn
000016B0  2B5F FEB2                move.l     [A5 - 0x14E], [A7]+
000016B4  A8DA                     syscall    OpenRgn
000016B6  3F3C 001D                move.w     -[A7], 0x1D
000016BA  3F3C 00DE                move.w     -[A7], 0xDE
000016BE  A891                     syscall    LineTo
000016C0  3F3C 0010                move.w     -[A7], 0x10
000016C4  3F3C 00B7                move.w     -[A7], 0xB7
000016C8  A891                     syscall    LineTo
000016CA  3F3C 0052                move.w     -[A7], 0x52 /* 'R' */
000016CE  3F3C 00B7                move.w     -[A7], 0xB7
000016D2  A891                     syscall    LineTo
000016D4  3F3C 005D                move.w     -[A7], 0x5D /* ']' */
000016D8  3F3C 00A1                move.w     -[A7], 0xA1
000016DC  A891                     syscall    LineTo
000016DE  3F3C 00CC                move.w     -[A7], 0xCC
000016E2  3F3C 00A1                move.w     -[A7], 0xA1
000016E6  A891                     syscall    LineTo
000016E8  3F3C 00D6                move.w     -[A7], 0xD6
000016EC  3F3C 00C8                move.w     -[A7], 0xC8
000016F0  A891                     syscall    LineTo
000016F2  3F3C 0149                move.w     -[A7], 0x149
000016F6  3F3C 00C8                move.w     -[A7], 0xC8
000016FA  A891                     syscall    LineTo
000016FC  3F3C 014F                move.w     -[A7], 0x14F
00001700  3F3C 00CE                move.w     -[A7], 0xCE
00001704  A891                     syscall    LineTo
00001706  3F3C 0160                move.w     -[A7], 0x160
0000170A  3F3C 00CE                move.w     -[A7], 0xCE
0000170E  A891                     syscall    LineTo
00001710  3F3C 0170                move.w     -[A7], 0x170
00001714  3F3C 00DD                move.w     -[A7], 0xDD
00001718  A891                     syscall    LineTo
0000171A  3F3C 018C                move.w     -[A7], 0x18C
0000171E  3F3C 00DD                move.w     -[A7], 0xDD
00001722  A891                     syscall    LineTo
00001724  3F3C 01FD                move.w     -[A7], 0x1FD
00001728  3F3C 0116                move.w     -[A7], 0x116
0000172C  A891                     syscall    LineTo
0000172E  3F3C 01FD                move.w     -[A7], 0x1FD
00001732  3F3C 0082                move.w     -[A7], 0x82
00001736  A891                     syscall    LineTo
00001738  3F3C 0003                move.w     -[A7], 0x3
0000173C  3F3C 0082                move.w     -[A7], 0x82
00001740  A891                     syscall    LineTo
00001742  3F3C 0003                move.w     -[A7], 0x3
00001746  3F3C 00DE                move.w     -[A7], 0xDE
0000174A  A891                     syscall    LineTo
0000174C  2F2D FEB2                move.l     -[A7], [A5 - 0x14E]
00001750  A8DB                     syscall    CloseRgn
00001752  426D FEB8                clr.w      [A5 - 0x148]
00001756  426D FEB6                clr.w      [A5 - 0x14A]
0000175A  426D F854                clr.w      [A5 - 0x7AC]
0000175E  1F3C 0001                move.b     -[A7], 0x1
00001762  4EBA F716                jsr        [PC - 0x8EA /* 00000E7A */]
00001766  2E1F                     move.l     D7, [A7]+
00001768  4E5E                     unlink     A6
0000176A  4E75                     rts
fn0000176C:
0000176C  4E56 FFE0                link       A6, -0x0020
00001770  302D FEE4                move.w     D0, [A5 - 0x11C]
00001774  5240                     addq.w     D0, 1
00001776  3B40 FEE4                move.w     [A5 - 0x11C], D0
0000177A  0C6D 0007 FEE4           cmpi.w     [A5 - 0x11C], 0x7
00001780  6F0E                     ble        +0x10 /* 00001790 */
00001782  426D FEE4                clr.w      [A5 - 0x11C]
00001786  302D FEE0                move.w     D0, [A5 - 0x120]
0000178A  4440                     neg.w      D0
0000178C  3B40 FEE0                move.w     [A5 - 0x120], D0
label00001790:
00001790  486D FEC6                pea.l      [A5 - 0x13A]
00001794  4267                     clr.w      -[A7]
00001796  3F2D FEE0                move.w     -[A7], [A5 - 0x120]
0000179A  A8A8                     syscall    OffsetRect
0000179C  4A2D FE7D                tst.b      [A5 - 0x183]
000017A0  6700 009E                beq        +0xA0 /* 00001840 */
000017A4  2F2D B850                move.l     -[A7], [A5 - 0x47B0]
000017A8  A873                     syscall    SetPort
000017AA  486D FEC6                pea.l      [A5 - 0x13A]
000017AE  486D FED6                pea.l      [A5 - 0x12A]
000017B2  486D FECE                pea.l      [A5 - 0x132]
000017B6  A8AB                     syscall    UnionRect
000017B8  486D FECE                pea.l      [A5 - 0x132]
000017BC  486D FFBA                pea.l      [A5 - 0x46]
000017C0  A8A5                     syscall    FillRect
000017C2  2F2D B5FA                move.l     -[A7], [A5 - 0x4A06]
000017C6  A873                     syscall    SetPort
000017C8  206D B854                movea.l    A0, [A5 - 0x47AC]
000017CC  2068 0002                movea.l    A0, [A0 + 0x2]
000017D0  2F10                     move.l     -[A7], [A0]
000017D2  486D B62E                pea.l      [A5 - 0x49D2]
000017D6  206D B850                movea.l    A0, [A5 - 0x47B0]
000017DA  2068 0002                movea.l    A0, [A0 + 0x2]
000017DE  2F10                     move.l     -[A7], [A0]
000017E0  302D FEE2                move.w     D0, [A5 - 0x11E]
000017E4  C1FC 0090                muls.w     D0, 0x90
000017E8  322D FEE4                move.w     D1, [A5 - 0x11C]
000017EC  E741                     asl        D1.w, 3
000017EE  D041                     add.w      D0, D1
000017F0  0640 F1A8                addi.w     D0, 0xF1A8
000017F4  4875 0000                pea.l      [A5 + D0.w]
000017F8  302D FEE2                move.w     D0, [A5 - 0x11E]
000017FC  C1FC 0090                muls.w     D0, 0x90
00001800  322D FEE4                move.w     D1, [A5 - 0x11C]
00001804  E741                     asl        D1.w, 3
00001806  D041                     add.w      D0, D1
00001808  0640 F1A8                addi.w     D0, 0xF1A8
0000180C  4875 0000                pea.l      [A5 + D0.w]
00001810  486D FEC6                pea.l      [A5 - 0x13A]
00001814  A817                     syscall    CopyMask
00001816  206D B850                movea.l    A0, [A5 - 0x47B0]
0000181A  2068 0002                movea.l    A0, [A0 + 0x2]
0000181E  2F10                     move.l     -[A7], [A0]
00001820  206D B5FA                movea.l    A0, [A5 - 0x4A06]
00001824  4868 0002                pea.l      [A0 + 0x2]
00001828  486D FECE                pea.l      [A5 - 0x132]
0000182C  486D FECE                pea.l      [A5 - 0x132]
00001830  4267                     clr.w      -[A7]
00001832  206D B5FA                movea.l    A0, [A5 - 0x4A06]
00001836  2F28 0018                move.l     -[A7], [A0 + 0x18]
0000183A  A8EC                     syscall    CopyBits
0000183C  6000 0088                bra        +0x8A /* 000018C6 */
label00001840:
00001840  2F2D B67C                move.l     -[A7], [A5 - 0x4984]
00001844  A873                     syscall    SetPort
00001846  486D FEC6                pea.l      [A5 - 0x13A]
0000184A  486D FED6                pea.l      [A5 - 0x12A]
0000184E  486D FECE                pea.l      [A5 - 0x132]
00001852  A8AB                     syscall    UnionRect
00001854  486D FECE                pea.l      [A5 - 0x132]
00001858  486D FFBA                pea.l      [A5 - 0x46]
0000185C  A8A5                     syscall    FillRect
0000185E  2F2D B5FA                move.l     -[A7], [A5 - 0x4A06]
00001862  A873                     syscall    SetPort
00001864  486D B658                pea.l      [A5 - 0x49A8]
00001868  486D B62E                pea.l      [A5 - 0x49D2]
0000186C  486D B64A                pea.l      [A5 - 0x49B6]
00001870  302D FEE2                move.w     D0, [A5 - 0x11E]
00001874  C1FC 0090                muls.w     D0, 0x90
00001878  322D FEE4                move.w     D1, [A5 - 0x11C]
0000187C  E741                     asl        D1.w, 3
0000187E  D041                     add.w      D0, D1
00001880  0640 F1A8                addi.w     D0, 0xF1A8
00001884  4875 0000                pea.l      [A5 + D0.w]
00001888  302D FEE2                move.w     D0, [A5 - 0x11E]
0000188C  C1FC 0090                muls.w     D0, 0x90
00001890  322D FEE4                move.w     D1, [A5 - 0x11C]
00001894  E741                     asl        D1.w, 3
00001896  D041                     add.w      D0, D1
00001898  0640 F1A8                addi.w     D0, 0xF1A8
0000189C  4875 0000                pea.l      [A5 + D0.w]
000018A0  486D FEC6                pea.l      [A5 - 0x13A]
000018A4  A817                     syscall    CopyMask
000018A6  486D B64A                pea.l      [A5 - 0x49B6]
000018AA  206D B5FA                movea.l    A0, [A5 - 0x4A06]
000018AE  4868 0002                pea.l      [A0 + 0x2]
000018B2  486D FECE                pea.l      [A5 - 0x132]
000018B6  486D FECE                pea.l      [A5 - 0x132]
000018BA  4267                     clr.w      -[A7]
000018BC  206D B5FA                movea.l    A0, [A5 - 0x4A06]
000018C0  2F28 0018                move.l     -[A7], [A0 + 0x18]
000018C4  A8EC                     syscall    CopyBits
label000018C6:
000018C6  41ED FEC6                lea.l      A0, [A5 - 0x13A]
000018CA  43ED FED6                lea.l      A1, [A5 - 0x12A]
000018CE  22D8                     move.l     [A1]+, [A0]+
000018D0  22D8                     move.l     [A1]+, [A0]+
000018D2  4E5E                     unlink     A6
000018D4  4E75                     rts
export_99:
000018D6  4E56 FF78                link       A6, -0x0088
000018DA  2F0C                     move.l     -[A7], A4
000018DC  4A6D F852                tst.w      [A5 - 0x7AE]
000018E0  6700 03D6                beq        +0x3D8 /* 00001CB8 */
000018E4  0C6D 0063 F852           cmpi.w     [A5 - 0x7AE], 0x63 /* 'c' */
000018EA  6736                     beq        +0x38 /* 00001922 */
000018EC  302D F854                move.w     D0, [A5 - 0x7AC]
000018F0  5240                     addq.w     D0, 1
000018F2  3B40 F854                move.w     [A5 - 0x7AC], D0
000018F6  0C6D 009F F854           cmpi.w     [A5 - 0x7AC], 0x9F
000018FC  6D0C                     blt        +0xE /* 0000190A */
000018FE  426D F854                clr.w      [A5 - 0x7AC]
00001902  1F3C 0001                move.b     -[A7], 0x1
00001906  4EBA F572                jsr        [PC - 0xA8E /* 00000E7A */]
label0000190A:
0000190A  0C6D 0001 F852           cmpi.w     [A5 - 0x7AE], 0x1
00001910  5CC0                     sge        D0
00001912  0C6D 0003 F852           cmpi.w     [A5 - 0x7AE], 0x3
00001918  5FC1                     sle        D1
0000191A  C001                     and.b      D0, D1
0000191C  6704                     beq        +0x6 /* 00001922 */
0000191E  4EBA FE4C                jsr        [PC - 0x1B4 /* 0000176C */]
label00001922:
00001922  486D FE92                pea.l      [A5 - 0x16E]
00001926  3F3C 0004                move.w     -[A7], 0x4
0000192A  4267                     clr.w      -[A7]
0000192C  A8A8                     syscall    OffsetRect
0000192E  486D FE9A                pea.l      [A5 - 0x166]
00001932  3F3C 0003                move.w     -[A7], 0x3
00001936  4267                     clr.w      -[A7]
00001938  A8A8                     syscall    OffsetRect
0000193A  4A2D FE7D                tst.b      [A5 - 0x183]
0000193E  6708                     beq        +0xA /* 00001948 */
00001940  2F2D B850                move.l     -[A7], [A5 - 0x47B0]
00001944  A873                     syscall    SetPort
00001946  6006                     bra        +0x8 /* 0000194E */
label00001948:
00001948  2F2D B67C                move.l     -[A7], [A5 - 0x4984]
0000194C  A873                     syscall    SetPort
label0000194E:
0000194E  41ED FE92                lea.l      A0, [A5 - 0x16E]
00001952  43EE FFE0                lea.l      A1, [A6 - 0x20]
00001956  22D8                     move.l     [A1]+, [A0]+
00001958  22D8                     move.l     [A1]+, [A0]+
0000195A  302E FFE2                move.w     D0, [A6 - 0x1E]
0000195E  5940                     subq.w     D0, 4
00001960  3D40 FFE2                move.w     [A6 - 0x1E], D0
00001964  486E FFE0                pea.l      [A6 - 0x20]
00001968  486D FFBA                pea.l      [A5 - 0x46]
0000196C  A8A5                     syscall    FillRect
0000196E  41ED FE9A                lea.l      A0, [A5 - 0x166]
00001972  43EE FFD8                lea.l      A1, [A6 - 0x28]
00001976  22D8                     move.l     [A1]+, [A0]+
00001978  22D8                     move.l     [A1]+, [A0]+
0000197A  302E FFDA                move.w     D0, [A6 - 0x26]
0000197E  5740                     subq.w     D0, 3
00001980  3D40 FFDA                move.w     [A6 - 0x26], D0
00001984  486E FFD8                pea.l      [A6 - 0x28]
00001988  486D FFBA                pea.l      [A5 - 0x46]
0000198C  A8A5                     syscall    FillRect
0000198E  486E FFD0                pea.l      [A6 - 0x30]
00001992  4267                     clr.w      -[A7]
00001994  3F3C 013E                move.w     -[A7], 0x13E
00001998  3F3C 0023                move.w     -[A7], 0x23 /* '#' */
0000199C  3F3C 014D                move.w     -[A7], 0x14D
000019A0  A8A7                     syscall    SetRect
000019A2  2F2D B5FA                move.l     -[A7], [A5 - 0x4A06]
000019A6  A873                     syscall    SetPort
000019A8  594F                     subq.w     A7, 4
000019AA  A8D8                     syscall    NewRgn
000019AC  285F                     movea.l    A4, [A7]+
000019AE  4A2D FE7D                tst.b      [A5 - 0x183]
000019B2  6700 00A0                beq        +0xA2 /* 00001A54 */
000019B6  2F2D FEB2                move.l     -[A7], [A5 - 0x14E]
000019BA  206D B5FA                movea.l    A0, [A5 - 0x4A06]
000019BE  2F28 0018                move.l     -[A7], [A0 + 0x18]
000019C2  2F0C                     move.l     -[A7], A4
000019C4  A8E4                     syscall    SectRgn
000019C6  206D B854                movea.l    A0, [A5 - 0x47AC]
000019CA  2068 0002                movea.l    A0, [A0 + 0x2]
000019CE  2F10                     move.l     -[A7], [A0]
000019D0  486D B62E                pea.l      [A5 - 0x49D2]
000019D4  206D B850                movea.l    A0, [A5 - 0x47B0]
000019D8  2068 0002                movea.l    A0, [A0 + 0x2]
000019DC  2F10                     move.l     -[A7], [A0]
000019DE  486E FFD0                pea.l      [A6 - 0x30]
000019E2  486E FFD0                pea.l      [A6 - 0x30]
000019E6  486D FE9A                pea.l      [A5 - 0x166]
000019EA  A817                     syscall    CopyMask
000019EC  206D B854                movea.l    A0, [A5 - 0x47AC]
000019F0  2068 0002                movea.l    A0, [A0 + 0x2]
000019F4  2F10                     move.l     -[A7], [A0]
000019F6  486D B62E                pea.l      [A5 - 0x49D2]
000019FA  206D B850                movea.l    A0, [A5 - 0x47B0]
000019FE  2068 0002                movea.l    A0, [A0 + 0x2]
00001A02  2F10                     move.l     -[A7], [A0]
00001A04  486D F684                pea.l      [A5 - 0x97C]
00001A08  486D F684                pea.l      [A5 - 0x97C]
00001A0C  486D FE92                pea.l      [A5 - 0x16E]
00001A10  A817                     syscall    CopyMask
00001A12  206D B850                movea.l    A0, [A5 - 0x47B0]
00001A16  2068 0002                movea.l    A0, [A0 + 0x2]
00001A1A  2F10                     move.l     -[A7], [A0]
00001A1C  206D B5FA                movea.l    A0, [A5 - 0x4A06]
00001A20  4868 0002                pea.l      [A0 + 0x2]
00001A24  486E FFE0                pea.l      [A6 - 0x20]
00001A28  486E FFE0                pea.l      [A6 - 0x20]
00001A2C  4267                     clr.w      -[A7]
00001A2E  2F0C                     move.l     -[A7], A4
00001A30  A8EC                     syscall    CopyBits
00001A32  206D B850                movea.l    A0, [A5 - 0x47B0]
00001A36  2068 0002                movea.l    A0, [A0 + 0x2]
00001A3A  2F10                     move.l     -[A7], [A0]
00001A3C  206D B5FA                movea.l    A0, [A5 - 0x4A06]
00001A40  4868 0002                pea.l      [A0 + 0x2]
00001A44  486E FFD8                pea.l      [A6 - 0x28]
00001A48  486E FFD8                pea.l      [A6 - 0x28]
00001A4C  4267                     clr.w      -[A7]
00001A4E  2F0C                     move.l     -[A7], A4
00001A50  A8EC                     syscall    CopyBits
00001A52  6078                     bra        +0x7A /* 00001ACC */
label00001A54:
00001A54  2F2D FEB2                move.l     -[A7], [A5 - 0x14E]
00001A58  206D B5FA                movea.l    A0, [A5 - 0x4A06]
00001A5C  2F28 0018                move.l     -[A7], [A0 + 0x18]
00001A60  2F0C                     move.l     -[A7], A4
00001A62  A8E4                     syscall    SectRgn
00001A64  486D B658                pea.l      [A5 - 0x49A8]
00001A68  486D B62E                pea.l      [A5 - 0x49D2]
00001A6C  486D B64A                pea.l      [A5 - 0x49B6]
00001A70  486E FFD0                pea.l      [A6 - 0x30]
00001A74  486E FFD0                pea.l      [A6 - 0x30]
00001A78  486D FE9A                pea.l      [A5 - 0x166]
00001A7C  A817                     syscall    CopyMask
00001A7E  486D B658                pea.l      [A5 - 0x49A8]
00001A82  486D B62E                pea.l      [A5 - 0x49D2]
00001A86  486D B64A                pea.l      [A5 - 0x49B6]
00001A8A  486D F684                pea.l      [A5 - 0x97C]
00001A8E  486D F684                pea.l      [A5 - 0x97C]
00001A92  486D FE92                pea.l      [A5 - 0x16E]
00001A96  A817                     syscall    CopyMask
00001A98  486D B64A                pea.l      [A5 - 0x49B6]
00001A9C  206D B5FA                movea.l    A0, [A5 - 0x4A06]
00001AA0  4868 0002                pea.l      [A0 + 0x2]
00001AA4  486E FFE0                pea.l      [A6 - 0x20]
00001AA8  486E FFE0                pea.l      [A6 - 0x20]
00001AAC  4267                     clr.w      -[A7]
00001AAE  2F0C                     move.l     -[A7], A4
00001AB0  A8EC                     syscall    CopyBits
00001AB2  486D B64A                pea.l      [A5 - 0x49B6]
00001AB6  206D B5FA                movea.l    A0, [A5 - 0x4A06]
00001ABA  4868 0002                pea.l      [A0 + 0x2]
00001ABE  486E FFD8                pea.l      [A6 - 0x28]
00001AC2  486E FFD8                pea.l      [A6 - 0x28]
00001AC6  4267                     clr.w      -[A7]
00001AC8  2F0C                     move.l     -[A7], A4
00001ACA  A8EC                     syscall    CopyBits
label00001ACC:
00001ACC  2F0C                     move.l     -[A7], A4
00001ACE  A8D9                     syscall    DisposRgn/DisposeRgn
00001AD0  0C6D 0200 FE94           cmpi.w     [A5 - 0x16C], 0x200
00001AD6  6F3C                     ble        +0x3E /* 00001B14 */
00001AD8  486D FE92                pea.l      [A5 - 0x16E]
00001ADC  4267                     clr.w      -[A7]
00001ADE  4267                     clr.w      -[A7]
00001AE0  3F3C 0030                move.w     -[A7], 0x30 /* '0' */
00001AE4  3F3C 0014                move.w     -[A7], 0x14
00001AE8  A8A7                     syscall    SetRect
00001AEA  486D FE92                pea.l      [A5 - 0x16E]
00001AEE  554F                     subq.w     A7, 2
00001AF0  3F3C 01C2                move.w     -[A7], 0x1C2
00001AF4  4EAD 01DA                jsr        [A5 + 0x1DA /* export_55, CODE:1 @ 00001C70 */]
00001AF8  301F                     move.w     D0, [A7]+
00001AFA  0640 FE00                addi.w     D0, 0xFE00
00001AFE  3F00                     move.w     -[A7], D0
00001B00  554F                     subq.w     A7, 2
00001B02  3F3C 0046                move.w     -[A7], 0x46 /* 'F' */
00001B06  4EAD 01DA                jsr        [A5 + 0x1DA /* export_55, CODE:1 @ 00001C70 */]
00001B0A  301F                     move.w     D0, [A7]+
00001B0C  0640 0082                addi.w     D0, 0x82
00001B10  3F00                     move.w     -[A7], D0
00001B12  A8A8                     syscall    OffsetRect
label00001B14:
00001B14  0C6D 0200 FE9C           cmpi.w     [A5 - 0x164], 0x200
00001B1A  6F3C                     ble        +0x3E /* 00001B58 */
00001B1C  486D FE9A                pea.l      [A5 - 0x166]
00001B20  4267                     clr.w      -[A7]
00001B22  4267                     clr.w      -[A7]
00001B24  3F3C 0023                move.w     -[A7], 0x23 /* '#' */
00001B28  3F3C 000F                move.w     -[A7], 0xF
00001B2C  A8A7                     syscall    SetRect
00001B2E  486D FE9A                pea.l      [A5 - 0x166]
00001B32  554F                     subq.w     A7, 2
00001B34  3F3C 01C2                move.w     -[A7], 0x1C2
00001B38  4EAD 01DA                jsr        [A5 + 0x1DA /* export_55, CODE:1 @ 00001C70 */]
00001B3C  301F                     move.w     D0, [A7]+
00001B3E  0640 FE00                addi.w     D0, 0xFE00
00001B42  3F00                     move.w     -[A7], D0
00001B44  554F                     subq.w     A7, 2
00001B46  3F3C 0046                move.w     -[A7], 0x46 /* 'F' */
00001B4A  4EAD 01DA                jsr        [A5 + 0x1DA /* export_55, CODE:1 @ 00001C70 */]
00001B4E  301F                     move.w     D0, [A7]+
00001B50  0640 0082                addi.w     D0, 0x82
00001B54  3F00                     move.w     -[A7], D0
00001B56  A8A8                     syscall    OffsetRect
label00001B58:
00001B58  A89E                     syscall    PenNormal
00001B5A  4A2D FE7D                tst.b      [A5 - 0x183]
00001B5E  6700 0116                beq        +0x118 /* 00001C76 */
00001B62  302D FEB6                move.w     D0, [A5 - 0x14A]
00001B66  6000 0100                bra        +0x102 /* 00001C68 */
label00001B6A:
00001B6A  41ED B602                lea.l      A0, [A5 - 0x49FE]
00001B6E  43ED FEA2                lea.l      A1, [A5 - 0x15E]
00001B72  22D8                     move.l     [A1]+, [A0]+
00001B74  22D8                     move.l     [A1]+, [A0]+
00001B76  486D B884                pea.l      [A5 - 0x477C]
00001B7A  AA14                     syscall    RGBForeColor
00001B7C  486D FEA2                pea.l      [A5 - 0x15E]
00001B80  A8A1                     syscall    FrameRect
00001B82  486D FEA2                pea.l      [A5 - 0x15E]
00001B86  3F3C 0001                move.w     -[A7], 0x1
00001B8A  3F3C 0001                move.w     -[A7], 0x1
00001B8E  A8A9                     syscall    InsetRect
00001B90  486D B896                pea.l      [A5 - 0x476A]
00001B94  AA14                     syscall    RGBForeColor
00001B96  486D FEA2                pea.l      [A5 - 0x15E]
00001B9A  A8A1                     syscall    FrameRect
00001B9C  486D FEA2                pea.l      [A5 - 0x15E]
00001BA0  3F3C 0001                move.w     -[A7], 0x1
00001BA4  3F3C 0001                move.w     -[A7], 0x1
00001BA8  A8A9                     syscall    InsetRect
00001BAA  486D B878                pea.l      [A5 - 0x4788]
00001BAE  AA14                     syscall    RGBForeColor
00001BB0  486D FEA2                pea.l      [A5 - 0x15E]
00001BB4  A8A1                     syscall    FrameRect
00001BB6  486D B86C                pea.l      [A5 - 0x4794]
00001BBA  AA14                     syscall    RGBForeColor
00001BBC  6000 00B8                bra        +0xBA /* 00001C76 */
label00001BC0:
00001BC0  41ED B602                lea.l      A0, [A5 - 0x49FE]
00001BC4  43ED FEA2                lea.l      A1, [A5 - 0x15E]
00001BC8  22D8                     move.l     [A1]+, [A0]+
00001BCA  22D8                     move.l     [A1]+, [A0]+
00001BCC  486D B878                pea.l      [A5 - 0x4788]
00001BD0  AA14                     syscall    RGBForeColor
00001BD2  486D FEA2                pea.l      [A5 - 0x15E]
00001BD6  A8A1                     syscall    FrameRect
00001BD8  486D FEA2                pea.l      [A5 - 0x15E]
00001BDC  3F3C 0001                move.w     -[A7], 0x1
00001BE0  3F3C 0001                move.w     -[A7], 0x1
00001BE4  A8A9                     syscall    InsetRect
00001BE6  486D B884                pea.l      [A5 - 0x477C]
00001BEA  AA14                     syscall    RGBForeColor
00001BEC  486D FEA2                pea.l      [A5 - 0x15E]
00001BF0  A8A1                     syscall    FrameRect
00001BF2  486D FEA2                pea.l      [A5 - 0x15E]
00001BF6  3F3C 0001                move.w     -[A7], 0x1
00001BFA  3F3C 0001                move.w     -[A7], 0x1
00001BFE  A8A9                     syscall    InsetRect
00001C00  486D B896                pea.l      [A5 - 0x476A]
00001C04  AA14                     syscall    RGBForeColor
00001C06  486D FEA2                pea.l      [A5 - 0x15E]
00001C0A  A8A1                     syscall    FrameRect
00001C0C  486D B86C                pea.l      [A5 - 0x4794]
00001C10  AA14                     syscall    RGBForeColor
00001C12  6062                     bra        +0x64 /* 00001C76 */
label00001C14:
00001C14  41ED B602                lea.l      A0, [A5 - 0x49FE]
00001C18  43ED FEA2                lea.l      A1, [A5 - 0x15E]
00001C1C  22D8                     move.l     [A1]+, [A0]+
00001C1E  22D8                     move.l     [A1]+, [A0]+
00001C20  486D B896                pea.l      [A5 - 0x476A]
00001C24  AA14                     syscall    RGBForeColor
00001C26  486D FEA2                pea.l      [A5 - 0x15E]
00001C2A  A8A1                     syscall    FrameRect
00001C2C  486D FEA2                pea.l      [A5 - 0x15E]
00001C30  3F3C 0001                move.w     -[A7], 0x1
00001C34  3F3C 0001                move.w     -[A7], 0x1
00001C38  A8A9                     syscall    InsetRect
00001C3A  486D B878                pea.l      [A5 - 0x4788]
00001C3E  AA14                     syscall    RGBForeColor
00001C40  486D FEA2                pea.l      [A5 - 0x15E]
00001C44  A8A1                     syscall    FrameRect
00001C46  486D FEA2                pea.l      [A5 - 0x15E]
00001C4A  3F3C 0001                move.w     -[A7], 0x1
00001C4E  3F3C 0001                move.w     -[A7], 0x1
00001C52  A8A9                     syscall    InsetRect
00001C54  486D B884                pea.l      [A5 - 0x477C]
00001C58  AA14                     syscall    RGBForeColor
00001C5A  486D FEA2                pea.l      [A5 - 0x15E]
00001C5E  A8A1                     syscall    FrameRect
00001C60  486D B86C                pea.l      [A5 - 0x4794]
00001C64  AA14                     syscall    RGBForeColor
00001C66  600E                     bra        +0x10 /* 00001C76 */
label00001C68:
00001C68  6700 FF00                beq        -0xFE /* 00001B6A */
00001C6C  5340                     subq.w     D0, 1
00001C6E  6700 FF50                beq        -0xAE /* 00001BC0 */
00001C72  5340                     subq.w     D0, 1
00001C74  679E                     beq        -0x60 /* 00001C14 */
label00001C76:
00001C76  302D FEB8                move.w     D0, [A5 - 0x148]
00001C7A  5240                     addq.w     D0, 1
00001C7C  3B40 FEB8                move.w     [A5 - 0x148], D0
00001C80  0C6D 0005 FEB8           cmpi.w     [A5 - 0x148], 0x5
00001C86  6F1A                     ble        +0x1C /* 00001CA2 */
00001C88  426D FEB8                clr.w      [A5 - 0x148]
00001C8C  302D FEB6                move.w     D0, [A5 - 0x14A]
00001C90  5240                     addq.w     D0, 1
00001C92  3B40 FEB6                move.w     [A5 - 0x14A], D0
00001C96  0C6D 0002 FEB6           cmpi.w     [A5 - 0x14A], 0x2
00001C9C  6F04                     ble        +0x6 /* 00001CA2 */
00001C9E  426D FEB6                clr.w      [A5 - 0x14A]
label00001CA2:
00001CA2  594F                     subq.w     A7, 4
00001CA4  A975                     syscall    TickCount
00001CA6  202D FEC2                move.l     D0, [A5 - 0x13E]
00001CAA  5480                     addq.l     D0, 2
00001CAC  B09F                     cmp.l      D0, [A7]+
00001CAE  6EF2                     bgt        -0xC /* 00001CA2 */
00001CB0  594F                     subq.w     A7, 4
00001CB2  A975                     syscall    TickCount
00001CB4  2B5F FEC2                move.l     [A5 - 0x13E], [A7]+
label00001CB8:
00001CB8  285F                     movea.l    A4, [A7]+
00001CBA  4E5E                     unlink     A6
00001CBC  4E75                     rts
export_100:
00001CBE  2F2D FEB2                move.l     -[A7], [A5 - 0x14E]
00001CC2  A8D9                     syscall    DisposRgn/DisposeRgn
00001CC4  4E75                     rts
export_101:
00001CC6  4E56 FFD4                link       A6, -0x002C
00001CCA  48E7 0138                movem.l    -[A7], D7,A2,A3,A4
00001CCE  266E 000C                movea.l    A3, [A6 + 0xC]
00001CD2  422E 0014                clr.b      [A6 + 0x14]
00001CD6  0C53 0003                cmpi.w     [A3], 0x3
00001CDA  57C0                     seq        D0
00001CDC  222B 0002                move.l     D1, [A3 + 0x2]
00001CE0  0281 0000 00FF           andi.l     D1, 0xFF
00001CE6  740D                     moveq.l    D2, 0x0D
00001CE8  B282                     cmp.l      D1, D2
00001CEA  57C1                     seq        D1
00001CEC  C001                     and.b      D0, D1
00001CEE  670E                     beq        +0x10 /* 00001CFE */
00001CF0  206E 0008                movea.l    A0, [A6 + 0x8]
00001CF4  30BC 0001                move.w     [A0], 0x1
00001CF8  1D7C 0001 0014           move.b     [A6 + 0x14], 0x1
label00001CFE:
00001CFE  594F                     subq.w     A7, 4
00001D00  A975                     syscall    TickCount
00001D02  2D5F FFE8                move.l     [A6 - 0x18], [A7]+
00001D06  705A                     moveq.l    D0, 0x5A
00001D08  D0AD FEBE                add.l      D0, [A5 - 0x142]
00001D0C  B0AE FFE8                cmp.l      D0, [A6 - 0x18]
00001D10  6C00 00B6                bge        +0xB8 /* 00001DC8 */
00001D14  594F                     subq.w     A7, 4
00001D16  A975                     syscall    TickCount
00001D18  2B5F FEBE                move.l     [A5 - 0x142], [A7]+
00001D1C  302D FEBA                move.w     D0, [A5 - 0x146]
00001D20  5240                     addq.w     D0, 1
00001D22  3B40 FEBA                move.w     [A5 - 0x146], D0
00001D26  0C6D 0003 FEBA           cmpi.w     [A5 - 0x146], 0x3
00001D2C  6F04                     ble        +0x6 /* 00001D32 */
00001D2E  426D FEBA                clr.w      [A5 - 0x146]
label00001D32:
00001D32  7E02                     moveq.l    D7, 0x02
label00001D34:
00001D34  4EAD 01B2                jsr        [A5 + 0x1B2 /* export_50, CODE:1 @ 00001A6A */]
00001D38  7001                     moveq.l    D0, 0x01
00001D3A  2F00                     move.l     -[A7], D0
00001D3C  486E FFE8                pea.l      [A6 - 0x18]
00001D40  4EAD 00C2                jsr        [A5 + 0xC2 /* export_20, CODE:1 @ 0000061A */]
00001D44  4EAD 01B2                jsr        [A5 + 0x1B2 /* export_50, CODE:1 @ 00001A6A */]
00001D48  7001                     moveq.l    D0, 0x01
00001D4A  2F00                     move.l     -[A7], D0
00001D4C  486E FFE8                pea.l      [A6 - 0x18]
00001D50  4EAD 00C2                jsr        [A5 + 0xC2 /* export_20, CODE:1 @ 0000061A */]
00001D54  2F2E 0010                move.l     -[A7], [A6 + 0x10]
00001D58  3F07                     move.w     -[A7], D7
00001D5A  486E FFEC                pea.l      [A6 - 0x14]
00001D5E  486E FFDC                pea.l      [A6 - 0x24]
00001D62  486E FFE0                pea.l      [A6 - 0x20]
00001D66  A98D                     syscall    GetDialogItem/GetDItem
00001D68  4A2D FE7D                tst.b      [A5 - 0x183]
00001D6C  672A                     beq        +0x2C /* 00001D98 */
00001D6E  594F                     subq.w     A7, 4
00001D70  3007                     move.w     D0, D7
00001D72  0640 04CA                addi.w     D0, 0x4CA
00001D76  322D FEBA                move.w     D1, [A5 - 0x146]
00001D7A  C3FC 0009                muls.w     D1, 0x9 /* '\t' */
00001D7E  D041                     add.w      D0, D1
00001D80  3F00                     move.w     -[A7], D0
00001D82  AA1E                     syscall    GetCIcon
00001D84  285F                     movea.l    A4, [A7]+
00001D86  200C                     move.l     D0, A4
00001D88  6732                     beq        +0x34 /* 00001DBC */
00001D8A  486E FFE0                pea.l      [A6 - 0x20]
00001D8E  2F0C                     move.l     -[A7], A4
00001D90  AA1F                     syscall    PlotCIcon
00001D92  2F0C                     move.l     -[A7], A4
00001D94  AA25                     syscall    DisposeCIcon/DisposCIcon
00001D96  6024                     bra        +0x26 /* 00001DBC */
label00001D98:
00001D98  594F                     subq.w     A7, 4
00001D9A  3007                     move.w     D0, D7
00001D9C  0640 04CA                addi.w     D0, 0x4CA
00001DA0  322D FEBA                move.w     D1, [A5 - 0x146]
00001DA4  C3FC 0009                muls.w     D1, 0x9 /* '\t' */
00001DA8  D041                     add.w      D0, D1
00001DAA  3F00                     move.w     -[A7], D0
00001DAC  A9BB                     syscall    GetIcon
00001DAE  245F                     movea.l    A2, [A7]+
00001DB0  200A                     move.l     D0, A2
00001DB2  6708                     beq        +0xA /* 00001DBC */
00001DB4  486E FFE0                pea.l      [A6 - 0x20]
00001DB8  2F0A                     move.l     -[A7], A2
00001DBA  A94B                     syscall    PlotIcon
label00001DBC:
00001DBC  A850                     syscall    InitCursor
00001DBE  5247                     addq.w     D7, 1
00001DC0  0C47 000A                cmpi.w     D7, 0xA /* '\n' */
00001DC4  6F00 FF6E                ble        -0x90 /* 00001D34 */
label00001DC8:
00001DC8  4CDF 1C80                movem.l    D7,A2,A3,A4, [A7]+
00001DCC  4E5E                     unlink     A6
00001DCE  205F                     movea.l    A0, [A7]+
00001DD0  4FEF 000C                lea.l      A7, [A7 + 0xC]
00001DD4  4ED0                     jmp        [A0]
fn00001DD6:
00001DD6  4E56 FFE8                link       A6, -0x0018
00001DDA  2F0C                     move.l     -[A7], A4
00001DDC  286E 0008                movea.l    A4, [A6 + 0x8]
00001DE0  2F2C FFE0                move.l     -[A7], [A4 - 0x20]
00001DE4  A873                     syscall    SetPort
00001DE6  2F2C FFE0                move.l     -[A7], [A4 - 0x20]
00001DEA  3F3C 0001                move.w     -[A7], 0x1
00001DEE  486C FFEA                pea.l      [A4 - 0x16]
00001DF2  486C FFE4                pea.l      [A4 - 0x1C]
00001DF6  486C FFD8                pea.l      [A4 - 0x28]
00001DFA  A98D                     syscall    GetDialogItem/GetDItem
00001DFC  3F3C 0003                move.w     -[A7], 0x3
00001E00  3F3C 0003                move.w     -[A7], 0x3
00001E04  A89B                     syscall    PenSize
00001E06  486C FFD8                pea.l      [A4 - 0x28]
00001E0A  3F3C FFFC                move.w     -[A7], 0xFFFC
00001E0E  3F3C FFFC                move.w     -[A7], 0xFFFC
00001E12  A8A9                     syscall    InsetRect
00001E14  486C FFD8                pea.l      [A4 - 0x28]
00001E18  3F3C 0010                move.w     -[A7], 0x10
00001E1C  3F3C 0010                move.w     -[A7], 0x10
00001E20  A8B0                     syscall    FrameRoundRect
00001E22  3F3C 0001                move.w     -[A7], 0x1
00001E26  3F3C 0001                move.w     -[A7], 0x1
00001E2A  A89B                     syscall    PenSize
00001E2C  285F                     movea.l    A4, [A7]+
00001E2E  4E5E                     unlink     A6
00001E30  2E9F                     move.l     [A7], [A7]+
00001E32  4E75                     rts
fn00001E34:
00001E34  4E56 FFD8                link       A6, -0x0028
00001E38  486E FFEC                pea.l      [A6 - 0x14]
00001E3C  A874                     syscall    GetPort
00001E3E  594F                     subq.w     A7, 4
00001E40  3F3C 00E4                move.w     -[A7], 0xE4
00001E44  42A7                     clr.l      -[A7]
00001E46  70FF                     moveq.l    D0, 0xFFFFFFFF
00001E48  2F00                     move.l     -[A7], D0
00001E4A  A97C                     syscall    GetNewDialog
00001E4C  2D5F FFE0                move.l     [A6 - 0x20], [A7]+
00001E50  206E FFE0                movea.l    A0, [A6 - 0x20]
00001E54  41E8 0010                lea.l      A0, [A0 + 0x10]
00001E58  43EE FFD8                lea.l      A1, [A6 - 0x28]
00001E5C  22D8                     move.l     [A1]+, [A0]+
00001E5E  22D8                     move.l     [A1]+, [A0]+
00001E60  302D FF5A                move.w     D0, [A5 - 0xA6]
00001E64  906D FF56                sub.w      D0, [A5 - 0xAA]
00001E68  322E FFDC                move.w     D1, [A6 - 0x24]
00001E6C  926E FFD8                sub.w      D1, [A6 - 0x28]
00001E70  9041                     sub.w      D0, D1
00001E72  48C0                     ext.l      D0
00001E74  81FC 0002                divs.w     D0, 0x2
00001E78  3D40 FFD8                move.w     [A6 - 0x28], D0
00001E7C  302D FF5C                move.w     D0, [A5 - 0xA4]
00001E80  906D FF58                sub.w      D0, [A5 - 0xA8]
00001E84  322E FFDE                move.w     D1, [A6 - 0x22]
00001E88  926E FFDA                sub.w      D1, [A6 - 0x26]
00001E8C  9041                     sub.w      D0, D1
00001E8E  48C0                     ext.l      D0
00001E90  81FC 0002                divs.w     D0, 0x2
00001E94  3D40 FFDA                move.w     [A6 - 0x26], D0
00001E98  2F2E FFE0                move.l     -[A7], [A6 - 0x20]
00001E9C  3F2E FFDA                move.w     -[A7], [A6 - 0x26]
00001EA0  3F2E FFD8                move.w     -[A7], [A6 - 0x28]
00001EA4  1F3C 0001                move.b     -[A7], 0x1
00001EA8  A91B                     syscall    MoveWindow
00001EAA  2F2E FFE0                move.l     -[A7], [A6 - 0x20]
00001EAE  A915                     syscall    ShowWindow
00001EB0  2F2E FFE0                move.l     -[A7], [A6 - 0x20]
00001EB4  A91F                     syscall    SelectWindow
00001EB6  2F2E FFE0                move.l     -[A7], [A6 - 0x20]
00001EBA  A873                     syscall    SetPort
00001EBC  2F0E                     move.l     -[A7], A6
00001EBE  4EBA FF16                jsr        [PC - 0xEA /* 00001DD6 */]
00001EC2  594F                     subq.w     A7, 4
00001EC4  A975                     syscall    TickCount
00001EC6  2B5F FEBE                move.l     [A5 - 0x142], [A7]+
00001ECA  426D FEBA                clr.w      [A5 - 0x146]
label00001ECE:
00001ECE  486D 034A                pea.l      [A5 + 0x34A /* export_101, CODE:4 @ 00001CC6 */]
00001ED2  486E FFE8                pea.l      [A6 - 0x18]
00001ED6  A991                     syscall    ModalDialog
00001ED8  0C6E 0001 FFE8           cmpi.w     [A6 - 0x18], 0x1
00001EDE  66EE                     bne        -0x10 /* 00001ECE */
00001EE0  2F2E FFEC                move.l     -[A7], [A6 - 0x14]
00001EE4  A873                     syscall    SetPort
00001EE6  2F2E FFE0                move.l     -[A7], [A6 - 0x20]
00001EEA  A983                     syscall    DisposeDialog
00001EEC  4E5E                     unlink     A6
00001EEE  4E75                     rts
fn00001EF0:
00001EF0  4E56 0000                link       A6, 0
00001EF4  2F07                     move.l     -[A7], D7
00001EF6  3E2E 000C                move.w     D7, [A6 + 0xC]
00001EFA  3007                     move.w     D0, D7
00001EFC  6036                     bra        +0x38 /* 00001F34 */
00001EFE  4267                     clr.w      -[A7]
00001F00  4EAD 012A                jsr        [A5 + 0x12A /* export_33, CODE:1 @ 000007FC */]
00001F04  3E3C 0320                move.w     D7, 0x320
00001F08  6054                     bra        +0x56 /* 00001F5E */
00001F0A  3F3C 0001                move.w     -[A7], 0x1
00001F0E  4EAD 012A                jsr        [A5 + 0x12A /* export_33, CODE:1 @ 000007FC */]
00001F12  3E3C 0321                move.w     D7, 0x321
00001F16  6046                     bra        +0x48 /* 00001F5E */
00001F18  3F3C 0003                move.w     -[A7], 0x3
00001F1C  4EAD 012A                jsr        [A5 + 0x12A /* export_33, CODE:1 @ 000007FC */]
00001F20  3E3C 0322                move.w     D7, 0x322
00001F24  6038                     bra        +0x3A /* 00001F5E */
00001F26  3F3C 0005                move.w     -[A7], 0x5
00001F2A  4EAD 012A                jsr        [A5 + 0x12A /* export_33, CODE:1 @ 000007FC */]
00001F2E  3E3C 0323                move.w     D7, 0x323
00001F32  602A                     bra        +0x2C /* 00001F5E */
label00001F34:
00001F34  0C40 0007                cmpi.w     D0, 0x7
00001F38  6418                     bcc        +0x1A /* 00001F52 */
00001F3A  D040                     add.w      D0, D0
00001F3C  303B 0006                move.w     D0, [PC + D0.w + 0x6]
00001F40  4EFB 0002                jmp        [PC + D0.w + 0x2]
00001F44  FFBA                     .invalid   <<F/6/7>>
00001F46  FFC6                     .invalid   <<F/7/7>>
00001F48  FFC6                     .invalid   <<F/7/7>>
00001F4A  FFD4                     .invalid   <<F/7/7>>
00001F4C  FFD4                     .invalid   <<F/7/7>>
00001F4E  FFE2                     .invalid   <<F/7/7>>
00001F50  FFE2                     .invalid   <<F/7/7>>
label00001F52:
00001F52  3F3C 0007                move.w     -[A7], 0x7
00001F56  4EAD 012A                jsr        [A5 + 0x12A /* export_33, CODE:1 @ 000007FC */]
00001F5A  3E3C 0324                move.w     D7, 0x324
label00001F5E:
00001F5E  3D47 000E                move.w     [A6 + 0xE], D7
00001F62  2E1F                     move.l     D7, [A7]+
00001F64  4E5E                     unlink     A6
00001F66  205F                     movea.l    A0, [A7]+
00001F68  5C4F                     addq.w     A7, 6
00001F6A  4ED0                     jmp        [A0]
fn00001F6C:
00001F6C  4E56 FFD4                link       A6, -0x002C
00001F70  48E7 0138                movem.l    -[A7], D7,A2,A3,A4
00001F74  286E 0008                movea.l    A4, [A6 + 0x8]
00001F78  2F2C FEDC                move.l     -[A7], [A4 - 0x124]
00001F7C  A873                     syscall    SetPort
00001F7E  2F2C FEDC                move.l     -[A7], [A4 - 0x124]
00001F82  3F3C 000D                move.w     -[A7], 0xD /* '\r' */
00001F86  486C FFEA                pea.l      [A4 - 0x16]
00001F8A  486C FEE0                pea.l      [A4 - 0x120]
00001F8E  486C FED4                pea.l      [A4 - 0x12C]
00001F92  A98D                     syscall    GetDialogItem/GetDItem
00001F94  486C FED4                pea.l      [A4 - 0x12C]
00001F98  486D FFBA                pea.l      [A5 - 0x46]
00001F9C  A8A5                     syscall    FillRect
00001F9E  2F2C FEDC                move.l     -[A7], [A4 - 0x124]
00001FA2  3F3C 0001                move.w     -[A7], 0x1
00001FA6  486C FFEA                pea.l      [A4 - 0x16]
00001FAA  486C FEE0                pea.l      [A4 - 0x120]
00001FAE  486C FED4                pea.l      [A4 - 0x12C]
00001FB2  A98D                     syscall    GetDialogItem/GetDItem
00001FB4  3F3C 0003                move.w     -[A7], 0x3
00001FB8  3F3C 0003                move.w     -[A7], 0x3
00001FBC  A89B                     syscall    PenSize
00001FBE  486C FED4                pea.l      [A4 - 0x12C]
00001FC2  3F3C FFFC                move.w     -[A7], 0xFFFC
00001FC6  3F3C FFFC                move.w     -[A7], 0xFFFC
00001FCA  A8A9                     syscall    InsetRect
00001FCC  486C FED4                pea.l      [A4 - 0x12C]
00001FD0  3F3C 0010                move.w     -[A7], 0x10
00001FD4  3F3C 0010                move.w     -[A7], 0x10
00001FD8  A8B0                     syscall    FrameRoundRect
00001FDA  3F3C 0001                move.w     -[A7], 0x1
00001FDE  3F3C 0001                move.w     -[A7], 0x1
00001FE2  A89B                     syscall    PenSize
00001FE4  486E FFEC                pea.l      [A6 - 0x14]
00001FE8  4EAD 0132                jsr        [A5 + 0x132 /* export_34, CODE:1 @ 00000878 */]
00001FEC  2F2C FEDC                move.l     -[A7], [A4 - 0x124]
00001FF0  3F3C 000C                move.w     -[A7], 0xC
00001FF4  486C FFEA                pea.l      [A4 - 0x16]
00001FF8  486C FEE0                pea.l      [A4 - 0x120]
00001FFC  486C FED4                pea.l      [A4 - 0x12C]
00002000  A98D                     syscall    GetDialogItem/GetDItem
00002002  302E FFEC                move.w     D0, [A6 - 0x14]
00002006  48C0                     ext.l      D0
00002008  2F00                     move.l     -[A7], D0
0000200A  486C FEE4                pea.l      [A4 - 0x11C]
0000200E  4EAD 0192                jsr        [A5 + 0x192 /* export_46, CODE:1 @ 00000B46 */]
00002012  2F2C FEE0                move.l     -[A7], [A4 - 0x120]
00002016  486C FEE4                pea.l      [A4 - 0x11C]
0000201A  A98F                     syscall    SetDialogItemText/SetIText
0000201C  554F                     subq.w     A7, 2
0000201E  3F2E FFEC                move.w     -[A7], [A6 - 0x14]
00002022  2F0C                     move.l     -[A7], A4
00002024  4EBA FECA                jsr        [PC - 0x136 /* 00001EF0 */]
00002028  3E1F                     move.w     D7, [A7]+
0000202A  2F2C FEDC                move.l     -[A7], [A4 - 0x124]
0000202E  3F3C 0007                move.w     -[A7], 0x7
00002032  486C FFEA                pea.l      [A4 - 0x16]
00002036  486C FEE0                pea.l      [A4 - 0x120]
0000203A  486C FED4                pea.l      [A4 - 0x12C]
0000203E  A98D                     syscall    GetDialogItem/GetDItem
00002040  4A2D FE7D                tst.b      [A5 - 0x183]
00002044  671E                     beq        +0x20 /* 00002064 */
00002046  594F                     subq.w     A7, 4
00002048  3F07                     move.w     -[A7], D7
0000204A  AA1E                     syscall    GetCIcon
0000204C  245F                     movea.l    A2, [A7]+
0000204E  200A                     move.l     D0, A2
00002050  672A                     beq        +0x2C /* 0000207C */
00002052  486C FED4                pea.l      [A4 - 0x12C]
00002056  2F0A                     move.l     -[A7], A2
00002058  AA1F                     syscall    PlotCIcon
0000205A  2F0B                     move.l     -[A7], A3
0000205C  A9A3                     syscall    ReleaseResource
0000205E  2F0A                     move.l     -[A7], A2
00002060  AA25                     syscall    DisposeCIcon/DisposCIcon
00002062  6018                     bra        +0x1A /* 0000207C */
label00002064:
00002064  594F                     subq.w     A7, 4
00002066  3F07                     move.w     -[A7], D7
00002068  A9BB                     syscall    GetIcon
0000206A  265F                     movea.l    A3, [A7]+
0000206C  200B                     move.l     D0, A3
0000206E  670C                     beq        +0xE /* 0000207C */
00002070  486C FED4                pea.l      [A4 - 0x12C]
00002074  2F0B                     move.l     -[A7], A3
00002076  A94B                     syscall    PlotIcon
00002078  2F0B                     move.l     -[A7], A3
0000207A  A9A3                     syscall    ReleaseResource
label0000207C:
0000207C  4CDF 1C80                movem.l    D7,A2,A3,A4, [A7]+
00002080  4E5E                     unlink     A6
00002082  2E9F                     move.l     [A7], [A7]+
00002084  4E75                     rts
fn00002086:
00002086  4E56 FECE                link       A6, -0x0132
0000208A  48E7 1F00                movem.l    -[A7], D3,D4,D5,D6,D7
0000208E  3F3C FFFF                move.w     -[A7], 0xFFFF
00002092  4267                     clr.w      -[A7]
00002094  201F                     move.l     D0, [A7]+
00002096  A032                     syscall    FlushEvents
00002098  486E FFEC                pea.l      [A6 - 0x14]
0000209C  A874                     syscall    GetPort
0000209E  3F2D F84C                move.w     -[A7], [A5 - 0x7B4]
000020A2  A998                     syscall    UseResFile
000020A4  486E FFE4                pea.l      [A6 - 0x1C]
000020A8  4EAD 0132                jsr        [A5 + 0x132 /* export_34, CODE:1 @ 00000878 */]
000020AC  1D6D FE75 FED2           move.b     [A6 - 0x12E], [A5 - 0x18B]
000020B2  162D FE76                move.b     D3, [A5 - 0x18A]
000020B6  1E2D FE75                move.b     D7, [A5 - 0x18B]
000020BA  1C2D FE76                move.b     D6, [A5 - 0x18A]
000020BE  182D FE8A                move.b     D4, [A5 - 0x176]
000020C2  594F                     subq.w     A7, 4
000020C4  3F3C 0083                move.w     -[A7], 0x83
000020C8  42A7                     clr.l      -[A7]
000020CA  70FF                     moveq.l    D0, 0xFFFFFFFF
000020CC  2F00                     move.l     -[A7], D0
000020CE  A97C                     syscall    GetNewDialog
000020D0  2D5F FEDC                move.l     [A6 - 0x124], [A7]+
000020D4  206E FEDC                movea.l    A0, [A6 - 0x124]
000020D8  41E8 0010                lea.l      A0, [A0 + 0x10]
000020DC  43EE FED4                lea.l      A1, [A6 - 0x12C]
000020E0  22D8                     move.l     [A1]+, [A0]+
000020E2  22D8                     move.l     [A1]+, [A0]+
000020E4  302D FF5A                move.w     D0, [A5 - 0xA6]
000020E8  906D FF56                sub.w      D0, [A5 - 0xAA]
000020EC  322E FED8                move.w     D1, [A6 - 0x128]
000020F0  926E FED4                sub.w      D1, [A6 - 0x12C]
000020F4  9041                     sub.w      D0, D1
000020F6  48C0                     ext.l      D0
000020F8  81FC 0002                divs.w     D0, 0x2
000020FC  3D40 FED4                move.w     [A6 - 0x12C], D0
00002100  302D FF5C                move.w     D0, [A5 - 0xA4]
00002104  906D FF58                sub.w      D0, [A5 - 0xA8]
00002108  322E FEDA                move.w     D1, [A6 - 0x126]
0000210C  926E FED6                sub.w      D1, [A6 - 0x12A]
00002110  9041                     sub.w      D0, D1
00002112  48C0                     ext.l      D0
00002114  81FC 0002                divs.w     D0, 0x2
00002118  3D40 FED6                move.w     [A6 - 0x12A], D0
0000211C  2F2E FEDC                move.l     -[A7], [A6 - 0x124]
00002120  3F2E FED6                move.w     -[A7], [A6 - 0x12A]
00002124  3F2E FED4                move.w     -[A7], [A6 - 0x12C]
00002128  1F3C 0001                move.b     -[A7], 0x1
0000212C  A91B                     syscall    MoveWindow
0000212E  2F2E FEDC                move.l     -[A7], [A6 - 0x124]
00002132  A915                     syscall    ShowWindow
00002134  2F2E FEDC                move.l     -[A7], [A6 - 0x124]
00002138  A91F                     syscall    SelectWindow
0000213A  2F2E FEDC                move.l     -[A7], [A6 - 0x124]
0000213E  A873                     syscall    SetPort
00002140  2F2E FEDC                move.l     -[A7], [A6 - 0x124]
00002144  3F3C 0003                move.w     -[A7], 0x3
00002148  486E FFEA                pea.l      [A6 - 0x16]
0000214C  486E FEE0                pea.l      [A6 - 0x120]
00002150  486E FED4                pea.l      [A6 - 0x12C]
00002154  A98D                     syscall    GetDialogItem/GetDItem
00002156  4A2D FE75                tst.b      [A5 - 0x18B]
0000215A  670C                     beq        +0xE /* 00002168 */
0000215C  2F2E FEE0                move.l     -[A7], [A6 - 0x120]
00002160  3F3C 0001                move.w     -[A7], 0x1
00002164  A963                     syscall    SetControlValue/SetCtlValue
00002166  6008                     bra        +0xA /* 00002170 */
label00002168:
00002168  2F2E FEE0                move.l     -[A7], [A6 - 0x120]
0000216C  4267                     clr.w      -[A7]
0000216E  A963                     syscall    SetControlValue/SetCtlValue
label00002170:
00002170  2F2E FEDC                move.l     -[A7], [A6 - 0x124]
00002174  3F3C 0004                move.w     -[A7], 0x4
00002178  486E FFEA                pea.l      [A6 - 0x16]
0000217C  486E FEE0                pea.l      [A6 - 0x120]
00002180  486E FED4                pea.l      [A6 - 0x12C]
00002184  A98D                     syscall    GetDialogItem/GetDItem
00002186  4A2D FE76                tst.b      [A5 - 0x18A]
0000218A  670C                     beq        +0xE /* 00002198 */
0000218C  2F2E FEE0                move.l     -[A7], [A6 - 0x120]
00002190  3F3C 0001                move.w     -[A7], 0x1
00002194  A963                     syscall    SetControlValue/SetCtlValue
00002196  6008                     bra        +0xA /* 000021A0 */
label00002198:
00002198  2F2E FEE0                move.l     -[A7], [A6 - 0x120]
0000219C  4267                     clr.w      -[A7]
0000219E  A963                     syscall    SetControlValue/SetCtlValue
label000021A0:
000021A0  4A2D FE7A                tst.b      [A5 - 0x186]
000021A4  670A                     beq        +0xC /* 000021B0 */
000021A6  2F2E FEDC                move.l     -[A7], [A6 - 0x124]
000021AA  3F3C 0004                move.w     -[A7], 0x4
000021AE  A827                     syscall    HideDialogItem/HideDItem
label000021B0:
000021B0  4A2D FE8A                tst.b      [A5 - 0x176]
000021B4  6718                     beq        +0x1A /* 000021CE */
000021B6  2F2E FEDC                move.l     -[A7], [A6 - 0x124]
000021BA  3F3C 000E                move.w     -[A7], 0xE
000021BE  486E FFEA                pea.l      [A6 - 0x16]
000021C2  486E FEE0                pea.l      [A6 - 0x120]
000021C6  486E FED4                pea.l      [A6 - 0x12C]
000021CA  A98D                     syscall    GetDialogItem/GetDItem
000021CC  6016                     bra        +0x18 /* 000021E4 */
label000021CE:
000021CE  2F2E FEDC                move.l     -[A7], [A6 - 0x124]
000021D2  3F3C 000F                move.w     -[A7], 0xF
000021D6  486E FFEA                pea.l      [A6 - 0x16]
000021DA  486E FEE0                pea.l      [A6 - 0x120]
000021DE  486E FED4                pea.l      [A6 - 0x12C]
000021E2  A98D                     syscall    GetDialogItem/GetDItem
label000021E4:
000021E4  2F2E FEE0                move.l     -[A7], [A6 - 0x120]
000021E8  3F3C 0001                move.w     -[A7], 0x1
000021EC  A963                     syscall    SetControlValue/SetCtlValue
000021EE  2F0E                     move.l     -[A7], A6
000021F0  4EBA FD7A                jsr        [PC - 0x286 /* 00001F6C */]
000021F4  4205                     clr.b      D5
label000021F6:
000021F6  42A7                     clr.l      -[A7]
000021F8  486E FFE8                pea.l      [A6 - 0x18]
000021FC  A991                     syscall    ModalDialog
000021FE  2F2E FEDC                move.l     -[A7], [A6 - 0x124]
00002202  3F2E FFE8                move.w     -[A7], [A6 - 0x18]
00002206  486E FFEA                pea.l      [A6 - 0x16]
0000220A  486E FEE0                pea.l      [A6 - 0x120]
0000220E  486E FED4                pea.l      [A6 - 0x12C]
00002212  A98D                     syscall    GetDialogItem/GetDItem
00002214  0C6E 0001 FFE8           cmpi.w     [A6 - 0x18], 0x1
0000221A  6616                     bne        +0x18 /* 00002232 */
0000221C  7A01                     moveq.l    D5, 0x01
0000221E  486E FFE6                pea.l      [A6 - 0x1A]
00002222  4EAD 0132                jsr        [A5 + 0x132 /* export_34, CODE:1 @ 00000878 */]
00002226  4A6E FFE6                tst.w      [A6 - 0x1A]
0000222A  56C0                     sne        D0
0000222C  C007                     and.b      D0, D7
0000222E  1B40 FE75                move.b     [A5 - 0x18B], D0
label00002232:
00002232  0C6E 0002 FFE8           cmpi.w     [A6 - 0x18], 0x2
00002238  6618                     bne        +0x1A /* 00002252 */
0000223A  7A01                     moveq.l    D5, 0x01
0000223C  3F2E FFE4                move.w     -[A7], [A6 - 0x1C]
00002240  4EAD 012A                jsr        [A5 + 0x12A /* export_33, CODE:1 @ 000007FC */]
00002244  1B6E FED2 FE75           move.b     [A5 - 0x18B], [A6 - 0x12E]
0000224A  1B43 FE76                move.b     [A5 - 0x18A], D3
0000224E  1B44 FE8A                move.b     [A5 - 0x176], D4
label00002252:
00002252  0C6E 0003 FFE8           cmpi.w     [A6 - 0x18], 0x3
00002258  6640                     bne        +0x42 /* 0000229A */
0000225A  102D FE75                move.b     D0, [A5 - 0x18B]
0000225E  5300                     subq.b     D0, 1
00002260  4400                     neg.b      D0
00002262  1B40 FE75                move.b     [A5 - 0x18B], D0
00002266  5307                     subq.b     D7, 1
00002268  4407                     neg.b      D7
0000226A  2F2E FEDC                move.l     -[A7], [A6 - 0x124]
0000226E  3F3C 0003                move.w     -[A7], 0x3
00002272  486E FFEA                pea.l      [A6 - 0x16]
00002276  486E FEE0                pea.l      [A6 - 0x120]
0000227A  486E FED4                pea.l      [A6 - 0x12C]
0000227E  A98D                     syscall    GetDialogItem/GetDItem
00002280  4A2D FE75                tst.b      [A5 - 0x18B]
00002284  670C                     beq        +0xE /* 00002292 */
00002286  2F2E FEE0                move.l     -[A7], [A6 - 0x120]
0000228A  3F3C 0001                move.w     -[A7], 0x1
0000228E  A963                     syscall    SetControlValue/SetCtlValue
00002290  6008                     bra        +0xA /* 0000229A */
label00002292:
00002292  2F2E FEE0                move.l     -[A7], [A6 - 0x120]
00002296  4267                     clr.w      -[A7]
00002298  A963                     syscall    SetControlValue/SetCtlValue
label0000229A:
0000229A  0C6E 0004 FFE8           cmpi.w     [A6 - 0x18], 0x4
000022A0  6640                     bne        +0x42 /* 000022E2 */
000022A2  5306                     subq.b     D6, 1
000022A4  4406                     neg.b      D6
000022A6  102D FE76                move.b     D0, [A5 - 0x18A]
000022AA  5300                     subq.b     D0, 1
000022AC  4400                     neg.b      D0
000022AE  1B40 FE76                move.b     [A5 - 0x18A], D0
000022B2  2F2E FEDC                move.l     -[A7], [A6 - 0x124]
000022B6  3F3C 0004                move.w     -[A7], 0x4
000022BA  486E FFEA                pea.l      [A6 - 0x16]
000022BE  486E FEE0                pea.l      [A6 - 0x120]
000022C2  486E FED4                pea.l      [A6 - 0x12C]
000022C6  A98D                     syscall    GetDialogItem/GetDItem
000022C8  4A2D FE76                tst.b      [A5 - 0x18A]
000022CC  670C                     beq        +0xE /* 000022DA */
000022CE  2F2E FEE0                move.l     -[A7], [A6 - 0x120]
000022D2  3F3C 0001                move.w     -[A7], 0x1
000022D6  A963                     syscall    SetControlValue/SetCtlValue
000022D8  6008                     bra        +0xA /* 000022E2 */
label000022DA:
000022DA  2F2E FEE0                move.l     -[A7], [A6 - 0x120]
000022DE  4267                     clr.w      -[A7]
000022E0  A963                     syscall    SetControlValue/SetCtlValue
label000022E2:
000022E2  0C6E 0005 FFE8           cmpi.w     [A6 - 0x18], 0x5
000022E8  6600 00C6                bne        +0xC8 /* 000023B0 */
000022EC  486E FFE6                pea.l      [A6 - 0x1A]
000022F0  4EAD 0132                jsr        [A5 + 0x132 /* export_34, CODE:1 @ 00000878 */]
000022F4  302E FFE6                move.w     D0, [A6 - 0x1A]
000022F8  6018                     bra        +0x1A /* 00002312 */
label000022FA:
000022FA  3D7C 0001 FFE6           move.w     [A6 - 0x1A], 0x1
00002300  6028                     bra        +0x2A /* 0000232A */
label00002302:
00002302  3D7C 0003 FFE6           move.w     [A6 - 0x1A], 0x3
00002308  6020                     bra        +0x22 /* 0000232A */
label0000230A:
0000230A  3D7C 0005 FFE6           move.w     [A6 - 0x1A], 0x5
00002310  6018                     bra        +0x1A /* 0000232A */
label00002312:
00002312  67E6                     beq        -0x18 /* 000022FA */
00002314  5340                     subq.w     D0, 1
00002316  67EA                     beq        -0x14 /* 00002302 */
00002318  5340                     subq.w     D0, 1
0000231A  67E6                     beq        -0x18 /* 00002302 */
0000231C  5340                     subq.w     D0, 1
0000231E  67EA                     beq        -0x14 /* 0000230A */
00002320  5340                     subq.w     D0, 1
00002322  67E6                     beq        -0x18 /* 0000230A */
00002324  3D7C 0007 FFE6           move.w     [A6 - 0x1A], 0x7
label0000232A:
0000232A  3F2E FFE6                move.w     -[A7], [A6 - 0x1A]
0000232E  4EAD 012A                jsr        [A5 + 0x12A /* export_33, CODE:1 @ 000007FC */]
00002332  4A6E FFE6                tst.w      [A6 - 0x1A]
00002336  56C0                     sne        D0
00002338  C007                     and.b      D0, D7
0000233A  1B40 FE75                move.b     [A5 - 0x18B], D0
0000233E  2F2E FEDC                move.l     -[A7], [A6 - 0x124]
00002342  3F3C 0003                move.w     -[A7], 0x3
00002346  486E FFEA                pea.l      [A6 - 0x16]
0000234A  486E FEE0                pea.l      [A6 - 0x120]
0000234E  486E FED4                pea.l      [A6 - 0x12C]
00002352  A98D                     syscall    GetDialogItem/GetDItem
00002354  4A2D FE75                tst.b      [A5 - 0x18B]
00002358  670C                     beq        +0xE /* 00002366 */
0000235A  2F2E FEE0                move.l     -[A7], [A6 - 0x120]
0000235E  3F3C 0001                move.w     -[A7], 0x1
00002362  A963                     syscall    SetControlValue/SetCtlValue
00002364  6008                     bra        +0xA /* 0000236E */
label00002366:
00002366  2F2E FEE0                move.l     -[A7], [A6 - 0x120]
0000236A  4267                     clr.w      -[A7]
0000236C  A963                     syscall    SetControlValue/SetCtlValue
label0000236E:
0000236E  4A6E FFE6                tst.w      [A6 - 0x1A]
00002372  56C0                     sne        D0
00002374  C006                     and.b      D0, D6
00002376  1B40 FE76                move.b     [A5 - 0x18A], D0
0000237A  2F2E FEDC                move.l     -[A7], [A6 - 0x124]
0000237E  3F3C 0004                move.w     -[A7], 0x4
00002382  486E FFEA                pea.l      [A6 - 0x16]
00002386  486E FEE0                pea.l      [A6 - 0x120]
0000238A  486E FED4                pea.l      [A6 - 0x12C]
0000238E  A98D                     syscall    GetDialogItem/GetDItem
00002390  4A2D FE76                tst.b      [A5 - 0x18A]
00002394  670C                     beq        +0xE /* 000023A2 */
00002396  2F2E FEE0                move.l     -[A7], [A6 - 0x120]
0000239A  3F3C 0001                move.w     -[A7], 0x1
0000239E  A963                     syscall    SetControlValue/SetCtlValue
000023A0  6008                     bra        +0xA /* 000023AA */
label000023A2:
000023A2  2F2E FEE0                move.l     -[A7], [A6 - 0x120]
000023A6  4267                     clr.w      -[A7]
000023A8  A963                     syscall    SetControlValue/SetCtlValue
label000023AA:
000023AA  2F0E                     move.l     -[A7], A6
000023AC  4EBA FBBE                jsr        [PC - 0x442 /* 00001F6C */]
label000023B0:
000023B0  0C6E 0006 FFE8           cmpi.w     [A6 - 0x18], 0x6
000023B6  6600 00D8                bne        +0xDA /* 00002490 */
000023BA  486E FFE6                pea.l      [A6 - 0x1A]
000023BE  4EAD 0132                jsr        [A5 + 0x132 /* export_34, CODE:1 @ 00000878 */]
000023C2  302E FFE6                move.w     D0, [A6 - 0x1A]
000023C6  601E                     bra        +0x20 /* 000023E6 */
000023C8  426E FFE6                clr.w      [A6 - 0x1A]
000023CC  603C                     bra        +0x3E /* 0000240A */
000023CE  3D7C 0001 FFE6           move.w     [A6 - 0x1A], 0x1
000023D4  6034                     bra        +0x36 /* 0000240A */
000023D6  3D7C 0003 FFE6           move.w     [A6 - 0x1A], 0x3
000023DC  602C                     bra        +0x2E /* 0000240A */
000023DE  3D7C 0005 FFE6           move.w     [A6 - 0x1A], 0x5
000023E4  6024                     bra        +0x26 /* 0000240A */
label000023E6:
000023E6  5340                     subq.w     D0, 1
000023E8  0C40 0007                cmpi.w     D0, 0x7
000023EC  6418                     bcc        +0x1A /* 00002406 */
000023EE  D040                     add.w      D0, D0
000023F0  303B 0006                move.w     D0, [PC + D0.w + 0x6]
000023F4  4EFB 0002                jmp        [PC + D0.w + 0x2]
000023F8  FFD0                     .invalid   <<F/7/7>>
000023FA  FFD0                     .invalid   <<F/7/7>>
000023FC  FFD6                     .invalid   <<F/7/7>>
000023FE  FFD6                     .invalid   <<F/7/7>>
00002400  FFDE                     .invalid   <<F/7/7>>
00002402  FFDE                     .invalid   <<F/7/7>>
00002404  FFE6                     .invalid   <<F/7/7>>
label00002406:
00002406  426E FFE6                clr.w      [A6 - 0x1A]
label0000240A:
0000240A  3F2E FFE6                move.w     -[A7], [A6 - 0x1A]
0000240E  4EAD 012A                jsr        [A5 + 0x12A /* export_33, CODE:1 @ 000007FC */]
00002412  4A6E FFE6                tst.w      [A6 - 0x1A]
00002416  56C0                     sne        D0
00002418  C007                     and.b      D0, D7
0000241A  1B40 FE75                move.b     [A5 - 0x18B], D0
0000241E  2F2E FEDC                move.l     -[A7], [A6 - 0x124]
00002422  3F3C 0003                move.w     -[A7], 0x3
00002426  486E FFEA                pea.l      [A6 - 0x16]
0000242A  486E FEE0                pea.l      [A6 - 0x120]
0000242E  486E FED4                pea.l      [A6 - 0x12C]
00002432  A98D                     syscall    GetDialogItem/GetDItem
00002434  4A2D FE75                tst.b      [A5 - 0x18B]
00002438  670C                     beq        +0xE /* 00002446 */
0000243A  2F2E FEE0                move.l     -[A7], [A6 - 0x120]
0000243E  3F3C 0001                move.w     -[A7], 0x1
00002442  A963                     syscall    SetControlValue/SetCtlValue
00002444  6008                     bra        +0xA /* 0000244E */
label00002446:
00002446  2F2E FEE0                move.l     -[A7], [A6 - 0x120]
0000244A  4267                     clr.w      -[A7]
0000244C  A963                     syscall    SetControlValue/SetCtlValue
label0000244E:
0000244E  4A6E FFE6                tst.w      [A6 - 0x1A]
00002452  56C0                     sne        D0
00002454  C006                     and.b      D0, D6
00002456  1B40 FE76                move.b     [A5 - 0x18A], D0
0000245A  2F2E FEDC                move.l     -[A7], [A6 - 0x124]
0000245E  3F3C 0004                move.w     -[A7], 0x4
00002462  486E FFEA                pea.l      [A6 - 0x16]
00002466  486E FEE0                pea.l      [A6 - 0x120]
0000246A  486E FED4                pea.l      [A6 - 0x12C]
0000246E  A98D                     syscall    GetDialogItem/GetDItem
00002470  4A2D FE76                tst.b      [A5 - 0x18A]
00002474  670C                     beq        +0xE /* 00002482 */
00002476  2F2E FEE0                move.l     -[A7], [A6 - 0x120]
0000247A  3F3C 0001                move.w     -[A7], 0x1
0000247E  A963                     syscall    SetControlValue/SetCtlValue
00002480  6008                     bra        +0xA /* 0000248A */
label00002482:
00002482  2F2E FEE0                move.l     -[A7], [A6 - 0x120]
00002486  4267                     clr.w      -[A7]
00002488  A963                     syscall    SetControlValue/SetCtlValue
label0000248A:
0000248A  2F0E                     move.l     -[A7], A6
0000248C  4EBA FADE                jsr        [PC - 0x522 /* 00001F6C */]
label00002490:
00002490  0C6E 000E FFE8           cmpi.w     [A6 - 0x18], 0xE
00002496  6644                     bne        +0x46 /* 000024DC */
00002498  2F2E FEDC                move.l     -[A7], [A6 - 0x124]
0000249C  3F3C 000E                move.w     -[A7], 0xE
000024A0  486E FFEA                pea.l      [A6 - 0x16]
000024A4  486E FEE0                pea.l      [A6 - 0x120]
000024A8  486E FED4                pea.l      [A6 - 0x12C]
000024AC  A98D                     syscall    GetDialogItem/GetDItem
000024AE  2F2E FEE0                move.l     -[A7], [A6 - 0x120]
000024B2  3F3C 0001                move.w     -[A7], 0x1
000024B6  A963                     syscall    SetControlValue/SetCtlValue
000024B8  2F2E FEDC                move.l     -[A7], [A6 - 0x124]
000024BC  3F3C 000F                move.w     -[A7], 0xF
000024C0  486E FFEA                pea.l      [A6 - 0x16]
000024C4  486E FEE0                pea.l      [A6 - 0x120]
000024C8  486E FED4                pea.l      [A6 - 0x12C]
000024CC  A98D                     syscall    GetDialogItem/GetDItem
000024CE  2F2E FEE0                move.l     -[A7], [A6 - 0x120]
000024D2  4267                     clr.w      -[A7]
000024D4  A963                     syscall    SetControlValue/SetCtlValue
000024D6  1B7C 0001 FE8A           move.b     [A5 - 0x176], 0x1
label000024DC:
000024DC  0C6E 000F FFE8           cmpi.w     [A6 - 0x18], 0xF
000024E2  6642                     bne        +0x44 /* 00002526 */
000024E4  2F2E FEDC                move.l     -[A7], [A6 - 0x124]
000024E8  3F3C 000F                move.w     -[A7], 0xF
000024EC  486E FFEA                pea.l      [A6 - 0x16]
000024F0  486E FEE0                pea.l      [A6 - 0x120]
000024F4  486E FED4                pea.l      [A6 - 0x12C]
000024F8  A98D                     syscall    GetDialogItem/GetDItem
000024FA  2F2E FEE0                move.l     -[A7], [A6 - 0x120]
000024FE  3F3C 0001                move.w     -[A7], 0x1
00002502  A963                     syscall    SetControlValue/SetCtlValue
00002504  2F2E FEDC                move.l     -[A7], [A6 - 0x124]
00002508  3F3C 000E                move.w     -[A7], 0xE
0000250C  486E FFEA                pea.l      [A6 - 0x16]
00002510  486E FEE0                pea.l      [A6 - 0x120]
00002514  486E FED4                pea.l      [A6 - 0x12C]
00002518  A98D                     syscall    GetDialogItem/GetDItem
0000251A  2F2E FEE0                move.l     -[A7], [A6 - 0x120]
0000251E  4267                     clr.w      -[A7]
00002520  A963                     syscall    SetControlValue/SetCtlValue
00002522  422D FE8A                clr.b      [A5 - 0x176]
label00002526:
00002526  4A05                     tst.b      D5
00002528  6700 FCCC                beq        -0x332 /* 000021F6 */
0000252C  2F2E FFEC                move.l     -[A7], [A6 - 0x14]
00002530  A873                     syscall    SetPort
00002532  2F2E FEDC                move.l     -[A7], [A6 - 0x124]
00002536  A983                     syscall    DisposeDialog
00002538  4CDF 00F8                movem.l    D3,D4,D5,D6,D7, [A7]+
0000253C  4E5E                     unlink     A6
0000253E  4E75                     rts
fn00002540:
00002540  4E56 FFE8                link       A6, -0x0018
00002544  2F0C                     move.l     -[A7], A4
00002546  286E 0008                movea.l    A4, [A6 + 0x8]
0000254A  2F2C FEC6                move.l     -[A7], [A4 - 0x13A]
0000254E  A873                     syscall    SetPort
00002550  2F2C FEC6                move.l     -[A7], [A4 - 0x13A]
00002554  3F3C 0001                move.w     -[A7], 0x1
00002558  486C FFEA                pea.l      [A4 - 0x16]
0000255C  486C FECE                pea.l      [A4 - 0x132]
00002560  486C FEBE                pea.l      [A4 - 0x142]
00002564  A98D                     syscall    GetDialogItem/GetDItem
00002566  3F3C 0003                move.w     -[A7], 0x3
0000256A  3F3C 0003                move.w     -[A7], 0x3
0000256E  A89B                     syscall    PenSize
00002570  486C FEBE                pea.l      [A4 - 0x142]
00002574  3F3C FFFC                move.w     -[A7], 0xFFFC
00002578  3F3C FFFC                move.w     -[A7], 0xFFFC
0000257C  A8A9                     syscall    InsetRect
0000257E  486C FEBE                pea.l      [A4 - 0x142]
00002582  3F3C 0010                move.w     -[A7], 0x10
00002586  3F3C 0010                move.w     -[A7], 0x10
0000258A  A8B0                     syscall    FrameRoundRect
0000258C  A89E                     syscall    PenNormal
0000258E  285F                     movea.l    A4, [A7]+
00002590  4E5E                     unlink     A6
00002592  2E9F                     move.l     [A7], [A7]+
00002594  4E75                     rts
fn00002596:
00002596  4E56 FEFE                link       A6, -0x0102
0000259A  48E7 0308                movem.l    -[A7], D6,D7,A4
0000259E  286E 0008                movea.l    A4, [A6 + 0x8]
000025A2  3E2E 000C                move.w     D7, [A6 + 0xC]
000025A6  3C2E 000E                move.w     D6, [A6 + 0xE]
000025AA  0C47 0021                cmpi.w     D7, 0x21 /* '!' */
000025AE  5CC0                     sge        D0
000025B0  0C47 007A                cmpi.w     D7, 0x7A /* 'z' */
000025B4  5FC1                     sle        D1
000025B6  C001                     and.b      D0, D1
000025B8  6700 007A                beq        +0x7C /* 00002634 */
000025BC  0C46 0041                cmpi.w     D6, 0x41 /* 'A' */
000025C0  5CC0                     sge        D0
000025C2  0C46 005C                cmpi.w     D6, 0x5C /* '\\' */
000025C6  5FC1                     sle        D1
000025C8  C001                     and.b      D0, D1
000025CA  6734                     beq        +0x36 /* 00002600 */
000025CC  486E FF00                pea.l      [A6 - 0x100]
000025D0  303C 0100                move.w     D0, 0x100
000025D4  1007                     move.b     D0, D7
000025D6  3D40 FEFE                move.w     [A6 - 0x102], D0
000025DA  486E FEFE                pea.l      [A6 - 0x102]
000025DE  487A 0476                pea.l      [PC + 0x476 /* 00002A56, value 0x7206B65, pstring " keypad" */]
000025E2  3F3C 0002                move.w     -[A7], 0x2
000025E6  4EAD 002A                jsr        [A5 + 0x2A /* export_1, CODE:1 @ 00000000 */]
000025EA  584F                     addq.w     A7, 4
000025EC  3F3C 00FF                move.w     -[A7], 0xFF
000025F0  486E FF00                pea.l      [A6 - 0x100]
000025F4  486C FED2                pea.l      [A4 - 0x12E]
000025F8  4EAD 005A                jsr        [A5 + 0x5A /* export_7, CODE:1 @ 0000025C */]
000025FC  6000 0330                bra        +0x332 /* 0000292E */
label00002600:
00002600  486E FF00                pea.l      [A6 - 0x100]
00002604  303C 0100                move.w     D0, 0x100
00002608  1007                     move.b     D0, D7
0000260A  3D40 FEFE                move.w     [A6 - 0x102], D0
0000260E  486E FEFE                pea.l      [A6 - 0x102]
00002612  487A 043C                pea.l      [PC + 0x43C /* 00002A50, value 0x4206B65, pstring " key" */]
00002616  3F3C 0002                move.w     -[A7], 0x2
0000261A  4EAD 002A                jsr        [A5 + 0x2A /* export_1, CODE:1 @ 00000000 */]
0000261E  584F                     addq.w     A7, 4
00002620  3F3C 00FF                move.w     -[A7], 0xFF
00002624  486E FF00                pea.l      [A6 - 0x100]
00002628  486C FED2                pea.l      [A4 - 0x12E]
0000262C  4EAD 005A                jsr        [A5 + 0x5A /* export_7, CODE:1 @ 0000025C */]
00002630  6000 02FC                bra        +0x2FE /* 0000292E */
label00002634:
00002634  3007                     move.w     D0, D7
00002636  6000 027C                bra        +0x27E /* 000028B4 */
label0000263A:
0000263A  41FA 040E                lea.l      A0, [PC + 0x40E /* 00002A4A, value 0x4686F6D, pstring "home" */]
0000263E  43EC FED2                lea.l      A1, [A4 - 0x12E]
00002642  22D8                     move.l     [A1]+, [A0]+
00002644  22D8                     move.l     [A1]+, [A0]+
00002646  6000 02E6                bra        +0x2E8 /* 0000292E */
label0000264A:
0000264A  41FA 03F8                lea.l      A0, [PC + 0x3F8 /* 00002A44, value 0x5656E74, pstring "enter" */]
0000264E  43EC FED2                lea.l      A1, [A4 - 0x12E]
00002652  22D8                     move.l     [A1]+, [A0]+
00002654  22D8                     move.l     [A1]+, [A0]+
00002656  6000 02D6                bra        +0x2D8 /* 0000292E */
label0000265A:
0000265A  297C 0365 6E64 FED2      move.l     [A4 - 0x12E], 0x3656E64
00002662  6000 02CA                bra        +0x2CC /* 0000292E */
label00002666:
00002666  41FA 03D6                lea.l      A0, [PC + 0x3D6 /* 00002A3E, value 0x468656C, pstring "help" */]
0000266A  43EC FED2                lea.l      A1, [A4 - 0x12E]
0000266E  22D8                     move.l     [A1]+, [A0]+
00002670  22D8                     move.l     [A1]+, [A0]+
00002672  6000 02BA                bra        +0x2BC /* 0000292E */
label00002676:
00002676  41FA 03BE                lea.l      A0, [PC + 0x3BE /* 00002A36, value 0x664656C, pstring "delete" */]
0000267A  43EC FED2                lea.l      A1, [A4 - 0x12E]
0000267E  22D8                     move.l     [A1]+, [A0]+
00002680  22D8                     move.l     [A1]+, [A0]+
00002682  6000 02AA                bra        +0x2AC /* 0000292E */
label00002686:
00002686  297C 0374 6162 FED2      move.l     [A4 - 0x12E], 0x3746162
0000268E  6000 029E                bra        +0x2A0 /* 0000292E */
label00002692:
00002692  41FA 039A                lea.l      A0, [PC + 0x39A /* 00002A2E, value 0x7706167, pstring "page up" */]
00002696  43EC FED2                lea.l      A1, [A4 - 0x12E]
0000269A  22D8                     move.l     [A1]+, [A0]+
0000269C  22D8                     move.l     [A1]+, [A0]+
0000269E  6000 028E                bra        +0x290 /* 0000292E */
label000026A2:
000026A2  41FA 0380                lea.l      A0, [PC + 0x380 /* 00002A24, value 0x9706167 '\tpag', pstring "page down" */]
000026A6  43EC FED2                lea.l      A1, [A4 - 0x12E]
000026AA  22D8                     move.l     [A1]+, [A0]+
000026AC  22D8                     move.l     [A1]+, [A0]+
000026AE  22D8                     move.l     [A1]+, [A0]+
000026B0  6000 027C                bra        +0x27E /* 0000292E */
label000026B4:
000026B4  41FA 0366                lea.l      A0, [PC + 0x366 /* 00002A1C, value 0x6726574, pstring "return" */]
000026B8  43EC FED2                lea.l      A1, [A4 - 0x12E]
000026BC  22D8                     move.l     [A1]+, [A0]+
000026BE  22D8                     move.l     [A1]+, [A0]+
000026C0  6000 026C                bra        +0x26E /* 0000292E */
label000026C4:
000026C4  3006                     move.w     D0, D6
000026C6  6000 00F2                bra        +0xF4 /* 000027BA */
000026CA  41FA 0348                lea.l      A0, [PC + 0x348 /* 00002A14, value 0x6463520, pstring "F5 key" */]
000026CE  43EC FED2                lea.l      A1, [A4 - 0x12E]
000026D2  22D8                     move.l     [A1]+, [A0]+
000026D4  22D8                     move.l     [A1]+, [A0]+
000026D6  6000 0256                bra        +0x258 /* 0000292E */
000026DA  41FA 0330                lea.l      A0, [PC + 0x330 /* 00002A0C, value 0x6463620, pstring "F6 key" */]
000026DE  43EC FED2                lea.l      A1, [A4 - 0x12E]
000026E2  22D8                     move.l     [A1]+, [A0]+
000026E4  22D8                     move.l     [A1]+, [A0]+
000026E6  6000 0246                bra        +0x248 /* 0000292E */
000026EA  41FA 0318                lea.l      A0, [PC + 0x318 /* 00002A04, value 0x6463720, pstring "F7 key" */]
000026EE  43EC FED2                lea.l      A1, [A4 - 0x12E]
000026F2  22D8                     move.l     [A1]+, [A0]+
000026F4  22D8                     move.l     [A1]+, [A0]+
000026F6  6000 0236                bra        +0x238 /* 0000292E */
000026FA  41FA 0300                lea.l      A0, [PC + 0x300 /* 000029FC, value 0x6463320, pstring "F3 key" */]
000026FE  43EC FED2                lea.l      A1, [A4 - 0x12E]
00002702  22D8                     move.l     [A1]+, [A0]+
00002704  22D8                     move.l     [A1]+, [A0]+
00002706  6000 0226                bra        +0x228 /* 0000292E */
0000270A  41FA 02E8                lea.l      A0, [PC + 0x2E8 /* 000029F4, value 0x6463820, pstring "F8 key" */]
0000270E  43EC FED2                lea.l      A1, [A4 - 0x12E]
00002712  22D8                     move.l     [A1]+, [A0]+
00002714  22D8                     move.l     [A1]+, [A0]+
00002716  6000 0216                bra        +0x218 /* 0000292E */
0000271A  41FA 02D0                lea.l      A0, [PC + 0x2D0 /* 000029EC, value 0x6463920, pstring "F9 key" */]
0000271E  43EC FED2                lea.l      A1, [A4 - 0x12E]
00002722  22D8                     move.l     [A1]+, [A0]+
00002724  22D8                     move.l     [A1]+, [A0]+
00002726  6000 0206                bra        +0x208 /* 0000292E */
0000272A  41FA 02B8                lea.l      A0, [PC + 0x2B8 /* 000029E4, value 0x7463131, pstring "F11 key" */]
0000272E  43EC FED2                lea.l      A1, [A4 - 0x12E]
00002732  22D8                     move.l     [A1]+, [A0]+
00002734  22D8                     move.l     [A1]+, [A0]+
00002736  6000 01F6                bra        +0x1F8 /* 0000292E */
0000273A  41FA 02A0                lea.l      A0, [PC + 0x2A0 /* 000029DC, value 0x7463133, pstring "F13 key" */]
0000273E  43EC FED2                lea.l      A1, [A4 - 0x12E]
00002742  22D8                     move.l     [A1]+, [A0]+
00002744  22D8                     move.l     [A1]+, [A0]+
00002746  6000 01E6                bra        +0x1E8 /* 0000292E */
0000274A  41FA 0288                lea.l      A0, [PC + 0x288 /* 000029D4, value 0x7463134, pstring "F14 key" */]
0000274E  43EC FED2                lea.l      A1, [A4 - 0x12E]
00002752  22D8                     move.l     [A1]+, [A0]+
00002754  22D8                     move.l     [A1]+, [A0]+
00002756  6000 01D6                bra        +0x1D8 /* 0000292E */
0000275A  41FA 0270                lea.l      A0, [PC + 0x270 /* 000029CC, value 0x7463130, pstring "F10 key" */]
0000275E  43EC FED2                lea.l      A1, [A4 - 0x12E]
00002762  22D8                     move.l     [A1]+, [A0]+
00002764  22D8                     move.l     [A1]+, [A0]+
00002766  6000 01C6                bra        +0x1C8 /* 0000292E */
0000276A  41FA 0258                lea.l      A0, [PC + 0x258 /* 000029C4, value 0x7463132, pstring "F12 key" */]
0000276E  43EC FED2                lea.l      A1, [A4 - 0x12E]
00002772  22D8                     move.l     [A1]+, [A0]+
00002774  22D8                     move.l     [A1]+, [A0]+
00002776  6000 01B6                bra        +0x1B8 /* 0000292E */
0000277A  41FA 0240                lea.l      A0, [PC + 0x240 /* 000029BC, value 0x7463135, pstring "F15 key" */]
0000277E  43EC FED2                lea.l      A1, [A4 - 0x12E]
00002782  22D8                     move.l     [A1]+, [A0]+
00002784  22D8                     move.l     [A1]+, [A0]+
00002786  6000 01A6                bra        +0x1A8 /* 0000292E */
0000278A  41FA 0228                lea.l      A0, [PC + 0x228 /* 000029B4, value 0x6463420, pstring "F4 key" */]
0000278E  43EC FED2                lea.l      A1, [A4 - 0x12E]
00002792  22D8                     move.l     [A1]+, [A0]+
00002794  22D8                     move.l     [A1]+, [A0]+
00002796  6000 0196                bra        +0x198 /* 0000292E */
0000279A  41FA 0210                lea.l      A0, [PC + 0x210 /* 000029AC, value 0x6463220, pstring "F2 key" */]
0000279E  43EC FED2                lea.l      A1, [A4 - 0x12E]
000027A2  22D8                     move.l     [A1]+, [A0]+
000027A4  22D8                     move.l     [A1]+, [A0]+
000027A6  6000 0186                bra        +0x188 /* 0000292E */
000027AA  41FA 01F8                lea.l      A0, [PC + 0x1F8 /* 000029A4, value 0x6463120, pstring "F1 key" */]
000027AE  43EC FED2                lea.l      A1, [A4 - 0x12E]
000027B2  22D8                     move.l     [A1]+, [A0]+
000027B4  22D8                     move.l     [A1]+, [A0]+
000027B6  6000 0176                bra        +0x178 /* 0000292E */
label000027BA:
000027BA  0640 FFA0                addi.w     D0, 0xFFA0
000027BE  0C40 001B                cmpi.w     D0, 0x1B
000027C2  6440                     bcc        +0x42 /* 00002804 */
000027C4  D040                     add.w      D0, D0
000027C6  303B 0006                move.w     D0, [PC + D0.w + 0x6]
000027CA  4EFB 0002                jmp        [PC + D0.w + 0x2]
000027CE  FEFC FF0C                .extension 0xEFC <<F/2-3/7>> // unimplemented
000027D2  FF1C                     .extension 0xF1C <<F/4-5/7>> // unimplemented
000027D4  FF2C                     .extension 0xF2C <<F/4-5/7>> // unimplemented
000027D6  FF3C                     .extension 0xF3C <<F/4-5/7>> // unimplemented
000027D8  FF4C                     .extension 0xF4C <<F/4-5/7>> // unimplemented
000027DA  0036 FF5C 0036           ori.b      [A6 + D0.w + 0x36], 0x5C /* '\\' */
000027E0  FF6C                     .extension 0xF6C <<F/4-5/7>> // unimplemented
000027E2  0036 FF7C 0036           ori.b      [A6 + D0.w + 0x36], 0x7C /* '|' */
000027E8  FF8C                     .invalid   <<F/6/7>>
000027EA  0036 FF9C 0036           ori.b      [A6 + D0.w + 0x36], 0x9C
000027F0  FFAC                     .invalid   <<F/6/7>>
000027F2  0036 0036 0036           ori.b      [A6 + D0.w + 0x36], 0x36 /* '6' */
000027F8  0036 FFBC 0036           ori.b      [A6 + D0.w + 0x36], 0xBC
000027FE  FFCC                     .invalid   <<F/7/7>>
00002800  0036 FFDC 3006           ori.b      [A6 + D3.w + 0x6], 0xDC
// begin alternate branch 00002804-00002806
label00002804:
00002804  3006                     move.w     D0, D6
// end alternate branch 00002804-00002806
label00002804: // (misaligned)
00002806  48C0                     ext.l      D0
00002808  2F00                     move.l     -[A7], D0
0000280A  486C FED2                pea.l      [A4 - 0x12E]
0000280E  4EAD 0192                jsr        [A5 + 0x192 /* export_46, CODE:1 @ 00000B46 */]
00002812  6000 011A                bra        +0x11C /* 0000292E */
label00002816:
00002816  41FA 0186                lea.l      A0, [PC + 0x186 /* 0000299E, value 0x5636C65, pstring "clear" */]
0000281A  43EC FED2                lea.l      A1, [A4 - 0x12E]
0000281E  22D8                     move.l     [A1]+, [A0]+
00002820  22D8                     move.l     [A1]+, [A0]+
00002822  6000 010A                bra        +0x10C /* 0000292E */
label00002826:
00002826  0C46 0047                cmpi.w     D6, 0x47 /* 'G' */
0000282A  6610                     bne        +0x12 /* 0000283C */
0000282C  41FA 016A                lea.l      A0, [PC + 0x16A /* 00002998, value 0x5636C65, pstring "clear" */]
00002830  43EC FED2                lea.l      A1, [A4 - 0x12E]
00002834  22D8                     move.l     [A1]+, [A0]+
00002836  22D8                     move.l     [A1]+, [A0]+
00002838  6000 00F4                bra        +0xF6 /* 0000292E */
label0000283C:
0000283C  41FA 0152                lea.l      A0, [PC + 0x152 /* 00002990, value 0x6657363, pstring "escape" */]
00002840  43EC FED2                lea.l      A1, [A4 - 0x12E]
00002844  22D8                     move.l     [A1]+, [A0]+
00002846  22D8                     move.l     [A1]+, [A0]+
00002848  6000 00E4                bra        +0xE6 /* 0000292E */
label0000284C:
0000284C  41FA 0136                lea.l      A0, [PC + 0x136 /* 00002984, value 0xA6C6566 '\nlef', pstring "left arrow" */]
00002850  43EC FED2                lea.l      A1, [A4 - 0x12E]
00002854  22D8                     move.l     [A1]+, [A0]+
00002856  22D8                     move.l     [A1]+, [A0]+
00002858  22D8                     move.l     [A1]+, [A0]+
0000285A  6000 00D2                bra        +0xD4 /* 0000292E */
label0000285E:
0000285E  41FA 0118                lea.l      A0, [PC + 0x118 /* 00002978, value 0xB726967, pstring "right arrow" */]
00002862  43EC FED2                lea.l      A1, [A4 - 0x12E]
00002866  22D8                     move.l     [A1]+, [A0]+
00002868  22D8                     move.l     [A1]+, [A0]+
0000286A  22D8                     move.l     [A1]+, [A0]+
0000286C  6000 00C0                bra        +0xC2 /* 0000292E */
label00002870:
00002870  41FA 00FC                lea.l      A0, [PC + 0xFC /* 0000296E, value 0x8757020, pstring "up arrow" */]
00002874  43EC FED2                lea.l      A1, [A4 - 0x12E]
00002878  22D8                     move.l     [A1]+, [A0]+
0000287A  22D8                     move.l     [A1]+, [A0]+
0000287C  22D8                     move.l     [A1]+, [A0]+
0000287E  6000 00AE                bra        +0xB0 /* 0000292E */
label00002882:
00002882  41FA 00DE                lea.l      A0, [PC + 0xDE /* 00002962, value 0xA646F77 '\ndow', pstring "down arrow" */]
00002886  43EC FED2                lea.l      A1, [A4 - 0x12E]
0000288A  22D8                     move.l     [A1]+, [A0]+
0000288C  22D8                     move.l     [A1]+, [A0]+
0000288E  22D8                     move.l     [A1]+, [A0]+
00002890  6000 009C                bra        +0x9E /* 0000292E */
label00002894:
00002894  41FA 00C6                lea.l      A0, [PC + 0xC6 /* 0000295C, value 0x5737061, pstring "space" */]
00002898  43EC FED2                lea.l      A1, [A4 - 0x12E]
0000289C  22D8                     move.l     [A1]+, [A0]+
0000289E  22D8                     move.l     [A1]+, [A0]+
000028A0  6000 008C                bra        +0x8E /* 0000292E */
label000028A4:
000028A4  41FA 00AE                lea.l      A0, [PC + 0xAE /* 00002954, value 0x764656C, pstring "del key" */]
000028A8  43EC FED2                lea.l      A1, [A4 - 0x12E]
000028AC  22D8                     move.l     [A1]+, [A0]+
000028AE  22D8                     move.l     [A1]+, [A0]+
000028B0  6000 007C                bra        +0x7E /* 0000292E */
label000028B4:
000028B4  5340                     subq.w     D0, 1
000028B6  6700 FD82                beq        -0x27C /* 0000263A */
000028BA  5540                     subq.w     D0, 2
000028BC  6700 FD8C                beq        -0x272 /* 0000264A */
000028C0  5340                     subq.w     D0, 1
000028C2  6700 FD96                beq        -0x268 /* 0000265A */
000028C6  5340                     subq.w     D0, 1
000028C8  6700 FD9C                beq        -0x262 /* 00002666 */
000028CC  5740                     subq.w     D0, 3
000028CE  6700 FDA6                beq        -0x258 /* 00002676 */
000028D2  5340                     subq.w     D0, 1
000028D4  6700 FDB0                beq        -0x24E /* 00002686 */
000028D8  5540                     subq.w     D0, 2
000028DA  6700 FDB6                beq        -0x248 /* 00002692 */
000028DE  5340                     subq.w     D0, 1
000028E0  6700 FDC0                beq        -0x23E /* 000026A2 */
000028E4  5340                     subq.w     D0, 1
000028E6  6700 FDCC                beq        -0x232 /* 000026B4 */
000028EA  5740                     subq.w     D0, 3
000028EC  6700 FDD6                beq        -0x228 /* 000026C4 */
000028F0  0640 FFF6                addi.w     D0, 0xFFF6
000028F4  6700 FF20                beq        -0xDE /* 00002816 */
000028F8  5340                     subq.w     D0, 1
000028FA  6700 FF2A                beq        -0xD4 /* 00002826 */
000028FE  5340                     subq.w     D0, 1
00002900  6700 FF4A                beq        -0xB4 /* 0000284C */
00002904  5340                     subq.w     D0, 1
00002906  6700 FF56                beq        -0xA8 /* 0000285E */
0000290A  5340                     subq.w     D0, 1
0000290C  6700 FF62                beq        -0x9C /* 00002870 */
00002910  5340                     subq.w     D0, 1
00002912  6700 FF6E                beq        -0x90 /* 00002882 */
00002916  5340                     subq.w     D0, 1
00002918  6700 FF7A                beq        -0x84 /* 00002894 */
0000291C  0640 FFA1                addi.w     D0, 0xFFA1
00002920  6782                     beq        -0x7C /* 000028A4 */
00002922  41FA 0028                lea.l      A0, [PC + 0x28 /* 0000294C, value 0x7756E6B, pstring "unknown" */]
00002926  43EC FED2                lea.l      A1, [A4 - 0x12E]
0000292A  22D8                     move.l     [A1]+, [A0]+
0000292C  22D8                     move.l     [A1]+, [A0]+
label0000292E:
0000292E  206E 0010                movea.l    A0, [A6 + 0x10]
00002932  3F3C 000C                move.w     -[A7], 0xC
00002936  486C FED2                pea.l      [A4 - 0x12E]
0000293A  2F08                     move.l     -[A7], A0
0000293C  4EAD 005A                jsr        [A5 + 0x5A /* export_7, CODE:1 @ 0000025C */]
00002940  4CDF 10C0                movem.l    D6,D7,A4, [A7]+
00002944  4E5E                     unlink     A6
00002946  205F                     movea.l    A0, [A7]+
00002948  504F                     addq.w     A7, 8
0000294A  4ED0                     jmp        [A0]
0000294C  0775 6E6B                bchg       [A5 + D6 * 8 + 0x6B], D3
00002950  6E6F                     bgt        +0x71 /* 000029C1 */
00002952  776E                     moveq.l    D3, 0x6E
00002954  0764                     bchg       -[A4], D3
00002956  656C                     bcs        +0x6E /* 000029C4 */
00002958  206B 6579                movea.l    A0, [A3 + 0x6579]
0000295C  0573 7061                bchg       [A3 + D7.w + 0x61], D2
00002960  6365                     bls        +0x67 /* 000029C7 */
00002962  0A64 6F77                xori.w     -[A4], 0x6F77 /* 'ow' */
00002966  6E20                     bgt        +0x22 /* 00002988 */
00002968  6172                     bsr        +0x74 /* 000029DC */
0000296A  726F                     moveq.l    D1, 0x6F
0000296C  7708                     moveq.l    D3, 0x08
0000296E  0875 7020 6172 726F 7... bchg.b     [[A5 + 0x726F7708] + 0xB72], 0x20 /* ' ' */
0000297A  6967                     bvs        +0x69 /* 000029E3 */
0000297C  6874                     bvc        +0x76 /* 000029F2 */
0000297E  2061                     movea.l    A0, -[A1]
00002980  7272                     moveq.l    D1, 0x72
00002982  6F77                     ble        +0x79 /* 000029FB */
00002984  0A6C 6566 7420           xori.w     [A4 + 0x7420], 0x6566 /* 'ef' */
// begin alternate branch 00002988-0000298A
label00002988:
00002988  7420                     moveq.l    D2, 0x20
// end alternate branch 00002988-0000298A
label00002988: // (misaligned)
0000298A  6172                     bsr        +0x74 /* 000029FE */
0000298C  726F                     moveq.l    D1, 0x6F
0000298E  7708                     moveq.l    D3, 0x08
00002990  0665 7363                addi.w     -[A5], 0x7363 /* 'sc' */
00002994  6170                     bsr        +0x72 /* 00002A06 */
00002996  6508                     bcs        +0xA /* 000029A0 */
00002998  0563                     bchg       -[A3], D2
0000299A  6C65                     bge        +0x67 /* 00002A01 */
0000299C  6172                     bsr        +0x74 /* 00002A10 */
0000299E  0563                     bchg       -[A3], D2
label000029A0:
000029A0  6C65                     bge        +0x67 /* 00002A07 */
000029A2  6172                     bsr        +0x74 /* 00002A16 */
000029A4  0646 3120                addi.w     D6, 0x3120 /* '1 ' */
000029A8  6B65                     bmi        +0x67 /* 00002A0F */
000029AA  7908                     moveq.l    D4, 0x08
000029AC  0646 3220                addi.w     D6, 0x3220 /* '2 ' */
000029B0  6B65                     bmi        +0x67 /* 00002A17 */
000029B2  7908                     moveq.l    D4, 0x08
000029B4  0646 3420                addi.w     D6, 0x3420 /* '4 ' */
000029B8  6B65                     bmi        +0x67 /* 00002A1F */
000029BA  7908                     moveq.l    D4, 0x08
000029BC  0746                     bchg       D6, D3
000029BE  3135 206B                move.w     -[A0], [A5 + D2.w + 0x6B]
000029C2  6579                     bcs        +0x7B /* 00002A3D */
label000029C4:
000029C4  0746                     bchg       D6, D3
000029C6  3132 206B                move.w     -[A0], [A2 + D2.w + 0x6B]
000029CA  6579                     bcs        +0x7B /* 00002A45 */
000029CC  0746                     bchg       D6, D3
000029CE  3130 206B                move.w     -[A0], [A0 + D2.w + 0x6B]
000029D2  6579                     bcs        +0x7B /* 00002A4D */
000029D4  0746                     bchg       D6, D3
000029D6  3134 206B                move.w     -[A0], [A4 + D2.w + 0x6B]
000029DA  6579                     bcs        +0x7B /* 00002A55 */
fn000029DC:
000029DC  0746                     bchg       D6, D3
000029DE  3133 206B                move.w     -[A0], [A3 + D2.w + 0x6B]
000029E2  6579                     bcs        +0x7B /* 00002A5D */
000029E4  0746                     bchg       D6, D3
000029E6  3131 206B                move.w     -[A0], [A1 + D2.w + 0x6B]
000029EA  6579                     bcs        +0x7B /* 00002A65 */
000029EC  0646 3920                addi.w     D6, 0x3920 /* '9 ' */
000029F0  6B65                     bmi        +0x67 /* 00002A57 */
label000029F2:
000029F2  7908                     moveq.l    D4, 0x08
000029F4  0646 3820                addi.w     D6, 0x3820 /* '8 ' */
000029F8  6B65                     bmi        +0x67 /* 00002A5F */
000029FA  7908                     moveq.l    D4, 0x08
000029FC  0646 3320                addi.w     D6, 0x3320 /* '3 ' */
// begin alternate branch 000029FE-00002A00
fn000029FE:
000029FE  3320                     move.w     -[A1], -[A0]
// end alternate branch 000029FE-00002A00
fn000029FE: // (misaligned)
00002A00  6B65                     bmi        +0x67 /* 00002A67 */
00002A02  7908                     moveq.l    D4, 0x08
00002A04  0646 3720                addi.w     D6, 0x3720 /* '7 ' */
// begin alternate branch 00002A06-00002A08
fn00002A06:
00002A06  3720                     move.w     -[A3], -[A0]
// end alternate branch 00002A06-00002A08
fn00002A06: // (misaligned)
00002A08  6B65                     bmi        +0x67 /* 00002A6F */
00002A0A  7908                     moveq.l    D4, 0x08
00002A0C  0646 3620                addi.w     D6, 0x3620 /* '6 ' */
fn00002A10:
00002A10  6B65                     bmi        +0x67 /* 00002A77 */
00002A12  7908                     moveq.l    D4, 0x08
00002A14  0646 3520                addi.w     D6, 0x3520 /* '5 ' */
// begin alternate branch 00002A16-00002A18
fn00002A16:
00002A16  3520                     move.w     -[A2], -[A0]
// end alternate branch 00002A16-00002A18
fn00002A16: // (misaligned)
00002A18  6B65                     bmi        +0x67 /* 00002A7F */
00002A1A  7908                     moveq.l    D4, 0x08
00002A1C  0672 6574 7572 6E08 0... addi.w     [[A2 + 0x6E080970] + 0x6167], 0x6574 /* 'et' */
00002A28  6520                     bcs        +0x22 /* 00002A4A */
00002A2A  646F                     bcc        +0x71 /* 00002A9B */
00002A2C  776E                     moveq.l    D3, 0x6E
00002A2E  0770 6167                bchg       <<invalid full ext with IS == 1 and I/IS == 7>>, D3
00002A32  6520                     bcs        +0x22 /* 00002A54 */
00002A34  7570                     moveq.l    D2, 0x70
00002A36  0664 656C                addi.w     -[A4], 0x656C /* 'el' */
00002A3A  6574                     bcs        +0x76 /* 00002AB0 */
00002A3C  6508                     bcs        +0xA /* 00002A46 */
00002A3E  0468 656C 7008           subi.w     [A0 + 0x7008], 0x656C /* 'el' */
00002A44  0565                     bchg       -[A5], D2
label00002A46:
00002A46  6E74                     bgt        +0x76 /* 00002ABC */
00002A48  6572                     bcs        +0x74 /* 00002ABC */
label00002A4A:
00002A4A  0468 6F6D 6508           subi.w     [A0 + 0x6508], 0x6F6D /* 'om' */
00002A50  0420 6B65                subi.b     -[A0], 0x65 /* 'e' */
label00002A54:
00002A54  7916                     moveq.l    D4, 0x16
00002A56  0720                     btst       -[A0], D3
00002A58  6B65                     bmi        +0x67 /* 00002ABF */
00002A5A  7970                     moveq.l    D4, 0x70
00002A5C  6164                     bsr        +0x66 /* 00002AC2 */
fn00002A5E:
00002A5E  4E56 FD64                link       A6, -0x029C
00002A62  48E7 1F00                movem.l    -[A7], D3,D4,D5,D6,D7
00002A66  3F3C FFFF                move.w     -[A7], 0xFFFF
00002A6A  4267                     clr.w      -[A7]
00002A6C  201F                     move.l     D0, [A7]+
00002A6E  A032                     syscall    FlushEvents
00002A70  486E FFEC                pea.l      [A6 - 0x14]
00002A74  A874                     syscall    GetPort
00002A76  3F2D F84C                move.w     -[A7], [A5 - 0x7B4]
00002A7A  A998                     syscall    UseResFile
00002A7C  594F                     subq.w     A7, 4
00002A7E  3F3C 0089                move.w     -[A7], 0x89
00002A82  42A7                     clr.l      -[A7]
00002A84  70FF                     moveq.l    D0, 0xFFFFFFFF
00002A86  2F00                     move.l     -[A7], D0
00002A88  A97C                     syscall    GetNewDialog
00002A8A  2D5F FEC6                move.l     [A6 - 0x13A], [A7]+
00002A8E  206E FEC6                movea.l    A0, [A6 - 0x13A]
00002A92  41E8 0010                lea.l      A0, [A0 + 0x10]
00002A96  43EE FEBE                lea.l      A1, [A6 - 0x142]
00002A9A  22D8                     move.l     [A1]+, [A0]+
00002A9C  22D8                     move.l     [A1]+, [A0]+
00002A9E  302D FF5A                move.w     D0, [A5 - 0xA6]
00002AA2  906D FF56                sub.w      D0, [A5 - 0xAA]
00002AA6  322E FEC2                move.w     D1, [A6 - 0x13E]
00002AAA  926E FEBE                sub.w      D1, [A6 - 0x142]
00002AAE  9041                     sub.w      D0, D1
label00002AB0:
00002AB0  48C0                     ext.l      D0
00002AB2  81FC 0002                divs.w     D0, 0x2
00002AB6  3D40 FEBE                move.w     [A6 - 0x142], D0
00002ABA  302D FF5C                move.w     D0, [A5 - 0xA4]
// begin alternate branch 00002ABC-00002ABE
label00002ABC:
00002ABC  FF5C                     .extension 0xF5C <<F/4-5/7>> // unimplemented
// end alternate branch 00002ABC-00002ABE
label00002ABC: // (misaligned)
00002ABE  906D FF58                sub.w      D0, [A5 - 0xA8]
fn00002AC2:
00002AC2  322E FEC4                move.w     D1, [A6 - 0x13C]
00002AC6  926E FEC0                sub.w      D1, [A6 - 0x140]
00002ACA  9041                     sub.w      D0, D1
00002ACC  48C0                     ext.l      D0
00002ACE  81FC 0002                divs.w     D0, 0x2
00002AD2  3D40 FEC0                move.w     [A6 - 0x140], D0
00002AD6  2F2E FEC6                move.l     -[A7], [A6 - 0x13A]
00002ADA  3F2E FEC0                move.w     -[A7], [A6 - 0x140]
00002ADE  3F2E FEBE                move.w     -[A7], [A6 - 0x142]
00002AE2  1F3C 0001                move.b     -[A7], 0x1
00002AE6  A91B                     syscall    MoveWindow
00002AE8  2F2E FEC6                move.l     -[A7], [A6 - 0x13A]
00002AEC  A915                     syscall    ShowWindow
00002AEE  2F2E FEC6                move.l     -[A7], [A6 - 0x13A]
00002AF2  A91F                     syscall    SelectWindow
00002AF4  2F2E FEC6                move.l     -[A7], [A6 - 0x13A]
00002AF8  A873                     syscall    SetPort
00002AFA  382D F860                move.w     D4, [A5 - 0x7A0]
00002AFE  3A2D F862                move.w     D5, [A5 - 0x79E]
00002B02  3C2D F864                move.w     D6, [A5 - 0x79C]
00002B06  362D F866                move.w     D3, [A5 - 0x79A]
00002B0A  1D6D FE79 FE84           move.b     [A6 - 0x17C], [A5 - 0x187]
00002B10  3F3C 000C                move.w     -[A7], 0xC
00002B14  486D F88A                pea.l      [A5 - 0x776]
00002B18  486E FEB0                pea.l      [A6 - 0x150]
00002B1C  4EAD 005A                jsr        [A5 + 0x5A /* export_7, CODE:1 @ 0000025C */]
00002B20  3F3C 000C                move.w     -[A7], 0xC
00002B24  486D F898                pea.l      [A5 - 0x768]
00002B28  486E FEA2                pea.l      [A6 - 0x15E]
00002B2C  4EAD 005A                jsr        [A5 + 0x5A /* export_7, CODE:1 @ 0000025C */]
00002B30  3F3C 000C                move.w     -[A7], 0xC
00002B34  486D F8A6                pea.l      [A5 - 0x75A]
00002B38  486E FE94                pea.l      [A6 - 0x16C]
00002B3C  4EAD 005A                jsr        [A5 + 0x5A /* export_7, CODE:1 @ 0000025C */]
00002B40  3F3C 000C                move.w     -[A7], 0xC
00002B44  486D F8B4                pea.l      [A5 - 0x74C]
00002B48  486E FE86                pea.l      [A6 - 0x17A]
00002B4C  4EAD 005A                jsr        [A5 + 0x5A /* export_7, CODE:1 @ 0000025C */]
00002B50  2F2E FEC6                move.l     -[A7], [A6 - 0x13A]
00002B54  3F3C 0007                move.w     -[A7], 0x7
00002B58  486E FFEA                pea.l      [A6 - 0x16]
00002B5C  486E FECE                pea.l      [A6 - 0x132]
00002B60  486E FEBE                pea.l      [A6 - 0x142]
00002B64  A98D                     syscall    GetDialogItem/GetDItem
00002B66  2F2E FECE                move.l     -[A7], [A6 - 0x132]
00002B6A  486E FEB0                pea.l      [A6 - 0x150]
00002B6E  A98F                     syscall    SetDialogItemText/SetIText
00002B70  2F2E FEC6                move.l     -[A7], [A6 - 0x13A]
00002B74  3F3C 0008                move.w     -[A7], 0x8
00002B78  486E FFEA                pea.l      [A6 - 0x16]
00002B7C  486E FECE                pea.l      [A6 - 0x132]
00002B80  486E FEBE                pea.l      [A6 - 0x142]
00002B84  A98D                     syscall    GetDialogItem/GetDItem
00002B86  2F2E FECE                move.l     -[A7], [A6 - 0x132]
00002B8A  486E FEA2                pea.l      [A6 - 0x15E]
00002B8E  A98F                     syscall    SetDialogItemText/SetIText
00002B90  2F2E FEC6                move.l     -[A7], [A6 - 0x13A]
00002B94  3F3C 0009                move.w     -[A7], 0x9 /* '\t' */
00002B98  486E FFEA                pea.l      [A6 - 0x16]
00002B9C  486E FECE                pea.l      [A6 - 0x132]
00002BA0  486E FEBE                pea.l      [A6 - 0x142]
00002BA4  A98D                     syscall    GetDialogItem/GetDItem
00002BA6  2F2E FECE                move.l     -[A7], [A6 - 0x132]
00002BAA  486E FE94                pea.l      [A6 - 0x16C]
00002BAE  A98F                     syscall    SetDialogItemText/SetIText
00002BB0  2F2E FEC6                move.l     -[A7], [A6 - 0x13A]
00002BB4  3F3C 000A                move.w     -[A7], 0xA /* '\n' */
00002BB8  486E FFEA                pea.l      [A6 - 0x16]
00002BBC  486E FECE                pea.l      [A6 - 0x132]
00002BC0  486E FEBE                pea.l      [A6 - 0x142]
00002BC4  A98D                     syscall    GetDialogItem/GetDItem
00002BC6  2F2E FECE                move.l     -[A7], [A6 - 0x132]
00002BCA  486E FE86                pea.l      [A6 - 0x17A]
00002BCE  A98F                     syscall    SetDialogItemText/SetIText
00002BD0  4A2E FE84                tst.b      [A6 - 0x17C]
00002BD4  6718                     beq        +0x1A /* 00002BEE */
00002BD6  2F2E FEC6                move.l     -[A7], [A6 - 0x13A]
00002BDA  3F3C 000D                move.w     -[A7], 0xD /* '\r' */
00002BDE  486E FFEA                pea.l      [A6 - 0x16]
00002BE2  486E FECE                pea.l      [A6 - 0x132]
00002BE6  486E FEBE                pea.l      [A6 - 0x142]
00002BEA  A98D                     syscall    GetDialogItem/GetDItem
00002BEC  6016                     bra        +0x18 /* 00002C04 */
label00002BEE:
00002BEE  2F2E FEC6                move.l     -[A7], [A6 - 0x13A]
00002BF2  3F3C 000C                move.w     -[A7], 0xC
00002BF6  486E FFEA                pea.l      [A6 - 0x16]
00002BFA  486E FECE                pea.l      [A6 - 0x132]
00002BFE  486E FEBE                pea.l      [A6 - 0x142]
00002C02  A98D                     syscall    GetDialogItem/GetDItem
label00002C04:
00002C04  2F2E FECE                move.l     -[A7], [A6 - 0x132]
00002C08  3F3C 0001                move.w     -[A7], 0x1
00002C0C  A963                     syscall    SetControlValue/SetCtlValue
00002C0E  2F0E                     move.l     -[A7], A6
00002C10  4EBA F92E                jsr        [PC - 0x6D2 /* 00002540 */]
00002C14  4207                     clr.b      D7
label00002C16:
00002C16  42A7                     clr.l      -[A7]
00002C18  486E FFE8                pea.l      [A6 - 0x18]
00002C1C  A991                     syscall    ModalDialog
00002C1E  2F2E FEC6                move.l     -[A7], [A6 - 0x13A]
00002C22  3F2E FFE8                move.w     -[A7], [A6 - 0x18]
00002C26  486E FFEA                pea.l      [A6 - 0x16]
00002C2A  486E FECE                pea.l      [A6 - 0x132]
00002C2E  486E FEBE                pea.l      [A6 - 0x142]
00002C32  A98D                     syscall    GetDialogItem/GetDItem
00002C34  0C6E 0003 FFE8           cmpi.w     [A6 - 0x18], 0x3
00002C3A  5CC0                     sge        D0
00002C3C  0C6E 0006 FFE8           cmpi.w     [A6 - 0x18], 0x6
00002C42  5FC1                     sle        D1
00002C44  C001                     and.b      D0, D1
00002C46  6700 02AC                beq        +0x2AE /* 00002EF4 */
00002C4A  2F2E FEC6                move.l     -[A7], [A6 - 0x13A]
00002C4E  3F2E FFE8                move.w     -[A7], [A6 - 0x18]
00002C52  486E FFEA                pea.l      [A6 - 0x16]
00002C56  486E FECE                pea.l      [A6 - 0x132]
00002C5A  486E FEBE                pea.l      [A6 - 0x142]
00002C5E  A98D                     syscall    GetDialogItem/GetDItem
00002C60  486E FEBE                pea.l      [A6 - 0x142]
00002C64  A8A4                     syscall    InvertRect
00002C66  2F2E FEC6                move.l     -[A7], [A6 - 0x13A]
00002C6A  3F3C 000B                move.w     -[A7], 0xB
00002C6E  486E FFEA                pea.l      [A6 - 0x16]
00002C72  486E FECE                pea.l      [A6 - 0x132]
00002C76  486E FEBE                pea.l      [A6 - 0x142]
00002C7A  A98D                     syscall    GetDialogItem/GetDItem
00002C7C  2F2E FECE                move.l     -[A7], [A6 - 0x132]
00002C80  487A 06EA                pea.l      [PC + 0x6EA /* 0000336C, value 0x33546865 '3The', pstring "The next key you strike will control this function." */]
00002C84  A98F                     syscall    SetDialogItemText/SetIText
00002C86  486E FEBE                pea.l      [A6 - 0x142]
00002C8A  A8A4                     syscall    InvertRect
label00002C8C:
00002C8C  554F                     subq.w     A7, 2
00002C8E  A974                     syscall    Button
00002C90  101F                     move.b     D0, [A7]+
00002C92  5300                     subq.b     D0, 1
00002C94  67F6                     beq        -0x8 /* 00002C8C */
00002C96  3F3C FFFF                move.w     -[A7], 0xFFFF
00002C9A  4267                     clr.w      -[A7]
00002C9C  201F                     move.l     D0, [A7]+
00002C9E  A032                     syscall    FlushEvents
label00002CA0:
00002CA0  554F                     subq.w     A7, 2
00002CA2  3F3C 0008                move.w     -[A7], 0x8
00002CA6  486D B5EA                pea.l      [A5 - 0x4A16]
00002CAA  A970                     syscall    GetNextEvent
00002CAC  4A1F                     tst.b      [A7]+
00002CAE  67F0                     beq        -0xE /* 00002CA0 */
00002CB0  202D B5EC                move.l     D0, [A5 - 0x4A14]
00002CB4  0280 0000 FF00           andi.l     D0, 0xFF00
00002CBA  2F00                     move.l     -[A7], D0
00002CBC  2F3C 0000 00FF           move.l     -[A7], 0xFF
00002CC2  4EAD 004A                jsr        [A5 + 0x4A /* export_5, CODE:1 @ 000001C2 */]
00002CC6  544F                     addq.w     A7, 2
00002CC8  3D5F FFE4                move.w     [A6 - 0x1C], [A7]+
00002CCC  202D B5EC                move.l     D0, [A5 - 0x4A14]
00002CD0  0280 0000 00FF           andi.l     D0, 0xFF
00002CD6  3D40 FFE2                move.w     [A6 - 0x1E], D0
00002CDA  3F3C FFFF                move.w     -[A7], 0xFFFF
00002CDE  4267                     clr.w      -[A7]
00002CE0  201F                     move.l     D0, [A7]+
00002CE2  A032                     syscall    FlushEvents
00002CE4  486E FEBE                pea.l      [A6 - 0x142]
00002CE8  A8A4                     syscall    InvertRect
00002CEA  2F2E FEC6                move.l     -[A7], [A6 - 0x13A]
00002CEE  3F2E FFE8                move.w     -[A7], [A6 - 0x18]
00002CF2  486E FFEA                pea.l      [A6 - 0x16]
00002CF6  486E FECE                pea.l      [A6 - 0x132]
00002CFA  486E FEBE                pea.l      [A6 - 0x142]
00002CFE  A98D                     syscall    GetDialogItem/GetDItem
00002D00  486E FEBE                pea.l      [A6 - 0x142]
00002D04  A8A4                     syscall    InvertRect
00002D06  486E FE56                pea.l      [A6 - 0x1AA]
00002D0A  3F2E FFE4                move.w     -[A7], [A6 - 0x1C]
00002D0E  3F2E FFE2                move.w     -[A7], [A6 - 0x1E]
00002D12  2F0E                     move.l     -[A7], A6
00002D14  4EBA F880                jsr        [PC - 0x780 /* 00002596 */]
00002D18  584F                     addq.w     A7, 4
00002D1A  3F3C 00FF                move.w     -[A7], 0xFF
00002D1E  486E FE56                pea.l      [A6 - 0x1AA]
00002D22  486E FED2                pea.l      [A6 - 0x12E]
00002D26  4EAD 005A                jsr        [A5 + 0x5A /* export_7, CODE:1 @ 0000025C */]
00002D2A  2F2E FEC6                move.l     -[A7], [A6 - 0x13A]
00002D2E  302E FFE8                move.w     D0, [A6 - 0x18]
00002D32  5840                     addq.w     D0, 4
00002D34  3F00                     move.w     -[A7], D0
00002D36  486E FFEA                pea.l      [A6 - 0x16]
00002D3A  486E FECE                pea.l      [A6 - 0x132]
00002D3E  486E FEBE                pea.l      [A6 - 0x142]
00002D42  A98D                     syscall    GetDialogItem/GetDItem
00002D44  2F2E FECE                move.l     -[A7], [A6 - 0x132]
00002D48  486E FED2                pea.l      [A6 - 0x12E]
00002D4C  A98F                     syscall    SetDialogItemText/SetIText
00002D4E  0CAE 0374 6162 FED2      cmpi.l     [A6 - 0x12E], 0x3746162
00002D56  6600 00B6                bne        +0xB8 /* 00002E0E */
00002D5A  3F3C 0003                move.w     -[A7], 0x3
00002D5E  A9C8                     syscall    SysBeep
00002D60  2F2E FEC6                move.l     -[A7], [A6 - 0x13A]
00002D64  3F3C 000B                move.w     -[A7], 0xB
00002D68  486E FFEA                pea.l      [A6 - 0x16]
00002D6C  486E FECE                pea.l      [A6 - 0x132]
00002D70  486E FEBE                pea.l      [A6 - 0x142]
00002D74  A98D                     syscall    GetDialogItem/GetDItem
00002D76  2F2E FECE                move.l     -[A7], [A6 - 0x132]
00002D7A  487A 05C4                pea.l      [PC + 0x5C4 /* 00003340, value 0x2B546865 '+The', pstring "The TAB key is reserved for pausing Glider." */]
00002D7E  A98F                     syscall    SetDialogItemText/SetIText
00002D80  2F3C 0000 00B4           move.l     -[A7], 0xB4
00002D86  486E FFD2                pea.l      [A6 - 0x2E]
00002D8A  4EAD 00C2                jsr        [A5 + 0xC2 /* export_20, CODE:1 @ 0000061A */]
00002D8E  302E FFE8                move.w     D0, [A6 - 0x18]
00002D92  6036                     bra        +0x38 /* 00002DCA */
label00002D94:
00002D94  3F3C 00FF                move.w     -[A7], 0xFF
00002D98  486E FEB0                pea.l      [A6 - 0x150]
00002D9C  486E FED2                pea.l      [A6 - 0x12E]
00002DA0  4EAD 005A                jsr        [A5 + 0x5A /* export_7, CODE:1 @ 0000025C */]
00002DA4  6040                     bra        +0x42 /* 00002DE6 */
label00002DA6:
00002DA6  3F3C 00FF                move.w     -[A7], 0xFF
00002DAA  486E FEA2                pea.l      [A6 - 0x15E]
00002DAE  486E FED2                pea.l      [A6 - 0x12E]
00002DB2  4EAD 005A                jsr        [A5 + 0x5A /* export_7, CODE:1 @ 0000025C */]
00002DB6  602E                     bra        +0x30 /* 00002DE6 */
label00002DB8:
00002DB8  3F3C 00FF                move.w     -[A7], 0xFF
00002DBC  486E FE94                pea.l      [A6 - 0x16C]
00002DC0  486E FED2                pea.l      [A6 - 0x12E]
00002DC4  4EAD 005A                jsr        [A5 + 0x5A /* export_7, CODE:1 @ 0000025C */]
00002DC8  601C                     bra        +0x1E /* 00002DE6 */
label00002DCA:
00002DCA  5740                     subq.w     D0, 3
00002DCC  67C6                     beq        -0x38 /* 00002D94 */
00002DCE  5340                     subq.w     D0, 1
00002DD0  67D4                     beq        -0x2A /* 00002DA6 */
00002DD2  5340                     subq.w     D0, 1
00002DD4  67E2                     beq        -0x1C /* 00002DB8 */
00002DD6  3F3C 00FF                move.w     -[A7], 0xFF
00002DDA  486E FE86                pea.l      [A6 - 0x17A]
00002DDE  486E FED2                pea.l      [A6 - 0x12E]
00002DE2  4EAD 005A                jsr        [A5 + 0x5A /* export_7, CODE:1 @ 0000025C */]
label00002DE6:
00002DE6  2F2E FEC6                move.l     -[A7], [A6 - 0x13A]
00002DEA  302E FFE8                move.w     D0, [A6 - 0x18]
00002DEE  5840                     addq.w     D0, 4
00002DF0  3F00                     move.w     -[A7], D0
00002DF2  486E FFEA                pea.l      [A6 - 0x16]
00002DF6  486E FECE                pea.l      [A6 - 0x132]
00002DFA  486E FEBE                pea.l      [A6 - 0x142]
00002DFE  A98D                     syscall    GetDialogItem/GetDItem
00002E00  2F2E FECE                move.l     -[A7], [A6 - 0x132]
00002E04  486E FED2                pea.l      [A6 - 0x12E]
00002E08  A98F                     syscall    SetDialogItemText/SetIText
00002E0A  6000 00C8                bra        +0xCA /* 00002ED4 */
label00002E0E:
00002E0E  302E FFE8                move.w     D0, [A6 - 0x18]
00002E12  6000 0088                bra        +0x8A /* 00002E9C */
label00002E16:
00002E16  382E FFE4                move.w     D4, [A6 - 0x1C]
00002E1A  486E FD64                pea.l      [A6 - 0x29C]
00002E1E  486E FED2                pea.l      [A6 - 0x12E]
00002E22  3F3C 0001                move.w     -[A7], 0x1
00002E26  3F3C 000C                move.w     -[A7], 0xC
00002E2A  4EAD 0032                jsr        [A5 + 0x32 /* export_2, CODE:1 @ 00000048 */]
00002E2E  584F                     addq.w     A7, 4
00002E30  3F3C 000C                move.w     -[A7], 0xC
00002E34  486E FD64                pea.l      [A6 - 0x29C]
00002E38  486E FEB0                pea.l      [A6 - 0x150]
00002E3C  4EAD 005A                jsr        [A5 + 0x5A /* export_7, CODE:1 @ 0000025C */]
00002E40  6000 0092                bra        +0x94 /* 00002ED4 */
label00002E44:
00002E44  3A2E FFE4                move.w     D5, [A6 - 0x1C]
00002E48  486E FD64                pea.l      [A6 - 0x29C]
00002E4C  486E FED2                pea.l      [A6 - 0x12E]
00002E50  3F3C 0001                move.w     -[A7], 0x1
00002E54  3F3C 000C                move.w     -[A7], 0xC
00002E58  4EAD 0032                jsr        [A5 + 0x32 /* export_2, CODE:1 @ 00000048 */]
00002E5C  584F                     addq.w     A7, 4
00002E5E  3F3C 000C                move.w     -[A7], 0xC
00002E62  486E FD64                pea.l      [A6 - 0x29C]
00002E66  486E FEA2                pea.l      [A6 - 0x15E]
00002E6A  4EAD 005A                jsr        [A5 + 0x5A /* export_7, CODE:1 @ 0000025C */]
00002E6E  6064                     bra        +0x66 /* 00002ED4 */
label00002E70:
00002E70  3C2E FFE4                move.w     D6, [A6 - 0x1C]
00002E74  486E FD64                pea.l      [A6 - 0x29C]
00002E78  486E FED2                pea.l      [A6 - 0x12E]
00002E7C  3F3C 0001                move.w     -[A7], 0x1
00002E80  3F3C 000C                move.w     -[A7], 0xC
00002E84  4EAD 0032                jsr        [A5 + 0x32 /* export_2, CODE:1 @ 00000048 */]
00002E88  584F                     addq.w     A7, 4
00002E8A  3F3C 000C                move.w     -[A7], 0xC
00002E8E  486E FD64                pea.l      [A6 - 0x29C]
00002E92  486E FE94                pea.l      [A6 - 0x16C]
00002E96  4EAD 005A                jsr        [A5 + 0x5A /* export_7, CODE:1 @ 0000025C */]
00002E9A  6038                     bra        +0x3A /* 00002ED4 */
label00002E9C:
00002E9C  5740                     subq.w     D0, 3
00002E9E  6700 FF76                beq        -0x88 /* 00002E16 */
00002EA2  5340                     subq.w     D0, 1
00002EA4  679E                     beq        -0x60 /* 00002E44 */
00002EA6  5340                     subq.w     D0, 1
00002EA8  67C6                     beq        -0x38 /* 00002E70 */
00002EAA  362E FFE4                move.w     D3, [A6 - 0x1C]
00002EAE  486E FD64                pea.l      [A6 - 0x29C]
00002EB2  486E FED2                pea.l      [A6 - 0x12E]
00002EB6  3F3C 0001                move.w     -[A7], 0x1
00002EBA  3F3C 000C                move.w     -[A7], 0xC
00002EBE  4EAD 0032                jsr        [A5 + 0x32 /* export_2, CODE:1 @ 00000048 */]
00002EC2  584F                     addq.w     A7, 4
00002EC4  3F3C 000C                move.w     -[A7], 0xC
00002EC8  486E FD64                pea.l      [A6 - 0x29C]
00002ECC  486E FE86                pea.l      [A6 - 0x17A]
00002ED0  4EAD 005A                jsr        [A5 + 0x5A /* export_7, CODE:1 @ 0000025C */]
label00002ED4:
00002ED4  2F2E FEC6                move.l     -[A7], [A6 - 0x13A]
00002ED8  3F3C 000B                move.w     -[A7], 0xB
00002EDC  486E FFEA                pea.l      [A6 - 0x16]
00002EE0  486E FECE                pea.l      [A6 - 0x132]
00002EE4  486E FEBE                pea.l      [A6 - 0x142]
00002EE8  A98D                     syscall    GetDialogItem/GetDItem
00002EEA  2F2E FECE                move.l     -[A7], [A6 - 0x132]
00002EEE  487A 0420                pea.l      [PC + 0x420 /* 00003310, value 0x2F436C69 '/Cli', pstring "Click on an icon to change its controlling key." */]
00002EF2  A98F                     syscall    SetDialogItemText/SetIText
label00002EF4:
00002EF4  0C6E 000C FFE8           cmpi.w     [A6 - 0x18], 0xC
00002EFA  6642                     bne        +0x44 /* 00002F3E */
00002EFC  422E FE84                clr.b      [A6 - 0x17C]
00002F00  2F2E FEC6                move.l     -[A7], [A6 - 0x13A]
00002F04  3F3C 000C                move.w     -[A7], 0xC
00002F08  486E FFEA                pea.l      [A6 - 0x16]
00002F0C  486E FECE                pea.l      [A6 - 0x132]
00002F10  486E FEBE                pea.l      [A6 - 0x142]
00002F14  A98D                     syscall    GetDialogItem/GetDItem
00002F16  2F2E FECE                move.l     -[A7], [A6 - 0x132]
00002F1A  3F3C 0001                move.w     -[A7], 0x1
00002F1E  A963                     syscall    SetControlValue/SetCtlValue
00002F20  2F2E FEC6                move.l     -[A7], [A6 - 0x13A]
00002F24  3F3C 000D                move.w     -[A7], 0xD /* '\r' */
00002F28  486E FFEA                pea.l      [A6 - 0x16]
00002F2C  486E FECE                pea.l      [A6 - 0x132]
00002F30  486E FEBE                pea.l      [A6 - 0x142]
00002F34  A98D                     syscall    GetDialogItem/GetDItem
00002F36  2F2E FECE                move.l     -[A7], [A6 - 0x132]
00002F3A  4267                     clr.w      -[A7]
00002F3C  A963                     syscall    SetControlValue/SetCtlValue
label00002F3E:
00002F3E  0C6E 000D FFE8           cmpi.w     [A6 - 0x18], 0xD /* '\r' */
00002F44  6644                     bne        +0x46 /* 00002F8A */
00002F46  1D7C 0001 FE84           move.b     [A6 - 0x17C], 0x1
00002F4C  2F2E FEC6                move.l     -[A7], [A6 - 0x13A]
00002F50  3F3C 000D                move.w     -[A7], 0xD /* '\r' */
00002F54  486E FFEA                pea.l      [A6 - 0x16]
00002F58  486E FECE                pea.l      [A6 - 0x132]
00002F5C  486E FEBE                pea.l      [A6 - 0x142]
00002F60  A98D                     syscall    GetDialogItem/GetDItem
00002F62  2F2E FECE                move.l     -[A7], [A6 - 0x132]
00002F66  3F3C 0001                move.w     -[A7], 0x1
00002F6A  A963                     syscall    SetControlValue/SetCtlValue
00002F6C  2F2E FEC6                move.l     -[A7], [A6 - 0x13A]
00002F70  3F3C 000C                move.w     -[A7], 0xC
00002F74  486E FFEA                pea.l      [A6 - 0x16]
00002F78  486E FECE                pea.l      [A6 - 0x132]
00002F7C  486E FEBE                pea.l      [A6 - 0x142]
00002F80  A98D                     syscall    GetDialogItem/GetDItem
00002F82  2F2E FECE                move.l     -[A7], [A6 - 0x132]
00002F86  4267                     clr.w      -[A7]
00002F88  A963                     syscall    SetControlValue/SetCtlValue
label00002F8A:
00002F8A  0C6E 0001 FFE8           cmpi.w     [A6 - 0x18], 0x1
00002F90  6600 0224                bne        +0x226 /* 000031B6 */
00002F94  7E01                     moveq.l    D7, 0x01
00002F96  B845                     cmp.w      D4, D5
00002F98  57C0                     seq        D0
00002F9A  B846                     cmp.w      D4, D6
00002F9C  57C1                     seq        D1
00002F9E  8001                     or.b       D0, D1
00002FA0  B843                     cmp.w      D4, D3
00002FA2  57C1                     seq        D1
00002FA4  8001                     or.b       D0, D1
00002FA6  6700 008C                beq        +0x8E /* 00003034 */
00002FAA  3F3C 0003                move.w     -[A7], 0x3
00002FAE  A9C8                     syscall    SysBeep
00002FB0  382D F860                move.w     D4, [A5 - 0x7A0]
00002FB4  3F3C 000C                move.w     -[A7], 0xC
00002FB8  486D F88A                pea.l      [A5 - 0x776]
00002FBC  486E FEB0                pea.l      [A6 - 0x150]
00002FC0  4EAD 005A                jsr        [A5 + 0x5A /* export_7, CODE:1 @ 0000025C */]
00002FC4  2F2E FEC6                move.l     -[A7], [A6 - 0x13A]
00002FC8  3F3C 0007                move.w     -[A7], 0x7
00002FCC  486E FFEA                pea.l      [A6 - 0x16]
00002FD0  486E FECE                pea.l      [A6 - 0x132]
00002FD4  486E FEBE                pea.l      [A6 - 0x142]
00002FD8  A98D                     syscall    GetDialogItem/GetDItem
00002FDA  2F2E FECE                move.l     -[A7], [A6 - 0x132]
00002FDE  486E FEB0                pea.l      [A6 - 0x150]
00002FE2  A98F                     syscall    SetDialogItemText/SetIText
00002FE4  2F2E FEC6                move.l     -[A7], [A6 - 0x13A]
00002FE8  3F3C 000B                move.w     -[A7], 0xB
00002FEC  486E FFEA                pea.l      [A6 - 0x16]
00002FF0  486E FECE                pea.l      [A6 - 0x132]
00002FF4  486E FEBE                pea.l      [A6 - 0x142]
00002FF8  A98D                     syscall    GetDialogItem/GetDItem
00002FFA  2F2E FECE                move.l     -[A7], [A6 - 0x132]
00002FFE  487A 02DA                pea.l      [PC + 0x2DA /* 000032DA, value 0x34596F75 '4You', pstring "Your Left Key has been assigned to another function." */]
00003002  A98F                     syscall    SetDialogItemText/SetIText
00003004  2F3C 0000 00B4           move.l     -[A7], 0xB4
0000300A  486E FFD2                pea.l      [A6 - 0x2E]
0000300E  4EAD 00C2                jsr        [A5 + 0xC2 /* export_20, CODE:1 @ 0000061A */]
00003012  2F2E FEC6                move.l     -[A7], [A6 - 0x13A]
00003016  3F3C 000B                move.w     -[A7], 0xB
0000301A  486E FFEA                pea.l      [A6 - 0x16]
0000301E  486E FECE                pea.l      [A6 - 0x132]
00003022  486E FEBE                pea.l      [A6 - 0x142]
00003026  A98D                     syscall    GetDialogItem/GetDItem
00003028  2F2E FECE                move.l     -[A7], [A6 - 0x132]
0000302C  487A 027C                pea.l      [PC + 0x27C /* 000032AA, value 0x2F436C69 '/Cli', pstring "Click on an icon to change its controlling key." */]
00003030  A98F                     syscall    SetDialogItemText/SetIText
00003032  4207                     clr.b      D7
label00003034:
00003034  BA46                     cmp.w      D5, D6
00003036  57C0                     seq        D0
00003038  BA43                     cmp.w      D5, D3
0000303A  57C1                     seq        D1
0000303C  8001                     or.b       D0, D1
0000303E  6700 008C                beq        +0x8E /* 000030CC */
00003042  3F3C 0003                move.w     -[A7], 0x3
00003046  A9C8                     syscall    SysBeep
00003048  3A2D F862                move.w     D5, [A5 - 0x79E]
0000304C  3F3C 000C                move.w     -[A7], 0xC
00003050  486D F898                pea.l      [A5 - 0x768]
00003054  486E FEA2                pea.l      [A6 - 0x15E]
00003058  4EAD 005A                jsr        [A5 + 0x5A /* export_7, CODE:1 @ 0000025C */]
0000305C  2F2E FEC6                move.l     -[A7], [A6 - 0x13A]
00003060  3F3C 0008                move.w     -[A7], 0x8
00003064  486E FFEA                pea.l      [A6 - 0x16]
00003068  486E FECE                pea.l      [A6 - 0x132]
0000306C  486E FEBE                pea.l      [A6 - 0x142]
00003070  A98D                     syscall    GetDialogItem/GetDItem
00003072  2F2E FECE                move.l     -[A7], [A6 - 0x132]
00003076  486E FEA2                pea.l      [A6 - 0x15E]
0000307A  A98F                     syscall    SetDialogItemText/SetIText
0000307C  2F2E FEC6                move.l     -[A7], [A6 - 0x13A]
00003080  3F3C 000B                move.w     -[A7], 0xB
00003084  486E FFEA                pea.l      [A6 - 0x16]
00003088  486E FECE                pea.l      [A6 - 0x132]
0000308C  486E FEBE                pea.l      [A6 - 0x142]
00003090  A98D                     syscall    GetDialogItem/GetDItem
00003092  2F2E FECE                move.l     -[A7], [A6 - 0x132]
00003096  487A 01DC                pea.l      [PC + 0x1DC /* 00003274, value 0x35596F75 '5You', pstring "Your Right Key has been assigned to another function." */]
0000309A  A98F                     syscall    SetDialogItemText/SetIText
0000309C  2F3C 0000 00B4           move.l     -[A7], 0xB4
000030A2  486E FFD2                pea.l      [A6 - 0x2E]
000030A6  4EAD 00C2                jsr        [A5 + 0xC2 /* export_20, CODE:1 @ 0000061A */]
000030AA  2F2E FEC6                move.l     -[A7], [A6 - 0x13A]
000030AE  3F3C 000B                move.w     -[A7], 0xB
000030B2  486E FFEA                pea.l      [A6 - 0x16]
000030B6  486E FECE                pea.l      [A6 - 0x132]
000030BA  486E FEBE                pea.l      [A6 - 0x142]
000030BE  A98D                     syscall    GetDialogItem/GetDItem
000030C0  2F2E FECE                move.l     -[A7], [A6 - 0x132]
000030C4  487A 017E                pea.l      [PC + 0x17E /* 00003244, value 0x2F436C69 '/Cli', pstring "Click on an icon to change its controlling key." */]
000030C8  A98F                     syscall    SetDialogItemText/SetIText
000030CA  4207                     clr.b      D7
label000030CC:
000030CC  BC43                     cmp.w      D6, D3
000030CE  6600 008C                bne        +0x8E /* 0000315C */
000030D2  3F3C 0003                move.w     -[A7], 0x3
000030D6  A9C8                     syscall    SysBeep
000030D8  3C2D F864                move.w     D6, [A5 - 0x79C]
000030DC  3F3C 000C                move.w     -[A7], 0xC
000030E0  486D F8A6                pea.l      [A5 - 0x75A]
000030E4  486E FE94                pea.l      [A6 - 0x16C]
000030E8  4EAD 005A                jsr        [A5 + 0x5A /* export_7, CODE:1 @ 0000025C */]
000030EC  2F2E FEC6                move.l     -[A7], [A6 - 0x13A]
000030F0  3F3C 0009                move.w     -[A7], 0x9 /* '\t' */
000030F4  486E FFEA                pea.l      [A6 - 0x16]
000030F8  486E FECE                pea.l      [A6 - 0x132]
000030FC  486E FEBE                pea.l      [A6 - 0x142]
00003100  A98D                     syscall    GetDialogItem/GetDItem
00003102  2F2E FECE                move.l     -[A7], [A6 - 0x132]
00003106  486E FE94                pea.l      [A6 - 0x16C]
0000310A  A98F                     syscall    SetDialogItemText/SetIText
0000310C  2F2E FEC6                move.l     -[A7], [A6 - 0x13A]
00003110  3F3C 000B                move.w     -[A7], 0xB
00003114  486E FFEA                pea.l      [A6 - 0x16]
00003118  486E FECE                pea.l      [A6 - 0x132]
0000311C  486E FEBE                pea.l      [A6 - 0x142]
00003120  A98D                     syscall    GetDialogItem/GetDItem
00003122  2F2E FECE                move.l     -[A7], [A6 - 0x132]
00003126  487A 00E2                pea.l      [PC + 0xE2 /* 0000320A, value 0x38596F75 '8You', pstring "Your Energize Key has been assigned to another function." */]
0000312A  A98F                     syscall    SetDialogItemText/SetIText
0000312C  2F3C 0000 00B4           move.l     -[A7], 0xB4
00003132  486E FFD2                pea.l      [A6 - 0x2E]
00003136  4EAD 00C2                jsr        [A5 + 0xC2 /* export_20, CODE:1 @ 0000061A */]
0000313A  2F2E FEC6                move.l     -[A7], [A6 - 0x13A]
0000313E  3F3C 000B                move.w     -[A7], 0xB
00003142  486E FFEA                pea.l      [A6 - 0x16]
00003146  486E FECE                pea.l      [A6 - 0x132]
0000314A  486E FEBE                pea.l      [A6 - 0x142]
0000314E  A98D                     syscall    GetDialogItem/GetDItem
00003150  2F2E FECE                move.l     -[A7], [A6 - 0x132]
00003154  487A 0084                pea.l      [PC + 0x84 /* 000031DA, value 0x2F436C69 '/Cli', pstring "Click on an icon to change its controlling key." */]
00003158  A98F                     syscall    SetDialogItemText/SetIText
0000315A  4207                     clr.b      D7
label0000315C:
0000315C  4A07                     tst.b      D7
0000315E  6756                     beq        +0x58 /* 000031B6 */
00003160  3B44 F860                move.w     [A5 - 0x7A0], D4
00003164  3B45 F862                move.w     [A5 - 0x79E], D5
00003168  3B46 F864                move.w     [A5 - 0x79C], D6
0000316C  3B43 F866                move.w     [A5 - 0x79A], D3
00003170  1B6E FE84 FE79           move.b     [A5 - 0x187], [A6 - 0x17C]
00003176  3F3C 000C                move.w     -[A7], 0xC
0000317A  486E FEB0                pea.l      [A6 - 0x150]
0000317E  486D F88A                pea.l      [A5 - 0x776]
00003182  4EAD 005A                jsr        [A5 + 0x5A /* export_7, CODE:1 @ 0000025C */]
00003186  3F3C 000C                move.w     -[A7], 0xC
0000318A  486E FEA2                pea.l      [A6 - 0x15E]
0000318E  486D F898                pea.l      [A5 - 0x768]
00003192  4EAD 005A                jsr        [A5 + 0x5A /* export_7, CODE:1 @ 0000025C */]
00003196  3F3C 000C                move.w     -[A7], 0xC
0000319A  486E FE94                pea.l      [A6 - 0x16C]
0000319E  486D F8A6                pea.l      [A5 - 0x75A]
000031A2  4EAD 005A                jsr        [A5 + 0x5A /* export_7, CODE:1 @ 0000025C */]
000031A6  3F3C 000C                move.w     -[A7], 0xC
000031AA  486E FE86                pea.l      [A6 - 0x17A]
000031AE  486D F8B4                pea.l      [A5 - 0x74C]
000031B2  4EAD 005A                jsr        [A5 + 0x5A /* export_7, CODE:1 @ 0000025C */]
label000031B6:
000031B6  0C6E 0002 FFE8           cmpi.w     [A6 - 0x18], 0x2
000031BC  6602                     bne        +0x4 /* 000031C0 */
000031BE  7E01                     moveq.l    D7, 0x01
label000031C0:
000031C0  4A07                     tst.b      D7
000031C2  6700 FA52                beq        -0x5AC /* 00002C16 */
000031C6  2F2E FFEC                move.l     -[A7], [A6 - 0x14]
000031CA  A873                     syscall    SetPort
000031CC  2F2E FEC6                move.l     -[A7], [A6 - 0x13A]
000031D0  A983                     syscall    DisposeDialog
000031D2  4CDF 00F8                movem.l    D3,D4,D5,D6,D7, [A7]+
000031D6  4E5E                     unlink     A6
000031D8  4E75                     rts
000031DA  2F43 6C69                move.l     [A7 + 0x6C69], D3
000031DE  636B                     bls        +0x6D /* 0000324B */
000031E0  206F 6E20                movea.l    A0, [A7 + 0x6E20]
000031E4  616E                     bsr        +0x70 /* 00003254 */
000031E6  2069 636F                movea.l    A0, [A1 + 0x636F]
000031EA  6E20                     bgt        +0x22 /* 0000320C */
000031EC  746F                     moveq.l    D2, 0x6F
000031EE  2063                     movea.l    A0, -[A3]
000031F0  6861                     bvc        +0x63 /* 00003253 */
000031F2  6E67                     bgt        +0x69 /* 0000325B */
000031F4  6520                     bcs        +0x22 /* 00003216 */
000031F6  6974                     bvs        +0x76 /* 0000326C */
000031F8  7320                     moveq.l    D1, 0x20
000031FA  636F                     bls        +0x71 /* 0000326B */
000031FC  6E74                     bgt        +0x76 /* 00003272 */
000031FE  726F                     moveq.l    D1, 0x6F
00003200  6C6C                     bge        +0x6E /* 0000326E */
00003202  696E                     bvs        +0x70 /* 00003272 */
00003204  6720                     beq        +0x22 /* 00003226 */
00003206  6B65                     bmi        +0x67 /* 0000326D */
00003208  792E                     moveq.l    D4, 0x2E
0000320A  3859                     movea.w    A4, [A1]+
label0000320C:
0000320C  6F75                     ble        +0x77 /* 00003283 */
0000320E  7220                     moveq.l    D1, 0x20
00003210  456E 6572                chk.w      D2, [A6 + 0x6572]
00003214  6769                     beq        +0x6B /* 0000327F */
label00003216:
00003216  7A65                     moveq.l    D5, 0x65
00003218  204B                     movea.l    A0, A3
0000321A  6579                     bcs        +0x7B /* 00003295 */
0000321C  2068 6173                movea.l    A0, [A0 + 0x6173]
00003220  2062                     movea.l    A0, -[A2]
00003222  6565                     bcs        +0x67 /* 00003289 */
00003224  6E20                     bgt        +0x22 /* 00003246 */
label00003226:
00003226  6173                     bsr        +0x75 /* 0000329B */
00003228  7369                     moveq.l    D1, 0x69
0000322A  676E                     beq        +0x70 /* 0000329A */
0000322C  6564                     bcs        +0x66 /* 00003292 */
0000322E  2074 6F20 616E           movea.l    A0, [A4 + 0x616E + D6 * 8]
00003234  6F74                     ble        +0x76 /* 000032AA */
00003236  6865                     bvc        +0x67 /* 0000329D */
00003238  7220                     moveq.l    D1, 0x20
0000323A  6675                     bne        +0x77 /* 000032B1 */
0000323C  6E63                     bgt        +0x65 /* 000032A1 */
0000323E  7469                     moveq.l    D2, 0x69
00003240  6F6E                     ble        +0x70 /* 000032B0 */
00003242  2E16                     move.l     D7, [A6]
00003244  2F43 6C69                move.l     [A7 + 0x6C69], D3
// begin alternate branch 00003246-00003248
label00003246:
00003246  6C69                     bge        +0x6B /* 000032B1 */
// end alternate branch 00003246-00003248
label00003246: // (misaligned)
00003248  636B                     bls        +0x6D /* 000032B5 */
0000324A  206F 6E20                movea.l    A0, [A7 + 0x6E20]
0000324E  616E                     bsr        +0x70 /* 000032BE */
00003250  2069 636F                movea.l    A0, [A1 + 0x636F]
fn00003254:
00003254  6E20                     bgt        +0x22 /* 00003276 */
00003256  746F                     moveq.l    D2, 0x6F
00003258  2063                     movea.l    A0, -[A3]
0000325A  6861                     bvc        +0x63 /* 000032BD */
0000325C  6E67                     bgt        +0x69 /* 000032C5 */
0000325E  6520                     bcs        +0x22 /* 00003280 */
00003260  6974                     bvs        +0x76 /* 000032D6 */
00003262  7320                     moveq.l    D1, 0x20
00003264  636F                     bls        +0x71 /* 000032D5 */
00003266  6E74                     bgt        +0x76 /* 000032DC */
00003268  726F                     moveq.l    D1, 0x6F
0000326A  6C6C                     bge        +0x6E /* 000032D8 */
label0000326C:
0000326C  696E                     bvs        +0x70 /* 000032DC */
label0000326E:
0000326E  6720                     beq        +0x22 /* 00003290 */
00003270  6B65                     bmi        +0x67 /* 000032D7 */
label00003272:
00003272  792E                     moveq.l    D4, 0x2E
00003274  3559 6F75                move.w     [A2 + 0x6F75], [A1]+
// begin alternate branch 00003276-00003278
label00003276:
00003276  6F75                     ble        +0x77 /* 000032ED */
// end alternate branch 00003276-00003278
label00003276: // (misaligned)
00003278  7220                     moveq.l    D1, 0x20
0000327A  5269 6768                addq.w     [A1 + 0x6768], 1
0000327E  7420                     moveq.l    D2, 0x20
label00003280:
00003280  4B65                     chk.w      D5, -[A5]
00003282  7920                     moveq.l    D4, 0x20
00003284  6861                     bvc        +0x63 /* 000032E7 */
00003286  7320                     moveq.l    D1, 0x20
00003288  6265                     bhi        +0x67 /* 000032EF */
0000328A  656E                     bcs        +0x70 /* 000032FA */
0000328C  2061                     movea.l    A0, -[A1]
0000328E  7373                     moveq.l    D1, 0x73
label00003290:
00003290  6967                     bvs        +0x69 /* 000032F9 */
label00003292:
00003292  6E65                     bgt        +0x67 /* 000032F9 */
00003294  6420                     bcc        +0x22 /* 000032B6 */
00003296  746F                     moveq.l    D2, 0x6F
00003298  2061                     movea.l    A0, -[A1]
label0000329A:
0000329A  6E6F                     bgt        +0x71 /* 0000330B */
0000329C  7468                     moveq.l    D2, 0x68
0000329E  6572                     bcs        +0x74 /* 00003312 */
000032A0  2066                     movea.l    A0, -[A6]
000032A2  756E                     moveq.l    D2, 0x6E
000032A4  6374                     bls        +0x76 /* 0000331A */
000032A6  696F                     bvs        +0x71 /* 00003317 */
000032A8  6E2E                     bgt        +0x30 /* 000032D8 */
label000032AA:
000032AA  2F43 6C69                move.l     [A7 + 0x6C69], D3
000032AE  636B                     bls        +0x6D /* 0000331B */
label000032B0:
000032B0  206F 6E20                movea.l    A0, [A7 + 0x6E20]
000032B4  616E                     bsr        +0x70 /* 00003324 */
label000032B6:
000032B6  2069 636F                movea.l    A0, [A1 + 0x636F]
000032BA  6E20                     bgt        +0x22 /* 000032DC */
000032BC  746F                     moveq.l    D2, 0x6F
fn000032BE:
000032BE  2063                     movea.l    A0, -[A3]
000032C0  6861                     bvc        +0x63 /* 00003323 */
000032C2  6E67                     bgt        +0x69 /* 0000332B */
000032C4  6520                     bcs        +0x22 /* 000032E6 */
000032C6  6974                     bvs        +0x76 /* 0000333C */
000032C8  7320                     moveq.l    D1, 0x20
000032CA  636F                     bls        +0x71 /* 0000333B */
000032CC  6E74                     bgt        +0x76 /* 00003342 */
000032CE  726F                     moveq.l    D1, 0x6F
000032D0  6C6C                     bge        +0x6E /* 0000333E */
000032D2  696E                     bvs        +0x70 /* 00003342 */
000032D4  6720                     beq        +0x22 /* 000032F6 */
label000032D6:
000032D6  6B65                     bmi        +0x67 /* 0000333D */
label000032D8:
000032D8  792E                     moveq.l    D4, 0x2E
000032DA  3459                     movea.w    A2, [A1]+
label000032DC:
000032DC  6F75                     ble        +0x77 /* 00003353 */
000032DE  7220                     moveq.l    D1, 0x20
000032E0  4C65 6674                divul.l    D4:D6, -[A5]
000032E4  204B                     movea.l    A0, A3
label000032E6:
000032E6  6579                     bcs        +0x7B /* 00003361 */
000032E8  2068 6173                movea.l    A0, [A0 + 0x6173]
000032EC  2062                     movea.l    A0, -[A2]
000032EE  6565                     bcs        +0x67 /* 00003355 */
000032F0  6E20                     bgt        +0x22 /* 00003312 */
000032F2  6173                     bsr        +0x75 /* 00003367 */
000032F4  7369                     moveq.l    D1, 0x69
label000032F6:
000032F6  676E                     beq        +0x70 /* 00003366 */
000032F8  6564                     bcs        +0x66 /* 0000335E */
label000032FA:
000032FA  2074 6F20 616E           movea.l    A0, [A4 + 0x616E + D6 * 8]
00003300  6F74                     ble        +0x76 /* 00003376 */
00003302  6865                     bvc        +0x67 /* 00003369 */
00003304  7220                     moveq.l    D1, 0x20
00003306  6675                     bne        +0x77 /* 0000337D */
00003308  6E63                     bgt        +0x65 /* 0000336D */
0000330A  7469                     moveq.l    D2, 0x69
0000330C  6F6E                     ble        +0x70 /* 0000337C */
0000330E  2E16                     move.l     D7, [A6]
00003310  2F43 6C69                move.l     [A7 + 0x6C69], D3
// begin alternate branch 00003312-00003314
label00003312:
00003312  6C69                     bge        +0x6B /* 0000337D */
// end alternate branch 00003312-00003314
label00003312: // (misaligned)
00003314  636B                     bls        +0x6D /* 00003381 */
00003316  206F 6E20                movea.l    A0, [A7 + 0x6E20]
label0000331A:
0000331A  616E                     bsr        +0x70 /* 0000338A */
0000331C  2069 636F                movea.l    A0, [A1 + 0x636F]
00003320  6E20                     bgt        +0x22 /* 00003342 */
00003322  746F                     moveq.l    D2, 0x6F
fn00003324:
00003324  2063                     movea.l    A0, -[A3]
00003326  6861                     bvc        +0x63 /* 00003389 */
00003328  6E67                     bgt        +0x69 /* 00003391 */
0000332A  6520                     bcs        +0x22 /* 0000334C */
0000332C  6974                     bvs        +0x76 /* 000033A2 */
0000332E  7320                     moveq.l    D1, 0x20
00003330  636F                     bls        +0x71 /* 000033A1 */
00003332  6E74                     bgt        +0x76 /* 000033A8 */
00003334  726F                     moveq.l    D1, 0x6F
00003336  6C6C                     bge        +0x6E /* 000033A4 */
00003338  696E                     bvs        +0x70 /* 000033A8 */
0000333A  6720                     beq        +0x22 /* 0000335C */
label0000333C:
0000333C  6B65                     bmi        +0x67 /* 000033A3 */
label0000333E:
0000333E  792E                     moveq.l    D4, 0x2E
00003340  2B54 6865                move.l     [A5 + 0x6865], [A4]
// begin alternate branch 00003342-00003344
label00003342:
00003342  6865                     bvc        +0x67 /* 000033A9 */
// end alternate branch 00003342-00003344
label00003342: // (misaligned)
00003344  2054                     movea.l    A0, [A4]
00003346  4142                     chk.w      D0, D2
00003348  206B 6579                movea.l    A0, [A3 + 0x6579]
label0000334C:
0000334C  2069 7320                movea.l    A0, [A1 + 0x7320]
00003350  7265                     moveq.l    D1, 0x65
00003352  7365                     moveq.l    D1, 0x65
00003354  7276                     moveq.l    D1, 0x76
00003356  6564                     bcs        +0x66 /* 000033BC */
00003358  2066                     movea.l    A0, -[A6]
0000335A  6F72                     ble        +0x74 /* 000033CE */
label0000335C:
0000335C  2070 6175                movea.l    A0, <<invalid full ext with IS == 1 and I/IS == 5>>
// begin alternate branch 0000335E-00003360
label0000335E:
0000335E  6175                     bsr        +0x77 /* 000033D5 */
// end alternate branch 0000335E-00003360
label0000335E: // (misaligned)
00003360  7369                     moveq.l    D1, 0x69
00003362  6E67                     bgt        +0x69 /* 000033CB */
00003364  2047                     movea.l    A0, D7
label00003366:
00003366  6C69                     bge        +0x6B /* 000033D1 */
00003368  6465                     bcc        +0x67 /* 000033CF */
0000336A  722E                     moveq.l    D1, 0x2E
0000336C  3354 6865                move.w     [A1 + 0x6865], [A4]
00003370  206E 6578                movea.l    A0, [A6 + 0x6578]
00003374  7420                     moveq.l    D2, 0x20
label00003376:
00003376  6B65                     bmi        +0x67 /* 000033DD */
00003378  7920                     moveq.l    D4, 0x20
0000337A  796F                     moveq.l    D4, 0x6F
label0000337C:
0000337C  7520                     moveq.l    D2, 0x20
0000337E  7374                     moveq.l    D1, 0x74
00003380  7269                     moveq.l    D1, 0x69
00003382  6B65                     bmi        +0x67 /* 000033E9 */
00003384  2077 696C                movea.l    A0, <<invalid full ext with I/IS == 4>>
00003388  6C20                     bge        +0x22 /* 000033AA */
fn0000338A:
0000338A  636F                     bls        +0x71 /* 000033FB */
0000338C  6E74                     bgt        +0x76 /* 00003402 */
0000338E  726F                     moveq.l    D1, 0x6F
00003390  6C20                     bge        +0x22 /* 000033B2 */
00003392  7468                     moveq.l    D2, 0x68
00003394  6973                     bvs        +0x75 /* 00003409 */
00003396  2066                     movea.l    A0, -[A6]
00003398  756E                     moveq.l    D2, 0x6E
0000339A  6374                     bls        +0x76 /* 00003410 */
0000339C  696F                     bvs        +0x71 /* 0000340D */
0000339E  6E2E                     bgt        +0x30 /* 000033CE */
export_102:
fn000033A0:
000033A0  4E56 FFBC                link       A6, -0x0044
// begin alternate branch 000033A2-000033A4
label000033A2:
000033A2  FFBC                     .invalid   <<F/6/7>>
// end alternate branch 000033A2-000033A4
label000033A2: // (misaligned)
label000033A4:
000033A4  2F07                     move.l     -[A7], D7
000033A6  102D FE7B                move.b     D0, [A5 - 0x185]
// begin alternate branch 000033A8-000033AC
label000033A8:
000033A8  FE7B 5300                .extension 0xE7B <<F/1/7>>, 0x5300 // unimplemented
// end alternate branch 000033A8-000033AC
label000033A8: // (misaligned)
label000033AA:
000033AA  5300                     subq.b     D0, 1
000033AC  6704                     beq        +0x6 /* 000033B2 */
000033AE  4EAD 019A                jsr        [A5 + 0x19A /* export_47, CODE:1 @ 000019FC */]
label000033B2:
000033B2  1B7C 0001 FE7B           move.b     [A5 - 0x185], 0x1
000033B8  4A2D FE8A                tst.b      [A5 - 0x176]
label000033BC:
000033BC  670A                     beq        +0xC /* 000033C8 */
000033BE  3F3C 0004                move.w     -[A7], 0x4
000033C2  4EAD 01AA                jsr        [A5 + 0x1AA /* export_49, CODE:1 @ 00001A20 */]
000033C6  6008                     bra        +0xA /* 000033D0 */
label000033C8:
000033C8  3F3C 0002                move.w     -[A7], 0x2
000033CC  4EAD 01AA                jsr        [A5 + 0x1AA /* export_49, CODE:1 @ 00001A20 */]
// begin alternate branch 000033CE-000033D2
label000033CE:
000033CE  01AA 554F                bclr       [A2 + 0x554F], D0
// end alternate branch 000033CE-000033D2
label000033CE: // (misaligned)
label000033D0:
000033D0  554F                     subq.w     A7, 2
000033D2  4EBA D150                jsr        [PC - 0x2EB0 /* 00000524 */]
000033D6  101F                     move.b     D0, [A7]+
000033D8  5300                     subq.b     D0, 1
000033DA  6600 025A                bne        +0x25C /* 00003636 */
000033DE  3F3C 0020                move.w     -[A7], 0x20 /* ' ' */
000033E2  486D BD86                pea.l      [A5 - 0x427A]
000033E6  486E FFC4                pea.l      [A6 - 0x3C]
000033EA  4EAD 005A                jsr        [A5 + 0x5A /* export_7, CODE:1 @ 0000025C */]
000033EE  486D F986                pea.l      [A5 - 0x67A]
000033F2  486E FFC4                pea.l      [A6 - 0x3C]
000033F6  4EAD 003A                jsr        [A5 + 0x3A /* export_3, CODE:1 @ 00000162 */]
000033FA  56C0                     sne        D0
000033FC  4A2E FFC4                tst.b      [A6 - 0x3C]
00003400  56C1                     sne        D1
label00003402:
00003402  C001                     and.b      D0, D1
00003404  0CAE 036E 696C FFC4      cmpi.l     [A6 - 0x3C], 0x36E696C
0000340C  56C1                     sne        D1
0000340E  C001                     and.b      D0, D1
label00003410:
00003410  6746                     beq        +0x48 /* 00003458 */
00003412  3F3C 001F                move.w     -[A7], 0x1F
00003416  4EAD 01BA                jsr        [A5 + 0x1BA /* export_51, CODE:1 @ 00001AE2 */]
0000341A  3F3C 0020                move.w     -[A7], 0x20 /* ' ' */
0000341E  486E FFC4                pea.l      [A6 - 0x3C]
00003422  486D F986                pea.l      [A5 - 0x67A]
00003426  4EAD 005A                jsr        [A5 + 0x5A /* export_7, CODE:1 @ 0000025C */]
0000342A  554F                     subq.w     A7, 2
0000342C  4EBA CE0A                jsr        [PC - 0x31F6 /* 00000238 */]
00003430  101F                     move.b     D0, [A7]+
00003432  5300                     subq.b     D0, 1
00003434  670C                     beq        +0xE /* 00003442 */
00003436  3F3C 0017                move.w     -[A7], 0x17
0000343A  4EAD 01BA                jsr        [A5 + 0x1BA /* export_51, CODE:1 @ 00001AE2 */]
0000343E  6000 01F6                bra        +0x1F8 /* 00003636 */
label00003442:
00003442  3F2D F878                move.w     -[A7], [A5 - 0x788]
00003446  4EBA D094                jsr        [PC - 0x2F6C /* 000004DC */]
0000344A  422D BD86                clr.b      [A5 - 0x427A]
0000344E  554F                     subq.w     A7, 2
00003450  4EBA D79C                jsr        [PC - 0x2864 /* 00000BEE */]
00003454  101F                     move.b     D0, [A7]+
00003456  5300                     subq.b     D0, 1
label00003458:
00003458  3F3C 0020                move.w     -[A7], 0x20 /* ' ' */
0000345C  486D F986                pea.l      [A5 - 0x67A]
00003460  486D F942                pea.l      [A5 - 0x6BE]
00003464  4EAD 005A                jsr        [A5 + 0x5A /* export_7, CODE:1 @ 0000025C */]
00003468  4EAD 0202                jsr        [A5 + 0x202 /* export_60, CODE:1 @ 000025C4 */]
0000346C  0C6D 017E FF5A           cmpi.w     [A5 - 0xA6], 0x17E
00003472  6F4C                     ble        +0x4E /* 000034C0 */
00003474  2F2D B5FA                move.l     -[A7], [A5 - 0x4A06]
00003478  A873                     syscall    SetPort
0000347A  A89E                     syscall    PenNormal
0000347C  486D B60A                pea.l      [A5 - 0x49F6]
00003480  A87B                     syscall    ClipRect
00003482  486E FFE6                pea.l      [A6 - 0x1A]
00003486  302D F848                move.w     D0, [A5 - 0x7B8]
0000348A  4440                     neg.w      D0
0000348C  3F00                     move.w     -[A7], D0
0000348E  302D F84A                move.w     D0, [A5 - 0x7B6]
00003492  4440                     neg.w      D0
00003494  3F00                     move.w     -[A7], D0
00003496  302D F848                move.w     D0, [A5 - 0x7B8]
0000349A  D040                     add.w      D0, D0
0000349C  0640 0200                addi.w     D0, 0x200
000034A0  3F00                     move.w     -[A7], D0
000034A2  302D F84A                move.w     D0, [A5 - 0x7B6]
000034A6  4440                     neg.w      D0
000034A8  0640 0014                addi.w     D0, 0x14
000034AC  3F00                     move.w     -[A7], D0
000034AE  A8A7                     syscall    SetRect
000034B0  486E FFE6                pea.l      [A6 - 0x1A]
000034B4  486D FFBA                pea.l      [A5 - 0x46]
000034B8  A8A5                     syscall    FillRect
000034BA  486D B602                pea.l      [A5 - 0x49FE]
000034BE  A87B                     syscall    ClipRect
label000034C0:
000034C0  4A2D FE7D                tst.b      [A5 - 0x183]
000034C4  6708                     beq        +0xA /* 000034CE */
000034C6  2F2D B84C                move.l     -[A7], [A5 - 0x47B4]
000034CA  A873                     syscall    SetPort
000034CC  6006                     bra        +0x8 /* 000034D4 */
label000034CE:
000034CE  2F2D B678                move.l     -[A7], [A5 - 0x4988]
000034D2  A873                     syscall    SetPort
label000034D4:
000034D4  422D F846                clr.b      [A5 - 0x7BA]
000034D8  3B7C 0014 F844           move.w     [A5 - 0x7BC], 0x14
000034DE  3B7C 0001 F86A           move.w     [A5 - 0x796], 0x1
000034E4  3B7C 0001 F86C           move.w     [A5 - 0x794], 0x1
000034EA  42AD F830                clr.l      [A5 - 0x7D0]
000034EE  42AD F834                clr.l      [A5 - 0x7CC]
000034F2  42AD F838                clr.l      [A5 - 0x7C8]
000034F6  486D F840                pea.l      [A5 - 0x7C0]
000034FA  4EAD 00BA                jsr        [A5 + 0xBA /* export_19, CODE:1 @ 00000610 */]
000034FE  426D F85E                clr.w      [A5 - 0x7A2]
00003502  42AD F83C                clr.l      [A5 - 0x7C4]
00003506  426D F87E                clr.w      [A5 - 0x782]
0000350A  3B7C 002E F880           move.w     [A5 - 0x780], 0x2E /* '.' */
00003510  7E01                     moveq.l    D7, 0x01
label00003512:
00003512  41ED F65B                lea.l      A0, [A5 - 0x9A5]
00003516  4230 7000                clr.b      [A0 + D7.w]
0000351A  5247                     addq.w     D7, 1
0000351C  0C47 0028                cmpi.w     D7, 0x28 /* '(' */
00003520  6FF0                     ble        -0xE /* 00003512 */
00003522  4A2D FE91                tst.b      [A5 - 0x16F]
00003526  670E                     beq        +0x10 /* 00003536 */
00003528  3B7C 0032 F85A           move.w     [A5 - 0x7A6], 0x32 /* '2' */
0000352E  1B7C 0001 FE83           move.b     [A5 - 0x17D], 0x1
00003534  600A                     bra        +0xC /* 00003540 */
label00003536:
00003536  3B7C 0005 F85A           move.w     [A5 - 0x7A6], 0x5
0000353C  422D FE83                clr.b      [A5 - 0x17D]
label00003540:
00003540  4247                     clr.w      D7
label00003542:
00003542  41ED FE8E                lea.l      A0, [A5 - 0x172]
00003546  4230 7000                clr.b      [A0 + D7.w]
0000354A  5247                     addq.w     D7, 1
0000354C  0C47 0003                cmpi.w     D7, 0x3
00003550  6FF0                     ble        -0xE /* 00003542 */
00003552  1B7C 0001 FE6C           move.b     [A5 - 0x194], 0x1
00003558  1B7C 0001 F65A           move.b     [A5 - 0x9A6], 0x1
0000355E  426D F656                clr.w      [A5 - 0x9AA]
00003562  3B7C 0004 F652           move.w     [A5 - 0x9AE], 0x4
00003568  426D F658                clr.w      [A5 - 0x9A8]
0000356C  4EAD 0282                jsr        [A5 + 0x282 /* export_76, CODE:2 @ 00002BA4 */]
00003570  1B7C 0001 FE7F           move.b     [A5 - 0x181], 0x1
00003576  422D FE80                clr.b      [A5 - 0x180]
0000357A  422D FE6F                clr.b      [A5 - 0x191]
0000357E  422D FE69                clr.b      [A5 - 0x197]
00003582  422D FE70                clr.b      [A5 - 0x190]
00003586  422D FE84                clr.b      [A5 - 0x17C]
0000358A  422D F60E                clr.b      [A5 - 0x9F2]
0000358E  554F                     subq.w     A7, 2
00003590  4EAD 0292                jsr        [A5 + 0x292 /* export_78, CODE:2 @ 00004314 */]
00003594  101F                     move.b     D0, [A7]+
00003596  5300                     subq.b     D0, 1
00003598  6600 009C                bne        +0x9E /* 00003636 */
0000359C  422D F8FE                clr.b      [A5 - 0x702]
000035A0  594F                     subq.w     A7, 4
000035A2  3F3C 0081                move.w     -[A7], 0x81
000035A6  A9BF                     syscall    GetRMenu
000035A8  3F3C 0002                move.w     -[A7], 0x2
000035AC  A93A                     syscall    DisableItem
000035AE  594F                     subq.w     A7, 4
000035B0  3F3C 0081                move.w     -[A7], 0x81
000035B4  A9BF                     syscall    GetRMenu
000035B6  3F3C 0003                move.w     -[A7], 0x3
000035BA  A939                     syscall    EnableItem
000035BC  594F                     subq.w     A7, 4
000035BE  3F3C 0081                move.w     -[A7], 0x81
000035C2  A9BF                     syscall    GetRMenu
000035C4  3F3C 0005                move.w     -[A7], 0x5
000035C8  A93A                     syscall    DisableItem
000035CA  594F                     subq.w     A7, 4
000035CC  3F3C 0081                move.w     -[A7], 0x81
000035D0  A9BF                     syscall    GetRMenu
000035D2  3F3C 0006                move.w     -[A7], 0x6
000035D6  A939                     syscall    EnableItem
000035D8  594F                     subq.w     A7, 4
000035DA  3F3C 0081                move.w     -[A7], 0x81
000035DE  A9BF                     syscall    GetRMenu
000035E0  3F3C 0007                move.w     -[A7], 0x7
000035E4  A939                     syscall    EnableItem
000035E6  594F                     subq.w     A7, 4
000035E8  3F3C 0082                move.w     -[A7], 0x82
000035EC  A9BF                     syscall    GetRMenu
000035EE  3F3C 0006                move.w     -[A7], 0x6
000035F2  A93A                     syscall    DisableItem
000035F4  2F2D B5FA                move.l     -[A7], [A5 - 0x4A06]
000035F8  A873                     syscall    SetPort
000035FA  A89E                     syscall    PenNormal
000035FC  4267                     clr.w      -[A7]
000035FE  A887                     syscall    TextFont
00003600  3F3C 000C                move.w     -[A7], 0xC
00003604  A88A                     syscall    TextSize
00003606  3F3C 0009                move.w     -[A7], 0x9 /* '\t' */
0000360A  A889                     syscall    TextMode
0000360C  4A2D FE7D                tst.b      [A5 - 0x183]
00003610  6708                     beq        +0xA /* 0000361A */
00003612  2F2D B84C                move.l     -[A7], [A5 - 0x47B4]
00003616  A873                     syscall    SetPort
00003618  6006                     bra        +0x8 /* 00003620 */
label0000361A:
0000361A  2F2D B678                move.l     -[A7], [A5 - 0x4988]
0000361E  A873                     syscall    SetPort
label00003620:
00003620  206D B8AE                movea.l    A0, [A5 - 0x4752]
00003624  2F10                     move.l     -[A7], [A0]
00003626  A851                     syscall    SetCursor
00003628  4EAD 01F2                jsr        [A5 + 0x1F2 /* export_58, CODE:1 @ 00001D3E */]
0000362C  3F3C FFFF                move.w     -[A7], 0xFFFF
00003630  4267                     clr.w      -[A7]
00003632  201F                     move.l     D0, [A7]+
00003634  A032                     syscall    FlushEvents
label00003636:
00003636  2E1F                     move.l     D7, [A7]+
00003638  4E5E                     unlink     A6
0000363A  4E75                     rts
fn0000363C:
0000363C  4E56 FFEE                link       A6, -0x0012
00003640  554F                     subq.w     A7, 2
00003642  4267                     clr.w      -[A7]
00003644  4EBA CDD2                jsr        [PC - 0x322E /* 00000418 */]
00003648  4A1F                     tst.b      [A7]+
0000364A  671A                     beq        +0x1C /* 00003666 */
0000364C  554F                     subq.w     A7, 2
0000364E  3F3C 000B                move.w     -[A7], 0xB
00003652  4EAD 01DA                jsr        [A5 + 0x1DA /* export_55, CODE:1 @ 00001C70 */]
00003656  301F                     move.w     D0, [A7]+
00003658  5240                     addq.w     D0, 1
0000365A  3B40 F852                move.w     [A5 - 0x7AE], D0
0000365E  4EAD 0202                jsr        [A5 + 0x202 /* export_60, CODE:1 @ 000025C4 */]
00003662  4EBA FD3C                jsr        [PC - 0x2C4 /* 000033A0 */]
label00003666:
00003666  4E5E                     unlink     A6
00003668  4E75                     rts
fn0000366A:
0000366A  594F                     subq.w     A7, 4
0000366C  3F3C 0081                move.w     -[A7], 0x81
00003670  A9BF                     syscall    GetRMenu
00003672  3F3C 0001                move.w     -[A7], 0x1
00003676  487A 000C                pea.l      [PC + 0xC /* 00003684, value 0xB426567 */]
0000367A  A947                     syscall    SetMenuItemText/SetItem
0000367C  4EAD 02B2                jsr        [A5 + 0x2B2 /* export_82, CODE:2 @ 000056F0 */]
00003680  A937                     syscall    DrawMenuBar
00003682  4E75                     rts
00003684  0B42                     bchg       D2, D5
00003686  6567                     bcs        +0x69 /* 000036EF */
00003688  696E                     bvs        +0x70 /* 000036F8 */
0000368A  2047                     movea.l    A0, D7
0000368C  616D                     bsr        +0x6F /* 000036FB */
0000368E  65C9                     bcs        -0x35 /* 00003659 */
export_103:
fn00003690:
00003690  4E56 FFE0                link       A6, -0x0020
00003694  422E 0008                clr.b      [A6 + 0x8]
00003698  554F                     subq.w     A7, 2
0000369A  4EBA CECE                jsr        [PC - 0x3132 /* 0000056A */]
0000369E  101F                     move.b     D0, [A7]+
000036A0  5300                     subq.b     D0, 1
000036A2  6600 018E                bne        +0x190 /* 00003832 */
000036A6  102D FE7B                move.b     D0, [A5 - 0x185]
000036AA  5300                     subq.b     D0, 1
000036AC  6704                     beq        +0x6 /* 000036B2 */
000036AE  4EAD 019A                jsr        [A5 + 0x19A /* export_47, CODE:1 @ 000019FC */]
label000036B2:
000036B2  1B7C 0001 FE7B           move.b     [A5 - 0x185], 0x1
000036B8  4A2D FE8A                tst.b      [A5 - 0x176]
000036BC  670A                     beq        +0xC /* 000036C8 */
000036BE  3F3C 0004                move.w     -[A7], 0x4
000036C2  4EAD 01AA                jsr        [A5 + 0x1AA /* export_49, CODE:1 @ 00001A20 */]
000036C6  6008                     bra        +0xA /* 000036D0 */
label000036C8:
000036C8  3F3C 0002                move.w     -[A7], 0x2
000036CC  4EAD 01AA                jsr        [A5 + 0x1AA /* export_49, CODE:1 @ 00001A20 */]
label000036D0:
000036D0  554F                     subq.w     A7, 2
000036D2  3F3C 000B                move.w     -[A7], 0xB
000036D6  4EAD 01DA                jsr        [A5 + 0x1DA /* export_55, CODE:1 @ 00001C70 */]
000036DA  301F                     move.w     D0, [A7]+
000036DC  5240                     addq.w     D0, 1
000036DE  3B40 F852                move.w     [A5 - 0x7AE], D0
000036E2  4EAD 0202                jsr        [A5 + 0x202 /* export_60, CODE:1 @ 000025C4 */]
000036E6  0C6D 017E FF5A           cmpi.w     [A5 - 0xA6], 0x17E
000036EC  6F4C                     ble        +0x4E /* 0000373A */
000036EE  2F2D B5FA                move.l     -[A7], [A5 - 0x4A06]
000036F2  A873                     syscall    SetPort
000036F4  A89E                     syscall    PenNormal
000036F6  486D B60A                pea.l      [A5 - 0x49F6]
// begin alternate branch 000036F8-000036FA
label000036F8:
000036F8  B60A                     cmp.b      D3, A2
// end alternate branch 000036F8-000036FA
label000036F8: // (misaligned)
000036FA  A87B                     syscall    ClipRect
000036FC  486E FFE8                pea.l      [A6 - 0x18]
00003700  302D F848                move.w     D0, [A5 - 0x7B8]
00003704  4440                     neg.w      D0
00003706  3F00                     move.w     -[A7], D0
00003708  302D F84A                move.w     D0, [A5 - 0x7B6]
0000370C  4440                     neg.w      D0
0000370E  3F00                     move.w     -[A7], D0
00003710  302D F848                move.w     D0, [A5 - 0x7B8]
00003714  D040                     add.w      D0, D0
00003716  0640 0200                addi.w     D0, 0x200
0000371A  3F00                     move.w     -[A7], D0
0000371C  302D F84A                move.w     D0, [A5 - 0x7B6]
00003720  4440                     neg.w      D0
00003722  0640 0014                addi.w     D0, 0x14
00003726  3F00                     move.w     -[A7], D0
00003728  A8A7                     syscall    SetRect
0000372A  486E FFE8                pea.l      [A6 - 0x18]
0000372E  486D FFBA                pea.l      [A5 - 0x46]
00003732  A8A5                     syscall    FillRect
00003734  486D B602                pea.l      [A5 - 0x49FE]
00003738  A87B                     syscall    ClipRect
label0000373A:
0000373A  4A2D FE7D                tst.b      [A5 - 0x183]
0000373E  6708                     beq        +0xA /* 00003748 */
00003740  2F2D B84C                move.l     -[A7], [A5 - 0x47B4]
00003744  A873                     syscall    SetPort
00003746  6006                     bra        +0x8 /* 0000374E */
label00003748:
00003748  2F2D B678                move.l     -[A7], [A5 - 0x4988]
0000374C  A873                     syscall    SetPort
label0000374E:
0000374E  4EAD 0282                jsr        [A5 + 0x282 /* export_76, CODE:2 @ 00002BA4 */]
00003752  1B7C 0001 FE7F           move.b     [A5 - 0x181], 0x1
00003758  422D FE80                clr.b      [A5 - 0x180]
0000375C  422D FE6F                clr.b      [A5 - 0x191]
00003760  422D FE69                clr.b      [A5 - 0x197]
00003764  422D FE70                clr.b      [A5 - 0x190]
00003768  422D FE84                clr.b      [A5 - 0x17C]
0000376C  1B7C 0001 FE83           move.b     [A5 - 0x17D], 0x1
00003772  422D F60E                clr.b      [A5 - 0x9F2]
00003776  426D F85E                clr.w      [A5 - 0x7A2]
0000377A  42AD F83C                clr.l      [A5 - 0x7C4]
0000377E  426D F87E                clr.w      [A5 - 0x782]
00003782  3B7C 002E F880           move.w     [A5 - 0x780], 0x2E /* '.' */
00003788  554F                     subq.w     A7, 2
0000378A  4EAD 0292                jsr        [A5 + 0x292 /* export_78, CODE:2 @ 00004314 */]
0000378E  101F                     move.b     D0, [A7]+
00003790  5300                     subq.b     D0, 1
00003792  6600 009E                bne        +0xA0 /* 00003832 */
00003796  594F                     subq.w     A7, 4
00003798  3F3C 0081                move.w     -[A7], 0x81
0000379C  A9BF                     syscall    GetRMenu
0000379E  3F3C 0002                move.w     -[A7], 0x2
000037A2  A93A                     syscall    DisableItem
000037A4  594F                     subq.w     A7, 4
000037A6  3F3C 0081                move.w     -[A7], 0x81
000037AA  A9BF                     syscall    GetRMenu
000037AC  3F3C 0003                move.w     -[A7], 0x3
000037B0  A939                     syscall    EnableItem
000037B2  594F                     subq.w     A7, 4
000037B4  3F3C 0081                move.w     -[A7], 0x81
000037B8  A9BF                     syscall    GetRMenu
000037BA  3F3C 0005                move.w     -[A7], 0x5
000037BE  A93A                     syscall    DisableItem
000037C0  594F                     subq.w     A7, 4
000037C2  3F3C 0081                move.w     -[A7], 0x81
000037C6  A9BF                     syscall    GetRMenu
000037C8  3F3C 0006                move.w     -[A7], 0x6
000037CC  A939                     syscall    EnableItem
000037CE  594F                     subq.w     A7, 4
000037D0  3F3C 0081                move.w     -[A7], 0x81
000037D4  A9BF                     syscall    GetRMenu
000037D6  3F3C 0007                move.w     -[A7], 0x7
000037DA  A939                     syscall    EnableItem
000037DC  594F                     subq.w     A7, 4
000037DE  3F3C 0082                move.w     -[A7], 0x82
000037E2  A9BF                     syscall    GetRMenu
000037E4  3F3C 0006                move.w     -[A7], 0x6
000037E8  A93A                     syscall    DisableItem
000037EA  2F2D B5FA                move.l     -[A7], [A5 - 0x4A06]
000037EE  A873                     syscall    SetPort
000037F0  A89E                     syscall    PenNormal
000037F2  4267                     clr.w      -[A7]
000037F4  A887                     syscall    TextFont
000037F6  3F3C 000C                move.w     -[A7], 0xC
000037FA  A88A                     syscall    TextSize
000037FC  3F3C 0009                move.w     -[A7], 0x9 /* '\t' */
00003800  A889                     syscall    TextMode
00003802  4A2D FE7D                tst.b      [A5 - 0x183]
00003806  6708                     beq        +0xA /* 00003810 */
00003808  2F2D B84C                move.l     -[A7], [A5 - 0x47B4]
0000380C  A873                     syscall    SetPort
0000380E  6006                     bra        +0x8 /* 00003816 */
label00003810:
00003810  2F2D B678                move.l     -[A7], [A5 - 0x4988]
00003814  A873                     syscall    SetPort
label00003816:
00003816  206D B8AE                movea.l    A0, [A5 - 0x4752]
0000381A  2F10                     move.l     -[A7], [A0]
0000381C  A851                     syscall    SetCursor
0000381E  4EAD 01F2                jsr        [A5 + 0x1F2 /* export_58, CODE:1 @ 00001D3E */]
00003822  3F3C FFFF                move.w     -[A7], 0xFFFF
00003826  4267                     clr.w      -[A7]
00003828  201F                     move.l     D0, [A7]+
0000382A  A032                     syscall    FlushEvents
0000382C  1D7C 0001 0008           move.b     [A6 + 0x8], 0x1
label00003832:
00003832  4E5E                     unlink     A6
00003834  4E75                     rts
fn00003836:
00003836  4E56 FFE0                link       A6, -0x0020
0000383A  102D FE7B                move.b     D0, [A5 - 0x185]
0000383E  5300                     subq.b     D0, 1
00003840  6704                     beq        +0x6 /* 00003846 */
00003842  4EAD 019A                jsr        [A5 + 0x19A /* export_47, CODE:1 @ 000019FC */]
label00003846:
00003846  1B7C 0001 FE7B           move.b     [A5 - 0x185], 0x1
0000384C  4A2D FE8A                tst.b      [A5 - 0x176]
00003850  670A                     beq        +0xC /* 0000385C */
00003852  3F3C 0004                move.w     -[A7], 0x4
00003856  4EAD 01AA                jsr        [A5 + 0x1AA /* export_49, CODE:1 @ 00001A20 */]
0000385A  6008                     bra        +0xA /* 00003864 */
label0000385C:
0000385C  3F3C 0002                move.w     -[A7], 0x2
00003860  4EAD 01AA                jsr        [A5 + 0x1AA /* export_49, CODE:1 @ 00001A20 */]
label00003864:
00003864  4EAD 0202                jsr        [A5 + 0x202 /* export_60, CODE:1 @ 000025C4 */]
00003868  594F                     subq.w     A7, 4
0000386A  3F3C 0081                move.w     -[A7], 0x81
0000386E  A9BF                     syscall    GetRMenu
00003870  3F3C 0001                move.w     -[A7], 0x1
00003874  487A 00D8                pea.l      [PC + 0xD8 /* 0000394E, value 0xB426567 */]
00003878  A947                     syscall    SetMenuItemText/SetItem
0000387A  206D B8AE                movea.l    A0, [A5 - 0x4752]
0000387E  2F10                     move.l     -[A7], [A0]
00003880  A851                     syscall    SetCursor
00003882  422D FE80                clr.b      [A5 - 0x180]
00003886  0C6D 017E FF5A           cmpi.w     [A5 - 0xA6], 0x17E
0000388C  6C5C                     bge        +0x5E /* 000038EA */
0000388E  2F2D B5FA                move.l     -[A7], [A5 - 0x4A06]
00003892  A873                     syscall    SetPort
00003894  486E FFE8                pea.l      [A6 - 0x18]
00003898  4267                     clr.w      -[A7]
0000389A  4267                     clr.w      -[A7]
0000389C  3F3C 0200                move.w     -[A7], 0x200
000038A0  3F3C 0014                move.w     -[A7], 0x14
000038A4  A8A7                     syscall    SetRect
000038A6  4A2D FE7D                tst.b      [A5 - 0x183]
000038AA  6722                     beq        +0x24 /* 000038CE */
000038AC  206D B84C                movea.l    A0, [A5 - 0x47B4]
000038B0  2068 0002                movea.l    A0, [A0 + 0x2]
000038B4  2F10                     move.l     -[A7], [A0]
000038B6  206D B5FA                movea.l    A0, [A5 - 0x4A06]
000038BA  4868 0002                pea.l      [A0 + 0x2]
000038BE  486E FFE8                pea.l      [A6 - 0x18]
000038C2  486E FFE8                pea.l      [A6 - 0x18]
000038C6  4267                     clr.w      -[A7]
000038C8  42A7                     clr.l      -[A7]
000038CA  A8EC                     syscall    CopyBits
000038CC  6068                     bra        +0x6A /* 00003936 */
label000038CE:
000038CE  486D B63C                pea.l      [A5 - 0x49C4]
000038D2  206D B5FA                movea.l    A0, [A5 - 0x4A06]
000038D6  4868 0002                pea.l      [A0 + 0x2]
000038DA  486E FFE8                pea.l      [A6 - 0x18]
000038DE  486E FFE8                pea.l      [A6 - 0x18]
000038E2  4267                     clr.w      -[A7]
000038E4  42A7                     clr.l      -[A7]
000038E6  A8EC                     syscall    CopyBits
000038E8  604C                     bra        +0x4E /* 00003936 */
label000038EA:
000038EA  2F2D B5FA                move.l     -[A7], [A5 - 0x4A06]
000038EE  A873                     syscall    SetPort
000038F0  A89E                     syscall    PenNormal
000038F2  486D B60A                pea.l      [A5 - 0x49F6]
000038F6  A87B                     syscall    ClipRect
000038F8  486E FFE8                pea.l      [A6 - 0x18]
000038FC  302D F848                move.w     D0, [A5 - 0x7B8]
00003900  4440                     neg.w      D0
00003902  3F00                     move.w     -[A7], D0
00003904  302D F84A                move.w     D0, [A5 - 0x7B6]
00003908  4440                     neg.w      D0
0000390A  3F00                     move.w     -[A7], D0
0000390C  302D F848                move.w     D0, [A5 - 0x7B8]
00003910  D040                     add.w      D0, D0
00003912  0640 0200                addi.w     D0, 0x200
00003916  3F00                     move.w     -[A7], D0
00003918  302D F84A                move.w     D0, [A5 - 0x7B6]
0000391C  4440                     neg.w      D0
0000391E  0640 0014                addi.w     D0, 0x14
00003922  3F00                     move.w     -[A7], D0
00003924  A8A7                     syscall    SetRect
00003926  486E FFE8                pea.l      [A6 - 0x18]
0000392A  486D FFBA                pea.l      [A5 - 0x46]
0000392E  A8A5                     syscall    FillRect
00003930  486D B602                pea.l      [A5 - 0x49FE]
00003934  A87B                     syscall    ClipRect
label00003936:
00003936  4A2D FE7D                tst.b      [A5 - 0x183]
0000393A  6708                     beq        +0xA /* 00003944 */
0000393C  2F2D B84C                move.l     -[A7], [A5 - 0x47B4]
00003940  A873                     syscall    SetPort
00003942  6006                     bra        +0x8 /* 0000394A */
label00003944:
00003944  2F2D B678                move.l     -[A7], [A5 - 0x4988]
00003948  A873                     syscall    SetPort
label0000394A:
0000394A  4E5E                     unlink     A6
0000394C  4E75                     rts
0000394E  0B42                     bchg       D2, D5
00003950  6567                     bcs        +0x69 /* 000039B9 */
00003952  696E                     bvs        +0x70 /* 000039C2 */
00003954  2047                     movea.l    A0, D7
00003956  616D                     bsr        +0x6F /* 000039C5 */
00003958  65C9                     bcs        -0x35 /* 00003923 */
fn0000395A:
0000395A  4E56 FEDC                link       A6, -0x0124
0000395E  48E7 0700                movem.l    -[A7], D5,D6,D7
00003962  3E2E 0008                move.w     D7, [A6 + 0x8]
00003966  302E 000A                move.w     D0, [A6 + 0xA]
0000396A  6000 024E                bra        +0x250 /* 00003BBA */
label0000396E:
0000396E  3007                     move.w     D0, D7
00003970  600C                     bra        +0xE /* 0000397E */
00003972  6000 0264                bra        +0x266 /* 00003BD8 */
label00003976:
00003976  4EBA E4BC                jsr        [PC - 0x1B44 /* 00001E34 */]
0000397A  6000 025C                bra        +0x25E /* 00003BD8 */
label0000397E:
0000397E  6700 0258                beq        +0x25A /* 00003BD8 */
00003982  5340                     subq.w     D0, 1
00003984  67F0                     beq        -0xE /* 00003976 */
00003986  486E FEE4                pea.l      [A6 - 0x11C]
0000398A  A874                     syscall    GetPort
0000398C  594F                     subq.w     A7, 4
0000398E  3F3C 0080                move.w     -[A7], 0x80
00003992  A9BF                     syscall    GetRMenu
00003994  3F07                     move.w     -[A7], D7
00003996  486E FEE8                pea.l      [A6 - 0x118]
0000399A  A946                     syscall    GetMenuItemText/GetItem
0000399C  554F                     subq.w     A7, 2
0000399E  486E FEE8                pea.l      [A6 - 0x118]
000039A2  A9B6                     syscall    OpenDeskAcc
000039A4  3A1F                     move.w     D5, [A7]+
000039A6  2F2E FEE4                move.l     -[A7], [A6 - 0x11C]
000039AA  A873                     syscall    SetPort
000039AC  6000 022A                bra        +0x22C /* 00003BD8 */
label000039B0:
000039B0  3007                     move.w     D0, D7
000039B2  6000 00BE                bra        +0xC0 /* 00003A72 */
000039B6  554F                     subq.w     A7, 2
000039B8  3F3C 000B                move.w     -[A7], 0xB
000039BC  4EAD 01DA                jsr        [A5 + 0x1DA /* export_55, CODE:1 @ 00001C70 */]
000039C0  301F                     move.w     D0, [A7]+
label000039C2:
000039C2  5240                     addq.w     D0, 1
000039C4  3B40 F852                move.w     [A5 - 0x7AE], D0
000039C8  102D FE80                move.b     D0, [A5 - 0x180]
000039CC  C02D FE7F                and.b      D0, [A5 - 0x181]
000039D0  6708                     beq        +0xA /* 000039DA */
000039D2  4EBA FE62                jsr        [PC - 0x19E /* 00003836 */]
000039D6  6000 0200                bra        +0x202 /* 00003BD8 */
label000039DA:
000039DA  4EBA F9C4                jsr        [PC - 0x63C /* 000033A0 */]
000039DE  6000 01F8                bra        +0x1FA /* 00003BD8 */
000039E2  4EBA FC58                jsr        [PC - 0x3A8 /* 0000363C */]
000039E6  6000 01F0                bra        +0x1F2 /* 00003BD8 */
000039EA  4EBA FC7E                jsr        [PC - 0x382 /* 0000366A */]
000039EE  6000 01E8                bra        +0x1EA /* 00003BD8 */
000039F2  554F                     subq.w     A7, 2
000039F4  3F3C 0002                move.w     -[A7], 0x2
000039F8  4EBA CA1E                jsr        [PC - 0x35E2 /* 00000418 */]
000039FC  4A1F                     tst.b      [A7]+
000039FE  6700 01D8                beq        +0x1DA /* 00003BD8 */
00003A02  554F                     subq.w     A7, 2
00003A04  4EBA FC8A                jsr        [PC - 0x376 /* 00003690 */]
00003A08  101F                     move.b     D0, [A7]+
00003A0A  5300                     subq.b     D0, 1
00003A0C  6700 01CA                beq        +0x1CC /* 00003BD8 */
00003A10  6000 01C6                bra        +0x1C8 /* 00003BD8 */
00003A14  554F                     subq.w     A7, 2
00003A16  4EBA D172                jsr        [PC - 0x2E8E /* 00000B8A */]
00003A1A  101F                     move.b     D0, [A7]+
00003A1C  5300                     subq.b     D0, 1
00003A1E  6700 01B8                beq        +0x1BA /* 00003BD8 */
00003A22  6000 01B4                bra        +0x1B6 /* 00003BD8 */
00003A26  554F                     subq.w     A7, 2
00003A28  4EBA D020                jsr        [PC - 0x2FE0 /* 00000A4A */]
00003A2C  101F                     move.b     D0, [A7]+
00003A2E  5300                     subq.b     D0, 1
00003A30  6700 01A6                beq        +0x1A8 /* 00003BD8 */
00003A34  6000 01A2                bra        +0x1A4 /* 00003BD8 */
00003A38  554F                     subq.w     A7, 2
00003A3A  4EAD 02A2                jsr        [A5 + 0x2A2 /* export_80, CODE:2 @ 00004A40 */]
00003A3E  4A1F                     tst.b      [A7]+
00003A40  6712                     beq        +0x14 /* 00003A54 */
00003A42  422D FE7F                clr.b      [A5 - 0x181]
00003A46  422D FE80                clr.b      [A5 - 0x180]
00003A4A  1B7C 0001 FE7C           move.b     [A5 - 0x184], 0x1
00003A50  6000 0186                bra        +0x188 /* 00003BD8 */
label00003A54:
00003A54  554F                     subq.w     A7, 2
00003A56  4EBA D132                jsr        [PC - 0x2ECE /* 00000B8A */]
00003A5A  4A1F                     tst.b      [A7]+
00003A5C  6700 017A                beq        +0x17C /* 00003BD8 */
00003A60  422D FE7F                clr.b      [A5 - 0x181]
00003A64  422D FE80                clr.b      [A5 - 0x180]
00003A68  1B7C 0001 FE7C           move.b     [A5 - 0x184], 0x1
00003A6E  6000 0168                bra        +0x16A /* 00003BD8 */
label00003A72:
00003A72  5340                     subq.w     D0, 1
00003A74  0C40 0009                cmpi.w     D0, 0x9 /* '\t' */
00003A78  641C                     bcc        +0x1E /* 00003A96 */
00003A7A  D040                     add.w      D0, D0
00003A7C  303B 0006                move.w     D0, [PC + D0.w + 0x6]
00003A80  4EFB 0002                jmp        [PC + D0.w + 0x2]
00003A84  FF32                     .extension 0xF32 <<F/4-5/7>> // unimplemented
00003A86  FF5E                     .extension 0xF5E <<F/4-5/7>> // unimplemented
00003A88  FF66                     .extension 0xF66 <<F/4-5/7>> // unimplemented
00003A8A  0012 FF6E                ori.b      [A2], 0x6E /* 'n' */
00003A8E  FF90                     .invalid   <<F/6/7>>
00003A90  FFA2                     .invalid   <<F/6/7>>
00003A92  0012 FFB4                ori.b      [A2], 0xB4
label00003A96:
00003A96  6000 0140                bra        +0x142 /* 00003BD8 */
label00003A9A:
00003A9A  3007                     move.w     D0, D7
00003A9C  6000 00A8                bra        +0xAA /* 00003B46 */
00003AA0  6000 0136                bra        +0x138 /* 00003BD8 */
label00003AA4:
00003AA4  4EBA E5E0                jsr        [PC - 0x1A20 /* 00002086 */]
00003AA8  6000 012E                bra        +0x130 /* 00003BD8 */
label00003AAC:
00003AAC  102D FE6E                move.b     D0, [A5 - 0x192]
00003AB0  5300                     subq.b     D0, 1
00003AB2  4400                     neg.b      D0
00003AB4  1B40 FE6E                move.b     [A5 - 0x192], D0
00003AB8  4A2D FE6E                tst.b      [A5 - 0x192]
00003ABC  6714                     beq        +0x16 /* 00003AD2 */
00003ABE  594F                     subq.w     A7, 4
00003AC0  3F3C 0082                move.w     -[A7], 0x82
00003AC4  A9BF                     syscall    GetRMenu
00003AC6  3F3C 0003                move.w     -[A7], 0x3
00003ACA  487A 0156                pea.l      [PC + 0x156 /* 00003C22, value 0xE416972, pstring "Air is Visible" */]
00003ACE  A947                     syscall    SetMenuItemText/SetItem
00003AD0  6012                     bra        +0x14 /* 00003AE4 */
label00003AD2:
00003AD2  594F                     subq.w     A7, 4
00003AD4  3F3C 0082                move.w     -[A7], 0x82
00003AD8  A9BF                     syscall    GetRMenu
00003ADA  3F3C 0003                move.w     -[A7], 0x3
00003ADE  487A 0130                pea.l      [PC + 0x130 /* 00003C10, value 0x10416972, pstring "Air is Invisible" */]
00003AE2  A947                     syscall    SetMenuItemText/SetItem
label00003AE4:
00003AE4  4A2D FE7F                tst.b      [A5 - 0x181]
00003AE8  6700 00EE                beq        +0xF0 /* 00003BD8 */
00003AEC  3F3C 000B                move.w     -[A7], 0xB
00003AF0  4EAD 01BA                jsr        [A5 + 0x1BA /* export_51, CODE:1 @ 00001AE2 */]
00003AF4  6000 00E2                bra        +0xE4 /* 00003BD8 */
label00003AF8:
00003AF8  102D FE82                move.b     D0, [A5 - 0x17E]
00003AFC  5300                     subq.b     D0, 1
00003AFE  4400                     neg.b      D0
00003B00  1B40 FE82                move.b     [A5 - 0x17E], D0
00003B04  4A2D FE82                tst.b      [A5 - 0x17E]
00003B08  6716                     beq        +0x18 /* 00003B20 */
00003B0A  594F                     subq.w     A7, 4
00003B0C  3F3C 0082                move.w     -[A7], 0x82
00003B10  A9BF                     syscall    GetRMenu
00003B12  3F3C 0004                move.w     -[A7], 0x4
00003B16  487A 00E4                pea.l      [PC + 0xE4 /* 00003BFC, value 0x13446570, pstring "Depth Restore is On" */]
00003B1A  A947                     syscall    SetMenuItemText/SetItem
00003B1C  6000 00BA                bra        +0xBC /* 00003BD8 */
label00003B20:
00003B20  594F                     subq.w     A7, 4
00003B22  3F3C 0082                move.w     -[A7], 0x82
00003B26  A9BF                     syscall    GetRMenu
00003B28  3F3C 0004                move.w     -[A7], 0x4
00003B2C  487A 00B8                pea.l      [PC + 0xB8 /* 00003BE6, value 0x14446570, pstring "Depth Restore is Off" */]
00003B30  A947                     syscall    SetMenuItemText/SetItem
00003B32  6000 00A4                bra        +0xA6 /* 00003BD8 */
label00003B36:
00003B36  4EAD 01FA                jsr        [A5 + 0x1FA /* export_59, CODE:1 @ 00001E74 */]
00003B3A  6000 009C                bra        +0x9E /* 00003BD8 */
label00003B3E:
00003B3E  4EBA DAA2                jsr        [PC - 0x255E /* 000015E2 */]
00003B42  6000 0094                bra        +0x96 /* 00003BD8 */
label00003B46:
00003B46  5340                     subq.w     D0, 1
00003B48  6700 008E                beq        +0x90 /* 00003BD8 */
00003B4C  5340                     subq.w     D0, 1
00003B4E  6700 FF54                beq        -0xAA /* 00003AA4 */
00003B52  5340                     subq.w     D0, 1
00003B54  6700 FF56                beq        -0xA8 /* 00003AAC */
00003B58  5340                     subq.w     D0, 1
00003B5A  679C                     beq        -0x62 /* 00003AF8 */
00003B5C  5540                     subq.w     D0, 2
00003B5E  67D6                     beq        -0x28 /* 00003B36 */
00003B60  5540                     subq.w     D0, 2
00003B62  67DA                     beq        -0x24 /* 00003B3E */
00003B64  6000 0072                bra        +0x74 /* 00003BD8 */
label00003B68:
00003B68  3007                     move.w     D0, D7
00003B6A  6034                     bra        +0x36 /* 00003BA0 */
label00003B6C:
00003B6C  7C01                     moveq.l    D6, 0x01
label00003B6E:
00003B6E  594F                     subq.w     A7, 4
00003B70  3F3C 0083                move.w     -[A7], 0x83
00003B74  A9BF                     syscall    GetRMenu
00003B76  3F06                     move.w     -[A7], D6
00003B78  4227                     clr.b      -[A7]
00003B7A  A945                     syscall    CheckItem
00003B7C  5246                     addq.w     D6, 1
00003B7E  0C46 0004                cmpi.w     D6, 0x4
00003B82  6FEA                     ble        -0x14 /* 00003B6E */
00003B84  594F                     subq.w     A7, 4
00003B86  3F3C 0083                move.w     -[A7], 0x83
00003B8A  A9BF                     syscall    GetRMenu
00003B8C  3F07                     move.w     -[A7], D7
00003B8E  1F3C 0001                move.b     -[A7], 0x1
00003B92  A945                     syscall    CheckItem
00003B94  3B47 F850                move.w     [A5 - 0x7B0], D7
00003B98  603E                     bra        +0x40 /* 00003BD8 */
label00003B9A:
00003B9A  4EBA EEC2                jsr        [PC - 0x113E /* 00002A5E */]
00003B9E  6038                     bra        +0x3A /* 00003BD8 */
label00003BA0:
00003BA0  5340                     subq.w     D0, 1
00003BA2  6B34                     bmi        +0x36 /* 00003BD8 */
00003BA4  5740                     subq.w     D0, 3
00003BA6  6FC4                     ble        -0x3A /* 00003B6C */
00003BA8  5540                     subq.w     D0, 2
00003BAA  67EE                     beq        -0x10 /* 00003B9A */
00003BAC  602A                     bra        +0x2C /* 00003BD8 */
label00003BAE:
00003BAE  BE6D F888                cmp.w      D7, [A5 - 0x778]
00003BB2  6624                     bne        +0x26 /* 00003BD8 */
00003BB4  4EBA DA2C                jsr        [PC - 0x25D4 /* 000015E2 */]
00003BB8  601E                     bra        +0x20 /* 00003BD8 */
label00003BBA:
00003BBA  0640 406A                addi.w     D0, 0x406A /* '@j' */
00003BBE  67EE                     beq        -0x10 /* 00003BAE */
00003BC0  0640 BF16                addi.w     D0, 0xBF16
00003BC4  6700 FDA8                beq        -0x256 /* 0000396E */
00003BC8  5340                     subq.w     D0, 1
00003BCA  6700 FDE4                beq        -0x21A /* 000039B0 */
00003BCE  5340                     subq.w     D0, 1
00003BD0  6700 FEC8                beq        -0x136 /* 00003A9A */
00003BD4  5340                     subq.w     D0, 1
00003BD6  6790                     beq        -0x6E /* 00003B68 */
label00003BD8:
00003BD8  4267                     clr.w      -[A7]
00003BDA  A938                     syscall    HiliteMenu
00003BDC  4CDF 00E0                movem.l    D5,D6,D7, [A7]+
00003BE0  4E5E                     unlink     A6
00003BE2  2E9F                     move.l     [A7], [A7]+
00003BE4  4E75                     rts
00003BE6  1444                     movea.b    A2, D4
00003BE8  6570                     bcs        +0x72 /* 00003C5A */
00003BEA  7468                     moveq.l    D2, 0x68
00003BEC  2052                     movea.l    A0, [A2]
00003BEE  6573                     bcs        +0x75 /* 00003C63 */
00003BF0  746F                     moveq.l    D2, 0x6F
00003BF2  7265                     moveq.l    D1, 0x65
00003BF4  2069 7320                movea.l    A0, [A1 + 0x7320]
00003BF8  4F66                     chk.w      D7, -[A6]
00003BFA  6616                     bne        +0x18 /* 00003C12 */
00003BFC  1344 6570                move.b     [A1 + 0x6570], D4
00003C00  7468                     moveq.l    D2, 0x68
00003C02  2052                     movea.l    A0, [A2]
00003C04  6573                     bcs        +0x75 /* 00003C79 */
00003C06  746F                     moveq.l    D2, 0x6F
00003C08  7265                     moveq.l    D1, 0x65
00003C0A  2069 7320                movea.l    A0, [A1 + 0x7320]
00003C0E  4F6E 1041                chk.w      D7, [A6 + 0x1041]
label00003C12:
00003C12  6972                     bvs        +0x74 /* 00003C86 */
00003C14  2069 7320                movea.l    A0, [A1 + 0x7320]
00003C18  496E 7669                chk.w      D4, [A6 + 0x7669]
00003C1C  7369                     moveq.l    D1, 0x69
00003C1E  626C                     bhi        +0x6E /* 00003C8C */
00003C20  6516                     bcs        +0x18 /* 00003C38 */
00003C22  0E41 6972                .invalid.w D1, 0x6972 /* 'ir' */ // invalid immediate operation
00003C26  2069 7320                movea.l    A0, [A1 + 0x7320]
00003C2A  5669 7369                addq.w     [A1 + 0x7369], 3
00003C2E  626C                     bhi        +0x6E /* 00003C9C */
00003C30  6516                     bcs        +0x18 /* 00003C48 */
export_104:
00003C32  4E56 FFE2                link       A6, -0x001E
00003C36  48E7 0F00                movem.l    -[A7], D4,D5,D6,D7
// begin alternate branch 00003C38-00003C3A
label00003C38:
00003C38  0F00                     btst       D0, D7
// end alternate branch 00003C38-00003C3A
label00003C38: // (misaligned)
00003C3A  554F                     subq.w     A7, 2
00003C3C  2F2D B5F4                move.l     -[A7], [A5 - 0x4A0C]
00003C40  486E FFEC                pea.l      [A6 - 0x14]
00003C44  A92C                     syscall    FindWindow
00003C46  3C1F                     move.w     D6, [A7]+
label00003C48:
00003C48  4A6D F852                tst.w      [A5 - 0x7AE]
00003C4C  6606                     bne        +0x8 /* 00003C54 */
00003C4E  4EBA D11E                jsr        [PC - 0x2EE2 /* 00000D6E */]
00003C52  6040                     bra        +0x42 /* 00003C94 */
label00003C54:
00003C54  0C6D 0063 F852           cmpi.w     [A5 - 0x7AE], 0x63 /* 'c' */
label00003C5A:
00003C5A  6606                     bne        +0x8 /* 00003C62 */
00003C5C  4EBA D95C                jsr        [PC - 0x26A4 /* 000015BA */]
00003C60  6032                     bra        +0x34 /* 00003C94 */
label00003C62:
00003C62  3006                     move.w     D0, D6
00003C64  6026                     bra        +0x28 /* 00003C8C */
label00003C66:
00003C66  594F                     subq.w     A7, 4
00003C68  2F2D B5F4                move.l     -[A7], [A5 - 0x4A0C]
00003C6C  A93D                     syscall    MenuSelect
00003C6E  2E1F                     move.l     D7, [A7]+
00003C70  2807                     move.l     D4, D7
00003C72  4844                     swap.w     D4
00003C74  3A07                     move.w     D5, D7
00003C76  3F04                     move.w     -[A7], D4
00003C78  3F05                     move.w     -[A7], D5
00003C7A  4EBA FCDE                jsr        [PC - 0x322 /* 0000395A */]
00003C7E  6014                     bra        +0x16 /* 00003C94 */
label00003C80:
00003C80  486D B5EA                pea.l      [A5 - 0x4A16]
00003C84  2F2E FFEC                move.l     -[A7], [A6 - 0x14]
// begin alternate branch 00003C86-00003C88
label00003C86:
00003C86  FFEC                     .invalid   <<F/7/7>>
// end alternate branch 00003C86-00003C88
label00003C86: // (misaligned)
00003C88  A9B3                     syscall    SystemClick
00003C8A  6008                     bra        +0xA /* 00003C94 */
label00003C8C:
00003C8C  5340                     subq.w     D0, 1
00003C8E  67D6                     beq        -0x28 /* 00003C66 */
00003C90  5340                     subq.w     D0, 1
00003C92  67EC                     beq        -0x12 /* 00003C80 */
label00003C94:
00003C94  4CDF 00F0                movem.l    D4,D5,D6,D7, [A7]+
00003C98  4E5E                     unlink     A6
00003C9A  4E75                     rts
export_105:
label00003C9C:
00003C9C  4E56 FFE6                link       A6, -0x001A
00003CA0  48E7 0F00                movem.l    -[A7], D4,D5,D6,D7
00003CA4  2E2D B5EC                move.l     D7, [A5 - 0x4A14]
00003CA8  0287 0000 00FF           andi.l     D7, 0xFF
00003CAE  302D B5F8                move.w     D0, [A5 - 0x4A08]
00003CB2  48C0                     ext.l      D0
00003CB4  81FC 0100                divs.w     D0, 0x100
00003CB8  0240 0001                andi.w     D0, 0x1
00003CBC  6720                     beq        +0x22 /* 00003CDE */
00003CBE  594F                     subq.w     A7, 4
00003CC0  3F07                     move.w     -[A7], D7
00003CC2  A93E                     syscall    MenuKey
00003CC4  2C1F                     move.l     D6, [A7]+
00003CC6  2A06                     move.l     D5, D6
00003CC8  4845                     swap.w     D5
00003CCA  3806                     move.w     D4, D6
00003CCC  4A45                     tst.w      D5
00003CCE  6700 00F4                beq        +0xF6 /* 00003DC4 */
00003CD2  3F05                     move.w     -[A7], D5
00003CD4  3F04                     move.w     -[A7], D4
00003CD6  4EBA FC82                jsr        [PC - 0x37E /* 0000395A */]
00003CDA  6000 00E8                bra        +0xEA /* 00003DC4 */
label00003CDE:
00003CDE  0C47 0020                cmpi.w     D7, 0x20 /* ' ' */
00003CE2  57C0                     seq        D0
00003CE4  4A6D F852                tst.w      [A5 - 0x7AE]
00003CE8  56C1                     sne        D1
00003CEA  C001                     and.b      D0, D1
00003CEC  6730                     beq        +0x32 /* 00003D1E */
00003CEE  0C6D 0063 F852           cmpi.w     [A5 - 0x7AE], 0x63 /* 'c' */
00003CF4  6606                     bne        +0x8 /* 00003CFC */
00003CF6  4EBA D8C2                jsr        [PC - 0x273E /* 000015BA */]
00003CFA  6022                     bra        +0x24 /* 00003D1E */
label00003CFC:
00003CFC  302D F852                move.w     D0, [A5 - 0x7AE]
00003D00  5240                     addq.w     D0, 1
00003D02  3B40 F852                move.w     [A5 - 0x7AE], D0
00003D06  0C6D 000B F852           cmpi.w     [A5 - 0x7AE], 0xB
00003D0C  6F06                     ble        +0x8 /* 00003D14 */
00003D0E  3B7C 0001 F852           move.w     [A5 - 0x7AE], 0x1
label00003D14:
00003D14  426D F854                clr.w      [A5 - 0x7AC]
00003D18  4227                     clr.b      -[A7]
00003D1A  4EBA D15E                jsr        [PC - 0x2EA2 /* 00000E7A */]
label00003D1E:
00003D1E  0C47 000D                cmpi.w     D7, 0xD /* '\r' */
00003D22  6618                     bne        +0x1A /* 00003D3C */
00003D24  0C6D 0063 F852           cmpi.w     [A5 - 0x7AE], 0x63 /* 'c' */
00003D2A  6606                     bne        +0x8 /* 00003D32 */
00003D2C  4EBA D7CA                jsr        [PC - 0x2836 /* 000014F8 */]
00003D30  600A                     bra        +0xC /* 00003D3C */
label00003D32:
00003D32  4A6D F852                tst.w      [A5 - 0x7AE]
00003D36  6604                     bne        +0x6 /* 00003D3C */
00003D38  4EBA D034                jsr        [PC - 0x2FCC /* 00000D6E */]
label00003D3C:
00003D3C  0C47 0009                cmpi.w     D7, 0x9 /* '\t' */
00003D40  57C0                     seq        D0
00003D42  C02D FE7F                and.b      D0, [A5 - 0x181]
00003D46  C02D FE80                and.b      D0, [A5 - 0x180]
00003D4A  6730                     beq        +0x32 /* 00003D7C */
00003D4C  554F                     subq.w     A7, 2
00003D4E  3F3C 000B                move.w     -[A7], 0xB
00003D52  4EAD 01DA                jsr        [A5 + 0x1DA /* export_55, CODE:1 @ 00001C70 */]
00003D56  301F                     move.w     D0, [A7]+
00003D58  5240                     addq.w     D0, 1
00003D5A  3B40 F852                move.w     [A5 - 0x7AE], D0
00003D5E  4EAD 0202                jsr        [A5 + 0x202 /* export_60, CODE:1 @ 000025C4 */]
00003D62  4EBA FAD2                jsr        [PC - 0x52E /* 00003836 */]
label00003D66:
00003D66  486D EEB8                pea.l      [A5 - 0x1148]
00003D6A  A976                     syscall    GetKeys
00003D6C  7030                     moveq.l    D0, 0x30
00003D6E  3200                     move.w     D1, D0
00003D70  E649                     lsr        D1.w, 3
00003D72  0641 EEB8                addi.w     D1, 0xEEB8
00003D76  0135 1000                btst       [A5 + D1.w], D0
00003D7A  66EA                     bne        -0x14 /* 00003D66 */
label00003D7C:
00003D7C  0C47 004F                cmpi.w     D7, 0x4F /* 'O' */
00003D80  6606                     bne        +0x8 /* 00003D88 */
00003D82  1B7C 0001 FE8E           move.b     [A5 - 0x172], 0x1
label00003D88:
00003D88  0C47 007A                cmpi.w     D7, 0x7A /* 'z' */
00003D8C  57C0                     seq        D0
00003D8E  C02D FE8E                and.b      D0, [A5 - 0x172]
00003D92  6706                     beq        +0x8 /* 00003D9A */
00003D94  1B7C 0001 FE8F           move.b     [A5 - 0x171], 0x1
label00003D9A:
00003D9A  0C47 006D                cmpi.w     D7, 0x6D /* 'm' */
00003D9E  57C0                     seq        D0
00003DA0  C02D FE8F                and.b      D0, [A5 - 0x171]
00003DA4  6706                     beq        +0x8 /* 00003DAC */
00003DA6  1B7C 0001 FE90           move.b     [A5 - 0x170], 0x1
label00003DAC:
00003DAC  0C47 0061                cmpi.w     D7, 0x61 /* 'a' */
00003DB0  57C0                     seq        D0
00003DB2  C02D FE90                and.b      D0, [A5 - 0x170]
00003DB6  670C                     beq        +0xE /* 00003DC4 */
00003DB8  1B7C 0001 FE91           move.b     [A5 - 0x16F], 0x1
00003DBE  1B7C 0001 FE83           move.b     [A5 - 0x17D], 0x1
label00003DC4:
00003DC4  4CDF 00F0                movem.l    D4,D5,D6,D7, [A7]+
00003DC8  4E5E                     unlink     A6
00003DCA  4E75                     rts
export_106:
00003DCC  4E56 FFEC                link       A6, -0x0014
00003DD0  4A6D B5EC                tst.w      [A5 - 0x4A14]
00003DD4  672C                     beq        +0x2E /* 00003E02 */
00003DD6  486E FFEC                pea.l      [A6 - 0x14]
00003DDA  302D F848                move.w     D0, [A5 - 0x7B8]
00003DDE  0640 0055                addi.w     D0, 0x55 /* 'U' */
00003DE2  3F00                     move.w     -[A7], D0
00003DE4  302D F84A                move.w     D0, [A5 - 0x7B6]
00003DE8  0640 0032                addi.w     D0, 0x32 /* '2' */
00003DEC  3F00                     move.w     -[A7], D0
00003DEE  A880                     syscall    SetPt
00003DF0  554F                     subq.w     A7, 2
00003DF2  2F2E FFEC                move.l     -[A7], [A6 - 0x14]
00003DF6  2F2D B5EC                move.l     -[A7], [A5 - 0x4A14]
00003DFA  4EAD 018A                jsr        [A5 + 0x18A /* export_45, CODE:1 @ 00000B40 */]
00003DFE  3B5F EEC8                move.w     [A5 - 0x1138], [A7]+
label00003E02:
00003E02  4E5E                     unlink     A6
00003E04  4E75                     rts
export_107:
00003E06  202D B5EC                move.l     D0, [A5 - 0x4A14]
00003E0A  7218                     moveq.l    D1, 0x18
00003E0C  E2A8                     lsr        D0, D1
00003E0E  6054                     bra        +0x56 /* 00003E64 */
label00003E10:
00003E10  7001                     moveq.l    D0, 0x01
00003E12  C0AD B5EC                and.l      D0, [A5 - 0x4A14]
00003E16  5380                     subq.l     D0, 1
00003E18  6630                     bne        +0x32 /* 00003E4A */
00003E1A  422D FE7E                clr.b      [A5 - 0x182]
00003E1E  102D FE7B                move.b     D0, [A5 - 0x185]
00003E22  5300                     subq.b     D0, 1
00003E24  6704                     beq        +0x6 /* 00003E2A */
00003E26  4EAD 019A                jsr        [A5 + 0x19A /* export_47, CODE:1 @ 000019FC */]
label00003E2A:
00003E2A  1B7C 0001 FE7B           move.b     [A5 - 0x185], 0x1
00003E30  4A2D FE8A                tst.b      [A5 - 0x176]
00003E34  670A                     beq        +0xC /* 00003E40 */
00003E36  3F3C 0004                move.w     -[A7], 0x4
00003E3A  4EAD 01AA                jsr        [A5 + 0x1AA /* export_49, CODE:1 @ 00001A20 */]
00003E3E  6028                     bra        +0x2A /* 00003E68 */
label00003E40:
00003E40  3F3C 0002                move.w     -[A7], 0x2
00003E44  4EAD 01AA                jsr        [A5 + 0x1AA /* export_49, CODE:1 @ 00001A20 */]
00003E48  601E                     bra        +0x20 /* 00003E68 */
label00003E4A:
00003E4A  4A2D FE7B                tst.b      [A5 - 0x185]
00003E4E  6704                     beq        +0x6 /* 00003E54 */
00003E50  4EAD 01A2                jsr        [A5 + 0x1A2 /* export_48, CODE:1 @ 00001A0E */]
label00003E54:
00003E54  422D FE7B                clr.b      [A5 - 0x185]
00003E58  1B7C 0001 FE7E           move.b     [A5 - 0x182], 0x1
00003E5E  4EAD 020A                jsr        [A5 + 0x20A /* export_61, CODE:1 @ 0000261A */]
00003E62  6004                     bra        +0x6 /* 00003E68 */
label00003E64:
00003E64  5380                     subq.l     D0, 1
00003E66  67A8                     beq        -0x56 /* 00003E10 */
label00003E68:
00003E68  4E75                     rts
