# export_0 => 00000016
# export_1 => 0000001A
# export_2 => 0000001E
# export_3 => 00000022
# export_4 => 00000026
# export_5 => 0000002A
# export_6 => (not set)
# export_7 => (not set)
# export_8 => (not set)
export_0:
00000016  4EFA 084A                jmp        [PC + 0x84A /* 00000862 */]
export_1:
0000001A  4EFA 060C                jmp        [PC + 0x60C /* 00000628 */]
export_2:
0000001E  4EFA 180A                jmp        [PC + 0x180A /* 0000182A */]
export_3:
00000022  4EFA 1B88                jmp        [PC + 0x1B88 /* 00001BAC */]
export_4:
00000026  4EFA 196A                jmp        [PC + 0x196A /* 00001992 */]
export_5:
0000002A  4EFA 23BA                jmp        [PC + 0x23BA /* 000023E6 */]
fn0000002E:
0000002E  4E56 FF00                link       A6, -0x0100
00000032  41FA FFCC                lea.l      A0, [PC - 0x34 /* 00000000 */]
00000036  A128                     syscall    RecoverHandle, flags=1
00000038  2F08                     move.l     -[A7], A0
0000003A  486E 0008                pea.l      [A6 + 0x8]
0000003E  486E FF00                pea.l      [A6 - 0x100]
00000042  2F17                     move.l     -[A7], [A7]
00000044  A9A8                     syscall    GetResInfo
00000046  4E5E                     unlink     A6
00000048  4E75                     rts
0000004A  4EBA 0196                jsr        [PC + 0x196 /* 000001E2 */]
fn0000004E:
0000004E  4EBA 0192                jsr        [PC + 0x192 /* 000001E2 */]
fn00000052:
00000052  4EBA 018E                jsr        [PC + 0x18E /* 000001E2 */]
fn00000056:
00000056  4EBA 018A                jsr        [PC + 0x18A /* 000001E2 */]
fn0000005A:
0000005A  4EBA 0186                jsr        [PC + 0x186 /* 000001E2 */]
fn0000005E:
0000005E  4EBA 0182                jsr        [PC + 0x182 /* 000001E2 */]
fn00000062:
00000062  4EBA 017E                jsr        [PC + 0x17E /* 000001E2 */]
00000066  4EBA 017A                jsr        [PC + 0x17A /* 000001E2 */]
fn0000006A:
0000006A  4EBA 0176                jsr        [PC + 0x176 /* 000001E2 */]
fn0000006E:
0000006E  4EBA 0172                jsr        [PC + 0x172 /* 000001E2 */]
00000072  4EBA 016E                jsr        [PC + 0x16E /* 000001E2 */]
00000076  4EBA 016A                jsr        [PC + 0x16A /* 000001E2 */]
0000007A  4EBA 0166                jsr        [PC + 0x166 /* 000001E2 */]
0000007E  4EBA 0162                jsr        [PC + 0x162 /* 000001E2 */]
00000082  4EBA 015E                jsr        [PC + 0x15E /* 000001E2 */]
00000086  4EBA 015A                jsr        [PC + 0x15A /* 000001E2 */]
0000008A  4EBA 0156                jsr        [PC + 0x156 /* 000001E2 */]
0000008E  4EBA 0152                jsr        [PC + 0x152 /* 000001E2 */]
00000092  4EBA 014E                jsr        [PC + 0x14E /* 000001E2 */]
fn00000096:
00000096  4EBA 014A                jsr        [PC + 0x14A /* 000001E2 */]
fn0000009A:
0000009A  4EBA 0146                jsr        [PC + 0x146 /* 000001E2 */]
0000009E  4EBA 0142                jsr        [PC + 0x142 /* 000001E2 */]
000000A2  4EBA 013E                jsr        [PC + 0x13E /* 000001E2 */]
fn000000A6:
000000A6  4EBA 013A                jsr        [PC + 0x13A /* 000001E2 */]
fn000000AA:
000000AA  4EBA 0136                jsr        [PC + 0x136 /* 000001E2 */]
fn000000AE:
000000AE  4EBA 0132                jsr        [PC + 0x132 /* 000001E2 */]
000000B2  4EBA 012E                jsr        [PC + 0x12E /* 000001E2 */]
000000B6  4EBA 012A                jsr        [PC + 0x12A /* 000001E2 */]
fn000000BA:
000000BA  4EBA 0126                jsr        [PC + 0x126 /* 000001E2 */]
fn000000BE:
000000BE  4EBA 0122                jsr        [PC + 0x122 /* 000001E2 */]
000000C2  4EBA 011E                jsr        [PC + 0x11E /* 000001E2 */]
000000C6  4EBA 011A                jsr        [PC + 0x11A /* 000001E2 */]
000000CA  4EBA 0116                jsr        [PC + 0x116 /* 000001E2 */]
000000CE  4EBA 0112                jsr        [PC + 0x112 /* 000001E2 */]
000000D2  4EBA 010E                jsr        [PC + 0x10E /* 000001E2 */]
fn000000D6:
000000D6  4EBA 010A                jsr        [PC + 0x10A /* 000001E2 */]
000000DA  4EBA 0106                jsr        [PC + 0x106 /* 000001E2 */]
fn000000DE:
000000DE  4EBA 0102                jsr        [PC + 0x102 /* 000001E2 */]
fn000000E2:
000000E2  4EBA 00FE                jsr        [PC + 0xFE /* 000001E2 */]
fn000000E6:
000000E6  4EBA 00FA                jsr        [PC + 0xFA /* 000001E2 */]
fn000000EA:
000000EA  4EBA 00F6                jsr        [PC + 0xF6 /* 000001E2 */]
fn000000EE:
000000EE  4EBA 00F2                jsr        [PC + 0xF2 /* 000001E2 */]
fn000000F2:
000000F2  4EBA 00EE                jsr        [PC + 0xEE /* 000001E2 */]
fn000000F6:
000000F6  4EBA 00EA                jsr        [PC + 0xEA /* 000001E2 */]
fn000000FA:
000000FA  4EBA 00E6                jsr        [PC + 0xE6 /* 000001E2 */]
fn000000FE:
000000FE  4EBA 00E2                jsr        [PC + 0xE2 /* 000001E2 */]
fn00000102:
00000102  4EBA 00DE                jsr        [PC + 0xDE /* 000001E2 */]
fn00000106:
00000106  4EBA 00DA                jsr        [PC + 0xDA /* 000001E2 */]
fn0000010A:
0000010A  4EBA 00D6                jsr        [PC + 0xD6 /* 000001E2 */]
fn0000010E:
0000010E  4EBA 00D2                jsr        [PC + 0xD2 /* 000001E2 */]
fn00000112:
00000112  4EBA 00CE                jsr        [PC + 0xCE /* 000001E2 */]
00000116  4EBA 00CA                jsr        [PC + 0xCA /* 000001E2 */]
0000011A  4EBA 00C6                jsr        [PC + 0xC6 /* 000001E2 */]
0000011E  4EBA 00C2                jsr        [PC + 0xC2 /* 000001E2 */]
00000122  4EBA 00BE                jsr        [PC + 0xBE /* 000001E2 */]
fn00000126:
00000126  4EBA 00BA                jsr        [PC + 0xBA /* 000001E2 */]
fn0000012A:
0000012A  4EBA 00B6                jsr        [PC + 0xB6 /* 000001E2 */]
fn0000012E:
0000012E  4EBA 00B2                jsr        [PC + 0xB2 /* 000001E2 */]
00000132  4EBA 00AE                jsr        [PC + 0xAE /* 000001E2 */]
fn00000136:
00000136  4EBA 00AA                jsr        [PC + 0xAA /* 000001E2 */]
0000013A  4EBA 00A6                jsr        [PC + 0xA6 /* 000001E2 */]
0000013E  4EBA 00A2                jsr        [PC + 0xA2 /* 000001E2 */]
fn00000142:
00000142  4EBA 009E                jsr        [PC + 0x9E /* 000001E2 */]
00000146  4EBA 009A                jsr        [PC + 0x9A /* 000001E2 */]
fn0000014A:
0000014A  4EBA 0096                jsr        [PC + 0x96 /* 000001E2 */]
0000014E  4EBA 0092                jsr        [PC + 0x92 /* 000001E2 */]
00000152  4EBA 008E                jsr        [PC + 0x8E /* 000001E2 */]
00000156  4EBA 008A                jsr        [PC + 0x8A /* 000001E2 */]
0000015A  4EBA 0086                jsr        [PC + 0x86 /* 000001E2 */]
fn0000015E:
0000015E  4EBA 0082                jsr        [PC + 0x82 /* 000001E2 */]
00000162  4EBA 007E                jsr        [PC + 0x7E /* 000001E2 */]
fn00000166:
00000166  4EBA 007A                jsr        [PC + 0x7A /* 000001E2 */]
fn0000016A:
0000016A  4EBA 0076                jsr        [PC + 0x76 /* 000001E2 */]
fn0000016E:
0000016E  4EBA 0072                jsr        [PC + 0x72 /* 000001E2 */]
00000172  4EBA 006E                jsr        [PC + 0x6E /* 000001E2 */]
fn00000176:
00000176  4EBA 006A                jsr        [PC + 0x6A /* 000001E2 */]
0000017A  4EBA 0066                jsr        [PC + 0x66 /* 000001E2 */]
fn0000017E:
0000017E  4EBA 0062                jsr        [PC + 0x62 /* 000001E2 */]
00000182  4EBA 005E                jsr        [PC + 0x5E /* 000001E2 */]
fn00000186:
00000186  4EBA 005A                jsr        [PC + 0x5A /* 000001E2 */]
0000018A  4EBA 0056                jsr        [PC + 0x56 /* 000001E2 */]
0000018E  4EBA 0052                jsr        [PC + 0x52 /* 000001E2 */]
fn00000192:
00000192  4EBA 004E                jsr        [PC + 0x4E /* 000001E2 */]
fn00000196:
00000196  4EBA 004A                jsr        [PC + 0x4A /* 000001E2 */]
fn0000019A:
0000019A  4EBA 0046                jsr        [PC + 0x46 /* 000001E2 */]
fn0000019E:
0000019E  4EBA 0042                jsr        [PC + 0x42 /* 000001E2 */]
000001A2  4EBA 003E                jsr        [PC + 0x3E /* 000001E2 */]
fn000001A6:
000001A6  4EBA 003A                jsr        [PC + 0x3A /* 000001E2 */]
000001AA  4EBA 0036                jsr        [PC + 0x36 /* 000001E2 */]
000001AE  4EBA 0032                jsr        [PC + 0x32 /* 000001E2 */]
000001B2  4EBA 002E                jsr        [PC + 0x2E /* 000001E2 */]
fn000001B6:
000001B6  4EBA 002A                jsr        [PC + 0x2A /* 000001E2 */]
000001BA  4EBA 0026                jsr        [PC + 0x26 /* 000001E2 */]
fn000001BE:
000001BE  4EBA 0022                jsr        [PC + 0x22 /* 000001E2 */]
fn000001C2:
000001C2  4EBA 001E                jsr        [PC + 0x1E /* 000001E2 */]
000001C6  4EBA 001A                jsr        [PC + 0x1A /* 000001E2 */]
000001CA  4EBA 0016                jsr        [PC + 0x16 /* 000001E2 */]
fn000001CE:
000001CE  4EBA 0012                jsr        [PC + 0x12 /* 000001E2 */]
000001D2  4EBA 000E                jsr        [PC + 0xE /* 000001E2 */]
000001D6  4EBA 000A                jsr        [PC + 0xA /* 000001E2 */]
000001DA  4EBA 0006                jsr        [PC + 0x6 /* 000001E2 */]
000001DE  4EBA 0002                jsr        [PC + 0x2 /* 000001E2 */]
fn000001E2:
000001E2  43FA FE6A                lea.l      A1, [PC - 0x196 /* 0000004E, value 0x4EBA0192 */]
000001E6  205F                     movea.l    A0, [A7]+
000001E8  91C9                     sub.l      A0, A1
000001EA  D1F8 0A78                add.l      A0, [0x00000A78 /* ApplScratch */]
000001EE  2050                     movea.l    A0, [A0]
000001F0  4ED0                     jmp        [A0]
fn000001F2:
000001F2  4E56 FFF8                link       A6, -0x0008
000001F6  48E7 0018                movem.l    -[A7], A3,A4
000001FA  2678 0A50                movea.l    A3, [0x00000A50 /* TopMapHndl */]
000001FE  206E 0008                movea.l    A0, [A6 + 0x8]
00000202  2050                     movea.l    A0, [A0]
00000204  B7E8 01E0                cmpa.l     A3, [A0 + 0x1E0]
00000208  6752                     beq        +0x54 /* 0000025C */
0000020A  206E 0008                movea.l    A0, [A6 + 0x8]
0000020E  2050                     movea.l    A0, [A0]
00000210  214B 01E4                move.l     [A0 + 0x1E4], A3
00000214  2D4B FFFC                move.l     [A6 - 0x4], A3
00000218  284B                     movea.l    A4, A3
0000021A  600A                     bra        +0xC /* 00000226 */
label0000021C:
0000021C  2D4C FFFC                move.l     [A6 - 0x4], A4
00000220  2054                     movea.l    A0, [A4]
00000222  2868 0010                movea.l    A4, [A0 + 0x10]
label00000226:
00000226  2054                     movea.l    A0, [A4]
00000228  2D48 FFF8                move.l     [A6 - 0x8], A0
0000022C  558F                     subq.l     A7, 2
0000022E  3EB8 0900                move.w     [A7], [0x00000900 /* CurApRefNum */]
00000232  206E FFF8                movea.l    A0, [A6 - 0x8]
00000236  3028 0014                move.w     D0, [A0 + 0x14]
0000023A  B05F                     cmp.w      D0, [A7]+
0000023C  66DE                     bne        -0x20 /* 0000021C */
0000023E  206E 0008                movea.l    A0, [A6 + 0x8]
00000242  2050                     movea.l    A0, [A0]
00000244  2068 01E0                movea.l    A0, [A0 + 0x1E0]
00000248  2050                     movea.l    A0, [A0]
0000024A  216E FFFC 0010           move.l     [A0 + 0x10], [A6 - 0x4]
00000250  206E 0008                movea.l    A0, [A6 + 0x8]
00000254  2050                     movea.l    A0, [A0]
00000256  21E8 01E0 0A50           move.l     [0x00000A50 /* TopMapHndl */], [A0 + 0x1E0]
label0000025C:
0000025C  4CEE 1800 FFF0           movem.l    A3,A4, [A6 - 0x10]
00000262  4E5E                     unlink     A6
00000264  4E75                     rts
fn00000266:
00000266  4E56 0000                link       A6, 0
0000026A  206E 0008                movea.l    A0, [A6 + 0x8]
0000026E  2050                     movea.l    A0, [A0]
00000270  21E8 01E4 0A50           move.l     [0x00000A50 /* TopMapHndl */], [A0 + 0x1E4]
00000276  4E5E                     unlink     A6
00000278  4E75                     rts
fn0000027A:
0000027A  4E56 0000                link       A6, 0
0000027E  2F0C                     move.l     -[A7], A4
00000280  286E 0008                movea.l    A4, [A6 + 0x8]
00000284  2F0C                     move.l     -[A7], A4
00000286  4EBA FF6A                jsr        [PC - 0x96 /* 000001F2 */]
0000028A  2054                     movea.l    A0, [A4]
0000028C  4AA8 01D8                tst.l      [A0 + 0x1D8]
00000290  584F                     addq.w     A7, 4
00000292  6712                     beq        +0x14 /* 000002A6 */
00000294  598F                     subq.l     A7, 4
00000296  A93B                     syscall    GetMenuBar
00000298  2054                     movea.l    A0, [A4]
0000029A  215F 01DC                move.l     [A0 + 0x1DC], [A7]+
0000029E  2054                     movea.l    A0, [A4]
000002A0  2F28 01D8                move.l     -[A7], [A0 + 0x1D8]
000002A4  A93C                     syscall    SetMenuBar
label000002A6:
000002A6  286E FFFC                movea.l    A4, [A6 - 0x4]
000002AA  4E5E                     unlink     A6
000002AC  4E75                     rts
fn000002AE:
000002AE  4E56 0000                link       A6, 0
000002B2  2F0C                     move.l     -[A7], A4
000002B4  286E 0008                movea.l    A4, [A6 + 0x8]
000002B8  2F0C                     move.l     -[A7], A4
000002BA  4EBA FFAA                jsr        [PC - 0x56 /* 00000266 */]
000002BE  2054                     movea.l    A0, [A4]
000002C0  4AA8 01DC                tst.l      [A0 + 0x1DC]
000002C4  584F                     addq.w     A7, 4
000002C6  6716                     beq        +0x18 /* 000002DE */
000002C8  2F28 01DC                move.l     -[A7], [A0 + 0x1DC]
000002CC  A93C                     syscall    SetMenuBar
000002CE  2054                     movea.l    A0, [A4]
000002D0  2068 01DC                movea.l    A0, [A0 + 0x1DC]
000002D4  A023                     syscall    DisposHandle/DisposeHandle
000002D6  2054                     movea.l    A0, [A4]
000002D8  7000                     moveq.l    D0, 0x00
000002DA  2140 01DC                move.l     [A0 + 0x1DC], D0
label000002DE:
000002DE  286E FFFC                movea.l    A4, [A6 - 0x4]
000002E2  4E5E                     unlink     A6
000002E4  4E75                     rts
fn000002E6:
000002E6  4E56 0000                link       A6, 0
000002EA  48E7 0308                movem.l    -[A7], D6,D7,A4
000002EE  3C2E 000A                move.w     D6, [A6 + 0xA]
000002F2  2878 0A50                movea.l    A4, [0x00000A50 /* TopMapHndl */]
label000002F6:
000002F6  2054                     movea.l    A0, [A4]
000002F8  3E28 0014                move.w     D7, [A0 + 0x14]
000002FC  BC47                     cmp.w      D6, D7
000002FE  671C                     beq        +0x1E /* 0000031C */
00000300  4A46                     tst.w      D6
00000302  660A                     bne        +0xC /* 0000030E */
00000304  558F                     subq.l     A7, 2
00000306  4EBA FD8E                jsr        [PC - 0x272 /* 00000096 */]
0000030A  BE5F                     cmp.w      D7, [A7]+
0000030C  670E                     beq        +0x10 /* 0000031C */
label0000030E:
0000030E  558F                     subq.l     A7, 2
00000310  4EBA FD84                jsr        [PC - 0x27C /* 00000096 */]
00000314  BC5F                     cmp.w      D6, [A7]+
00000316  6608                     bne        +0xA /* 00000320 */
00000318  4A47                     tst.w      D7
0000031A  6604                     bne        +0x6 /* 00000320 */
label0000031C:
0000031C  200C                     move.l     D0, A4
0000031E  600C                     bra        +0xE /* 0000032C */
label00000320:
00000320  2054                     movea.l    A0, [A4]
00000322  2868 0010                movea.l    A4, [A0 + 0x10]
00000326  200C                     move.l     D0, A4
00000328  66CC                     bne        -0x32 /* 000002F6 */
0000032A  7000                     moveq.l    D0, 0x00
label0000032C:
0000032C  4CEE 10C0 FFF4           movem.l    D6,D7,A4, [A6 - 0xC]
00000332  4E5E                     unlink     A6
00000334  4E75                     rts
fn00000336:
00000336  4E56 FFFC                link       A6, -0x0004
0000033A  48E7 0F18                movem.l    -[A7], D4,D5,D6,D7,A3,A4
0000033E  206E 0008                movea.l    A0, [A6 + 0x8]
00000342  2050                     movea.l    A0, [A0]
00000344  2F28 01E0                move.l     -[A7], [A0 + 0x1E0]
00000348  4EBA FD04                jsr        [PC - 0x2FC /* 0000004E */]
0000034C  206E 0008                movea.l    A0, [A6 + 0x8]
00000350  2050                     movea.l    A0, [A0]
00000352  2068 01E0                movea.l    A0, [A0 + 0x1E0]
00000356  A029                     syscall    HLock
00000358  206E 0008                movea.l    A0, [A6 + 0x8]
0000035C  2050                     movea.l    A0, [A0]
0000035E  2068 01E0                movea.l    A0, [A0 + 0x1E0]
00000362  2650                     movea.l    A3, [A0]
00000364  302B 0018                move.w     D0, [A3 + 0x18]
00000368  48C0                     ext.l      D0
0000036A  D08B                     add.l      D0, A3
0000036C  2D40 FFFC                move.l     [A6 - 0x4], D0
00000370  2040                     movea.l    A0, D0
00000372  3810                     move.w     D4, [A0]
00000374  266E FFFC                movea.l    A3, [A6 - 0x4]
00000378  544B                     addq.w     A3, 2
0000037A  4245                     clr.w      D5
0000037C  602E                     bra        +0x30 /* 000003AC */
label0000037E:
0000037E  3C2B 0004                move.w     D6, [A3 + 0x4]
00000382  286E FFFC                movea.l    A4, [A6 - 0x4]
00000386  D8EB 0006                add.w      A4, [A3 + 0x6]
0000038A  4247                     clr.w      D7
0000038C  6014                     bra        +0x16 /* 000003A2 */
label0000038E:
0000038E  4AAC 0008                tst.l      [A4 + 0x8]
00000392  6606                     bne        +0x8 /* 0000039A */
00000394  206C 0008                movea.l    A0, [A4 + 0x8]
00000398  A023                     syscall    DisposHandle/DisposeHandle
label0000039A:
0000039A  3007                     move.w     D0, D7
0000039C  5247                     addq.w     D7, 1
0000039E  49EC 000C                lea.l      A4, [A4 + 0xC]
label000003A2:
000003A2  BC47                     cmp.w      D6, D7
000003A4  6CE8                     bge        -0x16 /* 0000038E */
000003A6  3005                     move.w     D0, D5
000003A8  5245                     addq.w     D5, 1
000003AA  504B                     addq.w     A3, 8
label000003AC:
000003AC  B845                     cmp.w      D4, D5
000003AE  6CCE                     bge        -0x30 /* 0000037E */
000003B0  206E 0008                movea.l    A0, [A6 + 0x8]
000003B4  2050                     movea.l    A0, [A0]
000003B6  2068 01E0                movea.l    A0, [A0 + 0x1E0]
000003BA  A02A                     syscall    HUnlock
000003BC  206E 0008                movea.l    A0, [A6 + 0x8]
000003C0  2050                     movea.l    A0, [A0]
000003C2  2068 01E0                movea.l    A0, [A0 + 0x1E0]
000003C6  A023                     syscall    DisposHandle/DisposeHandle
000003C8  4CEE 18F0 FFE4           movem.l    D4,D5,D6,D7,A3,A4, [A6 - 0x1C]
000003CE  4E5E                     unlink     A6
000003D0  4E75                     rts
fn000003D2:
000003D2  4E56 FFFC                link       A6, -0x0004
000003D6  48E7 0F18                movem.l    -[A7], D4,D5,D6,D7,A3,A4
000003DA  206E 0008                movea.l    A0, [A6 + 0x8]
000003DE  2050                     movea.l    A0, [A0]
000003E0  2F28 01E0                move.l     -[A7], [A0 + 0x1E0]
000003E4  4EBA FC68                jsr        [PC - 0x398 /* 0000004E */]
000003E8  206E 0008                movea.l    A0, [A6 + 0x8]
000003EC  2050                     movea.l    A0, [A0]
000003EE  2068 01E0                movea.l    A0, [A0 + 0x1E0]
000003F2  A029                     syscall    HLock
000003F4  206E 0008                movea.l    A0, [A6 + 0x8]
000003F8  2050                     movea.l    A0, [A0]
000003FA  2068 01E0                movea.l    A0, [A0 + 0x1E0]
000003FE  2650                     movea.l    A3, [A0]
00000400  302B 0018                move.w     D0, [A3 + 0x18]
00000404  48C0                     ext.l      D0
00000406  D08B                     add.l      D0, A3
00000408  2D40 FFFC                move.l     [A6 - 0x4], D0
0000040C  2040                     movea.l    A0, D0
0000040E  3810                     move.w     D4, [A0]
00000410  266E FFFC                movea.l    A3, [A6 - 0x4]
00000414  544B                     addq.w     A3, 2
00000416  4245                     clr.w      D5
00000418  603E                     bra        +0x40 /* 00000458 */
label0000041A:
0000041A  3C2B 0004                move.w     D6, [A3 + 0x4]
0000041E  286E FFFC                movea.l    A4, [A6 - 0x4]
00000422  D8EB 0006                add.w      A4, [A3 + 0x6]
00000426  4247                     clr.w      D7
00000428  6024                     bra        +0x26 /* 0000044E */
label0000042A:
0000042A  7002                     moveq.l    D0, 0x02
0000042C  C02C 0004                and.b      D0, [A4 + 0x4]
00000430  670E                     beq        +0x10 /* 00000440 */
00000432  558F                     subq.l     A7, 2
00000434  486C 0008                pea.l      [A4 + 0x8]
00000438  4EBA 72CE                jsr        [PC + 0x72CE /* 00007708 */]
0000043C  544F                     addq.w     A7, 2
0000043E  6006                     bra        +0x8 /* 00000446 */
label00000440:
00000440  7000                     moveq.l    D0, 0x00
00000442  2940 0008                move.l     [A4 + 0x8], D0
label00000446:
00000446  3007                     move.w     D0, D7
00000448  5247                     addq.w     D7, 1
0000044A  49EC 000C                lea.l      A4, [A4 + 0xC]
label0000044E:
0000044E  BC47                     cmp.w      D6, D7
00000450  6CD8                     bge        -0x26 /* 0000042A */
00000452  3005                     move.w     D0, D5
00000454  5245                     addq.w     D5, 1
00000456  504B                     addq.w     A3, 8
label00000458:
00000458  B845                     cmp.w      D4, D5
0000045A  6CBE                     bge        -0x40 /* 0000041A */
0000045C  206E 0008                movea.l    A0, [A6 + 0x8]
00000460  2050                     movea.l    A0, [A0]
00000462  2068 01E0                movea.l    A0, [A0 + 0x1E0]
00000466  A02A                     syscall    HUnlock
00000468  4CEE 18F0 FFE4           movem.l    D4,D5,D6,D7,A3,A4, [A6 - 0x1C]
0000046E  4E5E                     unlink     A6
00000470  4E75                     rts
fn00000472:
00000472  4E56 FFFC                link       A6, -0x0004
00000476  48E7 0708                movem.l    -[A7], D5,D6,D7,A4
0000047A  3C2E 0012                move.w     D6, [A6 + 0x12]
0000047E  2E2E 000C                move.l     D7, [A6 + 0xC]
00000482  286E 0008                movea.l    A4, [A6 + 0x8]
00000486  7A00                     moveq.l    D5, 0x00
00000488  1A38 0A5E                move.b     D5, [0x00000A5E /* ResLoad */]
0000048C  7001                     moveq.l    D0, 0x01
0000048E  1F00                     move.b     -[A7], D0
00000490  A99B                     syscall    SetResLoad
00000492  598F                     subq.l     A7, 4
00000494  2F07                     move.l     -[A7], D7
00000496  3F06                     move.w     -[A7], D6
00000498  A81F                     syscall    Get1Resource
0000049A  2D5F FFFC                move.l     [A6 - 0x4], [A7]+
0000049E  6624                     bne        +0x26 /* 000004C4 */
000004A0  200C                     move.l     D0, A4
000004A2  6720                     beq        +0x22 /* 000004C4 */
000004A4  2D4C FFFC                move.l     [A6 - 0x4], A4
000004A8  558F                     subq.l     A7, 2
000004AA  486E FFFC                pea.l      [A6 - 0x4]
000004AE  4EBA 7258                jsr        [PC + 0x7258 /* 00007708 */]
000004B2  2F2E FFFC                move.l     -[A7], [A6 - 0x4]
000004B6  2F07                     move.l     -[A7], D7
000004B8  3F06                     move.w     -[A7], D6
000004BA  487A 0062                pea.l      [PC + 0x62 /* 0000051E, value 0x4E56 'NV', cstring "" */]
000004BE  A9AB                     syscall    AddResource
000004C0  544F                     addq.w     A7, 2
000004C2  604C                     bra        +0x4E /* 00000510 */
label000004C4:
000004C4  4AAE FFFC                tst.l      [A6 - 0x4]
000004C8  6746                     beq        +0x48 /* 00000510 */
000004CA  206E FFFC                movea.l    A0, [A6 - 0x4]
000004CE  4A90                     tst.l      [A0]
000004D0  673E                     beq        +0x40 /* 00000510 */
000004D2  200C                     move.l     D0, A4
000004D4  673A                     beq        +0x3C /* 00000510 */
000004D6  4A94                     tst.l      [A4]
000004D8  6736                     beq        +0x38 /* 00000510 */
000004DA  598F                     subq.l     A7, 4
000004DC  2F2E FFFC                move.l     -[A7], [A6 - 0x4]
000004E0  4EBA 722A                jsr        [PC + 0x722A /* 0000770C */]
000004E4  201F                     move.l     D0, [A7]+
000004E6  3C00                     move.w     D6, D0
000004E8  598F                     subq.l     A7, 4
000004EA  2F0C                     move.l     -[A7], A4
000004EC  4EBA 721E                jsr        [PC + 0x721E /* 0000770C */]
000004F0  201F                     move.l     D0, [A7]+
000004F2  3E00                     move.w     D7, D0
000004F4  BE46                     cmp.w      D7, D6
000004F6  6F0A                     ble        +0xC /* 00000502 */
000004F8  206E FFFC                movea.l    A0, [A6 - 0x4]
000004FC  48C7                     ext.l      D7
000004FE  2007                     move.l     D0, D7
00000500  A024                     syscall    SetHandleSize
label00000502:
00000502  2054                     movea.l    A0, [A4]
00000504  226E FFFC                movea.l    A1, [A6 - 0x4]
00000508  2251                     movea.l    A1, [A1]
0000050A  48C7                     ext.l      D7
0000050C  2007                     move.l     D0, D7
0000050E  A02E                     syscall    BlockMove/BlockMoveData
label00000510:
00000510  1F05                     move.b     -[A7], D5
00000512  A99B                     syscall    SetResLoad
00000514  4CEE 10E0 FFEC           movem.l    D5,D6,D7,A4, [A6 - 0x14]
0000051A  4E5E                     unlink     A6
0000051C  4E75                     rts
0000051E  0000 4E56                ori.b      D0, 0x56 /* 'V' */
// begin alternate branch 00000520-00000528
fn00000520:
00000520  4E56 0000                link       A6, 0
00000524  48E7 0718                movem.l    -[A7], D5,D6,D7,A3,A4
// end alternate branch 00000520-00000528
fn00000520: // (misaligned)
00000522  0000 48E7                ori.b      D0, 0xE7
00000526  0718                     btst       [A0]+, D3
00000528  3E2E 000E                move.w     D7, [A6 + 0xE]
0000052C  266E 0008                movea.l    A3, [A6 + 0x8]
00000530  7C00                     moveq.l    D6, 0x00
00000532  1C38 0A5E                move.b     D6, [0x00000A5E /* ResLoad */]
00000536  7001                     moveq.l    D0, 0x01
00000538  1F00                     move.b     -[A7], D0
0000053A  A99B                     syscall    SetResLoad
0000053C  2F0B                     move.l     -[A7], A3
0000053E  4EBA FD26                jsr        [PC - 0x2DA /* 00000266 */]
00000542  598F                     subq.l     A7, 4
00000544  2F3C 4D45 4E55           move.l     -[A7], 0x4D454E55 /* 'MENU' */
0000054A  3F07                     move.w     -[A7], D7
0000054C  A81F                     syscall    Get1Resource
0000054E  285F                     movea.l    A4, [A7]+
00000550  558F                     subq.l     A7, 2
00000552  2F0C                     move.l     -[A7], A4
00000554  A9A6                     syscall    GetResAttrs
00000556  3A1F                     move.w     D5, [A7]+
00000558  2F0B                     move.l     -[A7], A3
0000055A  4EBA FC96                jsr        [PC - 0x36A /* 000001F2 */]
0000055E  1F06                     move.b     -[A7], D6
00000560  A99B                     syscall    SetResLoad
00000562  7002                     moveq.l    D0, 0x02
00000564  C045                     and.w      D0, D5
00000566  504F                     addq.w     A7, 8
00000568  6714                     beq        +0x16 /* 0000057E */
0000056A  48C7                     ext.l      D7
0000056C  2F07                     move.l     -[A7], D7
0000056E  2F3C 4D45 4E55           move.l     -[A7], 0x4D454E55 /* 'MENU' */
00000574  2F0C                     move.l     -[A7], A4
00000576  4EBA FEFA                jsr        [PC - 0x106 /* 00000472 */]
0000057A  4FEF 000C                lea.l      A7, [A7 + 0xC]
label0000057E:
0000057E  4CEE 18E0 FFEC           movem.l    D5,D6,D7,A3,A4, [A6 - 0x14]
00000584  4E5E                     unlink     A6
00000586  4E75                     rts
fn00000588:
00000588  4E56 0000                link       A6, 0
0000058C  48E7 0118                movem.l    -[A7], D7,A3,A4
00000590  266E 0008                movea.l    A3, [A6 + 0x8]
00000594  286E 000C                movea.l    A4, [A6 + 0xC]
00000598  2054                     movea.l    A0, [A4]
0000059A  0C68 03F0 0010           cmpi.w     [A0 + 0x10], 0x3F0
000005A0  6610                     bne        +0x12 /* 000005B2 */
000005A2  3E28 000E                move.w     D7, [A0 + 0xE]
000005A6  48C7                     ext.l      D7
000005A8  2F07                     move.l     -[A7], D7
000005AA  2F0B                     move.l     -[A7], A3
000005AC  4EBA FF72                jsr        [PC - 0x8E /* 00000520 */]
000005B0  504F                     addq.w     A7, 8
label000005B2:
000005B2  2F0B                     move.l     -[A7], A3
000005B4  4EBA FCB0                jsr        [PC - 0x350 /* 00000266 */]
000005B8  558F                     subq.l     A7, 2
000005BA  2F0C                     move.l     -[A7], A4
000005BC  A9A6                     syscall    GetResAttrs
000005BE  3E1F                     move.w     D7, [A7]+
000005C0  2F0B                     move.l     -[A7], A3
000005C2  4EBA FC2E                jsr        [PC - 0x3D2 /* 000001F2 */]
000005C6  7002                     moveq.l    D0, 0x02
000005C8  C047                     and.w      D0, D7
000005CA  504F                     addq.w     A7, 8
000005CC  6718                     beq        +0x1A /* 000005E6 */
000005CE  302E 0012                move.w     D0, [A6 + 0x12]
000005D2  48C0                     ext.l      D0
000005D4  2F00                     move.l     -[A7], D0
000005D6  2F3C 434E 544C           move.l     -[A7], 0x434E544C /* 'CNTL' */
000005DC  2F0C                     move.l     -[A7], A4
000005DE  4EBA FE92                jsr        [PC - 0x16E /* 00000472 */]
000005E2  4FEF 000C                lea.l      A7, [A7 + 0xC]
label000005E6:
000005E6  4CEE 1880 FFF4           movem.l    D7,A3,A4, [A6 - 0xC]
000005EC  4E5E                     unlink     A6
000005EE  4E75                     rts
fn000005F0:
000005F0  4E56 0000                link       A6, 0
000005F4  2F0C                     move.l     -[A7], A4
000005F6  286E 0008                movea.l    A4, [A6 + 0x8]
000005FA  2054                     movea.l    A0, [A4]
000005FC  3028 0110                move.w     D0, [A0 + 0x110]
00000600  48C0                     ext.l      D0
00000602  2F00                     move.l     -[A7], D0
00000604  4EBA FCE0                jsr        [PC - 0x320 /* 000002E6 */]
00000608  2054                     movea.l    A0, [A4]
0000060A  2140 01E0                move.l     [A0 + 0x1E0], D0
0000060E  558F                     subq.l     A7, 2
00000610  2054                     movea.l    A0, [A4]
00000612  4868 01E0                pea.l      [A0 + 0x1E0]
00000616  4EBA 70F0                jsr        [PC + 0x70F0 /* 00007708 */]
0000061A  2F0C                     move.l     -[A7], A4
0000061C  4EBA FDB4                jsr        [PC - 0x24C /* 000003D2 */]
00000620  286E FFFC                movea.l    A4, [A6 - 0x4]
00000624  4E5E                     unlink     A6
00000626  4E75                     rts
label00000628:
00000628  4E56 0000                link       A6, 0
0000062C  4E5E                     unlink     A6
0000062E  205F                     movea.l    A0, [A7]+
00000630  504F                     addq.w     A7, 8
00000632  4ED0                     jmp        [A0]
fn00000634:
00000634  4E56 0000                link       A6, 0
00000638  48E7 0108                movem.l    -[A7], D7,A4
0000063C  1E2E 000F                move.b     D7, [A6 + 0xF]
00000640  286E 0008                movea.l    A4, [A6 + 0x8]
00000644  7000                     moveq.l    D0, 0x00
00000646  1007                     move.b     D0, D7
00000648  4A80                     tst.l      D0
0000064A  2054                     movea.l    A0, [A4]
0000064C  3140 01D2                move.w     [A0 + 0x1D2], D0
00000650  2054                     movea.l    A0, [A4]
00000652  2068 0166                movea.l    A0, [A0 + 0x166]
00000656  2050                     movea.l    A0, [A0]
00000658  1147 0008                move.b     [A0 + 0x8], D7
0000065C  7E01                     moveq.l    D7, 0x01
0000065E  601E                     bra        +0x20 /* 0000067E */
label00000660:
00000660  7000                     moveq.l    D0, 0x00
00000662  2F00                     move.l     -[A7], D0
00000664  7201                     moveq.l    D1, 0x01
00000666  2F01                     move.l     -[A7], D1
00000668  2F01                     move.l     -[A7], D1
0000066A  2F00                     move.l     -[A7], D0
0000066C  48C7                     ext.l      D7
0000066E  2F07                     move.l     -[A7], D7
00000670  2F0C                     move.l     -[A7], A4
00000672  4EBA 51A4                jsr        [PC + 0x51A4 /* 00005818 */]
00000676  4FEF 0018                lea.l      A7, [A7 + 0x18]
0000067A  3007                     move.w     D0, D7
0000067C  5247                     addq.w     D7, 1
label0000067E:
0000067E  2054                     movea.l    A0, [A4]
00000680  BE68 0150                cmp.w      D7, [A0 + 0x150]
00000684  6FDA                     ble        -0x24 /* 00000660 */
00000686  4CEE 1080 FFF8           movem.l    D7,A4, [A6 - 0x8]
0000068C  4E5E                     unlink     A6
0000068E  4E75                     rts
fn00000690:
00000690  4E56 0000                link       A6, 0
00000694  48E7 1318                movem.l    -[A7], D3,D6,D7,A3,A4
00000698  266E 0008                movea.l    A3, [A6 + 0x8]
0000069C  2053                     movea.l    A0, [A3]
0000069E  7001                     moveq.l    D0, 0x01
000006A0  B068 0152                cmp.w      D0, [A0 + 0x152]
000006A4  57C3                     seq        D3
000006A6  4403                     neg.b      D3
000006A8  1C03                     move.b     D6, D3
000006AA  2068 015E                movea.l    A0, [A0 + 0x15E]
000006AE  2850                     movea.l    A4, [A0]
000006B0  2053                     movea.l    A0, [A3]
000006B2  3E28 0150                move.w     D7, [A0 + 0x150]
000006B6  603A                     bra        +0x3C /* 000006F2 */
label000006B8:
000006B8  48C7                     ext.l      D7
000006BA  2007                     move.l     D0, D7
000006BC  E580                     asl        D0, 2
000006BE  4A74 0800                tst.w      [A4 + D0]
000006C2  672C                     beq        +0x2E /* 000006F0 */
000006C4  48C7                     ext.l      D7
000006C6  2007                     move.l     D0, D7
000006C8  E580                     asl        D0, 2
000006CA  4274 0800                clr.w      [A4 + D0]
000006CE  7000                     moveq.l    D0, 0x00
000006D0  2F00                     move.l     -[A7], D0
000006D2  7201                     moveq.l    D1, 0x01
000006D4  2F01                     move.l     -[A7], D1
000006D6  2F01                     move.l     -[A7], D1
000006D8  7400                     moveq.l    D2, 0x00
000006DA  1406                     move.b     D2, D6
000006DC  2F02                     move.l     -[A7], D2
000006DE  48C7                     ext.l      D7
000006E0  2F07                     move.l     -[A7], D7
000006E2  2F0B                     move.l     -[A7], A3
000006E4  4EBA 5132                jsr        [PC + 0x5132 /* 00005818 */]
000006E8  4A06                     tst.b      D6
000006EA  4FEF 0018                lea.l      A7, [A7 + 0x18]
000006EE  6606                     bne        +0x8 /* 000006F6 */
label000006F0:
000006F0  5347                     subq.w     D7, 1
label000006F2:
000006F2  4A47                     tst.w      D7
000006F4  6EC2                     bgt        -0x3C /* 000006B8 */
label000006F6:
000006F6  2053                     movea.l    A0, [A3]
000006F8  4268 0152                clr.w      [A0 + 0x152]
000006FC  4CEE 18C8 FFEC           movem.l    D3,D6,D7,A3,A4, [A6 - 0x14]
00000702  4E5E                     unlink     A6
00000704  4E75                     rts
fn00000706:
00000706  4E56 0000                link       A6, 0
0000070A  48E7 1F18                movem.l    -[A7], D3,D4,D5,D6,D7,A3,A4
0000070E  266E 0008                movea.l    A3, [A6 + 0x8]
00000712  2053                     movea.l    A0, [A3]
00000714  2068 015E                movea.l    A0, [A0 + 0x15E]
00000718  2850                     movea.l    A4, [A0]
0000071A  302E 000E                move.w     D0, [A6 + 0xE]
0000071E  48C0                     ext.l      D0
00000720  E580                     asl        D0, 2
00000722  3A34 0800                move.w     D5, [A4 + D0]
00000726  2053                     movea.l    A0, [A3]
00000728  2068 0166                movea.l    A0, [A0 + 0x166]
0000072C  2050                     movea.l    A0, [A0]
0000072E  1828 0008                move.b     D4, [A0 + 0x8]
00000732  7E01                     moveq.l    D7, 0x01
00000734  6040                     bra        +0x42 /* 00000776 */
label00000736:
00000736  48C7                     ext.l      D7
00000738  2007                     move.l     D0, D7
0000073A  E580                     asl        D0, 2
0000073C  3C34 0800                move.w     D6, [A4 + D0]
00000740  6712                     beq        +0x14 /* 00000754 */
00000742  BA46                     cmp.w      D5, D6
00000744  6E0E                     bgt        +0x10 /* 00000754 */
00000746  48C7                     ext.l      D7
00000748  2007                     move.l     D0, D7
0000074A  E580                     asl        D0, 2
0000074C  3234 0800                move.w     D1, [A4 + D0]
00000750  5374 0800                subq.w     [A4 + D0], 1
label00000754:
00000754  4A04                     tst.b      D4
00000756  671A                     beq        +0x1C /* 00000772 */
00000758  7000                     moveq.l    D0, 0x00
0000075A  2F00                     move.l     -[A7], D0
0000075C  2F00                     move.l     -[A7], D0
0000075E  7201                     moveq.l    D1, 0x01
00000760  2F01                     move.l     -[A7], D1
00000762  2F00                     move.l     -[A7], D0
00000764  48C7                     ext.l      D7
00000766  2F07                     move.l     -[A7], D7
00000768  2F0B                     move.l     -[A7], A3
0000076A  4EBA 50AC                jsr        [PC + 0x50AC /* 00005818 */]
0000076E  4FEF 0018                lea.l      A7, [A7 + 0x18]
label00000772:
00000772  3007                     move.w     D0, D7
00000774  5247                     addq.w     D7, 1
label00000776:
00000776  2053                     movea.l    A0, [A3]
00000778  BE68 0150                cmp.w      D7, [A0 + 0x150]
0000077C  6FB8                     ble        -0x46 /* 00000736 */
0000077E  7000                     moveq.l    D0, 0x00
00000780  2F00                     move.l     -[A7], D0
00000782  7201                     moveq.l    D1, 0x01
00000784  2F01                     move.l     -[A7], D1
00000786  2F01                     move.l     -[A7], D1
00000788  7401                     moveq.l    D2, 0x01
0000078A  B468 0152                cmp.w      D2, [A0 + 0x152]
0000078E  57C3                     seq        D3
00000790  4403                     neg.b      D3
00000792  4883                     ext.w      D3
00000794  48C3                     ext.l      D3
00000796  2F03                     move.l     -[A7], D3
00000798  342E 000E                move.w     D2, [A6 + 0xE]
0000079C  48C2                     ext.l      D2
0000079E  2F02                     move.l     -[A7], D2
000007A0  2F0B                     move.l     -[A7], A3
000007A2  4EBA 5074                jsr        [PC + 0x5074 /* 00005818 */]
000007A6  302E 000E                move.w     D0, [A6 + 0xE]
000007AA  48C0                     ext.l      D0
000007AC  E580                     asl        D0, 2
000007AE  4274 0800                clr.w      [A4 + D0]
000007B2  2053                     movea.l    A0, [A3]
000007B4  5368 0152                subq.w     [A0 + 0x152], 1
000007B8  4FEF 0018                lea.l      A7, [A7 + 0x18]
000007BC  4CEE 18F8 FFE4           movem.l    D3,D4,D5,D6,D7,A3,A4, [A6 - 0x1C]
000007C2  4E5E                     unlink     A6
000007C4  4E75                     rts
fn000007C6:
000007C6  4E56 0000                link       A6, 0
000007CA  2F3C 5052 4546           move.l     -[A7], 0x50524546 /* 'PREF' */
000007D0  558F                     subq.l     A7, 2
000007D2  4EBA F85A                jsr        [PC - 0x7A6 /* 0000002E */]
000007D6  487A 0014                pea.l      [PC + 0x14 /* 000007EC, value 0x10444954, pstring "DITL Preferences" */]
000007DA  206E 0008                movea.l    A0, [A6 + 0x8]
000007DE  2050                     movea.l    A0, [A0]
000007E0  2F28 0166                move.l     -[A7], [A0 + 0x166]
000007E4  4EBA F998                jsr        [PC - 0x668 /* 0000017E */]
000007E8  4E5E                     unlink     A6
000007EA  4E75                     rts
000007EC  1044                     movea.b    A0, D4
000007EE  4954                     chk.w      D4, [A4]
000007F0  4C20 5072                mulu.l     D5, -[A0]
000007F4  6566                     bcs        +0x68 /* 0000085C */
000007F6  6572                     bcs        +0x74 /* 0000086A */
000007F8  656E                     bcs        +0x70 /* 00000868 */
000007FA  6365                     bls        +0x67 /* 00000861 */
000007FC  7300                     moveq.l    D1, 0x00
fn000007FE:
000007FE  4E56 0000                link       A6, 0
00000802  48E7 0718                movem.l    -[A7], D5,D6,D7,A3,A4
00000806  266E 0014                movea.l    A3, [A6 + 0x14]
0000080A  3A2E 0012                move.w     D5, [A6 + 0x12]
0000080E  2C2E 000C                move.l     D6, [A6 + 0xC]
00000812  3E2E 000A                move.w     D7, [A6 + 0xA]
00000816  7000                     moveq.l    D0, 0x00
00000818  1F00                     move.b     -[A7], D0
0000081A  A99B                     syscall    SetResLoad
0000081C  598F                     subq.l     A7, 4
0000081E  3F07                     move.w     -[A7], D7
00000820  2F06                     move.l     -[A7], D6
00000822  3F05                     move.w     -[A7], D5
00000824  4EBA F82C                jsr        [PC - 0x7D4 /* 00000052 */]
00000828  285F                     movea.l    A4, [A7]+
0000082A  7001                     moveq.l    D0, 0x01
0000082C  1F00                     move.b     -[A7], D0
0000082E  A99B                     syscall    SetResLoad
00000830  200C                     move.l     D0, A4
00000832  6704                     beq        +0x6 /* 00000838 */
00000834  4A94                     tst.l      [A4]
00000836  6612                     bne        +0x14 /* 0000084A */
label00000838:
00000838  4213                     clr.b      [A3]
0000083A  598F                     subq.l     A7, 4
0000083C  3F07                     move.w     -[A7], D7
0000083E  2F06                     move.l     -[A7], D6
00000840  3F05                     move.w     -[A7], D5
00000842  4EBA F80E                jsr        [PC - 0x7F2 /* 00000052 */]
00000846  285F                     movea.l    A4, [A7]+
00000848  6004                     bra        +0x6 /* 0000084E */
label0000084A:
0000084A  16BC 0001                move.b     [A3], 0x1
label0000084E:
0000084E  200C                     move.l     D0, A4
00000850  4CEE 18E0 FFEC           movem.l    D5,D6,D7,A3,A4, [A6 - 0x14]
00000856  4E5E                     unlink     A6
00000858  4E75                     rts
fn0000085A:
0000085A  4E56 0000                link       A6, 0
// begin alternate branch 0000085C-00000860
label0000085C:
0000085C  0000 4E5E                ori.b      D0, 0x5E /* '^' */
// end alternate branch 0000085C-00000860
label0000085C: // (misaligned)
0000085E  4E5E                     unlink     A6
00000860  4E75                     rts
label00000862:
00000862  4E56 FDDE                link       A6, -0x0222
00000866  48E7 1318                movem.l    -[A7], D3,D6,D7,A3,A4
// begin alternate branch 00000868-0000086A
label00000868:
00000868  1318                     move.b     -[A1], [A0]+
// end alternate branch 00000868-0000086A
label00000868: // (misaligned)
label0000086A:
0000086A  266E 000C                movea.l    A3, [A6 + 0xC]
0000086E  42AE FFF8                clr.l      [A6 - 0x8]
00000872  42AE FFF4                clr.l      [A6 - 0xC]
00000876  7005                     moveq.l    D0, 0x05
00000878  2F00                     move.l     -[A7], D0
0000087A  486E FEE0                pea.l      [A6 - 0x120]
0000087E  487A 047E                pea.l      [PC + 0x47E /* 00000CFE, value 0x4444954, pstring "DITL" */]
00000882  4EBA 7658                jsr        [PC + 0x7658 /* 00007EDC */]
00000886  2F0B                     move.l     -[A7], A3
00000888  486E FEE0                pea.l      [A6 - 0x120]
0000088C  4EBA F858                jsr        [PC - 0x7A8 /* 000000E6 */]
00000890  7000                     moveq.l    D0, 0x00
00000892  102E FEE0                move.b     D0, [A6 - 0x120]
00000896  5240                     addq.w     D0, 1
00000898  48C0                     ext.l      D0
0000089A  2F00                     move.l     -[A7], D0
0000089C  486E FDE0                pea.l      [A6 - 0x220]
000008A0  486E FEE0                pea.l      [A6 - 0x120]
000008A4  4EBA 7636                jsr        [PC + 0x7636 /* 00007EDC */]
000008A8  486E FDE0                pea.l      [A6 - 0x220]
000008AC  486E FEE0                pea.l      [A6 - 0x120]
000008B0  7001                     moveq.l    D0, 0x01
000008B2  1F00                     move.b     -[A7], D0
000008B4  2F2E 0008                move.l     -[A7], [A6 + 0x8]
000008B8  4EBA F87C                jsr        [PC - 0x784 /* 00000136 */]
000008BC  558F                     subq.l     A7, 2
000008BE  486E FDE0                pea.l      [A6 - 0x220]
000008C2  486E FEE0                pea.l      [A6 - 0x120]
000008C6  2F2E 0008                move.l     -[A7], [A6 + 0x8]
000008CA  4EBA F862                jsr        [PC - 0x79E /* 0000012E */]
000008CE  4A1F                     tst.b      [A7]+
000008D0  4FEF 0018                lea.l      A7, [A7 + 0x18]
000008D4  6600 03D2                bne        +0x3D4 /* 00000CA8 */
000008D8  598F                     subq.l     A7, 4
000008DA  2F0B                     move.l     -[A7], A3
000008DC  4EBA 6E2E                jsr        [PC + 0x6E2E /* 0000770C */]
000008E0  4A9F                     tst.l      [A7]+
000008E2  6632                     bne        +0x34 /* 00000916 */
000008E4  204B                     movea.l    A0, A3
000008E6  7002                     moveq.l    D0, 0x02
000008E8  A024                     syscall    SetHandleSize
000008EA  558F                     subq.l     A7, 2
000008EC  3F38 0220                move.w     -[A7], [0x00000220 /* MemErr */]
000008F0  7000                     moveq.l    D0, 0x00
000008F2  3F00                     move.w     -[A7], D0
000008F4  4EBA F854                jsr        [PC - 0x7AC /* 0000014A */]
000008F8  4A1F                     tst.b      [A7]+
000008FA  6700 03AC                beq        +0x3AE /* 00000CA8 */
000008FE  2053                     movea.l    A0, [A3]
00000900  30BC FFFF                move.w     [A0], 0xFFFF
00000904  2F0B                     move.l     -[A7], A3
00000906  4EBA F7D6                jsr        [PC - 0x82A /* 000000DE */]
0000090A  206E 0008                movea.l    A0, [A6 + 0x8]
0000090E  2050                     movea.l    A0, [A0]
00000910  117C 0001 0108           move.b     [A0 + 0x108], 0x1
label00000916:
00000916  7001                     moveq.l    D0, 0x01
00000918  2F00                     move.l     -[A7], D0
0000091A  2F0B                     move.l     -[A7], A3
0000091C  4EBA 0CD8                jsr        [PC + 0xCD8 /* 000015F6 */]
00000920  4A00                     tst.b      D0
00000922  504F                     addq.w     A7, 8
00000924  6700 0382                beq        +0x384 /* 00000CA8 */
00000928  203C 0000 01EC           move.l     D0, 0x1EC
0000092E  A322                     syscall    NewHandleClear, flags=3
00000930  2848                     movea.l    A4, A0
00000932  558F                     subq.l     A7, 2
00000934  3F38 0220                move.w     -[A7], [0x00000220 /* MemErr */]
00000938  7000                     moveq.l    D0, 0x00
0000093A  3F00                     move.w     -[A7], D0
0000093C  4EBA F80C                jsr        [PC - 0x7F4 /* 0000014A */]
00000940  4A1F                     tst.b      [A7]+
00000942  6700 0364                beq        +0x366 /* 00000CA8 */
00000946  2F0C                     move.l     -[A7], A4
00000948  4EBA F704                jsr        [PC - 0x8FC /* 0000004E */]
0000094C  204C                     movea.l    A0, A4
0000094E  A029                     syscall    HLock
00000950  2F0C                     move.l     -[A7], A4
00000952  4EBA 03B0                jsr        [PC + 0x3B0 /* 00000D04 */]
00000956  4A00                     tst.b      D0
00000958  584F                     addq.w     A7, 4
0000095A  660C                     bne        +0xE /* 00000968 */
0000095C  2F0C                     move.l     -[A7], A4
0000095E  4EBA 10F6                jsr        [PC + 0x10F6 /* 00001A56 */]
00000962  584F                     addq.w     A7, 4
00000964  6000 0342                bra        +0x344 /* 00000CA8 */
label00000968:
00000968  2054                     movea.l    A0, [A4]
0000096A  2068 0166                movea.l    A0, [A0 + 0x166]
0000096E  2050                     movea.l    A0, [A0]
00000970  7000                     moveq.l    D0, 0x00
00000972  1028 0008                move.b     D0, [A0 + 0x8]
00000976  2F00                     move.l     -[A7], D0
00000978  2F0C                     move.l     -[A7], A4
0000097A  4EBA FCB8                jsr        [PC - 0x348 /* 00000634 */]
0000097E  558F                     subq.l     A7, 2
00000980  7001                     moveq.l    D0, 0x01
00000982  3F00                     move.w     -[A7], D0
00000984  486E FFE0                pea.l      [A6 - 0x20]
00000988  4EBA 754E                jsr        [PC + 0x754E /* 00007ED8 */]
0000098C  3C1F                     move.w     D6, [A7]+
0000098E  2054                     movea.l    A0, [A4]
00000990  4228 01C8                clr.b      [A0 + 0x1C8]
00000994  7000                     moveq.l    D0, 0x00
00000996  102E FEE0                move.b     D0, [A6 - 0x120]
0000099A  5240                     addq.w     D0, 1
0000099C  48C0                     ext.l      D0
0000099E  2F00                     move.l     -[A7], D0
000009A0  2054                     movea.l    A0, [A4]
000009A2  4868 0004                pea.l      [A0 + 0x4]
000009A6  486E FEE0                pea.l      [A6 - 0x120]
000009AA  4EBA 7530                jsr        [PC + 0x7530 /* 00007EDC */]
000009AE  2054                     movea.l    A0, [A4]
000009B0  20AE 0008                move.l     [A0], [A6 + 0x8]
000009B4  2054                     movea.l    A0, [A4]
000009B6  4228 0108                clr.b      [A0 + 0x108]
000009BA  558F                     subq.l     A7, 2
000009BC  4EBA F670                jsr        [PC - 0x990 /* 0000002E */]
000009C0  2054                     movea.l    A0, [A4]
000009C2  315F 0112                move.w     [A0 + 0x112], [A7]+
000009C6  2054                     movea.l    A0, [A4]
000009C8  117C 0005 010A           move.b     [A0 + 0x10A], 0x5
000009CE  2054                     movea.l    A0, [A4]
000009D0  217C 4449 544C 010C      move.l     [A0 + 0x10C], 0x4449544C /* 'DITL' */
000009D8  558F                     subq.l     A7, 2
000009DA  2F0B                     move.l     -[A7], A3
000009DC  A9A4                     syscall    HomeResFile
000009DE  2054                     movea.l    A0, [A4]
000009E0  315F 0110                move.w     [A0 + 0x110], [A7]+
000009E4  2054                     movea.l    A0, [A4]
000009E6  214B 0114                move.l     [A0 + 0x114], A3
000009EA  558F                     subq.l     A7, 2
000009EC  4EBA F770                jsr        [PC - 0x890 /* 0000015E */]
000009F0  4A1F                     tst.b      [A7]+
000009F2  57C3                     seq        D3
000009F4  4403                     neg.b      D3
000009F6  2054                     movea.l    A0, [A4]
000009F8  1143 0109                move.b     [A0 + 0x109], D3
000009FC  2054                     movea.l    A0, [A4]
000009FE  4228 01CA                clr.b      [A0 + 0x1CA]
00000A02  2054                     movea.l    A0, [A4]
00000A04  4268 01CE                clr.w      [A0 + 0x1CE]
00000A08  2054                     movea.l    A0, [A4]
00000A0A  4268 01D4                clr.w      [A0 + 0x1D4]
00000A0E  2054                     movea.l    A0, [A4]
00000A10  4268 01D0                clr.w      [A0 + 0x1D0]
00000A14  2054                     movea.l    A0, [A4]
00000A16  3178 0BA6 014C           move.w     [A0 + 0x14C], [0x00000BA6 /* SysFontFam */]
00000A1C  558F                     subq.l     A7, 2
00000A1E  3EB8 0BA8                move.w     [A7], [0x00000BA8 /* DefFontSize */]
00000A22  2054                     movea.l    A0, [A4]
00000A24  315F 014E                move.w     [A0 + 0x14E], [A7]+
00000A28  2054                     movea.l    A0, [A4]
00000A2A  4A68 014E                tst.w      [A0 + 0x14E]
00000A2E  4FEF 0014                lea.l      A7, [A7 + 0x14]
00000A32  6606                     bne        +0x8 /* 00000A3A */
00000A34  317C 000C 014E           move.w     [A0 + 0x14E], 0xC
label00000A3A:
00000A3A  203C 0000 0100           move.l     D0, 0x100
00000A40  A322                     syscall    NewHandleClear, flags=3
00000A42  2254                     movea.l    A1, [A4]
00000A44  2348 01D8                move.l     [A1 + 0x1D8], A0
00000A48  2F0C                     move.l     -[A7], A4
00000A4A  4EBA FBA4                jsr        [PC - 0x45C /* 000005F0 */]
00000A4E  2053                     movea.l    A0, [A3]
00000A50  3010                     move.w     D0, [A0]
00000A52  5240                     addq.w     D0, 1
00000A54  2054                     movea.l    A0, [A4]
00000A56  3140 0150                move.w     [A0 + 0x150], D0
00000A5A  2054                     movea.l    A0, [A4]
00000A5C  3028 0150                move.w     D0, [A0 + 0x150]
00000A60  48C0                     ext.l      D0
00000A62  5280                     addq.l     D0, 1
00000A64  E580                     asl        D0, 2
00000A66  A322                     syscall    NewHandleClear, flags=3
00000A68  2254                     movea.l    A1, [A4]
00000A6A  2348 015E                move.l     [A1 + 0x15E], A0
00000A6E  558F                     subq.l     A7, 2
00000A70  3F38 0220                move.w     -[A7], [0x00000220 /* MemErr */]
00000A74  7000                     moveq.l    D0, 0x00
00000A76  3F00                     move.w     -[A7], D0
00000A78  4EBA F6D0                jsr        [PC - 0x930 /* 0000014A */]
00000A7C  4A1F                     tst.b      [A7]+
00000A7E  584F                     addq.w     A7, 4
00000A80  660C                     bne        +0xE /* 00000A8E */
00000A82  2F0C                     move.l     -[A7], A4
00000A84  4EBA 0FD0                jsr        [PC + 0xFD0 /* 00001A56 */]
00000A88  584F                     addq.w     A7, 4
00000A8A  6000 021C                bra        +0x21E /* 00000CA8 */
label00000A8E:
00000A8E  486E FDDE                pea.l      [A6 - 0x222]
00000A92  2F0C                     move.l     -[A7], A4
00000A94  4EBA 0348                jsr        [PC + 0x348 /* 00000DDE */]
00000A98  2640                     movea.l    A3, D0
00000A9A  2054                     movea.l    A0, [A4]
00000A9C  214B 0104                move.l     [A0 + 0x104], A3
00000AA0  2054                     movea.l    A0, [A4]
00000AA2  41E8 016E                lea.l      A0, [A0 + 0x16E]
00000AA6  43EB 0010                lea.l      A1, [A3 + 0x10]
00000AAA  20D9                     move.l     [A0]+, [A1]+
00000AAC  20D9                     move.l     [A0]+, [A1]+
00000AAE  2054                     movea.l    A0, [A4]
00000AB0  2248                     movea.l    A1, A0
00000AB2  2368 0120 0124           move.l     [A1 + 0x124], [A0 + 0x120]
00000AB8  558F                     subq.l     A7, 2
00000ABA  2054                     movea.l    A0, [A4]
00000ABC  4868 0124                pea.l      [A0 + 0x124]
00000AC0  4EBA 6C46                jsr        [PC + 0x6C46 /* 00007708 */]
00000AC4  558F                     subq.l     A7, 2
00000AC6  3F38 0220                move.w     -[A7], [0x00000220 /* MemErr */]
00000ACA  7000                     moveq.l    D0, 0x00
00000ACC  3F00                     move.w     -[A7], D0
00000ACE  4EBA F67A                jsr        [PC - 0x986 /* 0000014A */]
00000AD2  4A1F                     tst.b      [A7]+
00000AD4  4FEF 000A                lea.l      A7, [A7 + 0xA]
00000AD8  660C                     bne        +0xE /* 00000AE6 */
00000ADA  2F0C                     move.l     -[A7], A4
00000ADC  4EBA 0F78                jsr        [PC + 0xF78 /* 00001A56 */]
00000AE0  584F                     addq.w     A7, 4
00000AE2  6000 01C4                bra        +0x1C6 /* 00000CA8 */
label00000AE6:
00000AE6  2054                     movea.l    A0, [A4]
00000AE8  2248                     movea.l    A1, A0
00000AEA  2368 015E 0162           move.l     [A1 + 0x162], [A0 + 0x15E]
00000AF0  558F                     subq.l     A7, 2
00000AF2  2054                     movea.l    A0, [A4]
00000AF4  4868 0162                pea.l      [A0 + 0x162]
00000AF8  4EBA 6C0E                jsr        [PC + 0x6C0E /* 00007708 */]
00000AFC  558F                     subq.l     A7, 2
00000AFE  3F38 0220                move.w     -[A7], [0x00000220 /* MemErr */]
00000B02  7000                     moveq.l    D0, 0x00
00000B04  3F00                     move.w     -[A7], D0
00000B06  4EBA F642                jsr        [PC - 0x9BE /* 0000014A */]
00000B0A  4A1F                     tst.b      [A7]+
00000B0C  544F                     addq.w     A7, 2
00000B0E  660C                     bne        +0xE /* 00000B1C */
00000B10  2F0C                     move.l     -[A7], A4
00000B12  4EBA 0F42                jsr        [PC + 0xF42 /* 00001A56 */]
00000B16  584F                     addq.w     A7, 4
00000B18  6000 018E                bra        +0x190 /* 00000CA8 */
label00000B1C:
00000B1C  598F                     subq.l     A7, 4
00000B1E  4EBA F5DE                jsr        [PC - 0xA22 /* 000000FE */]
00000B22  2054                     movea.l    A0, [A4]
00000B24  215F 016A                move.l     [A0 + 0x16A], [A7]+
00000B28  2054                     movea.l    A0, [A4]
00000B2A  4228 015C                clr.b      [A0 + 0x15C]
00000B2E  2054                     movea.l    A0, [A4]
00000B30  7000                     moveq.l    D0, 0x00
00000B32  2140 01C4                move.l     [A0 + 0x1C4], D0
00000B36  2054                     movea.l    A0, [A4]
00000B38  4268 0176                clr.w      [A0 + 0x176]
00000B3C  2054                     movea.l    A0, [A4]
00000B3E  2140 01B8                move.l     [A0 + 0x1B8], D0
00000B42  2054                     movea.l    A0, [A4]
00000B44  4868 0178                pea.l      [A0 + 0x178]
00000B48  487A 01A2                pea.l      [PC + 0x1A2 /* 00000CEC, value 0x10434339, pstring "CC993366CC993366" */]
00000B4C  A866                     syscall    StuffHex
00000B4E  2054                     movea.l    A0, [A4]
00000B50  4868 0180                pea.l      [A0 + 0x180]
00000B54  487A 0184                pea.l      [PC + 0x184 /* 00000CDA, value 0x10363643, pstring "66CC993366CC9933" */]
00000B58  A866                     syscall    StuffHex
00000B5A  2054                     movea.l    A0, [A4]
00000B5C  4868 0188                pea.l      [A0 + 0x188]
00000B60  487A 0166                pea.l      [PC + 0x166 /* 00000CC8, value 0x10333336, pstring "3366CC993366CC99" */]
00000B64  A866                     syscall    StuffHex
00000B66  2054                     movea.l    A0, [A4]
00000B68  4868 0190                pea.l      [A0 + 0x190]
00000B6C  487A 0148                pea.l      [PC + 0x148 /* 00000CB6, value 0x10393933, pstring "993366CC993366CC" */]
00000B70  A866                     syscall    StuffHex
00000B72  2F0B                     move.l     -[A7], A3
00000B74  486E FDE0                pea.l      [A6 - 0x220]
00000B78  A91A                     syscall    SetWTitle
00000B7A  558F                     subq.l     A7, 2
00000B7C  4EBA F4B0                jsr        [PC - 0xB50 /* 0000002E */]
00000B80  375F 006C                move.w     [A3 + 0x6C], [A7]+
00000B84  274C 0098                move.l     [A3 + 0x98], A4
00000B88  2F0C                     move.l     -[A7], A4
00000B8A  4EBA 1334                jsr        [PC + 0x1334 /* 00001EC0 */]
00000B8E  2054                     movea.l    A0, [A4]
00000B90  2068 0104                movea.l    A0, [A0 + 0x104]
00000B94  4868 0010                pea.l      [A0 + 0x10]
00000B98  A928                     syscall    InvalRect
00000B9A  2F0B                     move.l     -[A7], A3
00000B9C  2F2E 0008                move.l     -[A7], [A6 + 0x8]
00000BA0  4EBA F5C4                jsr        [PC - 0xA3C /* 00000166 */]
00000BA4  2F0B                     move.l     -[A7], A3
00000BA6  206E 0008                movea.l    A0, [A6 + 0x8]
00000BAA  2050                     movea.l    A0, [A0]
00000BAC  2F28 0104                move.l     -[A7], [A0 + 0x104]
00000BB0  486E FFF4                pea.l      [A6 - 0xC]
00000BB4  4EBA F60C                jsr        [PC - 0x9F4 /* 000001C2 */]
00000BB8  2054                     movea.l    A0, [A4]
00000BBA  2068 0104                movea.l    A0, [A0 + 0x104]
00000BBE  3028 000A                move.w     D0, [A0 + 0xA]
00000BC2  48C0                     ext.l      D0
00000BC4  4480                     neg.l      D0
00000BC6  2054                     movea.l    A0, [A4]
00000BC8  3140 01E8                move.w     [A0 + 0x1E8], D0
00000BCC  2054                     movea.l    A0, [A4]
00000BCE  2068 0104                movea.l    A0, [A0 + 0x104]
00000BD2  3028 0008                move.w     D0, [A0 + 0x8]
00000BD6  48C0                     ext.l      D0
00000BD8  4480                     neg.l      D0
00000BDA  2054                     movea.l    A0, [A4]
00000BDC  3140 01EA                move.w     [A0 + 0x1EA], D0
00000BE0  203C 0000 0118           move.l     D0, 0x118
00000BE6  A322                     syscall    NewHandleClear, flags=3
00000BE8  2254                     movea.l    A1, [A4]
00000BEA  2348 012C                move.l     [A1 + 0x12C], A0
00000BEE  558F                     subq.l     A7, 2
00000BF0  3F38 0220                move.w     -[A7], [0x00000220 /* MemErr */]
00000BF4  7000                     moveq.l    D0, 0x00
00000BF6  3F00                     move.w     -[A7], D0
00000BF8  4EBA F550                jsr        [PC - 0xAB0 /* 0000014A */]
00000BFC  4A1F                     tst.b      [A7]+
00000BFE  584F                     addq.w     A7, 4
00000C00  660C                     bne        +0xE /* 00000C0E */
00000C02  2F0C                     move.l     -[A7], A4
00000C04  4EBA 0E50                jsr        [PC + 0xE50 /* 00001A56 */]
00000C08  584F                     addq.w     A7, 4
00000C0A  6000 009C                bra        +0x9E /* 00000CA8 */
label00000C0E:
00000C0E  426E FFF2                clr.w      [A6 - 0xE]
00000C12  3D7C 0001 FFF0           move.w     [A6 - 0x10], 0x1
00000C18  598F                     subq.l     A7, 4
00000C1A  3F3C 0596                move.w     -[A7], 0x596
00000C1E  2054                     movea.l    A0, [A4]
00000C20  2F28 012C                move.l     -[A7], [A0 + 0x12C]
00000C24  2F0C                     move.l     -[A7], A4
00000C26  2F2E FFF0                move.l     -[A7], [A6 - 0x10]
00000C2A  4EBA F4C2                jsr        [PC - 0xB3E /* 000000EE */]
00000C2E  265F                     movea.l    A3, [A7]+
00000C30  558F                     subq.l     A7, 2
00000C32  3EB8 0900                move.w     [A7], [0x00000900 /* CurApRefNum */]
00000C36  A998                     syscall    UseResFile
00000C38  598F                     subq.l     A7, 4
00000C3A  3F3C 0596                move.w     -[A7], 0x596
00000C3E  A9BC                     syscall    GetPicture
00000C40  2657                     movea.l    A3, [A7]
00000C42  A992                     syscall    DetachResource
00000C44  2053                     movea.l    A0, [A3]
00000C46  2D48 FFFC                move.l     [A6 - 0x4], A0
00000C4A  3028 0008                move.w     D0, [A0 + 0x8]
00000C4E  48C0                     ext.l      D0
00000C50  3228 0004                move.w     D1, [A0 + 0x4]
00000C54  48C1                     ext.l      D1
00000C56  9081                     sub.l      D0, D1
00000C58  3C00                     move.w     D6, D0
00000C5A  5746                     subq.w     D6, 3
00000C5C  206E FFFC                movea.l    A0, [A6 - 0x4]
00000C60  3028 0006                move.w     D0, [A0 + 0x6]
00000C64  48C0                     ext.l      D0
00000C66  3228 0002                move.w     D1, [A0 + 0x2]
00000C6A  48C1                     ext.l      D1
00000C6C  9081                     sub.l      D0, D1
00000C6E  3E00                     move.w     D7, D0
00000C70  5747                     subq.w     D7, 3
00000C72  2054                     movea.l    A0, [A4]
00000C74  2068 012C                movea.l    A0, [A0 + 0x12C]
00000C78  2050                     movea.l    A0, [A0]
00000C7A  2F28 0104                move.l     -[A7], [A0 + 0x104]
00000C7E  3F06                     move.w     -[A7], D6
00000C80  3F07                     move.w     -[A7], D7
00000C82  7001                     moveq.l    D0, 0x01
00000C84  1F00                     move.b     -[A7], D0
00000C86  A91D                     syscall    SizeWindow
00000C88  2054                     movea.l    A0, [A4]
00000C8A  2068 012C                movea.l    A0, [A0 + 0x12C]
00000C8E  2050                     movea.l    A0, [A0]
00000C90  2F28 0104                move.l     -[A7], [A0 + 0x104]
00000C94  2F0B                     move.l     -[A7], A3
00000C96  A92E                     syscall    SetWindowPic
00000C98  2F0C                     move.l     -[A7], A4
00000C9A  4EBA 212E                jsr        [PC + 0x212E /* 00002DCA */]
00000C9E  4EBA F3BA                jsr        [PC - 0xC46 /* 0000005A */]
00000CA2  204C                     movea.l    A0, A4
00000CA4  A02A                     syscall    HUnlock
00000CA6  584F                     addq.w     A7, 4
label00000CA8:
00000CA8  4CEE 18C8 FDCA           movem.l    D3,D6,D7,A3,A4, [A6 - 0x236]
00000CAE  4E5E                     unlink     A6
00000CB0  205F                     movea.l    A0, [A7]+
00000CB2  504F                     addq.w     A7, 8
00000CB4  4ED0                     jmp        [A0]
00000CB6  1039 3933 3336           move.b     D0, [0x39333336]
00000CBC  3643                     movea.w    A3, D3
00000CBE  4339 3933 3336           .invalid   1, [0x39333336] // invalid opcode 4 with b == 4
00000CC4  3643                     movea.w    A3, D3
00000CC6  4300                     .invalid   1, D0 // invalid opcode 4 with b == 4
00000CC8  1033 3336 3643 4339 3933 move.b     D0, [[A3 + 0x36434339] + D3 * 2 + 0x3933]
00000CD2  3336 3643                move.w     -[A1], [A6 + D3.w * 8 + 0x43]
00000CD6  4339 3900 1036           .invalid   1, [0x39001036] // invalid opcode 4 with b == 4
00000CDC  3643                     movea.w    A3, D3
00000CDE  4339 3933 3336           .invalid   1, [0x39333336] // invalid opcode 4 with b == 4
00000CE4  3643                     movea.w    A3, D3
00000CE6  4339 3933 3300           .invalid   1, [0x39333300] // invalid opcode 4 with b == 4
00000CEC  1043                     movea.b    A0, D3
00000CEE  4339 3933 3336           .invalid   1, [0x39333336] // invalid opcode 4 with b == 4
00000CF4  3643                     movea.w    A3, D3
00000CF6  4339 3933 3336           .invalid   1, [0x39333336] // invalid opcode 4 with b == 4
00000CFC  3600                     move.w     D3, D0
00000CFE  0444 4954                subi.w     D4, 0x4954 /* 'IT' */
00000D02  4C00 4E56                muls.l     D6:D4, D0
// begin alternate branch 00000D04-00000D0A
fn00000D04:
00000D04  4E56 0000                link       A6, 0
00000D08  2F0C                     move.l     -[A7], A4
// end alternate branch 00000D04-00000D0A
fn00000D04: // (misaligned)
00000D06  0000 2F0C                ori.b      D0, 0xC
00000D0A  286E 0008                movea.l    A4, [A6 + 0x8]
00000D0E  598F                     subq.l     A7, 4
00000D10  2F3C 5052 4546           move.l     -[A7], 0x50524546 /* 'PREF' */
00000D16  487A 00B0                pea.l      [PC + 0xB0 /* 00000DC8, value 0x10444954, pstring "DITL Preferences" */]
00000D1A  A820                     syscall    Get1NamedResource
00000D1C  2054                     movea.l    A0, [A4]
00000D1E  215F 0166                move.l     [A0 + 0x166], [A7]+
00000D22  2054                     movea.l    A0, [A4]
00000D24  4AA8 0166                tst.l      [A0 + 0x166]
00000D28  6720                     beq        +0x22 /* 00000D4A */
00000D2A  2068 0166                movea.l    A0, [A0 + 0x166]
00000D2E  2050                     movea.l    A0, [A0]
00000D30  7005                     moveq.l    D0, 0x05
00000D32  B050                     cmp.w      D0, [A0]
00000D34  660C                     bne        +0xE /* 00000D42 */
00000D36  2054                     movea.l    A0, [A4]
00000D38  2F28 0166                move.l     -[A7], [A0 + 0x166]
00000D3C  A992                     syscall    DetachResource
00000D3E  7001                     moveq.l    D0, 0x01
00000D40  607E                     bra        +0x80 /* 00000DC0 */
label00000D42:
00000D42  2054                     movea.l    A0, [A4]
00000D44  2F28 0166                move.l     -[A7], [A0 + 0x166]
00000D48  A9A3                     syscall    ReleaseResource
label00000D4A:
00000D4A  700A                     moveq.l    D0, 0x0A
00000D4C  A322                     syscall    NewHandleClear, flags=3
00000D4E  2254                     movea.l    A1, [A4]
00000D50  2348 0166                move.l     [A1 + 0x166], A0
00000D54  558F                     subq.l     A7, 2
00000D56  3F38 0220                move.w     -[A7], [0x00000220 /* MemErr */]
00000D5A  7000                     moveq.l    D0, 0x00
00000D5C  3F00                     move.w     -[A7], D0
00000D5E  4EBA F3EA                jsr        [PC - 0xC16 /* 0000014A */]
00000D62  4A1F                     tst.b      [A7]+
00000D64  6604                     bne        +0x6 /* 00000D6A */
00000D66  7000                     moveq.l    D0, 0x00
00000D68  6056                     bra        +0x58 /* 00000DC0 */
label00000D6A:
00000D6A  2054                     movea.l    A0, [A4]
00000D6C  2068 0166                movea.l    A0, [A0 + 0x166]
00000D70  2050                     movea.l    A0, [A0]
00000D72  30BC 0005                move.w     [A0], 0x5
00000D76  2054                     movea.l    A0, [A4]
00000D78  2068 0166                movea.l    A0, [A0 + 0x166]
00000D7C  2050                     movea.l    A0, [A0]
00000D7E  4228 0006                clr.b      [A0 + 0x6]
00000D82  2054                     movea.l    A0, [A4]
00000D84  2068 0166                movea.l    A0, [A0 + 0x166]
00000D88  2050                     movea.l    A0, [A0]
00000D8A  4228 0007                clr.b      [A0 + 0x7]
00000D8E  2054                     movea.l    A0, [A4]
00000D90  2068 0166                movea.l    A0, [A0 + 0x166]
00000D94  2050                     movea.l    A0, [A0]
00000D96  4228 0008                clr.b      [A0 + 0x8]
00000D9A  2054                     movea.l    A0, [A4]
00000D9C  2068 0166                movea.l    A0, [A0 + 0x166]
00000DA0  2050                     movea.l    A0, [A0]
00000DA2  317C 000A 0002           move.w     [A0 + 0x2], 0xA /* '\n' */
00000DA8  2054                     movea.l    A0, [A4]
00000DAA  2068 0166                movea.l    A0, [A0 + 0x166]
00000DAE  2050                     movea.l    A0, [A0]
00000DB0  317C 000A 0004           move.w     [A0 + 0x4], 0xA /* '\n' */
00000DB6  2F0C                     move.l     -[A7], A4
00000DB8  4EBA FA0C                jsr        [PC - 0x5F4 /* 000007C6 */]
00000DBC  7001                     moveq.l    D0, 0x01
00000DBE  584F                     addq.w     A7, 4
label00000DC0:
00000DC0  286E FFFC                movea.l    A4, [A6 - 0x4]
00000DC4  4E5E                     unlink     A6
00000DC6  4E75                     rts
00000DC8  1044                     movea.b    A0, D4
00000DCA  4954                     chk.w      D4, [A4]
00000DCC  4C20 5072                mulu.l     D5, -[A0]
00000DD0  6566                     bcs        +0x68 /* 00000E38 */
00000DD2  6572                     bcs        +0x74 /* 00000E46 */
00000DD4  656E                     bcs        +0x70 /* 00000E44 */
00000DD6  6365                     bls        +0x67 /* 00000E3D */
00000DD8  7300                     moveq.l    D1, 0x00
fn00000DDA:
00000DDA  6000 F302                bra        -0xCFC /* 000000DE */
fn00000DDE:
00000DDE  4E56 FEF0                link       A6, -0x0110
00000DE2  48E7 1F18                movem.l    -[A7], D3,D4,D5,D6,D7,A3,A4
00000DE6  206E 0008                movea.l    A0, [A6 + 0x8]
00000DEA  2050                     movea.l    A0, [A0]
00000DEC  2F28 0114                move.l     -[A7], [A0 + 0x114]
00000DF0  2F2E 000C                move.l     -[A7], [A6 + 0xC]
00000DF4  486E FEF4                pea.l      [A6 - 0x10C]
00000DF8  486E FF00                pea.l      [A6 - 0x100]
00000DFC  A9A8                     syscall    GetResInfo
00000DFE  4206                     clr.b      D6
00000E00  598F                     subq.l     A7, 4
00000E02  206E 0008                movea.l    A0, [A6 + 0x8]
00000E06  2050                     movea.l    A0, [A0]
00000E08  3F28 0110                move.w     -[A7], [A0 + 0x110]
00000E0C  2F3C 444C 4F47           move.l     -[A7], 0x444C4F47 /* 'DLOG' */
00000E12  206E 000C                movea.l    A0, [A6 + 0xC]
00000E16  3F10                     move.w     -[A7], [A0]
00000E18  486E FEF1                pea.l      [A6 - 0x10F]
00000E1C  486E FEF2                pea.l      [A6 - 0x10E]
00000E20  4EBA F240                jsr        [PC - 0xDC0 /* 00000062 */]
00000E24  265F                     movea.l    A3, [A7]+
00000E26  200B                     move.l     D0, A3
00000E28  671E                     beq        +0x20 /* 00000E48 */
00000E2A  4A93                     tst.l      [A3]
00000E2C  671A                     beq        +0x1C /* 00000E48 */
00000E2E  2053                     movea.l    A0, [A3]
00000E30  226E 000C                movea.l    A1, [A6 + 0xC]
00000E34  3028 0012                move.w     D0, [A0 + 0x12]
label00000E38:
00000E38  B051                     cmp.w      D0, [A1]
00000E3A  660C                     bne        +0xE /* 00000E48 */
00000E3C  7C01                     moveq.l    D6, 0x01
00000E3E  43EE FEF8                lea.l      A1, [A6 - 0x108]
00000E42  22D8                     move.l     [A1]+, [A0]+
label00000E44:
00000E44  22D8                     move.l     [A1]+, [A0]+
label00000E46:
00000E46  4205                     clr.b      D5
label00000E48:
00000E48  4A2E FEF1                tst.b      [A6 - 0x10F]
00000E4C  6608                     bne        +0xA /* 00000E56 */
00000E4E  200B                     move.l     D0, A3
00000E50  6704                     beq        +0x6 /* 00000E56 */
00000E52  2F0B                     move.l     -[A7], A3
00000E54  A9A3                     syscall    ReleaseResource
label00000E56:
00000E56  4A06                     tst.b      D6
00000E58  6656                     bne        +0x58 /* 00000EB0 */
00000E5A  598F                     subq.l     A7, 4
00000E5C  206E 0008                movea.l    A0, [A6 + 0x8]
00000E60  2050                     movea.l    A0, [A0]
00000E62  3F28 0110                move.w     -[A7], [A0 + 0x110]
00000E66  2F3C 414C 5254           move.l     -[A7], 0x414C5254 /* 'ALRT' */
00000E6C  206E 000C                movea.l    A0, [A6 + 0xC]
00000E70  3F10                     move.w     -[A7], [A0]
00000E72  486E FEF1                pea.l      [A6 - 0x10F]
00000E76  486E FEF2                pea.l      [A6 - 0x10E]
00000E7A  4EBA F1E6                jsr        [PC - 0xE1A /* 00000062 */]
00000E7E  285F                     movea.l    A4, [A7]+
00000E80  200C                     move.l     D0, A4
00000E82  671E                     beq        +0x20 /* 00000EA2 */
00000E84  4A94                     tst.l      [A4]
00000E86  671A                     beq        +0x1C /* 00000EA2 */
00000E88  2054                     movea.l    A0, [A4]
00000E8A  226E 000C                movea.l    A1, [A6 + 0xC]
00000E8E  3028 0008                move.w     D0, [A0 + 0x8]
00000E92  B051                     cmp.w      D0, [A1]
00000E94  660C                     bne        +0xE /* 00000EA2 */
00000E96  7C01                     moveq.l    D6, 0x01
00000E98  43EE FEF8                lea.l      A1, [A6 - 0x108]
00000E9C  22D8                     move.l     [A1]+, [A0]+
00000E9E  22D8                     move.l     [A1]+, [A0]+
00000EA0  7A01                     moveq.l    D5, 0x01
label00000EA2:
00000EA2  4A2E FEF1                tst.b      [A6 - 0x10F]
00000EA6  6608                     bne        +0xA /* 00000EB0 */
00000EA8  200C                     move.l     D0, A4
00000EAA  6704                     beq        +0x6 /* 00000EB0 */
00000EAC  2F0C                     move.l     -[A7], A4
00000EAE  A9A3                     syscall    ReleaseResource
label00000EB0:
00000EB0  4A06                     tst.b      D6
00000EB2  667A                     bne        +0x7C /* 00000F2E */
00000EB4  558F                     subq.l     A7, 2
00000EB6  206E 0008                movea.l    A0, [A6 + 0x8]
00000EBA  2050                     movea.l    A0, [A0]
00000EBC  3F28 0110                move.w     -[A7], [A0 + 0x110]
00000EC0  2F3C 444C 4F47           move.l     -[A7], 0x444C4F47 /* 'DLOG' */
00000EC6  4EBA F18E                jsr        [PC - 0xE72 /* 00000056 */]
00000ECA  381F                     move.w     D4, [A7]+
00000ECC  7E01                     moveq.l    D7, 0x01
00000ECE  605A                     bra        +0x5C /* 00000F2A */
label00000ED0:
00000ED0  486E FEF1                pea.l      [A6 - 0x10F]
00000ED4  48C7                     ext.l      D7
00000ED6  2F07                     move.l     -[A7], D7
00000ED8  2F3C 444C 4F47           move.l     -[A7], 0x444C4F47 /* 'DLOG' */
00000EDE  206E 0008                movea.l    A0, [A6 + 0x8]
00000EE2  2050                     movea.l    A0, [A0]
00000EE4  3028 0110                move.w     D0, [A0 + 0x110]
00000EE8  48C0                     ext.l      D0
00000EEA  2F00                     move.l     -[A7], D0
00000EEC  4EBA F910                jsr        [PC - 0x6F0 /* 000007FE */]
00000EF0  2640                     movea.l    A3, D0
00000EF2  200B                     move.l     D0, A3
00000EF4  4FEF 0010                lea.l      A7, [A7 + 0x10]
00000EF8  671E                     beq        +0x20 /* 00000F18 */
00000EFA  4A93                     tst.l      [A3]
00000EFC  671A                     beq        +0x1C /* 00000F18 */
00000EFE  2053                     movea.l    A0, [A3]
00000F00  226E 000C                movea.l    A1, [A6 + 0xC]
00000F04  3028 0012                move.w     D0, [A0 + 0x12]
00000F08  B051                     cmp.w      D0, [A1]
00000F0A  660C                     bne        +0xE /* 00000F18 */
00000F0C  43EE FEF8                lea.l      A1, [A6 - 0x108]
00000F10  22D8                     move.l     [A1]+, [A0]+
00000F12  22D8                     move.l     [A1]+, [A0]+
00000F14  7C01                     moveq.l    D6, 0x01
00000F16  4205                     clr.b      D5
label00000F18:
00000F18  4A2E FEF1                tst.b      [A6 - 0x10F]
00000F1C  6608                     bne        +0xA /* 00000F26 */
00000F1E  200B                     move.l     D0, A3
00000F20  6704                     beq        +0x6 /* 00000F26 */
00000F22  2F0B                     move.l     -[A7], A3
00000F24  A9A3                     syscall    ReleaseResource
label00000F26:
00000F26  3007                     move.w     D0, D7
00000F28  5247                     addq.w     D7, 1
label00000F2A:
00000F2A  B847                     cmp.w      D4, D7
00000F2C  6CA2                     bge        -0x5C /* 00000ED0 */
label00000F2E:
00000F2E  4A06                     tst.b      D6
00000F30  667A                     bne        +0x7C /* 00000FAC */
00000F32  558F                     subq.l     A7, 2
00000F34  206E 0008                movea.l    A0, [A6 + 0x8]
00000F38  2050                     movea.l    A0, [A0]
00000F3A  3F28 0110                move.w     -[A7], [A0 + 0x110]
00000F3E  2F3C 414C 5254           move.l     -[A7], 0x414C5254 /* 'ALRT' */
00000F44  4EBA F110                jsr        [PC - 0xEF0 /* 00000056 */]
00000F48  381F                     move.w     D4, [A7]+
00000F4A  7E01                     moveq.l    D7, 0x01
00000F4C  605A                     bra        +0x5C /* 00000FA8 */
label00000F4E:
00000F4E  486E FEF1                pea.l      [A6 - 0x10F]
00000F52  48C7                     ext.l      D7
00000F54  2F07                     move.l     -[A7], D7
00000F56  2F3C 414C 5254           move.l     -[A7], 0x414C5254 /* 'ALRT' */
00000F5C  206E 0008                movea.l    A0, [A6 + 0x8]
00000F60  2050                     movea.l    A0, [A0]
00000F62  3028 0110                move.w     D0, [A0 + 0x110]
00000F66  48C0                     ext.l      D0
00000F68  2F00                     move.l     -[A7], D0
00000F6A  4EBA F892                jsr        [PC - 0x76E /* 000007FE */]
00000F6E  2840                     movea.l    A4, D0
00000F70  200C                     move.l     D0, A4
00000F72  4FEF 0010                lea.l      A7, [A7 + 0x10]
00000F76  671E                     beq        +0x20 /* 00000F96 */
00000F78  4A94                     tst.l      [A4]
00000F7A  671A                     beq        +0x1C /* 00000F96 */
00000F7C  2054                     movea.l    A0, [A4]
00000F7E  226E 000C                movea.l    A1, [A6 + 0xC]
00000F82  3028 0008                move.w     D0, [A0 + 0x8]
00000F86  B051                     cmp.w      D0, [A1]
00000F88  660C                     bne        +0xE /* 00000F96 */
00000F8A  43EE FEF8                lea.l      A1, [A6 - 0x108]
00000F8E  22D8                     move.l     [A1]+, [A0]+
00000F90  22D8                     move.l     [A1]+, [A0]+
00000F92  7C01                     moveq.l    D6, 0x01
00000F94  7A01                     moveq.l    D5, 0x01
label00000F96:
00000F96  4A2E FEF1                tst.b      [A6 - 0x10F]
00000F9A  6608                     bne        +0xA /* 00000FA4 */
00000F9C  200C                     move.l     D0, A4
00000F9E  6704                     beq        +0x6 /* 00000FA4 */
00000FA0  2F0C                     move.l     -[A7], A4
00000FA2  A9A3                     syscall    ReleaseResource
label00000FA4:
00000FA4  3007                     move.w     D0, D7
00000FA6  5247                     addq.w     D7, 1
label00000FA8:
00000FA8  B847                     cmp.w      D4, D7
00000FAA  6CA2                     bge        -0x5C /* 00000F4E */
label00000FAC:
00000FAC  4A06                     tst.b      D6
00000FAE  662C                     bne        +0x2E /* 00000FDC */
00000FB0  206E 0008                movea.l    A0, [A6 + 0x8]
00000FB4  2050                     movea.l    A0, [A0]
00000FB6  4228 01C9                clr.b      [A0 + 0x1C9]
00000FBA  486E FEF8                pea.l      [A6 - 0x108]
00000FBE  2F2E 0008                move.l     -[A7], [A6 + 0x8]
00000FC2  4EBA 4BB6                jsr        [PC + 0x4BB6 /* 00005B7A */]
00000FC6  42AE FEF8                clr.l      [A6 - 0x108]
00000FCA  066E 000A FEFE           addi.w     [A6 - 0x102], 0xA /* '\n' */
00000FD0  066E 000A FEFC           addi.w     [A6 - 0x104], 0xA /* '\n' */
00000FD6  4205                     clr.b      D5
00000FD8  504F                     addq.w     A7, 8
00000FDA  600C                     bra        +0xE /* 00000FE8 */
label00000FDC:
00000FDC  206E 0008                movea.l    A0, [A6 + 0x8]
00000FE0  2050                     movea.l    A0, [A0]
00000FE2  117C 0001 01C9           move.b     [A0 + 0x1C9], 0x1
label00000FE8:
00000FE8  206E 0008                movea.l    A0, [A6 + 0x8]
00000FEC  2050                     movea.l    A0, [A0]
00000FEE  226E 0008                movea.l    A1, [A6 + 0x8]
00000FF2  2251                     movea.l    A1, [A1]
00000FF4  2368 0114 0120           move.l     [A1 + 0x120], [A0 + 0x114]
00000FFA  558F                     subq.l     A7, 2
00000FFC  206E 0008                movea.l    A0, [A6 + 0x8]
00001000  2050                     movea.l    A0, [A0]
00001002  4868 0120                pea.l      [A0 + 0x120]
00001006  4EBA 7CEE                jsr        [PC + 0x7CEE /* 00008CF6 */]
0000100A  558F                     subq.l     A7, 2
0000100C  3F38 0220                move.w     -[A7], [0x00000220 /* MemErr */]
00001010  7000                     moveq.l    D0, 0x00
00001012  3F00                     move.w     -[A7], D0
00001014  4EBA F134                jsr        [PC - 0xECC /* 0000014A */]
00001018  4A1F                     tst.b      [A7]+
0000101A  544F                     addq.w     A7, 2
0000101C  6606                     bne        +0x8 /* 00001024 */
0000101E  7000                     moveq.l    D0, 0x00
00001020  6000 00E4                bra        +0xE6 /* 00001106 */
label00001024:
00001024  206E 0008                movea.l    A0, [A6 + 0x8]
00001028  2050                     movea.l    A0, [A0]
0000102A  3F28 0110                move.w     -[A7], [A0 + 0x110]
0000102E  A998                     syscall    UseResFile
00001030  7000                     moveq.l    D0, 0x00
00001032  1F00                     move.b     -[A7], D0
00001034  A99B                     syscall    SetResLoad
00001036  598F                     subq.l     A7, 4
00001038  2F3C 5744 4546           move.l     -[A7], 0x57444546 /* 'WDEF' */
0000103E  7000                     moveq.l    D0, 0x00
00001040  3F00                     move.w     -[A7], D0
00001042  A9A0                     syscall    GetResource
00001044  265F                     movea.l    A3, [A7]+
00001046  4EBA F012                jsr        [PC - 0xFEE /* 0000005A */]
0000104A  598F                     subq.l     A7, 4
0000104C  2F3C 5744 4546           move.l     -[A7], 0x57444546 /* 'WDEF' */
00001052  7000                     moveq.l    D0, 0x00
00001054  3F00                     move.w     -[A7], D0
00001056  A9A0                     syscall    GetResource
00001058  285F                     movea.l    A4, [A7]+
0000105A  7001                     moveq.l    D0, 0x01
0000105C  1F00                     move.b     -[A7], D0
0000105E  A99B                     syscall    SetResLoad
00001060  558F                     subq.l     A7, 2
00001062  2F0B                     move.l     -[A7], A3
00001064  A9A4                     syscall    HomeResFile
00001066  3C1F                     move.w     D6, [A7]+
00001068  558F                     subq.l     A7, 2
0000106A  2F0C                     move.l     -[A7], A4
0000106C  A9A4                     syscall    HomeResFile
0000106E  3A1F                     move.w     D5, [A7]+
00001070  BA46                     cmp.w      D5, D6
00001072  56C3                     sne        D3
00001074  4403                     neg.b      D3
00001076  4883                     ext.w      D3
00001078  206E 0008                movea.l    A0, [A6 + 0x8]
0000107C  2050                     movea.l    A0, [A0]
0000107E  3143 01D6                move.w     [A0 + 0x1D6], D3
00001082  7000                     moveq.l    D0, 0x00
00001084  2F00                     move.l     -[A7], D0
00001086  2F2E 0008                move.l     -[A7], [A6 + 0x8]
0000108A  4EBA 008E                jsr        [PC + 0x8E /* 0000111A */]
0000108E  206E 0008                movea.l    A0, [A6 + 0x8]
00001092  2050                     movea.l    A0, [A0]
00001094  4A68 01D6                tst.w      [A0 + 0x1D6]
00001098  504F                     addq.w     A7, 8
0000109A  6706                     beq        +0x8 /* 000010A2 */
0000109C  4EBA EFBC                jsr        [PC - 0x1044 /* 0000005A */]
000010A0  600C                     bra        +0xE /* 000010AE */
label000010A2:
000010A2  206E 0008                movea.l    A0, [A6 + 0x8]
000010A6  2050                     movea.l    A0, [A0]
000010A8  3F28 0110                move.w     -[A7], [A0 + 0x110]
000010AC  A998                     syscall    UseResFile
label000010AE:
000010AE  2F2E 0008                move.l     -[A7], [A6 + 0x8]
000010B2  4EBA F1C6                jsr        [PC - 0xE3A /* 0000027A */]
000010B6  206E 0008                movea.l    A0, [A6 + 0x8]
000010BA  2050                     movea.l    A0, [A0]
000010BC  4A28 01C8                tst.b      [A0 + 0x1C8]
000010C0  584F                     addq.w     A7, 4
000010C2  6632                     bne        +0x34 /* 000010F6 */
000010C4  598F                     subq.l     A7, 4
000010C6  598F                     subq.l     A7, 4
000010C8  4EBA F0EC                jsr        [PC - 0xF14 /* 000001B6 */]
000010CC  486E FEF8                pea.l      [A6 - 0x108]
000010D0  487A 003E                pea.l      [PC + 0x3E /* 00001110, value 0x6000 '`\0', cstring "" */]
000010D4  7000                     moveq.l    D0, 0x00
000010D6  1F00                     move.b     -[A7], D0
000010D8  7200                     moveq.l    D1, 0x00
000010DA  3F01                     move.w     -[A7], D1
000010DC  70FF                     moveq.l    D0, 0xFFFFFFFF
000010DE  2F00                     move.l     -[A7], D0
000010E0  7001                     moveq.l    D0, 0x01
000010E2  1F00                     move.b     -[A7], D0
000010E4  7000                     moveq.l    D0, 0x00
000010E6  2F00                     move.l     -[A7], D0
000010E8  206E 0008                movea.l    A0, [A6 + 0x8]
000010EC  2050                     movea.l    A0, [A0]
000010EE  2F28 0120                move.l     -[A7], [A0 + 0x120]
000010F2  A97D                     syscall    NewDialog
000010F4  285F                     movea.l    A4, [A7]+
label000010F6:
000010F6  2F2E 0008                move.l     -[A7], [A6 + 0x8]
000010FA  4EBA F1B2                jsr        [PC - 0xE4E /* 000002AE */]
000010FE  4EBA EF5A                jsr        [PC - 0x10A6 /* 0000005A */]
00001102  200C                     move.l     D0, A4
00001104  584F                     addq.w     A7, 4
label00001106:
00001106  4CEE 18F8 FED4           movem.l    D3,D4,D5,D6,D7,A3,A4, [A6 - 0x12C]
0000110C  4E5E                     unlink     A6
0000110E  4E75                     rts
00001110  0000 6000                ori.b      D0, 0x0
// begin alternate branch 00001112-00001116
fn00001112:
00001112  6000 F19A                bra        -0xE64 /* 000002AE */
// end alternate branch 00001112-00001116
fn00001112: // (misaligned)
00001114  F19A                     .invalid   <<F/6/0>>
fn00001116:
00001116  6000 F162                bra        -0xE9C /* 0000027A */
fn0000111A:
0000111A  4E56 FFBE                link       A6, -0x0042
0000111E  48E7 0F18                movem.l    -[A7], D4,D5,D6,D7,A3,A4
00001122  1C2E 000F                move.b     D6, [A6 + 0xF]
00001126  422E FFFB                clr.b      [A6 - 0x5]
0000112A  206E 0008                movea.l    A0, [A6 + 0x8]
0000112E  2050                     movea.l    A0, [A0]
00001130  2068 0120                movea.l    A0, [A0 + 0x120]
00001134  A069                     syscall    HGetState
00001136  1D40 FFD6                move.b     [A6 - 0x2A], D0
0000113A  206E 0008                movea.l    A0, [A6 + 0x8]
0000113E  2050                     movea.l    A0, [A0]
00001140  2068 0114                movea.l    A0, [A0 + 0x114]
00001144  A069                     syscall    HGetState
00001146  1D40 FFD7                move.b     [A6 - 0x29], D0
0000114A  206E 0008                movea.l    A0, [A6 + 0x8]
0000114E  2050                     movea.l    A0, [A0]
00001150  2068 0120                movea.l    A0, [A0 + 0x120]
00001154  A029                     syscall    HLock
00001156  206E 0008                movea.l    A0, [A6 + 0x8]
0000115A  2050                     movea.l    A0, [A0]
0000115C  2068 0114                movea.l    A0, [A0 + 0x114]
00001160  A029                     syscall    HLock
00001162  206E 0008                movea.l    A0, [A6 + 0x8]
00001166  2050                     movea.l    A0, [A0]
00001168  2068 0120                movea.l    A0, [A0 + 0x120]
0000116C  2D50 FFCE                move.l     [A6 - 0x32], [A0]
00001170  206E 0008                movea.l    A0, [A6 + 0x8]
00001174  2050                     movea.l    A0, [A0]
00001176  2068 0114                movea.l    A0, [A0 + 0x114]
0000117A  2D50 FFD2                move.l     [A6 - 0x2E], [A0]
0000117E  206E 0008                movea.l    A0, [A6 + 0x8]
00001182  2050                     movea.l    A0, [A0]
00001184  2068 0104                movea.l    A0, [A0 + 0x104]
00001188  2668 001C                movea.l    A3, [A0 + 0x1C]
0000118C  206E 0008                movea.l    A0, [A6 + 0x8]
00001190  2050                     movea.l    A0, [A0]
00001192  4AA8 0104                tst.l      [A0 + 0x104]
00001196  6728                     beq        +0x2A /* 000011C0 */
00001198  200B                     move.l     D0, A3
0000119A  6724                     beq        +0x26 /* 000011C0 */
0000119C  4A93                     tst.l      [A3]
0000119E  6720                     beq        +0x22 /* 000011C0 */
000011A0  42AE FFCA                clr.l      [A6 - 0x36]
000011A4  42AE FFC6                clr.l      [A6 - 0x3A]
000011A8  2053                     movea.l    A0, [A3]
000011AA  43EE FFF2                lea.l      A1, [A6 - 0xE]
000011AE  5488                     addq.l     A0, 2
000011B0  22D8                     move.l     [A1]+, [A0]+
000011B2  22D8                     move.l     [A1]+, [A0]+
000011B4  486E FFC6                pea.l      [A6 - 0x3A]
000011B8  A87B                     syscall    ClipRect
000011BA  1D7C 0001 FFFB           move.b     [A6 - 0x5], 0x1
label000011C0:
000011C0  7E01                     moveq.l    D7, 0x01
000011C2  6000 0384                bra        +0x386 /* 00001548 */
label000011C6:
000011C6  486E FFDE                pea.l      [A6 - 0x22]
000011CA  486E FFDA                pea.l      [A6 - 0x26]
000011CE  48C7                     ext.l      D7
000011D0  2F07                     move.l     -[A7], D7
000011D2  206E 0008                movea.l    A0, [A6 + 0x8]
000011D6  2050                     movea.l    A0, [A0]
000011D8  2F28 0120                move.l     -[A7], [A0 + 0x120]
000011DC  4EBA 77A4                jsr        [PC + 0x77A4 /* 00008982 */]
000011E0  206E FFCE                movea.l    A0, [A6 - 0x32]
000011E4  202E FFDA                move.l     D0, [A6 - 0x26]
000011E8  49F0 0800                lea.l      A4, [A0 + D0]
000011EC  206E FFD2                movea.l    A0, [A6 - 0x2E]
000011F0  202E FFDA                move.l     D0, [A6 - 0x26]
000011F4  47F0 0800                lea.l      A3, [A0 + D0]
000011F8  206E 0008                movea.l    A0, [A6 + 0x8]
000011FC  2050                     movea.l    A0, [A0]
000011FE  3F28 0110                move.w     -[A7], [A0 + 0x110]
00001202  A998                     syscall    UseResFile
00001204  7000                     moveq.l    D0, 0x00
00001206  102C 000C                move.b     D0, [A4 + 0xC]
0000120A  323C FF7F                move.w     D1, 0xFF7F
0000120E  C240                     and.w      D1, D0
00001210  5341                     subq.w     D1, 1
00001212  4FEF 0010                lea.l      A7, [A7 + 0x10]
00001216  6700 02AC                beq        +0x2AE /* 000014C4 */
0000121A  5D41                     subq.w     D1, 6
0000121C  6714                     beq        +0x16 /* 00001232 */
0000121E  0441 0019                subi.w     D1, 0x19
00001222  6700 022A                beq        +0x22C /* 0000144E */
00001226  0441 0020                subi.w     D1, 0x20 /* ' ' */
0000122A  6700 01AA                beq        +0x1AC /* 000013D6 */
0000122E  6000 0310                bra        +0x312 /* 00001540 */
label00001232:
00001232  206E 0008                movea.l    A0, [A6 + 0x8]
00001236  2050                     movea.l    A0, [A0]
00001238  4A68 01D6                tst.w      [A0 + 0x1D6]
0000123C  6704                     beq        +0x6 /* 00001242 */
0000123E  4EBA EE1A                jsr        [PC - 0x11E6 /* 0000005A */]
label00001242:
00001242  598F                     subq.l     A7, 4
00001244  2F3C 434E 544C           move.l     -[A7], 0x434E544C /* 'CNTL' */
0000124A  3F2B 000E                move.w     -[A7], [A3 + 0xE]
0000124E  A81F                     syscall    Get1Resource
00001250  2D5F FFE2                move.l     [A6 - 0x1E], [A7]+
00001254  661C                     bne        +0x1E /* 00001272 */
00001256  558F                     subq.l     A7, 2
00001258  4EBA EE3C                jsr        [PC - 0x11C4 /* 00000096 */]
0000125C  A998                     syscall    UseResFile
0000125E  598F                     subq.l     A7, 4
00001260  2F3C 434E 544C           move.l     -[A7], 0x434E544C /* 'CNTL' */
00001266  3F2B 000E                move.w     -[A7], [A3 + 0xE]
0000126A  A81F                     syscall    Get1Resource
0000126C  2D5F FFE2                move.l     [A6 - 0x1E], [A7]+
00001270  605A                     bra        +0x5C /* 000012CC */
label00001272:
00001272  206E FFE2                movea.l    A0, [A6 - 0x1E]
00001276  2050                     movea.l    A0, [A0]
00001278  3D68 0010 FFC4           move.w     [A6 - 0x3C], [A0 + 0x10]
0000127E  0C6E 03F0 FFC4           cmpi.w     [A6 - 0x3C], 0x3F0
00001284  6646                     bne        +0x48 /* 000012CC */
00001286  206E FFE2                movea.l    A0, [A6 - 0x1E]
0000128A  2050                     movea.l    A0, [A0]
0000128C  3D68 000E FFC2           move.w     [A6 - 0x3E], [A0 + 0xE]
00001292  7000                     moveq.l    D0, 0x00
00001294  1F00                     move.b     -[A7], D0
00001296  A99B                     syscall    SetResLoad
00001298  558F                     subq.l     A7, 2
0000129A  2F2E FFE2                move.l     -[A7], [A6 - 0x1E]
0000129E  A9A4                     syscall    HomeResFile
000012A0  A998                     syscall    UseResFile
000012A2  598F                     subq.l     A7, 4
000012A4  2F3C 4D45 4E55           move.l     -[A7], 0x4D454E55 /* 'MENU' */
000012AA  3F2E FFC2                move.w     -[A7], [A6 - 0x3E]
000012AE  A81F                     syscall    Get1Resource
000012B0  2D5F FFBE                move.l     [A6 - 0x42], [A7]+
000012B4  7001                     moveq.l    D0, 0x01
000012B6  1F00                     move.b     -[A7], D0
000012B8  A99B                     syscall    SetResLoad
000012BA  4AAE FFBE                tst.l      [A6 - 0x42]
000012BE  660C                     bne        +0xE /* 000012CC */
000012C0  2F2E FFE2                move.l     -[A7], [A6 - 0x1E]
000012C4  A9A3                     syscall    ReleaseResource
000012C6  7000                     moveq.l    D0, 0x00
000012C8  2D40 FFE2                move.l     [A6 - 0x1E], D0
label000012CC:
000012CC  4AAE FFE2                tst.l      [A6 - 0x1E]
000012D0  6622                     bne        +0x24 /* 000012F4 */
000012D2  397C 0597 000E           move.w     [A4 + 0xE], 0x597
000012D8  558F                     subq.l     A7, 2
000012DA  3EB8 0900                move.w     [A7], [0x00000900 /* CurApRefNum */]
000012DE  A998                     syscall    UseResFile
000012E0  598F                     subq.l     A7, 4
000012E2  2F3C 434E 544C           move.l     -[A7], 0x434E544C /* 'CNTL' */
000012E8  3F3C 0597                move.w     -[A7], 0x597
000012EC  A81F                     syscall    Get1Resource
000012EE  2D5F FFE2                move.l     [A6 - 0x1E], [A7]+
000012F2  6006                     bra        +0x8 /* 000012FA */
label000012F4:
000012F4  396B 000E 000E           move.w     [A4 + 0xE], [A3 + 0xE]
label000012FA:
000012FA  206E FFE2                movea.l    A0, [A6 - 0x1E]
000012FE  2050                     movea.l    A0, [A0]
00001300  43EE FFE6                lea.l      A1, [A6 - 0x1A]
00001304  22D8                     move.l     [A1]+, [A0]+
00001306  22D8                     move.l     [A1]+, [A0]+
00001308  302E FFEC                move.w     D0, [A6 - 0x14]
0000130C  906E FFE8                sub.w      D0, [A6 - 0x18]
00001310  3D40 FFD8                move.w     [A6 - 0x28], D0
00001314  382E FFEA                move.w     D4, [A6 - 0x16]
00001318  986E FFE6                sub.w      D4, [A6 - 0x1A]
0000131C  204C                     movea.l    A0, A4
0000131E  5888                     addq.l     A0, 4
00001320  224B                     movea.l    A1, A3
00001322  5889                     addq.l     A1, 4
00001324  20D9                     move.l     [A0]+, [A1]+
00001326  20D9                     move.l     [A0]+, [A1]+
00001328  302E FFD8                move.w     D0, [A6 - 0x28]
0000132C  D06C 0006                add.w      D0, [A4 + 0x6]
00001330  3940 000A                move.w     [A4 + 0xA], D0
00001334  3004                     move.w     D0, D4
00001336  D06C 0004                add.w      D0, [A4 + 0x4]
0000133A  3940 0008                move.w     [A4 + 0x8], D0
0000133E  4A06                     tst.b      D6
00001340  6700 01FE                beq        +0x200 /* 00001540 */
00001344  2F2E 0008                move.l     -[A7], [A6 + 0x8]
00001348  4EBA EF30                jsr        [PC - 0x10D0 /* 0000027A */]
0000134C  206E FFE2                movea.l    A0, [A6 - 0x1E]
00001350  2050                     movea.l    A0, [A0]
00001352  4868 0008                pea.l      [A0 + 0x8]
00001356  A928                     syscall    InvalRect
00001358  4A94                     tst.l      [A4]
0000135A  584F                     addq.w     A7, 4
0000135C  6704                     beq        +0x6 /* 00001362 */
0000135E  2F14                     move.l     -[A7], [A4]
00001360  A955                     syscall    DisposeControl
label00001362:
00001362  302B 000E                move.w     D0, [A3 + 0xE]
00001366  48C0                     ext.l      D0
00001368  2F00                     move.l     -[A7], D0
0000136A  2F2E FFE2                move.l     -[A7], [A6 - 0x1E]
0000136E  2F2E 0008                move.l     -[A7], [A6 + 0x8]
00001372  4EBA F214                jsr        [PC - 0xDEC /* 00000588 */]
00001376  598F                     subq.l     A7, 4
00001378  3F2C 000E                move.w     -[A7], [A4 + 0xE]
0000137C  206E 0008                movea.l    A0, [A6 + 0x8]
00001380  2050                     movea.l    A0, [A0]
00001382  2F28 0104                move.l     -[A7], [A0 + 0x104]
00001386  A9BE                     syscall    GetNewControl
00001388  2D5F FFEE                move.l     [A6 - 0x12], [A7]+
0000138C  4FEF 000C                lea.l      A7, [A7 + 0xC]
00001390  6616                     bne        +0x18 /* 000013A8 */
00001392  598F                     subq.l     A7, 4
00001394  3F3C 0597                move.w     -[A7], 0x597
00001398  206E 0008                movea.l    A0, [A6 + 0x8]
0000139C  2050                     movea.l    A0, [A0]
0000139E  2F28 0104                move.l     -[A7], [A0 + 0x104]
000013A2  A9BE                     syscall    GetNewControl
000013A4  2D5F FFEE                move.l     [A6 - 0x12], [A7]+
label000013A8:
000013A8  2F2E FFEE                move.l     -[A7], [A6 - 0x12]
000013AC  3F2E FFD8                move.w     -[A7], [A6 - 0x28]
000013B0  3F04                     move.w     -[A7], D4
000013B2  A95C                     syscall    SizeControl
000013B4  2F2E FFEE                move.l     -[A7], [A6 - 0x12]
000013B8  2F2B 0004                move.l     -[A7], [A3 + 0x4]
000013BC  A959                     syscall    MoveControl
000013BE  486C 0004                pea.l      [A4 + 0x4]
000013C2  A928                     syscall    InvalRect
000013C4  28AE FFEE                move.l     [A4], [A6 - 0x12]
000013C8  2F2E 0008                move.l     -[A7], [A6 + 0x8]
000013CC  4EBA EEE0                jsr        [PC - 0x1120 /* 000002AE */]
000013D0  584F                     addq.w     A7, 4
000013D2  6000 016C                bra        +0x16E /* 00001540 */
label000013D6:
000013D6  598F                     subq.l     A7, 4
000013D8  2F3C 5049 4354           move.l     -[A7], 0x50494354 /* 'PICT' */
000013DE  3F2B 000E                move.w     -[A7], [A3 + 0xE]
000013E2  A81F                     syscall    Get1Resource
000013E4  2D5F FFE2                move.l     [A6 - 0x1E], [A7]+
000013E8  662A                     bne        +0x2C /* 00001414 */
000013EA  558F                     subq.l     A7, 2
000013EC  4EBA ECA8                jsr        [PC - 0x1358 /* 00000096 */]
000013F0  A998                     syscall    UseResFile
000013F2  598F                     subq.l     A7, 4
000013F4  2F3C 5049 4354           move.l     -[A7], 0x50494354 /* 'PICT' */
000013FA  3F2B 000E                move.w     -[A7], [A3 + 0xE]
000013FE  A81F                     syscall    Get1Resource
00001400  2D5F FFE2                move.l     [A6 - 0x1E], [A7]+
00001404  660E                     bne        +0x10 /* 00001414 */
00001406  397C 0597 000E           move.w     [A4 + 0xE], 0x597
0000140C  558F                     subq.l     A7, 2
0000140E  3EB8 0900                move.w     [A7], [0x00000900 /* CurApRefNum */]
00001412  A998                     syscall    UseResFile
label00001414:
00001414  4AAE FFE2                tst.l      [A6 - 0x1E]
00001418  6706                     beq        +0x8 /* 00001420 */
0000141A  396B 000E 000E           move.w     [A4 + 0xE], [A3 + 0xE]
label00001420:
00001420  4A06                     tst.b      D6
00001422  6700 011C                beq        +0x11E /* 00001540 */
00001426  598F                     subq.l     A7, 4
00001428  2F3C 5049 4354           move.l     -[A7], 0x50494354 /* 'PICT' */
0000142E  3F2C 000E                move.w     -[A7], [A4 + 0xE]
00001432  A81F                     syscall    Get1Resource
00001434  2D5F FFE2                move.l     [A6 - 0x1E], [A7]+
00001438  2014                     move.l     D0, [A4]
0000143A  B0AE FFE2                cmp.l      D0, [A6 - 0x1E]
0000143E  6706                     beq        +0x8 /* 00001446 */
00001440  486C 0004                pea.l      [A4 + 0x4]
00001444  A928                     syscall    InvalRect
label00001446:
00001446  28AE FFE2                move.l     [A4], [A6 - 0x1E]
0000144A  6000 00F4                bra        +0xF6 /* 00001540 */
label0000144E:
0000144E  598F                     subq.l     A7, 4
00001450  2F3C 4943 4F4E           move.l     -[A7], 0x49434F4E /* 'ICON' */
00001456  3F2B 000E                move.w     -[A7], [A3 + 0xE]
0000145A  A81F                     syscall    Get1Resource
0000145C  2D5F FFE2                move.l     [A6 - 0x1E], [A7]+
00001460  662A                     bne        +0x2C /* 0000148C */
00001462  558F                     subq.l     A7, 2
00001464  4EBA EC30                jsr        [PC - 0x13D0 /* 00000096 */]
00001468  A998                     syscall    UseResFile
0000146A  598F                     subq.l     A7, 4
0000146C  2F3C 4943 4F4E           move.l     -[A7], 0x49434F4E /* 'ICON' */
00001472  3F2B 000E                move.w     -[A7], [A3 + 0xE]
00001476  A81F                     syscall    Get1Resource
00001478  2D5F FFE2                move.l     [A6 - 0x1E], [A7]+
0000147C  660E                     bne        +0x10 /* 0000148C */
0000147E  397C 0597 000E           move.w     [A4 + 0xE], 0x597
00001484  558F                     subq.l     A7, 2
00001486  3EB8 0900                move.w     [A7], [0x00000900 /* CurApRefNum */]
0000148A  A998                     syscall    UseResFile
label0000148C:
0000148C  4AAE FFE2                tst.l      [A6 - 0x1E]
00001490  6706                     beq        +0x8 /* 00001498 */
00001492  396B 000E 000E           move.w     [A4 + 0xE], [A3 + 0xE]
label00001498:
00001498  4A06                     tst.b      D6
0000149A  6700 00A4                beq        +0xA6 /* 00001540 */
0000149E  598F                     subq.l     A7, 4
000014A0  2F3C 4943 4F4E           move.l     -[A7], 0x49434F4E /* 'ICON' */
000014A6  3F2C 000E                move.w     -[A7], [A4 + 0xE]
000014AA  A81F                     syscall    Get1Resource
000014AC  2D5F FFE2                move.l     [A6 - 0x1E], [A7]+
000014B0  2014                     move.l     D0, [A4]
000014B2  B0AE FFE2                cmp.l      D0, [A6 - 0x1E]
000014B6  6706                     beq        +0x8 /* 000014BE */
000014B8  486C 0004                pea.l      [A4 + 0x4]
000014BC  A928                     syscall    InvalRect
label000014BE:
000014BE  28AE FFE2                move.l     [A4], [A6 - 0x1E]
000014C2  607C                     bra        +0x7E /* 00001540 */
label000014C4:
000014C4  3A2C 0010                move.w     D5, [A4 + 0x10]
000014C8  7000                     moveq.l    D0, 0x00
000014CA  1F00                     move.b     -[A7], D0
000014CC  A99B                     syscall    SetResLoad
000014CE  206E 0008                movea.l    A0, [A6 + 0x8]
000014D2  2050                     movea.l    A0, [A0]
000014D4  7001                     moveq.l    D0, 0x01
000014D6  B068 01CC                cmp.w      D0, [A0 + 0x1CC]
000014DA  6F26                     ble        +0x28 /* 00001502 */
000014DC  598F                     subq.l     A7, 4
000014DE  2F3C 6864 6C67           move.l     -[A7], 0x68646C67 /* 'hdlg' */
000014E4  3F05                     move.w     -[A7], D5
000014E6  A81F                     syscall    Get1Resource
000014E8  2D5F FFFC                move.l     [A6 - 0x4], [A7]+
000014EC  6714                     beq        +0x16 /* 00001502 */
000014EE  206E 0008                movea.l    A0, [A6 + 0x8]
000014F2  2050                     movea.l    A0, [A0]
000014F4  317C 0001 01CC           move.w     [A0 + 0x1CC], 0x1
000014FA  2F2E FFFC                move.l     -[A7], [A6 - 0x4]
000014FE  A9A3                     syscall    ReleaseResource
00001500  6038                     bra        +0x3A /* 0000153A */
label00001502:
00001502  206E 0008                movea.l    A0, [A6 + 0x8]
00001506  2050                     movea.l    A0, [A0]
00001508  7002                     moveq.l    D0, 0x02
0000150A  B068 01CC                cmp.w      D0, [A0 + 0x1CC]
0000150E  6F2A                     ble        +0x2C /* 0000153A */
00001510  598F                     subq.l     A7, 4
00001512  7000                     moveq.l    D0, 0x00
00001514  3F00                     move.w     -[A7], D0
00001516  2F3C 6864 6C67           move.l     -[A7], 0x68646C67 /* 'hdlg' */
0000151C  3F05                     move.w     -[A7], D5
0000151E  4EBA EB3E                jsr        [PC - 0x14C2 /* 0000005E */]
00001522  2D5F FFFC                move.l     [A6 - 0x4], [A7]+
00001526  6712                     beq        +0x14 /* 0000153A */
00001528  206E 0008                movea.l    A0, [A6 + 0x8]
0000152C  2050                     movea.l    A0, [A0]
0000152E  317C 0002 01CC           move.w     [A0 + 0x1CC], 0x2
00001534  2F2E FFFC                move.l     -[A7], [A6 - 0x4]
00001538  A9A3                     syscall    ReleaseResource
label0000153A:
0000153A  7001                     moveq.l    D0, 0x01
0000153C  1F00                     move.b     -[A7], D0
0000153E  A99B                     syscall    SetResLoad
label00001540:
00001540  4EBA EB18                jsr        [PC - 0x14E8 /* 0000005A */]
00001544  3007                     move.w     D0, D7
00001546  5247                     addq.w     D7, 1
label00001548:
00001548  206E 0008                movea.l    A0, [A6 + 0x8]
0000154C  2050                     movea.l    A0, [A0]
0000154E  BE68 0150                cmp.w      D7, [A0 + 0x150]
00001552  6F00 FC72                ble        -0x38C /* 000011C6 */
00001556  4A2E FFFB                tst.b      [A6 - 0x5]
0000155A  6706                     beq        +0x8 /* 00001562 */
0000155C  486E FFF2                pea.l      [A6 - 0xE]
00001560  A87B                     syscall    ClipRect
label00001562:
00001562  206E 0008                movea.l    A0, [A6 + 0x8]
00001566  2050                     movea.l    A0, [A0]
00001568  2068 0120                movea.l    A0, [A0 + 0x120]
0000156C  102E FFD6                move.b     D0, [A6 - 0x2A]
00001570  A06A                     syscall    HSetState
00001572  206E 0008                movea.l    A0, [A6 + 0x8]
00001576  2050                     movea.l    A0, [A0]
00001578  2068 0114                movea.l    A0, [A0 + 0x114]
0000157C  102E FFD7                move.b     D0, [A6 - 0x29]
00001580  A06A                     syscall    HSetState
00001582  4CEE 18F0 FFA6           movem.l    D4,D5,D6,D7,A3,A4, [A6 - 0x5A]
00001588  4E5E                     unlink     A6
0000158A  4E75                     rts
fn0000158C:
0000158C  6000 EB70                bra        -0x148E /* 000000FE */
fn00001590:
00001590  6000 EB04                bra        -0x14FA /* 00000096 */
fn00001594:
00001594  6000 EAC8                bra        -0x1536 /* 0000005E */
fn00001598:
00001598  6000 EB54                bra        -0x14AA /* 000000EE */
fn0000159C:
0000159C  6000 EAD0                bra        -0x152E /* 0000006E */
fn000015A0:
000015A0  6000 EB70                bra        -0x148E /* 00000112 */
fn000015A4:
000015A4  4E56 FF00                link       A6, -0x0100
000015A8  2F0C                     move.l     -[A7], A4
000015AA  49EE FF00                lea.l      A4, [A6 - 0x100]
000015AE  2F2E 0008                move.l     -[A7], [A6 + 0x8]
000015B2  2F0C                     move.l     -[A7], A4
000015B4  4EBA 78F0                jsr        [PC + 0x78F0 /* 00008EA6 */]
000015B8  2F0C                     move.l     -[A7], A4
000015BA  487A 0038                pea.l      [PC + 0x38 /* 000015F4, value 0x4E56 'NV', cstring "" */]
000015BE  487A 0032                pea.l      [PC + 0x32 /* 000015F2, value 0x0, cstring "" */]
000015C2  487A 002C                pea.l      [PC + 0x2C /* 000015F0, value 0x0, cstring "" */]
000015C6  A98B                     syscall    ParamText
000015C8  558F                     subq.l     A7, 2
000015CA  7001                     moveq.l    D0, 0x01
000015CC  1F00                     move.b     -[A7], D0
000015CE  487A 0012                pea.l      [PC + 0x12 /* 000015E2, value 0xB444954, pstring "DITL alerts" */]
000015D2  3F2E 000E                move.w     -[A7], [A6 + 0xE]
000015D6  4EBA EB2E                jsr        [PC - 0x14D2 /* 00000106 */]
000015DA  286E FEFC                movea.l    A4, [A6 - 0x104]
000015DE  4E5E                     unlink     A6
000015E0  4E75                     rts
000015E2  0B44                     bchg       D4, D5
000015E4  4954                     chk.w      D4, [A4]
000015E6  4C20 616C                mulu.l     D6, -[A0]
000015EA  6572                     bcs        +0x74 /* 0000165E */
000015EC  7473                     moveq.l    D2, 0x73
000015EE  0000 0000                ori.b      D0, 0x0
000015F2  0000 0000                ori.b      D0, 0x0
fn000015F6:
000015F6  4E56 FFE8                link       A6, -0x0018
000015FA  48E7 0F18                movem.l    -[A7], D4,D5,D6,D7,A3,A4
000015FE  598F                     subq.l     A7, 4
00001600  2F2E 0008                move.l     -[A7], [A6 + 0x8]
00001604  4EBA 76E2                jsr        [PC + 0x76E2 /* 00008CE8 */]
00001608  2D5F FFFC                move.l     [A6 - 0x4], [A7]+
0000160C  206E 0008                movea.l    A0, [A6 + 0x8]
00001610  2850                     movea.l    A4, [A0]
00001612  3014                     move.w     D0, [A4]
00001614  5240                     addq.w     D0, 1
00001616  3D40 FFF2                move.w     [A6 - 0xE], D0
0000161A  7002                     moveq.l    D0, 0x02
0000161C  2D40 FFF4                move.l     [A6 - 0xC], D0
00001620  7200                     moveq.l    D1, 0x00
00001622  2D41 FFF8                move.l     [A6 - 0x8], D1
00001626  422E FFF1                clr.b      [A6 - 0xF]
0000162A  7E01                     moveq.l    D7, 0x01
0000162C  6000 0184                bra        +0x186 /* 000017B2 */
label00001630:
00001630  486E FFF8                pea.l      [A6 - 0x8]
00001634  486E FFF4                pea.l      [A6 - 0xC]
00001638  48C7                     ext.l      D7
0000163A  2F07                     move.l     -[A7], D7
0000163C  2F2E 0008                move.l     -[A7], [A6 + 0x8]
00001640  4EBA 7340                jsr        [PC + 0x7340 /* 00008982 */]
00001644  202E FFF4                move.l     D0, [A6 - 0xC]
00001648  B0AE FFFC                cmp.l      D0, [A6 - 0x4]
0000164C  4FEF 0010                lea.l      A7, [A7 + 0x10]
00001650  6D1A                     blt        +0x1C /* 0000166C */
00001652  558F                     subq.l     A7, 2
00001654  7001                     moveq.l    D0, 0x01
00001656  1F00                     move.b     -[A7], D0
00001658  487A 01C2                pea.l      [PC + 0x1C2 /* 0000181C, value 0xB444954, pstring "DITL alerts" */]
0000165C  7205                     moveq.l    D1, 0x05
label0000165E:
0000165E  3F01                     move.w     -[A7], D1
00001660  4EBA EAA4                jsr        [PC - 0x155C /* 00000106 */]
00001664  7000                     moveq.l    D0, 0x00
00001666  544F                     addq.w     A7, 2
00001668  6000 01A8                bra        +0x1AA /* 00001812 */
label0000166C:
0000166C  202E FFF4                move.l     D0, [A6 - 0xC]
00001670  47F4 0800                lea.l      A3, [A4 + D0]
00001674  4A2E 000F                tst.b      [A6 + 0xF]
00001678  6718                     beq        +0x1A /* 00001692 */
0000167A  4A93                     tst.l      [A3]
0000167C  6714                     beq        +0x16 /* 00001692 */
0000167E  7007                     moveq.l    D0, 0x07
00001680  2F00                     move.l     -[A7], D0
00001682  48C7                     ext.l      D7
00001684  2F07                     move.l     -[A7], D7
00001686  4EBA FF1C                jsr        [PC - 0xE4 /* 000015A4 */]
0000168A  7000                     moveq.l    D0, 0x00
0000168C  504F                     addq.w     A7, 8
0000168E  6000 0182                bra        +0x184 /* 00001812 */
label00001692:
00001692  7000                     moveq.l    D0, 0x00
00001694  102B 000C                move.b     D0, [A3 + 0xC]
00001698  323C FF7F                move.w     D1, 0xFF7F
0000169C  C240                     and.w      D1, D0
0000169E  6700 010E                beq        +0x110 /* 000017AE */
000016A2  5341                     subq.w     D1, 1
000016A4  6754                     beq        +0x56 /* 000016FA */
000016A6  5741                     subq.w     D1, 3
000016A8  6700 0104                beq        +0x106 /* 000017AE */
000016AC  5341                     subq.w     D1, 1
000016AE  6700 00FE                beq        +0x100 /* 000017AE */
000016B2  5341                     subq.w     D1, 1
000016B4  6700 00F8                beq        +0xFA /* 000017AE */
000016B8  5341                     subq.w     D1, 1
000016BA  6748                     beq        +0x4A /* 00001704 */
000016BC  5341                     subq.w     D1, 1
000016BE  6718                     beq        +0x1A /* 000016D8 */
000016C0  5141                     subq.w     D1, 8
000016C2  6714                     beq        +0x16 /* 000016D8 */
000016C4  0441 0010                subi.w     D1, 0x10
000016C8  6700 00B4                beq        +0xB6 /* 0000177E */
000016CC  0441 0020                subi.w     D1, 0x20 /* ' ' */
000016D0  6700 00AC                beq        +0xAE /* 0000177E */
000016D4  6000 00C6                bra        +0xC8 /* 0000179C */
label000016D8:
000016D8  7000                     moveq.l    D0, 0x00
000016DA  102B 000D                move.b     D0, [A3 + 0xD]
000016DE  0C00 00F0                cmpi.b     D0, 0xF0
000016E2  6300 00CA                bls        +0xCC /* 000017AE */
000016E6  700D                     moveq.l    D0, 0x0D
000016E8  2F00                     move.l     -[A7], D0
000016EA  48C7                     ext.l      D7
000016EC  2F07                     move.l     -[A7], D7
000016EE  4EBA FEB4                jsr        [PC - 0x14C /* 000015A4 */]
000016F2  7000                     moveq.l    D0, 0x00
000016F4  504F                     addq.w     A7, 8
000016F6  6000 011A                bra        +0x11C /* 00001812 */
label000016FA:
000016FA  1D7C 0001 FFF1           move.b     [A6 - 0xF], 0x1
00001700  6000 00AC                bra        +0xAE /* 000017AE */
label00001704:
00001704  558F                     subq.l     A7, 2
00001706  2F2E 0008                move.l     -[A7], [A6 + 0x8]
0000170A  A9A4                     syscall    HomeResFile
0000170C  3C1F                     move.w     D6, [A7]+
0000170E  598F                     subq.l     A7, 4
00001710  3F06                     move.w     -[A7], D6
00001712  2F3C 434E 544C           move.l     -[A7], 0x434E544C /* 'CNTL' */
00001718  3F2B 000E                move.w     -[A7], [A3 + 0xE]
0000171C  4EBA E940                jsr        [PC - 0x16C0 /* 0000005E */]
00001720  2D5F FFEC                move.l     [A6 - 0x14], [A7]+
00001724  6758                     beq        +0x5A /* 0000177E */
00001726  206E FFEC                movea.l    A0, [A6 - 0x14]
0000172A  4A90                     tst.l      [A0]
0000172C  6750                     beq        +0x52 /* 0000177E */
0000172E  2050                     movea.l    A0, [A0]
00001730  3828 0010                move.w     D4, [A0 + 0x10]
00001734  0C44 03F0                cmpi.w     D4, 0x3F0
00001738  6644                     bne        +0x46 /* 0000177E */
0000173A  206E FFEC                movea.l    A0, [A6 - 0x14]
0000173E  2050                     movea.l    A0, [A0]
00001740  3A28 000E                move.w     D5, [A0 + 0xE]
00001744  7000                     moveq.l    D0, 0x00
00001746  1F00                     move.b     -[A7], D0
00001748  A99B                     syscall    SetResLoad
0000174A  598F                     subq.l     A7, 4
0000174C  3F06                     move.w     -[A7], D6
0000174E  2F3C 4D45 4E55           move.l     -[A7], 0x4D454E55 /* 'MENU' */
00001754  3F05                     move.w     -[A7], D5
00001756  4EBA E906                jsr        [PC - 0x16FA /* 0000005E */]
0000175A  2D5F FFE8                move.l     [A6 - 0x18], [A7]+
0000175E  7001                     moveq.l    D0, 0x01
00001760  1F00                     move.b     -[A7], D0
00001762  A99B                     syscall    SetResLoad
00001764  4AAE FFE8                tst.l      [A6 - 0x18]
00001768  6614                     bne        +0x16 /* 0000177E */
0000176A  700E                     moveq.l    D0, 0x0E
0000176C  2F00                     move.l     -[A7], D0
0000176E  48C5                     ext.l      D5
00001770  2F05                     move.l     -[A7], D5
00001772  4EBA FE30                jsr        [PC - 0x1D0 /* 000015A4 */]
00001776  7000                     moveq.l    D0, 0x00
00001778  504F                     addq.w     A7, 8
0000177A  6000 0096                bra        +0x98 /* 00001812 */
label0000177E:
0000177E  7000                     moveq.l    D0, 0x00
00001780  102B 000D                move.b     D0, [A3 + 0xD]
00001784  0C40 0002                cmpi.w     D0, 0x2
00001788  6724                     beq        +0x26 /* 000017AE */
0000178A  7008                     moveq.l    D0, 0x08
0000178C  2F00                     move.l     -[A7], D0
0000178E  48C7                     ext.l      D7
00001790  2F07                     move.l     -[A7], D7
00001792  4EBA FE10                jsr        [PC - 0x1F0 /* 000015A4 */]
00001796  7000                     moveq.l    D0, 0x00
00001798  504F                     addq.w     A7, 8
0000179A  6076                     bra        +0x78 /* 00001812 */
label0000179C:
0000179C  7009                     moveq.l    D0, 0x09
0000179E  2F00                     move.l     -[A7], D0
000017A0  48C7                     ext.l      D7
000017A2  2F07                     move.l     -[A7], D7
000017A4  4EBA FDFE                jsr        [PC - 0x202 /* 000015A4 */]
000017A8  7000                     moveq.l    D0, 0x00
000017AA  504F                     addq.w     A7, 8
000017AC  6064                     bra        +0x66 /* 00001812 */
label000017AE:
000017AE  3007                     move.w     D0, D7
000017B0  5247                     addq.w     D7, 1
label000017B2:
000017B2  BE6E FFF2                cmp.w      D7, [A6 - 0xE]
000017B6  6F00 FE78                ble        -0x186 /* 00001630 */
000017BA  202E FFF8                move.l     D0, [A6 - 0x8]
000017BE  D0AE FFF4                add.l      D0, [A6 - 0xC]
000017C2  B0AE FFFC                cmp.l      D0, [A6 - 0x4]
000017C6  6F1C                     ble        +0x1E /* 000017E4 */
000017C8  700B                     moveq.l    D0, 0x0B
000017CA  2F00                     move.l     -[A7], D0
000017CC  222E FFF8                move.l     D1, [A6 - 0x8]
000017D0  D2AE FFF4                add.l      D1, [A6 - 0xC]
000017D4  92AE FFFC                sub.l      D1, [A6 - 0x4]
000017D8  2F01                     move.l     -[A7], D1
000017DA  4EBA FDC8                jsr        [PC - 0x238 /* 000015A4 */]
000017DE  7000                     moveq.l    D0, 0x00
000017E0  504F                     addq.w     A7, 8
000017E2  602E                     bra        +0x30 /* 00001812 */
label000017E4:
000017E4  202E FFF8                move.l     D0, [A6 - 0x8]
000017E8  D0AE FFF4                add.l      D0, [A6 - 0xC]
000017EC  B0AE FFFC                cmp.l      D0, [A6 - 0x4]
000017F0  6C1E                     bge        +0x20 /* 00001810 */
000017F2  700A                     moveq.l    D0, 0x0A
000017F4  2F00                     move.l     -[A7], D0
000017F6  222E FFF8                move.l     D1, [A6 - 0x8]
000017FA  D2AE FFF4                add.l      D1, [A6 - 0xC]
000017FE  242E FFFC                move.l     D2, [A6 - 0x4]
00001802  9481                     sub.l      D2, D1
00001804  2F02                     move.l     -[A7], D2
00001806  4EBA FD9C                jsr        [PC - 0x264 /* 000015A4 */]
0000180A  7000                     moveq.l    D0, 0x00
0000180C  504F                     addq.w     A7, 8
0000180E  6002                     bra        +0x4 /* 00001812 */
label00001810:
00001810  7001                     moveq.l    D0, 0x01
label00001812:
00001812  4CEE 18F0 FFD0           movem.l    D4,D5,D6,D7,A3,A4, [A6 - 0x30]
00001818  4E5E                     unlink     A6
0000181A  4E75                     rts
0000181C  0B44                     bchg       D4, D5
0000181E  4954                     chk.w      D4, [A4]
00001820  4C20 616C                mulu.l     D6, -[A0]
00001824  6572                     bcs        +0x74 /* 00001898 */
00001826  7473                     moveq.l    D2, 0x73
00001828  0000 4E56                ori.b      D0, 0x56 /* 'V' */
// begin alternate branch 0000182A-0000182E
label0000182A:
0000182A  4E56 FFFC                link       A6, -0x0004
// end alternate branch 0000182A-0000182E
label0000182A: // (misaligned)
0000182C  FFFC                     .invalid   <<F/7/7>>
0000182E  48E7 1718                movem.l    -[A7], D3,D5,D6,D7,A3,A4
00001832  266E 000C                movea.l    A3, [A6 + 0xC]
00001836  286E 0008                movea.l    A4, [A6 + 0x8]
0000183A  2054                     movea.l    A0, [A4]
0000183C  2068 015E                movea.l    A0, [A0 + 0x15E]
00001840  A069                     syscall    HGetState
00001842  1A00                     move.b     D5, D0
00001844  204C                     movea.l    A0, A4
00001846  A069                     syscall    HGetState
00001848  1C00                     move.b     D6, D0
0000184A  204C                     movea.l    A0, A4
0000184C  A02A                     syscall    HUnlock
0000184E  2F0C                     move.l     -[A7], A4
00001850  4EBA E7FC                jsr        [PC - 0x1804 /* 0000004E */]
00001854  204C                     movea.l    A0, A4
00001856  A029                     syscall    HLock
00001858  2054                     movea.l    A0, [A4]
0000185A  2068 015E                movea.l    A0, [A0 + 0x15E]
0000185E  A02A                     syscall    HUnlock
00001860  2054                     movea.l    A0, [A4]
00001862  2F28 015E                move.l     -[A7], [A0 + 0x15E]
00001866  4EBA E7E6                jsr        [PC - 0x181A /* 0000004E */]
0000186A  2054                     movea.l    A0, [A4]
0000186C  2068 015E                movea.l    A0, [A0 + 0x15E]
00001870  A029                     syscall    HLock
00001872  2054                     movea.l    A0, [A4]
00001874  2F28 0104                move.l     -[A7], [A0 + 0x104]
00001878  A873                     syscall    SetPort
0000187A  3013                     move.w     D0, [A3]
0000187C  6B00 00F6                bmi        +0xF8 /* 00001974 */
00001880  0C40 000C                cmpi.w     D0, 0xC
00001884  6E00 00EE                bgt        +0xF0 /* 00001974 */
00001888  D040                     add.w      D0, D0
0000188A  303B 0006                move.w     D0, [PC + D0.w + 0x6]
0000188E  4EFB 0000                jmp        [PC + D0.w]
00001892  0056 001C                ori.w      [A6], 0x1C
00001896  00E4                     .incomplete
label00001898:
00001898  0048 00E4                ori.w      A0, 0xE4
0000189C  00E4                     .incomplete
0000189E  0038 00E4 002A           ori.b      [0x0000002A], 0xE4
000018A4  00E4                     .incomplete
000018A6  00E4                     .incomplete
000018A8  00E4                     .incomplete
000018AA  00CA                     .incomplete
000018AC  2F0B                     move.l     -[A7], A3
000018AE  2F0C                     move.l     -[A7], A4
000018B0  4EBA 06B6                jsr        [PC + 0x6B6 /* 00001F68 */]
000018B4  504F                     addq.w     A7, 8
000018B6  6000 00BC                bra        +0xBE /* 00001974 */
000018BA  2F0B                     move.l     -[A7], A3
000018BC  2F0C                     move.l     -[A7], A4
000018BE  4EBA 1D64                jsr        [PC + 0x1D64 /* 00003624 */]
000018C2  504F                     addq.w     A7, 8
000018C4  6000 00AE                bra        +0xB0 /* 00001974 */
000018C8  2F2B 0002                move.l     -[A7], [A3 + 0x2]
000018CC  2F0C                     move.l     -[A7], A4
000018CE  4EBA 1894                jsr        [PC + 0x1894 /* 00003164 */]
000018D2  504F                     addq.w     A7, 8
000018D4  6000 009E                bra        +0xA0 /* 00001974 */
000018D8  2F0B                     move.l     -[A7], A3
000018DA  2F0C                     move.l     -[A7], A4
000018DC  4EBA 238A                jsr        [PC + 0x238A /* 00003C68 */]
000018E0  504F                     addq.w     A7, 8
000018E2  6000 0090                bra        +0x92 /* 00001974 */
000018E6  486E FFFE                pea.l      [A6 - 0x2]
000018EA  486E FFFD                pea.l      [A6 - 0x3]
000018EE  486E FFFF                pea.l      [A6 - 0x1]
000018F2  4EBA E7C6                jsr        [PC - 0x183A /* 000000BA */]
000018F6  4A2E FFFF                tst.b      [A6 - 0x1]
000018FA  6708                     beq        +0xA /* 00001904 */
000018FC  2054                     movea.l    A0, [A4]
000018FE  4A68 01D4                tst.w      [A0 + 0x1D4]
00001902  670E                     beq        +0x10 /* 00001912 */
label00001904:
00001904  4A2E FFFF                tst.b      [A6 - 0x1]
00001908  6642                     bne        +0x44 /* 0000194C */
0000190A  2054                     movea.l    A0, [A4]
0000190C  4A68 01D4                tst.w      [A0 + 0x1D4]
00001910  673A                     beq        +0x3C /* 0000194C */
label00001912:
00001912  2054                     movea.l    A0, [A4]
00001914  4A68 01D4                tst.w      [A0 + 0x1D4]
00001918  57C3                     seq        D3
0000191A  4403                     neg.b      D3
0000191C  4883                     ext.w      D3
0000191E  3143 01D4                move.w     [A0 + 0x1D4], D3
00001922  7E01                     moveq.l    D7, 0x01
00001924  601E                     bra        +0x20 /* 00001944 */
label00001926:
00001926  7000                     moveq.l    D0, 0x00
00001928  2F00                     move.l     -[A7], D0
0000192A  7201                     moveq.l    D1, 0x01
0000192C  2F01                     move.l     -[A7], D1
0000192E  2F01                     move.l     -[A7], D1
00001930  2F00                     move.l     -[A7], D0
00001932  48C7                     ext.l      D7
00001934  2F07                     move.l     -[A7], D7
00001936  2F0C                     move.l     -[A7], A4
00001938  4EBA 3EDE                jsr        [PC + 0x3EDE /* 00005818 */]
0000193C  4FEF 0018                lea.l      A7, [A7 + 0x18]
00001940  3007                     move.w     D0, D7
00001942  5247                     addq.w     D7, 1
label00001944:
00001944  2054                     movea.l    A0, [A4]
00001946  BE68 0150                cmp.w      D7, [A0 + 0x150]
0000194A  6FDA                     ble        -0x24 /* 00001926 */
label0000194C:
0000194C  7000                     moveq.l    D0, 0x00
0000194E  2F00                     move.l     -[A7], D0
00001950  2F0C                     move.l     -[A7], A4
00001952  4EBA 1AD2                jsr        [PC + 0x1AD2 /* 00003426 */]
00001956  504F                     addq.w     A7, 8
00001958  601A                     bra        +0x1C /* 00001974 */
0000195A  302B 0008                move.w     D0, [A3 + 0x8]
0000195E  48C0                     ext.l      D0
00001960  2F00                     move.l     -[A7], D0
00001962  302B 0004                move.w     D0, [A3 + 0x4]
00001966  48C0                     ext.l      D0
00001968  2F00                     move.l     -[A7], D0
0000196A  2F0C                     move.l     -[A7], A4
0000196C  4EBA 26D8                jsr        [PC + 0x26D8 /* 00004046 */]
00001970  4FEF 000C                lea.l      A7, [A7 + 0xC]
label00001974:
00001974  2054                     movea.l    A0, [A4]
00001976  2068 015E                movea.l    A0, [A0 + 0x15E]
0000197A  1005                     move.b     D0, D5
0000197C  A06A                     syscall    HSetState
0000197E  204C                     movea.l    A0, A4
00001980  1006                     move.b     D0, D6
00001982  A06A                     syscall    HSetState
00001984  4CEE 18E8 FFE4           movem.l    D3,D5,D6,D7,A3,A4, [A6 - 0x1C]
0000198A  4E5E                     unlink     A6
0000198C  205F                     movea.l    A0, [A7]+
0000198E  504F                     addq.w     A7, 8
00001990  4ED0                     jmp        [A0]
label00001992:
00001992  4E56 FE00                link       A6, -0x0200
00001996  48E7 0118                movem.l    -[A7], D7,A3,A4
0000199A  47EE FF00                lea.l      A3, [A6 - 0x100]
0000199E  286E 0008                movea.l    A4, [A6 + 0x8]
000019A2  204C                     movea.l    A0, A4
000019A4  A069                     syscall    HGetState
000019A6  1E00                     move.b     D7, D0
000019A8  204C                     movea.l    A0, A4
000019AA  A02A                     syscall    HUnlock
000019AC  2F0C                     move.l     -[A7], A4
000019AE  4EBA E69E                jsr        [PC - 0x1962 /* 0000004E */]
000019B2  204C                     movea.l    A0, A4
000019B4  A029                     syscall    HLock
000019B6  7005                     moveq.l    D0, 0x05
000019B8  2F00                     move.l     -[A7], D0
000019BA  2F0B                     move.l     -[A7], A3
000019BC  487A 0092                pea.l      [PC + 0x92 /* 00001A50, value 0x4444954, pstring "DITL" */]
000019C0  4EBA 7054                jsr        [PC + 0x7054 /* 00008A16 */]
000019C4  2054                     movea.l    A0, [A4]
000019C6  2F28 0114                move.l     -[A7], [A0 + 0x114]
000019CA  2F0B                     move.l     -[A7], A3
000019CC  4EBA E718                jsr        [PC - 0x18E8 /* 000000E6 */]
000019D0  7000                     moveq.l    D0, 0x00
000019D2  1013                     move.b     D0, [A3]
000019D4  5240                     addq.w     D0, 1
000019D6  48C0                     ext.l      D0
000019D8  2F00                     move.l     -[A7], D0
000019DA  486E FE00                pea.l      [A6 - 0x200]
000019DE  2F0B                     move.l     -[A7], A3
000019E0  4EBA 7034                jsr        [PC + 0x7034 /* 00008A16 */]
000019E4  486E FE00                pea.l      [A6 - 0x200]
000019E8  2F0B                     move.l     -[A7], A3
000019EA  7001                     moveq.l    D0, 0x01
000019EC  1F00                     move.b     -[A7], D0
000019EE  2054                     movea.l    A0, [A4]
000019F0  2F10                     move.l     -[A7], [A0]
000019F2  4EBA E742                jsr        [PC - 0x18BE /* 00000136 */]
000019F6  7000                     moveq.l    D0, 0x00
000019F8  1013                     move.b     D0, [A3]
000019FA  5240                     addq.w     D0, 1
000019FC  48C0                     ext.l      D0
000019FE  2F00                     move.l     -[A7], D0
00001A00  2054                     movea.l    A0, [A4]
00001A02  4868 0004                pea.l      [A0 + 0x4]
00001A06  2F0B                     move.l     -[A7], A3
00001A08  4EBA 700C                jsr        [PC + 0x700C /* 00008A16 */]
00001A0C  2054                     movea.l    A0, [A4]
00001A0E  2F28 0104                move.l     -[A7], [A0 + 0x104]
00001A12  486E FE00                pea.l      [A6 - 0x200]
00001A16  A91A                     syscall    SetWTitle
00001A18  2054                     movea.l    A0, [A4]
00001A1A  2050                     movea.l    A0, [A0]
00001A1C  2050                     movea.l    A0, [A0]
00001A1E  117C 0001 0108           move.b     [A0 + 0x108], 0x1
00001A24  2F2E 000C                move.l     -[A7], [A6 + 0xC]
00001A28  2054                     movea.l    A0, [A4]
00001A2A  2F10                     move.l     -[A7], [A0]
00001A2C  2050                     movea.l    A0, [A0]
00001A2E  2050                     movea.l    A0, [A0]
00001A30  2068 0104                movea.l    A0, [A0 + 0x104]
00001A34  3F28 006C                move.w     -[A7], [A0 + 0x6C]
00001A38  4EBA E6B8                jsr        [PC - 0x1948 /* 000000F2 */]
00001A3C  204C                     movea.l    A0, A4
00001A3E  1007                     move.b     D0, D7
00001A40  A06A                     syscall    HSetState
00001A42  4CEE 1880 FDF4           movem.l    D7,A3,A4, [A6 - 0x20C]
00001A48  4E5E                     unlink     A6
00001A4A  205F                     movea.l    A0, [A7]+
00001A4C  504F                     addq.w     A7, 8
00001A4E  4ED0                     jmp        [A0]
00001A50  0444 4954                subi.w     D4, 0x4954 /* 'IT' */
00001A54  4C00 4E56                muls.l     D6:D4, D0
// begin alternate branch 00001A56-00001A5C
fn00001A56:
00001A56  4E56 0000                link       A6, 0
00001A5A  2F0C                     move.l     -[A7], A4
// end alternate branch 00001A56-00001A5C
fn00001A56: // (misaligned)
00001A58  0000 2F0C                ori.b      D0, 0xC
00001A5C  286E 0008                movea.l    A4, [A6 + 0x8]
00001A60  2F0C                     move.l     -[A7], A4
00001A62  4EBA E5EA                jsr        [PC - 0x1A16 /* 0000004E */]
00001A66  204C                     movea.l    A0, A4
00001A68  A029                     syscall    HLock
00001A6A  2054                     movea.l    A0, [A4]
00001A6C  4AA8 012C                tst.l      [A0 + 0x12C]
00001A70  6724                     beq        +0x26 /* 00001A96 */
00001A72  2068 012C                movea.l    A0, [A0 + 0x12C]
00001A76  2050                     movea.l    A0, [A0]
00001A78  2F28 0104                move.l     -[A7], [A0 + 0x104]
00001A7C  A92D                     syscall    CloseWindow
00001A7E  2054                     movea.l    A0, [A4]
00001A80  2068 012C                movea.l    A0, [A0 + 0x12C]
00001A84  2050                     movea.l    A0, [A0]
00001A86  2F28 0104                move.l     -[A7], [A0 + 0x104]
00001A8A  4EBA E686                jsr        [PC - 0x197A /* 00000112 */]
00001A8E  2054                     movea.l    A0, [A4]
00001A90  2068 012C                movea.l    A0, [A0 + 0x12C]
00001A94  A023                     syscall    DisposHandle/DisposeHandle
label00001A96:
00001A96  2F0C                     move.l     -[A7], A4
00001A98  4EBA 6E6A                jsr        [PC + 0x6E6A /* 00008904 */]
00001A9C  2F0C                     move.l     -[A7], A4
00001A9E  4EBA 6EA4                jsr        [PC + 0x6EA4 /* 00008944 */]
00001AA2  7002                     moveq.l    D0, 0x02
00001AA4  3F00                     move.w     -[A7], D0
00001AA6  7204                     moveq.l    D1, 0x04
00001AA8  3F01                     move.w     -[A7], D1
00001AAA  2F0C                     move.l     -[A7], A4
00001AAC  4EBA E648                jsr        [PC - 0x19B8 /* 000000F6 */]
00001AB0  2054                     movea.l    A0, [A4]
00001AB2  4AA8 0166                tst.l      [A0 + 0x166]
00001AB6  504F                     addq.w     A7, 8
00001AB8  6706                     beq        +0x8 /* 00001AC0 */
00001ABA  2068 0166                movea.l    A0, [A0 + 0x166]
00001ABE  A023                     syscall    DisposHandle/DisposeHandle
label00001AC0:
00001AC0  2F0C                     move.l     -[A7], A4
00001AC2  4EBA 124A                jsr        [PC + 0x124A /* 00002D0E */]
00001AC6  2054                     movea.l    A0, [A4]
00001AC8  4A28 0109                tst.b      [A0 + 0x109]
00001ACC  584F                     addq.w     A7, 4
00001ACE  6718                     beq        +0x1A /* 00001AE8 */
00001AD0  2050                     movea.l    A0, [A0]
00001AD2  2050                     movea.l    A0, [A0]
00001AD4  7000                     moveq.l    D0, 0x00
00001AD6  1028 010A                move.b     D0, [A0 + 0x10A]
00001ADA  0C40 0005                cmpi.w     D0, 0x5
00001ADE  6708                     beq        +0xA /* 00001AE8 */
00001AE0  2054                     movea.l    A0, [A4]
00001AE2  2F28 0114                move.l     -[A7], [A0 + 0x114]
00001AE6  A9A3                     syscall    ReleaseResource
label00001AE8:
00001AE8  2054                     movea.l    A0, [A4]
00001AEA  4AA8 0162                tst.l      [A0 + 0x162]
00001AEE  6706                     beq        +0x8 /* 00001AF6 */
00001AF0  2068 0162                movea.l    A0, [A0 + 0x162]
00001AF4  A023                     syscall    DisposHandle/DisposeHandle
label00001AF6:
00001AF6  2054                     movea.l    A0, [A4]
00001AF8  4AA8 0124                tst.l      [A0 + 0x124]
00001AFC  6706                     beq        +0x8 /* 00001B04 */
00001AFE  2068 0124                movea.l    A0, [A0 + 0x124]
00001B02  A023                     syscall    DisposHandle/DisposeHandle
label00001B04:
00001B04  2054                     movea.l    A0, [A4]
00001B06  4AA8 0130                tst.l      [A0 + 0x130]
00001B0A  6706                     beq        +0x8 /* 00001B12 */
00001B0C  2068 0130                movea.l    A0, [A0 + 0x130]
00001B10  A023                     syscall    DisposHandle/DisposeHandle
label00001B12:
00001B12  2054                     movea.l    A0, [A4]
00001B14  4AA8 0134                tst.l      [A0 + 0x134]
00001B18  6706                     beq        +0x8 /* 00001B20 */
00001B1A  2068 0134                movea.l    A0, [A0 + 0x134]
00001B1E  A023                     syscall    DisposHandle/DisposeHandle
label00001B20:
00001B20  2054                     movea.l    A0, [A4]
00001B22  4AA8 0140                tst.l      [A0 + 0x140]
00001B26  6706                     beq        +0x8 /* 00001B2E */
00001B28  2068 0140                movea.l    A0, [A0 + 0x140]
00001B2C  A023                     syscall    DisposHandle/DisposeHandle
label00001B2E:
00001B2E  2054                     movea.l    A0, [A4]
00001B30  4AA8 0144                tst.l      [A0 + 0x144]
00001B34  6706                     beq        +0x8 /* 00001B3C */
00001B36  2068 0144                movea.l    A0, [A0 + 0x144]
00001B3A  A023                     syscall    DisposHandle/DisposeHandle
label00001B3C:
00001B3C  2054                     movea.l    A0, [A4]
00001B3E  4AA8 0104                tst.l      [A0 + 0x104]
00001B42  672C                     beq        +0x2E /* 00001B70 */
00001B44  2F0C                     move.l     -[A7], A4
00001B46  4EBA E732                jsr        [PC - 0x18CE /* 0000027A */]
00001B4A  2054                     movea.l    A0, [A4]
00001B4C  2F28 0104                move.l     -[A7], [A0 + 0x104]
00001B50  A982                     syscall    CloseDialog
00001B52  2054                     movea.l    A0, [A4]
00001B54  2068 0104                movea.l    A0, [A0 + 0x104]
00001B58  2068 009C                movea.l    A0, [A0 + 0x9C]
00001B5C  A023                     syscall    DisposHandle/DisposeHandle
00001B5E  2F0C                     move.l     -[A7], A4
00001B60  4EBA E74C                jsr        [PC - 0x18B4 /* 000002AE */]
00001B64  2054                     movea.l    A0, [A4]
00001B66  2F28 0104                move.l     -[A7], [A0 + 0x104]
00001B6A  4EBA E5A6                jsr        [PC - 0x1A5A /* 00000112 */]
00001B6E  504F                     addq.w     A7, 8
label00001B70:
00001B70  2054                     movea.l    A0, [A4]
00001B72  4AA8 01D8                tst.l      [A0 + 0x1D8]
00001B76  6706                     beq        +0x8 /* 00001B7E */
00001B78  2068 01D8                movea.l    A0, [A0 + 0x1D8]
00001B7C  A023                     syscall    DisposHandle/DisposeHandle
label00001B7E:
00001B7E  2F0C                     move.l     -[A7], A4
00001B80  4EBA E7B4                jsr        [PC - 0x184C /* 00000336 */]
00001B84  2054                     movea.l    A0, [A4]
00001B86  4AA8 015E                tst.l      [A0 + 0x15E]
00001B8A  584F                     addq.w     A7, 4
00001B8C  6706                     beq        +0x8 /* 00001B94 */
00001B8E  2068 015E                movea.l    A0, [A0 + 0x15E]
00001B92  A023                     syscall    DisposHandle/DisposeHandle
label00001B94:
00001B94  2054                     movea.l    A0, [A4]
00001B96  2050                     movea.l    A0, [A0]
00001B98  2050                     movea.l    A0, [A0]
00001B9A  117C 0001 0108           move.b     [A0 + 0x108], 0x1
00001BA0  204C                     movea.l    A0, A4
00001BA2  A023                     syscall    DisposHandle/DisposeHandle
00001BA4  286E FFFC                movea.l    A4, [A6 - 0x4]
00001BA8  4E5E                     unlink     A6
00001BAA  4E75                     rts
label00001BAC:
00001BAC  4E56 FFFC                link       A6, -0x0004
00001BB0  48E7 1718                movem.l    -[A7], D3,D5,D6,D7,A3,A4
00001BB4  3E2E 000C                move.w     D7, [A6 + 0xC]
00001BB8  286E 0008                movea.l    A4, [A6 + 0x8]
00001BBC  2054                     movea.l    A0, [A4]
00001BBE  2068 015E                movea.l    A0, [A0 + 0x15E]
00001BC2  A069                     syscall    HGetState
00001BC4  1A00                     move.b     D5, D0
00001BC6  204C                     movea.l    A0, A4
00001BC8  A069                     syscall    HGetState
00001BCA  1C00                     move.b     D6, D0
00001BCC  204C                     movea.l    A0, A4
00001BCE  A02A                     syscall    HUnlock
00001BD0  2F0C                     move.l     -[A7], A4
00001BD2  4EBA E47A                jsr        [PC - 0x1B86 /* 0000004E */]
00001BD6  204C                     movea.l    A0, A4
00001BD8  A029                     syscall    HLock
00001BDA  2054                     movea.l    A0, [A4]
00001BDC  2068 015E                movea.l    A0, [A0 + 0x15E]
00001BE0  A02A                     syscall    HUnlock
00001BE2  2054                     movea.l    A0, [A4]
00001BE4  2F28 015E                move.l     -[A7], [A0 + 0x15E]
00001BE8  4EBA E464                jsr        [PC - 0x1B9C /* 0000004E */]
00001BEC  2054                     movea.l    A0, [A4]
00001BEE  2068 015E                movea.l    A0, [A0 + 0x15E]
00001BF2  A029                     syscall    HLock
00001BF4  486E FFFE                pea.l      [A6 - 0x2]
00001BF8  486E FFFD                pea.l      [A6 - 0x3]
00001BFC  486E FFFF                pea.l      [A6 - 0x1]
00001C00  4EBA E4B8                jsr        [PC - 0x1B48 /* 000000BA */]
00001C04  302E 000E                move.w     D0, [A6 + 0xE]
00001C08  5540                     subq.w     D0, 2
00001C0A  6720                     beq        +0x22 /* 00001C2C */
00001C0C  5340                     subq.w     D0, 1
00001C0E  6700 008A                beq        +0x8C /* 00001C9A */
00001C12  0440 007D                subi.w     D0, 0x7D /* '}' */
00001C16  6700 0102                beq        +0x104 /* 00001D1A */
00001C1A  0440 0516                subi.w     D0, 0x516
00001C1E  6700 0154                beq        +0x156 /* 00001D74 */
00001C22  5340                     subq.w     D0, 1
00001C24  6700 0232                beq        +0x234 /* 00001E58 */
00001C28  6000 0270                bra        +0x272 /* 00001E9A */
label00001C2C:
00001C2C  3007                     move.w     D0, D7
00001C2E  5940                     subq.w     D0, 4
00001C30  670C                     beq        +0xE /* 00001C3E */
00001C32  5340                     subq.w     D0, 1
00001C34  6714                     beq        +0x16 /* 00001C4A */
00001C36  5140                     subq.w     D0, 8
00001C38  6722                     beq        +0x24 /* 00001C5C */
00001C3A  6000 025E                bra        +0x260 /* 00001E9A */
label00001C3E:
00001C3E  2F0C                     move.l     -[A7], A4
00001C40  4EBA FE14                jsr        [PC - 0x1EC /* 00001A56 */]
00001C44  584F                     addq.w     A7, 4
00001C46  6000 026A                bra        +0x26C /* 00001EB2 */
label00001C4A:
00001C4A  7002                     moveq.l    D0, 0x02
00001C4C  3F00                     move.w     -[A7], D0
00001C4E  7205                     moveq.l    D1, 0x05
00001C50  3F01                     move.w     -[A7], D1
00001C52  2F0C                     move.l     -[A7], A4
00001C54  4EBA E4A0                jsr        [PC - 0x1B60 /* 000000F6 */]
00001C58  6000 0248                bra        +0x24A /* 00001EA2 */
label00001C5C:
00001C5C  2054                     movea.l    A0, [A4]
00001C5E  2068 012C                movea.l    A0, [A0 + 0x12C]
00001C62  2050                     movea.l    A0, [A0]
00001C64  2068 0104                movea.l    A0, [A0 + 0x104]
00001C68  2668 0094                movea.l    A3, [A0 + 0x94]
00001C6C  2054                     movea.l    A0, [A4]
00001C6E  2068 012C                movea.l    A0, [A0 + 0x12C]
00001C72  2050                     movea.l    A0, [A0]
00001C74  2068 0104                movea.l    A0, [A0 + 0x104]
00001C78  7000                     moveq.l    D0, 0x00
00001C7A  2140 0094                move.l     [A0 + 0x94], D0
00001C7E  7000                     moveq.l    D0, 0x00
00001C80  2F00                     move.l     -[A7], D0
00001C82  4EBA E4EA                jsr        [PC - 0x1B16 /* 0000016E */]
00001C86  2054                     movea.l    A0, [A4]
00001C88  2068 012C                movea.l    A0, [A0 + 0x12C]
00001C8C  2050                     movea.l    A0, [A0]
00001C8E  2068 0104                movea.l    A0, [A0 + 0x104]
00001C92  214B 0094                move.l     [A0 + 0x94], A3
00001C96  6000 0202                bra        +0x204 /* 00001E9A */
label00001C9A:
00001C9A  3007                     move.w     D0, D7
00001C9C  5340                     subq.w     D0, 1
00001C9E  6B00 01FA                bmi        +0x1FC /* 00001E9A */
00001CA2  0C40 0008                cmpi.w     D0, 0x8
00001CA6  6E00 01F2                bgt        +0x1F4 /* 00001E9A */
00001CAA  D040                     add.w      D0, D0
00001CAC  303B 0006                move.w     D0, [PC + D0.w + 0x6]
00001CB0  4EFB 0000                jmp        [PC + D0.w]
00001CB4  0014 01E8                ori.b      [A4], 0xE8
00001CB8  0020 002C                ori.b      -[A0], 0x2C /* ',' */
00001CBC  0038 0044 01E8           ori.b      [0x000001E8], 0x44 /* 'D' */
00001CC2  0050 005C                ori.w      [A0], 0x5C /* '\\' */
00001CC6  2F0C                     move.l     -[A7], A4
00001CC8  4EBA 4CBA                jsr        [PC + 0x4CBA /* 00006984 */]
00001CCC  584F                     addq.w     A7, 4
00001CCE  6000 01CA                bra        +0x1CC /* 00001E9A */
00001CD2  2F0C                     move.l     -[A7], A4
00001CD4  4EBA 3004                jsr        [PC + 0x3004 /* 00004CDA */]
00001CD8  584F                     addq.w     A7, 4
00001CDA  6000 01BE                bra        +0x1C0 /* 00001E9A */
00001CDE  2F0C                     move.l     -[A7], A4
00001CE0  4EBA 3016                jsr        [PC + 0x3016 /* 00004CF8 */]
00001CE4  584F                     addq.w     A7, 4
00001CE6  6000 01B2                bra        +0x1B4 /* 00001E9A */
00001CEA  2F0C                     move.l     -[A7], A4
00001CEC  4EBA 31FE                jsr        [PC + 0x31FE /* 00004EEC */]
00001CF0  584F                     addq.w     A7, 4
00001CF2  6000 01A6                bra        +0x1A8 /* 00001E9A */
00001CF6  2F0C                     move.l     -[A7], A4
00001CF8  4EBA 1D44                jsr        [PC + 0x1D44 /* 00003A3E */]
00001CFC  584F                     addq.w     A7, 4
00001CFE  6000 019A                bra        +0x19C /* 00001E9A */
00001D02  2F0C                     move.l     -[A7], A4
00001D04  4EBA 33DC                jsr        [PC + 0x33DC /* 000050E2 */]
00001D08  584F                     addq.w     A7, 4
00001D0A  6000 018E                bra        +0x190 /* 00001E9A */
00001D0E  2F0C                     move.l     -[A7], A4
00001D10  4EBA 2E96                jsr        [PC + 0x2E96 /* 00004BA8 */]
00001D14  584F                     addq.w     A7, 4
00001D16  6000 0182                bra        +0x184 /* 00001E9A */
label00001D1A:
00001D1A  3007                     move.w     D0, D7
00001D1C  5540                     subq.w     D0, 2
00001D1E  6B00 017A                bmi        +0x17C /* 00001E9A */
00001D22  0C40 0006                cmpi.w     D0, 0x6
00001D26  6E00 0172                bgt        +0x174 /* 00001E9A */
00001D2A  D040                     add.w      D0, D0
00001D2C  303B 0006                move.w     D0, [PC + D0.w + 0x6]
00001D30  4EFB 0000                jmp        [PC + D0.w]
00001D34  0010 0010                ori.b      [A0], 0x10
00001D38  0010 0168                ori.b      [A0], 0x68 /* 'h' */
00001D3C  0020 0168                ori.b      -[A0], 0x68 /* 'h' */
00001D40  0032 48C7 2F07 2F0C 4EBA ori.b      [[A2 + <<invalid base displacement size>>] + D2 * 8 + 0x2F0C4EBA], 0xC7
00001D4A  06C4                     .incomplete
00001D4C  504F                     addq.w     A7, 8
00001D4E  6000 014A                bra        +0x14C /* 00001E9A */
00001D52  2F0C                     move.l     -[A7], A4
00001D54  4EBA 2EB8                jsr        [PC + 0x2EB8 /* 00004C0E */]
00001D58  4A00                     tst.b      D0
00001D5A  584F                     addq.w     A7, 4
00001D5C  6700 0154                beq        +0x156 /* 00001EB2 */
00001D60  6000 0138                bra        +0x13A /* 00001E9A */
00001D64  2054                     movea.l    A0, [A4]
00001D66  2F28 0114                move.l     -[A7], [A0 + 0x114]
00001D6A  2F0C                     move.l     -[A7], A4
00001D6C  4EBA E374                jsr        [PC - 0x1C8C /* 000000E2 */]
00001D70  6000 0128                bra        +0x12A /* 00001E9A */
label00001D74:
00001D74  3007                     move.w     D0, D7
00001D76  5340                     subq.w     D0, 1
00001D78  6B00 0120                bmi        +0x122 /* 00001E9A */
00001D7C  0C40 000D                cmpi.w     D0, 0xD /* '\r' */
00001D80  6E00 0118                bgt        +0x11A /* 00001E9A */
00001D84  D040                     add.w      D0, D0
00001D86  303B 0006                move.w     D0, [PC + D0.w + 0x6]
00001D8A  4EFB 0000                jmp        [PC + D0.w]
00001D8E  001E 002A                ori.b      [A6]+, 0x2A /* '*' */
00001D92  0036 0042 010E 0066      ori.b      [[A6 + <<invalid base displacement size>>] + D0 + 0x66], 0x42 /* 'B' */
00001D9A  008E 010E 00AE           ori.l      A6, 0x10E00AE
00001DA0  00A4 010E 00B8           ori.l      -[A4], 0x10E00B8
00001DA6  010E                     btst       A6, D0
00001DA8  00C2                     .incomplete
00001DAA  2F0C                     move.l     -[A7], A4
00001DAC  4EBA 2AC4                jsr        [PC + 0x2AC4 /* 00004872 */]
00001DB0  584F                     addq.w     A7, 4
00001DB2  6000 00E6                bra        +0xE8 /* 00001E9A */
00001DB6  2F0C                     move.l     -[A7], A4
00001DB8  4EBA 3476                jsr        [PC + 0x3476 /* 00005230 */]
00001DBC  584F                     addq.w     A7, 4
00001DBE  6000 00DA                bra        +0xDC /* 00001E9A */
00001DC2  2F0C                     move.l     -[A7], A4
00001DC4  4EBA 3824                jsr        [PC + 0x3824 /* 000055EA */]
00001DC8  584F                     addq.w     A7, 4
00001DCA  6000 00CE                bra        +0xD0 /* 00001E9A */
00001DCE  2054                     movea.l    A0, [A4]
00001DD0  4A68 01D2                tst.w      [A0 + 0x1D2]
00001DD4  57C3                     seq        D3
00001DD6  4403                     neg.b      D3
00001DD8  4883                     ext.w      D3
00001DDA  48C3                     ext.l      D3
00001DDC  2F03                     move.l     -[A7], D3
00001DDE  2F0C                     move.l     -[A7], A4
00001DE0  4EBA E852                jsr        [PC - 0x17AE /* 00000634 */]
00001DE4  2F0C                     move.l     -[A7], A4
00001DE6  4EBA E9DE                jsr        [PC - 0x1622 /* 000007C6 */]
00001DEA  4FEF 000C                lea.l      A7, [A7 + 0xC]
00001DEE  6000 00AA                bra        +0xAC /* 00001E9A */
00001DF2  2054                     movea.l    A0, [A4]
00001DF4  2068 0166                movea.l    A0, [A0 + 0x166]
00001DF8  2050                     movea.l    A0, [A0]
00001DFA  4A28 0006                tst.b      [A0 + 0x6]
00001DFE  57C3                     seq        D3
00001E00  4403                     neg.b      D3
00001E02  2054                     movea.l    A0, [A4]
00001E04  2068 0166                movea.l    A0, [A0 + 0x166]
00001E08  2050                     movea.l    A0, [A0]
00001E0A  1143 0006                move.b     [A0 + 0x6], D3
00001E0E  2F0C                     move.l     -[A7], A4
00001E10  4EBA E9B4                jsr        [PC - 0x164C /* 000007C6 */]
00001E14  584F                     addq.w     A7, 4
00001E16  6000 0082                bra        +0x84 /* 00001E9A */
00001E1A  2F0C                     move.l     -[A7], A4
00001E1C  4EBA 3BD6                jsr        [PC + 0x3BD6 /* 000059F4 */]
00001E20  2054                     movea.l    A0, [A4]
00001E22  2068 0104                movea.l    A0, [A0 + 0x104]
00001E26  4868 0010                pea.l      [A0 + 0x10]
00001E2A  A928                     syscall    InvalRect
00001E2C  584F                     addq.w     A7, 4
00001E2E  606A                     bra        +0x6C /* 00001E9A */
00001E30  2F0C                     move.l     -[A7], A4
00001E32  4EBA 43B8                jsr        [PC + 0x43B8 /* 000061EC */]
00001E36  584F                     addq.w     A7, 4
00001E38  6060                     bra        +0x62 /* 00001E9A */
00001E3A  2F0C                     move.l     -[A7], A4
00001E3C  4EBA 4226                jsr        [PC + 0x4226 /* 00006064 */]
00001E40  584F                     addq.w     A7, 4
00001E42  6056                     bra        +0x58 /* 00001E9A */
00001E44  2F0C                     move.l     -[A7], A4
00001E46  4EBA 5010                jsr        [PC + 0x5010 /* 00006E58 */]
00001E4A  584F                     addq.w     A7, 4
00001E4C  604C                     bra        +0x4E /* 00001E9A */
00001E4E  2F0C                     move.l     -[A7], A4
00001E50  4EBA 58BE                jsr        [PC + 0x58BE /* 00007710 */]
00001E54  584F                     addq.w     A7, 4
00001E56  6042                     bra        +0x44 /* 00001E9A */
label00001E58:
00001E58  3007                     move.w     D0, D7
00001E5A  5340                     subq.w     D0, 1
00001E5C  6B3C                     bmi        +0x3E /* 00001E9A */
00001E5E  0C40 0008                cmpi.w     D0, 0x8
00001E62  6E36                     bgt        +0x38 /* 00001E9A */
00001E64  D040                     add.w      D0, D0
00001E66  303B 0006                move.w     D0, [PC + D0.w + 0x6]
00001E6A  4EFB 0000                jmp        [PC + D0.w]
00001E6E  0014 0014                ori.b      [A4], 0x14
00001E72  0022 0022                ori.b      -[A2], 0x22 /* '\"' */
00001E76  0014 0022                ori.b      [A4], 0x22 /* '\"' */
00001E7A  002E 0022 0014           ori.b      [A6 + 0x14], 0x22 /* '\"' */
00001E80  48C7                     ext.l      D7
00001E82  2F07                     move.l     -[A7], D7
00001E84  2F0C                     move.l     -[A7], A4
00001E86  4EBA 3DCC                jsr        [PC + 0x3DCC /* 00005C54 */]
00001E8A  504F                     addq.w     A7, 8
00001E8C  600C                     bra        +0xE /* 00001E9A */
00001E8E  48C7                     ext.l      D7
00001E90  2F07                     move.l     -[A7], D7
00001E92  2F0C                     move.l     -[A7], A4
00001E94  4EBA 3FC8                jsr        [PC + 0x3FC8 /* 00005E5E */]
00001E98  504F                     addq.w     A7, 8
label00001E9A:
00001E9A  2F0C                     move.l     -[A7], A4
00001E9C  4EBA 09D0                jsr        [PC + 0x9D0 /* 0000286E */]
00001EA0  584F                     addq.w     A7, 4
label00001EA2:
00001EA2  2054                     movea.l    A0, [A4]
00001EA4  2068 015E                movea.l    A0, [A0 + 0x15E]
00001EA8  1005                     move.b     D0, D5
00001EAA  A06A                     syscall    HSetState
00001EAC  204C                     movea.l    A0, A4
00001EAE  1006                     move.b     D0, D6
00001EB0  A06A                     syscall    HSetState
label00001EB2:
00001EB2  4CEE 18E8 FFE4           movem.l    D3,D5,D6,D7,A3,A4, [A6 - 0x1C]
00001EB8  4E5E                     unlink     A6
00001EBA  205F                     movea.l    A0, [A7]+
00001EBC  504F                     addq.w     A7, 8
00001EBE  4ED0                     jmp        [A0]
fn00001EC0:
00001EC0  4E56 FFF8                link       A6, -0x0008
00001EC4  2F0C                     move.l     -[A7], A4
00001EC6  286E 0008                movea.l    A4, [A6 + 0x8]
00001ECA  2054                     movea.l    A0, [A4]
00001ECC  2F28 0104                move.l     -[A7], [A0 + 0x104]
00001ED0  A873                     syscall    SetPort
00001ED2  486E FFF8                pea.l      [A6 - 0x8]
00001ED6  A88B                     syscall    GetFontInfo
00001ED8  302E FFF8                move.w     D0, [A6 - 0x8]
00001EDC  5240                     addq.w     D0, 1
00001EDE  2054                     movea.l    A0, [A4]
00001EE0  3140 01BC                move.w     [A0 + 0x1BC], D0
00001EE4  558F                     subq.l     A7, 2
00001EE6  487A 007C                pea.l      [PC + 0x7C /* 00001F64, value 0x1380000 */]
00001EEA  A88C                     syscall    StringWidth
00001EEC  2054                     movea.l    A0, [A4]
00001EEE  315F 01BE                move.w     [A0 + 0x1BE], [A7]+
00001EF2  2054                     movea.l    A0, [A4]
00001EF4  2068 0104                movea.l    A0, [A0 + 0x104]
00001EF8  4AA8 00A0                tst.l      [A0 + 0xA0]
00001EFC  674E                     beq        +0x50 /* 00001F4C */
00001EFE  2054                     movea.l    A0, [A4]
00001F00  2248                     movea.l    A1, A0
00001F02  2269 0104                movea.l    A1, [A1 + 0x104]
00001F06  2269 00A0                movea.l    A1, [A1 + 0xA0]
00001F0A  2251                     movea.l    A1, [A1]
00001F0C  3368 014C 004A           move.w     [A1 + 0x4A], [A0 + 0x14C]
00001F12  2054                     movea.l    A0, [A4]
00001F14  2248                     movea.l    A1, A0
00001F16  2269 0104                movea.l    A1, [A1 + 0x104]
00001F1A  2269 00A0                movea.l    A1, [A1 + 0xA0]
00001F1E  2251                     movea.l    A1, [A1]
00001F20  3368 014E 0050           move.w     [A1 + 0x50], [A0 + 0x14E]
00001F26  2054                     movea.l    A0, [A4]
00001F28  2248                     movea.l    A1, A0
00001F2A  2269 0104                movea.l    A1, [A1 + 0x104]
00001F2E  2269 00A0                movea.l    A1, [A1 + 0xA0]
00001F32  2251                     movea.l    A1, [A1]
00001F34  3368 01BC 0018           move.w     [A1 + 0x18], [A0 + 0x1BC]
00001F3A  2054                     movea.l    A0, [A4]
00001F3C  2068 0104                movea.l    A0, [A0 + 0x104]
00001F40  2068 00A0                movea.l    A0, [A0 + 0xA0]
00001F44  2050                     movea.l    A0, [A0]
00001F46  316E FFF8 001A           move.w     [A0 + 0x1A], [A6 - 0x8]
label00001F4C:
00001F4C  2054                     movea.l    A0, [A4]
00001F4E  3F28 014C                move.w     -[A7], [A0 + 0x14C]
00001F52  A887                     syscall    TextFont
00001F54  2054                     movea.l    A0, [A4]
00001F56  3F28 014E                move.w     -[A7], [A0 + 0x14E]
00001F5A  A88A                     syscall    TextSize
00001F5C  286E FFF4                movea.l    A4, [A6 - 0xC]
00001F60  4E5E                     unlink     A6
00001F62  4E75                     rts
00001F64  0138 0000                btst       [0x00000000 /* __m68k_reset_stack__ */], D0
fn00001F68:
00001F68  4E56 FFFC                link       A6, -0x0004
00001F6C  48E7 0108                movem.l    -[A7], D7,A4
00001F70  286E 000C                movea.l    A4, [A6 + 0xC]
00001F74  558F                     subq.l     A7, 2
00001F76  2F2C 000A                move.l     -[A7], [A4 + 0xA]
00001F7A  486E FFFC                pea.l      [A6 - 0x4]
00001F7E  A92C                     syscall    FindWindow
00001F80  3E1F                     move.w     D7, [A7]+
00001F82  3007                     move.w     D0, D7
00001F84  5740                     subq.w     D0, 3
00001F86  6704                     beq        +0x6 /* 00001F8C */
00001F88  5540                     subq.w     D0, 2
00001F8A  6614                     bne        +0x16 /* 00001FA0 */
label00001F8C:
00001F8C  2F2E FFFC                move.l     -[A7], [A6 - 0x4]
00001F90  2F2C 000A                move.l     -[A7], [A4 + 0xA]
00001F94  2F2E 0008                move.l     -[A7], [A6 + 0x8]
00001F98  4EBA 1552                jsr        [PC + 0x1552 /* 000034EC */]
00001F9C  4FEF 000C                lea.l      A7, [A7 + 0xC]
label00001FA0:
00001FA0  4CEE 1080 FFF4           movem.l    D7,A4, [A6 - 0xC]
00001FA6  4E5E                     unlink     A6
00001FA8  4E75                     rts
fn00001FAA:
00001FAA  4E56 FFC0                link       A6, -0x0040
00001FAE  48E7 1708                movem.l    -[A7], D3,D5,D6,D7,A4
00001FB2  3A2E 0012                move.w     D5, [A6 + 0x12]
00001FB6  286E 0008                movea.l    A4, [A6 + 0x8]
00001FBA  2054                     movea.l    A0, [A4]
00001FBC  7001                     moveq.l    D0, 0x01
00001FBE  B068 0152                cmp.w      D0, [A0 + 0x152]
00001FC2  6706                     beq        +0x8 /* 00001FCA */
00001FC4  7000                     moveq.l    D0, 0x00
00001FC6  6000 01C2                bra        +0x1C4 /* 0000218A */
label00001FCA:
00001FCA  486E FFE6                pea.l      [A6 - 0x1A]
00001FCE  486E FFCA                pea.l      [A6 - 0x36]
00001FD2  486E FFC0                pea.l      [A6 - 0x40]
00001FD6  48C5                     ext.l      D5
00001FD8  2F05                     move.l     -[A7], D5
00001FDA  2054                     movea.l    A0, [A4]
00001FDC  2F28 0104                move.l     -[A7], [A0 + 0x104]
00001FE0  4EBA 6A66                jsr        [PC + 0x6A66 /* 00008A48 */]
00001FE4  303C FF7F                move.w     D0, 0xFF7F
00001FE8  C06E FFC0                and.w      D0, [A6 - 0x40]
00001FEC  0C40 0007                cmpi.w     D0, 0x7
00001FF0  4FEF 0014                lea.l      A7, [A7 + 0x14]
00001FF4  6606                     bne        +0x8 /* 00001FFC */
00001FF6  7000                     moveq.l    D0, 0x00
00001FF8  6000 0190                bra        +0x192 /* 0000218A */
label00001FFC:
00001FFC  41EE FFDE                lea.l      A0, [A6 - 0x22]
00002000  43EE FFE6                lea.l      A1, [A6 - 0x1A]
00002004  20D9                     move.l     [A0]+, [A1]+
00002006  20D9                     move.l     [A0]+, [A1]+
00002008  41EE FFEE                lea.l      A0, [A6 - 0x12]
0000200C  2F20                     move.l     -[A7], -[A0]
0000200E  2F20                     move.l     -[A7], -[A0]
00002010  486E FFCE                pea.l      [A6 - 0x32]
00002014  4EBA 69C8                jsr        [PC + 0x69C8 /* 000089DE */]
00002018  41EE FFD6                lea.l      A0, [A6 - 0x2A]
0000201C  43EE FFCE                lea.l      A1, [A6 - 0x32]
00002020  20D9                     move.l     [A0]+, [A1]+
00002022  20D9                     move.l     [A0]+, [A1]+
00002024  558F                     subq.l     A7, 2
00002026  2F2E 000C                move.l     -[A7], [A6 + 0xC]
0000202A  486E FFCE                pea.l      [A6 - 0x32]
0000202E  A8AD                     syscall    PtInRect
00002030  4A1F                     tst.b      [A7]+
00002032  4FEF 000C                lea.l      A7, [A7 + 0xC]
00002036  6606                     bne        +0x8 /* 0000203E */
00002038  7000                     moveq.l    D0, 0x00
0000203A  6000 014E                bra        +0x150 /* 0000218A */
label0000203E:
0000203E  7004                     moveq.l    D0, 0x04
00002040  2F00                     move.l     -[A7], D0
00002042  2F0C                     move.l     -[A7], A4
00002044  4EBA 487E                jsr        [PC + 0x487E /* 000068C4 */]
00002048  486E FFEE                pea.l      [A6 - 0x12]
0000204C  A898                     syscall    GetPenState
0000204E  2054                     movea.l    A0, [A4]
00002050  2068 016A                movea.l    A0, [A0 + 0x16A]
00002054  4868 0066                pea.l      [A0 + 0x66]
00002058  A89D                     syscall    PenPat
0000205A  700A                     moveq.l    D0, 0x0A
0000205C  3F00                     move.w     -[A7], D0
0000205E  A89C                     syscall    PenMode
00002060  2D6E 000C FFC6           move.l     [A6 - 0x3A], [A6 + 0xC]
00002066  504F                     addq.w     A7, 8
00002068  6072                     bra        +0x74 /* 000020DC */
label0000206A:
0000206A  486E FFC2                pea.l      [A6 - 0x3E]
0000206E  A972                     syscall    GetMouse
00002070  3C2E FFC4                move.w     D6, [A6 - 0x3C]
00002074  9C6E FFC8                sub.w      D6, [A6 - 0x38]
00002078  3E2E FFC2                move.w     D7, [A6 - 0x3E]
0000207C  9E6E FFC6                sub.w      D7, [A6 - 0x3A]
00002080  558F                     subq.l     A7, 2
00002082  2F2E FFC2                move.l     -[A7], [A6 - 0x3E]
00002086  2F2E FFC6                move.l     -[A7], [A6 - 0x3A]
0000208A  A881                     syscall    EqualPt
0000208C  4A1F                     tst.b      [A7]+
0000208E  664C                     bne        +0x4E /* 000020DC */
00002090  302E FFE4                move.w     D0, [A6 - 0x1C]
00002094  48C0                     ext.l      D0
00002096  48C6                     ext.l      D6
00002098  D086                     add.l      D0, D6
0000209A  322E FFE0                move.w     D1, [A6 - 0x20]
0000209E  48C1                     ext.l      D1
000020A0  B280                     cmp.l      D1, D0
000020A2  6C38                     bge        +0x3A /* 000020DC */
000020A4  302E FFE2                move.w     D0, [A6 - 0x1E]
000020A8  48C0                     ext.l      D0
000020AA  48C7                     ext.l      D7
000020AC  D087                     add.l      D0, D7
000020AE  322E FFDE                move.w     D1, [A6 - 0x22]
000020B2  48C1                     ext.l      D1
000020B4  B280                     cmp.l      D1, D0
000020B6  6C24                     bge        +0x26 /* 000020DC */
000020B8  486E FFDE                pea.l      [A6 - 0x22]
000020BC  A8A1                     syscall    FrameRect
000020BE  486E FFCE                pea.l      [A6 - 0x32]
000020C2  3F06                     move.w     -[A7], D6
000020C4  3F07                     move.w     -[A7], D7
000020C6  A8A8                     syscall    OffsetRect
000020C8  DD6E FFE4                add.w      [A6 - 0x1C], D6
000020CC  DF6E FFE2                add.w      [A6 - 0x1E], D7
000020D0  486E FFDE                pea.l      [A6 - 0x22]
000020D4  A8A1                     syscall    FrameRect
000020D6  2D6E FFC2 FFC6           move.l     [A6 - 0x3A], [A6 - 0x3E]
label000020DC:
000020DC  558F                     subq.l     A7, 2
000020DE  A973                     syscall    StillDown
000020E0  4A1F                     tst.b      [A7]+
000020E2  6686                     bne        -0x78 /* 0000206A */
000020E4  486E FFEE                pea.l      [A6 - 0x12]
000020E8  A899                     syscall    SetPenState
000020EA  7C04                     moveq.l    D6, 0x04
000020EC  CC6E FFC0                and.w      D6, [A6 - 0x40]
000020F0  4A06                     tst.b      D6
000020F2  57C3                     seq        D3
000020F4  4403                     neg.b      D3
000020F6  4883                     ext.w      D3
000020F8  48C3                     ext.l      D3
000020FA  2F03                     move.l     -[A7], D3
000020FC  7001                     moveq.l    D0, 0x01
000020FE  2F00                     move.l     -[A7], D0
00002100  2F00                     move.l     -[A7], D0
00002102  2F00                     move.l     -[A7], D0
00002104  48C5                     ext.l      D5
00002106  2F05                     move.l     -[A7], D5
00002108  2F0C                     move.l     -[A7], A4
0000210A  4EBA 370C                jsr        [PC + 0x370C /* 00005818 */]
0000210E  2054                     movea.l    A0, [A4]
00002110  2F28 0104                move.l     -[A7], [A0 + 0x104]
00002114  3F05                     move.w     -[A7], D5
00002116  3F2E FFC0                move.w     -[A7], [A6 - 0x40]
0000211A  2F2E FFCA                move.l     -[A7], [A6 - 0x36]
0000211E  486E FFDE                pea.l      [A6 - 0x22]
00002122  A98E                     syscall    SetDialogItem/SetDItem
00002124  4A06                     tst.b      D6
00002126  4FEF 0018                lea.l      A7, [A7 + 0x18]
0000212A  6728                     beq        +0x2A /* 00002154 */
0000212C  2F0C                     move.l     -[A7], A4
0000212E  4EBA E14A                jsr        [PC - 0x1EB6 /* 0000027A */]
00002132  2F2E FFCA                move.l     -[A7], [A6 - 0x36]
00002136  302E FFE4                move.w     D0, [A6 - 0x1C]
0000213A  906E FFE0                sub.w      D0, [A6 - 0x20]
0000213E  3F00                     move.w     -[A7], D0
00002140  302E FFE2                move.w     D0, [A6 - 0x1E]
00002144  906E FFDE                sub.w      D0, [A6 - 0x22]
00002148  3F00                     move.w     -[A7], D0
0000214A  A95C                     syscall    SizeControl
0000214C  2F0C                     move.l     -[A7], A4
0000214E  4EBA E15E                jsr        [PC - 0x1EA2 /* 000002AE */]
00002152  504F                     addq.w     A7, 8
label00002154:
00002154  4A06                     tst.b      D6
00002156  57C3                     seq        D3
00002158  4403                     neg.b      D3
0000215A  4883                     ext.w      D3
0000215C  48C3                     ext.l      D3
0000215E  2F03                     move.l     -[A7], D3
00002160  7001                     moveq.l    D0, 0x01
00002162  2F00                     move.l     -[A7], D0
00002164  2F00                     move.l     -[A7], D0
00002166  2F00                     move.l     -[A7], D0
00002168  48C5                     ext.l      D5
0000216A  2F05                     move.l     -[A7], D5
0000216C  2F0C                     move.l     -[A7], A4
0000216E  4EBA 36A8                jsr        [PC + 0x36A8 /* 00005818 */]
00002172  7001                     moveq.l    D0, 0x01
00002174  2F00                     move.l     -[A7], D0
00002176  7204                     moveq.l    D1, 0x04
00002178  2F01                     move.l     -[A7], D1
0000217A  48C5                     ext.l      D5
0000217C  2F05                     move.l     -[A7], D5
0000217E  2F0C                     move.l     -[A7], A4
00002180  4EBA 5DA4                jsr        [PC + 0x5DA4 /* 00007F26 */]
00002184  7001                     moveq.l    D0, 0x01
00002186  4FEF 0028                lea.l      A7, [A7 + 0x28]
label0000218A:
0000218A  4CEE 10E8 FFAC           movem.l    D3,D5,D6,D7,A4, [A6 - 0x54]
00002190  4E5E                     unlink     A6
00002192  4E75                     rts
fn00002194:
00002194  4E56 FFB8                link       A6, -0x0048
00002198  48E7 0F18                movem.l    -[A7], D4,D5,D6,D7,A3,A4
0000219C  266E 0008                movea.l    A3, [A6 + 0x8]
000021A0  7801                     moveq.l    D4, 0x01
000021A2  426E FFC8                clr.w      [A6 - 0x38]
000021A6  4244                     clr.w      D4
000021A8  307C 000A                movea.w    A0, 0xA /* '\n' */
000021AC  43EE FFE2                lea.l      A1, [A6 - 0x1E]
000021B0  A03B                     syscall    Delay
000021B2  2280                     move.l     [A1], D0
000021B4  558F                     subq.l     A7, 2
000021B6  A973                     syscall    StillDown
000021B8  4A1F                     tst.b      [A7]+
000021BA  6700 0220                beq        +0x222 /* 000023DC */
000021BE  2053                     movea.l    A0, [A3]
000021C0  3028 0152                move.w     D0, [A0 + 0x152]
000021C4  48C0                     ext.l      D0
000021C6  E780                     asl        D0, 3
000021C8  A31E                     syscall    NewPtrClear, flags=3
000021CA  2848                     movea.l    A4, A0
000021CC  558F                     subq.l     A7, 2
000021CE  3F38 0220                move.w     -[A7], [0x00000220 /* MemErr */]
000021D2  7000                     moveq.l    D0, 0x00
000021D4  3F00                     move.w     -[A7], D0
000021D6  4EBA DF72                jsr        [PC - 0x208E /* 0000014A */]
000021DA  4A1F                     tst.b      [A7]+
000021DC  6700 01FE                beq        +0x200 /* 000023DC */
000021E0  4246                     clr.w      D6
000021E2  4205                     clr.b      D5
000021E4  2053                     movea.l    A0, [A3]
000021E6  2068 015E                movea.l    A0, [A0 + 0x15E]
000021EA  2D50 FFEA                move.l     [A6 - 0x16], [A0]
000021EE  7E01                     moveq.l    D7, 0x01
000021F0  6074                     bra        +0x76 /* 00002266 */
label000021F2:
000021F2  48C7                     ext.l      D7
000021F4  206E FFEA                movea.l    A0, [A6 - 0x16]
000021F8  2007                     move.l     D0, D7
000021FA  E580                     asl        D0, 2
000021FC  4A70 0800                tst.w      [A0 + D0]
00002200  6760                     beq        +0x62 /* 00002262 */
00002202  486E FFCA                pea.l      [A6 - 0x36]
00002206  486E FFE6                pea.l      [A6 - 0x1A]
0000220A  486E FFC6                pea.l      [A6 - 0x3A]
0000220E  48C7                     ext.l      D7
00002210  2F07                     move.l     -[A7], D7
00002212  2053                     movea.l    A0, [A3]
00002214  2F28 0104                move.l     -[A7], [A0 + 0x104]
00002218  4EBA 682E                jsr        [PC + 0x682E /* 00008A48 */]
0000221C  4A05                     tst.b      D5
0000221E  4FEF 0014                lea.l      A7, [A7 + 0x14]
00002222  6610                     bne        +0x12 /* 00002234 */
00002224  7A01                     moveq.l    D5, 0x01
00002226  41EE FFDA                lea.l      A0, [A6 - 0x26]
0000222A  43EE FFCA                lea.l      A1, [A6 - 0x36]
0000222E  20D9                     move.l     [A0]+, [A1]+
00002230  20D9                     move.l     [A0]+, [A1]+
00002232  600E                     bra        +0x10 /* 00002242 */
label00002234:
00002234  486E FFCA                pea.l      [A6 - 0x36]
00002238  486E FFDA                pea.l      [A6 - 0x26]
0000223C  486E FFDA                pea.l      [A6 - 0x26]
00002240  A8AB                     syscall    UnionRect
label00002242:
00002242  48C6                     ext.l      D6
00002244  2006                     move.l     D0, D6
00002246  E780                     asl        D0, 3
00002248  41F4 0800                lea.l      A0, [A4 + D0]
0000224C  43EE FFCA                lea.l      A1, [A6 - 0x36]
00002250  20D9                     move.l     [A0]+, [A1]+
00002252  20D9                     move.l     [A0]+, [A1]+
00002254  3006                     move.w     D0, D6
00002256  5246                     addq.w     D6, 1
00002258  2053                     movea.l    A0, [A3]
0000225A  7001                     moveq.l    D0, 0x01
0000225C  B068 0152                cmp.w      D0, [A0 + 0x152]
00002260  670C                     beq        +0xE /* 0000226E */
label00002262:
00002262  3007                     move.w     D0, D7
00002264  5247                     addq.w     D7, 1
label00002266:
00002266  2053                     movea.l    A0, [A3]
00002268  BE68 0150                cmp.w      D7, [A0 + 0x150]
0000226C  6F84                     ble        -0x7A /* 000021F2 */
label0000226E:
0000226E  2053                     movea.l    A0, [A3]
00002270  2068 0104                movea.l    A0, [A0 + 0x104]
00002274  43EE FFD2                lea.l      A1, [A6 - 0x2E]
00002278  41E8 0010                lea.l      A0, [A0 + 0x10]
0000227C  22D8                     move.l     [A1]+, [A0]+
0000227E  22D8                     move.l     [A1]+, [A0]+
00002280  422E FFB9                clr.b      [A6 - 0x47]
00002284  486E FFEE                pea.l      [A6 - 0x12]
00002288  A898                     syscall    GetPenState
0000228A  2053                     movea.l    A0, [A3]
0000228C  2068 016A                movea.l    A0, [A0 + 0x16A]
00002290  4868 0066                pea.l      [A0 + 0x66]
00002294  A89D                     syscall    PenPat
00002296  700A                     moveq.l    D0, 0x0A
00002298  3F00                     move.w     -[A7], D0
0000229A  A89C                     syscall    PenMode
0000229C  302E FFDC                move.w     D0, [A6 - 0x24]
000022A0  906E 000E                sub.w      D0, [A6 + 0xE]
000022A4  3D40 FFC4                move.w     [A6 - 0x3C], D0
000022A8  302E FFDA                move.w     D0, [A6 - 0x26]
000022AC  906E 000C                sub.w      D0, [A6 + 0xC]
000022B0  3D40 FFC2                move.w     [A6 - 0x3E], D0
000022B4  3D6E FFDC FFBC           move.w     [A6 - 0x44], [A6 - 0x24]
000022BA  3D6E FFDA FFBA           move.w     [A6 - 0x46], [A6 - 0x26]
000022C0  6000 009C                bra        +0x9E /* 0000235E */
label000022C4:
000022C4  486E FFBE                pea.l      [A6 - 0x42]
000022C8  A972                     syscall    GetMouse
000022CA  598F                     subq.l     A7, 4
000022CC  486E FFD2                pea.l      [A6 - 0x2E]
000022D0  2F2E FFBE                move.l     -[A7], [A6 - 0x42]
000022D4  A94E                     syscall    PinRect
000022D6  2A1F                     move.l     D5, [A7]+
000022D8  302E FFC4                move.w     D0, [A6 - 0x3C]
000022DC  D045                     add.w      D0, D5
000022DE  3D40 FFC0                move.w     [A6 - 0x40], D0
000022E2  2005                     move.l     D0, D5
000022E4  4840                     swap.w     D0
000022E6  48C0                     ext.l      D0
000022E8  322E FFC2                move.w     D1, [A6 - 0x3E]
000022EC  D240                     add.w      D1, D0
000022EE  3D41 FFBE                move.w     [A6 - 0x42], D1
000022F2  486E FFBE                pea.l      [A6 - 0x42]
000022F6  2F0B                     move.l     -[A7], A3
000022F8  4EBA 36A6                jsr        [PC + 0x36A6 /* 000059A0 */]
000022FC  558F                     subq.l     A7, 2
000022FE  2F2E FFBA                move.l     -[A7], [A6 - 0x46]
00002302  2F2E FFBE                move.l     -[A7], [A6 - 0x42]
00002306  A881                     syscall    EqualPt
00002308  4A1F                     tst.b      [A7]+
0000230A  504F                     addq.w     A7, 8
0000230C  6650                     bne        +0x52 /* 0000235E */
0000230E  1D7C 0001 FFB9           move.b     [A6 - 0x47], 0x1
00002314  4247                     clr.w      D7
00002316  603C                     bra        +0x3E /* 00002354 */
label00002318:
00002318  48C7                     ext.l      D7
0000231A  2007                     move.l     D0, D7
0000231C  E780                     asl        D0, 3
0000231E  4874 0800                pea.l      [A4 + D0]
00002322  A8A1                     syscall    FrameRect
00002324  48C7                     ext.l      D7
00002326  2007                     move.l     D0, D7
00002328  E780                     asl        D0, 3
0000232A  4874 0800                pea.l      [A4 + D0]
0000232E  302E FFC0                move.w     D0, [A6 - 0x40]
00002332  906E FFBC                sub.w      D0, [A6 - 0x44]
00002336  3F00                     move.w     -[A7], D0
00002338  302E FFBE                move.w     D0, [A6 - 0x42]
0000233C  906E FFBA                sub.w      D0, [A6 - 0x46]
00002340  3F00                     move.w     -[A7], D0
00002342  A8A8                     syscall    OffsetRect
00002344  48C7                     ext.l      D7
00002346  2007                     move.l     D0, D7
00002348  E780                     asl        D0, 3
0000234A  4874 0800                pea.l      [A4 + D0]
0000234E  A8A1                     syscall    FrameRect
00002350  3007                     move.w     D0, D7
00002352  5247                     addq.w     D7, 1
label00002354:
00002354  BC47                     cmp.w      D6, D7
00002356  6EC0                     bgt        -0x3E /* 00002318 */
00002358  2D6E FFBE FFBA           move.l     [A6 - 0x46], [A6 - 0x42]
label0000235E:
0000235E  558F                     subq.l     A7, 2
00002360  A973                     syscall    StillDown
00002362  4A1F                     tst.b      [A7]+
00002364  6600 FF5E                bne        -0xA0 /* 000022C4 */
00002368  486E FFEE                pea.l      [A6 - 0x12]
0000236C  A899                     syscall    SetPenState
0000236E  204C                     movea.l    A0, A4
00002370  A01F                     syscall    DisposPtr/DisposePtr
00002372  302E FFBC                move.w     D0, [A6 - 0x44]
00002376  906E FFDC                sub.w      D0, [A6 - 0x24]
0000237A  3D40 FFC8                move.w     [A6 - 0x38], D0
0000237E  382E FFBA                move.w     D4, [A6 - 0x46]
00002382  986E FFDA                sub.w      D4, [A6 - 0x26]
00002386  4A2E FFB9                tst.b      [A6 - 0x47]
0000238A  6750                     beq        +0x52 /* 000023DC */
0000238C  7002                     moveq.l    D0, 0x02
0000238E  2F00                     move.l     -[A7], D0
00002390  2F0B                     move.l     -[A7], A3
00002392  4EBA 4530                jsr        [PC + 0x4530 /* 000068C4 */]
00002396  2053                     movea.l    A0, [A3]
00002398  2068 015E                movea.l    A0, [A0 + 0x15E]
0000239C  2D50 FFEA                move.l     [A6 - 0x16], [A0]
000023A0  7E01                     moveq.l    D7, 0x01
000023A2  504F                     addq.w     A7, 8
000023A4  602E                     bra        +0x30 /* 000023D4 */
label000023A6:
000023A6  48C7                     ext.l      D7
000023A8  206E FFEA                movea.l    A0, [A6 - 0x16]
000023AC  2007                     move.l     D0, D7
000023AE  E580                     asl        D0, 2
000023B0  4A70 0800                tst.w      [A0 + D0]
000023B4  671A                     beq        +0x1C /* 000023D0 */
000023B6  48C4                     ext.l      D4
000023B8  2F04                     move.l     -[A7], D4
000023BA  302E FFC8                move.w     D0, [A6 - 0x38]
000023BE  48C0                     ext.l      D0
000023C0  2F00                     move.l     -[A7], D0
000023C2  48C7                     ext.l      D7
000023C4  2F07                     move.l     -[A7], D7
000023C6  2F0B                     move.l     -[A7], A3
000023C8  4EBA 1A42                jsr        [PC + 0x1A42 /* 00003E0C */]
000023CC  4FEF 0010                lea.l      A7, [A7 + 0x10]
label000023D0:
000023D0  3007                     move.w     D0, D7
000023D2  5247                     addq.w     D7, 1
label000023D4:
000023D4  2053                     movea.l    A0, [A3]
000023D6  BE68 0150                cmp.w      D7, [A0 + 0x150]
000023DA  6FCA                     ble        -0x34 /* 000023A6 */
label000023DC:
000023DC  4CEE 18F0 FFA0           movem.l    D4,D5,D6,D7,A3,A4, [A6 - 0x60]
000023E2  4E5E                     unlink     A6
000023E4  4E75                     rts
label000023E6:
000023E6  4E56 0000                link       A6, 0
000023EA  2F03                     move.l     -[A7], D3
000023EC  206E 0008                movea.l    A0, [A6 + 0x8]
000023F0  2050                     movea.l    A0, [A0]
000023F2  202E 000C                move.l     D0, [A6 + 0xC]
000023F6  B0A8 0114                cmp.l      D0, [A0 + 0x114]
000023FA  57C3                     seq        D3
000023FC  4403                     neg.b      D3
000023FE  1D43 0010                move.b     [A6 + 0x10], D3
00002402  262E FFFC                move.l     D3, [A6 - 0x4]
00002406  4E5E                     unlink     A6
00002408  205F                     movea.l    A0, [A7]+
0000240A  504F                     addq.w     A7, 8
0000240C  4ED0                     jmp        [A0]
fn0000240E:
0000240E  4E56 FDD0                link       A6, -0x0230
00002412  48E7 1F18                movem.l    -[A7], D3,D4,D5,D6,D7,A3,A4
00002416  286E 0008                movea.l    A4, [A6 + 0x8]
0000241A  486E FDD2                pea.l      [A6 - 0x22E]
0000241E  486E FDD1                pea.l      [A6 - 0x22F]
00002422  486E FDD3                pea.l      [A6 - 0x22D]
00002426  4EBA DC92                jsr        [PC - 0x236E /* 000000BA */]
0000242A  2054                     movea.l    A0, [A4]
0000242C  7000                     moveq.l    D0, 0x00
0000242E  2140 011C                move.l     [A0 + 0x11C], D0
00002432  2054                     movea.l    A0, [A4]
00002434  217C 4449 544C 0118      move.l     [A0 + 0x118], 0x4449544C /* 'DITL' */
0000243C  2054                     movea.l    A0, [A4]
0000243E  2068 0114                movea.l    A0, [A0 + 0x114]
00002442  A069                     syscall    HGetState
00002444  1D40 FDD5                move.b     [A6 - 0x22B], D0
00002448  2054                     movea.l    A0, [A4]
0000244A  2068 0120                movea.l    A0, [A0 + 0x120]
0000244E  A069                     syscall    HGetState
00002450  1D40 FDD4                move.b     [A6 - 0x22C], D0
00002454  2054                     movea.l    A0, [A4]
00002456  2068 0114                movea.l    A0, [A0 + 0x114]
0000245A  A029                     syscall    HLock
0000245C  2054                     movea.l    A0, [A4]
0000245E  2068 0120                movea.l    A0, [A0 + 0x120]
00002462  A029                     syscall    HLock
00002464  7C01                     moveq.l    D6, 0x01
00002466  6000 03B4                bra        +0x3B6 /* 0000281C */
label0000246A:
0000246A  558F                     subq.l     A7, 2
0000246C  4EBA DCD4                jsr        [PC - 0x232C /* 00000142 */]
00002470  4A1F                     tst.b      [A7]+
00002472  6600 03B2                bne        +0x3B4 /* 00002826 */
00002476  2054                     movea.l    A0, [A4]
00002478  2068 015E                movea.l    A0, [A0 + 0x15E]
0000247C  2650                     movea.l    A3, [A0]
0000247E  48C6                     ext.l      D6
00002480  2006                     move.l     D0, D6
00002482  E580                     asl        D0, 2
00002484  4A73 0800                tst.w      [A3 + D0]
00002488  6700 038E                beq        +0x390 /* 00002818 */
0000248C  486E FDF0                pea.l      [A6 - 0x210]
00002490  486E FDE0                pea.l      [A6 - 0x220]
00002494  486E FDD6                pea.l      [A6 - 0x22A]
00002498  48C6                     ext.l      D6
0000249A  2F06                     move.l     -[A7], D6
0000249C  2054                     movea.l    A0, [A4]
0000249E  2F28 0104                move.l     -[A7], [A0 + 0x104]
000024A2  4EBA 65A4                jsr        [PC + 0x65A4 /* 00008A48 */]
000024A6  3E3C FF7F                move.w     D7, 0xFF7F
000024AA  CE6E FDD6                and.w      D7, [A6 - 0x22A]
000024AE  7601                     moveq.l    D3, 0x01
000024B0  0C47 0020                cmpi.w     D7, 0x20 /* ' ' */
000024B4  4FEF 0014                lea.l      A7, [A7 + 0x14]
000024B8  670E                     beq        +0x10 /* 000024C8 */
000024BA  0C47 0040                cmpi.w     D7, 0x40 /* '@' */
000024BE  6708                     beq        +0xA /* 000024C8 */
000024C0  0C47 0007                cmpi.w     D7, 0x7
000024C4  6702                     beq        +0x4 /* 000024C8 */
000024C6  7600                     moveq.l    D3, 0x00
label000024C8:
000024C8  1803                     move.b     D4, D3
000024CA  6730                     beq        +0x32 /* 000024FC */
000024CC  486E FDDC                pea.l      [A6 - 0x224]
000024D0  486E FDD8                pea.l      [A6 - 0x228]
000024D4  48C6                     ext.l      D6
000024D6  2F06                     move.l     -[A7], D6
000024D8  2054                     movea.l    A0, [A4]
000024DA  2F28 0114                move.l     -[A7], [A0 + 0x114]
000024DE  4EBA 64A2                jsr        [PC + 0x64A2 /* 00008982 */]
000024E2  2054                     movea.l    A0, [A4]
000024E4  2068 0114                movea.l    A0, [A0 + 0x114]
000024E8  2050                     movea.l    A0, [A0]
000024EA  202E FDD8                move.l     D0, [A6 - 0x228]
000024EE  D1C0                     add.l      A0, D0
000024F0  2D48 FFF8                move.l     [A6 - 0x8], A0
000024F4  3A28 000E                move.w     D5, [A0 + 0xE]
000024F8  4FEF 0010                lea.l      A7, [A7 + 0x10]
label000024FC:
000024FC  4A04                     tst.b      D4
000024FE  6700 029E                beq        +0x2A0 /* 0000279E */
00002502  7004                     moveq.l    D0, 0x04
00002504  B06E 000E                cmp.w      D0, [A6 + 0xE]
00002508  670A                     beq        +0xC /* 00002514 */
0000250A  7003                     moveq.l    D0, 0x03
0000250C  B06E 000E                cmp.w      D0, [A6 + 0xE]
00002510  6600 028C                bne        +0x28E /* 0000279E */
label00002514:
00002514  3007                     move.w     D0, D7
00002516  5F40                     subq.w     D0, 7
00002518  6758                     beq        +0x5A /* 00002572 */
0000251A  0440 0019                subi.w     D0, 0x19
0000251E  6708                     beq        +0xA /* 00002528 */
00002520  0440 0020                subi.w     D0, 0x20 /* ' ' */
00002524  672C                     beq        +0x2E /* 00002552 */
00002526  6068                     bra        +0x6A /* 00002590 */
label00002528:
00002528  2054                     movea.l    A0, [A4]
0000252A  217C 4943 4F4E 0118      move.l     [A0 + 0x118], 0x49434F4E /* 'ICON' */
00002532  2054                     movea.l    A0, [A4]
00002534  217C 0000 0080 011C      move.l     [A0 + 0x11C], 0x80
0000253C  7005                     moveq.l    D0, 0x05
0000253E  2F00                     move.l     -[A7], D0
00002540  486E FDF8                pea.l      [A6 - 0x208]
00002544  487A 0322                pea.l      [PC + 0x322 /* 00002868, value 0x449434F, pstring "ICON" */]
00002548  4EBA 64CC                jsr        [PC + 0x64CC /* 00008A16 */]
0000254C  4FEF 000C                lea.l      A7, [A7 + 0xC]
00002550  603E                     bra        +0x40 /* 00002590 */
label00002552:
00002552  2054                     movea.l    A0, [A4]
00002554  217C 5049 4354 0118      move.l     [A0 + 0x118], 0x50494354 /* 'PICT' */
0000255C  7005                     moveq.l    D0, 0x05
0000255E  2F00                     move.l     -[A7], D0
00002560  486E FDF8                pea.l      [A6 - 0x208]
00002564  487A 02FC                pea.l      [PC + 0x2FC /* 00002862, value 0x4504943, pstring "PICT" */]
00002568  4EBA 64AC                jsr        [PC + 0x64AC /* 00008A16 */]
0000256C  4FEF 000C                lea.l      A7, [A7 + 0xC]
00002570  601E                     bra        +0x20 /* 00002590 */
label00002572:
00002572  2054                     movea.l    A0, [A4]
00002574  217C 434E 544C 0118      move.l     [A0 + 0x118], 0x434E544C /* 'CNTL' */
0000257C  7005                     moveq.l    D0, 0x05
0000257E  2F00                     move.l     -[A7], D0
00002580  486E FDF8                pea.l      [A6 - 0x208]
00002584  487A 02D6                pea.l      [PC + 0x2D6 /* 0000285C, value 0x4434E54, pstring "CNTL" */]
00002588  4EBA 648C                jsr        [PC + 0x648C /* 00008A16 */]
0000258C  4FEF 000C                lea.l      A7, [A7 + 0xC]
label00002590:
00002590  598F                     subq.l     A7, 4
00002592  2054                     movea.l    A0, [A4]
00002594  3F28 0110                move.w     -[A7], [A0 + 0x110]
00002598  2F28 0118                move.l     -[A7], [A0 + 0x118]
0000259C  3F05                     move.w     -[A7], D5
0000259E  4EBA DABE                jsr        [PC - 0x2542 /* 0000005E */]
000025A2  2D5F FDE4                move.l     [A6 - 0x21C], [A7]+
000025A6  6600 01B4                bne        +0x1B6 /* 0000275C */
000025AA  48C5                     ext.l      D5
000025AC  2F05                     move.l     -[A7], D5
000025AE  486E FEF8                pea.l      [A6 - 0x108]
000025B2  4EBA 68F2                jsr        [PC + 0x68F2 /* 00008EA6 */]
000025B6  486E FDF8                pea.l      [A6 - 0x208]
000025BA  486E FEF8                pea.l      [A6 - 0x108]
000025BE  487A 029A                pea.l      [PC + 0x29A /* 0000285A, value 0x443, cstring "" */]
000025C2  487A 0294                pea.l      [PC + 0x294 /* 00002858, value 0x0, cstring "" */]
000025C6  A98B                     syscall    ParamText
000025C8  558F                     subq.l     A7, 2
000025CA  7004                     moveq.l    D0, 0x04
000025CC  1F00                     move.b     -[A7], D0
000025CE  487A 027A                pea.l      [PC + 0x27A /* 0000284A, value 0xB444954, pstring "DITL alerts" */]
000025D2  7204                     moveq.l    D1, 0x04
000025D4  3F01                     move.w     -[A7], D1
000025D6  4EBA DB2E                jsr        [PC - 0x24D2 /* 00000106 */]
000025DA  4A1F                     tst.b      [A7]+
000025DC  6700 0248                beq        +0x24A /* 00002826 */
000025E0  0C47 0020                cmpi.w     D7, 0x20 /* ' ' */
000025E4  660E                     bne        +0x10 /* 000025F4 */
000025E6  2054                     movea.l    A0, [A4]
000025E8  2028 011C                move.l     D0, [A0 + 0x11C]
000025EC  A322                     syscall    NewHandleClear, flags=3
000025EE  2D48 FDE4                move.l     [A6 - 0x21C], A0
000025F2  605C                     bra        +0x5E /* 00002650 */
label000025F4:
000025F4  0C47 0040                cmpi.w     D7, 0x40 /* '@' */
000025F8  6624                     bne        +0x26 /* 0000261E */
000025FA  598F                     subq.l     A7, 4
000025FC  558F                     subq.l     A7, 2
000025FE  3EB8 0900                move.w     [A7], [0x00000900 /* CurApRefNum */]
00002602  2F3C 5049 4354           move.l     -[A7], 0x50494354 /* 'PICT' */
00002608  3F3C 0597                move.w     -[A7], 0x597
0000260C  4EBA DA50                jsr        [PC - 0x25B0 /* 0000005E */]
00002610  2D57 FDE4                move.l     [A6 - 0x21C], [A7]
00002614  A992                     syscall    DetachResource
00002616  206E FDE4                movea.l    A0, [A6 - 0x21C]
0000261A  A04A                     syscall    HNoPurge
0000261C  6032                     bra        +0x34 /* 00002650 */
label0000261E:
0000261E  0C47 0007                cmpi.w     D7, 0x7
00002622  6624                     bne        +0x26 /* 00002648 */
00002624  598F                     subq.l     A7, 4
00002626  558F                     subq.l     A7, 2
00002628  3EB8 0900                move.w     [A7], [0x00000900 /* CurApRefNum */]
0000262C  2F3C 434E 544C           move.l     -[A7], 0x434E544C /* 'CNTL' */
00002632  3F3C 0597                move.w     -[A7], 0x597
00002636  4EBA DA26                jsr        [PC - 0x25DA /* 0000005E */]
0000263A  2D57 FDE4                move.l     [A6 - 0x21C], [A7]
0000263E  A992                     syscall    DetachResource
00002640  206E FDE4                movea.l    A0, [A6 - 0x21C]
00002644  A04A                     syscall    HNoPurge
00002646  6008                     bra        +0xA /* 00002650 */
label00002648:
00002648  7000                     moveq.l    D0, 0x00
0000264A  A122                     syscall    NewHandle, flags=1
0000264C  2D48 FDE4                move.l     [A6 - 0x21C], A0
label00002650:
00002650  558F                     subq.l     A7, 2
00002652  3F38 0220                move.w     -[A7], [0x00000220 /* MemErr */]
00002656  7000                     moveq.l    D0, 0x00
00002658  3F00                     move.w     -[A7], D0
0000265A  4EBA DAEE                jsr        [PC - 0x2512 /* 0000014A */]
0000265E  4A1F                     tst.b      [A7]+
00002660  6700 01C4                beq        +0x1C6 /* 00002826 */
00002664  558F                     subq.l     A7, 2
00002666  2054                     movea.l    A0, [A4]
00002668  3F28 0110                move.w     -[A7], [A0 + 0x110]
0000266C  2F2E FDE4                move.l     -[A7], [A6 - 0x21C]
00002670  2F28 0118                move.l     -[A7], [A0 + 0x118]
00002674  3F05                     move.w     -[A7], D5
00002676  487A 01D0                pea.l      [PC + 0x1D0 /* 00002848, value 0xB44, cstring "" */]
0000267A  4EBA DB1A                jsr        [PC - 0x24E6 /* 00000196 */]
0000267E  4A1F                     tst.b      [A7]+
00002680  660A                     bne        +0xC /* 0000268C */
00002682  206E FDE4                movea.l    A0, [A6 - 0x21C]
00002686  A023                     syscall    DisposHandle/DisposeHandle
00002688  6000 019C                bra        +0x19E /* 00002826 */
label0000268C:
0000268C  2054                     movea.l    A0, [A4]
0000268E  2068 0120                movea.l    A0, [A0 + 0x120]
00002692  2050                     movea.l    A0, [A0]
00002694  202E FDD8                move.l     D0, [A6 - 0x228]
00002698  D1C0                     add.l      A0, D0
0000269A  2D48 FFFC                move.l     [A6 - 0x4], A0
0000269E  0C47 0007                cmpi.w     D7, 0x7
000026A2  6600 0082                bne        +0x84 /* 00002726 */
000026A6  2F0C                     move.l     -[A7], A4
000026A8  4EBA DBD0                jsr        [PC - 0x2430 /* 0000027A */]
000026AC  206E FFFC                movea.l    A0, [A6 - 0x4]
000026B0  4A90                     tst.l      [A0]
000026B2  584F                     addq.w     A7, 4
000026B4  6704                     beq        +0x6 /* 000026BA */
000026B6  2F10                     move.l     -[A7], [A0]
000026B8  A955                     syscall    DisposeControl
label000026BA:
000026BA  2054                     movea.l    A0, [A4]
000026BC  3F28 0110                move.w     -[A7], [A0 + 0x110]
000026C0  A998                     syscall    UseResFile
000026C2  598F                     subq.l     A7, 4
000026C4  3F05                     move.w     -[A7], D5
000026C6  2054                     movea.l    A0, [A4]
000026C8  2F28 0104                move.l     -[A7], [A0 + 0x104]
000026CC  A9BE                     syscall    GetNewControl
000026CE  2D5F FDE8                move.l     [A6 - 0x218], [A7]+
000026D2  206E FFF8                movea.l    A0, [A6 - 0x8]
000026D6  43EE FDF0                lea.l      A1, [A6 - 0x210]
000026DA  5888                     addq.l     A0, 4
000026DC  22D8                     move.l     [A1]+, [A0]+
000026DE  22D8                     move.l     [A1]+, [A0]+
000026E0  4AAE FDE8                tst.l      [A6 - 0x218]
000026E4  672A                     beq        +0x2C /* 00002710 */
000026E6  2F2E FDE8                move.l     -[A7], [A6 - 0x218]
000026EA  302E FDF6                move.w     D0, [A6 - 0x20A]
000026EE  906E FDF2                sub.w      D0, [A6 - 0x20E]
000026F2  3F00                     move.w     -[A7], D0
000026F4  302E FDF4                move.w     D0, [A6 - 0x20C]
000026F8  906E FDF0                sub.w      D0, [A6 - 0x210]
000026FC  3F00                     move.w     -[A7], D0
000026FE  A95C                     syscall    SizeControl
00002700  2F2E FDE8                move.l     -[A7], [A6 - 0x218]
00002704  2F2E FDF0                move.l     -[A7], [A6 - 0x210]
00002708  A959                     syscall    MoveControl
0000270A  2F2E FDE8                move.l     -[A7], [A6 - 0x218]
0000270E  A957                     syscall    ShowControl
label00002710:
00002710  2F0C                     move.l     -[A7], A4
00002712  4EBA DB9A                jsr        [PC - 0x2466 /* 000002AE */]
00002716  206E FFFC                movea.l    A0, [A6 - 0x4]
0000271A  20AE FDE8                move.l     [A0], [A6 - 0x218]
0000271E  4EBA D93A                jsr        [PC - 0x26C6 /* 0000005A */]
00002722  584F                     addq.w     A7, 4
00002724  6022                     bra        +0x24 /* 00002748 */
label00002726:
00002726  206E FFFC                movea.l    A0, [A6 - 0x4]
0000272A  20AE FDE4                move.l     [A0], [A6 - 0x21C]
0000272E  7001                     moveq.l    D0, 0x01
00002730  2F00                     move.l     -[A7], D0
00002732  7200                     moveq.l    D1, 0x00
00002734  2F01                     move.l     -[A7], D1
00002736  2F00                     move.l     -[A7], D0
00002738  2F00                     move.l     -[A7], D0
0000273A  48C6                     ext.l      D6
0000273C  2F06                     move.l     -[A7], D6
0000273E  2F0C                     move.l     -[A7], A4
00002740  4EBA 30D6                jsr        [PC + 0x30D6 /* 00005818 */]
00002744  4FEF 0018                lea.l      A7, [A7 + 0x18]
label00002748:
00002748  206E FFFC                movea.l    A0, [A6 - 0x4]
0000274C  3145 000E                move.w     [A0 + 0xE], D5
00002750  2054                     movea.l    A0, [A4]
00002752  2F28 0118                move.l     -[A7], [A0 + 0x118]
00002756  2F10                     move.l     -[A7], [A0]
00002758  4EBA DA4C                jsr        [PC - 0x25B4 /* 000001A6 */]
label0000275C:
0000275C  7003                     moveq.l    D0, 0x03
0000275E  B06E 000E                cmp.w      D0, [A6 + 0xE]
00002762  6612                     bne        +0x14 /* 00002776 */
00002764  2F2E FDE4                move.l     -[A7], [A6 - 0x21C]
00002768  2F0C                     move.l     -[A7], A4
0000276A  2054                     movea.l    A0, [A4]
0000276C  2F28 0118                move.l     -[A7], [A0 + 0x118]
00002770  4EBA D99C                jsr        [PC - 0x2664 /* 0000010E */]
00002774  6010                     bra        +0x12 /* 00002786 */
label00002776:
00002776  2F2E FDE4                move.l     -[A7], [A6 - 0x21C]
0000277A  2F0C                     move.l     -[A7], A4
0000277C  2F3C 4845 5841           move.l     -[A7], 0x48455841 /* 'HEXA' */
00002782  4EBA D98A                jsr        [PC - 0x2676 /* 0000010E */]
label00002786:
00002786  558F                     subq.l     A7, 2
00002788  4EBA D9B8                jsr        [PC - 0x2648 /* 00000142 */]
0000278C  4A1F                     tst.b      [A7]+
0000278E  6700 0088                beq        +0x8A /* 00002818 */
00002792  206E FFFC                movea.l    A0, [A6 - 0x4]
00002796  7000                     moveq.l    D0, 0x00
00002798  2080                     move.l     [A0], D0
0000279A  6000 008A                bra        +0x8C /* 00002826 */
label0000279E:
0000279E  7006                     moveq.l    D0, 0x06
000027A0  A322                     syscall    NewHandleClear, flags=3
000027A2  2D48 FDEC                move.l     [A6 - 0x214], A0
000027A6  558F                     subq.l     A7, 2
000027A8  3F38 0220                move.w     -[A7], [0x00000220 /* MemErr */]
000027AC  7000                     moveq.l    D0, 0x00
000027AE  3F00                     move.w     -[A7], D0
000027B0  4EBA D998                jsr        [PC - 0x2668 /* 0000014A */]
000027B4  4A1F                     tst.b      [A7]+
000027B6  676E                     beq        +0x70 /* 00002826 */
000027B8  206E FDEC                movea.l    A0, [A6 - 0x214]
000027BC  2050                     movea.l    A0, [A0]
000027BE  3086                     move.w     [A0], D6
000027C0  4A04                     tst.b      D4
000027C2  6704                     beq        +0x6 /* 000027C8 */
000027C4  3005                     move.w     D0, D5
000027C6  6002                     bra        +0x4 /* 000027CA */
label000027C8:
000027C8  7000                     moveq.l    D0, 0x00
label000027CA:
000027CA  206E FDEC                movea.l    A0, [A6 - 0x214]
000027CE  2050                     movea.l    A0, [A0]
000027D0  3140 0004                move.w     [A0 + 0x4], D0
000027D4  486E FDF0                pea.l      [A6 - 0x210]
000027D8  486E FDE0                pea.l      [A6 - 0x220]
000027DC  486E FDD6                pea.l      [A6 - 0x22A]
000027E0  48C6                     ext.l      D6
000027E2  2F06                     move.l     -[A7], D6
000027E4  2054                     movea.l    A0, [A4]
000027E6  2F28 0104                move.l     -[A7], [A0 + 0x104]
000027EA  4EBA 625C                jsr        [PC + 0x625C /* 00008A48 */]
000027EE  206E FDEC                movea.l    A0, [A6 - 0x214]
000027F2  2050                     movea.l    A0, [A0]
000027F4  316E FDD6 0002           move.w     [A0 + 0x2], [A6 - 0x22A]
000027FA  2F2E FDEC                move.l     -[A7], [A6 - 0x214]
000027FE  2F0C                     move.l     -[A7], A4
00002800  4EBA D8F8                jsr        [PC - 0x2708 /* 000000FA */]
00002804  206E FDEC                movea.l    A0, [A6 - 0x214]
00002808  A023                     syscall    DisposHandle/DisposeHandle
0000280A  558F                     subq.l     A7, 2
0000280C  4EBA D934                jsr        [PC - 0x26CC /* 00000142 */]
00002810  4A1F                     tst.b      [A7]+
00002812  4FEF 0014                lea.l      A7, [A7 + 0x14]
00002816  660E                     bne        +0x10 /* 00002826 */
label00002818:
00002818  3006                     move.w     D0, D6
0000281A  5246                     addq.w     D6, 1
label0000281C:
0000281C  2054                     movea.l    A0, [A4]
0000281E  BC68 0150                cmp.w      D6, [A0 + 0x150]
00002822  6F00 FC46                ble        -0x3B8 /* 0000246A */
label00002826:
00002826  2054                     movea.l    A0, [A4]
00002828  2068 0114                movea.l    A0, [A0 + 0x114]
0000282C  102E FDD5                move.b     D0, [A6 - 0x22B]
00002830  A06A                     syscall    HSetState
00002832  2054                     movea.l    A0, [A4]
00002834  2068 0120                movea.l    A0, [A0 + 0x120]
00002838  102E FDD4                move.b     D0, [A6 - 0x22C]
0000283C  A06A                     syscall    HSetState
0000283E  4CEE 18F8 FDB4           movem.l    D3,D4,D5,D6,D7,A3,A4, [A6 - 0x24C]
00002844  4E5E                     unlink     A6
00002846  4E75                     rts
00002848  0000 0B44                ori.b      D0, 0x44 /* 'D' */
0000284C  4954                     chk.w      D4, [A4]
0000284E  4C20 616C                mulu.l     D6, -[A0]
00002852  6572                     bcs        +0x74 /* 000028C6 */
00002854  7473                     moveq.l    D2, 0x73
00002856  0000 0000                ori.b      D0, 0x0
0000285A  0000 0443                ori.b      D0, 0x43 /* 'C' */
0000285E  4E54 4C00                link       A4, -0xFFFFB400
00002862  0450 4943                subi.w     [A0], 0x4943 /* 'IC' */
00002866  5400                     addq.b     D0, 2
00002868  0449 434F                subi.w     A1, 0x434F /* 'CO' */
0000286C  4E00                     .invalid   // invalid opcode 4
fn0000286E:
0000286E  4E56 FEEE                link       A6, -0x0112
00002872  48E7 0318                movem.l    -[A7], D6,D7,A3,A4
00002876  266E 0008                movea.l    A3, [A6 + 0x8]
0000287A  598F                     subq.l     A7, 4
0000287C  7003                     moveq.l    D0, 0x03
0000287E  3F00                     move.w     -[A7], D0
00002880  A949                     syscall    GetMenuHandle
00002882  2D57 FEF4                move.l     [A6 - 0x10C], [A7]
00002886  7000                     moveq.l    D0, 0x00
00002888  3F00                     move.w     -[A7], D0
0000288A  A939                     syscall    EnableItem
0000288C  2053                     movea.l    A0, [A3]
0000288E  2F28 0138                move.l     -[A7], [A0 + 0x138]
00002892  7000                     moveq.l    D0, 0x00
00002894  3F00                     move.w     -[A7], D0
00002896  A939                     syscall    EnableItem
00002898  2053                     movea.l    A0, [A3]
0000289A  7000                     moveq.l    D0, 0x00
0000289C  1028 015C                move.b     D0, [A0 + 0x15C]
000028A0  4A80                     tst.l      D0
000028A2  660C                     bne        +0xE /* 000028B0 */
000028A4  2F2E FEF4                move.l     -[A7], [A6 - 0x10C]
000028A8  7001                     moveq.l    D0, 0x01
000028AA  3F00                     move.w     -[A7], D0
000028AC  A93A                     syscall    DisableItem
000028AE  600A                     bra        +0xC /* 000028BA */
label000028B0:
000028B0  2F2E FEF4                move.l     -[A7], [A6 - 0x10C]
000028B4  7001                     moveq.l    D0, 0x01
000028B6  3F00                     move.w     -[A7], D0
000028B8  A939                     syscall    EnableItem
label000028BA:
000028BA  2F2E FEF4                move.l     -[A7], [A6 - 0x10C]
000028BE  700A                     moveq.l    D0, 0x0A
000028C0  3F00                     move.w     -[A7], D0
000028C2  A93A                     syscall    DisableItem
000028C4  2053                     movea.l    A0, [A3]
label000028C6:
000028C6  2F28 0138                move.l     -[A7], [A0 + 0x138]
000028CA  7003                     moveq.l    D0, 0x03
000028CC  3F00                     move.w     -[A7], D0
000028CE  A93A                     syscall    DisableItem
000028D0  2053                     movea.l    A0, [A3]
000028D2  2F28 0138                move.l     -[A7], [A0 + 0x138]
000028D6  7004                     moveq.l    D0, 0x04
000028D8  3F00                     move.w     -[A7], D0
000028DA  A93A                     syscall    DisableItem
000028DC  558F                     subq.l     A7, 2
000028DE  2053                     movea.l    A0, [A3]
000028E0  2F28 0114                move.l     -[A7], [A0 + 0x114]
000028E4  A9A6                     syscall    GetResAttrs
000028E6  3C1F                     move.w     D6, [A7]+
000028E8  7002                     moveq.l    D0, 0x02
000028EA  C046                     and.w      D0, D6
000028EC  670E                     beq        +0x10 /* 000028FC */
000028EE  2053                     movea.l    A0, [A3]
000028F0  2F28 0138                move.l     -[A7], [A0 + 0x138]
000028F4  7006                     moveq.l    D0, 0x06
000028F6  3F00                     move.w     -[A7], D0
000028F8  A939                     syscall    EnableItem
000028FA  600C                     bra        +0xE /* 00002908 */
label000028FC:
000028FC  2053                     movea.l    A0, [A3]
000028FE  2F28 0138                move.l     -[A7], [A0 + 0x138]
00002902  7006                     moveq.l    D0, 0x06
00002904  3F00                     move.w     -[A7], D0
00002906  A93A                     syscall    DisableItem
label00002908:
00002908  2053                     movea.l    A0, [A3]
0000290A  2F28 0130                move.l     -[A7], [A0 + 0x130]
0000290E  7000                     moveq.l    D0, 0x00
00002910  3F00                     move.w     -[A7], D0
00002912  A939                     syscall    EnableItem
00002914  2053                     movea.l    A0, [A3]
00002916  2F28 0130                move.l     -[A7], [A0 + 0x130]
0000291A  7006                     moveq.l    D0, 0x06
0000291C  3F00                     move.w     -[A7], D0
0000291E  2068 0166                movea.l    A0, [A0 + 0x166]
00002922  2050                     movea.l    A0, [A0]
00002924  1F28 0006                move.b     -[A7], [A0 + 0x6]
00002928  A945                     syscall    CheckItem
0000292A  2053                     movea.l    A0, [A3]
0000292C  2F28 0130                move.l     -[A7], [A0 + 0x130]
00002930  7004                     moveq.l    D0, 0x04
00002932  3F00                     move.w     -[A7], D0
00002934  4A68 01D2                tst.w      [A0 + 0x1D2]
00002938  6704                     beq        +0x6 /* 0000293E */
0000293A  7212                     moveq.l    D1, 0x12
0000293C  6002                     bra        +0x4 /* 00002940 */
label0000293E:
0000293E  7200                     moveq.l    D1, 0x00
label00002940:
00002940  4881                     ext.w      D1
00002942  3F01                     move.w     -[A7], D1
00002944  A944                     syscall    SetItmMark
00002946  2053                     movea.l    A0, [A3]
00002948  2F28 0130                move.l     -[A7], [A0 + 0x130]
0000294C  7009                     moveq.l    D0, 0x09
0000294E  3F00                     move.w     -[A7], D0
00002950  4A28 01CA                tst.b      [A0 + 0x1CA]
00002954  6704                     beq        +0x6 /* 0000295A */
00002956  7212                     moveq.l    D1, 0x12
00002958  6002                     bra        +0x4 /* 0000295C */
label0000295A:
0000295A  7200                     moveq.l    D1, 0x00
label0000295C:
0000295C  4881                     ext.w      D1
0000295E  3F01                     move.w     -[A7], D1
00002960  A944                     syscall    SetItmMark
00002962  2053                     movea.l    A0, [A3]
00002964  2F28 0130                move.l     -[A7], [A0 + 0x130]
00002968  700A                     moveq.l    D0, 0x0A
0000296A  3F00                     move.w     -[A7], D0
0000296C  A93A                     syscall    DisableItem
0000296E  2053                     movea.l    A0, [A3]
00002970  2F28 0134                move.l     -[A7], [A0 + 0x134]
00002974  7001                     moveq.l    D0, 0x01
00002976  3F00                     move.w     -[A7], D0
00002978  A93A                     syscall    DisableItem
0000297A  2053                     movea.l    A0, [A3]
0000297C  2F28 0134                move.l     -[A7], [A0 + 0x134]
00002980  7002                     moveq.l    D0, 0x02
00002982  3F00                     move.w     -[A7], D0
00002984  A93A                     syscall    DisableItem
00002986  2053                     movea.l    A0, [A3]
00002988  2F28 0134                move.l     -[A7], [A0 + 0x134]
0000298C  7003                     moveq.l    D0, 0x03
0000298E  3F00                     move.w     -[A7], D0
00002990  A93A                     syscall    DisableItem
00002992  2053                     movea.l    A0, [A3]
00002994  2F28 0134                move.l     -[A7], [A0 + 0x134]
00002998  7004                     moveq.l    D0, 0x04
0000299A  3F00                     move.w     -[A7], D0
0000299C  A93A                     syscall    DisableItem
0000299E  2053                     movea.l    A0, [A3]
000029A0  2F28 0134                move.l     -[A7], [A0 + 0x134]
000029A4  7005                     moveq.l    D0, 0x05
000029A6  3F00                     move.w     -[A7], D0
000029A8  A93A                     syscall    DisableItem
000029AA  2053                     movea.l    A0, [A3]
000029AC  2F28 0134                move.l     -[A7], [A0 + 0x134]
000029B0  7006                     moveq.l    D0, 0x06
000029B2  3F00                     move.w     -[A7], D0
000029B4  A93A                     syscall    DisableItem
000029B6  2053                     movea.l    A0, [A3]
000029B8  2F28 0134                move.l     -[A7], [A0 + 0x134]
000029BC  7008                     moveq.l    D0, 0x08
000029BE  3F00                     move.w     -[A7], D0
000029C0  A93A                     syscall    DisableItem
000029C2  2053                     movea.l    A0, [A3]
000029C4  2F28 0134                move.l     -[A7], [A0 + 0x134]
000029C8  7009                     moveq.l    D0, 0x09
000029CA  3F00                     move.w     -[A7], D0
000029CC  A93A                     syscall    DisableItem
000029CE  2053                     movea.l    A0, [A3]
000029D0  4A68 0152                tst.w      [A0 + 0x152]
000029D4  664A                     bne        +0x4C /* 00002A20 */
000029D6  2F28 0138                move.l     -[A7], [A0 + 0x138]
000029DA  7002                     moveq.l    D0, 0x02
000029DC  3F00                     move.w     -[A7], D0
000029DE  A93A                     syscall    DisableItem
000029E0  2F2E FEF4                move.l     -[A7], [A6 - 0x10C]
000029E4  7003                     moveq.l    D0, 0x03
000029E6  3F00                     move.w     -[A7], D0
000029E8  A93A                     syscall    DisableItem
000029EA  2F2E FEF4                move.l     -[A7], [A6 - 0x10C]
000029EE  7004                     moveq.l    D0, 0x04
000029F0  3F00                     move.w     -[A7], D0
000029F2  A93A                     syscall    DisableItem
000029F4  2F2E FEF4                move.l     -[A7], [A6 - 0x10C]
000029F8  7006                     moveq.l    D0, 0x06
000029FA  3F00                     move.w     -[A7], D0
000029FC  A93A                     syscall    DisableItem
000029FE  2F2E FEF4                move.l     -[A7], [A6 - 0x10C]
00002A02  7008                     moveq.l    D0, 0x08
00002A04  3F00                     move.w     -[A7], D0
00002A06  A93A                     syscall    DisableItem
00002A08  2053                     movea.l    A0, [A3]
00002A0A  2F28 0130                move.l     -[A7], [A0 + 0x130]
00002A0E  7002                     moveq.l    D0, 0x02
00002A10  3F00                     move.w     -[A7], D0
00002A12  A93A                     syscall    DisableItem
00002A14  2053                     movea.l    A0, [A3]
00002A16  2F28 0130                move.l     -[A7], [A0 + 0x130]
00002A1A  700A                     moveq.l    D0, 0x0A
00002A1C  3F00                     move.w     -[A7], D0
00002A1E  A93A                     syscall    DisableItem
label00002A20:
00002A20  2053                     movea.l    A0, [A3]
00002A22  7001                     moveq.l    D0, 0x01
00002A24  B068 0152                cmp.w      D0, [A0 + 0x152]
00002A28  6600 00D2                bne        +0xD4 /* 00002AFC */
00002A2C  4A28 01CB                tst.b      [A0 + 0x1CB]
00002A30  660A                     bne        +0xC /* 00002A3C */
00002A32  2F28 0130                move.l     -[A7], [A0 + 0x130]
00002A36  7002                     moveq.l    D0, 0x02
00002A38  3F00                     move.w     -[A7], D0
00002A3A  A939                     syscall    EnableItem
label00002A3C:
00002A3C  4246                     clr.w      D6
00002A3E  2053                     movea.l    A0, [A3]
00002A40  2068 015E                movea.l    A0, [A0 + 0x15E]
00002A44  2850                     movea.l    A4, [A0]
00002A46  7E01                     moveq.l    D7, 0x01
00002A48  6014                     bra        +0x16 /* 00002A5E */
label00002A4A:
00002A4A  48C7                     ext.l      D7
00002A4C  2007                     move.l     D0, D7
00002A4E  E580                     asl        D0, 2
00002A50  4A74 0800                tst.w      [A4 + D0]
00002A54  6704                     beq        +0x6 /* 00002A5A */
00002A56  3C07                     move.w     D6, D7
00002A58  600C                     bra        +0xE /* 00002A66 */
label00002A5A:
00002A5A  3007                     move.w     D0, D7
00002A5C  5247                     addq.w     D7, 1
label00002A5E:
00002A5E  2053                     movea.l    A0, [A3]
00002A60  BE68 0150                cmp.w      D7, [A0 + 0x150]
00002A64  6FE4                     ble        -0x1A /* 00002A4A */
label00002A66:
00002A66  486E FEF8                pea.l      [A6 - 0x108]
00002A6A  486E FEF0                pea.l      [A6 - 0x110]
00002A6E  486E FEEE                pea.l      [A6 - 0x112]
00002A72  48C6                     ext.l      D6
00002A74  2F06                     move.l     -[A7], D6
00002A76  2053                     movea.l    A0, [A3]
00002A78  2F28 0104                move.l     -[A7], [A0 + 0x104]
00002A7C  4EBA 5FCA                jsr        [PC + 0x5FCA /* 00008A48 */]
00002A80  026E FF7F FEEE           andi.w     [A6 - 0x112], 0xFF7F
00002A86  302E FEEE                move.w     D0, [A6 - 0x112]
00002A8A  5F40                     subq.w     D0, 7
00002A8C  4FEF 0014                lea.l      A7, [A7 + 0x14]
00002A90  670E                     beq        +0x10 /* 00002AA0 */
00002A92  0440 0019                subi.w     D0, 0x19
00002A96  670E                     beq        +0x10 /* 00002AA6 */
00002A98  0440 0020                subi.w     D0, 0x20 /* ' ' */
00002A9C  670E                     beq        +0x10 /* 00002AAC */
00002A9E  6012                     bra        +0x14 /* 00002AB2 */
label00002AA0:
00002AA0  7C02                     moveq.l    D6, 0x02
00002AA2  7E01                     moveq.l    D7, 0x01
00002AA4  600E                     bra        +0x10 /* 00002AB4 */
label00002AA6:
00002AA6  7C04                     moveq.l    D6, 0x04
00002AA8  7E02                     moveq.l    D7, 0x02
00002AAA  6008                     bra        +0xA /* 00002AB4 */
label00002AAC:
00002AAC  7C03                     moveq.l    D6, 0x03
00002AAE  7E03                     moveq.l    D7, 0x03
00002AB0  6002                     bra        +0x4 /* 00002AB4 */
label00002AB2:
00002AB2  7C01                     moveq.l    D6, 0x01
label00002AB4:
00002AB4  3F06                     move.w     -[A7], D6
00002AB6  3F3C 0599                move.w     -[A7], 0x599
00002ABA  486E FF00                pea.l      [A6 - 0x100]
00002ABE  4EBA D5AA                jsr        [PC - 0x2A56 /* 0000006A */]
00002AC2  2053                     movea.l    A0, [A3]
00002AC4  2F28 0138                move.l     -[A7], [A0 + 0x138]
00002AC8  7003                     moveq.l    D0, 0x03
00002ACA  3F00                     move.w     -[A7], D0
00002ACC  486E FF00                pea.l      [A6 - 0x100]
00002AD0  A947                     syscall    SetMenuItemText/SetItem
00002AD2  0C46 0001                cmpi.w     D6, 0x1
00002AD6  6724                     beq        +0x26 /* 00002AFC */
00002AD8  2053                     movea.l    A0, [A3]
00002ADA  2F28 0138                move.l     -[A7], [A0 + 0x138]
00002ADE  7003                     moveq.l    D0, 0x03
00002AE0  3F00                     move.w     -[A7], D0
00002AE2  A939                     syscall    EnableItem
00002AE4  2053                     movea.l    A0, [A3]
00002AE6  2F28 0138                move.l     -[A7], [A0 + 0x138]
00002AEA  7004                     moveq.l    D0, 0x04
00002AEC  3F00                     move.w     -[A7], D0
00002AEE  A939                     syscall    EnableItem
00002AF0  2053                     movea.l    A0, [A3]
00002AF2  2F28 0130                move.l     -[A7], [A0 + 0x130]
00002AF6  700A                     moveq.l    D0, 0x0A
00002AF8  3F00                     move.w     -[A7], D0
00002AFA  A939                     syscall    EnableItem
label00002AFC:
00002AFC  2053                     movea.l    A0, [A3]
00002AFE  4A68 0152                tst.w      [A0 + 0x152]
00002B02  6F4A                     ble        +0x4C /* 00002B4E */
00002B04  2F28 0138                move.l     -[A7], [A0 + 0x138]
00002B08  7002                     moveq.l    D0, 0x02
00002B0A  3F00                     move.w     -[A7], D0
00002B0C  A939                     syscall    EnableItem
00002B0E  2F2E FEF4                move.l     -[A7], [A6 - 0x10C]
00002B12  7003                     moveq.l    D0, 0x03
00002B14  3F00                     move.w     -[A7], D0
00002B16  A939                     syscall    EnableItem
00002B18  2F2E FEF4                move.l     -[A7], [A6 - 0x10C]
00002B1C  7004                     moveq.l    D0, 0x04
00002B1E  3F00                     move.w     -[A7], D0
00002B20  A939                     syscall    EnableItem
00002B22  2F2E FEF4                move.l     -[A7], [A6 - 0x10C]
00002B26  7006                     moveq.l    D0, 0x06
00002B28  3F00                     move.w     -[A7], D0
00002B2A  A939                     syscall    EnableItem
00002B2C  2F2E FEF4                move.l     -[A7], [A6 - 0x10C]
00002B30  7008                     moveq.l    D0, 0x08
00002B32  3F00                     move.w     -[A7], D0
00002B34  A939                     syscall    EnableItem
00002B36  2053                     movea.l    A0, [A3]
00002B38  2F28 0134                move.l     -[A7], [A0 + 0x134]
00002B3C  7008                     moveq.l    D0, 0x08
00002B3E  3F00                     move.w     -[A7], D0
00002B40  A939                     syscall    EnableItem
00002B42  2053                     movea.l    A0, [A3]
00002B44  2F28 0134                move.l     -[A7], [A0 + 0x134]
00002B48  7009                     moveq.l    D0, 0x09
00002B4A  3F00                     move.w     -[A7], D0
00002B4C  A939                     syscall    EnableItem
label00002B4E:
00002B4E  2053                     movea.l    A0, [A3]
00002B50  7001                     moveq.l    D0, 0x01
00002B52  B068 0152                cmp.w      D0, [A0 + 0x152]
00002B56  6C52                     bge        +0x54 /* 00002BAA */
00002B58  2F28 0130                move.l     -[A7], [A0 + 0x130]
00002B5C  7002                     moveq.l    D0, 0x02
00002B5E  3F00                     move.w     -[A7], D0
00002B60  A93A                     syscall    DisableItem
00002B62  2053                     movea.l    A0, [A3]
00002B64  2F28 0134                move.l     -[A7], [A0 + 0x134]
00002B68  7001                     moveq.l    D0, 0x01
00002B6A  3F00                     move.w     -[A7], D0
00002B6C  A939                     syscall    EnableItem
00002B6E  2053                     movea.l    A0, [A3]
00002B70  2F28 0134                move.l     -[A7], [A0 + 0x134]
00002B74  7002                     moveq.l    D0, 0x02
00002B76  3F00                     move.w     -[A7], D0
00002B78  A939                     syscall    EnableItem
00002B7A  2053                     movea.l    A0, [A3]
00002B7C  2F28 0134                move.l     -[A7], [A0 + 0x134]
00002B80  7003                     moveq.l    D0, 0x03
00002B82  3F00                     move.w     -[A7], D0
00002B84  A939                     syscall    EnableItem
00002B86  2053                     movea.l    A0, [A3]
00002B88  2F28 0134                move.l     -[A7], [A0 + 0x134]
00002B8C  7004                     moveq.l    D0, 0x04
00002B8E  3F00                     move.w     -[A7], D0
00002B90  A939                     syscall    EnableItem
00002B92  2053                     movea.l    A0, [A3]
00002B94  2F28 0134                move.l     -[A7], [A0 + 0x134]
00002B98  7005                     moveq.l    D0, 0x05
00002B9A  3F00                     move.w     -[A7], D0
00002B9C  A939                     syscall    EnableItem
00002B9E  2053                     movea.l    A0, [A3]
00002BA0  2F28 0134                move.l     -[A7], [A0 + 0x134]
00002BA4  7006                     moveq.l    D0, 0x06
00002BA6  3F00                     move.w     -[A7], D0
00002BA8  A939                     syscall    EnableItem
label00002BAA:
00002BAA  2053                     movea.l    A0, [A3]
00002BAC  4A68 0150                tst.w      [A0 + 0x150]
00002BB0  6624                     bne        +0x26 /* 00002BD6 */
00002BB2  2F28 0130                move.l     -[A7], [A0 + 0x130]
00002BB6  7009                     moveq.l    D0, 0x09
00002BB8  3F00                     move.w     -[A7], D0
00002BBA  A93A                     syscall    DisableItem
00002BBC  2053                     movea.l    A0, [A3]
00002BBE  2F28 0130                move.l     -[A7], [A0 + 0x130]
00002BC2  7003                     moveq.l    D0, 0x03
00002BC4  3F00                     move.w     -[A7], D0
00002BC6  A93A                     syscall    DisableItem
00002BC8  2053                     movea.l    A0, [A3]
00002BCA  2F28 0130                move.l     -[A7], [A0 + 0x130]
00002BCE  7001                     moveq.l    D0, 0x01
00002BD0  3F00                     move.w     -[A7], D0
00002BD2  A93A                     syscall    DisableItem
00002BD4  6024                     bra        +0x26 /* 00002BFA */
label00002BD6:
00002BD6  2053                     movea.l    A0, [A3]
00002BD8  2F28 0130                move.l     -[A7], [A0 + 0x130]
00002BDC  7009                     moveq.l    D0, 0x09
00002BDE  3F00                     move.w     -[A7], D0
00002BE0  A939                     syscall    EnableItem
00002BE2  2053                     movea.l    A0, [A3]
00002BE4  2F28 0130                move.l     -[A7], [A0 + 0x130]
00002BE8  7003                     moveq.l    D0, 0x03
00002BEA  3F00                     move.w     -[A7], D0
00002BEC  A939                     syscall    EnableItem
00002BEE  2053                     movea.l    A0, [A3]
00002BF0  2F28 0130                move.l     -[A7], [A0 + 0x130]
00002BF4  7001                     moveq.l    D0, 0x01
00002BF6  3F00                     move.w     -[A7], D0
00002BF8  A939                     syscall    EnableItem
label00002BFA:
00002BFA  4CEE 18C0 FEDE           movem.l    D6,D7,A3,A4, [A6 - 0x122]
00002C00  4E5E                     unlink     A6
00002C02  4E75                     rts
fn00002C04:
00002C04  4E56 FF00                link       A6, -0x0100
00002C08  48E7 0118                movem.l    -[A7], D7,A3,A4
00002C0C  47EE FF00                lea.l      A3, [A6 - 0x100]
00002C10  286E 0008                movea.l    A4, [A6 + 0x8]
00002C14  7001                     moveq.l    D0, 0x01
00002C16  3F00                     move.w     -[A7], D0
00002C18  487A 00E4                pea.l      [PC + 0xE4 /* 00002CFE, value 0xD526573 '\rRes', pstring "Resource menu" */]
00002C1C  2F0B                     move.l     -[A7], A3
00002C1E  4EBA D44E                jsr        [PC - 0x2BB2 /* 0000006E */]
00002C22  2054                     movea.l    A0, [A4]
00002C24  2F28 0138                move.l     -[A7], [A0 + 0x138]
00002C28  7001                     moveq.l    D0, 0x01
00002C2A  3F00                     move.w     -[A7], D0
00002C2C  2F0B                     move.l     -[A7], A3
00002C2E  A947                     syscall    SetMenuItemText/SetItem
00002C30  2054                     movea.l    A0, [A4]
00002C32  2F28 0138                move.l     -[A7], [A0 + 0x138]
00002C36  7001                     moveq.l    D0, 0x01
00002C38  3F00                     move.w     -[A7], D0
00002C3A  A93A                     syscall    DisableItem
00002C3C  7005                     moveq.l    D0, 0x05
00002C3E  3F00                     move.w     -[A7], D0
00002C40  3F3C 0599                move.w     -[A7], 0x599
00002C44  2F0B                     move.l     -[A7], A3
00002C46  4EBA D422                jsr        [PC - 0x2BDE /* 0000006A */]
00002C4A  2054                     movea.l    A0, [A4]
00002C4C  2F28 0138                move.l     -[A7], [A0 + 0x138]
00002C50  7002                     moveq.l    D0, 0x02
00002C52  3F00                     move.w     -[A7], D0
00002C54  2F0B                     move.l     -[A7], A3
00002C56  A947                     syscall    SetMenuItemText/SetItem
00002C58  7001                     moveq.l    D0, 0x01
00002C5A  3F00                     move.w     -[A7], D0
00002C5C  3F3C 0599                move.w     -[A7], 0x599
00002C60  2F0B                     move.l     -[A7], A3
00002C62  4EBA D406                jsr        [PC - 0x2BFA /* 0000006A */]
00002C66  2054                     movea.l    A0, [A4]
00002C68  2F28 0138                move.l     -[A7], [A0 + 0x138]
00002C6C  7003                     moveq.l    D0, 0x03
00002C6E  3F00                     move.w     -[A7], D0
00002C70  2F0B                     move.l     -[A7], A3
00002C72  A947                     syscall    SetMenuItemText/SetItem
00002C74  2054                     movea.l    A0, [A4]
00002C76  2F28 0130                move.l     -[A7], [A0 + 0x130]
00002C7A  7000                     moveq.l    D0, 0x00
00002C7C  3F00                     move.w     -[A7], D0
00002C7E  A935                     syscall    InsertMenu
00002C80  2054                     movea.l    A0, [A4]
00002C82  2F28 0134                move.l     -[A7], [A0 + 0x134]
00002C86  7000                     moveq.l    D0, 0x00
00002C88  3F00                     move.w     -[A7], D0
00002C8A  A935                     syscall    InsertMenu
00002C8C  598F                     subq.l     A7, 4
00002C8E  7003                     moveq.l    D0, 0x03
00002C90  3F00                     move.w     -[A7], D0
00002C92  A949                     syscall    GetMenuHandle
00002C94  265F                     movea.l    A3, [A7]+
00002C96  558F                     subq.l     A7, 2
00002C98  4EBA D450                jsr        [PC - 0x2BB0 /* 000000EA */]
00002C9C  3E1F                     move.w     D7, [A7]+
00002C9E  0C47 FFFF                cmpi.w     D7, 0xFFFF
00002CA2  671C                     beq        +0x1E /* 00002CC0 */
00002CA4  48C7                     ext.l      D7
00002CA6  2F07                     move.l     -[A7], D7
00002CA8  4EBA 2182                jsr        [PC + 0x2182 /* 00004E2C */]
00002CAC  0C80 2020 2020           cmpi.l     D0, 0x20202020 /* '    ' */
00002CB2  584F                     addq.w     A7, 4
00002CB4  670A                     beq        +0xC /* 00002CC0 */
00002CB6  2F0B                     move.l     -[A7], A3
00002CB8  7005                     moveq.l    D0, 0x05
00002CBA  3F00                     move.w     -[A7], D0
00002CBC  A939                     syscall    EnableItem
00002CBE  6008                     bra        +0xA /* 00002CC8 */
label00002CC0:
00002CC0  2F0B                     move.l     -[A7], A3
00002CC2  7005                     moveq.l    D0, 0x05
00002CC4  3F00                     move.w     -[A7], D0
00002CC6  A93A                     syscall    DisableItem
label00002CC8:
00002CC8  2F0B                     move.l     -[A7], A3
00002CCA  7009                     moveq.l    D0, 0x09
00002CCC  3F00                     move.w     -[A7], D0
00002CCE  A939                     syscall    EnableItem
00002CD0  2054                     movea.l    A0, [A4]
00002CD2  3028 0148                move.w     D0, [A0 + 0x148]
00002CD6  48C0                     ext.l      D0
00002CD8  2F00                     move.l     -[A7], D0
00002CDA  2F28 013C                move.l     -[A7], [A0 + 0x13C]
00002CDE  4EBA 00B2                jsr        [PC + 0xB2 /* 00002D92 */]
00002CE2  2F0C                     move.l     -[A7], A4
00002CE4  4EBA FB88                jsr        [PC - 0x478 /* 0000286E */]
00002CE8  7000                     moveq.l    D0, 0x00
00002CEA  1F00                     move.b     -[A7], D0
00002CEC  4EBA D3B8                jsr        [PC - 0x2C48 /* 000000A6 */]
00002CF0  4FEF 000C                lea.l      A7, [A7 + 0xC]
00002CF4  4CEE 1880 FEF4           movem.l    D7,A3,A4, [A6 - 0x10C]
00002CFA  4E5E                     unlink     A6
00002CFC  4E75                     rts
00002CFE  0D52                     bchg       [A2], D6
00002D00  6573                     bcs        +0x75 /* 00002D75 */
00002D02  6F75                     ble        +0x77 /* 00002D79 */
00002D04  7263                     moveq.l    D1, 0x63
00002D06  6520                     bcs        +0x22 /* 00002D28 */
00002D08  6D65                     blt        +0x67 /* 00002D6F */
00002D0A  6E75                     bgt        +0x77 /* 00002D81 */
00002D0C  0000 4E56                ori.b      D0, 0x56 /* 'V' */
// begin alternate branch 00002D0E-00002D12
fn00002D0E:
00002D0E  4E56 FF00                link       A6, -0x0100
// end alternate branch 00002D0E-00002D12
fn00002D0E: // (misaligned)
00002D10  FF00                     .extension 0xF00 <<F/4-5/7>> // unimplemented
00002D12  48E7 0018                movem.l    -[A7], A3,A4
00002D16  266E 0008                movea.l    A3, [A6 + 0x8]
00002D1A  49EE FF00                lea.l      A4, [A6 - 0x100]
00002D1E  7002                     moveq.l    D0, 0x02
00002D20  3F00                     move.w     -[A7], D0
00002D22  487A 005E                pea.l      [PC + 0x5E /* 00002D82, value 0xD526573 '\rRes', pstring "Resource menu" */]
00002D26  2F0C                     move.l     -[A7], A4
label00002D28:
00002D28  4EBA D344                jsr        [PC - 0x2CBC /* 0000006E */]
00002D2C  2053                     movea.l    A0, [A3]
00002D2E  2F28 0138                move.l     -[A7], [A0 + 0x138]
00002D32  7002                     moveq.l    D0, 0x02
00002D34  3F00                     move.w     -[A7], D0
00002D36  2F0C                     move.l     -[A7], A4
00002D38  A947                     syscall    SetMenuItemText/SetItem
00002D3A  7001                     moveq.l    D0, 0x01
00002D3C  3F00                     move.w     -[A7], D0
00002D3E  3F3C 0599                move.w     -[A7], 0x599
00002D42  2F0C                     move.l     -[A7], A4
00002D44  4EBA D324                jsr        [PC - 0x2CDC /* 0000006A */]
00002D48  2053                     movea.l    A0, [A3]
00002D4A  2F28 0138                move.l     -[A7], [A0 + 0x138]
00002D4E  7003                     moveq.l    D0, 0x03
00002D50  3F00                     move.w     -[A7], D0
00002D52  2F0C                     move.l     -[A7], A4
00002D54  A947                     syscall    SetMenuItemText/SetItem
00002D56  3F3C 0596                move.w     -[A7], 0x596
00002D5A  A936                     syscall    DeleteMenu
00002D5C  3F3C 0597                move.w     -[A7], 0x597
00002D60  A936                     syscall    DeleteMenu
00002D62  7003                     moveq.l    D0, 0x03
00002D64  3F00                     move.w     -[A7], D0
00002D66  2F3C FFFF F97B           move.l     -[A7], 0xFFFFF97B
00002D6C  4EBA D350                jsr        [PC - 0x2CB0 /* 000000BE */]
00002D70  7000                     moveq.l    D0, 0x00
00002D72  1F00                     move.b     -[A7], D0
00002D74  4EBA D330                jsr        [PC - 0x2CD0 /* 000000A6 */]
00002D78  4CEE 1800 FEF8           movem.l    A3,A4, [A6 - 0x108]
00002D7E  4E5E                     unlink     A6
00002D80  4E75                     rts
00002D82  0D52                     bchg       [A2], D6
00002D84  6573                     bcs        +0x75 /* 00002DF9 */
00002D86  6F75                     ble        +0x77 /* 00002DFD */
00002D88  7263                     moveq.l    D1, 0x63
00002D8A  6520                     bcs        +0x22 /* 00002DAC */
00002D8C  6D65                     blt        +0x67 /* 00002DF3 */
00002D8E  6E75                     bgt        +0x77 /* 00002E05 */
00002D90  0000 4E56                ori.b      D0, 0x56 /* 'V' */
// begin alternate branch 00002D92-00002D9A
fn00002D92:
00002D92  4E56 0000                link       A6, 0
00002D96  48E7 1308                movem.l    -[A7], D3,D6,D7,A4
// end alternate branch 00002D92-00002D9A
fn00002D92: // (misaligned)
00002D94  0000 48E7                ori.b      D0, 0xE7
00002D98  1308                     move.b     -[A1], A0
00002D9A  3C2E 000E                move.w     D6, [A6 + 0xE]
00002D9E  286E 0008                movea.l    A4, [A6 + 0x8]
00002DA2  558F                     subq.l     A7, 2
00002DA4  2F0C                     move.l     -[A7], A4
00002DA6  A950                     syscall    CountMItems
00002DA8  3E1F                     move.w     D7, [A7]+
00002DAA  6010                     bra        +0x12 /* 00002DBC */
label00002DAC:
00002DAC  2F0C                     move.l     -[A7], A4
00002DAE  3F07                     move.w     -[A7], D7
00002DB0  BC47                     cmp.w      D6, D7
00002DB2  57C3                     seq        D3
00002DB4  4403                     neg.b      D3
00002DB6  1F03                     move.b     -[A7], D3
00002DB8  A945                     syscall    CheckItem
00002DBA  5347                     subq.w     D7, 1
label00002DBC:
00002DBC  4A47                     tst.w      D7
00002DBE  6EEC                     bgt        -0x12 /* 00002DAC */
00002DC0  4CEE 10C8 FFF0           movem.l    D3,D6,D7,A4, [A6 - 0x10]
00002DC6  4E5E                     unlink     A6
00002DC8  4E75                     rts
fn00002DCA:
00002DCA  4E56 FEF6                link       A6, -0x010A
00002DCE  48E7 1118                movem.l    -[A7], D3,D7,A3,A4
00002DD2  47EE FF00                lea.l      A3, [A6 - 0x100]
00002DD6  286E 0008                movea.l    A4, [A6 + 0x8]
00002DDA  598F                     subq.l     A7, 4
00002DDC  3F3C 0080                move.w     -[A7], 0x80
00002DE0  A949                     syscall    GetMenuHandle
00002DE2  2054                     movea.l    A0, [A4]
00002DE4  215F 0138                move.l     [A0 + 0x138], [A7]+
00002DE8  598F                     subq.l     A7, 4
00002DEA  3F3C 0596                move.w     -[A7], 0x596
00002DEE  A9BF                     syscall    GetRMenu
00002DF0  2054                     movea.l    A0, [A4]
00002DF2  215F 0130                move.l     [A0 + 0x130], [A7]+
00002DF6  598F                     subq.l     A7, 4
00002DF8  3F3C 0597                move.w     -[A7], 0x597
00002DFC  A9BF                     syscall    GetRMenu
00002DFE  2054                     movea.l    A0, [A4]
00002E00  215F 0134                move.l     [A0 + 0x134], [A7]+
00002E04  598F                     subq.l     A7, 4
00002E06  2F3C 4D45 4E55           move.l     -[A7], 0x4D454E55 /* 'MENU' */
00002E0C  3F3C 0090                move.w     -[A7], 0x90
00002E10  A9A0                     syscall    GetResource
00002E12  2054                     movea.l    A0, [A4]
00002E14  215F 013C                move.l     [A0 + 0x13C], [A7]+
00002E18  598F                     subq.l     A7, 4
00002E1A  3F3C 0091                move.w     -[A7], 0x91
00002E1E  A9BF                     syscall    GetRMenu
00002E20  2054                     movea.l    A0, [A4]
00002E22  215F 0140                move.l     [A0 + 0x140], [A7]+
00002E26  598F                     subq.l     A7, 4
00002E28  3F3C 0598                move.w     -[A7], 0x598
00002E2C  A9BF                     syscall    GetRMenu
00002E2E  2054                     movea.l    A0, [A4]
00002E30  215F 0144                move.l     [A0 + 0x144], [A7]+
00002E34  558F                     subq.l     A7, 2
00002E36  2054                     movea.l    A0, [A4]
00002E38  2F28 013C                move.l     -[A7], [A0 + 0x13C]
00002E3C  A950                     syscall    CountMItems
00002E3E  3E1F                     move.w     D7, [A7]+
00002E40  6028                     bra        +0x2A /* 00002E6A */
label00002E42:
00002E42  2054                     movea.l    A0, [A4]
00002E44  2F28 013C                move.l     -[A7], [A0 + 0x13C]
00002E48  3F07                     move.w     -[A7], D7
00002E4A  2F0B                     move.l     -[A7], A3
00002E4C  A946                     syscall    GetMenuItemText/GetItem
00002E4E  2F0B                     move.l     -[A7], A3
00002E50  486E FEF6                pea.l      [A6 - 0x10A]
00002E54  A900                     syscall    GetFNum
00002E56  2054                     movea.l    A0, [A4]
00002E58  302E FEF6                move.w     D0, [A6 - 0x10A]
00002E5C  B068 014C                cmp.w      D0, [A0 + 0x14C]
00002E60  6606                     bne        +0x8 /* 00002E68 */
00002E62  3147 0148                move.w     [A0 + 0x148], D7
00002E66  6006                     bra        +0x8 /* 00002E6E */
label00002E68:
00002E68  5347                     subq.w     D7, 1
label00002E6A:
00002E6A  4A47                     tst.w      D7
00002E6C  6ED4                     bgt        -0x2A /* 00002E42 */
label00002E6E:
00002E6E  7001                     moveq.l    D0, 0x01
00002E70  2F00                     move.l     -[A7], D0
00002E72  2F0C                     move.l     -[A7], A4
00002E74  4EBA 00A8                jsr        [PC + 0xA8 /* 00002F1E */]
00002E78  558F                     subq.l     A7, 2
00002E7A  2054                     movea.l    A0, [A4]
00002E7C  2F28 0140                move.l     -[A7], [A0 + 0x140]
00002E80  A950                     syscall    CountMItems
00002E82  3E1F                     move.w     D7, [A7]+
00002E84  504F                     addq.w     A7, 8
00002E86  602A                     bra        +0x2C /* 00002EB2 */
label00002E88:
00002E88  2054                     movea.l    A0, [A4]
00002E8A  2F28 0140                move.l     -[A7], [A0 + 0x140]
00002E8E  3F07                     move.w     -[A7], D7
00002E90  2F0B                     move.l     -[A7], A3
00002E92  A946                     syscall    GetMenuItemText/GetItem
00002E94  2F0B                     move.l     -[A7], A3
00002E96  486E FEF8                pea.l      [A6 - 0x108]
00002E9A  4EBA 5FF6                jsr        [PC + 0x5FF6 /* 00008E92 */]
00002E9E  2054                     movea.l    A0, [A4]
00002EA0  302E FEFA                move.w     D0, [A6 - 0x106]
00002EA4  B068 014E                cmp.w      D0, [A0 + 0x14E]
00002EA8  6606                     bne        +0x8 /* 00002EB0 */
00002EAA  3147 014A                move.w     [A0 + 0x14A], D7
00002EAE  6006                     bra        +0x8 /* 00002EB6 */
label00002EB0:
00002EB0  5347                     subq.w     D7, 1
label00002EB2:
00002EB2  4A47                     tst.w      D7
00002EB4  6ED2                     bgt        -0x2C /* 00002E88 */
label00002EB6:
00002EB6  2054                     movea.l    A0, [A4]
00002EB8  2F28 0140                move.l     -[A7], [A0 + 0x140]
00002EBC  3F28 014A                move.w     -[A7], [A0 + 0x14A]
00002EC0  7012                     moveq.l    D0, 0x12
00002EC2  3F00                     move.w     -[A7], D0
00002EC4  A944                     syscall    SetItmMark
00002EC6  2054                     movea.l    A0, [A4]
00002EC8  2F28 0130                move.l     -[A7], [A0 + 0x130]
00002ECC  A992                     syscall    DetachResource
00002ECE  2054                     movea.l    A0, [A4]
00002ED0  2F28 0134                move.l     -[A7], [A0 + 0x134]
00002ED4  A992                     syscall    DetachResource
00002ED6  2054                     movea.l    A0, [A4]
00002ED8  2F28 0140                move.l     -[A7], [A0 + 0x140]
00002EDC  A992                     syscall    DetachResource
00002EDE  2054                     movea.l    A0, [A4]
00002EE0  2F28 0144                move.l     -[A7], [A0 + 0x144]
00002EE4  A992                     syscall    DetachResource
00002EE6  598F                     subq.l     A7, 4
00002EE8  7003                     moveq.l    D0, 0x03
00002EEA  3F00                     move.w     -[A7], D0
00002EEC  A949                     syscall    GetMenuHandle
00002EEE  2D5F FEFC                move.l     [A6 - 0x104], [A7]+
00002EF2  7006                     moveq.l    D0, 0x06
00002EF4  3F00                     move.w     -[A7], D0
00002EF6  3F3C 0597                move.w     -[A7], 0x597
00002EFA  2F0B                     move.l     -[A7], A3
00002EFC  4EBA D16C                jsr        [PC - 0x2E94 /* 0000006A */]
00002F00  2F2E FEFC                move.l     -[A7], [A6 - 0x104]
00002F04  7001                     moveq.l    D0, 0x01
00002F06  3F00                     move.w     -[A7], D0
00002F08  2F0B                     move.l     -[A7], A3
00002F0A  A947                     syscall    SetMenuItemText/SetItem
00002F0C  2F0C                     move.l     -[A7], A4
00002F0E  4EBA FCF4                jsr        [PC - 0x30C /* 00002C04 */]
00002F12  584F                     addq.w     A7, 4
00002F14  4CEE 1888 FEE6           movem.l    D3,D7,A3,A4, [A6 - 0x11A]
00002F1A  4E5E                     unlink     A6
00002F1C  4E75                     rts
fn00002F1E:
00002F1E  4E56 FEFC                link       A6, -0x0104
00002F22  48E7 1318                movem.l    -[A7], D3,D6,D7,A3,A4
00002F26  1C2E 000F                move.b     D6, [A6 + 0xF]
00002F2A  47EE FF00                lea.l      A3, [A6 - 0x100]
00002F2E  286E 0008                movea.l    A4, [A6 + 0x8]
00002F32  7E01                     moveq.l    D7, 0x01
label00002F34:
00002F34  4A06                     tst.b      D6
00002F36  6738                     beq        +0x3A /* 00002F70 */
00002F38  2054                     movea.l    A0, [A4]
00002F3A  2F28 0140                move.l     -[A7], [A0 + 0x140]
00002F3E  3F07                     move.w     -[A7], D7
00002F40  2F0B                     move.l     -[A7], A3
00002F42  A946                     syscall    GetMenuItemText/GetItem
00002F44  2F0B                     move.l     -[A7], A3
00002F46  486E FEFC                pea.l      [A6 - 0x104]
00002F4A  4EBA 5F46                jsr        [PC + 0x5F46 /* 00008E92 */]
00002F4E  558F                     subq.l     A7, 2
00002F50  2054                     movea.l    A0, [A4]
00002F52  3F28 014C                move.w     -[A7], [A0 + 0x14C]
00002F56  3F2E FEFE                move.w     -[A7], [A6 - 0x102]
00002F5A  A902                     syscall    RealFont
00002F5C  4A1F                     tst.b      [A7]+
00002F5E  671E                     beq        +0x20 /* 00002F7E */
00002F60  2054                     movea.l    A0, [A4]
00002F62  2F28 0140                move.l     -[A7], [A0 + 0x140]
00002F66  3F07                     move.w     -[A7], D7
00002F68  7008                     moveq.l    D0, 0x08
00002F6A  3F00                     move.w     -[A7], D0
00002F6C  A942                     syscall    SetItmStyle
00002F6E  600E                     bra        +0x10 /* 00002F7E */
label00002F70:
00002F70  2054                     movea.l    A0, [A4]
00002F72  2F28 0140                move.l     -[A7], [A0 + 0x140]
00002F76  3F07                     move.w     -[A7], D7
00002F78  7000                     moveq.l    D0, 0x00
00002F7A  3F00                     move.w     -[A7], D0
00002F7C  A942                     syscall    SetItmStyle
label00002F7E:
00002F7E  3007                     move.w     D0, D7
00002F80  5247                     addq.w     D7, 1
00002F82  0C47 0009                cmpi.w     D7, 0x9 /* '\t' */
00002F86  6FAC                     ble        -0x52 /* 00002F34 */
00002F88  4CEE 18C8 FEE8           movem.l    D3,D6,D7,A3,A4, [A6 - 0x118]
00002F8E  4E5E                     unlink     A6
00002F90  4E75                     rts
fn00002F92:
00002F92  4E56 FFC4                link       A6, -0x003C
00002F96  48E7 0118                movem.l    -[A7], D7,A3,A4
00002F9A  266E 0008                movea.l    A3, [A6 + 0x8]
00002F9E  486E FFC6                pea.l      [A6 - 0x3A]
00002FA2  486E FFC5                pea.l      [A6 - 0x3B]
00002FA6  486E FFC7                pea.l      [A6 - 0x39]
00002FAA  4EBA D10E                jsr        [PC - 0x2EF2 /* 000000BA */]
00002FAE  486E FFCE                pea.l      [A6 - 0x32]
00002FB2  A898                     syscall    GetPenState
00002FB4  2053                     movea.l    A0, [A3]
00002FB6  2068 016A                movea.l    A0, [A0 + 0x16A]
00002FBA  4868 0066                pea.l      [A0 + 0x66]
00002FBE  A89D                     syscall    PenPat
00002FC0  700A                     moveq.l    D0, 0x0A
00002FC2  3F00                     move.w     -[A7], D0
00002FC4  A89C                     syscall    PenMode
00002FC6  2D6E 000C FFFC           move.l     [A6 - 0x4], [A6 + 0xC]
00002FCC  486E FFE0                pea.l      [A6 - 0x20]
00002FD0  7000                     moveq.l    D0, 0x00
00002FD2  3F00                     move.w     -[A7], D0
00002FD4  3F00                     move.w     -[A7], D0
00002FD6  3F00                     move.w     -[A7], D0
00002FD8  3F00                     move.w     -[A7], D0
00002FDA  A8A7                     syscall    SetRect
00002FDC  6042                     bra        +0x44 /* 00003020 */
label00002FDE:
00002FDE  486E FFF8                pea.l      [A6 - 0x8]
00002FE2  A972                     syscall    GetMouse
00002FE4  558F                     subq.l     A7, 2
00002FE6  2F2E FFF8                move.l     -[A7], [A6 - 0x8]
00002FEA  2F2E FFFC                move.l     -[A7], [A6 - 0x4]
00002FEE  A881                     syscall    EqualPt
00002FF0  4A1F                     tst.b      [A7]+
00002FF2  662C                     bne        +0x2E /* 00003020 */
00002FF4  558F                     subq.l     A7, 2
00002FF6  486E FFE0                pea.l      [A6 - 0x20]
00002FFA  A8AE                     syscall    EmptyRect
00002FFC  4A1F                     tst.b      [A7]+
00002FFE  6606                     bne        +0x8 /* 00003006 */
00003000  486E FFE0                pea.l      [A6 - 0x20]
00003004  A8A1                     syscall    FrameRect
label00003006:
00003006  2F2E 000C                move.l     -[A7], [A6 + 0xC]
0000300A  2F2E FFF8                move.l     -[A7], [A6 - 0x8]
0000300E  486E FFE0                pea.l      [A6 - 0x20]
00003012  A8AC                     syscall    Pt2Rect
00003014  486E FFE0                pea.l      [A6 - 0x20]
00003018  A8A1                     syscall    FrameRect
0000301A  2D6E FFF8 FFFC           move.l     [A6 - 0x4], [A6 - 0x8]
label00003020:
00003020  558F                     subq.l     A7, 2
00003022  A973                     syscall    StillDown
00003024  4A1F                     tst.b      [A7]+
00003026  66B6                     bne        -0x48 /* 00002FDE */
00003028  486E FFE0                pea.l      [A6 - 0x20]
0000302C  A8A1                     syscall    FrameRect
0000302E  486E FFCE                pea.l      [A6 - 0x32]
00003032  A899                     syscall    SetPenState
00003034  2053                     movea.l    A0, [A3]
00003036  2068 015E                movea.l    A0, [A0 + 0x15E]
0000303A  2850                     movea.l    A4, [A0]
0000303C  7E01                     moveq.l    D7, 0x01
0000303E  6070                     bra        +0x72 /* 000030B0 */
label00003040:
00003040  486E FFE8                pea.l      [A6 - 0x18]
00003044  486E FFCA                pea.l      [A6 - 0x36]
00003048  486E FFC8                pea.l      [A6 - 0x38]
0000304C  48C7                     ext.l      D7
0000304E  2F07                     move.l     -[A7], D7
00003050  2053                     movea.l    A0, [A3]
00003052  2F28 0104                move.l     -[A7], [A0 + 0x104]
00003056  4EBA 59F0                jsr        [PC + 0x59F0 /* 00008A48 */]
0000305A  303C FF7F                move.w     D0, 0xFF7F
0000305E  C06E FFC8                and.w      D0, [A6 - 0x38]
00003062  0C40 0001                cmpi.w     D0, 0x1
00003066  4FEF 0014                lea.l      A7, [A7 + 0x14]
0000306A  6740                     beq        +0x42 /* 000030AC */
0000306C  558F                     subq.l     A7, 2
0000306E  486E FFE8                pea.l      [A6 - 0x18]
00003072  486E FFE0                pea.l      [A6 - 0x20]
00003076  486E FFF0                pea.l      [A6 - 0x10]
0000307A  A8AA                     syscall    SectRect
0000307C  4A1F                     tst.b      [A7]+
0000307E  672C                     beq        +0x2E /* 000030AC */
00003080  4A2E FFC5                tst.b      [A6 - 0x3B]
00003084  671A                     beq        +0x1C /* 000030A0 */
00003086  48C7                     ext.l      D7
00003088  2007                     move.l     D0, D7
0000308A  E580                     asl        D0, 2
0000308C  4A74 0800                tst.w      [A4 + D0]
00003090  670E                     beq        +0x10 /* 000030A0 */
00003092  48C7                     ext.l      D7
00003094  2F07                     move.l     -[A7], D7
00003096  2F0B                     move.l     -[A7], A3
00003098  4EBA D66C                jsr        [PC - 0x2994 /* 00000706 */]
0000309C  504F                     addq.w     A7, 8
0000309E  600C                     bra        +0xE /* 000030AC */
label000030A0:
000030A0  48C7                     ext.l      D7
000030A2  2F07                     move.l     -[A7], D7
000030A4  2F0B                     move.l     -[A7], A3
000030A6  4EBA 001A                jsr        [PC + 0x1A /* 000030C2 */]
000030AA  504F                     addq.w     A7, 8
label000030AC:
000030AC  3007                     move.w     D0, D7
000030AE  5247                     addq.w     D7, 1
label000030B0:
000030B0  2053                     movea.l    A0, [A3]
000030B2  BE68 0150                cmp.w      D7, [A0 + 0x150]
000030B6  6F88                     ble        -0x76 /* 00003040 */
000030B8  4CEE 1880 FFB8           movem.l    D7,A3,A4, [A6 - 0x48]
000030BE  4E5E                     unlink     A6
000030C0  4E75                     rts
fn000030C2:
000030C2  4E56 0000                link       A6, 0
000030C6  48E7 1318                movem.l    -[A7], D3,D6,D7,A3,A4
000030CA  3C2E 000E                move.w     D6, [A6 + 0xE]
000030CE  266E 0008                movea.l    A3, [A6 + 0x8]
000030D2  2053                     movea.l    A0, [A3]
000030D4  2068 015E                movea.l    A0, [A0 + 0x15E]
000030D8  2850                     movea.l    A4, [A0]
000030DA  2053                     movea.l    A0, [A3]
000030DC  7001                     moveq.l    D0, 0x01
000030DE  B068 0152                cmp.w      D0, [A0 + 0x152]
000030E2  663A                     bne        +0x3C /* 0000311E */
000030E4  7E01                     moveq.l    D7, 0x01
000030E6  602E                     bra        +0x30 /* 00003116 */
label000030E8:
000030E8  48C7                     ext.l      D7
000030EA  2007                     move.l     D0, D7
000030EC  E580                     asl        D0, 2
000030EE  7201                     moveq.l    D1, 0x01
000030F0  B274 0800                cmp.w      D1, [A4 + D0]
000030F4  661C                     bne        +0x1E /* 00003112 */
000030F6  7000                     moveq.l    D0, 0x00
000030F8  2F00                     move.l     -[A7], D0
000030FA  2F00                     move.l     -[A7], D0
000030FC  2F00                     move.l     -[A7], D0
000030FE  7201                     moveq.l    D1, 0x01
00003100  2F01                     move.l     -[A7], D1
00003102  48C7                     ext.l      D7
00003104  2F07                     move.l     -[A7], D7
00003106  2F0B                     move.l     -[A7], A3
00003108  4EBA 270E                jsr        [PC + 0x270E /* 00005818 */]
0000310C  4FEF 0018                lea.l      A7, [A7 + 0x18]
00003110  600C                     bra        +0xE /* 0000311E */
label00003112:
00003112  3007                     move.w     D0, D7
00003114  5247                     addq.w     D7, 1
label00003116:
00003116  2053                     movea.l    A0, [A3]
00003118  BE68 0150                cmp.w      D7, [A0 + 0x150]
0000311C  6FCA                     ble        -0x34 /* 000030E8 */
label0000311E:
0000311E  2053                     movea.l    A0, [A3]
00003120  5268 0152                addq.w     [A0 + 0x152], 1
00003124  48C6                     ext.l      D6
00003126  2006                     move.l     D0, D6
00003128  E580                     asl        D0, 2
0000312A  39A8 0152 0800           move.w     [A4 + D0], [A0 + 0x152]
00003130  7000                     moveq.l    D0, 0x00
00003132  2F00                     move.l     -[A7], D0
00003134  2F00                     move.l     -[A7], D0
00003136  7201                     moveq.l    D1, 0x01
00003138  2F01                     move.l     -[A7], D1
0000313A  2053                     movea.l    A0, [A3]
0000313C  7401                     moveq.l    D2, 0x01
0000313E  B468 0152                cmp.w      D2, [A0 + 0x152]
00003142  57C3                     seq        D3
00003144  4403                     neg.b      D3
00003146  4883                     ext.w      D3
00003148  48C3                     ext.l      D3
0000314A  2F03                     move.l     -[A7], D3
0000314C  48C6                     ext.l      D6
0000314E  2F06                     move.l     -[A7], D6
00003150  2F0B                     move.l     -[A7], A3
00003152  4EBA 26C4                jsr        [PC + 0x26C4 /* 00005818 */]
00003156  4FEF 0018                lea.l      A7, [A7 + 0x18]
0000315A  4CEE 18C8 FFEC           movem.l    D3,D6,D7,A3,A4, [A6 - 0x14]
00003160  4E5E                     unlink     A6
00003162  4E75                     rts
fn00003164:
00003164  4E56 FFFC                link       A6, -0x0004
00003168  48E7 0018                movem.l    -[A7], A3,A4
0000316C  266E 000C                movea.l    A3, [A6 + 0xC]
00003170  286E 0008                movea.l    A4, [A6 + 0x8]
00003174  2054                     movea.l    A0, [A4]
00003176  B7E8 0104                cmpa.l     A3, [A0 + 0x104]
0000317A  670A                     beq        +0xC /* 00003186 */
0000317C  2F0C                     move.l     -[A7], A4
0000317E  4EBA 56DA                jsr        [PC + 0x56DA /* 0000885A */]
00003182  584F                     addq.w     A7, 4
00003184  6040                     bra        +0x42 /* 000031C6 */
label00003186:
00003186  486E FFFC                pea.l      [A6 - 0x4]
0000318A  A874                     syscall    GetPort
0000318C  2F0B                     move.l     -[A7], A3
0000318E  A873                     syscall    SetPort
00003190  2F0C                     move.l     -[A7], A4
00003192  4EBA ED2C                jsr        [PC - 0x12D4 /* 00001EC0 */]
00003196  486B 0010                pea.l      [A3 + 0x10]
0000319A  A8A3                     syscall    EraseRect
0000319C  2054                     movea.l    A0, [A4]
0000319E  2068 0104                movea.l    A0, [A0 + 0x104]
000031A2  317C FFFF 00A4           move.w     [A0 + 0xA4], 0xFFFF
000031A8  2F0C                     move.l     -[A7], A4
000031AA  2F0B                     move.l     -[A7], A3
000031AC  4EBA 52C2                jsr        [PC + 0x52C2 /* 00008470 */]
000031B0  2F0C                     move.l     -[A7], A4
000031B2  4EBA 001C                jsr        [PC + 0x1C /* 000031D0 */]
000031B6  2F0C                     move.l     -[A7], A4
000031B8  4EBA 3ED4                jsr        [PC + 0x3ED4 /* 0000708E */]
000031BC  2F2E FFFC                move.l     -[A7], [A6 - 0x4]
000031C0  A873                     syscall    SetPort
000031C2  4FEF 0014                lea.l      A7, [A7 + 0x14]
label000031C6:
000031C6  4CEE 1800 FFF4           movem.l    A3,A4, [A6 - 0xC]
000031CC  4E5E                     unlink     A6
000031CE  4E75                     rts
fn000031D0:
000031D0  4E56 FFE0                link       A6, -0x0020
000031D4  48E7 1118                movem.l    -[A7], D3,D7,A3,A4
000031D8  286E 0008                movea.l    A4, [A6 + 0x8]
000031DC  486E FFEE                pea.l      [A6 - 0x12]
000031E0  A898                     syscall    GetPenState
000031E2  7008                     moveq.l    D0, 0x08
000031E4  3F00                     move.w     -[A7], D0
000031E6  A89C                     syscall    PenMode
000031E8  7001                     moveq.l    D0, 0x01
000031EA  3F00                     move.w     -[A7], D0
000031EC  A887                     syscall    TextFont
000031EE  7009                     moveq.l    D0, 0x09
000031F0  3F00                     move.w     -[A7], D0
000031F2  A88A                     syscall    TextSize
000031F4  2054                     movea.l    A0, [A4]
000031F6  2068 016A                movea.l    A0, [A0 + 0x16A]
000031FA  4868 006E                pea.l      [A0 + 0x6E]
000031FE  A89D                     syscall    PenPat
00003200  2054                     movea.l    A0, [A4]
00003202  2068 015E                movea.l    A0, [A0 + 0x15E]
00003206  2650                     movea.l    A3, [A0]
00003208  2054                     movea.l    A0, [A4]
0000320A  3E28 0150                move.w     D7, [A0 + 0x150]
0000320E  605A                     bra        +0x5C /* 0000326A */
label00003210:
00003210  486E FFE6                pea.l      [A6 - 0x1A]
00003214  486E FFE2                pea.l      [A6 - 0x1E]
00003218  486E FFE0                pea.l      [A6 - 0x20]
0000321C  48C7                     ext.l      D7
0000321E  2F07                     move.l     -[A7], D7
00003220  2054                     movea.l    A0, [A4]
00003222  2F28 0104                move.l     -[A7], [A0 + 0x104]
00003226  4EBA 5820                jsr        [PC + 0x5820 /* 00008A48 */]
0000322A  7004                     moveq.l    D0, 0x04
0000322C  C06E FFE0                and.w      D0, [A6 - 0x20]
00003230  7200                     moveq.l    D1, 0x00
00003232  3200                     move.w     D1, D0
00003234  4A81                     tst.l      D1
00003236  4FEF 0014                lea.l      A7, [A7 + 0x14]
0000323A  672C                     beq        +0x2E /* 00003268 */
0000323C  302E FFE0                move.w     D0, [A6 - 0x20]
00003240  48C0                     ext.l      D0
00003242  2F00                     move.l     -[A7], D0
00003244  48C7                     ext.l      D7
00003246  2007                     move.l     D0, D7
00003248  E580                     asl        D0, 2
0000324A  3033 0800                move.w     D0, [A3 + D0]
0000324E  48C0                     ext.l      D0
00003250  2F00                     move.l     -[A7], D0
00003252  48C7                     ext.l      D7
00003254  2F07                     move.l     -[A7], D7
00003256  41EE FFEE                lea.l      A0, [A6 - 0x12]
0000325A  2F20                     move.l     -[A7], -[A0]
0000325C  2F20                     move.l     -[A7], -[A0]
0000325E  2F0C                     move.l     -[A7], A4
00003260  4EBA 00A8                jsr        [PC + 0xA8 /* 0000330A */]
00003264  4FEF 0018                lea.l      A7, [A7 + 0x18]
label00003268:
00003268  5347                     subq.w     D7, 1
label0000326A:
0000326A  4A47                     tst.w      D7
0000326C  6EA2                     bgt        -0x5C /* 00003210 */
0000326E  7E01                     moveq.l    D7, 0x01
00003270  6064                     bra        +0x66 /* 000032D6 */
label00003272:
00003272  486E FFE6                pea.l      [A6 - 0x1A]
00003276  486E FFE2                pea.l      [A6 - 0x1E]
0000327A  486E FFE0                pea.l      [A6 - 0x20]
0000327E  48C7                     ext.l      D7
00003280  2F07                     move.l     -[A7], D7
00003282  2054                     movea.l    A0, [A4]
00003284  2F28 0104                move.l     -[A7], [A0 + 0x104]
00003288  4EBA 57BE                jsr        [PC + 0x57BE /* 00008A48 */]
0000328C  026E FF7F FFE0           andi.w     [A6 - 0x20], 0xFF7F
00003292  7001                     moveq.l    D0, 0x01
00003294  B06E FFE0                cmp.w      D0, [A6 - 0x20]
00003298  4FEF 0014                lea.l      A7, [A7 + 0x14]
0000329C  6734                     beq        +0x36 /* 000032D2 */
0000329E  7004                     moveq.l    D0, 0x04
000032A0  C06E FFE0                and.w      D0, [A6 - 0x20]
000032A4  662C                     bne        +0x2E /* 000032D2 */
000032A6  302E FFE0                move.w     D0, [A6 - 0x20]
000032AA  48C0                     ext.l      D0
000032AC  2F00                     move.l     -[A7], D0
000032AE  48C7                     ext.l      D7
000032B0  2007                     move.l     D0, D7
000032B2  E580                     asl        D0, 2
000032B4  3033 0800                move.w     D0, [A3 + D0]
000032B8  48C0                     ext.l      D0
000032BA  2F00                     move.l     -[A7], D0
000032BC  48C7                     ext.l      D7
000032BE  2F07                     move.l     -[A7], D7
000032C0  41EE FFEE                lea.l      A0, [A6 - 0x12]
000032C4  2F20                     move.l     -[A7], -[A0]
000032C6  2F20                     move.l     -[A7], -[A0]
000032C8  2F0C                     move.l     -[A7], A4
000032CA  4EBA 003E                jsr        [PC + 0x3E /* 0000330A */]
000032CE  4FEF 0018                lea.l      A7, [A7 + 0x18]
label000032D2:
000032D2  3007                     move.w     D0, D7
000032D4  5247                     addq.w     D7, 1
label000032D6:
000032D6  2054                     movea.l    A0, [A4]
000032D8  BE68 0150                cmp.w      D7, [A0 + 0x150]
000032DC  6F94                     ble        -0x6A /* 00003272 */
000032DE  7001                     moveq.l    D0, 0x01
000032E0  2F00                     move.l     -[A7], D0
000032E2  2F0C                     move.l     -[A7], A4
000032E4  4EBA 0140                jsr        [PC + 0x140 /* 00003426 */]
000032E8  2054                     movea.l    A0, [A4]
000032EA  3F28 014C                move.w     -[A7], [A0 + 0x14C]
000032EE  A887                     syscall    TextFont
000032F0  2054                     movea.l    A0, [A4]
000032F2  3F28 014E                move.w     -[A7], [A0 + 0x14E]
000032F6  A88A                     syscall    TextSize
000032F8  486E FFEE                pea.l      [A6 - 0x12]
000032FC  A899                     syscall    SetPenState
000032FE  504F                     addq.w     A7, 8
00003300  4CEE 1888 FFD0           movem.l    D3,D7,A3,A4, [A6 - 0x30]
00003306  4E5E                     unlink     A6
00003308  4E75                     rts
fn0000330A:
0000330A  4E56 FEF0                link       A6, -0x0110
0000330E  48E7 0318                movem.l    -[A7], D6,D7,A3,A4
00003312  3C2E 0016                move.w     D6, [A6 + 0x16]
00003316  3E2E 001A                move.w     D7, [A6 + 0x1A]
0000331A  47EE FF00                lea.l      A3, [A6 - 0x100]
0000331E  286E 0008                movea.l    A4, [A6 + 0x8]
00003322  2054                     movea.l    A0, [A4]
00003324  4A28 01CB                tst.b      [A0 + 0x1CB]
00003328  661A                     bne        +0x1C /* 00003344 */
0000332A  4A68 01D2                tst.w      [A0 + 0x1D2]
0000332E  6706                     beq        +0x8 /* 00003336 */
00003330  4A68 01D4                tst.w      [A0 + 0x1D4]
00003334  670E                     beq        +0x10 /* 00003344 */
label00003336:
00003336  2054                     movea.l    A0, [A4]
00003338  4A68 01D2                tst.w      [A0 + 0x1D2]
0000333C  6652                     bne        +0x54 /* 00003390 */
0000333E  4A68 01D4                tst.w      [A0 + 0x1D4]
00003342  674C                     beq        +0x4E /* 00003390 */
label00003344:
00003344  48C6                     ext.l      D6
00003346  2F06                     move.l     -[A7], D6
00003348  302E 0012                move.w     D0, [A6 + 0x12]
0000334C  48C0                     ext.l      D0
0000334E  2F00                     move.l     -[A7], D0
00003350  302E 000C                move.w     D0, [A6 + 0xC]
00003354  48C0                     ext.l      D0
00003356  2F00                     move.l     -[A7], D0
00003358  2F0C                     move.l     -[A7], A4
0000335A  486E FEF8                pea.l      [A6 - 0x108]
0000335E  4EBA 5092                jsr        [PC + 0x5092 /* 000083F2 */]
00003362  48C6                     ext.l      D6
00003364  2F06                     move.l     -[A7], D6
00003366  2F0B                     move.l     -[A7], A3
00003368  4EBA 5B3C                jsr        [PC + 0x5B3C /* 00008EA6 */]
0000336C  486B 0001                pea.l      [A3 + 0x1]
00003370  7000                     moveq.l    D0, 0x00
00003372  1013                     move.b     D0, [A3]
00003374  2F00                     move.l     -[A7], D0
00003376  486E FEF8                pea.l      [A6 - 0x108]
0000337A  7001                     moveq.l    D0, 0x01
0000337C  3F00                     move.w     -[A7], D0
0000337E  A9CE                     syscall    TETextBox/TextBox
00003380  486E 000C                pea.l      [A6 + 0xC]
00003384  A8A1                     syscall    FrameRect
00003386  486E FEF8                pea.l      [A6 - 0x108]
0000338A  A8A1                     syscall    FrameRect
0000338C  4FEF 0014                lea.l      A7, [A7 + 0x14]
label00003390:
00003390  4A47                     tst.w      D7
00003392  6700 0088                beq        +0x8A /* 0000341C */
00003396  2054                     movea.l    A0, [A4]
00003398  4A28 01CB                tst.b      [A0 + 0x1CB]
0000339C  674C                     beq        +0x4E /* 000033EA */
0000339E  48C7                     ext.l      D7
000033A0  2F07                     move.l     -[A7], D7
000033A2  302E FEFA                move.w     D0, [A6 - 0x106]
000033A6  48C0                     ext.l      D0
000033A8  2F00                     move.l     -[A7], D0
000033AA  302E FEF8                move.w     D0, [A6 - 0x108]
000033AE  48C0                     ext.l      D0
000033B0  2F00                     move.l     -[A7], D0
000033B2  2F0C                     move.l     -[A7], A4
000033B4  486E FEF8                pea.l      [A6 - 0x108]
000033B8  4EBA 5038                jsr        [PC + 0x5038 /* 000083F2 */]
000033BC  48C7                     ext.l      D7
000033BE  2F07                     move.l     -[A7], D7
000033C0  2F0B                     move.l     -[A7], A3
000033C2  4EBA 5AE2                jsr        [PC + 0x5AE2 /* 00008EA6 */]
000033C6  486B 0001                pea.l      [A3 + 0x1]
000033CA  7000                     moveq.l    D0, 0x00
000033CC  1013                     move.b     D0, [A3]
000033CE  2F00                     move.l     -[A7], D0
000033D0  486E FEF8                pea.l      [A6 - 0x108]
000033D4  7001                     moveq.l    D0, 0x01
000033D6  3F00                     move.w     -[A7], D0
000033D8  A9CE                     syscall    TETextBox/TextBox
000033DA  486E FEF8                pea.l      [A6 - 0x108]
000033DE  A8A4                     syscall    InvertRect
000033E0  486E FEF8                pea.l      [A6 - 0x108]
000033E4  A8A1                     syscall    FrameRect
000033E6  4FEF 0014                lea.l      A7, [A7 + 0x14]
label000033EA:
000033EA  2054                     movea.l    A0, [A4]
000033EC  7001                     moveq.l    D0, 0x01
000033EE  B068 0152                cmp.w      D0, [A0 + 0x152]
000033F2  6628                     bne        +0x2A /* 0000341C */
000033F4  303C FF7F                move.w     D0, 0xFF7F
000033F8  C06E 001E                and.w      D0, [A6 + 0x1E]
000033FC  0C40 0007                cmpi.w     D0, 0x7
00003400  671A                     beq        +0x1C /* 0000341C */
00003402  41EE 0014                lea.l      A0, [A6 + 0x14]
00003406  2F20                     move.l     -[A7], -[A0]
00003408  2F20                     move.l     -[A7], -[A0]
0000340A  486E FEF0                pea.l      [A6 - 0x110]
0000340E  4EBA 55CE                jsr        [PC + 0x55CE /* 000089DE */]
00003412  486E FEF0                pea.l      [A6 - 0x110]
00003416  A8A2                     syscall    PaintRect
00003418  4FEF 000C                lea.l      A7, [A7 + 0xC]
label0000341C:
0000341C  4CEE 18C0 FEE0           movem.l    D6,D7,A3,A4, [A6 - 0x120]
00003422  4E5E                     unlink     A6
00003424  4E75                     rts
fn00003426:
00003426  4E56 FFE0                link       A6, -0x0020
0000342A  48E7 0118                movem.l    -[A7], D7,A3,A4
0000342E  286E 0008                movea.l    A4, [A6 + 0x8]
00003432  2054                     movea.l    A0, [A4]
00003434  4A68 0152                tst.w      [A0 + 0x152]
00003438  6700 00A8                beq        +0xAA /* 000034E2 */
0000343C  4A2E 000F                tst.b      [A6 + 0xF]
00003440  6610                     bne        +0x12 /* 00003452 */
00003442  598F                     subq.l     A7, 4
00003444  A975                     syscall    TickCount
00003446  2054                     movea.l    A0, [A4]
00003448  201F                     move.l     D0, [A7]+
0000344A  B0A8 01B8                cmp.l      D0, [A0 + 0x1B8]
0000344E  6300 0092                bls        +0x94 /* 000034E2 */
label00003452:
00003452  486E FFEE                pea.l      [A6 - 0x12]
00003456  A898                     syscall    GetPenState
00003458  598F                     subq.l     A7, 4
0000345A  A975                     syscall    TickCount
0000345C  201F                     move.l     D0, [A7]+
0000345E  5480                     addq.l     D0, 2
00003460  2054                     movea.l    A0, [A4]
00003462  2140 01B8                move.l     [A0 + 0x1B8], D0
00003466  2054                     movea.l    A0, [A4]
00003468  5268 0176                addq.w     [A0 + 0x176], 1
0000346C  2054                     movea.l    A0, [A4]
0000346E  7003                     moveq.l    D0, 0x03
00003470  B068 0176                cmp.w      D0, [A0 + 0x176]
00003474  6C04                     bge        +0x6 /* 0000347A */
00003476  4268 0176                clr.w      [A0 + 0x176]
label0000347A:
0000347A  2054                     movea.l    A0, [A4]
0000347C  3028 0176                move.w     D0, [A0 + 0x176]
00003480  48C0                     ext.l      D0
00003482  E780                     asl        D0, 3
00003484  41E8 0178                lea.l      A0, [A0 + 0x178]
00003488  4870 0800                pea.l      [A0 + D0]
0000348C  A89D                     syscall    PenPat
0000348E  7008                     moveq.l    D0, 0x08
00003490  3F00                     move.w     -[A7], D0
00003492  A89C                     syscall    PenMode
00003494  2054                     movea.l    A0, [A4]
00003496  2068 015E                movea.l    A0, [A0 + 0x15E]
0000349A  2650                     movea.l    A3, [A0]
0000349C  7E01                     moveq.l    D7, 0x01
0000349E  6034                     bra        +0x36 /* 000034D4 */
label000034A0:
000034A0  48C7                     ext.l      D7
000034A2  2007                     move.l     D0, D7
000034A4  E580                     asl        D0, 2
000034A6  4A73 0800                tst.w      [A3 + D0]
000034AA  6724                     beq        +0x26 /* 000034D0 */
000034AC  486E FFE6                pea.l      [A6 - 0x1A]
000034B0  486E FFE2                pea.l      [A6 - 0x1E]
000034B4  486E FFE0                pea.l      [A6 - 0x20]
000034B8  48C7                     ext.l      D7
000034BA  2F07                     move.l     -[A7], D7
000034BC  2054                     movea.l    A0, [A4]
000034BE  2F28 0104                move.l     -[A7], [A0 + 0x104]
000034C2  4EBA 5584                jsr        [PC + 0x5584 /* 00008A48 */]
000034C6  486E FFE6                pea.l      [A6 - 0x1A]
000034CA  A8A1                     syscall    FrameRect
000034CC  4FEF 0014                lea.l      A7, [A7 + 0x14]
label000034D0:
000034D0  3007                     move.w     D0, D7
000034D2  5247                     addq.w     D7, 1
label000034D4:
000034D4  2054                     movea.l    A0, [A4]
000034D6  BE68 0150                cmp.w      D7, [A0 + 0x150]
000034DA  6FC4                     ble        -0x3A /* 000034A0 */
000034DC  486E FFEE                pea.l      [A6 - 0x12]
000034E0  A899                     syscall    SetPenState
label000034E2:
000034E2  4CEE 1880 FFD4           movem.l    D7,A3,A4, [A6 - 0x2C]
000034E8  4E5E                     unlink     A6
000034EA  4E75                     rts
fn000034EC:
000034EC  4E56 FFFC                link       A6, -0x0004
000034F0  48E7 0118                movem.l    -[A7], D7,A3,A4
000034F4  266E 0010                movea.l    A3, [A6 + 0x10]
000034F8  286E 0008                movea.l    A4, [A6 + 0x8]
000034FC  486E FFFE                pea.l      [A6 - 0x2]
00003500  486E FFFD                pea.l      [A6 - 0x3]
00003504  486E FFFF                pea.l      [A6 - 0x1]
00003508  4EBA CBB0                jsr        [PC - 0x3450 /* 000000BA */]
0000350C  2054                     movea.l    A0, [A4]
0000350E  2068 012C                movea.l    A0, [A0 + 0x12C]
00003512  2050                     movea.l    A0, [A0]
00003514  B7E8 0104                cmpa.l     A3, [A0 + 0x104]
00003518  660C                     bne        +0xE /* 00003526 */
0000351A  2F2E 000C                move.l     -[A7], [A6 + 0xC]
0000351E  2F0C                     move.l     -[A7], A4
00003520  4EBA 0164                jsr        [PC + 0x164 /* 00003686 */]
00003524  504F                     addq.w     A7, 8
label00003526:
00003526  2054                     movea.l    A0, [A4]
00003528  4AA8 01C4                tst.l      [A0 + 0x1C4]
0000352C  6718                     beq        +0x1A /* 00003546 */
0000352E  2068 01C4                movea.l    A0, [A0 + 0x1C4]
00003532  2050                     movea.l    A0, [A0]
00003534  B7E8 0104                cmpa.l     A3, [A0 + 0x104]
00003538  660C                     bne        +0xE /* 00003546 */
0000353A  2F2E 000C                move.l     -[A7], [A6 + 0xC]
0000353E  2F0C                     move.l     -[A7], A4
00003540  4EBA 527A                jsr        [PC + 0x527A /* 000087BC */]
00003544  504F                     addq.w     A7, 8
label00003546:
00003546  2054                     movea.l    A0, [A4]
00003548  B7E8 0104                cmpa.l     A3, [A0 + 0x104]
0000354C  6600 00C4                bne        +0xC6 /* 00003612 */
00003550  2F28 0104                move.l     -[A7], [A0 + 0x104]
00003554  A873                     syscall    SetPort
00003556  486E 000C                pea.l      [A6 + 0xC]
0000355A  A871                     syscall    GlobalToLocal
0000355C  2054                     movea.l    A0, [A4]
0000355E  2068 015E                movea.l    A0, [A0 + 0x15E]
00003562  2650                     movea.l    A3, [A0]
00003564  2F0C                     move.l     -[A7], A4
00003566  4EBA 3D70                jsr        [PC + 0x3D70 /* 000072D8 */]
0000356A  4A00                     tst.b      D0
0000356C  584F                     addq.w     A7, 4
0000356E  6600 00A2                bne        +0xA4 /* 00003612 */
00003572  2F2E 000C                move.l     -[A7], [A6 + 0xC]
00003576  2F0C                     move.l     -[A7], A4
00003578  4EBA 3B70                jsr        [PC + 0x3B70 /* 000070EA */]
0000357C  3E00                     move.w     D7, D0
0000357E  504F                     addq.w     A7, 8
00003580  661C                     bne        +0x1E /* 0000359E */
00003582  4A2E FFFD                tst.b      [A6 - 0x3]
00003586  6608                     bne        +0xA /* 00003590 */
00003588  2F0C                     move.l     -[A7], A4
0000358A  4EBA D104                jsr        [PC - 0x2EFC /* 00000690 */]
0000358E  584F                     addq.w     A7, 4
label00003590:
00003590  2F2E 000C                move.l     -[A7], [A6 + 0xC]
00003594  2F0C                     move.l     -[A7], A4
00003596  4EBA F9FA                jsr        [PC - 0x606 /* 00002F92 */]
0000359A  504F                     addq.w     A7, 8
0000359C  6074                     bra        +0x76 /* 00003612 */
label0000359E:
0000359E  4A2E FFFD                tst.b      [A6 - 0x3]
000035A2  671A                     beq        +0x1C /* 000035BE */
000035A4  48C7                     ext.l      D7
000035A6  2007                     move.l     D0, D7
000035A8  E580                     asl        D0, 2
000035AA  4A73 0800                tst.w      [A3 + D0]
000035AE  670E                     beq        +0x10 /* 000035BE */
000035B0  48C7                     ext.l      D7
000035B2  2F07                     move.l     -[A7], D7
000035B4  2F0C                     move.l     -[A7], A4
000035B6  4EBA D14E                jsr        [PC - 0x2EB2 /* 00000706 */]
000035BA  504F                     addq.w     A7, 8
000035BC  6054                     bra        +0x56 /* 00003612 */
label000035BE:
000035BE  48C7                     ext.l      D7
000035C0  2007                     move.l     D0, D7
000035C2  E580                     asl        D0, 2
000035C4  4A73 0800                tst.w      [A3 + D0]
000035C8  6626                     bne        +0x28 /* 000035F0 */
000035CA  4A2E FFFD                tst.b      [A6 - 0x3]
000035CE  6608                     bne        +0xA /* 000035D8 */
000035D0  2F0C                     move.l     -[A7], A4
000035D2  4EBA D0BC                jsr        [PC - 0x2F44 /* 00000690 */]
000035D6  584F                     addq.w     A7, 4
label000035D8:
000035D8  48C7                     ext.l      D7
000035DA  2F07                     move.l     -[A7], D7
000035DC  2F0C                     move.l     -[A7], A4
000035DE  4EBA FAE2                jsr        [PC - 0x51E /* 000030C2 */]
000035E2  7001                     moveq.l    D0, 0x01
000035E4  2F00                     move.l     -[A7], D0
000035E6  2F0C                     move.l     -[A7], A4
000035E8  4EBA FE3C                jsr        [PC - 0x1C4 /* 00003426 */]
000035EC  4FEF 0010                lea.l      A7, [A7 + 0x10]
label000035F0:
000035F0  48C7                     ext.l      D7
000035F2  2F07                     move.l     -[A7], D7
000035F4  2F2E 000C                move.l     -[A7], [A6 + 0xC]
000035F8  2F0C                     move.l     -[A7], A4
000035FA  4EBA E9AE                jsr        [PC - 0x1652 /* 00001FAA */]
000035FE  4A00                     tst.b      D0
00003600  4FEF 000C                lea.l      A7, [A7 + 0xC]
00003604  660C                     bne        +0xE /* 00003612 */
00003606  2F2E 000C                move.l     -[A7], [A6 + 0xC]
0000360A  2F0C                     move.l     -[A7], A4
0000360C  4EBA EB86                jsr        [PC - 0x147A /* 00002194 */]
00003610  504F                     addq.w     A7, 8
label00003612:
00003612  2F0C                     move.l     -[A7], A4
00003614  4EBA F258                jsr        [PC - 0xDA8 /* 0000286E */]
00003618  584F                     addq.w     A7, 4
0000361A  4CEE 1880 FFF0           movem.l    D7,A3,A4, [A6 - 0x10]
00003620  4E5E                     unlink     A6
00003622  4E75                     rts
fn00003624:
00003624  4E56 0000                link       A6, 0
00003628  2F0C                     move.l     -[A7], A4
0000362A  286E 0008                movea.l    A4, [A6 + 0x8]
0000362E  206E 000C                movea.l    A0, [A6 + 0xC]
00003632  3028 000E                move.w     D0, [A0 + 0xE]
00003636  0800 0000                btst.b     D0, 0x0
0000363A  6716                     beq        +0x18 /* 00003652 */
0000363C  7001                     moveq.l    D0, 0x01
0000363E  2F00                     move.l     -[A7], D0
00003640  2F0C                     move.l     -[A7], A4
00003642  4EBA DAD6                jsr        [PC - 0x252A /* 0000111A */]
00003646  2F0C                     move.l     -[A7], A4
00003648  4EBA F5BA                jsr        [PC - 0xA46 /* 00002C04 */]
0000364C  4FEF 000C                lea.l      A7, [A7 + 0xC]
00003650  6008                     bra        +0xA /* 0000365A */
label00003652:
00003652  2F0C                     move.l     -[A7], A4
00003654  4EBA F6B8                jsr        [PC - 0x948 /* 00002D0E */]
00003658  584F                     addq.w     A7, 4
label0000365A:
0000365A  2054                     movea.l    A0, [A4]
0000365C  4A28 0108                tst.b      [A0 + 0x108]
00003660  671C                     beq        +0x1E /* 0000367E */
00003662  2050                     movea.l    A0, [A0]
00003664  2050                     movea.l    A0, [A0]
00003666  117C 0001 0108           move.b     [A0 + 0x108], 0x1
0000366C  2054                     movea.l    A0, [A4]
0000366E  4228 0108                clr.b      [A0 + 0x108]
00003672  2054                     movea.l    A0, [A4]
00003674  2068 0104                movea.l    A0, [A0 + 0x104]
00003678  4868 0010                pea.l      [A0 + 0x10]
0000367C  A928                     syscall    InvalRect
label0000367E:
0000367E  286E FFFC                movea.l    A4, [A6 - 0x4]
00003682  4E5E                     unlink     A6
00003684  4E75                     rts
fn00003686:
00003686  4E56 FEBE                link       A6, -0x0142
0000368A  48E7 0118                movem.l    -[A7], D7,A3,A4
0000368E  47EE FF00                lea.l      A3, [A6 - 0x100]
00003692  286E 0008                movea.l    A4, [A6 + 0x8]
00003696  4EBA CADE                jsr        [PC - 0x3522 /* 00000176 */]
0000369A  486E FEE4                pea.l      [A6 - 0x11C]
0000369E  A874                     syscall    GetPort
000036A0  2054                     movea.l    A0, [A4]
000036A2  2068 012C                movea.l    A0, [A0 + 0x12C]
000036A6  2050                     movea.l    A0, [A0]
000036A8  2F28 0104                move.l     -[A7], [A0 + 0x104]
000036AC  A873                     syscall    SetPort
000036AE  486E 000C                pea.l      [A6 + 0xC]
000036B2  A871                     syscall    GlobalToLocal
000036B4  302E 000C                move.w     D0, [A6 + 0xC]
000036B8  48C0                     ext.l      D0
000036BA  81FC 0015                divs.w     D0, 0x15
000036BE  3E00                     move.w     D7, D0
000036C0  5247                     addq.w     D7, 1
000036C2  426E FEEA                clr.w      [A6 - 0x116]
000036C6  3D7C 0064 FEEE           move.w     [A6 - 0x112], 0x64 /* 'd' */
000036CC  48C7                     ext.l      D7
000036CE  2007                     move.l     D0, D7
000036D0  5380                     subq.l     D0, 1
000036D2  2200                     move.l     D1, D0
000036D4  C0FC 0015                mulu.w     D0, 0x15
000036D8  4841                     swap.w     D1
000036DA  C2FC 0015                mulu.w     D1, 0x15
000036DE  4841                     swap.w     D1
000036E0  4241                     clr.w      D1
000036E2  D081                     add.l      D0, D1
000036E4  3D40 FEE8                move.w     [A6 - 0x118], D0
000036E8  D07C 0015                add.w      D0, 0x15
000036EC  3D40 FEEC                move.w     [A6 - 0x114], D0
000036F0  486E FEE8                pea.l      [A6 - 0x118]
000036F4  A8A4                     syscall    InvertRect
000036F6  42AE FEF0                clr.l      [A6 - 0x110]
000036FA  3007                     move.w     D0, D7
000036FC  5340                     subq.w     D0, 1
000036FE  6B00 0162                bmi        +0x164 /* 00003862 */
00003702  0C40 0009                cmpi.w     D0, 0x9 /* '\t' */
00003706  6E00 015A                bgt        +0x15C /* 00003862 */
0000370A  D040                     add.w      D0, D0
0000370C  303B 0006                move.w     D0, [PC + D0.w + 0x6]
00003710  4EFB 0000                jmp        [PC + D0.w]
00003714  0016 003E                ori.b      [A6], 0x3E /* '>' */
00003718  0066 008E                ori.w      -[A6], 0x8E
0000371C  00A4 00CE 0100           ori.l      -[A4], 0xCE0100
00003722  0116                     btst       [A6], D0
00003724  012C 0140                btst       [A4 + 0x140], D0
00003728  7001                     moveq.l    D0, 0x01
0000372A  3F00                     move.w     -[A7], D0
0000372C  3F3C 0598                move.w     -[A7], 0x598
00003730  2F0B                     move.l     -[A7], A3
00003732  4EBA C936                jsr        [PC - 0x36CA /* 0000006A */]
00003736  2F0B                     move.l     -[A7], A3
00003738  4EBA 555C                jsr        [PC + 0x555C /* 00008C96 */]
0000373C  7E04                     moveq.l    D7, 0x04
0000373E  3D7C 0014 FEF4           move.w     [A6 - 0x10C], 0x14
00003744  3D7C 003A FEF6           move.w     [A6 - 0x10A], 0x3A /* ':' */
0000374A  584F                     addq.w     A7, 4
0000374C  6000 0114                bra        +0x116 /* 00003862 */
00003750  7002                     moveq.l    D0, 0x02
00003752  3F00                     move.w     -[A7], D0
00003754  3F3C 0598                move.w     -[A7], 0x598
00003758  2F0B                     move.l     -[A7], A3
0000375A  4EBA C90E                jsr        [PC - 0x36F2 /* 0000006A */]
0000375E  2F0B                     move.l     -[A7], A3
00003760  4EBA 5534                jsr        [PC + 0x5534 /* 00008C96 */]
00003764  7E05                     moveq.l    D7, 0x05
00003766  3D7C 0012 FEF4           move.w     [A6 - 0x10C], 0x12
0000376C  3D7C 006A FEF6           move.w     [A6 - 0x10A], 0x6A /* 'j' */
00003772  584F                     addq.w     A7, 4
00003774  6000 00EC                bra        +0xEE /* 00003862 */
00003778  7003                     moveq.l    D0, 0x03
0000377A  3F00                     move.w     -[A7], D0
0000377C  3F3C 0598                move.w     -[A7], 0x598
00003780  2F0B                     move.l     -[A7], A3
00003782  4EBA C8E6                jsr        [PC - 0x371A /* 0000006A */]
00003786  2F0B                     move.l     -[A7], A3
00003788  4EBA 550C                jsr        [PC + 0x550C /* 00008C96 */]
0000378C  7E06                     moveq.l    D7, 0x06
0000378E  3D7C 0012 FEF4           move.w     [A6 - 0x10C], 0x12
00003794  3D7C 006A FEF6           move.w     [A6 - 0x10A], 0x6A /* 'j' */
0000379A  584F                     addq.w     A7, 4
0000379C  6000 00C4                bra        +0xC6 /* 00003862 */
000037A0  36BC 0597                move.w     [A3], 0x597
000037A4  7E07                     moveq.l    D7, 0x07
000037A6  3D7C 0010 FEF4           move.w     [A6 - 0x10C], 0x10
000037AC  3D7C 0064 FEF6           move.w     [A6 - 0x10A], 0x64 /* 'd' */
000037B2  6000 00AE                bra        +0xB0 /* 00003862 */
000037B6  7004                     moveq.l    D0, 0x04
000037B8  3F00                     move.w     -[A7], D0
000037BA  3F3C 0598                move.w     -[A7], 0x598
000037BE  2F0B                     move.l     -[A7], A3
000037C0  4EBA C8A8                jsr        [PC - 0x3758 /* 0000006A */]
000037C4  2F0B                     move.l     -[A7], A3
000037C6  4EBA 54CE                jsr        [PC + 0x54CE /* 00008C96 */]
000037CA  1E3C 0088                move.b     D7, 0x88
000037CE  3D7C 0010 FEF4           move.w     [A6 - 0x10C], 0x10
000037D4  3D7C 004B FEF6           move.w     [A6 - 0x10A], 0x4B /* 'K' */
000037DA  584F                     addq.w     A7, 4
000037DC  6000 0084                bra        +0x86 /* 00003862 */
000037E0  7005                     moveq.l    D0, 0x05
000037E2  3F00                     move.w     -[A7], D0
000037E4  3F3C 0598                move.w     -[A7], 0x598
000037E8  2F0B                     move.l     -[A7], A3
000037EA  4EBA C87E                jsr        [PC - 0x3782 /* 0000006A */]
000037EE  2F0B                     move.l     -[A7], A3
000037F0  4EBA 54A4                jsr        [PC + 0x54A4 /* 00008C96 */]
000037F4  7E10                     moveq.l    D7, 0x10
000037F6  3D7C 0010 FEF4           move.w     [A6 - 0x10C], 0x10
000037FC  3D7C 004B FEF6           move.w     [A6 - 0x10A], 0x4B /* 'K' */
00003802  486E FEF0                pea.l      [A6 - 0x110]
00003806  70FD                     moveq.l    D0, 0xFFFFFFFD
00003808  3F00                     move.w     -[A7], D0
0000380A  3F00                     move.w     -[A7], D0
0000380C  A8A9                     syscall    InsetRect
0000380E  584F                     addq.w     A7, 4
00003810  6050                     bra        +0x52 /* 00003862 */
00003812  36BC 0597                move.w     [A3], 0x597
00003816  1E3C 00A0                move.b     D7, 0xA0
0000381A  3D7C 0020 FEF4           move.w     [A6 - 0x10C], 0x20 /* ' ' */
00003820  3D7C 0020 FEF6           move.w     [A6 - 0x10A], 0x20 /* ' ' */
00003826  603A                     bra        +0x3C /* 00003862 */
00003828  36BC 0597                move.w     [A3], 0x597
0000382C  1E3C 00C0                move.b     D7, 0xC0
00003830  3D7C 0014 FEF4           move.w     [A6 - 0x10C], 0x14
00003836  3D7C 003C FEF6           move.w     [A6 - 0x10A], 0x3C /* '<' */
0000383C  6024                     bra        +0x26 /* 00003862 */
0000383E  4253                     clr.w      [A3]
00003840  1E3C 0080                move.b     D7, 0x80
00003844  3D7C 0020 FEF4           move.w     [A6 - 0x10C], 0x20 /* ' ' */
0000384A  3D7C 0020 FEF6           move.w     [A6 - 0x10A], 0x20 /* ' ' */
00003850  6010                     bra        +0x12 /* 00003862 */
00003852  7001                     moveq.l    D0, 0x01
00003854  3F00                     move.w     -[A7], D0
00003856  A9C8                     syscall    SysBeep
00003858  486E FEE8                pea.l      [A6 - 0x118]
0000385C  A8A4                     syscall    InvertRect
0000385E  6000 01D4                bra        +0x1D6 /* 00003A34 */
label00003862:
00003862  486E FEE0                pea.l      [A6 - 0x120]
00003866  A910                     syscall    GetWMgrPort
00003868  2F2E FEE0                move.l     -[A7], [A6 - 0x120]
0000386C  A873                     syscall    SetPort
0000386E  486E FEF8                pea.l      [A6 - 0x108]
00003872  2F3C 8001 8001           move.l     -[A7], 0x80018001
00003878  2F3C 7FFF 7FFF           move.l     -[A7], 0x7FFF7FFF
0000387E  A8A7                     syscall    SetRect
00003880  486E FEF8                pea.l      [A6 - 0x108]
00003884  A87B                     syscall    ClipRect
00003886  486E FEBE                pea.l      [A6 - 0x142]
0000388A  A972                     syscall    GetMouse
0000388C  486E FEBE                pea.l      [A6 - 0x142]
00003890  A870                     syscall    LocalToGlobal
00003892  2054                     movea.l    A0, [A4]
00003894  2F28 0104                move.l     -[A7], [A0 + 0x104]
00003898  A873                     syscall    SetPort
0000389A  486E FEBE                pea.l      [A6 - 0x142]
0000389E  A871                     syscall    GlobalToLocal
000038A0  486E FEBE                pea.l      [A6 - 0x142]
000038A4  2F0C                     move.l     -[A7], A4
000038A6  4EBA 20F8                jsr        [PC + 0x20F8 /* 000059A0 */]
000038AA  486E FEBE                pea.l      [A6 - 0x142]
000038AE  A870                     syscall    LocalToGlobal
000038B0  486E FEF0                pea.l      [A6 - 0x110]
000038B4  2F2E FEBE                move.l     -[A7], [A6 - 0x142]
000038B8  A8A8                     syscall    OffsetRect
000038BA  486E FECE                pea.l      [A6 - 0x132]
000038BE  A898                     syscall    GetPenState
000038C0  2F2E FEE0                move.l     -[A7], [A6 - 0x120]
000038C4  A873                     syscall    SetPort
000038C6  2054                     movea.l    A0, [A4]
000038C8  2068 016A                movea.l    A0, [A0 + 0x16A]
000038CC  4868 0066                pea.l      [A0 + 0x66]
000038D0  A89D                     syscall    PenPat
000038D2  700A                     moveq.l    D0, 0x0A
000038D4  3F00                     move.w     -[A7], D0
000038D6  A89C                     syscall    PenMode
000038D8  486E FEF0                pea.l      [A6 - 0x110]
000038DC  A8A1                     syscall    FrameRect
000038DE  2D6E FEBE FEC2           move.l     [A6 - 0x13E], [A6 - 0x142]
000038E4  504F                     addq.w     A7, 8
000038E6  606E                     bra        +0x70 /* 00003956 */
label000038E8:
000038E8  486E FEC6                pea.l      [A6 - 0x13A]
000038EC  A972                     syscall    GetMouse
000038EE  486E FEC6                pea.l      [A6 - 0x13A]
000038F2  A870                     syscall    LocalToGlobal
000038F4  2054                     movea.l    A0, [A4]
000038F6  2F28 0104                move.l     -[A7], [A0 + 0x104]
000038FA  A873                     syscall    SetPort
000038FC  486E FEC6                pea.l      [A6 - 0x13A]
00003900  A871                     syscall    GlobalToLocal
00003902  486E FEC6                pea.l      [A6 - 0x13A]
00003906  2F0C                     move.l     -[A7], A4
00003908  4EBA 2096                jsr        [PC + 0x2096 /* 000059A0 */]
0000390C  486E FEC6                pea.l      [A6 - 0x13A]
00003910  A870                     syscall    LocalToGlobal
00003912  2F2E FEE0                move.l     -[A7], [A6 - 0x120]
00003916  A873                     syscall    SetPort
00003918  558F                     subq.l     A7, 2
0000391A  2F2E FEC2                move.l     -[A7], [A6 - 0x13E]
0000391E  2F2E FEC6                move.l     -[A7], [A6 - 0x13A]
00003922  A881                     syscall    EqualPt
00003924  4A1F                     tst.b      [A7]+
00003926  504F                     addq.w     A7, 8
00003928  662C                     bne        +0x2E /* 00003956 */
0000392A  486E FEF0                pea.l      [A6 - 0x110]
0000392E  A8A1                     syscall    FrameRect
00003930  486E FEF0                pea.l      [A6 - 0x110]
00003934  302E FEC8                move.w     D0, [A6 - 0x138]
00003938  906E FEC4                sub.w      D0, [A6 - 0x13C]
0000393C  3F00                     move.w     -[A7], D0
0000393E  302E FEC6                move.w     D0, [A6 - 0x13A]
00003942  906E FEC2                sub.w      D0, [A6 - 0x13E]
00003946  3F00                     move.w     -[A7], D0
00003948  A8A8                     syscall    OffsetRect
0000394A  486E FEF0                pea.l      [A6 - 0x110]
0000394E  A8A1                     syscall    FrameRect
00003950  2D6E FEC6 FEC2           move.l     [A6 - 0x13E], [A6 - 0x13A]
label00003956:
00003956  558F                     subq.l     A7, 2
00003958  A973                     syscall    StillDown
0000395A  4A1F                     tst.b      [A7]+
0000395C  668A                     bne        -0x74 /* 000038E8 */
0000395E  486E FEF0                pea.l      [A6 - 0x110]
00003962  A8A1                     syscall    FrameRect
00003964  486E FECE                pea.l      [A6 - 0x132]
00003968  A899                     syscall    SetPenState
0000396A  2054                     movea.l    A0, [A4]
0000396C  2F28 0104                move.l     -[A7], [A0 + 0x104]
00003970  A873                     syscall    SetPort
00003972  486E FEF0                pea.l      [A6 - 0x110]
00003976  A871                     syscall    GlobalToLocal
00003978  486E FEF4                pea.l      [A6 - 0x10C]
0000397C  A871                     syscall    GlobalToLocal
0000397E  2054                     movea.l    A0, [A4]
00003980  2068 012C                movea.l    A0, [A0 + 0x12C]
00003984  2050                     movea.l    A0, [A0]
00003986  2F28 0104                move.l     -[A7], [A0 + 0x104]
0000398A  A873                     syscall    SetPort
0000398C  486E FECA                pea.l      [A6 - 0x136]
00003990  A972                     syscall    GetMouse
00003992  2054                     movea.l    A0, [A4]
00003994  2F28 0104                move.l     -[A7], [A0 + 0x104]
00003998  A873                     syscall    SetPort
0000399A  558F                     subq.l     A7, 2
0000399C  486E FEF0                pea.l      [A6 - 0x110]
000039A0  2054                     movea.l    A0, [A4]
000039A2  2068 0104                movea.l    A0, [A0 + 0x104]
000039A6  4868 0010                pea.l      [A0 + 0x10]
000039AA  486E FEF8                pea.l      [A6 - 0x108]
000039AE  A8AA                     syscall    SectRect
000039B0  4A1F                     tst.b      [A7]+
000039B2  6766                     beq        +0x68 /* 00003A1A */
000039B4  558F                     subq.l     A7, 2
000039B6  2F2E FECA                move.l     -[A7], [A6 - 0x136]
000039BA  2054                     movea.l    A0, [A4]
000039BC  2068 012C                movea.l    A0, [A0 + 0x12C]
000039C0  2050                     movea.l    A0, [A0]
000039C2  2068 0104                movea.l    A0, [A0 + 0x104]
000039C6  4868 0010                pea.l      [A0 + 0x10]
000039CA  A8AD                     syscall    PtInRect
000039CC  4A1F                     tst.b      [A7]+
000039CE  664A                     bne        +0x4C /* 00003A1A */
000039D0  7005                     moveq.l    D0, 0x05
000039D2  2F00                     move.l     -[A7], D0
000039D4  2F0C                     move.l     -[A7], A4
000039D6  4EBA 2EEC                jsr        [PC + 0x2EEC /* 000068C4 */]
000039DA  2F0C                     move.l     -[A7], A4
000039DC  4EBA CCB2                jsr        [PC - 0x334E /* 00000690 */]
000039E0  7000                     moveq.l    D0, 0x00
000039E2  1007                     move.b     D0, D7
000039E4  7210                     moveq.l    D1, 0x10
000039E6  C200                     and.b      D1, D0
000039E8  4FEF 000C                lea.l      A7, [A7 + 0xC]
000039EC  670C                     beq        +0xE /* 000039FA */
000039EE  486E FEF0                pea.l      [A6 - 0x110]
000039F2  7003                     moveq.l    D0, 0x03
000039F4  3F00                     move.w     -[A7], D0
000039F6  3F00                     move.w     -[A7], D0
000039F8  A8A9                     syscall    InsetRect
label000039FA:
000039FA  2F0B                     move.l     -[A7], A3
000039FC  7000                     moveq.l    D0, 0x00
000039FE  1007                     move.b     D0, D7
00003A00  2F00                     move.l     -[A7], D0
00003A02  41EE FEF8                lea.l      A0, [A6 - 0x108]
00003A06  2F20                     move.l     -[A7], -[A0]
00003A08  2F20                     move.l     -[A7], -[A0]
00003A0A  2F0C                     move.l     -[A7], A4
00003A0C  4EBA 2948                jsr        [PC + 0x2948 /* 00006356 */]
00003A10  2F0C                     move.l     -[A7], A4
00003A12  4EBA CE46                jsr        [PC - 0x31BA /* 0000085A */]
00003A16  4FEF 0018                lea.l      A7, [A7 + 0x18]
label00003A1A:
00003A1A  2054                     movea.l    A0, [A4]
00003A1C  2068 012C                movea.l    A0, [A0 + 0x12C]
00003A20  2050                     movea.l    A0, [A0]
00003A22  2F28 0104                move.l     -[A7], [A0 + 0x104]
00003A26  A873                     syscall    SetPort
00003A28  486E FEE8                pea.l      [A6 - 0x118]
00003A2C  A8A4                     syscall    InvertRect
00003A2E  2F2E FEE4                move.l     -[A7], [A6 - 0x11C]
00003A32  A873                     syscall    SetPort
label00003A34:
00003A34  4CEE 1880 FEB2           movem.l    D7,A3,A4, [A6 - 0x14E]
00003A3A  4E5E                     unlink     A6
00003A3C  4E75                     rts
fn00003A3E:
00003A3E  4E56 FFEA                link       A6, -0x0016
00003A42  48E7 1F18                movem.l    -[A7], D3,D4,D5,D6,D7,A3,A4
00003A46  206E 0008                movea.l    A0, [A6 + 0x8]
00003A4A  2050                     movea.l    A0, [A0]
00003A4C  4A68 0152                tst.w      [A0 + 0x152]
00003A50  6700 020C                beq        +0x20E /* 00003C5E */
00003A54  206E 0008                movea.l    A0, [A6 + 0x8]
00003A58  2050                     movea.l    A0, [A0]
00003A5A  4A68 01CE                tst.w      [A0 + 0x1CE]
00003A5E  660E                     bne        +0x10 /* 00003A6E */
00003A60  7001                     moveq.l    D0, 0x01
00003A62  2F00                     move.l     -[A7], D0
00003A64  2F2E 0008                move.l     -[A7], [A6 + 0x8]
00003A68  4EBA 2E5A                jsr        [PC + 0x2E5A /* 000068C4 */]
00003A6C  504F                     addq.w     A7, 8
label00003A6E:
00003A6E  7C02                     moveq.l    D6, 0x02
00003A70  4245                     clr.w      D5
00003A72  206E 0008                movea.l    A0, [A6 + 0x8]
00003A76  2050                     movea.l    A0, [A0]
00003A78  2068 0114                movea.l    A0, [A0 + 0x114]
00003A7C  A069                     syscall    HGetState
00003A7E  1D40 FFEF                move.b     [A6 - 0x11], D0
00003A82  206E 0008                movea.l    A0, [A6 + 0x8]
00003A86  2050                     movea.l    A0, [A0]
00003A88  2068 0120                movea.l    A0, [A0 + 0x120]
00003A8C  A069                     syscall    HGetState
00003A8E  1800                     move.b     D4, D0
00003A90  206E 0008                movea.l    A0, [A6 + 0x8]
00003A94  2050                     movea.l    A0, [A0]
00003A96  2068 0114                movea.l    A0, [A0 + 0x114]
00003A9A  A029                     syscall    HLock
00003A9C  206E 0008                movea.l    A0, [A6 + 0x8]
00003AA0  2050                     movea.l    A0, [A0]
00003AA2  2068 0120                movea.l    A0, [A0 + 0x120]
00003AA6  A029                     syscall    HLock
00003AA8  206E 0008                movea.l    A0, [A6 + 0x8]
00003AAC  2050                     movea.l    A0, [A0]
00003AAE  2068 015E                movea.l    A0, [A0 + 0x15E]
00003AB2  2650                     movea.l    A3, [A0]
00003AB4  7E01                     moveq.l    D7, 0x01
00003AB6  6000 00B4                bra        +0xB6 /* 00003B6C */
label00003ABA:
00003ABA  486E FFFC                pea.l      [A6 - 0x4]
00003ABE  486E FFF8                pea.l      [A6 - 0x8]
00003AC2  48C7                     ext.l      D7
00003AC4  2F07                     move.l     -[A7], D7
00003AC6  206E 0008                movea.l    A0, [A6 + 0x8]
00003ACA  2050                     movea.l    A0, [A0]
00003ACC  2F28 0120                move.l     -[A7], [A0 + 0x120]
00003AD0  4EBA 4EB0                jsr        [PC + 0x4EB0 /* 00008982 */]
00003AD4  48C7                     ext.l      D7
00003AD6  2007                     move.l     D0, D7
00003AD8  E580                     asl        D0, 2
00003ADA  4A73 0800                tst.w      [A3 + D0]
00003ADE  4FEF 0010                lea.l      A7, [A7 + 0x10]
00003AE2  6648                     bne        +0x4A /* 00003B2C */
00003AE4  206E 0008                movea.l    A0, [A6 + 0x8]
00003AE8  2050                     movea.l    A0, [A0]
00003AEA  2D48 FFEA                move.l     [A6 - 0x16], A0
00003AEE  2068 0114                movea.l    A0, [A0 + 0x114]
00003AF2  2D50 FFF4                move.l     [A6 - 0xC], [A0]
00003AF6  206E FFEA                movea.l    A0, [A6 - 0x16]
00003AFA  2068 0120                movea.l    A0, [A0 + 0x120]
00003AFE  2050                     movea.l    A0, [A0]
00003B00  2D48 FFF0                move.l     [A6 - 0x10], A0
00003B04  202E FFF8                move.l     D0, [A6 - 0x8]
00003B08  49F0 0800                lea.l      A4, [A0 + D0]
00003B0C  2F2E FFFC                move.l     -[A7], [A6 - 0x4]
00003B10  206E FFF4                movea.l    A0, [A6 - 0xC]
00003B14  4870 6800                pea.l      [A0 + D6]
00003B18  2F0C                     move.l     -[A7], A4
00003B1A  4EBA 4EFA                jsr        [PC + 0x4EFA /* 00008A16 */]
00003B1E  DCAE FFFC                add.l      D6, [A6 - 0x4]
00003B22  3005                     move.w     D0, D5
00003B24  5245                     addq.w     D5, 1
00003B26  4FEF 000C                lea.l      A7, [A7 + 0xC]
00003B2A  603C                     bra        +0x3E /* 00003B68 */
label00003B2C:
00003B2C  206E 0008                movea.l    A0, [A6 + 0x8]
00003B30  2050                     movea.l    A0, [A0]
00003B32  4A68 01D0                tst.w      [A0 + 0x1D0]
00003B36  6614                     bne        +0x16 /* 00003B4C */
00003B38  7001                     moveq.l    D0, 0x01
00003B3A  2F00                     move.l     -[A7], D0
00003B3C  48C7                     ext.l      D7
00003B3E  2F07                     move.l     -[A7], D7
00003B40  2F2E 0008                move.l     -[A7], [A6 + 0x8]
00003B44  4EBA 027E                jsr        [PC + 0x27E /* 00003DC4 */]
00003B48  4FEF 000C                lea.l      A7, [A7 + 0xC]
label00003B4C:
00003B4C  48C7                     ext.l      D7
00003B4E  2F07                     move.l     -[A7], D7
00003B50  2F2E 0008                move.l     -[A7], [A6 + 0x8]
00003B54  4EBA CBB0                jsr        [PC - 0x3450 /* 00000706 */]
00003B58  48C7                     ext.l      D7
00003B5A  2F07                     move.l     -[A7], D7
00003B5C  2F2E 0008                move.l     -[A7], [A6 + 0x8]
00003B60  4EBA 47A4                jsr        [PC + 0x47A4 /* 00008306 */]
00003B64  4FEF 0010                lea.l      A7, [A7 + 0x10]
label00003B68:
00003B68  3007                     move.w     D0, D7
00003B6A  5247                     addq.w     D7, 1
label00003B6C:
00003B6C  206E 0008                movea.l    A0, [A6 + 0x8]
00003B70  2050                     movea.l    A0, [A0]
00003B72  BE68 0150                cmp.w      D7, [A0 + 0x150]
00003B76  6F00 FF42                ble        -0xBC /* 00003ABA */
00003B7A  3005                     move.w     D0, D5
00003B7C  5340                     subq.w     D0, 1
00003B7E  206E 0008                movea.l    A0, [A6 + 0x8]
00003B82  2050                     movea.l    A0, [A0]
00003B84  2068 0114                movea.l    A0, [A0 + 0x114]
00003B88  2050                     movea.l    A0, [A0]
00003B8A  3080                     move.w     [A0], D0
00003B8C  206E 0008                movea.l    A0, [A6 + 0x8]
00003B90  2050                     movea.l    A0, [A0]
00003B92  3145 0150                move.w     [A0 + 0x150], D5
00003B96  206E 0008                movea.l    A0, [A6 + 0x8]
00003B9A  2650                     movea.l    A3, [A0]
00003B9C  206B 0114                movea.l    A0, [A3 + 0x114]
00003BA0  2D50 FFF4                move.l     [A6 - 0xC], [A0]
00003BA4  206B 0120                movea.l    A0, [A3 + 0x120]
00003BA8  2D50 FFF0                move.l     [A6 - 0x10], [A0]
00003BAC  2F06                     move.l     -[A7], D6
00003BAE  2F2E FFF0                move.l     -[A7], [A6 - 0x10]
00003BB2  2F2E FFF4                move.l     -[A7], [A6 - 0xC]
00003BB6  4EBA 4E5E                jsr        [PC + 0x4E5E /* 00008A16 */]
00003BBA  206E 0008                movea.l    A0, [A6 + 0x8]
00003BBE  2050                     movea.l    A0, [A0]
00003BC0  3E28 0150                move.w     D7, [A0 + 0x150]
00003BC4  4FEF 000C                lea.l      A7, [A7 + 0xC]
00003BC8  6030                     bra        +0x32 /* 00003BFA */
label00003BCA:
00003BCA  486E FFFC                pea.l      [A6 - 0x4]
00003BCE  486E FFF8                pea.l      [A6 - 0x8]
00003BD2  48C7                     ext.l      D7
00003BD4  2F07                     move.l     -[A7], D7
00003BD6  206E 0008                movea.l    A0, [A6 + 0x8]
00003BDA  2050                     movea.l    A0, [A0]
00003BDC  2F28 0114                move.l     -[A7], [A0 + 0x114]
00003BE0  4EBA 4DA0                jsr        [PC + 0x4DA0 /* 00008982 */]
00003BE4  206E FFF4                movea.l    A0, [A6 - 0xC]
00003BE8  202E FFF8                move.l     D0, [A6 - 0x8]
00003BEC  49F0 0800                lea.l      A4, [A0 + D0]
00003BF0  7000                     moveq.l    D0, 0x00
00003BF2  2880                     move.l     [A4], D0
00003BF4  4FEF 0010                lea.l      A7, [A7 + 0x10]
00003BF8  5347                     subq.w     D7, 1
label00003BFA:
00003BFA  4A47                     tst.w      D7
00003BFC  6ECC                     bgt        -0x32 /* 00003BCA */
00003BFE  206E 0008                movea.l    A0, [A6 + 0x8]
00003C02  2050                     movea.l    A0, [A0]
00003C04  2068 0114                movea.l    A0, [A0 + 0x114]
00003C08  A02A                     syscall    HUnlock
00003C0A  206E 0008                movea.l    A0, [A6 + 0x8]
00003C0E  2050                     movea.l    A0, [A0]
00003C10  2068 0120                movea.l    A0, [A0 + 0x120]
00003C14  A02A                     syscall    HUnlock
00003C16  206E 0008                movea.l    A0, [A6 + 0x8]
00003C1A  2050                     movea.l    A0, [A0]
00003C1C  2068 0120                movea.l    A0, [A0 + 0x120]
00003C20  2006                     move.l     D0, D6
00003C22  A024                     syscall    SetHandleSize
00003C24  206E 0008                movea.l    A0, [A6 + 0x8]
00003C28  2050                     movea.l    A0, [A0]
00003C2A  2068 0114                movea.l    A0, [A0 + 0x114]
00003C2E  2006                     move.l     D0, D6
00003C30  A024                     syscall    SetHandleSize
00003C32  206E 0008                movea.l    A0, [A6 + 0x8]
00003C36  2050                     movea.l    A0, [A0]
00003C38  2068 0114                movea.l    A0, [A0 + 0x114]
00003C3C  102E FFEF                move.b     D0, [A6 - 0x11]
00003C40  A06A                     syscall    HSetState
00003C42  206E 0008                movea.l    A0, [A6 + 0x8]
00003C46  2050                     movea.l    A0, [A0]
00003C48  2068 0120                movea.l    A0, [A0 + 0x120]
00003C4C  1004                     move.b     D0, D4
00003C4E  A06A                     syscall    HSetState
00003C50  206E 0008                movea.l    A0, [A6 + 0x8]
00003C54  2050                     movea.l    A0, [A0]
00003C56  2F28 0114                move.l     -[A7], [A0 + 0x114]
00003C5A  4EBA C482                jsr        [PC - 0x3B7E /* 000000DE */]
label00003C5E:
00003C5E  4CEE 18F8 FFCE           movem.l    D3,D4,D5,D6,D7,A3,A4, [A6 - 0x32]
00003C64  4E5E                     unlink     A6
00003C66  4E75                     rts
fn00003C68:
00003C68  4E56 0000                link       A6, 0
00003C6C  48E7 0108                movem.l    -[A7], D7,A4
00003C70  286E 0008                movea.l    A4, [A6 + 0x8]
00003C74  206E 000C                movea.l    A0, [A6 + 0xC]
00003C78  2E3C 0000 00FF           move.l     D7, 0xFF
00003C7E  CEA8 0002                and.l      D7, [A0 + 0x2]
00003C82  3007                     move.w     D0, D7
00003C84  5740                     subq.w     D0, 3
00003C86  671C                     beq        +0x1E /* 00003CA4 */
00003C88  5B40                     subq.w     D0, 5
00003C8A  6726                     beq        +0x28 /* 00003CB2 */
00003C8C  5B40                     subq.w     D0, 5
00003C8E  6714                     beq        +0x16 /* 00003CA4 */
00003C90  0440 000F                subi.w     D0, 0xF
00003C94  6726                     beq        +0x28 /* 00003CBC */
00003C96  5340                     subq.w     D0, 1
00003C98  6722                     beq        +0x24 /* 00003CBC */
00003C9A  5340                     subq.w     D0, 1
00003C9C  671E                     beq        +0x20 /* 00003CBC */
00003C9E  5340                     subq.w     D0, 1
00003CA0  671A                     beq        +0x1C /* 00003CBC */
00003CA2  6042                     bra        +0x44 /* 00003CE6 */
label00003CA4:
00003CA4  7002                     moveq.l    D0, 0x02
00003CA6  2F00                     move.l     -[A7], D0
00003CA8  2F0C                     move.l     -[A7], A4
00003CAA  4EBA E762                jsr        [PC - 0x189E /* 0000240E */]
00003CAE  504F                     addq.w     A7, 8
00003CB0  6034                     bra        +0x36 /* 00003CE6 */
label00003CB2:
00003CB2  2F0C                     move.l     -[A7], A4
00003CB4  4EBA FD88                jsr        [PC - 0x278 /* 00003A3E */]
00003CB8  584F                     addq.w     A7, 4
00003CBA  602A                     bra        +0x2C /* 00003CE6 */
label00003CBC:
00003CBC  48C7                     ext.l      D7
00003CBE  2F07                     move.l     -[A7], D7
00003CC0  2F0C                     move.l     -[A7], A4
00003CC2  4EBA 0034                jsr        [PC + 0x34 /* 00003CF8 */]
00003CC6  2054                     movea.l    A0, [A4]
00003CC8  2F28 0104                move.l     -[A7], [A0 + 0x104]
00003CCC  A922                     syscall    BeginUpdate
00003CCE  2054                     movea.l    A0, [A4]
00003CD0  2F28 0104                move.l     -[A7], [A0 + 0x104]
00003CD4  2F0C                     move.l     -[A7], A4
00003CD6  4EBA F48C                jsr        [PC - 0xB74 /* 00003164 */]
00003CDA  2054                     movea.l    A0, [A4]
00003CDC  2F28 0104                move.l     -[A7], [A0 + 0x104]
00003CE0  A923                     syscall    EndUpdate
00003CE2  4FEF 0010                lea.l      A7, [A7 + 0x10]
label00003CE6:
00003CE6  2F0C                     move.l     -[A7], A4
00003CE8  4EBA EB84                jsr        [PC - 0x147C /* 0000286E */]
00003CEC  584F                     addq.w     A7, 4
00003CEE  4CEE 1080 FFF8           movem.l    D7,A4, [A6 - 0x8]
00003CF4  4E5E                     unlink     A6
00003CF6  4E75                     rts
fn00003CF8:
00003CF8  4E56 0000                link       A6, 0
00003CFC  48E7 0318                movem.l    -[A7], D6,D7,A3,A4
00003D00  3C2E 000E                move.w     D6, [A6 + 0xE]
00003D04  266E 0008                movea.l    A3, [A6 + 0x8]
00003D08  7002                     moveq.l    D0, 0x02
00003D0A  2F00                     move.l     -[A7], D0
00003D0C  2F0B                     move.l     -[A7], A3
00003D0E  4EBA 2BB4                jsr        [PC + 0x2BB4 /* 000068C4 */]
00003D12  2053                     movea.l    A0, [A3]
00003D14  2068 015E                movea.l    A0, [A0 + 0x15E]
00003D18  2850                     movea.l    A4, [A0]
00003D1A  7E01                     moveq.l    D7, 0x01
00003D1C  504F                     addq.w     A7, 8
00003D1E  6000 0090                bra        +0x92 /* 00003DB0 */
label00003D22:
00003D22  48C7                     ext.l      D7
00003D24  2007                     move.l     D0, D7
00003D26  E580                     asl        D0, 2
00003D28  4A74 0800                tst.w      [A4 + D0]
00003D2C  677E                     beq        +0x80 /* 00003DAC */
00003D2E  3006                     move.w     D0, D6
00003D30  0440 001C                subi.w     D0, 0x1C
00003D34  6B76                     bmi        +0x78 /* 00003DAC */
00003D36  0C40 0003                cmpi.w     D0, 0x3
00003D3A  6E70                     bgt        +0x72 /* 00003DAC */
00003D3C  D040                     add.w      D0, D0
00003D3E  303B 0006                move.w     D0, [PC + D0.w + 0x6]
00003D42  4EFB 0000                jmp        [PC + D0.w]
00003D46  0022 0052                ori.b      -[A2], 0x52 /* 'R' */
00003D4A  000A 003A                ori.b      A2, 0x3A /* ':' */
00003D4E  70FF                     moveq.l    D0, 0xFFFFFFFF
00003D50  2F00                     move.l     -[A7], D0
00003D52  7200                     moveq.l    D1, 0x00
00003D54  2F01                     move.l     -[A7], D1
00003D56  48C7                     ext.l      D7
00003D58  2F07                     move.l     -[A7], D7
00003D5A  2F0B                     move.l     -[A7], A3
00003D5C  4EBA 00AE                jsr        [PC + 0xAE /* 00003E0C */]
00003D60  4FEF 0010                lea.l      A7, [A7 + 0x10]
00003D64  6046                     bra        +0x48 /* 00003DAC */
00003D66  7000                     moveq.l    D0, 0x00
00003D68  2F00                     move.l     -[A7], D0
00003D6A  72FF                     moveq.l    D1, 0xFFFFFFFF
00003D6C  2F01                     move.l     -[A7], D1
00003D6E  48C7                     ext.l      D7
00003D70  2F07                     move.l     -[A7], D7
00003D72  2F0B                     move.l     -[A7], A3
00003D74  4EBA 0096                jsr        [PC + 0x96 /* 00003E0C */]
00003D78  4FEF 0010                lea.l      A7, [A7 + 0x10]
00003D7C  602E                     bra        +0x30 /* 00003DAC */
00003D7E  7001                     moveq.l    D0, 0x01
00003D80  2F00                     move.l     -[A7], D0
00003D82  7200                     moveq.l    D1, 0x00
00003D84  2F01                     move.l     -[A7], D1
00003D86  48C7                     ext.l      D7
00003D88  2F07                     move.l     -[A7], D7
00003D8A  2F0B                     move.l     -[A7], A3
00003D8C  4EBA 007E                jsr        [PC + 0x7E /* 00003E0C */]
00003D90  4FEF 0010                lea.l      A7, [A7 + 0x10]
00003D94  6016                     bra        +0x18 /* 00003DAC */
00003D96  7000                     moveq.l    D0, 0x00
00003D98  2F00                     move.l     -[A7], D0
00003D9A  7201                     moveq.l    D1, 0x01
00003D9C  2F01                     move.l     -[A7], D1
00003D9E  48C7                     ext.l      D7
00003DA0  2F07                     move.l     -[A7], D7
00003DA2  2F0B                     move.l     -[A7], A3
00003DA4  4EBA 0066                jsr        [PC + 0x66 /* 00003E0C */]
00003DA8  4FEF 0010                lea.l      A7, [A7 + 0x10]
label00003DAC:
00003DAC  3007                     move.w     D0, D7
00003DAE  5247                     addq.w     D7, 1
label00003DB0:
00003DB0  2053                     movea.l    A0, [A3]
00003DB2  BE68 0150                cmp.w      D7, [A0 + 0x150]
00003DB6  6F00 FF6A                ble        -0x94 /* 00003D22 */
00003DBA  4CEE 18C0 FFF0           movem.l    D6,D7,A3,A4, [A6 - 0x10]
00003DC0  4E5E                     unlink     A6
00003DC2  4E75                     rts
fn00003DC4:
00003DC4  4E56 FFF0                link       A6, -0x0010
00003DC8  2F0C                     move.l     -[A7], A4
00003DCA  286E 0008                movea.l    A4, [A6 + 0x8]
00003DCE  3D7C 000C FFF0           move.w     [A6 - 0x10], 0xC
00003DD4  2054                     movea.l    A0, [A4]
00003DD6  3028 0112                move.w     D0, [A0 + 0x112]
00003DDA  48C0                     ext.l      D0
00003DDC  4840                     swap.w     D0
00003DDE  4240                     clr.w      D0
00003DE0  322E 000E                move.w     D1, [A6 + 0xE]
00003DE4  48C1                     ext.l      D1
00003DE6  D280                     add.l      D1, D0
00003DE8  2D41 FFF2                move.l     [A6 - 0xE], D1
00003DEC  2D6E 0010 FFF6           move.l     [A6 - 0xA], [A6 + 0x10]
00003DF2  42AE FFFA                clr.l      [A6 - 0x6]
00003DF6  426E FFFE                clr.w      [A6 - 0x2]
00003DFA  486E FFF0                pea.l      [A6 - 0x10]
00003DFE  2F0C                     move.l     -[A7], A4
00003E00  4EBA C2AC                jsr        [PC - 0x3D54 /* 000000AE */]
00003E04  286E FFEC                movea.l    A4, [A6 - 0x14]
00003E08  4E5E                     unlink     A6
00003E0A  4E75                     rts
fn00003E0C:
00003E0C  4E56 FFD6                link       A6, -0x002A
00003E10  48E7 0F18                movem.l    -[A7], D4,D5,D6,D7,A3,A4
00003E14  3A2E 0016                move.w     D5, [A6 + 0x16]
00003E18  3C2E 0012                move.w     D6, [A6 + 0x12]
00003E1C  3E2E 000E                move.w     D7, [A6 + 0xE]
00003E20  558F                     subq.l     A7, 2
00003E22  A994                     syscall    CurResFile
00003E24  381F                     move.w     D4, [A7]+
00003E26  4A46                     tst.w      D6
00003E28  6606                     bne        +0x8 /* 00003E30 */
00003E2A  4A45                     tst.w      D5
00003E2C  6700 0150                beq        +0x152 /* 00003F7E */
label00003E30:
00003E30  486E FFE4                pea.l      [A6 - 0x1C]
00003E34  486E FFE0                pea.l      [A6 - 0x20]
00003E38  486E FFD6                pea.l      [A6 - 0x2A]
00003E3C  48C7                     ext.l      D7
00003E3E  2F07                     move.l     -[A7], D7
00003E40  206E 0008                movea.l    A0, [A6 + 0x8]
00003E44  2050                     movea.l    A0, [A0]
00003E46  2F28 0104                move.l     -[A7], [A0 + 0x104]
00003E4A  4EBA 4BFC                jsr        [PC + 0x4BFC /* 00008A48 */]
00003E4E  41EE FFEC                lea.l      A0, [A6 - 0x14]
00003E52  43EE FFE4                lea.l      A1, [A6 - 0x1C]
00003E56  20D9                     move.l     [A0]+, [A1]+
00003E58  20D9                     move.l     [A0]+, [A1]+
00003E5A  486E FFE4                pea.l      [A6 - 0x1C]
00003E5E  3F06                     move.w     -[A7], D6
00003E60  3F05                     move.w     -[A7], D5
00003E62  A8A8                     syscall    OffsetRect
00003E64  41EE FFF4                lea.l      A0, [A6 - 0xC]
00003E68  43EE FFE4                lea.l      A1, [A6 - 0x1C]
00003E6C  20D9                     move.l     [A0]+, [A1]+
00003E6E  20D9                     move.l     [A0]+, [A1]+
00003E70  7A04                     moveq.l    D5, 0x04
00003E72  CA6E FFD6                and.w      D5, [A6 - 0x2A]
00003E76  4A05                     tst.b      D5
00003E78  4FEF 0014                lea.l      A7, [A7 + 0x14]
00003E7C  672C                     beq        +0x2E /* 00003EAA */
00003E7E  206E 0008                movea.l    A0, [A6 + 0x8]
00003E82  2050                     movea.l    A0, [A0]
00003E84  3F28 0110                move.w     -[A7], [A0 + 0x110]
00003E88  A998                     syscall    UseResFile
00003E8A  2F2E 0008                move.l     -[A7], [A6 + 0x8]
00003E8E  4EBA C3EA                jsr        [PC - 0x3C16 /* 0000027A */]
00003E92  2F2E FFE0                move.l     -[A7], [A6 - 0x20]
00003E96  2F2E FFE4                move.l     -[A7], [A6 - 0x1C]
00003E9A  A959                     syscall    MoveControl
00003E9C  2F2E 0008                move.l     -[A7], [A6 + 0x8]
00003EA0  4EBA C40C                jsr        [PC - 0x3BF4 /* 000002AE */]
00003EA4  3F04                     move.w     -[A7], D4
00003EA6  A998                     syscall    UseResFile
00003EA8  504F                     addq.w     A7, 8
label00003EAA:
00003EAA  7001                     moveq.l    D0, 0x01
00003EAC  2F00                     move.l     -[A7], D0
00003EAE  2F00                     move.l     -[A7], D0
00003EB0  2F00                     move.l     -[A7], D0
00003EB2  2F00                     move.l     -[A7], D0
00003EB4  48C7                     ext.l      D7
00003EB6  2F07                     move.l     -[A7], D7
00003EB8  2F2E 0008                move.l     -[A7], [A6 + 0x8]
00003EBC  4EBA 195A                jsr        [PC + 0x195A /* 00005818 */]
00003EC0  206E 0008                movea.l    A0, [A6 + 0x8]
00003EC4  2050                     movea.l    A0, [A0]
00003EC6  2F28 0104                move.l     -[A7], [A0 + 0x104]
00003ECA  3F07                     move.w     -[A7], D7
00003ECC  3F2E FFD6                move.w     -[A7], [A6 - 0x2A]
00003ED0  2F2E FFE0                move.l     -[A7], [A6 - 0x20]
00003ED4  486E FFE4                pea.l      [A6 - 0x1C]
00003ED8  A98E                     syscall    SetDialogItem/SetDItem
00003EDA  7001                     moveq.l    D0, 0x01
00003EDC  2F00                     move.l     -[A7], D0
00003EDE  2F00                     move.l     -[A7], D0
00003EE0  2F00                     move.l     -[A7], D0
00003EE2  2F00                     move.l     -[A7], D0
00003EE4  48C7                     ext.l      D7
00003EE6  2F07                     move.l     -[A7], D7
00003EE8  2F2E 0008                move.l     -[A7], [A6 + 0x8]
00003EEC  4EBA 192A                jsr        [PC + 0x192A /* 00005818 */]
00003EF0  486E FFDC                pea.l      [A6 - 0x24]
00003EF4  486E FFD8                pea.l      [A6 - 0x28]
00003EF8  48C7                     ext.l      D7
00003EFA  2F07                     move.l     -[A7], D7
00003EFC  206E 0008                movea.l    A0, [A6 + 0x8]
00003F00  2050                     movea.l    A0, [A0]
00003F02  2F28 0120                move.l     -[A7], [A0 + 0x120]
00003F06  4EBA 4A7A                jsr        [PC + 0x4A7A /* 00008982 */]
00003F0A  206E 0008                movea.l    A0, [A6 + 0x8]
00003F0E  2050                     movea.l    A0, [A0]
00003F10  2D48 FFFC                move.l     [A6 - 0x4], A0
00003F14  2068 0120                movea.l    A0, [A0 + 0x120]
00003F18  2050                     movea.l    A0, [A0]
00003F1A  202E FFD8                move.l     D0, [A6 - 0x28]
00003F1E  47F0 0800                lea.l      A3, [A0 + D0]
00003F22  206E FFFC                movea.l    A0, [A6 - 0x4]
00003F26  2068 0114                movea.l    A0, [A0 + 0x114]
00003F2A  2050                     movea.l    A0, [A0]
00003F2C  202E FFD8                move.l     D0, [A6 - 0x28]
00003F30  49F0 0800                lea.l      A4, [A0 + D0]
00003F34  382C 000E                move.w     D4, [A4 + 0xE]
00003F38  2F2E FFDC                move.l     -[A7], [A6 - 0x24]
00003F3C  2F0C                     move.l     -[A7], A4
00003F3E  2F0B                     move.l     -[A7], A3
00003F40  4EBA 4AD4                jsr        [PC + 0x4AD4 /* 00008A16 */]
00003F44  3944 000E                move.w     [A4 + 0xE], D4
00003F48  7000                     moveq.l    D0, 0x00
00003F4A  2880                     move.l     [A4], D0
00003F4C  206E 0008                movea.l    A0, [A6 + 0x8]
00003F50  2050                     movea.l    A0, [A0]
00003F52  2F28 0114                move.l     -[A7], [A0 + 0x114]
00003F56  4EBA C186                jsr        [PC - 0x3E7A /* 000000DE */]
00003F5A  206E 0008                movea.l    A0, [A6 + 0x8]
00003F5E  2050                     movea.l    A0, [A0]
00003F60  4A68 01CE                tst.w      [A0 + 0x1CE]
00003F64  4FEF 004C                lea.l      A7, [A7 + 0x4C]
00003F68  6614                     bne        +0x16 /* 00003F7E */
00003F6A  7004                     moveq.l    D0, 0x04
00003F6C  2F00                     move.l     -[A7], D0
00003F6E  48C7                     ext.l      D7
00003F70  2F07                     move.l     -[A7], D7
00003F72  2F2E 0008                move.l     -[A7], [A6 + 0x8]
00003F76  4EBA FE4C                jsr        [PC - 0x1B4 /* 00003DC4 */]
00003F7A  4FEF 000C                lea.l      A7, [A7 + 0xC]
label00003F7E:
00003F7E  4CEE 18F0 FFBE           movem.l    D4,D5,D6,D7,A3,A4, [A6 - 0x42]
00003F84  4E5E                     unlink     A6
00003F86  4E75                     rts
fn00003F88:
00003F88  4E56 FFF2                link       A6, -0x000E
00003F8C  48E7 0108                movem.l    -[A7], D7,A4
00003F90  3E2E 000E                move.w     D7, [A6 + 0xE]
00003F94  286E 0008                movea.l    A4, [A6 + 0x8]
00003F98  486E FFF8                pea.l      [A6 - 0x8]
00003F9C  486E FFF4                pea.l      [A6 - 0xC]
00003FA0  486E FFF2                pea.l      [A6 - 0xE]
00003FA4  48C7                     ext.l      D7
00003FA6  2F07                     move.l     -[A7], D7
00003FA8  2054                     movea.l    A0, [A4]
00003FAA  2F28 0104                move.l     -[A7], [A0 + 0x104]
00003FAE  4EBA 4A98                jsr        [PC + 0x4A98 /* 00008A48 */]
00003FB2  2054                     movea.l    A0, [A4]
00003FB4  2F28 0104                move.l     -[A7], [A0 + 0x104]
00003FB8  3F07                     move.w     -[A7], D7
00003FBA  3F2E FFF2                move.w     -[A7], [A6 - 0xE]
00003FBE  2F2E FFF4                move.l     -[A7], [A6 - 0xC]
00003FC2  486E 0010                pea.l      [A6 + 0x10]
00003FC6  A98E                     syscall    SetDialogItem/SetDItem
00003FC8  7004                     moveq.l    D0, 0x04
00003FCA  C06E FFF2                and.w      D0, [A6 - 0xE]
00003FCE  4FEF 0014                lea.l      A7, [A7 + 0x14]
00003FD2  6734                     beq        +0x36 /* 00004008 */
00003FD4  2F0C                     move.l     -[A7], A4
00003FD6  4EBA C2A2                jsr        [PC - 0x3D5E /* 0000027A */]
00003FDA  2F2E FFF4                move.l     -[A7], [A6 - 0xC]
00003FDE  2F2E 0010                move.l     -[A7], [A6 + 0x10]
00003FE2  A959                     syscall    MoveControl
00003FE4  2F2E FFF4                move.l     -[A7], [A6 - 0xC]
00003FE8  302E 0016                move.w     D0, [A6 + 0x16]
00003FEC  906E 0012                sub.w      D0, [A6 + 0x12]
00003FF0  3F00                     move.w     -[A7], D0
00003FF2  302E 0014                move.w     D0, [A6 + 0x14]
00003FF6  906E 0010                sub.w      D0, [A6 + 0x10]
00003FFA  3F00                     move.w     -[A7], D0
00003FFC  A95C                     syscall    SizeControl
00003FFE  2F0C                     move.l     -[A7], A4
00004000  4EBA C2AC                jsr        [PC - 0x3D54 /* 000002AE */]
00004004  504F                     addq.w     A7, 8
00004006  601A                     bra        +0x1C /* 00004022 */
label00004008:
00004008  7010                     moveq.l    D0, 0x10
0000400A  C06E FFF2                and.w      D0, [A6 - 0xE]
0000400E  670C                     beq        +0xE /* 0000401C */
00004010  486E 0010                pea.l      [A6 + 0x10]
00004014  70FD                     moveq.l    D0, 0xFFFFFFFD
00004016  3F00                     move.w     -[A7], D0
00004018  3F00                     move.w     -[A7], D0
0000401A  A8A9                     syscall    InsetRect
label0000401C:
0000401C  486E 0010                pea.l      [A6 + 0x10]
00004020  A928                     syscall    InvalRect
label00004022:
00004022  7010                     moveq.l    D0, 0x10
00004024  C06E FFF2                and.w      D0, [A6 - 0xE]
00004028  670C                     beq        +0xE /* 00004036 */
0000402A  486E FFF8                pea.l      [A6 - 0x8]
0000402E  70FD                     moveq.l    D0, 0xFFFFFFFD
00004030  3F00                     move.w     -[A7], D0
00004032  3F00                     move.w     -[A7], D0
00004034  A8A9                     syscall    InsetRect
label00004036:
00004036  486E FFF8                pea.l      [A6 - 0x8]
0000403A  A928                     syscall    InvalRect
0000403C  4CEE 1080 FFEA           movem.l    D7,A4, [A6 - 0x16]
00004042  4E5E                     unlink     A6
00004044  4E75                     rts
fn00004046:
00004046  4E56 FFC0                link       A6, -0x0040
0000404A  48E7 0F18                movem.l    -[A7], D4,D5,D6,D7,A3,A4
0000404E  3E2E 000E                move.w     D7, [A6 + 0xE]
00004052  286E 0008                movea.l    A4, [A6 + 0x8]
00004056  2054                     movea.l    A0, [A4]
00004058  317C 0001 01CE           move.w     [A0 + 0x1CE], 0x1
0000405E  486E FFF8                pea.l      [A6 - 0x8]
00004062  486E FFE8                pea.l      [A6 - 0x18]
00004066  486E FFD6                pea.l      [A6 - 0x2A]
0000406A  48C7                     ext.l      D7
0000406C  2F07                     move.l     -[A7], D7
0000406E  2054                     movea.l    A0, [A4]
00004070  2F28 0104                move.l     -[A7], [A0 + 0x104]
00004074  4EBA 49D2                jsr        [PC + 0x49D2 /* 00008A48 */]
00004078  2054                     movea.l    A0, [A4]
0000407A  2068 0114                movea.l    A0, [A0 + 0x114]
0000407E  A069                     syscall    HGetState
00004080  1D40 FFD4                move.b     [A6 - 0x2C], D0
00004084  2054                     movea.l    A0, [A4]
00004086  2068 0120                movea.l    A0, [A0 + 0x120]
0000408A  A069                     syscall    HGetState
0000408C  1D40 FFD5                move.b     [A6 - 0x2B], D0
00004090  2054                     movea.l    A0, [A4]
00004092  2068 0120                movea.l    A0, [A0 + 0x120]
00004096  A029                     syscall    HLock
00004098  2054                     movea.l    A0, [A4]
0000409A  2068 0114                movea.l    A0, [A0 + 0x114]
0000409E  A029                     syscall    HLock
000040A0  486E FFE0                pea.l      [A6 - 0x20]
000040A4  486E FFD8                pea.l      [A6 - 0x28]
000040A8  48C7                     ext.l      D7
000040AA  2F07                     move.l     -[A7], D7
000040AC  2054                     movea.l    A0, [A4]
000040AE  2F28 0114                move.l     -[A7], [A0 + 0x114]
000040B2  4EBA 48CE                jsr        [PC + 0x48CE /* 00008982 */]
000040B6  486E FFE4                pea.l      [A6 - 0x1C]
000040BA  486E FFDC                pea.l      [A6 - 0x24]
000040BE  48C7                     ext.l      D7
000040C0  2F07                     move.l     -[A7], D7
000040C2  2054                     movea.l    A0, [A4]
000040C4  2F28 0120                move.l     -[A7], [A0 + 0x120]
000040C8  4EBA 48B8                jsr        [PC + 0x48B8 /* 00008982 */]
000040CC  2054                     movea.l    A0, [A4]
000040CE  2068 0114                movea.l    A0, [A0 + 0x114]
000040D2  2050                     movea.l    A0, [A0]
000040D4  202E FFD8                move.l     D0, [A6 - 0x28]
000040D8  D1C0                     add.l      A0, D0
000040DA  2D48 FFF0                move.l     [A6 - 0x10], A0
000040DE  2054                     movea.l    A0, [A4]
000040E0  2068 0120                movea.l    A0, [A0 + 0x120]
000040E4  2050                     movea.l    A0, [A0]
000040E6  202E FFDC                move.l     D0, [A6 - 0x24]
000040EA  D1C0                     add.l      A0, D0
000040EC  2D48 FFF4                move.l     [A6 - 0xC], A0
000040F0  206E FFF0                movea.l    A0, [A6 - 0x10]
000040F4  7000                     moveq.l    D0, 0x00
000040F6  1028 000C                move.b     D0, [A0 + 0xC]
000040FA  3A3C FF7F                move.w     D5, 0xFF7F
000040FE  CA40                     and.w      D5, D0
00004100  302E 0012                move.w     D0, [A6 + 0x12]
00004104  5740                     subq.w     D0, 3
00004106  4FEF 0034                lea.l      A7, [A7 + 0x34]
0000410A  6B00 03B6                bmi        +0x3B8 /* 000044C2 */
0000410E  0C40 000B                cmpi.w     D0, 0xB
00004112  6E00 03AE                bgt        +0x3B0 /* 000044C2 */
00004116  D040                     add.w      D0, D0
00004118  303B 0006                move.w     D0, [PC + D0.w + 0x6]
0000411C  4EFB 0000                jmp        [PC + D0.w]
00004120  001A 002C                ori.b      [A2]+, 0x2C /* ',' */
00004124  004A 0096                ori.w      A2, 0x96
00004128  0342                     bchg       D2, D1
0000412A  03A4                     bclr       -[A4], D1
0000412C  03A4                     bclr       -[A4], D1
0000412E  036E 037C                bchg       [A6 + 0x37C], D1
00004132  038A                     bclr       A2, D1
00004134  0398                     bclr       [A0]+, D1
00004136  035E                     bchg       [A6]+, D1
00004138  206E FFF0                movea.l    A0, [A6 - 0x10]
0000413C  226E FFF4                movea.l    A1, [A6 - 0xC]
00004140  1368 000C 000C           move.b     [A1 + 0xC], [A0 + 0xC]
00004146  6000 037A                bra        +0x37C /* 000044C2 */
0000414A  206E FFF0                movea.l    A0, [A6 - 0x10]
0000414E  41E8 000C                lea.l      A0, [A0 + 0xC]
00004152  2F20                     move.l     -[A7], -[A0]
00004154  2F20                     move.l     -[A7], -[A0]
00004156  48C7                     ext.l      D7
00004158  2F07                     move.l     -[A7], D7
0000415A  2F0C                     move.l     -[A7], A4
0000415C  4EBA FE2A                jsr        [PC - 0x1D6 /* 00003F88 */]
00004160  4FEF 0010                lea.l      A7, [A7 + 0x10]
00004164  6000 035C                bra        +0x35E /* 000044C2 */
00004168  7000                     moveq.l    D0, 0x00
0000416A  1005                     move.b     D0, D5
0000416C  7204                     moveq.l    D1, 0x04
0000416E  C200                     and.b      D1, D0
00004170  6710                     beq        +0x12 /* 00004182 */
00004172  2F2E FFE8                move.l     -[A7], [A6 - 0x18]
00004176  206E FFF0                movea.l    A0, [A6 - 0x10]
0000417A  4868 000D                pea.l      [A0 + 0xD]
0000417E  A95F                     syscall    SetControlTitle/SetCTitle
00004180  600E                     bra        +0x10 /* 00004190 */
label00004182:
00004182  2F2E FFE8                move.l     -[A7], [A6 - 0x18]
00004186  206E FFF0                movea.l    A0, [A6 - 0x10]
0000418A  4868 000D                pea.l      [A0 + 0xD]
0000418E  A98F                     syscall    SetDialogItemText/SetIText
label00004190:
00004190  206E FFF0                movea.l    A0, [A6 - 0x10]
00004194  4868 000D                pea.l      [A0 + 0xD]
00004198  48C7                     ext.l      D7
0000419A  2F07                     move.l     -[A7], D7
0000419C  2054                     movea.l    A0, [A4]
0000419E  2F28 0120                move.l     -[A7], [A0 + 0x120]
000041A2  4EBA 0532                jsr        [PC + 0x532 /* 000046D6 */]
000041A6  486E FFF8                pea.l      [A6 - 0x8]
000041AA  A928                     syscall    InvalRect
000041AC  4FEF 000C                lea.l      A7, [A7 + 0xC]
000041B0  6000 0310                bra        +0x312 /* 000044C2 */
000041B4  206E FFF0                movea.l    A0, [A6 - 0x10]
000041B8  3C28 000E                move.w     D6, [A0 + 0xE]
000041BC  1005                     move.b     D0, D5
000041BE  5F00                     subq.b     D0, 7
000041C0  6714                     beq        +0x16 /* 000041D6 */
000041C2  0400 0019                subi.b     D0, 0x19
000041C6  6700 0226                beq        +0x228 /* 000043EE */
000041CA  0400 0020                subi.b     D0, 0x20 /* ' ' */
000041CE  6700 01B2                beq        +0x1B4 /* 00004382 */
000041D2  6000 0284                bra        +0x286 /* 00004458 */
label000041D6:
000041D6  2054                     movea.l    A0, [A4]
000041D8  4A68 01D6                tst.w      [A0 + 0x1D6]
000041DC  6706                     beq        +0x8 /* 000041E4 */
000041DE  4EBA BE7A                jsr        [PC - 0x4186 /* 0000005A */]
000041E2  6008                     bra        +0xA /* 000041EC */
label000041E4:
000041E4  2054                     movea.l    A0, [A4]
000041E6  3F28 0110                move.w     -[A7], [A0 + 0x110]
000041EA  A998                     syscall    UseResFile
label000041EC:
000041EC  598F                     subq.l     A7, 4
000041EE  2F3C 434E 544C           move.l     -[A7], 0x434E544C /* 'CNTL' */
000041F4  206E FFF0                movea.l    A0, [A6 - 0x10]
000041F8  3F28 000E                move.w     -[A7], [A0 + 0xE]
000041FC  A81F                     syscall    Get1Resource
000041FE  265F                     movea.l    A3, [A7]+
00004200  200B                     move.l     D0, A3
00004202  661E                     bne        +0x20 /* 00004222 */
00004204  558F                     subq.l     A7, 2
00004206  4EBA BE8E                jsr        [PC - 0x4172 /* 00000096 */]
0000420A  A998                     syscall    UseResFile
0000420C  598F                     subq.l     A7, 4
0000420E  2F3C 434E 544C           move.l     -[A7], 0x434E544C /* 'CNTL' */
00004214  206E FFF0                movea.l    A0, [A6 - 0x10]
00004218  3F28 000E                move.w     -[A7], [A0 + 0xE]
0000421C  A81F                     syscall    Get1Resource
0000421E  265F                     movea.l    A3, [A7]+
00004220  6044                     bra        +0x46 /* 00004266 */
label00004222:
00004222  2053                     movea.l    A0, [A3]
00004224  3A28 0010                move.w     D5, [A0 + 0x10]
00004228  0C45 03F0                cmpi.w     D5, 0x3F0
0000422C  6638                     bne        +0x3A /* 00004266 */
0000422E  2053                     movea.l    A0, [A3]
00004230  3A28 000E                move.w     D5, [A0 + 0xE]
00004234  7000                     moveq.l    D0, 0x00
00004236  1F00                     move.b     -[A7], D0
00004238  A99B                     syscall    SetResLoad
0000423A  558F                     subq.l     A7, 2
0000423C  2F0B                     move.l     -[A7], A3
0000423E  A9A4                     syscall    HomeResFile
00004240  A998                     syscall    UseResFile
00004242  598F                     subq.l     A7, 4
00004244  2F3C 4D45 4E55           move.l     -[A7], 0x4D454E55 /* 'MENU' */
0000424A  3F05                     move.w     -[A7], D5
0000424C  A81F                     syscall    Get1Resource
0000424E  2D5F FFC0                move.l     [A6 - 0x40], [A7]+
00004252  7001                     moveq.l    D0, 0x01
00004254  1F00                     move.b     -[A7], D0
00004256  A99B                     syscall    SetResLoad
00004258  4AAE FFC0                tst.l      [A6 - 0x40]
0000425C  6608                     bne        +0xA /* 00004266 */
0000425E  2F0B                     move.l     -[A7], A3
00004260  A9A3                     syscall    ReleaseResource
00004262  7000                     moveq.l    D0, 0x00
00004264  2640                     movea.l    A3, D0
label00004266:
00004266  200B                     move.l     D0, A3
00004268  661C                     bne        +0x1E /* 00004286 */
0000426A  3C3C 0597                move.w     D6, 0x597
0000426E  558F                     subq.l     A7, 2
00004270  3EB8 0900                move.w     [A7], [0x00000900 /* CurApRefNum */]
00004274  A998                     syscall    UseResFile
00004276  598F                     subq.l     A7, 4
00004278  2F3C 434E 544C           move.l     -[A7], 0x434E544C /* 'CNTL' */
0000427E  3F3C 0597                move.w     -[A7], 0x597
00004282  A81F                     syscall    Get1Resource
00004284  265F                     movea.l    A3, [A7]+
label00004286:
00004286  2053                     movea.l    A0, [A3]
00004288  43EE FFF8                lea.l      A1, [A6 - 0x8]
0000428C  22D8                     move.l     [A1]+, [A0]+
0000428E  22D8                     move.l     [A1]+, [A0]+
00004290  3A2E FFFE                move.w     D5, [A6 - 0x2]
00004294  9A6E FFFA                sub.w      D5, [A6 - 0x6]
00004298  382E FFFC                move.w     D4, [A6 - 0x4]
0000429C  986E FFF8                sub.w      D4, [A6 - 0x8]
000042A0  7001                     moveq.l    D0, 0x01
000042A2  2F00                     move.l     -[A7], D0
000042A4  7200                     moveq.l    D1, 0x00
000042A6  2F01                     move.l     -[A7], D1
000042A8  2F01                     move.l     -[A7], D1
000042AA  2F01                     move.l     -[A7], D1
000042AC  48C7                     ext.l      D7
000042AE  2F07                     move.l     -[A7], D7
000042B0  2F0C                     move.l     -[A7], A4
000042B2  4EBA 1564                jsr        [PC + 0x1564 /* 00005818 */]
000042B6  206E FFF0                movea.l    A0, [A6 - 0x10]
000042BA  226E FFF4                movea.l    A1, [A6 - 0xC]
000042BE  5889                     addq.l     A1, 4
000042C0  5888                     addq.l     A0, 4
000042C2  22D8                     move.l     [A1]+, [A0]+
000042C4  22D8                     move.l     [A1]+, [A0]+
000042C6  206E FFF4                movea.l    A0, [A6 - 0xC]
000042CA  3005                     move.w     D0, D5
000042CC  D068 0006                add.w      D0, [A0 + 0x6]
000042D0  3140 000A                move.w     [A0 + 0xA], D0
000042D4  206E FFF4                movea.l    A0, [A6 - 0xC]
000042D8  3004                     move.w     D0, D4
000042DA  D068 0004                add.w      D0, [A0 + 0x4]
000042DE  3140 0008                move.w     [A0 + 0x8], D0
000042E2  2F0C                     move.l     -[A7], A4
000042E4  4EBA BF94                jsr        [PC - 0x406C /* 0000027A */]
000042E8  206E FFF4                movea.l    A0, [A6 - 0xC]
000042EC  4A90                     tst.l      [A0]
000042EE  4FEF 001C                lea.l      A7, [A7 + 0x1C]
000042F2  6704                     beq        +0x6 /* 000042F8 */
000042F4  2F10                     move.l     -[A7], [A0]
000042F6  A955                     syscall    DisposeControl
label000042F8:
000042F8  42AE FFC8                clr.l      [A6 - 0x38]
000042FC  42AE FFC4                clr.l      [A6 - 0x3C]
00004300  2054                     movea.l    A0, [A4]
00004302  2068 0104                movea.l    A0, [A0 + 0x104]
00004306  2068 001C                movea.l    A0, [A0 + 0x1C]
0000430A  2050                     movea.l    A0, [A0]
0000430C  43EE FFCC                lea.l      A1, [A6 - 0x34]
00004310  5488                     addq.l     A0, 2
00004312  22D8                     move.l     [A1]+, [A0]+
00004314  22D8                     move.l     [A1]+, [A0]+
00004316  486E FFC4                pea.l      [A6 - 0x3C]
0000431A  A87B                     syscall    ClipRect
0000431C  598F                     subq.l     A7, 4
0000431E  3F06                     move.w     -[A7], D6
00004320  2054                     movea.l    A0, [A4]
00004322  2F28 0104                move.l     -[A7], [A0 + 0x104]
00004326  A9BE                     syscall    GetNewControl
00004328  2D57 FFEC                move.l     [A6 - 0x14], [A7]
0000432C  3F05                     move.w     -[A7], D5
0000432E  3F04                     move.w     -[A7], D4
00004330  A95C                     syscall    SizeControl
00004332  2F2E FFEC                move.l     -[A7], [A6 - 0x14]
00004336  206E FFF4                movea.l    A0, [A6 - 0xC]
0000433A  3F28 0006                move.w     -[A7], [A0 + 0x6]
0000433E  3F28 0004                move.w     -[A7], [A0 + 0x4]
00004342  A959                     syscall    MoveControl
00004344  486E FFCC                pea.l      [A6 - 0x34]
00004348  A87B                     syscall    ClipRect
0000434A  7001                     moveq.l    D0, 0x01
0000434C  2F00                     move.l     -[A7], D0
0000434E  7200                     moveq.l    D1, 0x00
00004350  2F01                     move.l     -[A7], D1
00004352  2F01                     move.l     -[A7], D1
00004354  2F01                     move.l     -[A7], D1
00004356  48C7                     ext.l      D7
00004358  2F07                     move.l     -[A7], D7
0000435A  2F0C                     move.l     -[A7], A4
0000435C  4EBA 14BA                jsr        [PC + 0x14BA /* 00005818 */]
00004360  206E FFF4                movea.l    A0, [A6 - 0xC]
00004364  20AE FFEC                move.l     [A0], [A6 - 0x14]
00004368  2F0C                     move.l     -[A7], A4
0000436A  4EBA BF42                jsr        [PC - 0x40BE /* 000002AE */]
0000436E  206E FFF4                movea.l    A0, [A6 - 0xC]
00004372  3146 000E                move.w     [A0 + 0xE], D6
00004376  4EBA BCE2                jsr        [PC - 0x431E /* 0000005A */]
0000437A  4FEF 001C                lea.l      A7, [A7 + 0x1C]
0000437E  6000 00D8                bra        +0xDA /* 00004458 */
label00004382:
00004382  598F                     subq.l     A7, 4
00004384  2054                     movea.l    A0, [A4]
00004386  3F28 0110                move.w     -[A7], [A0 + 0x110]
0000438A  2F3C 5049 4354           move.l     -[A7], 0x50494354 /* 'PICT' */
00004390  206E FFF0                movea.l    A0, [A6 - 0x10]
00004394  3F28 000E                move.w     -[A7], [A0 + 0xE]
00004398  4EBA BCC4                jsr        [PC - 0x433C /* 0000005E */]
0000439C  265F                     movea.l    A3, [A7]+
0000439E  200B                     move.l     D0, A3
000043A0  663C                     bne        +0x3E /* 000043DE */
000043A2  598F                     subq.l     A7, 4
000043A4  558F                     subq.l     A7, 2
000043A6  4EBA BCEE                jsr        [PC - 0x4312 /* 00000096 */]
000043AA  2F3C 5049 4354           move.l     -[A7], 0x50494354 /* 'PICT' */
000043B0  206E FFF0                movea.l    A0, [A6 - 0x10]
000043B4  3F28 000E                move.w     -[A7], [A0 + 0xE]
000043B8  4EBA BCA4                jsr        [PC - 0x435C /* 0000005E */]
000043BC  265F                     movea.l    A3, [A7]+
000043BE  200B                     move.l     D0, A3
000043C0  661C                     bne        +0x1E /* 000043DE */
000043C2  3C3C 0597                move.w     D6, 0x597
000043C6  598F                     subq.l     A7, 4
000043C8  558F                     subq.l     A7, 2
000043CA  3EB8 0900                move.w     [A7], [0x00000900 /* CurApRefNum */]
000043CE  2F3C 5049 4354           move.l     -[A7], 0x50494354 /* 'PICT' */
000043D4  3F3C 0597                move.w     -[A7], 0x597
000043D8  4EBA BC84                jsr        [PC - 0x437C /* 0000005E */]
000043DC  265F                     movea.l    A3, [A7]+
label000043DE:
000043DE  206E FFF4                movea.l    A0, [A6 - 0xC]
000043E2  208B                     move.l     [A0], A3
000043E4  206E FFF4                movea.l    A0, [A6 - 0xC]
000043E8  3146 000E                move.w     [A0 + 0xE], D6
000043EC  606A                     bra        +0x6C /* 00004458 */
label000043EE:
000043EE  598F                     subq.l     A7, 4
000043F0  2054                     movea.l    A0, [A4]
000043F2  3F28 0110                move.w     -[A7], [A0 + 0x110]
000043F6  2F3C 4943 4F4E           move.l     -[A7], 0x49434F4E /* 'ICON' */
000043FC  206E FFF0                movea.l    A0, [A6 - 0x10]
00004400  3F28 000E                move.w     -[A7], [A0 + 0xE]
00004404  4EBA BC58                jsr        [PC - 0x43A8 /* 0000005E */]
00004408  265F                     movea.l    A3, [A7]+
0000440A  200B                     move.l     D0, A3
0000440C  663C                     bne        +0x3E /* 0000444A */
0000440E  598F                     subq.l     A7, 4
00004410  558F                     subq.l     A7, 2
00004412  4EBA BC82                jsr        [PC - 0x437E /* 00000096 */]
00004416  2F3C 4943 4F4E           move.l     -[A7], 0x49434F4E /* 'ICON' */
0000441C  206E FFF0                movea.l    A0, [A6 - 0x10]
00004420  3F28 000E                move.w     -[A7], [A0 + 0xE]
00004424  4EBA BC38                jsr        [PC - 0x43C8 /* 0000005E */]
00004428  265F                     movea.l    A3, [A7]+
0000442A  200B                     move.l     D0, A3
0000442C  661C                     bne        +0x1E /* 0000444A */
0000442E  3C3C 0597                move.w     D6, 0x597
00004432  598F                     subq.l     A7, 4
00004434  558F                     subq.l     A7, 2
00004436  3EB8 0900                move.w     [A7], [0x00000900 /* CurApRefNum */]
0000443A  2F3C 4943 4F4E           move.l     -[A7], 0x49434F4E /* 'ICON' */
00004440  3F3C 0597                move.w     -[A7], 0x597
00004444  4EBA BC18                jsr        [PC - 0x43E8 /* 0000005E */]
00004448  265F                     movea.l    A3, [A7]+
label0000444A:
0000444A  206E FFF4                movea.l    A0, [A6 - 0xC]
0000444E  208B                     move.l     [A0], A3
00004450  206E FFF4                movea.l    A0, [A6 - 0xC]
00004454  3146 000E                move.w     [A0 + 0xE], D6
label00004458:
00004458  486E FFF8                pea.l      [A6 - 0x8]
0000445C  A928                     syscall    InvalRect
0000445E  6062                     bra        +0x64 /* 000044C2 */
00004460  206E FFF0                movea.l    A0, [A6 - 0x10]
00004464  7000                     moveq.l    D0, 0x00
00004466  1028 000C                move.b     D0, [A0 + 0xC]
0000446A  2F00                     move.l     -[A7], D0
0000446C  48C7                     ext.l      D7
0000446E  2F07                     move.l     -[A7], D7
00004470  2F0C                     move.l     -[A7], A4
00004472  4EBA 0076                jsr        [PC + 0x76 /* 000044EA */]
00004476  4FEF 000C                lea.l      A7, [A7 + 0xC]
0000447A  6046                     bra        +0x48 /* 000044C2 */
0000447C  2054                     movea.l    A0, [A4]
0000447E  4268 01CE                clr.w      [A0 + 0x1CE]
00004482  2F0C                     move.l     -[A7], A4
00004484  4EBA 24FE                jsr        [PC + 0x24FE /* 00006984 */]
00004488  584F                     addq.w     A7, 4
0000448A  6036                     bra        +0x38 /* 000044C2 */
0000448C  7002                     moveq.l    D0, 0x02
0000448E  2F00                     move.l     -[A7], D0
00004490  2F0C                     move.l     -[A7], A4
00004492  4EBA 2430                jsr        [PC + 0x2430 /* 000068C4 */]
00004496  504F                     addq.w     A7, 8
00004498  6028                     bra        +0x2A /* 000044C2 */
0000449A  7008                     moveq.l    D0, 0x08
0000449C  2F00                     move.l     -[A7], D0
0000449E  2F0C                     move.l     -[A7], A4
000044A0  4EBA 2422                jsr        [PC + 0x2422 /* 000068C4 */]
000044A4  504F                     addq.w     A7, 8
000044A6  601A                     bra        +0x1C /* 000044C2 */
000044A8  7007                     moveq.l    D0, 0x07
000044AA  2F00                     move.l     -[A7], D0
000044AC  2F0C                     move.l     -[A7], A4
000044AE  4EBA 2414                jsr        [PC + 0x2414 /* 000068C4 */]
000044B2  504F                     addq.w     A7, 8
000044B4  600C                     bra        +0xE /* 000044C2 */
000044B6  7009                     moveq.l    D0, 0x09
000044B8  2F00                     move.l     -[A7], D0
000044BA  2F0C                     move.l     -[A7], A4
000044BC  4EBA 2406                jsr        [PC + 0x2406 /* 000068C4 */]
000044C0  504F                     addq.w     A7, 8
label000044C2:
000044C2  2054                     movea.l    A0, [A4]
000044C4  2068 0114                movea.l    A0, [A0 + 0x114]
000044C8  102E FFD4                move.b     D0, [A6 - 0x2C]
000044CC  A06A                     syscall    HSetState
000044CE  2054                     movea.l    A0, [A4]
000044D0  2068 0120                movea.l    A0, [A0 + 0x120]
000044D4  102E FFD5                move.b     D0, [A6 - 0x2B]
000044D8  A06A                     syscall    HSetState
000044DA  2054                     movea.l    A0, [A4]
000044DC  4268 01CE                clr.w      [A0 + 0x1CE]
000044E0  4CEE 18F0 FFA8           movem.l    D4,D5,D6,D7,A3,A4, [A6 - 0x58]
000044E6  4E5E                     unlink     A6
000044E8  4E75                     rts
fn000044EA:
000044EA  4E56 FDEE                link       A6, -0x0212
000044EE  48E7 0F18                movem.l    -[A7], D4,D5,D6,D7,A3,A4
000044F2  182E 0013                move.b     D4, [A6 + 0x13]
000044F6  47EE FE00                lea.l      A3, [A6 - 0x200]
000044FA  3C2E 000E                move.w     D6, [A6 + 0xE]
000044FE  286E 0008                movea.l    A4, [A6 + 0x8]
00004502  2054                     movea.l    A0, [A4]
00004504  317C 0001 01D0           move.w     [A0 + 0x1D0], 0x1
0000450A  486E FDF8                pea.l      [A6 - 0x208]
0000450E  486E FDF4                pea.l      [A6 - 0x20C]
00004512  486E FDEE                pea.l      [A6 - 0x212]
00004516  48C6                     ext.l      D6
00004518  2F06                     move.l     -[A7], D6
0000451A  2054                     movea.l    A0, [A4]
0000451C  2F28 0104                move.l     -[A7], [A0 + 0x104]
00004520  4EBA 4526                jsr        [PC + 0x4526 /* 00008A48 */]
00004524  486E FDF8                pea.l      [A6 - 0x208]
00004528  A928                     syscall    InvalRect
0000452A  4205                     clr.b      D5
0000452C  303C FF7F                move.w     D0, 0xFF7F
00004530  C06E FDEE                and.w      D0, [A6 - 0x212]
00004534  4FEF 0014                lea.l      A7, [A7 + 0x14]
00004538  675A                     beq        +0x5C /* 00004594 */
0000453A  5340                     subq.w     D0, 1
0000453C  6756                     beq        +0x58 /* 00004594 */
0000453E  5740                     subq.w     D0, 3
00004540  6722                     beq        +0x24 /* 00004564 */
00004542  5340                     subq.w     D0, 1
00004544  671E                     beq        +0x20 /* 00004564 */
00004546  5340                     subq.w     D0, 1
00004548  671A                     beq        +0x1C /* 00004564 */
0000454A  5340                     subq.w     D0, 1
0000454C  6732                     beq        +0x34 /* 00004580 */
0000454E  5340                     subq.w     D0, 1
00004550  6720                     beq        +0x22 /* 00004572 */
00004552  5140                     subq.w     D0, 8
00004554  671C                     beq        +0x1E /* 00004572 */
00004556  0440 0010                subi.w     D0, 0x10
0000455A  6724                     beq        +0x26 /* 00004580 */
0000455C  0440 0020                subi.w     D0, 0x20 /* ' ' */
00004560  671E                     beq        +0x20 /* 00004580 */
00004562  6030                     bra        +0x32 /* 00004594 */
label00004564:
00004564  2F0B                     move.l     -[A7], A3
00004566  2F2E FDF4                move.l     -[A7], [A6 - 0x20C]
0000456A  4EBA 498A                jsr        [PC + 0x498A /* 00008EF6 */]
0000456E  504F                     addq.w     A7, 8
00004570  6026                     bra        +0x28 /* 00004598 */
label00004572:
00004572  2F0B                     move.l     -[A7], A3
00004574  2F2E FDF4                move.l     -[A7], [A6 - 0x20C]
00004578  4EBA 4996                jsr        [PC + 0x4996 /* 00008F10 */]
0000457C  504F                     addq.w     A7, 8
0000457E  6018                     bra        +0x1A /* 00004598 */
label00004580:
00004580  7A01                     moveq.l    D5, 0x01
00004582  2F2E FDF4                move.l     -[A7], [A6 - 0x20C]
00004586  2F0B                     move.l     -[A7], A3
00004588  486E FDF0                pea.l      [A6 - 0x210]
0000458C  486E FF00                pea.l      [A6 - 0x100]
00004590  A9A8                     syscall    GetResInfo
00004592  6004                     bra        +0x6 /* 00004598 */
label00004594:
00004594  7A01                     moveq.l    D5, 0x01
00004596  4253                     clr.w      [A3]
label00004598:
00004598  2F0C                     move.l     -[A7], A4
0000459A  4EBA C0F4                jsr        [PC - 0x3F0C /* 00000690 */]
0000459E  48C6                     ext.l      D6
000045A0  2F06                     move.l     -[A7], D6
000045A2  2F0C                     move.l     -[A7], A4
000045A4  4EBA EB1C                jsr        [PC - 0x14E4 /* 000030C2 */]
000045A8  2F0C                     move.l     -[A7], A4
000045AA  4EBA F492                jsr        [PC - 0xB6E /* 00003A3E */]
000045AE  7000                     moveq.l    D0, 0x00
000045B0  2D40 FDF0                move.l     [A6 - 0x210], D0
000045B4  4247                     clr.w      D7
000045B6  7200                     moveq.l    D1, 0x00
000045B8  1204                     move.b     D1, D4
000045BA  343C FF7F                move.w     D2, 0xFF7F
000045BE  C441                     and.w      D2, D1
000045C0  4FEF 0010                lea.l      A7, [A7 + 0x10]
000045C4  675A                     beq        +0x5C /* 00004620 */
000045C6  5342                     subq.w     D2, 1
000045C8  6756                     beq        +0x58 /* 00004620 */
000045CA  5742                     subq.w     D2, 3
000045CC  6722                     beq        +0x24 /* 000045F0 */
000045CE  5342                     subq.w     D2, 1
000045D0  6722                     beq        +0x24 /* 000045F4 */
000045D2  5342                     subq.w     D2, 1
000045D4  6722                     beq        +0x24 /* 000045F8 */
000045D6  5342                     subq.w     D2, 1
000045D8  6722                     beq        +0x24 /* 000045FC */
000045DA  5342                     subq.w     D2, 1
000045DC  6728                     beq        +0x2A /* 00004606 */
000045DE  5142                     subq.w     D2, 8
000045E0  6728                     beq        +0x2A /* 0000460A */
000045E2  0442 0010                subi.w     D2, 0x10
000045E6  6730                     beq        +0x32 /* 00004618 */
000045E8  0442 0020                subi.w     D2, 0x20 /* ' ' */
000045EC  6720                     beq        +0x22 /* 0000460E */
000045EE  6030                     bra        +0x32 /* 00004620 */
label000045F0:
000045F0  7E01                     moveq.l    D7, 0x01
000045F2  602C                     bra        +0x2E /* 00004620 */
label000045F4:
000045F4  7E02                     moveq.l    D7, 0x02
000045F6  6028                     bra        +0x2A /* 00004620 */
label000045F8:
000045F8  7E03                     moveq.l    D7, 0x03
000045FA  6024                     bra        +0x26 /* 00004620 */
label000045FC:
000045FC  2D7C 434E 544C FDF0      move.l     [A6 - 0x210], 0x434E544C /* 'CNTL' */
00004604  601A                     bra        +0x1C /* 00004620 */
label00004606:
00004606  7E04                     moveq.l    D7, 0x04
00004608  6016                     bra        +0x18 /* 00004620 */
label0000460A:
0000460A  7E05                     moveq.l    D7, 0x05
0000460C  6012                     bra        +0x14 /* 00004620 */
label0000460E:
0000460E  2D7C 5049 4354 FDF0      move.l     [A6 - 0x210], 0x50494354 /* 'PICT' */
00004616  6008                     bra        +0xA /* 00004620 */
label00004618:
00004618  2D7C 4943 4F4E FDF0      move.l     [A6 - 0x210], 0x49434F4E /* 'ICON' */
label00004620:
00004620  4A05                     tst.b      D5
00004622  6718                     beq        +0x1A /* 0000463C */
00004624  4A47                     tst.w      D7
00004626  6F14                     ble        +0x16 /* 0000463C */
00004628  3F07                     move.w     -[A7], D7
0000462A  3F3C 0598                move.w     -[A7], 0x598
0000462E  2F0B                     move.l     -[A7], A3
00004630  4EBA BA38                jsr        [PC - 0x45C8 /* 0000006A */]
00004634  2F0B                     move.l     -[A7], A3
00004636  4EBA 465E                jsr        [PC + 0x465E /* 00008C96 */]
0000463A  584F                     addq.w     A7, 4
label0000463C:
0000463C  4AAE FDF0                tst.l      [A6 - 0x210]
00004640  6712                     beq        +0x14 /* 00004654 */
00004642  558F                     subq.l     A7, 2
00004644  2054                     movea.l    A0, [A4]
00004646  3F28 0110                move.w     -[A7], [A0 + 0x110]
0000464A  2F2E FDF0                move.l     -[A7], [A6 - 0x210]
0000464E  4EBA BB4E                jsr        [PC - 0x44B2 /* 0000019E */]
00004652  369F                     move.w     [A3], [A7]+
label00004654:
00004654  2F0B                     move.l     -[A7], A3
00004656  7000                     moveq.l    D0, 0x00
00004658  1004                     move.b     D0, D4
0000465A  2F00                     move.l     -[A7], D0
0000465C  41EE FE00                lea.l      A0, [A6 - 0x200]
00004660  2F20                     move.l     -[A7], -[A0]
00004662  2F20                     move.l     -[A7], -[A0]
00004664  2F0C                     move.l     -[A7], A4
00004666  4EBA 1CEE                jsr        [PC + 0x1CEE /* 00006356 */]
0000466A  2F0C                     move.l     -[A7], A4
0000466C  4EBA C022                jsr        [PC - 0x3FDE /* 00000690 */]
00004670  7E01                     moveq.l    D7, 0x01
00004672  4FEF 0018                lea.l      A7, [A7 + 0x18]
00004676  602C                     bra        +0x2E /* 000046A4 */
label00004678:
00004678  486E FDF8                pea.l      [A6 - 0x208]
0000467C  486E FDF4                pea.l      [A6 - 0x20C]
00004680  486E FDEE                pea.l      [A6 - 0x212]
00004684  48C7                     ext.l      D7
00004686  2F07                     move.l     -[A7], D7
00004688  2054                     movea.l    A0, [A4]
0000468A  2F28 0104                move.l     -[A7], [A0 + 0x104]
0000468E  4EBA 43B8                jsr        [PC + 0x43B8 /* 00008A48 */]
00004692  48C7                     ext.l      D7
00004694  2F07                     move.l     -[A7], D7
00004696  2F0C                     move.l     -[A7], A4
00004698  4EBA EA28                jsr        [PC - 0x15D8 /* 000030C2 */]
0000469C  4FEF 001C                lea.l      A7, [A7 + 0x1C]
000046A0  3007                     move.w     D0, D7
000046A2  5247                     addq.w     D7, 1
label000046A4:
000046A4  BC47                     cmp.w      D6, D7
000046A6  6ED0                     bgt        -0x2E /* 00004678 */
000046A8  2054                     movea.l    A0, [A4]
000046AA  3028 0150                move.w     D0, [A0 + 0x150]
000046AE  48C0                     ext.l      D0
000046B0  2F00                     move.l     -[A7], D0
000046B2  2F0C                     move.l     -[A7], A4
000046B4  4EBA EA0C                jsr        [PC - 0x15F4 /* 000030C2 */]
000046B8  7000                     moveq.l    D0, 0x00
000046BA  2F00                     move.l     -[A7], D0
000046BC  2F0C                     move.l     -[A7], A4
000046BE  4EBA 02A4                jsr        [PC + 0x2A4 /* 00004964 */]
000046C2  2054                     movea.l    A0, [A4]
000046C4  4268 01D0                clr.w      [A0 + 0x1D0]
000046C8  4FEF 0010                lea.l      A7, [A7 + 0x10]
000046CC  4CEE 18F0 FDD6           movem.l    D4,D5,D6,D7,A3,A4, [A6 - 0x22A]
000046D2  4E5E                     unlink     A6
000046D4  4E75                     rts
fn000046D6:
000046D6  4E56 FFF6                link       A6, -0x000A
000046DA  48E7 0F18                movem.l    -[A7], D4,D5,D6,D7,A3,A4
000046DE  286E 0008                movea.l    A4, [A6 + 0x8]
000046E2  204C                     movea.l    A0, A4
000046E4  A069                     syscall    HGetState
000046E6  1D40 FFF7                move.b     [A6 - 0x9], D0
000046EA  206E 0010                movea.l    A0, [A6 + 0x10]
000046EE  7E00                     moveq.l    D7, 0x00
000046F0  1E10                     move.b     D7, [A0]
000046F2  48C7                     ext.l      D7
000046F4  2F07                     move.l     -[A7], D7
000046F6  4EBA 43BA                jsr        [PC + 0x43BA /* 00008AB2 */]
000046FA  4A00                     tst.b      D0
000046FC  584F                     addq.w     A7, 4
000046FE  670C                     beq        +0xE /* 0000470C */
00004700  3007                     move.w     D0, D7
00004702  5247                     addq.w     D7, 1
00004704  206E 0010                movea.l    A0, [A6 + 0x10]
00004708  4230 7000                clr.b      [A0 + D7.w]
label0000470C:
0000470C  0C47 00F0                cmpi.w     D7, 0xF0
00004710  6F04                     ble        +0x6 /* 00004716 */
00004712  3E3C 00F0                move.w     D7, 0xF0
label00004716:
00004716  7A01                     moveq.l    D5, 0x01
00004718  486E FFFC                pea.l      [A6 - 0x4]
0000471C  486E FFF8                pea.l      [A6 - 0x8]
00004720  302E 000E                move.w     D0, [A6 + 0xE]
00004724  48C0                     ext.l      D0
00004726  2F00                     move.l     -[A7], D0
00004728  2F0C                     move.l     -[A7], A4
0000472A  4EBA 4256                jsr        [PC + 0x4256 /* 00008982 */]
0000472E  2054                     movea.l    A0, [A4]
00004730  202E FFF8                move.l     D0, [A6 - 0x8]
00004734  47F0 0800                lea.l      A3, [A0 + D0]
00004738  7800                     moveq.l    D4, 0x00
0000473A  182B 000D                move.b     D4, [A3 + 0xD]
0000473E  48C4                     ext.l      D4
00004740  2F04                     move.l     -[A7], D4
00004742  4EBA 436E                jsr        [PC + 0x436E /* 00008AB2 */]
00004746  4A00                     tst.b      D0
00004748  4FEF 0014                lea.l      A7, [A7 + 0x14]
0000474C  6704                     beq        +0x6 /* 00004752 */
0000474E  3004                     move.w     D0, D4
00004750  5244                     addq.w     D4, 1
label00004752:
00004752  3C07                     move.w     D6, D7
00004754  9C44                     sub.w      D6, D4
00004756  4A46                     tst.w      D6
00004758  6700 00CA                beq        +0xCC /* 00004824 */
0000475C  204C                     movea.l    A0, A4
0000475E  A02A                     syscall    HUnlock
00004760  598F                     subq.l     A7, 4
00004762  2F0C                     move.l     -[A7], A4
00004764  4EBA 4582                jsr        [PC + 0x4582 /* 00008CE8 */]
00004768  281F                     move.l     D4, [A7]+
0000476A  3014                     move.w     D0, [A4]
0000476C  48C0                     ext.l      D0
0000476E  5280                     addq.l     D0, 1
00004770  322E 000E                move.w     D1, [A6 + 0xE]
00004774  48C1                     ext.l      D1
00004776  B081                     cmp.l      D0, D1
00004778  6624                     bne        +0x26 /* 0000479E */
0000477A  204C                     movea.l    A0, A4
0000477C  48C6                     ext.l      D6
0000477E  2004                     move.l     D0, D4
00004780  D086                     add.l      D0, D6
00004782  A024                     syscall    SetHandleSize
00004784  558F                     subq.l     A7, 2
00004786  3F38 0220                move.w     -[A7], [0x00000220 /* MemErr */]
0000478A  7000                     moveq.l    D0, 0x00
0000478C  3F00                     move.w     -[A7], D0
0000478E  4EBA B9BA                jsr        [PC - 0x4646 /* 0000014A */]
00004792  4A1F                     tst.b      [A7]+
00004794  6600 008E                bne        +0x90 /* 00004824 */
00004798  4205                     clr.b      D5
0000479A  6000 0088                bra        +0x8A /* 00004824 */
label0000479E:
0000479E  4A46                     tst.w      D6
000047A0  6F1E                     ble        +0x20 /* 000047C0 */
000047A2  204C                     movea.l    A0, A4
000047A4  48C6                     ext.l      D6
000047A6  2004                     move.l     D0, D4
000047A8  D086                     add.l      D0, D6
000047AA  A024                     syscall    SetHandleSize
000047AC  558F                     subq.l     A7, 2
000047AE  3F38 0220                move.w     -[A7], [0x00000220 /* MemErr */]
000047B2  7000                     moveq.l    D0, 0x00
000047B4  3F00                     move.w     -[A7], D0
000047B6  4EBA B992                jsr        [PC - 0x466E /* 0000014A */]
000047BA  4A1F                     tst.b      [A7]+
000047BC  6602                     bne        +0x4 /* 000047C0 */
000047BE  4205                     clr.b      D5
label000047C0:
000047C0  4A05                     tst.b      D5
000047C2  673E                     beq        +0x40 /* 00004802 */
000047C4  486E FFFC                pea.l      [A6 - 0x4]
000047C8  486E FFF8                pea.l      [A6 - 0x8]
000047CC  302E 000E                move.w     D0, [A6 + 0xE]
000047D0  48C0                     ext.l      D0
000047D2  5280                     addq.l     D0, 1
000047D4  2F00                     move.l     -[A7], D0
000047D6  2F0C                     move.l     -[A7], A4
000047D8  4EBA 41A8                jsr        [PC + 0x41A8 /* 00008982 */]
000047DC  2004                     move.l     D0, D4
000047DE  90AE FFF8                sub.l      D0, [A6 - 0x8]
000047E2  2F00                     move.l     -[A7], D0
000047E4  48C6                     ext.l      D6
000047E6  2006                     move.l     D0, D6
000047E8  D0AE FFF8                add.l      D0, [A6 - 0x8]
000047EC  2054                     movea.l    A0, [A4]
000047EE  4870 0800                pea.l      [A0 + D0]
000047F2  202E FFF8                move.l     D0, [A6 - 0x8]
000047F6  4870 0800                pea.l      [A0 + D0]
000047FA  4EBA 421A                jsr        [PC + 0x421A /* 00008A16 */]
000047FE  4FEF 001C                lea.l      A7, [A7 + 0x1C]
label00004802:
00004802  4A46                     tst.w      D6
00004804  6C1E                     bge        +0x20 /* 00004824 */
00004806  204C                     movea.l    A0, A4
00004808  48C6                     ext.l      D6
0000480A  2004                     move.l     D0, D4
0000480C  D086                     add.l      D0, D6
0000480E  A024                     syscall    SetHandleSize
00004810  558F                     subq.l     A7, 2
00004812  3F38 0220                move.w     -[A7], [0x00000220 /* MemErr */]
00004816  7000                     moveq.l    D0, 0x00
00004818  3F00                     move.w     -[A7], D0
0000481A  4EBA B92E                jsr        [PC - 0x46D2 /* 0000014A */]
0000481E  4A1F                     tst.b      [A7]+
00004820  6602                     bne        +0x4 /* 00004824 */
00004822  4205                     clr.b      D5
label00004824:
00004824  4A05                     tst.b      D5
00004826  6738                     beq        +0x3A /* 00004860 */
00004828  486E FFFC                pea.l      [A6 - 0x4]
0000482C  486E FFF8                pea.l      [A6 - 0x8]
00004830  302E 000E                move.w     D0, [A6 + 0xE]
00004834  48C0                     ext.l      D0
00004836  2F00                     move.l     -[A7], D0
00004838  2F0C                     move.l     -[A7], A4
0000483A  4EBA 4146                jsr        [PC + 0x4146 /* 00008982 */]
0000483E  2054                     movea.l    A0, [A4]
00004840  202E FFF8                move.l     D0, [A6 - 0x8]
00004844  47F0 0800                lea.l      A3, [A0 + D0]
00004848  48C7                     ext.l      D7
0000484A  2007                     move.l     D0, D7
0000484C  5280                     addq.l     D0, 1
0000484E  2F00                     move.l     -[A7], D0
00004850  486B 000D                pea.l      [A3 + 0xD]
00004854  2F2E 0010                move.l     -[A7], [A6 + 0x10]
00004858  4EBA 41BC                jsr        [PC + 0x41BC /* 00008A16 */]
0000485C  4FEF 001C                lea.l      A7, [A7 + 0x1C]
label00004860:
00004860  204C                     movea.l    A0, A4
00004862  102E FFF7                move.b     D0, [A6 - 0x9]
00004866  A06A                     syscall    HSetState
00004868  4CEE 18F0 FFDE           movem.l    D4,D5,D6,D7,A3,A4, [A6 - 0x22]
0000486E  4E5E                     unlink     A6
00004870  4E75                     rts
fn00004872:
00004872  4E56 0000                link       A6, 0
00004876  48E7 0308                movem.l    -[A7], D6,D7,A4
0000487A  286E 0008                movea.l    A4, [A6 + 0x8]
0000487E  2054                     movea.l    A0, [A4]
00004880  4A28 01CB                tst.b      [A0 + 0x1CB]
00004884  6746                     beq        +0x48 /* 000048CC */
00004886  4228 01CB                clr.b      [A0 + 0x1CB]
0000488A  7E01                     moveq.l    D7, 0x01
0000488C  601E                     bra        +0x20 /* 000048AC */
label0000488E:
0000488E  7000                     moveq.l    D0, 0x00
00004890  2F00                     move.l     -[A7], D0
00004892  7201                     moveq.l    D1, 0x01
00004894  2F01                     move.l     -[A7], D1
00004896  2F01                     move.l     -[A7], D1
00004898  2F00                     move.l     -[A7], D0
0000489A  48C7                     ext.l      D7
0000489C  2F07                     move.l     -[A7], D7
0000489E  2F0C                     move.l     -[A7], A4
000048A0  4EBA 0F76                jsr        [PC + 0xF76 /* 00005818 */]
000048A4  4FEF 0018                lea.l      A7, [A7 + 0x18]
000048A8  3007                     move.w     D0, D7
000048AA  5247                     addq.w     D7, 1
label000048AC:
000048AC  2054                     movea.l    A0, [A4]
000048AE  BE68 0150                cmp.w      D7, [A0 + 0x150]
000048B2  6FDA                     ble        -0x24 /* 0000488E */
000048B4  2F0C                     move.l     -[A7], A4
000048B6  4EBA 404C                jsr        [PC + 0x404C /* 00008904 */]
000048BA  2054                     movea.l    A0, [A4]
000048BC  2F28 0130                move.l     -[A7], [A0 + 0x130]
000048C0  7001                     moveq.l    D0, 0x01
000048C2  3F00                     move.w     -[A7], D0
000048C4  A939                     syscall    EnableItem
000048C6  584F                     addq.w     A7, 4
000048C8  6000 0090                bra        +0x92 /* 0000495A */
label000048CC:
000048CC  2054                     movea.l    A0, [A4]
000048CE  4A68 01CC                tst.w      [A0 + 0x1CC]
000048D2  6738                     beq        +0x3A /* 0000490C */
000048D4  7002                     moveq.l    D0, 0x02
000048D6  B068 01CC                cmp.w      D0, [A0 + 0x1CC]
000048DA  6610                     bne        +0x12 /* 000048EC */
000048DC  558F                     subq.l     A7, 2
000048DE  3F3C 059C                move.w     -[A7], 0x59C
000048E2  487A 0BEE                pea.l      [PC + 0xBEE /* 000054D2, value 0x4E560000 'NV\0\0', cstring "NV" */]
000048E6  A985                     syscall    Alert
000048E8  3C1F                     move.w     D6, [A7]+
000048EA  6018                     bra        +0x1A /* 00004904 */
label000048EC:
000048EC  2054                     movea.l    A0, [A4]
000048EE  7001                     moveq.l    D0, 0x01
000048F0  B068 01CC                cmp.w      D0, [A0 + 0x1CC]
000048F4  660E                     bne        +0x10 /* 00004904 */
000048F6  558F                     subq.l     A7, 2
000048F8  3F3C 059D                move.w     -[A7], 0x59D
000048FC  487A 0BD4                pea.l      [PC + 0xBD4 /* 000054D2, value 0x4E560000 'NV\0\0', cstring "NV" */]
00004900  A985                     syscall    Alert
00004902  3C1F                     move.w     D6, [A7]+
label00004904:
00004904  3006                     move.w     D0, D6
00004906  5340                     subq.w     D0, 1
00004908  6750                     beq        +0x52 /* 0000495A */
0000490A  5340                     subq.w     D0, 1
label0000490C:
0000490C  2054                     movea.l    A0, [A4]
0000490E  117C 0001 01CB           move.b     [A0 + 0x1CB], 0x1
00004914  2F0C                     move.l     -[A7], A4
00004916  4EBA BD78                jsr        [PC - 0x4288 /* 00000690 */]
0000491A  7E01                     moveq.l    D7, 0x01
0000491C  584F                     addq.w     A7, 4
0000491E  601E                     bra        +0x20 /* 0000493E */
label00004920:
00004920  7000                     moveq.l    D0, 0x00
00004922  2F00                     move.l     -[A7], D0
00004924  7201                     moveq.l    D1, 0x01
00004926  2F01                     move.l     -[A7], D1
00004928  2F01                     move.l     -[A7], D1
0000492A  2F00                     move.l     -[A7], D0
0000492C  48C7                     ext.l      D7
0000492E  2F07                     move.l     -[A7], D7
00004930  2F0C                     move.l     -[A7], A4
00004932  4EBA 0EE4                jsr        [PC + 0xEE4 /* 00005818 */]
00004936  4FEF 0018                lea.l      A7, [A7 + 0x18]
0000493A  3007                     move.w     D0, D7
0000493C  5247                     addq.w     D7, 1
label0000493E:
0000493E  2054                     movea.l    A0, [A4]
00004940  BE68 0150                cmp.w      D7, [A0 + 0x150]
00004944  6FDA                     ble        -0x24 /* 00004920 */
00004946  2F0C                     move.l     -[A7], A4
00004948  4EBA 3DB6                jsr        [PC + 0x3DB6 /* 00008700 */]
0000494C  2054                     movea.l    A0, [A4]
0000494E  2F28 0130                move.l     -[A7], [A0 + 0x130]
00004952  7001                     moveq.l    D0, 0x01
00004954  3F00                     move.w     -[A7], D0
00004956  A93A                     syscall    DisableItem
00004958  584F                     addq.w     A7, 4
label0000495A:
0000495A  4CEE 10C0 FFF4           movem.l    D6,D7,A4, [A6 - 0xC]
00004960  4E5E                     unlink     A6
00004962  4E75                     rts
fn00004964:
00004964  4E56 FFE8                link       A6, -0x0018
00004968  48E7 1F18                movem.l    -[A7], D3,D4,D5,D6,D7,A3,A4
0000496C  266E 0008                movea.l    A3, [A6 + 0x8]
00004970  2053                     movea.l    A0, [A3]
00004972  3D68 0150 FFEA           move.w     [A6 - 0x16], [A0 + 0x150]
00004978  2F0B                     move.l     -[A7], A3
0000497A  4EBA 3F88                jsr        [PC + 0x3F88 /* 00008904 */]
0000497E  2053                     movea.l    A0, [A3]
00004980  4A68 01CC                tst.w      [A0 + 0x1CC]
00004984  584F                     addq.w     A7, 4
00004986  660A                     bne        +0xC /* 00004992 */
00004988  2F28 0130                move.l     -[A7], [A0 + 0x130]
0000498C  7001                     moveq.l    D0, 0x01
0000498E  3F00                     move.w     -[A7], D0
00004990  A939                     syscall    EnableItem
label00004992:
00004992  2053                     movea.l    A0, [A3]
00004994  4228 01CB                clr.b      [A0 + 0x1CB]
00004998  2053                     movea.l    A0, [A3]
0000499A  4A68 01CE                tst.w      [A0 + 0x1CE]
0000499E  6620                     bne        +0x22 /* 000049C0 */
000049A0  4A2E 000F                tst.b      [A6 + 0xF]
000049A4  661A                     bne        +0x1C /* 000049C0 */
000049A6  7006                     moveq.l    D0, 0x06
000049A8  2F00                     move.l     -[A7], D0
000049AA  2F0B                     move.l     -[A7], A3
000049AC  4EBA 1F16                jsr        [PC + 0x1F16 /* 000068C4 */]
000049B0  7002                     moveq.l    D0, 0x02
000049B2  3F00                     move.w     -[A7], D0
000049B4  7204                     moveq.l    D1, 0x04
000049B6  3F01                     move.w     -[A7], D1
000049B8  2F0B                     move.l     -[A7], A3
000049BA  4EBA B73A                jsr        [PC - 0x48C6 /* 000000F6 */]
000049BE  504F                     addq.w     A7, 8
label000049C0:
000049C0  2053                     movea.l    A0, [A3]
000049C2  2D68 0120 FFEC           move.l     [A6 - 0x14], [A0 + 0x120]
000049C8  558F                     subq.l     A7, 2
000049CA  486E FFEC                pea.l      [A6 - 0x14]
000049CE  4EBA 4326                jsr        [PC + 0x4326 /* 00008CF6 */]
000049D2  558F                     subq.l     A7, 2
000049D4  3F38 0220                move.w     -[A7], [0x00000220 /* MemErr */]
000049D8  7000                     moveq.l    D0, 0x00
000049DA  3F00                     move.w     -[A7], D0
000049DC  4EBA B76C                jsr        [PC - 0x4894 /* 0000014A */]
000049E0  4A1F                     tst.b      [A7]+
000049E2  544F                     addq.w     A7, 2
000049E4  6700 01B8                beq        +0x1BA /* 00004B9E */
000049E8  2053                     movea.l    A0, [A3]
000049EA  2068 0120                movea.l    A0, [A0 + 0x120]
000049EE  A069                     syscall    HGetState
000049F0  1D40 FFE9                move.b     [A6 - 0x17], D0
000049F4  2053                     movea.l    A0, [A3]
000049F6  2068 0120                movea.l    A0, [A0 + 0x120]
000049FA  A029                     syscall    HLock
000049FC  206E FFEC                movea.l    A0, [A6 - 0x14]
00004A00  A029                     syscall    HLock
00004A02  2053                     movea.l    A0, [A3]
00004A04  2068 015E                movea.l    A0, [A0 + 0x15E]
00004A08  2D50 FFF0                move.l     [A6 - 0x10], [A0]
00004A0C  7E02                     moveq.l    D7, 0x02
00004A0E  7801                     moveq.l    D4, 0x01
00004A10  6000 0084                bra        +0x86 /* 00004A96 */
label00004A14:
00004A14  7C01                     moveq.l    D6, 0x01
00004A16  6074                     bra        +0x76 /* 00004A8C */
label00004A18:
00004A18  48C6                     ext.l      D6
00004A1A  206E FFF0                movea.l    A0, [A6 - 0x10]
00004A1E  2006                     move.l     D0, D6
00004A20  E580                     asl        D0, 2
00004A22  B870 0800                cmp.w      D4, [A0 + D0]
00004A26  6660                     bne        +0x62 /* 00004A88 */
00004A28  486E FFFC                pea.l      [A6 - 0x4]
00004A2C  486E FFF8                pea.l      [A6 - 0x8]
00004A30  48C6                     ext.l      D6
00004A32  2F06                     move.l     -[A7], D6
00004A34  2053                     movea.l    A0, [A3]
00004A36  2F28 0120                move.l     -[A7], [A0 + 0x120]
00004A3A  4EBA 3F46                jsr        [PC + 0x3F46 /* 00008982 */]
00004A3E  2053                     movea.l    A0, [A3]
00004A40  2068 0120                movea.l    A0, [A0 + 0x120]
00004A44  2050                     movea.l    A0, [A0]
00004A46  202E FFF8                move.l     D0, [A6 - 0x8]
00004A4A  49F0 0800                lea.l      A4, [A0 + D0]
00004A4E  206E FFEC                movea.l    A0, [A6 - 0x14]
00004A52  2050                     movea.l    A0, [A0]
00004A54  D1C7                     add.l      A0, D7
00004A56  2D48 FFF4                move.l     [A6 - 0xC], A0
00004A5A  7000                     moveq.l    D0, 0x00
00004A5C  102C 000D                move.b     D0, [A4 + 0xD]
00004A60  D07C 000E                add.w      D0, 0xE
00004A64  48C0                     ext.l      D0
00004A66  2A00                     move.l     D5, D0
00004A68  2F05                     move.l     -[A7], D5
00004A6A  2F08                     move.l     -[A7], A0
00004A6C  2F0C                     move.l     -[A7], A4
00004A6E  4EBA 3FA6                jsr        [PC + 0x3FA6 /* 00008A16 */]
00004A72  DE85                     add.l      D7, D5
00004A74  2F07                     move.l     -[A7], D7
00004A76  4EBA 403A                jsr        [PC + 0x403A /* 00008AB2 */]
00004A7A  4A00                     tst.b      D0
00004A7C  4FEF 0020                lea.l      A7, [A7 + 0x20]
00004A80  6710                     beq        +0x12 /* 00004A92 */
00004A82  2007                     move.l     D0, D7
00004A84  5287                     addq.l     D7, 1
00004A86  600A                     bra        +0xC /* 00004A92 */
label00004A88:
00004A88  3006                     move.w     D0, D6
00004A8A  5246                     addq.w     D6, 1
label00004A8C:
00004A8C  BC6E FFEA                cmp.w      D6, [A6 - 0x16]
00004A90  6F86                     ble        -0x78 /* 00004A18 */
label00004A92:
00004A92  3004                     move.w     D0, D4
00004A94  5244                     addq.w     D4, 1
label00004A96:
00004A96  2053                     movea.l    A0, [A3]
00004A98  B868 0152                cmp.w      D4, [A0 + 0x152]
00004A9C  6F00 FF76                ble        -0x88 /* 00004A14 */
00004AA0  7801                     moveq.l    D4, 0x01
00004AA2  6072                     bra        +0x74 /* 00004B16 */
label00004AA4:
00004AA4  48C4                     ext.l      D4
00004AA6  206E FFF0                movea.l    A0, [A6 - 0x10]
00004AAA  2004                     move.l     D0, D4
00004AAC  E580                     asl        D0, 2
00004AAE  4A70 0800                tst.w      [A0 + D0]
00004AB2  665E                     bne        +0x60 /* 00004B12 */
00004AB4  486E FFFC                pea.l      [A6 - 0x4]
00004AB8  486E FFF8                pea.l      [A6 - 0x8]
00004ABC  48C4                     ext.l      D4
00004ABE  2F04                     move.l     -[A7], D4
00004AC0  2053                     movea.l    A0, [A3]
00004AC2  2F28 0120                move.l     -[A7], [A0 + 0x120]
00004AC6  4EBA 3EBA                jsr        [PC + 0x3EBA /* 00008982 */]
00004ACA  2053                     movea.l    A0, [A3]
00004ACC  2068 0120                movea.l    A0, [A0 + 0x120]
00004AD0  2050                     movea.l    A0, [A0]
00004AD2  202E FFF8                move.l     D0, [A6 - 0x8]
00004AD6  49F0 0800                lea.l      A4, [A0 + D0]
00004ADA  206E FFEC                movea.l    A0, [A6 - 0x14]
00004ADE  2050                     movea.l    A0, [A0]
00004AE0  D1C7                     add.l      A0, D7
00004AE2  2D48 FFF4                move.l     [A6 - 0xC], A0
00004AE6  7000                     moveq.l    D0, 0x00
00004AE8  102C 000D                move.b     D0, [A4 + 0xD]
00004AEC  D07C 000E                add.w      D0, 0xE
00004AF0  48C0                     ext.l      D0
00004AF2  2A00                     move.l     D5, D0
00004AF4  2F05                     move.l     -[A7], D5
00004AF6  2F08                     move.l     -[A7], A0
00004AF8  2F0C                     move.l     -[A7], A4
00004AFA  4EBA 3F1A                jsr        [PC + 0x3F1A /* 00008A16 */]
00004AFE  DE85                     add.l      D7, D5
00004B00  2F07                     move.l     -[A7], D7
00004B02  4EBA 3FAE                jsr        [PC + 0x3FAE /* 00008AB2 */]
00004B06  4A00                     tst.b      D0
00004B08  4FEF 0020                lea.l      A7, [A7 + 0x20]
00004B0C  6704                     beq        +0x6 /* 00004B12 */
00004B0E  2007                     move.l     D0, D7
00004B10  5287                     addq.l     D7, 1
label00004B12:
00004B12  3004                     move.w     D0, D4
00004B14  5244                     addq.w     D4, 1
label00004B16:
00004B16  B86E FFEA                cmp.w      D4, [A6 - 0x16]
00004B1A  6F88                     ble        -0x76 /* 00004AA4 */
00004B1C  7801                     moveq.l    D4, 0x01
00004B1E  603E                     bra        +0x40 /* 00004B5E */
label00004B20:
00004B20  7000                     moveq.l    D0, 0x00
00004B22  2F00                     move.l     -[A7], D0
00004B24  7201                     moveq.l    D1, 0x01
00004B26  2F01                     move.l     -[A7], D1
00004B28  2F01                     move.l     -[A7], D1
00004B2A  2F01                     move.l     -[A7], D1
00004B2C  48C4                     ext.l      D4
00004B2E  2F04                     move.l     -[A7], D4
00004B30  2F0B                     move.l     -[A7], A3
00004B32  4EBA 0CE4                jsr        [PC + 0xCE4 /* 00005818 */]
00004B36  2053                     movea.l    A0, [A3]
00004B38  B868 0152                cmp.w      D4, [A0 + 0x152]
00004B3C  5FC3                     sle        D3
00004B3E  4403                     neg.b      D3
00004B40  6704                     beq        +0x6 /* 00004B46 */
00004B42  3004                     move.w     D0, D4
00004B44  6002                     bra        +0x4 /* 00004B48 */
label00004B46:
00004B46  7000                     moveq.l    D0, 0x00
label00004B48:
00004B48  48C4                     ext.l      D4
00004B4A  206E FFF0                movea.l    A0, [A6 - 0x10]
00004B4E  2204                     move.l     D1, D4
00004B50  E581                     asl        D1, 2
00004B52  3180 1800                move.w     [A0 + D1], D0
00004B56  4FEF 0018                lea.l      A7, [A7 + 0x18]
00004B5A  3004                     move.w     D0, D4
00004B5C  5244                     addq.w     D4, 1
label00004B5E:
00004B5E  B86E FFEA                cmp.w      D4, [A6 - 0x16]
00004B62  6FBC                     ble        -0x42 /* 00004B20 */
00004B64  2F07                     move.l     -[A7], D7
00004B66  2053                     movea.l    A0, [A3]
00004B68  2068 0120                movea.l    A0, [A0 + 0x120]
00004B6C  2F10                     move.l     -[A7], [A0]
00004B6E  206E FFEC                movea.l    A0, [A6 - 0x14]
00004B72  2F10                     move.l     -[A7], [A0]
00004B74  4EBA 3EA0                jsr        [PC + 0x3EA0 /* 00008A16 */]
00004B78  2053                     movea.l    A0, [A3]
00004B7A  2068 0120                movea.l    A0, [A0 + 0x120]
00004B7E  102E FFE9                move.b     D0, [A6 - 0x17]
00004B82  A06A                     syscall    HSetState
00004B84  206E FFEC                movea.l    A0, [A6 - 0x14]
00004B88  A023                     syscall    DisposHandle/DisposeHandle
00004B8A  7000                     moveq.l    D0, 0x00
00004B8C  2F00                     move.l     -[A7], D0
00004B8E  2F0B                     move.l     -[A7], A3
00004B90  4EBA 34FC                jsr        [PC + 0x34FC /* 0000808E */]
00004B94  2F0B                     move.l     -[A7], A3
00004B96  4EBA BAF8                jsr        [PC - 0x4508 /* 00000690 */]
00004B9A  4FEF 0018                lea.l      A7, [A7 + 0x18]
label00004B9E:
00004B9E  4CEE 18F8 FFCC           movem.l    D3,D4,D5,D6,D7,A3,A4, [A6 - 0x34]
00004BA4  4E5E                     unlink     A6
00004BA6  4E75                     rts
fn00004BA8:
00004BA8  4E56 FFF2                link       A6, -0x000E
00004BAC  48E7 0108                movem.l    -[A7], D7,A4
00004BB0  286E 0008                movea.l    A4, [A6 + 0x8]
00004BB4  2F0C                     move.l     -[A7], A4
00004BB6  4EBA BAD8                jsr        [PC - 0x4528 /* 00000690 */]
00004BBA  7E01                     moveq.l    D7, 0x01
00004BBC  584F                     addq.w     A7, 4
00004BBE  603C                     bra        +0x3E /* 00004BFC */
label00004BC0:
00004BC0  486E FFF8                pea.l      [A6 - 0x8]
00004BC4  486E FFF4                pea.l      [A6 - 0xC]
00004BC8  486E FFF2                pea.l      [A6 - 0xE]
00004BCC  48C7                     ext.l      D7
00004BCE  2F07                     move.l     -[A7], D7
00004BD0  2054                     movea.l    A0, [A4]
00004BD2  2F28 0104                move.l     -[A7], [A0 + 0x104]
00004BD6  4EBA 3E70                jsr        [PC + 0x3E70 /* 00008A48 */]
00004BDA  303C FF7F                move.w     D0, 0xFF7F
00004BDE  C06E FFF2                and.w      D0, [A6 - 0xE]
00004BE2  0C40 0001                cmpi.w     D0, 0x1
00004BE6  4FEF 0014                lea.l      A7, [A7 + 0x14]
00004BEA  670C                     beq        +0xE /* 00004BF8 */
00004BEC  48C7                     ext.l      D7
00004BEE  2F07                     move.l     -[A7], D7
00004BF0  2F0C                     move.l     -[A7], A4
00004BF2  4EBA E4CE                jsr        [PC - 0x1B32 /* 000030C2 */]
00004BF6  504F                     addq.w     A7, 8
label00004BF8:
00004BF8  3007                     move.w     D0, D7
00004BFA  5247                     addq.w     D7, 1
label00004BFC:
00004BFC  2054                     movea.l    A0, [A4]
00004BFE  BE68 0150                cmp.w      D7, [A0 + 0x150]
00004C02  6FBC                     ble        -0x42 /* 00004BC0 */
00004C04  4CEE 1080 FFEA           movem.l    D7,A4, [A6 - 0x16]
00004C0A  4E5E                     unlink     A6
00004C0C  4E75                     rts
fn00004C0E:
00004C0E  4E56 0000                link       A6, 0
00004C12  2F0C                     move.l     -[A7], A4
00004C14  286E 0008                movea.l    A4, [A6 + 0x8]
00004C18  558F                     subq.l     A7, 2
00004C1A  2054                     movea.l    A0, [A4]
00004C1C  2F28 0104                move.l     -[A7], [A0 + 0x104]
00004C20  2F28 0114                move.l     -[A7], [A0 + 0x114]
00004C24  4EBA B4DC                jsr        [PC - 0x4B24 /* 00000102 */]
00004C28  4A1F                     tst.b      [A7]+
00004C2A  6768                     beq        +0x6A /* 00004C94 */
00004C2C  558F                     subq.l     A7, 2
00004C2E  2F0C                     move.l     -[A7], A4
00004C30  2054                     movea.l    A0, [A4]
00004C32  2F28 0114                move.l     -[A7], [A0 + 0x114]
00004C36  4EBA B462                jsr        [PC - 0x4B9E /* 0000009A */]
00004C3A  4A1F                     tst.b      [A7]+
00004C3C  662E                     bne        +0x30 /* 00004C6C */
00004C3E  2054                     movea.l    A0, [A4]
00004C40  2050                     movea.l    A0, [A0]
00004C42  2050                     movea.l    A0, [A0]
00004C44  117C 0001 0108           move.b     [A0 + 0x108], 0x1
00004C4A  2054                     movea.l    A0, [A4]
00004C4C  3F28 0110                move.w     -[A7], [A0 + 0x110]
00004C50  2F28 0114                move.l     -[A7], [A0 + 0x114]
00004C54  4EBA B53C                jsr        [PC - 0x4AC4 /* 00000192 */]
00004C58  2054                     movea.l    A0, [A4]
00004C5A  7000                     moveq.l    D0, 0x00
00004C5C  2140 0114                move.l     [A0 + 0x114], D0
00004C60  2F0C                     move.l     -[A7], A4
00004C62  4EBA CDF2                jsr        [PC - 0x320E /* 00001A56 */]
00004C66  7000                     moveq.l    D0, 0x00
00004C68  584F                     addq.w     A7, 4
00004C6A  602A                     bra        +0x2C /* 00004C96 */
label00004C6C:
00004C6C  2F0C                     move.l     -[A7], A4
00004C6E  4EBA BA20                jsr        [PC - 0x45E0 /* 00000690 */]
00004C72  2054                     movea.l    A0, [A4]
00004C74  2F28 0114                move.l     -[A7], [A0 + 0x114]
00004C78  2F0C                     move.l     -[A7], A4
00004C7A  4EBA 1FBC                jsr        [PC + 0x1FBC /* 00006C38 */]
00004C7E  2054                     movea.l    A0, [A4]
00004C80  2068 0104                movea.l    A0, [A0 + 0x104]
00004C84  317C FFFF 00A4           move.w     [A0 + 0xA4], 0xFFFF
00004C8A  2054                     movea.l    A0, [A4]
00004C8C  4228 015C                clr.b      [A0 + 0x15C]
00004C90  4FEF 000C                lea.l      A7, [A7 + 0xC]
label00004C94:
00004C94  7001                     moveq.l    D0, 0x01
label00004C96:
00004C96  286E FFFC                movea.l    A4, [A6 - 0x4]
00004C9A  4E5E                     unlink     A6
00004C9C  4E75                     rts
fn00004C9E:
00004C9E  4E56 0000                link       A6, 0
00004CA2  48E7 1008                movem.l    -[A7], D3,A4
00004CA6  286E 0008                movea.l    A4, [A6 + 0x8]
00004CAA  7000                     moveq.l    D0, 0x00
00004CAC  102C 000D                move.b     D0, [A4 + 0xD]
00004CB0  D07C 000A                add.w      D0, 0xA /* '\n' */
00004CB4  48C0                     ext.l      D0
00004CB6  2F00                     move.l     -[A7], D0
00004CB8  206E 000C                movea.l    A0, [A6 + 0xC]
00004CBC  4868 0004                pea.l      [A0 + 0x4]
00004CC0  486C 0004                pea.l      [A4 + 0x4]
00004CC4  4EBA 3E3A                jsr        [PC + 0x3E3A /* 00008B00 */]
00004CC8  4A80                     tst.l      D0
00004CCA  57C3                     seq        D3
00004CCC  4403                     neg.b      D3
00004CCE  1003                     move.b     D0, D3
00004CD0  4CEE 1008 FFF8           movem.l    D3,A4, [A6 - 0x8]
00004CD6  4E5E                     unlink     A6
00004CD8  4E75                     rts
fn00004CDA:
00004CDA  4E56 0000                link       A6, 0
00004CDE  2F0C                     move.l     -[A7], A4
00004CE0  286E 0008                movea.l    A4, [A6 + 0x8]
00004CE4  2F0C                     move.l     -[A7], A4
00004CE6  4EBA 0010                jsr        [PC + 0x10 /* 00004CF8 */]
00004CEA  2F0C                     move.l     -[A7], A4
00004CEC  4EBA ED50                jsr        [PC - 0x12B0 /* 00003A3E */]
00004CF0  286E FFFC                movea.l    A4, [A6 - 0x4]
00004CF4  4E5E                     unlink     A6
00004CF6  4E75                     rts
fn00004CF8:
00004CF8  4E56 FFE6                link       A6, -0x001A
00004CFC  48E7 0F18                movem.l    -[A7], D4,D5,D6,D7,A3,A4
00004D00  266E 0008                movea.l    A3, [A6 + 0x8]
00004D04  4EBA B3D0                jsr        [PC - 0x4C30 /* 000000D6 */]
00004D08  558F                     subq.l     A7, 2
00004D0A  4EBA B3DE                jsr        [PC - 0x4C22 /* 000000EA */]
00004D0E  381F                     move.w     D4, [A7]+
00004D10  0C44 FFFF                cmpi.w     D4, 0xFFFF
00004D14  6700 010C                beq        +0x10E /* 00004E22 */
00004D18  2053                     movea.l    A0, [A3]
00004D1A  2068 0120                movea.l    A0, [A0 + 0x120]
00004D1E  A069                     syscall    HGetState
00004D20  1D40 FFE7                move.b     [A6 - 0x19], D0
00004D24  2053                     movea.l    A0, [A3]
00004D26  2068 0120                movea.l    A0, [A0 + 0x120]
00004D2A  A029                     syscall    HLock
00004D2C  7C02                     moveq.l    D6, 0x02
00004D2E  598F                     subq.l     A7, 4
00004D30  3F04                     move.w     -[A7], D4
00004D32  2F06                     move.l     -[A7], D6
00004D34  2F3C 4449 544C           move.l     -[A7], 0x4449544C /* 'DITL' */
00004D3A  4EBA B45E                jsr        [PC - 0x4BA2 /* 0000019A */]
00004D3E  285F                     movea.l    A4, [A7]+
00004D40  2054                     movea.l    A0, [A4]
00004D42  30BC FFFF                move.w     [A0], 0xFFFF
00004D46  2053                     movea.l    A0, [A3]
00004D48  2068 015E                movea.l    A0, [A0 + 0x15E]
00004D4C  2D50 FFF0                move.l     [A6 - 0x10], [A0]
00004D50  7801                     moveq.l    D4, 0x01
00004D52  6000 00A4                bra        +0xA6 /* 00004DF8 */
label00004D56:
00004D56  7E01                     moveq.l    D7, 0x01
00004D58  6000 0090                bra        +0x92 /* 00004DEA */
label00004D5C:
00004D5C  48C7                     ext.l      D7
00004D5E  206E FFF0                movea.l    A0, [A6 - 0x10]
00004D62  2007                     move.l     D0, D7
00004D64  E580                     asl        D0, 2
00004D66  B870 0800                cmp.w      D4, [A0 + D0]
00004D6A  667A                     bne        +0x7C /* 00004DE6 */
00004D6C  486E FFF4                pea.l      [A6 - 0xC]
00004D70  486E FFF8                pea.l      [A6 - 0x8]
00004D74  48C7                     ext.l      D7
00004D76  2F07                     move.l     -[A7], D7
00004D78  2053                     movea.l    A0, [A3]
00004D7A  2F28 0120                move.l     -[A7], [A0 + 0x120]
00004D7E  4EBA 3C02                jsr        [PC + 0x3C02 /* 00008982 */]
00004D82  2A06                     move.l     D5, D6
00004D84  DCAE FFF4                add.l      D6, [A6 - 0xC]
00004D88  204C                     movea.l    A0, A4
00004D8A  2006                     move.l     D0, D6
00004D8C  A024                     syscall    SetHandleSize
00004D8E  558F                     subq.l     A7, 2
00004D90  3F38 0220                move.w     -[A7], [0x00000220 /* MemErr */]
00004D94  7000                     moveq.l    D0, 0x00
00004D96  3F00                     move.w     -[A7], D0
00004D98  4EBA B3B0                jsr        [PC - 0x4C50 /* 0000014A */]
00004D9C  4A1F                     tst.b      [A7]+
00004D9E  4FEF 0010                lea.l      A7, [A7 + 0x10]
00004DA2  677E                     beq        +0x80 /* 00004E22 */
00004DA4  2054                     movea.l    A0, [A4]
00004DA6  5250                     addq.w     [A0], 1
00004DA8  2053                     movea.l    A0, [A3]
00004DAA  2068 0120                movea.l    A0, [A0 + 0x120]
00004DAE  2D50 FFE8                move.l     [A6 - 0x18], [A0]
00004DB2  2F2E FFF4                move.l     -[A7], [A6 - 0xC]
00004DB6  2054                     movea.l    A0, [A4]
00004DB8  4870 5800                pea.l      [A0 + D5]
00004DBC  206E FFE8                movea.l    A0, [A6 - 0x18]
00004DC0  202E FFF8                move.l     D0, [A6 - 0x8]
00004DC4  4870 0800                pea.l      [A0 + D0]
00004DC8  4EBA 3C4C                jsr        [PC + 0x3C4C /* 00008A16 */]
00004DCC  2005                     move.l     D0, D5
00004DCE  D094                     add.l      D0, [A4]
00004DD0  2D40 FFEC                move.l     [A6 - 0x14], D0
00004DD4  2D40 FFFC                move.l     [A6 - 0x4], D0
00004DD8  206E FFFC                movea.l    A0, [A6 - 0x4]
00004DDC  7000                     moveq.l    D0, 0x00
00004DDE  2080                     move.l     [A0], D0
00004DE0  4FEF 000C                lea.l      A7, [A7 + 0xC]
00004DE4  600E                     bra        +0x10 /* 00004DF4 */
label00004DE6:
00004DE6  3007                     move.w     D0, D7
00004DE8  5247                     addq.w     D7, 1
label00004DEA:
00004DEA  2053                     movea.l    A0, [A3]
00004DEC  BE68 0150                cmp.w      D7, [A0 + 0x150]
00004DF0  6F00 FF6A                ble        -0x94 /* 00004D5C */
label00004DF4:
00004DF4  3004                     move.w     D0, D4
00004DF6  5244                     addq.w     D4, 1
label00004DF8:
00004DF8  2053                     movea.l    A0, [A3]
00004DFA  B868 0152                cmp.w      D4, [A0 + 0x152]
00004DFE  6F00 FF56                ble        -0xA8 /* 00004D56 */
00004E02  2068 0120                movea.l    A0, [A0 + 0x120]
00004E06  102E FFE7                move.b     D0, [A6 - 0x19]
00004E0A  A06A                     syscall    HSetState
00004E0C  2F0C                     move.l     -[A7], A4
00004E0E  A9B0                     syscall    WriteResource
00004E10  2F0C                     move.l     -[A7], A4
00004E12  A9A3                     syscall    ReleaseResource
00004E14  598F                     subq.l     A7, 4
00004E16  7003                     moveq.l    D0, 0x03
00004E18  3F00                     move.w     -[A7], D0
00004E1A  A949                     syscall    GetMenuHandle
00004E1C  7005                     moveq.l    D0, 0x05
00004E1E  3F00                     move.w     -[A7], D0
00004E20  A939                     syscall    EnableItem
label00004E22:
00004E22  4CEE 18F0 FFCE           movem.l    D4,D5,D6,D7,A3,A4, [A6 - 0x32]
00004E28  4E5E                     unlink     A6
00004E2A  4E75                     rts
fn00004E2C:
00004E2C  4E56 0000                link       A6, 0
00004E30  2F07                     move.l     -[A7], D7
00004E32  3E2E 000A                move.w     D7, [A6 + 0xA]
00004E36  558F                     subq.l     A7, 2
00004E38  3F07                     move.w     -[A7], D7
00004E3A  2F3C 4449 544C           move.l     -[A7], 0x4449544C /* 'DITL' */
00004E40  4EBA B214                jsr        [PC - 0x4DEC /* 00000056 */]
00004E44  7001                     moveq.l    D0, 0x01
00004E46  B05F                     cmp.w      D0, [A7]+
00004E48  6608                     bne        +0xA /* 00004E52 */
00004E4A  203C 4449 544C           move.l     D0, 0x4449544C /* 'DITL' */
00004E50  603E                     bra        +0x40 /* 00004E90 */
label00004E52:
00004E52  558F                     subq.l     A7, 2
00004E54  3F07                     move.w     -[A7], D7
00004E56  2F3C 5049 4354           move.l     -[A7], 0x50494354 /* 'PICT' */
00004E5C  4EBA B1F8                jsr        [PC - 0x4E08 /* 00000056 */]
00004E60  7001                     moveq.l    D0, 0x01
00004E62  B05F                     cmp.w      D0, [A7]+
00004E64  6608                     bne        +0xA /* 00004E6E */
00004E66  203C 5049 4354           move.l     D0, 0x50494354 /* 'PICT' */
00004E6C  6022                     bra        +0x24 /* 00004E90 */
label00004E6E:
00004E6E  558F                     subq.l     A7, 2
00004E70  3F07                     move.w     -[A7], D7
00004E72  2F3C 4943 4F4E           move.l     -[A7], 0x49434F4E /* 'ICON' */
00004E78  4EBA B1DC                jsr        [PC - 0x4E24 /* 00000056 */]
00004E7C  7001                     moveq.l    D0, 0x01
00004E7E  B05F                     cmp.w      D0, [A7]+
00004E80  6608                     bne        +0xA /* 00004E8A */
00004E82  203C 4943 4F4E           move.l     D0, 0x49434F4E /* 'ICON' */
00004E88  6006                     bra        +0x8 /* 00004E90 */
label00004E8A:
00004E8A  203C 2020 2020           move.l     D0, 0x20202020 /* '    ' */
label00004E90:
00004E90  2E2E FFFC                move.l     D7, [A6 - 0x4]
00004E94  4E5E                     unlink     A6
00004E96  4E75                     rts
fn00004E98:
00004E98  4E56 FFFC                link       A6, -0x0004
00004E9C  48E7 0F00                movem.l    -[A7], D4,D5,D6,D7
00004EA0  2A2E 0010                move.l     D5, [A6 + 0x10]
00004EA4  3C2E 000A                move.w     D6, [A6 + 0xA]
00004EA8  558F                     subq.l     A7, 2
00004EAA  3F06                     move.w     -[A7], D6
00004EAC  2F05                     move.l     -[A7], D5
00004EAE  4EBA B2EE                jsr        [PC - 0x4D12 /* 0000019E */]
00004EB2  3E1F                     move.w     D7, [A7]+
00004EB4  2D6E 000C FFFC           move.l     [A6 - 0x4], [A6 + 0xC]
00004EBA  558F                     subq.l     A7, 2
00004EBC  486E FFFC                pea.l      [A6 - 0x4]
00004EC0  4EBA 3E34                jsr        [PC + 0x3E34 /* 00008CF6 */]
00004EC4  381F                     move.w     D4, [A7]+
00004EC6  6D16                     blt        +0x18 /* 00004EDE */
00004EC8  3F06                     move.w     -[A7], D6
00004ECA  2F2E FFFC                move.l     -[A7], [A6 - 0x4]
00004ECE  2F05                     move.l     -[A7], D5
00004ED0  3F07                     move.w     -[A7], D7
00004ED2  487A 0016                pea.l      [PC + 0x16 /* 00004EEA, value 0x4E56 'NV', cstring "" */]
00004ED6  4EBA B2E6                jsr        [PC - 0x4D1A /* 000001BE */]
00004EDA  3007                     move.w     D0, D7
00004EDC  6002                     bra        +0x4 /* 00004EE0 */
label00004EDE:
00004EDE  70FF                     moveq.l    D0, 0xFFFFFFFF
label00004EE0:
00004EE0  4CEE 00F0 FFEC           movem.l    D4,D5,D6,D7, [A6 - 0x14]
00004EE6  4E5E                     unlink     A6
00004EE8  4E75                     rts
00004EEA  0000 4E56                ori.b      D0, 0x56 /* 'V' */
// begin alternate branch 00004EEC-00004EF0
fn00004EEC:
00004EEC  4E56 FDF6                link       A6, -0x020A
// end alternate branch 00004EEC-00004EF0
fn00004EEC: // (misaligned)
00004EEE  FDF6                     .invalid   <<F/7/6>>
00004EF0  48E7 0F18                movem.l    -[A7], D4,D5,D6,D7,A3,A4
00004EF4  47EE FF00                lea.l      A3, [A6 - 0x100]
00004EF8  7005                     moveq.l    D0, 0x05
00004EFA  2F00                     move.l     -[A7], D0
00004EFC  2F2E 0008                move.l     -[A7], [A6 + 0x8]
00004F00  4EBA 19C2                jsr        [PC + 0x19C2 /* 000068C4 */]
00004F04  558F                     subq.l     A7, 2
00004F06  4EBA B1E2                jsr        [PC - 0x4E1E /* 000000EA */]
00004F0A  381F                     move.w     D4, [A7]+
00004F0C  0C44 FFFF                cmpi.w     D4, 0xFFFF
00004F10  504F                     addq.w     A7, 8
00004F12  6700 01C4                beq        +0x1C6 /* 000050D8 */
00004F16  48C4                     ext.l      D4
00004F18  2F04                     move.l     -[A7], D4
00004F1A  4EBA FF10                jsr        [PC - 0xF0 /* 00004E2C */]
00004F1E  2A00                     move.l     D5, D0
00004F20  0C85 2020 2020           cmpi.l     D5, 0x20202020 /* '    ' */
00004F26  584F                     addq.w     A7, 4
00004F28  6700 01AE                beq        +0x1B0 /* 000050D8 */
00004F2C  2F2E 0008                move.l     -[A7], [A6 + 0x8]
00004F30  4EBA B75E                jsr        [PC - 0x48A2 /* 00000690 */]
00004F34  2005                     move.l     D0, D5
00004F36  0480 4449 544C           subi.l     D0, 0x4449544C /* 'DITL' */
00004F3C  584F                     addq.w     A7, 4
00004F3E  6718                     beq        +0x1A /* 00004F58 */
00004F40  0480 04F9 FB02           subi.l     D0, 0x4F9FB02
00004F46  6700 00AE                beq        +0xB0 /* 00004FF6 */
00004F4A  0480 0705 F406           subi.l     D0, 0x705F406
00004F50  6700 00A4                beq        +0xA6 /* 00004FF6 */
00004F54  6000 0182                bra        +0x184 /* 000050D8 */
label00004F58:
00004F58  598F                     subq.l     A7, 4
00004F5A  3F04                     move.w     -[A7], D4
00004F5C  2F3C 4449 544C           move.l     -[A7], 0x4449544C /* 'DITL' */
00004F62  7001                     moveq.l    D0, 0x01
00004F64  3F00                     move.w     -[A7], D0
00004F66  4EBA B0EA                jsr        [PC - 0x4F16 /* 00000052 */]
00004F6A  205F                     movea.l    A0, [A7]+
00004F6C  2D48 FDFE                move.l     [A6 - 0x202], A0
00004F70  A029                     syscall    HLock
00004F72  206E FDFE                movea.l    A0, [A6 - 0x202]
00004F76  2050                     movea.l    A0, [A0]
00004F78  3C10                     move.w     D6, [A0]
00004F7A  5246                     addq.w     D6, 1
00004F7C  7E01                     moveq.l    D7, 0x01
00004F7E  6068                     bra        +0x6A /* 00004FE8 */
label00004F80:
00004F80  486E FDFA                pea.l      [A6 - 0x206]
00004F84  486E FDF6                pea.l      [A6 - 0x20A]
00004F88  48C7                     ext.l      D7
00004F8A  2F07                     move.l     -[A7], D7
00004F8C  2F2E FDFE                move.l     -[A7], [A6 - 0x202]
00004F90  4EBA 39F0                jsr        [PC + 0x39F0 /* 00008982 */]
00004F94  206E FDFE                movea.l    A0, [A6 - 0x202]
00004F98  2050                     movea.l    A0, [A0]
00004F9A  202E FDF6                move.l     D0, [A6 - 0x20A]
00004F9E  49F0 0800                lea.l      A4, [A0 + D0]
00004FA2  7000                     moveq.l    D0, 0x00
00004FA4  102C 000D                move.b     D0, [A4 + 0xD]
00004FA8  2F00                     move.l     -[A7], D0
00004FAA  2F0B                     move.l     -[A7], A3
00004FAC  486C 000E                pea.l      [A4 + 0xE]
00004FB0  4EBA 3A64                jsr        [PC + 0x3A64 /* 00008A16 */]
00004FB4  7000                     moveq.l    D0, 0x00
00004FB6  102C 000D                move.b     D0, [A4 + 0xD]
00004FBA  4233 0000                clr.b      [A3 + D0.w]
00004FBE  2F0B                     move.l     -[A7], A3
00004FC0  7000                     moveq.l    D0, 0x00
00004FC2  102C 000C                move.b     D0, [A4 + 0xC]
00004FC6  2F00                     move.l     -[A7], D0
00004FC8  41EC 000C                lea.l      A0, [A4 + 0xC]
00004FCC  2F20                     move.l     -[A7], -[A0]
00004FCE  2F20                     move.l     -[A7], -[A0]
00004FD0  2F2E 0008                move.l     -[A7], [A6 + 0x8]
00004FD4  4EBA 1380                jsr        [PC + 0x1380 /* 00006356 */]
00004FD8  2F2E 0008                move.l     -[A7], [A6 + 0x8]
00004FDC  4EBA B87C                jsr        [PC - 0x4784 /* 0000085A */]
00004FE0  4FEF 0034                lea.l      A7, [A7 + 0x34]
00004FE4  3007                     move.w     D0, D7
00004FE6  5247                     addq.w     D7, 1
label00004FE8:
00004FE8  BC47                     cmp.w      D6, D7
00004FEA  6C94                     bge        -0x6A /* 00004F80 */
00004FEC  206E FDFE                movea.l    A0, [A6 - 0x202]
00004FF0  A02A                     syscall    HUnlock
00004FF2  6000 00E4                bra        +0xE6 /* 000050D8 */
label00004FF6:
00004FF6  598F                     subq.l     A7, 4
00004FF8  3F04                     move.w     -[A7], D4
00004FFA  2F05                     move.l     -[A7], D5
00004FFC  7001                     moveq.l    D0, 0x01
00004FFE  3F00                     move.w     -[A7], D0
00005000  4EBA B050                jsr        [PC - 0x4FB0 /* 00000052 */]
00005004  2D5F FDFE                move.l     [A6 - 0x202], [A7]+
00005008  0C85 5049 4354           cmpi.l     D5, 0x50494354 /* 'PICT' */
0000500E  6632                     bne        +0x34 /* 00005042 */
00005010  206E FDFE                movea.l    A0, [A6 - 0x202]
00005014  2050                     movea.l    A0, [A0]
00005016  43EE FE06                lea.l      A1, [A6 - 0x1FA]
0000501A  5488                     addq.l     A0, 2
0000501C  22D8                     move.l     [A1]+, [A0]+
0000501E  22D8                     move.l     [A1]+, [A0]+
00005020  486E FE06                pea.l      [A6 - 0x1FA]
00005024  302E FE08                move.w     D0, [A6 - 0x1F8]
00005028  48C0                     ext.l      D0
0000502A  4480                     neg.l      D0
0000502C  3F00                     move.w     -[A7], D0
0000502E  302E FE06                move.w     D0, [A6 - 0x1FA]
00005032  48C0                     ext.l      D0
00005034  4480                     neg.l      D0
00005036  3F00                     move.w     -[A7], D0
00005038  A8A8                     syscall    OffsetRect
0000503A  1D7C 0040 FE0E           move.b     [A6 - 0x1F2], 0x40 /* '@' */
00005040  6018                     bra        +0x1A /* 0000505A */
label00005042:
00005042  486E FE06                pea.l      [A6 - 0x1FA]
00005046  7000                     moveq.l    D0, 0x00
00005048  3F00                     move.w     -[A7], D0
0000504A  3F00                     move.w     -[A7], D0
0000504C  7220                     moveq.l    D1, 0x20
0000504E  3F01                     move.w     -[A7], D1
00005050  3F01                     move.w     -[A7], D1
00005052  A8A7                     syscall    SetRect
00005054  1D7C 0020 FE0E           move.b     [A6 - 0x1F2], 0x20 /* ' ' */
label0000505A:
0000505A  1D7C 0002 FE0F           move.b     [A6 - 0x1F1], 0x2
00005060  7000                     moveq.l    D0, 0x00
00005062  2D40 FE02                move.l     [A6 - 0x1FE], D0
00005066  2F05                     move.l     -[A7], D5
00005068  2F2E FDFE                move.l     -[A7], [A6 - 0x202]
0000506C  206E 0008                movea.l    A0, [A6 + 0x8]
00005070  2050                     movea.l    A0, [A0]
00005072  3028 0110                move.w     D0, [A0 + 0x110]
00005076  48C0                     ext.l      D0
00005078  2F00                     move.l     -[A7], D0
0000507A  4EBA FE1C                jsr        [PC - 0x1E4 /* 00004E98 */]
0000507E  3800                     move.w     D4, D0
00005080  4FEF 000C                lea.l      A7, [A7 + 0xC]
00005084  6F4C                     ble        +0x4E /* 000050D2 */
00005086  3D44 FE10                move.w     [A6 - 0x1F0], D4
0000508A  7000                     moveq.l    D0, 0x00
0000508C  102E FE0F                move.b     D0, [A6 - 0x1F1]
00005090  2F00                     move.l     -[A7], D0
00005092  2F0B                     move.l     -[A7], A3
00005094  486E FE10                pea.l      [A6 - 0x1F0]
00005098  4EBA 397C                jsr        [PC + 0x397C /* 00008A16 */]
0000509C  7000                     moveq.l    D0, 0x00
0000509E  102E FE0F                move.b     D0, [A6 - 0x1F1]
000050A2  4233 0000                clr.b      [A3 + D0.w]
000050A6  2F0B                     move.l     -[A7], A3
000050A8  7000                     moveq.l    D0, 0x00
000050AA  102E FE0E                move.b     D0, [A6 - 0x1F2]
000050AE  2F00                     move.l     -[A7], D0
000050B0  41EE FE0E                lea.l      A0, [A6 - 0x1F2]
000050B4  2F20                     move.l     -[A7], -[A0]
000050B6  2F20                     move.l     -[A7], -[A0]
000050B8  2F2E 0008                move.l     -[A7], [A6 + 0x8]
000050BC  4EBA 1298                jsr        [PC + 0x1298 /* 00006356 */]
000050C0  2F05                     move.l     -[A7], D5
000050C2  206E 0008                movea.l    A0, [A6 + 0x8]
000050C6  2050                     movea.l    A0, [A0]
000050C8  2F10                     move.l     -[A7], [A0]
000050CA  4EBA B0DA                jsr        [PC - 0x4F26 /* 000001A6 */]
000050CE  4FEF 0020                lea.l      A7, [A7 + 0x20]
label000050D2:
000050D2  206E FDFE                movea.l    A0, [A6 - 0x202]
000050D6  A049                     syscall    HPurge
label000050D8:
000050D8  4CEE 18F0 FDDE           movem.l    D4,D5,D6,D7,A3,A4, [A6 - 0x222]
000050DE  4E5E                     unlink     A6
000050E0  4E75                     rts
fn000050E2:
000050E2  4E56 FDEA                link       A6, -0x0216
000050E6  48E7 0F18                movem.l    -[A7], D4,D5,D6,D7,A3,A4
000050EA  266E 0008                movea.l    A3, [A6 + 0x8]
000050EE  49EE FE00                lea.l      A4, [A6 - 0x200]
000050F2  7005                     moveq.l    D0, 0x05
000050F4  2F00                     move.l     -[A7], D0
000050F6  2F0B                     move.l     -[A7], A3
000050F8  4EBA 17CA                jsr        [PC + 0x17CA /* 000068C4 */]
000050FC  2053                     movea.l    A0, [A3]
000050FE  3828 0152                move.w     D4, [A0 + 0x152]
00005102  3A28 0150                move.w     D5, [A0 + 0x150]
00005106  7C01                     moveq.l    D6, 0x01
00005108  504F                     addq.w     A7, 8
0000510A  6000 00DA                bra        +0xDC /* 000051E6 */
label0000510E:
0000510E  2053                     movea.l    A0, [A3]
00005110  2068 015E                movea.l    A0, [A0 + 0x15E]
00005114  2D50 FDFC                move.l     [A6 - 0x204], [A0]
00005118  7E01                     moveq.l    D7, 0x01
0000511A  6000 00C0                bra        +0xC2 /* 000051DC */
label0000511E:
0000511E  48C7                     ext.l      D7
00005120  206E FDFC                movea.l    A0, [A6 - 0x204]
00005124  2007                     move.l     D0, D7
00005126  E580                     asl        D0, 2
00005128  BC70 0800                cmp.w      D6, [A0 + D0]
0000512C  6600 00AA                bne        +0xAC /* 000051D8 */
00005130  486E FDF4                pea.l      [A6 - 0x20C]
00005134  486E FDF0                pea.l      [A6 - 0x210]
00005138  486E FDEA                pea.l      [A6 - 0x216]
0000513C  48C7                     ext.l      D7
0000513E  2F07                     move.l     -[A7], D7
00005140  2053                     movea.l    A0, [A3]
00005142  2F28 0104                move.l     -[A7], [A0 + 0x104]
00005146  4EBA 3900                jsr        [PC + 0x3900 /* 00008A48 */]
0000514A  303C FF7F                move.w     D0, 0xFF7F
0000514E  C06E FDEA                and.w      D0, [A6 - 0x216]
00005152  4FEF 0014                lea.l      A7, [A7 + 0x14]
00005156  6754                     beq        +0x56 /* 000051AC */
00005158  5940                     subq.w     D0, 4
0000515A  6722                     beq        +0x24 /* 0000517E */
0000515C  5340                     subq.w     D0, 1
0000515E  671E                     beq        +0x20 /* 0000517E */
00005160  5340                     subq.w     D0, 1
00005162  671A                     beq        +0x1C /* 0000517E */
00005164  5340                     subq.w     D0, 1
00005166  6732                     beq        +0x34 /* 0000519A */
00005168  5340                     subq.w     D0, 1
0000516A  6720                     beq        +0x22 /* 0000518C */
0000516C  5140                     subq.w     D0, 8
0000516E  671C                     beq        +0x1E /* 0000518C */
00005170  0440 0010                subi.w     D0, 0x10
00005174  6724                     beq        +0x26 /* 0000519A */
00005176  0440 0020                subi.w     D0, 0x20 /* ' ' */
0000517A  671E                     beq        +0x20 /* 0000519A */
0000517C  602E                     bra        +0x30 /* 000051AC */
label0000517E:
0000517E  2F0C                     move.l     -[A7], A4
00005180  2F2E FDF0                move.l     -[A7], [A6 - 0x210]
00005184  4EBA 3D70                jsr        [PC + 0x3D70 /* 00008EF6 */]
00005188  504F                     addq.w     A7, 8
0000518A  6022                     bra        +0x24 /* 000051AE */
label0000518C:
0000518C  2F0C                     move.l     -[A7], A4
0000518E  2F2E FDF0                move.l     -[A7], [A6 - 0x210]
00005192  4EBA 3D7C                jsr        [PC + 0x3D7C /* 00008F10 */]
00005196  504F                     addq.w     A7, 8
00005198  6014                     bra        +0x16 /* 000051AE */
label0000519A:
0000519A  2F2E FDF0                move.l     -[A7], [A6 - 0x210]
0000519E  2F0C                     move.l     -[A7], A4
000051A0  486E FDEC                pea.l      [A6 - 0x214]
000051A4  486E FF00                pea.l      [A6 - 0x100]
000051A8  A9A8                     syscall    GetResInfo
000051AA  6002                     bra        +0x4 /* 000051AE */
label000051AC:
000051AC  4254                     clr.w      [A4]
label000051AE:
000051AE  486E FDF4                pea.l      [A6 - 0x20C]
000051B2  700A                     moveq.l    D0, 0x0A
000051B4  3F00                     move.w     -[A7], D0
000051B6  3F00                     move.w     -[A7], D0
000051B8  A8A8                     syscall    OffsetRect
000051BA  2F0C                     move.l     -[A7], A4
000051BC  7000                     moveq.l    D0, 0x00
000051BE  102E FDEB                move.b     D0, [A6 - 0x215]
000051C2  2F00                     move.l     -[A7], D0
000051C4  41EE FDFC                lea.l      A0, [A6 - 0x204]
000051C8  2F20                     move.l     -[A7], -[A0]
000051CA  2F20                     move.l     -[A7], -[A0]
000051CC  2F0B                     move.l     -[A7], A3
000051CE  4EBA 1186                jsr        [PC + 0x1186 /* 00006356 */]
000051D2  4FEF 0014                lea.l      A7, [A7 + 0x14]
000051D6  600A                     bra        +0xC /* 000051E2 */
label000051D8:
000051D8  3007                     move.w     D0, D7
000051DA  5247                     addq.w     D7, 1
label000051DC:
000051DC  BA47                     cmp.w      D5, D7
000051DE  6C00 FF3E                bge        -0xC0 /* 0000511E */
label000051E2:
000051E2  3006                     move.w     D0, D6
000051E4  5246                     addq.w     D6, 1
label000051E6:
000051E6  B846                     cmp.w      D4, D6
000051E8  6C00 FF24                bge        -0xDA /* 0000510E */
000051EC  2053                     movea.l    A0, [A3]
000051EE  2068 015E                movea.l    A0, [A0 + 0x15E]
000051F2  2D50 FDFC                move.l     [A6 - 0x204], [A0]
000051F6  7C01                     moveq.l    D6, 0x01
000051F8  6020                     bra        +0x22 /* 0000521A */
label000051FA:
000051FA  48C6                     ext.l      D6
000051FC  206E FDFC                movea.l    A0, [A6 - 0x204]
00005200  2006                     move.l     D0, D6
00005202  E580                     asl        D0, 2
00005204  4A70 0800                tst.w      [A0 + D0]
00005208  670C                     beq        +0xE /* 00005216 */
0000520A  48C6                     ext.l      D6
0000520C  2F06                     move.l     -[A7], D6
0000520E  2F0B                     move.l     -[A7], A3
00005210  4EBA B4F4                jsr        [PC - 0x4B0C /* 00000706 */]
00005214  504F                     addq.w     A7, 8
label00005216:
00005216  3006                     move.w     D0, D6
00005218  5246                     addq.w     D6, 1
label0000521A:
0000521A  BA46                     cmp.w      D5, D6
0000521C  6CDC                     bge        -0x22 /* 000051FA */
0000521E  2F0B                     move.l     -[A7], A3
00005220  4EBA B638                jsr        [PC - 0x49C8 /* 0000085A */]
00005224  584F                     addq.w     A7, 4
00005226  4CEE 18F0 FDD2           movem.l    D4,D5,D6,D7,A3,A4, [A6 - 0x22E]
0000522C  4E5E                     unlink     A6
0000522E  4E75                     rts
fn00005230:
00005230  4E56 FDEC                link       A6, -0x0214
00005234  48E7 0318                movem.l    -[A7], D6,D7,A3,A4
00005238  266E 0008                movea.l    A3, [A6 + 0x8]
0000523C  2053                     movea.l    A0, [A3]
0000523E  2068 015E                movea.l    A0, [A0 + 0x15E]
00005242  2850                     movea.l    A4, [A0]
00005244  7E01                     moveq.l    D7, 0x01
00005246  6014                     bra        +0x16 /* 0000525C */
label00005248:
00005248  48C7                     ext.l      D7
0000524A  2007                     move.l     D0, D7
0000524C  E580                     asl        D0, 2
0000524E  4A74 0800                tst.w      [A4 + D0]
00005252  6704                     beq        +0x6 /* 00005258 */
00005254  3C07                     move.w     D6, D7
00005256  600C                     bra        +0xE /* 00005264 */
label00005258:
00005258  3007                     move.w     D0, D7
0000525A  5247                     addq.w     D7, 1
label0000525C:
0000525C  2053                     movea.l    A0, [A3]
0000525E  BE68 0150                cmp.w      D7, [A0 + 0x150]
00005262  6FE4                     ble        -0x1A /* 00005248 */
label00005264:
00005264  2053                     movea.l    A0, [A3]
00005266  3028 0150                move.w     D0, [A0 + 0x150]
0000526A  48C0                     ext.l      D0
0000526C  2F00                     move.l     -[A7], D0
0000526E  486E FDF4                pea.l      [A6 - 0x20C]
00005272  4EBA 3C32                jsr        [PC + 0x3C32 /* 00008EA6 */]
00005276  486E FDF4                pea.l      [A6 - 0x20C]
0000527A  487A 0206                pea.l      [PC + 0x206 /* 00005482, value 0x4E56 'NV', cstring "" */]
0000527E  487A 0200                pea.l      [PC + 0x200 /* 00005480, value 0x0, cstring "" */]
00005282  487A 01FA                pea.l      [PC + 0x1FA /* 0000547E, value 0x0, cstring "" */]
00005286  A98B                     syscall    ParamText
00005288  558F                     subq.l     A7, 2
0000528A  3EB8 0900                move.w     [A7], [0x00000900 /* CurApRefNum */]
0000528E  A998                     syscall    UseResFile
00005290  2F3C 444C 4F47           move.l     -[A7], 0x444C4F47 /* 'DLOG' */
00005296  3F3C 0597                move.w     -[A7], 0x597
0000529A  4EBA AEEA                jsr        [PC - 0x5116 /* 00000186 */]
0000529E  598F                     subq.l     A7, 4
000052A0  3F3C 0597                move.w     -[A7], 0x597
000052A4  7000                     moveq.l    D0, 0x00
000052A6  2F00                     move.l     -[A7], D0
000052A8  72FF                     moveq.l    D1, 0xFFFFFFFF
000052AA  2F01                     move.l     -[A7], D1
000052AC  A97C                     syscall    GetNewDialog
000052AE  285F                     movea.l    A4, [A7]+
000052B0  4EBA ADA8                jsr        [PC - 0x5258 /* 0000005A */]
000052B4  486E FFF8                pea.l      [A6 - 0x8]
000052B8  486E FDF0                pea.l      [A6 - 0x210]
000052BC  486E FDEE                pea.l      [A6 - 0x212]
000052C0  7003                     moveq.l    D0, 0x03
000052C2  2F00                     move.l     -[A7], D0
000052C4  2F0C                     move.l     -[A7], A4
000052C6  4EBA 3780                jsr        [PC + 0x3780 /* 00008A48 */]
000052CA  48C6                     ext.l      D6
000052CC  2F06                     move.l     -[A7], D6
000052CE  486E FDF4                pea.l      [A6 - 0x20C]
000052D2  4EBA 3BD2                jsr        [PC + 0x3BD2 /* 00008EA6 */]
000052D6  2F2E FDF0                move.l     -[A7], [A6 - 0x210]
000052DA  486E FDF4                pea.l      [A6 - 0x20C]
000052DE  A98F                     syscall    SetDialogItemText/SetIText
000052E0  2F0C                     move.l     -[A7], A4
000052E2  7003                     moveq.l    D0, 0x03
000052E4  3F00                     move.w     -[A7], D0
000052E6  7200                     moveq.l    D1, 0x00
000052E8  3F01                     move.w     -[A7], D1
000052EA  3F3C 7FFF                move.w     -[A7], 0x7FFF
000052EE  A97E                     syscall    SelectDialogItemText/SelIText
000052F0  4FEF 0014                lea.l      A7, [A7 + 0x14]
label000052F4:
000052F4  487A 01DC                pea.l      [PC + 0x1DC /* 000054D2, value 0x4E560000 'NV\0\0', cstring "NV" */]
000052F8  486E FDEC                pea.l      [A6 - 0x214]
000052FC  A991                     syscall    ModalDialog
000052FE  7001                     moveq.l    D0, 0x01
00005300  B06E FDEC                cmp.w      D0, [A6 - 0x214]
00005304  667C                     bne        +0x7E /* 00005382 */
00005306  2F2E FDF0                move.l     -[A7], [A6 - 0x210]
0000530A  486E FEF4                pea.l      [A6 - 0x10C]
0000530E  A990                     syscall    GetDialogItemText/GetIText
00005310  486E FEF4                pea.l      [A6 - 0x10C]
00005314  486E FFF4                pea.l      [A6 - 0xC]
00005318  4EBA 3B78                jsr        [PC + 0x3B78 /* 00008E92 */]
0000531C  7001                     moveq.l    D0, 0x01
0000531E  B0AE FFF4                cmp.l      D0, [A6 - 0xC]
00005322  6E0E                     bgt        +0x10 /* 00005332 */
00005324  2053                     movea.l    A0, [A3]
00005326  3028 0150                move.w     D0, [A0 + 0x150]
0000532A  48C0                     ext.l      D0
0000532C  B0AE FFF4                cmp.l      D0, [A6 - 0xC]
00005330  6C50                     bge        +0x52 /* 00005382 */
label00005332:
00005332  558F                     subq.l     A7, 2
00005334  7001                     moveq.l    D0, 0x01
00005336  1F00                     move.b     -[A7], D0
00005338  487A 0136                pea.l      [PC + 0x136 /* 00005470, value 0xB444954, pstring "DITL alerts" */]
0000533C  7201                     moveq.l    D1, 0x01
0000533E  3F01                     move.w     -[A7], D1
00005340  4EBA ADC4                jsr        [PC - 0x523C /* 00000106 */]
00005344  4A1F                     tst.b      [A7]+
00005346  673A                     beq        +0x3C /* 00005382 */
00005348  2053                     movea.l    A0, [A3]
0000534A  3028 0150                move.w     D0, [A0 + 0x150]
0000534E  48C0                     ext.l      D0
00005350  2F00                     move.l     -[A7], D0
00005352  486E FDF4                pea.l      [A6 - 0x20C]
00005356  4EBA 3B4E                jsr        [PC + 0x3B4E /* 00008EA6 */]
0000535A  486E FDF4                pea.l      [A6 - 0x20C]
0000535E  487A 010E                pea.l      [PC + 0x10E /* 0000546E, value 0xB44, cstring "" */]
00005362  487A 0108                pea.l      [PC + 0x108 /* 0000546C, value 0x0, cstring "" */]
00005366  487A 0102                pea.l      [PC + 0x102 /* 0000546A, value 0x0, cstring "" */]
0000536A  A98B                     syscall    ParamText
0000536C  2F0C                     move.l     -[A7], A4
0000536E  7003                     moveq.l    D0, 0x03
00005370  3F00                     move.w     -[A7], D0
00005372  7200                     moveq.l    D1, 0x00
00005374  3F01                     move.w     -[A7], D1
00005376  3F3C 7FFF                move.w     -[A7], 0x7FFF
0000537A  A97E                     syscall    SelectDialogItemText/SelIText
0000537C  3D7C FFFF FDEC           move.w     [A6 - 0x214], 0xFFFF
label00005382:
00005382  7001                     moveq.l    D0, 0x01
00005384  B06E FDEC                cmp.w      D0, [A6 - 0x214]
00005388  670A                     beq        +0xC /* 00005394 */
0000538A  7002                     moveq.l    D0, 0x02
0000538C  B06E FDEC                cmp.w      D0, [A6 - 0x214]
00005390  6600 FF62                bne        -0x9C /* 000052F4 */
label00005394:
00005394  2F0C                     move.l     -[A7], A4
00005396  A983                     syscall    DisposeDialog
00005398  7001                     moveq.l    D0, 0x01
0000539A  B06E FDEC                cmp.w      D0, [A6 - 0x214]
0000539E  6600 00C0                bne        +0xC2 /* 00005460 */
000053A2  48C6                     ext.l      D6
000053A4  BCAE FFF4                cmp.l      D6, [A6 - 0xC]
000053A8  6700 00B6                beq        +0xB8 /* 00005460 */
000053AC  48C6                     ext.l      D6
000053AE  2F06                     move.l     -[A7], D6
000053B0  2F0B                     move.l     -[A7], A3
000053B2  4EBA B352                jsr        [PC - 0x4CAE /* 00000706 */]
000053B6  7E01                     moveq.l    D7, 0x01
000053B8  504F                     addq.w     A7, 8
000053BA  6030                     bra        +0x32 /* 000053EC */
label000053BC:
000053BC  BC47                     cmp.w      D6, D7
000053BE  6728                     beq        +0x2A /* 000053E8 */
000053C0  486E FFF8                pea.l      [A6 - 0x8]
000053C4  486E FDF0                pea.l      [A6 - 0x210]
000053C8  486E FDEE                pea.l      [A6 - 0x212]
000053CC  48C7                     ext.l      D7
000053CE  2F07                     move.l     -[A7], D7
000053D0  2053                     movea.l    A0, [A3]
000053D2  2F28 0104                move.l     -[A7], [A0 + 0x104]
000053D6  4EBA 3670                jsr        [PC + 0x3670 /* 00008A48 */]
000053DA  48C7                     ext.l      D7
000053DC  2F07                     move.l     -[A7], D7
000053DE  2F0B                     move.l     -[A7], A3
000053E0  4EBA DCE0                jsr        [PC - 0x2320 /* 000030C2 */]
000053E4  4FEF 001C                lea.l      A7, [A7 + 0x1C]
label000053E8:
000053E8  3007                     move.w     D0, D7
000053EA  5247                     addq.w     D7, 1
label000053EC:
000053EC  48C7                     ext.l      D7
000053EE  BEAE FFF4                cmp.l      D7, [A6 - 0xC]
000053F2  6DC8                     blt        -0x36 /* 000053BC */
000053F4  48C6                     ext.l      D6
000053F6  BCAE FFF4                cmp.l      D6, [A6 - 0xC]
000053FA  6C28                     bge        +0x2A /* 00005424 */
000053FC  486E FFF8                pea.l      [A6 - 0x8]
00005400  486E FDF0                pea.l      [A6 - 0x210]
00005404  486E FDEE                pea.l      [A6 - 0x212]
00005408  2F2E FFF4                move.l     -[A7], [A6 - 0xC]
0000540C  2053                     movea.l    A0, [A3]
0000540E  2F28 0104                move.l     -[A7], [A0 + 0x104]
00005412  4EBA 3634                jsr        [PC + 0x3634 /* 00008A48 */]
00005416  2F2E FFF4                move.l     -[A7], [A6 - 0xC]
0000541A  2F0B                     move.l     -[A7], A3
0000541C  4EBA DCA4                jsr        [PC - 0x235C /* 000030C2 */]
00005420  4FEF 001C                lea.l      A7, [A7 + 0x1C]
label00005424:
00005424  486E FFF8                pea.l      [A6 - 0x8]
00005428  486E FDF0                pea.l      [A6 - 0x210]
0000542C  486E FDEE                pea.l      [A6 - 0x212]
00005430  48C6                     ext.l      D6
00005432  2F06                     move.l     -[A7], D6
00005434  2053                     movea.l    A0, [A3]
00005436  2F28 0104                move.l     -[A7], [A0 + 0x104]
0000543A  4EBA 360C                jsr        [PC + 0x360C /* 00008A48 */]
0000543E  48C6                     ext.l      D6
00005440  2F06                     move.l     -[A7], D6
00005442  2F0B                     move.l     -[A7], A3
00005444  4EBA DC7C                jsr        [PC - 0x2384 /* 000030C2 */]
00005448  7000                     moveq.l    D0, 0x00
0000544A  2F00                     move.l     -[A7], D0
0000544C  2F0B                     move.l     -[A7], A3
0000544E  4EBA F514                jsr        [PC - 0xAEC /* 00004964 */]
00005452  2F2E FFF4                move.l     -[A7], [A6 - 0xC]
00005456  2F0B                     move.l     -[A7], A3
00005458  4EBA DC68                jsr        [PC - 0x2398 /* 000030C2 */]
0000545C  4FEF 002C                lea.l      A7, [A7 + 0x2C]
label00005460:
00005460  4CEE 18C0 FDDC           movem.l    D6,D7,A3,A4, [A6 - 0x224]
00005466  4E5E                     unlink     A6
00005468  4E75                     rts
0000546A  0000 0000                ori.b      D0, 0x0
0000546E  0000 0B44                ori.b      D0, 0x44 /* 'D' */
00005472  4954                     chk.w      D4, [A4]
00005474  4C20 616C                mulu.l     D6, -[A0]
00005478  6572                     bcs        +0x74 /* 000054EC */
0000547A  7473                     moveq.l    D2, 0x73
0000547C  0000 0000                ori.b      D0, 0x0
00005480  0000 0000                ori.b      D0, 0x0
00005484  4E56 0000                link       A6, 0
00005488  48E7 0308                movem.l    -[A7], D6,D7,A4
0000548C  286E 000C                movea.l    A4, [A6 + 0xC]
00005490  7003                     moveq.l    D0, 0x03
00005492  B054                     cmp.w      D0, [A4]
00005494  6618                     bne        +0x1A /* 000054AE */
00005496  2E2C 0002                move.l     D7, [A4 + 0x2]
0000549A  2C3C 0000 00FF           move.l     D6, 0xFF
000054A0  CC87                     and.l      D6, D7
000054A2  0C06 002D                cmpi.b     D6, 0x2D /* '-' */
000054A6  6606                     bne        +0x8 /* 000054AE */
000054A8  422E 0014                clr.b      [A6 + 0x14]
000054AC  6014                     bra        +0x16 /* 000054C2 */
label000054AE:
000054AE  558F                     subq.l     A7, 2
000054B0  2F2E 0010                move.l     -[A7], [A6 + 0x10]
000054B4  2F0C                     move.l     -[A7], A4
000054B6  2F2E 0008                move.l     -[A7], [A6 + 0x8]
000054BA  4EBA 0016                jsr        [PC + 0x16 /* 000054D2 */]
000054BE  1D5F 0014                move.b     [A6 + 0x14], [A7]+
label000054C2:
000054C2  4CEE 10C0 FFF4           movem.l    D6,D7,A4, [A6 - 0xC]
000054C8  4E5E                     unlink     A6
000054CA  205F                     movea.l    A0, [A7]+
000054CC  4FEF 000C                lea.l      A7, [A7 + 0xC]
000054D0  4ED0                     jmp        [A0]
fn000054D2:
000054D2  4E56 0000                link       A6, 0
000054D6  48E7 0318                movem.l    -[A7], D6,D7,A3,A4
000054DA  266E 000C                movea.l    A3, [A6 + 0xC]
000054DE  286E 0010                movea.l    A4, [A6 + 0x10]
000054E2  3013                     move.w     D0, [A3]
000054E4  5740                     subq.w     D0, 3
000054E6  670E                     beq        +0x10 /* 000054F6 */
000054E8  5540                     subq.w     D0, 2
000054EA  670A                     beq        +0xC /* 000054F6 */
label000054EC:
000054EC  5340                     subq.w     D0, 1
000054EE  6700 00D6                beq        +0xD8 /* 000055C6 */
000054F2  6000 00E2                bra        +0xE4 /* 000055D6 */
label000054F6:
000054F6  2C2B 0002                move.l     D6, [A3 + 0x2]
000054FA  2E3C 0000 00FF           move.l     D7, 0xFF
00005500  CE86                     and.l      D7, D6
00005502  1007                     move.b     D0, D7
00005504  5700                     subq.b     D0, 3
00005506  672E                     beq        +0x30 /* 00005536 */
00005508  5B00                     subq.b     D0, 5
0000550A  6700 0094                beq        +0x96 /* 000055A0 */
0000550E  5300                     subq.b     D0, 1
00005510  6700 008E                beq        +0x90 /* 000055A0 */
00005514  5900                     subq.b     D0, 4
00005516  671E                     beq        +0x20 /* 00005536 */
00005518  0400 000E                subi.b     D0, 0xE
0000551C  6734                     beq        +0x36 /* 00005552 */
0000551E  5300                     subq.b     D0, 1
00005520  677E                     beq        +0x80 /* 000055A0 */
00005522  5300                     subq.b     D0, 1
00005524  677A                     beq        +0x7C /* 000055A0 */
00005526  5300                     subq.b     D0, 1
00005528  6776                     beq        +0x78 /* 000055A0 */
0000552A  5300                     subq.b     D0, 1
0000552C  6772                     beq        +0x74 /* 000055A0 */
0000552E  0400 000F                subi.b     D0, 0xF
00005532  6738                     beq        +0x3A /* 0000556C */
00005534  6070                     bra        +0x72 /* 000055A6 */
label00005536:
00005536  206E 0008                movea.l    A0, [A6 + 0x8]
0000553A  30BC 0001                move.w     [A0], 0x1
0000553E  2F0C                     move.l     -[A7], A4
00005540  7001                     moveq.l    D0, 0x01
00005542  3F00                     move.w     -[A7], D0
00005544  4EBA ABE4                jsr        [PC - 0x541C /* 0000012A */]
00005548  1D7C 0001 0014           move.b     [A6 + 0x14], 0x1
0000554E  6000 008A                bra        +0x8C /* 000055DA */
label00005552:
00005552  206E 0008                movea.l    A0, [A6 + 0x8]
00005556  30BC 0002                move.w     [A0], 0x2
0000555A  2F0C                     move.l     -[A7], A4
0000555C  7002                     moveq.l    D0, 0x02
0000555E  3F00                     move.w     -[A7], D0
00005560  4EBA ABC8                jsr        [PC - 0x5438 /* 0000012A */]
00005564  1D7C 0001 0014           move.b     [A6 + 0x14], 0x1
0000556A  606E                     bra        +0x70 /* 000055DA */
label0000556C:
0000556C  303C 0100                move.w     D0, 0x100
00005570  C06B 000E                and.w      D0, [A3 + 0xE]
00005574  7200                     moveq.l    D1, 0x00
00005576  3200                     move.w     D1, D0
00005578  0C81 0000 0100           cmpi.l     D1, 0x100
0000557E  661A                     bne        +0x1C /* 0000559A */
00005580  206E 0008                movea.l    A0, [A6 + 0x8]
00005584  30BC 0002                move.w     [A0], 0x2
00005588  2F0C                     move.l     -[A7], A4
0000558A  7002                     moveq.l    D0, 0x02
0000558C  3F00                     move.w     -[A7], D0
0000558E  4EBA AB9A                jsr        [PC - 0x5466 /* 0000012A */]
00005592  1D7C 0001 0014           move.b     [A6 + 0x14], 0x1
00005598  6040                     bra        +0x42 /* 000055DA */
label0000559A:
0000559A  422E 0014                clr.b      [A6 + 0x14]
0000559E  603A                     bra        +0x3C /* 000055DA */
label000055A0:
000055A0  422E 0014                clr.b      [A6 + 0x14]
000055A4  6034                     bra        +0x36 /* 000055DA */
label000055A6:
000055A6  0C07 0030                cmpi.b     D7, 0x30 /* '0' */
000055AA  6D06                     blt        +0x8 /* 000055B2 */
000055AC  0C07 0039                cmpi.b     D7, 0x39 /* '9' */
000055B0  6F0E                     ble        +0x10 /* 000055C0 */
label000055B2:
000055B2  7001                     moveq.l    D0, 0x01
000055B4  3F00                     move.w     -[A7], D0
000055B6  A9C8                     syscall    SysBeep
000055B8  1D7C 0001 0014           move.b     [A6 + 0x14], 0x1
000055BE  601A                     bra        +0x1C /* 000055DA */
label000055C0:
000055C0  422E 0014                clr.b      [A6 + 0x14]
000055C4  6014                     bra        +0x16 /* 000055DA */
label000055C6:
000055C6  B9EB 0002                cmpa.l     A4, [A3 + 0x2]
000055CA  660A                     bne        +0xC /* 000055D6 */
000055CC  2F0C                     move.l     -[A7], A4
000055CE  7001                     moveq.l    D0, 0x01
000055D0  3F00                     move.w     -[A7], D0
000055D2  4EBA AB52                jsr        [PC - 0x54AE /* 00000126 */]
label000055D6:
000055D6  422E 0014                clr.b      [A6 + 0x14]
label000055DA:
000055DA  4CEE 18C0 FFF0           movem.l    D6,D7,A3,A4, [A6 - 0x10]
000055E0  4E5E                     unlink     A6
000055E2  205F                     movea.l    A0, [A7]+
000055E4  4FEF 000C                lea.l      A7, [A7 + 0xC]
000055E8  4ED0                     jmp        [A0]
fn000055EA:
000055EA  4E56 FDE8                link       A6, -0x0218
000055EE  48E7 1118                movem.l    -[A7], D3,D7,A3,A4
000055F2  266E 0008                movea.l    A3, [A6 + 0x8]
000055F6  2053                     movea.l    A0, [A3]
000055F8  3E28 0150                move.w     D7, [A0 + 0x150]
000055FC  602E                     bra        +0x30 /* 0000562C */
label000055FE:
000055FE  486E FFF8                pea.l      [A6 - 0x8]
00005602  486E FDEC                pea.l      [A6 - 0x214]
00005606  486E FDEA                pea.l      [A6 - 0x216]
0000560A  48C7                     ext.l      D7
0000560C  2F07                     move.l     -[A7], D7
0000560E  2053                     movea.l    A0, [A3]
00005610  2F28 0104                move.l     -[A7], [A0 + 0x104]
00005614  4EBA 3432                jsr        [PC + 0x3432 /* 00008A48 */]
00005618  303C FF7F                move.w     D0, 0xFF7F
0000561C  C06E FDEA                and.w      D0, [A6 - 0x216]
00005620  0C40 0001                cmpi.w     D0, 0x1
00005624  4FEF 0014                lea.l      A7, [A7 + 0x14]
00005628  6606                     bne        +0x8 /* 00005630 */
0000562A  5347                     subq.w     D7, 1
label0000562C:
0000562C  4A47                     tst.w      D7
0000562E  6ECE                     bgt        -0x30 /* 000055FE */
label00005630:
00005630  48C7                     ext.l      D7
00005632  2F07                     move.l     -[A7], D7
00005634  486E FDF4                pea.l      [A6 - 0x20C]
00005638  4EBA 386C                jsr        [PC + 0x386C /* 00008EA6 */]
0000563C  486E FDF4                pea.l      [A6 - 0x20C]
00005640  487A 01D4                pea.l      [PC + 0x1D4 /* 00005816, value 0x4E56 'NV', cstring "" */]
00005644  487A 01CE                pea.l      [PC + 0x1CE /* 00005814, value 0x0, cstring "" */]
00005648  487A 01C8                pea.l      [PC + 0x1C8 /* 00005812, value 0x0, cstring "" */]
0000564C  A98B                     syscall    ParamText
0000564E  558F                     subq.l     A7, 2
00005650  3EB8 0900                move.w     [A7], [0x00000900 /* CurApRefNum */]
00005654  A998                     syscall    UseResFile
00005656  2F3C 444C 4F47           move.l     -[A7], 0x444C4F47 /* 'DLOG' */
0000565C  3F3C 0598                move.w     -[A7], 0x598
00005660  4EBA AB24                jsr        [PC - 0x54DC /* 00000186 */]
00005664  598F                     subq.l     A7, 4
00005666  3F3C 0598                move.w     -[A7], 0x598
0000566A  7000                     moveq.l    D0, 0x00
0000566C  2F00                     move.l     -[A7], D0
0000566E  72FF                     moveq.l    D1, 0xFFFFFFFF
00005670  2F01                     move.l     -[A7], D1
00005672  A97C                     syscall    GetNewDialog
00005674  285F                     movea.l    A4, [A7]+
00005676  4EBA A9E2                jsr        [PC - 0x561E /* 0000005A */]
0000567A  486E FFF8                pea.l      [A6 - 0x8]
0000567E  486E FDF0                pea.l      [A6 - 0x210]
00005682  486E FDEA                pea.l      [A6 - 0x216]
00005686  7003                     moveq.l    D0, 0x03
00005688  2F00                     move.l     -[A7], D0
0000568A  2F0C                     move.l     -[A7], A4
0000568C  4EBA 33BA                jsr        [PC + 0x33BA /* 00008A48 */]
00005690  7001                     moveq.l    D0, 0x01
00005692  2F00                     move.l     -[A7], D0
00005694  486E FDF4                pea.l      [A6 - 0x20C]
00005698  4EBA 380C                jsr        [PC + 0x380C /* 00008EA6 */]
0000569C  2F2E FDF0                move.l     -[A7], [A6 - 0x210]
000056A0  486E FDF4                pea.l      [A6 - 0x20C]
000056A4  A98F                     syscall    SetDialogItemText/SetIText
000056A6  2F0C                     move.l     -[A7], A4
000056A8  7003                     moveq.l    D0, 0x03
000056AA  3F00                     move.w     -[A7], D0
000056AC  7200                     moveq.l    D1, 0x00
000056AE  3F01                     move.w     -[A7], D1
000056B0  3F3C 7FFF                move.w     -[A7], 0x7FFF
000056B4  A97E                     syscall    SelectDialogItemText/SelIText
000056B6  4FEF 0014                lea.l      A7, [A7 + 0x14]
label000056BA:
000056BA  487A FE16                pea.l      [PC - 0x1EA /* 000054D2, value 0x4E560000 'NV\0\0', cstring "NV" */]
000056BE  486E FDE8                pea.l      [A6 - 0x218]
000056C2  A991                     syscall    ModalDialog
000056C4  7001                     moveq.l    D0, 0x01
000056C6  B06E FDE8                cmp.w      D0, [A6 - 0x218]
000056CA  6600 00CA                bne        +0xCC /* 00005796 */
000056CE  486E FEF4                pea.l      [A6 - 0x10C]
000056D2  2F2E FDF0                move.l     -[A7], [A6 - 0x210]
000056D6  4EBA 3838                jsr        [PC + 0x3838 /* 00008F10 */]
000056DA  486E FFF4                pea.l      [A6 - 0xC]
000056DE  486E FEF4                pea.l      [A6 - 0x10C]
000056E2  4EBA 3846                jsr        [PC + 0x3846 /* 00008F2A */]
000056E6  7001                     moveq.l    D0, 0x01
000056E8  B0AE FFF4                cmp.l      D0, [A6 - 0xC]
000056EC  4FEF 0010                lea.l      A7, [A7 + 0x10]
000056F0  6E08                     bgt        +0xA /* 000056FA */
000056F2  48C7                     ext.l      D7
000056F4  BEAE FFF4                cmp.l      D7, [A6 - 0xC]
000056F8  6C1E                     bge        +0x20 /* 00005718 */
label000056FA:
000056FA  558F                     subq.l     A7, 2
000056FC  7001                     moveq.l    D0, 0x01
000056FE  1F00                     move.b     -[A7], D0
00005700  487A 0102                pea.l      [PC + 0x102 /* 00005804, value 0xB444954, pstring "DITL alerts" */]
00005704  7201                     moveq.l    D1, 0x01
00005706  3F01                     move.w     -[A7], D1
00005708  4EBA A9FC                jsr        [PC - 0x5604 /* 00000106 */]
0000570C  4A1F                     tst.b      [A7]+
0000570E  6750                     beq        +0x52 /* 00005760 */
00005710  3D7C FFFF FDE8           move.w     [A6 - 0x218], 0xFFFF
00005716  6048                     bra        +0x4A /* 00005760 */
label00005718:
00005718  486E FFF8                pea.l      [A6 - 0x8]
0000571C  486E FDEC                pea.l      [A6 - 0x214]
00005720  486E FDEA                pea.l      [A6 - 0x216]
00005724  2F2E FFF4                move.l     -[A7], [A6 - 0xC]
00005728  2053                     movea.l    A0, [A3]
0000572A  2F28 0104                move.l     -[A7], [A0 + 0x104]
0000572E  4EBA 3318                jsr        [PC + 0x3318 /* 00008A48 */]
00005732  303C FF7F                move.w     D0, 0xFF7F
00005736  C06E FDEA                and.w      D0, [A6 - 0x216]
0000573A  0C40 0001                cmpi.w     D0, 0x1
0000573E  4FEF 0014                lea.l      A7, [A7 + 0x14]
00005742  661C                     bne        +0x1E /* 00005760 */
00005744  558F                     subq.l     A7, 2
00005746  7001                     moveq.l    D0, 0x01
00005748  1F00                     move.b     -[A7], D0
0000574A  487A 00AA                pea.l      [PC + 0xAA /* 000057F6, value 0xB444954, pstring "DITL alerts" */]
0000574E  7203                     moveq.l    D1, 0x03
00005750  3F01                     move.w     -[A7], D1
00005752  4EBA A9B2                jsr        [PC - 0x564E /* 00000106 */]
00005756  4A1F                     tst.b      [A7]+
00005758  6706                     beq        +0x8 /* 00005760 */
0000575A  3D7C FFFF FDE8           move.w     [A6 - 0x218], 0xFFFF
label00005760:
00005760  70FF                     moveq.l    D0, 0xFFFFFFFF
00005762  B06E FDE8                cmp.w      D0, [A6 - 0x218]
00005766  662E                     bne        +0x30 /* 00005796 */
00005768  48C7                     ext.l      D7
0000576A  2F07                     move.l     -[A7], D7
0000576C  486E FDF4                pea.l      [A6 - 0x20C]
00005770  4EBA 3734                jsr        [PC + 0x3734 /* 00008EA6 */]
00005774  486E FDF4                pea.l      [A6 - 0x20C]
00005778  487A 007A                pea.l      [PC + 0x7A /* 000057F4, value 0xB44, cstring "" */]
0000577C  487A 0074                pea.l      [PC + 0x74 /* 000057F2, value 0x0, cstring "" */]
00005780  487A 006E                pea.l      [PC + 0x6E /* 000057F0, value 0x0, cstring "" */]
00005784  A98B                     syscall    ParamText
00005786  2F0C                     move.l     -[A7], A4
00005788  7003                     moveq.l    D0, 0x03
0000578A  3F00                     move.w     -[A7], D0
0000578C  7200                     moveq.l    D1, 0x00
0000578E  3F01                     move.w     -[A7], D1
00005790  3F3C 7FFF                move.w     -[A7], 0x7FFF
00005794  A97E                     syscall    SelectDialogItemText/SelIText
label00005796:
00005796  7001                     moveq.l    D0, 0x01
00005798  B06E FDE8                cmp.w      D0, [A6 - 0x218]
0000579C  670A                     beq        +0xC /* 000057A8 */
0000579E  7002                     moveq.l    D0, 0x02
000057A0  B06E FDE8                cmp.w      D0, [A6 - 0x218]
000057A4  6600 FF14                bne        -0xEA /* 000056BA */
label000057A8:
000057A8  2F0C                     move.l     -[A7], A4
000057AA  A983                     syscall    DisposeDialog
000057AC  7001                     moveq.l    D0, 0x01
000057AE  B06E FDE8                cmp.w      D0, [A6 - 0x218]
000057B2  6632                     bne        +0x34 /* 000057E6 */
000057B4  2F0B                     move.l     -[A7], A3
000057B6  4EBA AED8                jsr        [PC - 0x5128 /* 00000690 */]
000057BA  2053                     movea.l    A0, [A3]
000057BC  2068 015E                movea.l    A0, [A0 + 0x15E]
000057C0  2850                     movea.l    A4, [A0]
000057C2  2F2E FFF4                move.l     -[A7], [A6 - 0xC]
000057C6  2F0B                     move.l     -[A7], A3
000057C8  4EBA D8F8                jsr        [PC - 0x2708 /* 000030C2 */]
000057CC  7000                     moveq.l    D0, 0x00
000057CE  2F00                     move.l     -[A7], D0
000057D0  7201                     moveq.l    D1, 0x01
000057D2  2F01                     move.l     -[A7], D1
000057D4  2F00                     move.l     -[A7], D0
000057D6  2F01                     move.l     -[A7], D1
000057D8  2F2E FFF4                move.l     -[A7], [A6 - 0xC]
000057DC  2F0B                     move.l     -[A7], A3
000057DE  4EBA 0038                jsr        [PC + 0x38 /* 00005818 */]
000057E2  4FEF 0024                lea.l      A7, [A7 + 0x24]
label000057E6:
000057E6  4CEE 1888 FDD8           movem.l    D3,D7,A3,A4, [A6 - 0x228]
000057EC  4E5E                     unlink     A6
000057EE  4E75                     rts
000057F0  0000 0000                ori.b      D0, 0x0
000057F4  0000 0B44                ori.b      D0, 0x44 /* 'D' */
000057F8  4954                     chk.w      D4, [A4]
000057FA  4C20 616C                mulu.l     D6, -[A0]
000057FE  6572                     bcs        +0x74 /* 00005872 */
00005800  7473                     moveq.l    D2, 0x73
00005802  0000 0B44                ori.b      D0, 0x44 /* 'D' */
00005806  4954                     chk.w      D4, [A4]
00005808  4C20 616C                mulu.l     D6, -[A0]
0000580C  6572                     bcs        +0x74 /* 00005880 */
0000580E  7473                     moveq.l    D2, 0x73
00005810  0000 0000                ori.b      D0, 0x0
00005814  0000 0000                ori.b      D0, 0x0
fn00005818:
00005818  4E56 FFD2                link       A6, -0x002E
0000581C  48E7 0108                movem.l    -[A7], D7,A4
00005820  3E2E 000E                move.w     D7, [A6 + 0xE]
00005824  286E 0008                movea.l    A4, [A6 + 0x8]
00005828  486E FFD8                pea.l      [A6 - 0x28]
0000582C  486E FFD4                pea.l      [A6 - 0x2C]
00005830  486E FFD2                pea.l      [A6 - 0x2E]
00005834  48C7                     ext.l      D7
00005836  2F07                     move.l     -[A7], D7
00005838  2054                     movea.l    A0, [A4]
0000583A  2F28 0104                move.l     -[A7], [A0 + 0x104]
0000583E  4EBA 3208                jsr        [PC + 0x3208 /* 00008A48 */]
00005842  303C FF7F                move.w     D0, 0xFF7F
00005846  C06E FFD2                and.w      D0, [A6 - 0x2E]
0000584A  0C40 0001                cmpi.w     D0, 0x1
0000584E  4FEF 0014                lea.l      A7, [A7 + 0x14]
00005852  6700 0142                beq        +0x144 /* 00005996 */
00005856  4A2E 0013                tst.b      [A6 + 0x13]
0000585A  671A                     beq        +0x1C /* 00005876 */
0000585C  41EE FFE0                lea.l      A0, [A6 - 0x20]
00005860  2F20                     move.l     -[A7], -[A0]
00005862  2F20                     move.l     -[A7], -[A0]
00005864  486E FFE0                pea.l      [A6 - 0x20]
00005868  4EBA 3174                jsr        [PC + 0x3174 /* 000089DE */]
0000586C  486E FFE0                pea.l      [A6 - 0x20]
00005870  A928                     syscall    InvalRect
label00005872:
00005872  4FEF 000C                lea.l      A7, [A7 + 0xC]
label00005876:
00005876  4A2E 0017                tst.b      [A6 + 0x17]
0000587A  6752                     beq        +0x54 /* 000058CE */
0000587C  48C7                     ext.l      D7
0000587E  2F07                     move.l     -[A7], D7
label00005880:
00005880  302E FFDE                move.w     D0, [A6 - 0x22]
00005884  48C0                     ext.l      D0
00005886  2F00                     move.l     -[A7], D0
00005888  302E FFD8                move.w     D0, [A6 - 0x28]
0000588C  48C0                     ext.l      D0
0000588E  2F00                     move.l     -[A7], D0
00005890  2F0C                     move.l     -[A7], A4
00005892  486E FFE8                pea.l      [A6 - 0x18]
00005896  4EBA 2B5A                jsr        [PC + 0x2B5A /* 000083F2 */]
0000589A  486E FFE8                pea.l      [A6 - 0x18]
0000589E  A928                     syscall    InvalRect
000058A0  2054                     movea.l    A0, [A4]
000058A2  3028 0150                move.w     D0, [A0 + 0x150]
000058A6  48C0                     ext.l      D0
000058A8  2F00                     move.l     -[A7], D0
000058AA  302E FFEA                move.w     D0, [A6 - 0x16]
000058AE  48C0                     ext.l      D0
000058B0  2F00                     move.l     -[A7], D0
000058B2  302E FFE8                move.w     D0, [A6 - 0x18]
000058B6  48C0                     ext.l      D0
000058B8  2F00                     move.l     -[A7], D0
000058BA  2F0C                     move.l     -[A7], A4
000058BC  486E FFE8                pea.l      [A6 - 0x18]
000058C0  4EBA 2B30                jsr        [PC + 0x2B30 /* 000083F2 */]
000058C4  486E FFE8                pea.l      [A6 - 0x18]
000058C8  A928                     syscall    InvalRect
000058CA  4FEF 0028                lea.l      A7, [A7 + 0x28]
label000058CE:
000058CE  4A2E 001B                tst.b      [A6 + 0x1B]
000058D2  6700 0096                beq        +0x98 /* 0000596A */
000058D6  41EE FFF8                lea.l      A0, [A6 - 0x8]
000058DA  43EE FFD8                lea.l      A1, [A6 - 0x28]
000058DE  20D9                     move.l     [A0]+, [A1]+
000058E0  20D9                     move.l     [A0]+, [A1]+
000058E2  7E01                     moveq.l    D7, 0x01
000058E4  7010                     moveq.l    D0, 0x10
000058E6  C06E FFD2                and.w      D0, [A6 - 0x2E]
000058EA  670E                     beq        +0x10 /* 000058FA */
000058EC  486E FFF8                pea.l      [A6 - 0x8]
000058F0  70FD                     moveq.l    D0, 0xFFFFFFFD
000058F2  3F00                     move.w     -[A7], D0
000058F4  3F00                     move.w     -[A7], D0
000058F6  A8A9                     syscall    InsetRect
000058F8  5647                     addq.w     D7, 3
label000058FA:
000058FA  41EE FFF0                lea.l      A0, [A6 - 0x10]
000058FE  43EE FFF8                lea.l      A1, [A6 - 0x8]
00005902  20D9                     move.l     [A0]+, [A1]+
00005904  20D9                     move.l     [A0]+, [A1]+
00005906  3007                     move.w     D0, D7
00005908  D06E FFF0                add.w      D0, [A6 - 0x10]
0000590C  3D40 FFF4                move.w     [A6 - 0xC], D0
00005910  486E FFF0                pea.l      [A6 - 0x10]
00005914  A928                     syscall    InvalRect
00005916  41EE FFF0                lea.l      A0, [A6 - 0x10]
0000591A  43EE FFF8                lea.l      A1, [A6 - 0x8]
0000591E  20D9                     move.l     [A0]+, [A1]+
00005920  20D9                     move.l     [A0]+, [A1]+
00005922  302E FFF4                move.w     D0, [A6 - 0xC]
00005926  9047                     sub.w      D0, D7
00005928  3D40 FFF0                move.w     [A6 - 0x10], D0
0000592C  486E FFF0                pea.l      [A6 - 0x10]
00005930  A928                     syscall    InvalRect
00005932  41EE FFF0                lea.l      A0, [A6 - 0x10]
00005936  43EE FFF8                lea.l      A1, [A6 - 0x8]
0000593A  20D9                     move.l     [A0]+, [A1]+
0000593C  20D9                     move.l     [A0]+, [A1]+
0000593E  3007                     move.w     D0, D7
00005940  D06E FFF2                add.w      D0, [A6 - 0xE]
00005944  3D40 FFF6                move.w     [A6 - 0xA], D0
00005948  486E FFF0                pea.l      [A6 - 0x10]
0000594C  A928                     syscall    InvalRect
0000594E  41EE FFF0                lea.l      A0, [A6 - 0x10]
00005952  43EE FFF8                lea.l      A1, [A6 - 0x8]
00005956  20D9                     move.l     [A0]+, [A1]+
00005958  20D9                     move.l     [A0]+, [A1]+
0000595A  302E FFF6                move.w     D0, [A6 - 0xA]
0000595E  9047                     sub.w      D0, D7
00005960  3D40 FFF2                move.w     [A6 - 0xE], D0
00005964  486E FFF0                pea.l      [A6 - 0x10]
00005968  A928                     syscall    InvalRect
label0000596A:
0000596A  4A2E 001F                tst.b      [A6 + 0x1F]
0000596E  6726                     beq        +0x28 /* 00005996 */
00005970  41EE FFF8                lea.l      A0, [A6 - 0x8]
00005974  43EE FFD8                lea.l      A1, [A6 - 0x28]
00005978  20D9                     move.l     [A0]+, [A1]+
0000597A  20D9                     move.l     [A0]+, [A1]+
0000597C  7010                     moveq.l    D0, 0x10
0000597E  C06E FFD2                and.w      D0, [A6 - 0x2E]
00005982  670C                     beq        +0xE /* 00005990 */
00005984  486E FFF8                pea.l      [A6 - 0x8]
00005988  70FD                     moveq.l    D0, 0xFFFFFFFD
0000598A  3F00                     move.w     -[A7], D0
0000598C  3F00                     move.w     -[A7], D0
0000598E  A8A9                     syscall    InsetRect
label00005990:
00005990  486E FFF8                pea.l      [A6 - 0x8]
00005994  A928                     syscall    InvalRect
label00005996:
00005996  4CEE 1080 FFCA           movem.l    D7,A4, [A6 - 0x36]
0000599C  4E5E                     unlink     A6
0000599E  4E75                     rts
fn000059A0:
000059A0  4E56 FFFC                link       A6, -0x0004
000059A4  48E7 0318                movem.l    -[A7], D6,D7,A3,A4
000059A8  266E 0008                movea.l    A3, [A6 + 0x8]
000059AC  286E 000C                movea.l    A4, [A6 + 0xC]
000059B0  2053                     movea.l    A0, [A3]
000059B2  2068 0166                movea.l    A0, [A0 + 0x166]
000059B6  2050                     movea.l    A0, [A0]
000059B8  4A28 0006                tst.b      [A0 + 0x6]
000059BC  672C                     beq        +0x2E /* 000059EA */
000059BE  2053                     movea.l    A0, [A3]
000059C0  2068 0166                movea.l    A0, [A0 + 0x166]
000059C4  2050                     movea.l    A0, [A0]
000059C6  2D48 FFFC                move.l     [A6 - 0x4], A0
000059CA  3C28 0004                move.w     D6, [A0 + 0x4]
000059CE  3E28 0002                move.w     D7, [A0 + 0x2]
000059D2  302C 0002                move.w     D0, [A4 + 0x2]
000059D6  48C0                     ext.l      D0
000059D8  81C6                     divs.w     D0, D6
000059DA  C1C6                     muls.w     D0, D6
000059DC  3940 0002                move.w     [A4 + 0x2], D0
000059E0  3014                     move.w     D0, [A4]
000059E2  48C0                     ext.l      D0
000059E4  81C7                     divs.w     D0, D7
000059E6  C1C7                     muls.w     D0, D7
000059E8  3880                     move.w     [A4], D0
label000059EA:
000059EA  4CEE 18C0 FFEC           movem.l    D6,D7,A3,A4, [A6 - 0x14]
000059F0  4E5E                     unlink     A6
000059F2  4E75                     rts
fn000059F4:
000059F4  4E56 FEE4                link       A6, -0x011C
000059F8  48E7 0018                movem.l    -[A7], A3,A4
000059FC  49EE FF00                lea.l      A4, [A6 - 0x100]
00005A00  558F                     subq.l     A7, 2
00005A02  3EB8 0900                move.w     [A7], [0x00000900 /* CurApRefNum */]
00005A06  A998                     syscall    UseResFile
00005A08  2F3C 444C 4F47           move.l     -[A7], 0x444C4F47 /* 'DLOG' */
00005A0E  3F3C 0596                move.w     -[A7], 0x596
00005A12  4EBA A772                jsr        [PC - 0x588E /* 00000186 */]
00005A16  598F                     subq.l     A7, 4
00005A18  3F3C 0596                move.w     -[A7], 0x596
00005A1C  7000                     moveq.l    D0, 0x00
00005A1E  2F00                     move.l     -[A7], D0
00005A20  72FF                     moveq.l    D1, 0xFFFFFFFF
00005A22  2F01                     move.l     -[A7], D1
00005A24  A97C                     syscall    GetNewDialog
00005A26  265F                     movea.l    A3, [A7]+
00005A28  4EBA A630                jsr        [PC - 0x59D0 /* 0000005A */]
00005A2C  200B                     move.l     D0, A3
00005A2E  6700 0132                beq        +0x134 /* 00005B62 */
00005A32  486E FEF8                pea.l      [A6 - 0x108]
00005A36  486E FEF0                pea.l      [A6 - 0x110]
00005A3A  486E FEE6                pea.l      [A6 - 0x11A]
00005A3E  7003                     moveq.l    D0, 0x03
00005A40  2F00                     move.l     -[A7], D0
00005A42  2F0B                     move.l     -[A7], A3
00005A44  4EBA 3002                jsr        [PC + 0x3002 /* 00008A48 */]
00005A48  206E 0008                movea.l    A0, [A6 + 0x8]
00005A4C  2050                     movea.l    A0, [A0]
00005A4E  2068 0166                movea.l    A0, [A0 + 0x166]
00005A52  2050                     movea.l    A0, [A0]
00005A54  3028 0002                move.w     D0, [A0 + 0x2]
00005A58  48C0                     ext.l      D0
00005A5A  2F00                     move.l     -[A7], D0
00005A5C  2F0C                     move.l     -[A7], A4
00005A5E  4EBA 3446                jsr        [PC + 0x3446 /* 00008EA6 */]
00005A62  2F2E FEF0                move.l     -[A7], [A6 - 0x110]
00005A66  2F0C                     move.l     -[A7], A4
00005A68  A98F                     syscall    SetDialogItemText/SetIText
00005A6A  2F0B                     move.l     -[A7], A3
00005A6C  7003                     moveq.l    D0, 0x03
00005A6E  3F00                     move.w     -[A7], D0
00005A70  7200                     moveq.l    D1, 0x00
00005A72  3F01                     move.w     -[A7], D1
00005A74  3F3C 7FFF                move.w     -[A7], 0x7FFF
00005A78  A97E                     syscall    SelectDialogItemText/SelIText
00005A7A  486E FEF8                pea.l      [A6 - 0x108]
00005A7E  486E FEF4                pea.l      [A6 - 0x10C]
00005A82  486E FEE6                pea.l      [A6 - 0x11A]
00005A86  7004                     moveq.l    D0, 0x04
00005A88  2F00                     move.l     -[A7], D0
00005A8A  2F0B                     move.l     -[A7], A3
00005A8C  4EBA 2FBA                jsr        [PC + 0x2FBA /* 00008A48 */]
00005A90  206E 0008                movea.l    A0, [A6 + 0x8]
00005A94  2050                     movea.l    A0, [A0]
00005A96  2068 0166                movea.l    A0, [A0 + 0x166]
00005A9A  2050                     movea.l    A0, [A0]
00005A9C  3028 0004                move.w     D0, [A0 + 0x4]
00005AA0  48C0                     ext.l      D0
00005AA2  2F00                     move.l     -[A7], D0
00005AA4  2F0C                     move.l     -[A7], A4
00005AA6  4EBA 33FE                jsr        [PC + 0x33FE /* 00008EA6 */]
00005AAA  2F2E FEF4                move.l     -[A7], [A6 - 0x10C]
00005AAE  2F0C                     move.l     -[A7], A4
00005AB0  A98F                     syscall    SetDialogItemText/SetIText
00005AB2  2F0B                     move.l     -[A7], A3
00005AB4  A915                     syscall    ShowWindow
00005AB6  4FEF 0028                lea.l      A7, [A7 + 0x28]
label00005ABA:
00005ABA  487A FA16                pea.l      [PC - 0x5EA /* 000054D2, value 0x4E560000 'NV\0\0', cstring "NV" */]
00005ABE  486E FEE4                pea.l      [A6 - 0x11C]
00005AC2  A991                     syscall    ModalDialog
00005AC4  7001                     moveq.l    D0, 0x01
00005AC6  B06E FEE4                cmp.w      D0, [A6 - 0x11C]
00005ACA  664C                     bne        +0x4E /* 00005B18 */
00005ACC  2F2E FEF0                move.l     -[A7], [A6 - 0x110]
00005AD0  2F0C                     move.l     -[A7], A4
00005AD2  A990                     syscall    GetDialogItemText/GetIText
00005AD4  2F0C                     move.l     -[A7], A4
00005AD6  486E FEE8                pea.l      [A6 - 0x118]
00005ADA  4EBA 33B6                jsr        [PC + 0x33B6 /* 00008E92 */]
00005ADE  2F2E FEF4                move.l     -[A7], [A6 - 0x10C]
00005AE2  2F0C                     move.l     -[A7], A4
00005AE4  A990                     syscall    GetDialogItemText/GetIText
00005AE6  2F0C                     move.l     -[A7], A4
00005AE8  486E FEEC                pea.l      [A6 - 0x114]
00005AEC  4EBA 33A4                jsr        [PC + 0x33A4 /* 00008E92 */]
00005AF0  4AAE FEE8                tst.l      [A6 - 0x118]
00005AF4  6706                     beq        +0x8 /* 00005AFC */
00005AF6  4AAE FEEC                tst.l      [A6 - 0x114]
00005AFA  661C                     bne        +0x1E /* 00005B18 */
label00005AFC:
00005AFC  558F                     subq.l     A7, 2
00005AFE  7001                     moveq.l    D0, 0x01
00005B00  1F00                     move.b     -[A7], D0
00005B02  487A 0068                pea.l      [PC + 0x68 /* 00005B6C, value 0xB444954, pstring "DITL alerts" */]
00005B06  7202                     moveq.l    D1, 0x02
00005B08  3F01                     move.w     -[A7], D1
00005B0A  4EBA A5FA                jsr        [PC - 0x5A06 /* 00000106 */]
00005B0E  4A1F                     tst.b      [A7]+
00005B10  6706                     beq        +0x8 /* 00005B18 */
00005B12  3D7C FFFF FEE4           move.w     [A6 - 0x11C], 0xFFFF
label00005B18:
00005B18  7001                     moveq.l    D0, 0x01
00005B1A  B06E FEE4                cmp.w      D0, [A6 - 0x11C]
00005B1E  6708                     beq        +0xA /* 00005B28 */
00005B20  7002                     moveq.l    D0, 0x02
00005B22  B06E FEE4                cmp.w      D0, [A6 - 0x11C]
00005B26  6692                     bne        -0x6C /* 00005ABA */
label00005B28:
00005B28  7001                     moveq.l    D0, 0x01
00005B2A  B06E FEE4                cmp.w      D0, [A6 - 0x11C]
00005B2E  662E                     bne        +0x30 /* 00005B5E */
00005B30  206E 0008                movea.l    A0, [A6 + 0x8]
00005B34  2050                     movea.l    A0, [A0]
00005B36  2068 0166                movea.l    A0, [A0 + 0x166]
00005B3A  2050                     movea.l    A0, [A0]
00005B3C  316E FEEA 0002           move.w     [A0 + 0x2], [A6 - 0x116]
00005B42  206E 0008                movea.l    A0, [A6 + 0x8]
00005B46  2050                     movea.l    A0, [A0]
00005B48  2068 0166                movea.l    A0, [A0 + 0x166]
00005B4C  2050                     movea.l    A0, [A0]
00005B4E  316E FEEE 0004           move.w     [A0 + 0x4], [A6 - 0x112]
00005B54  2F2E 0008                move.l     -[A7], [A6 + 0x8]
00005B58  4EBA AC6C                jsr        [PC - 0x5394 /* 000007C6 */]
00005B5C  584F                     addq.w     A7, 4
label00005B5E:
00005B5E  2F0B                     move.l     -[A7], A3
00005B60  A983                     syscall    DisposeDialog
label00005B62:
00005B62  4CEE 1800 FEDC           movem.l    A3,A4, [A6 - 0x124]
00005B68  4E5E                     unlink     A6
00005B6A  4E75                     rts
00005B6C  0B44                     bchg       D4, D5
00005B6E  4954                     chk.w      D4, [A4]
00005B70  4C20 616C                mulu.l     D6, -[A0]
00005B74  6572                     bcs        +0x74 /* 00005BE8 */
00005B76  7473                     moveq.l    D2, 0x73
00005B78  0000 4E56                ori.b      D0, 0x56 /* 'V' */
// begin alternate branch 00005B7A-00005B7E
fn00005B7A:
00005B7A  4E56 FFF0                link       A6, -0x0010
// end alternate branch 00005B7A-00005B7E
fn00005B7A: // (misaligned)
00005B7C  FFF0                     .invalid   <<F/7/7>>
00005B7E  48E7 0318                movem.l    -[A7], D6,D7,A3,A4
00005B82  486E FFF8                pea.l      [A6 - 0x8]
00005B86  7000                     moveq.l    D0, 0x00
00005B88  3F00                     move.w     -[A7], D0
00005B8A  3F00                     move.w     -[A7], D0
00005B8C  2F3C 00C8 00C8           move.l     -[A7], 0xC800C8
00005B92  A8A7                     syscall    SetRect
00005B94  206E 0008                movea.l    A0, [A6 + 0x8]
00005B98  2050                     movea.l    A0, [A0]
00005B9A  4A68 0150                tst.w      [A0 + 0x150]
00005B9E  6610                     bne        +0x12 /* 00005BB0 */
00005BA0  206E 000C                movea.l    A0, [A6 + 0xC]
00005BA4  43EE FFF8                lea.l      A1, [A6 - 0x8]
00005BA8  20D9                     move.l     [A0]+, [A1]+
00005BAA  20D9                     move.l     [A0]+, [A1]+
00005BAC  6000 009C                bra        +0x9E /* 00005C4A */
label00005BB0:
00005BB0  4206                     clr.b      D6
00005BB2  206E 0008                movea.l    A0, [A6 + 0x8]
00005BB6  2050                     movea.l    A0, [A0]
00005BB8  2068 015E                movea.l    A0, [A0 + 0x15E]
00005BBC  2850                     movea.l    A4, [A0]
00005BBE  7E01                     moveq.l    D7, 0x01
00005BC0  606E                     bra        +0x70 /* 00005C30 */
label00005BC2:
00005BC2  486E FFF4                pea.l      [A6 - 0xC]
00005BC6  486E FFF0                pea.l      [A6 - 0x10]
00005BCA  48C7                     ext.l      D7
00005BCC  2F07                     move.l     -[A7], D7
00005BCE  206E 0008                movea.l    A0, [A6 + 0x8]
00005BD2  2050                     movea.l    A0, [A0]
00005BD4  2F28 0114                move.l     -[A7], [A0 + 0x114]
00005BD8  4EBA 2DA8                jsr        [PC + 0x2DA8 /* 00008982 */]
00005BDC  206E 0008                movea.l    A0, [A6 + 0x8]
00005BE0  2050                     movea.l    A0, [A0]
00005BE2  2068 0114                movea.l    A0, [A0 + 0x114]
00005BE6  2850                     movea.l    A4, [A0]
label00005BE8:
00005BE8  202E FFF0                move.l     D0, [A6 - 0x10]
00005BEC  47F4 0800                lea.l      A3, [A4 + D0]
00005BF0  7000                     moveq.l    D0, 0x00
00005BF2  102B 000C                move.b     D0, [A3 + 0xC]
00005BF6  323C FF7F                move.w     D1, 0xFF7F
00005BFA  C240                     and.w      D1, D0
00005BFC  7000                     moveq.l    D0, 0x00
00005BFE  3001                     move.w     D0, D1
00005C00  7201                     moveq.l    D1, 0x01
00005C02  B280                     cmp.l      D1, D0
00005C04  4FEF 0010                lea.l      A7, [A7 + 0x10]
00005C08  6722                     beq        +0x24 /* 00005C2C */
00005C0A  4A06                     tst.b      D6
00005C0C  6610                     bne        +0x12 /* 00005C1E */
00005C0E  7C01                     moveq.l    D6, 0x01
00005C10  206E 000C                movea.l    A0, [A6 + 0xC]
00005C14  224B                     movea.l    A1, A3
00005C16  5889                     addq.l     A1, 4
00005C18  20D9                     move.l     [A0]+, [A1]+
00005C1A  20D9                     move.l     [A0]+, [A1]+
00005C1C  600E                     bra        +0x10 /* 00005C2C */
label00005C1E:
00005C1E  486B 0004                pea.l      [A3 + 0x4]
00005C22  2F2E 000C                move.l     -[A7], [A6 + 0xC]
00005C26  2F2E 000C                move.l     -[A7], [A6 + 0xC]
00005C2A  A8AB                     syscall    UnionRect
label00005C2C:
00005C2C  3007                     move.w     D0, D7
00005C2E  5247                     addq.w     D7, 1
label00005C30:
00005C30  206E 0008                movea.l    A0, [A6 + 0x8]
00005C34  2050                     movea.l    A0, [A0]
00005C36  BE68 0150                cmp.w      D7, [A0 + 0x150]
00005C3A  6F86                     ble        -0x78 /* 00005BC2 */
00005C3C  2F2E 000C                move.l     -[A7], [A6 + 0xC]
00005C40  486E FFF8                pea.l      [A6 - 0x8]
00005C44  2F2E 000C                move.l     -[A7], [A6 + 0xC]
00005C48  A8AB                     syscall    UnionRect
label00005C4A:
00005C4A  4CEE 18C0 FFE0           movem.l    D6,D7,A3,A4, [A6 - 0x20]
00005C50  4E5E                     unlink     A6
00005C52  4E75                     rts
fn00005C54:
00005C54  4E56 FFE8                link       A6, -0x0018
00005C58  48E7 1F18                movem.l    -[A7], D3,D4,D5,D6,D7,A3,A4
00005C5C  382E 000E                move.w     D4, [A6 + 0xE]
00005C60  266E 0008                movea.l    A3, [A6 + 0x8]
00005C64  3004                     move.w     D0, D4
00005C66  7002                     moveq.l    D0, 0x02
00005C68  2F00                     move.l     -[A7], D0
00005C6A  2F0B                     move.l     -[A7], A3
00005C6C  4EBA 0C56                jsr        [PC + 0xC56 /* 000068C4 */]
00005C70  504F                     addq.w     A7, 8
00005C72  3A3C 7FFF                move.w     D5, 0x7FFF
00005C76  3C3C 8001                move.w     D6, 0x8001
00005C7A  4247                     clr.w      D7
00005C7C  2053                     movea.l    A0, [A3]
00005C7E  2068 015E                movea.l    A0, [A0 + 0x15E]
00005C82  2850                     movea.l    A4, [A0]
00005C84  7E01                     moveq.l    D7, 0x01
00005C86  6000 0086                bra        +0x88 /* 00005D0E */
label00005C8A:
00005C8A  48C7                     ext.l      D7
00005C8C  2007                     move.l     D0, D7
00005C8E  E580                     asl        D0, 2
00005C90  4A74 0800                tst.w      [A4 + D0]
00005C94  6774                     beq        +0x76 /* 00005D0A */
00005C96  486E FFF8                pea.l      [A6 - 0x8]
00005C9A  486E FFF4                pea.l      [A6 - 0xC]
00005C9E  486E FFF2                pea.l      [A6 - 0xE]
00005CA2  48C7                     ext.l      D7
00005CA4  2F07                     move.l     -[A7], D7
00005CA6  2053                     movea.l    A0, [A3]
00005CA8  2F28 0104                move.l     -[A7], [A0 + 0x104]
00005CAC  4EBA 2D9A                jsr        [PC + 0x2D9A /* 00008A48 */]
00005CB0  3004                     move.w     D0, D4
00005CB2  5340                     subq.w     D0, 1
00005CB4  4FEF 0014                lea.l      A7, [A7 + 0x14]
00005CB8  670E                     beq        +0x10 /* 00005CC8 */
00005CBA  5340                     subq.w     D0, 1
00005CBC  6716                     beq        +0x18 /* 00005CD4 */
00005CBE  5740                     subq.w     D0, 3
00005CC0  671E                     beq        +0x20 /* 00005CE0 */
00005CC2  5940                     subq.w     D0, 4
00005CC4  6730                     beq        +0x32 /* 00005CF6 */
00005CC6  6042                     bra        +0x44 /* 00005D0A */
label00005CC8:
00005CC8  BA6E FFFA                cmp.w      D5, [A6 - 0x6]
00005CCC  6F3C                     ble        +0x3E /* 00005D0A */
00005CCE  3A2E FFFA                move.w     D5, [A6 - 0x6]
00005CD2  6036                     bra        +0x38 /* 00005D0A */
label00005CD4:
00005CD4  BC6E FFFE                cmp.w      D6, [A6 - 0x2]
00005CD8  6C30                     bge        +0x32 /* 00005D0A */
00005CDA  3C2E FFFE                move.w     D6, [A6 - 0x2]
00005CDE  602A                     bra        +0x2C /* 00005D0A */
label00005CE0:
00005CE0  BA6E FFFA                cmp.w      D5, [A6 - 0x6]
00005CE4  6F04                     ble        +0x6 /* 00005CEA */
00005CE6  3A2E FFFA                move.w     D5, [A6 - 0x6]
label00005CEA:
00005CEA  BC6E FFFE                cmp.w      D6, [A6 - 0x2]
00005CEE  6C1A                     bge        +0x1C /* 00005D0A */
00005CF0  3C2E FFFE                move.w     D6, [A6 - 0x2]
00005CF4  6014                     bra        +0x16 /* 00005D0A */
label00005CF6:
00005CF6  2053                     movea.l    A0, [A3]
00005CF8  2068 0104                movea.l    A0, [A0 + 0x104]
00005CFC  3A28 0012                move.w     D5, [A0 + 0x12]
00005D00  2053                     movea.l    A0, [A3]
00005D02  2068 0104                movea.l    A0, [A0 + 0x104]
00005D06  3C28 0016                move.w     D6, [A0 + 0x16]
label00005D0A:
00005D0A  3007                     move.w     D0, D7
00005D0C  5247                     addq.w     D7, 1
label00005D0E:
00005D0E  2053                     movea.l    A0, [A3]
00005D10  BE68 0150                cmp.w      D7, [A0 + 0x150]
00005D14  6F00 FF74                ble        -0x8A /* 00005C8A */
00005D18  48C5                     ext.l      D5
00005D1A  48C6                     ext.l      D6
00005D1C  2005                     move.l     D0, D5
00005D1E  D086                     add.l      D0, D6
00005D20  7202                     moveq.l    D1, 0x02
00005D22  4EBA 2E8E                jsr        [PC + 0x2E8E /* 00008BB2 */]
00005D26  3D40 FFEC                move.w     [A6 - 0x14], D0
00005D2A  7E01                     moveq.l    D7, 0x01
00005D2C  6000 011C                bra        +0x11E /* 00005E4A */
label00005D30:
00005D30  48C7                     ext.l      D7
00005D32  2007                     move.l     D0, D7
00005D34  E580                     asl        D0, 2
00005D36  4A74 0800                tst.w      [A4 + D0]
00005D3A  6700 010A                beq        +0x10C /* 00005E46 */
00005D3E  486E FFF8                pea.l      [A6 - 0x8]
00005D42  486E FFF4                pea.l      [A6 - 0xC]
00005D46  486E FFF2                pea.l      [A6 - 0xE]
00005D4A  48C7                     ext.l      D7
00005D4C  2F07                     move.l     -[A7], D7
00005D4E  2053                     movea.l    A0, [A3]
00005D50  2F28 0104                move.l     -[A7], [A0 + 0x104]
00005D54  4EBA 2CF2                jsr        [PC + 0x2CF2 /* 00008A48 */]
00005D58  3004                     move.w     D0, D4
00005D5A  5340                     subq.w     D0, 1
00005D5C  4FEF 0014                lea.l      A7, [A7 + 0x14]
00005D60  6712                     beq        +0x14 /* 00005D74 */
00005D62  5340                     subq.w     D0, 1
00005D64  6732                     beq        +0x34 /* 00005D98 */
00005D66  5740                     subq.w     D0, 3
00005D68  6752                     beq        +0x54 /* 00005DBC */
00005D6A  5940                     subq.w     D0, 4
00005D6C  6700 008A                beq        +0x8C /* 00005DF8 */
00005D70  6000 00D4                bra        +0xD6 /* 00005E46 */
label00005D74:
00005D74  7000                     moveq.l    D0, 0x00
00005D76  2F00                     move.l     -[A7], D0
00005D78  48C5                     ext.l      D5
00005D7A  322E FFFA                move.w     D1, [A6 - 0x6]
00005D7E  48C1                     ext.l      D1
00005D80  2405                     move.l     D2, D5
00005D82  9481                     sub.l      D2, D1
00005D84  2F02                     move.l     -[A7], D2
00005D86  48C7                     ext.l      D7
00005D88  2F07                     move.l     -[A7], D7
00005D8A  2F0B                     move.l     -[A7], A3
00005D8C  4EBA E07E                jsr        [PC - 0x1F82 /* 00003E0C */]
00005D90  4FEF 0010                lea.l      A7, [A7 + 0x10]
00005D94  6000 00B0                bra        +0xB2 /* 00005E46 */
label00005D98:
00005D98  7000                     moveq.l    D0, 0x00
00005D9A  2F00                     move.l     -[A7], D0
00005D9C  48C6                     ext.l      D6
00005D9E  322E FFFE                move.w     D1, [A6 - 0x2]
00005DA2  48C1                     ext.l      D1
00005DA4  2406                     move.l     D2, D6
00005DA6  9481                     sub.l      D2, D1
00005DA8  2F02                     move.l     -[A7], D2
00005DAA  48C7                     ext.l      D7
00005DAC  2F07                     move.l     -[A7], D7
00005DAE  2F0B                     move.l     -[A7], A3
00005DB0  4EBA E05A                jsr        [PC - 0x1FA6 /* 00003E0C */]
00005DB4  4FEF 0010                lea.l      A7, [A7 + 0x10]
00005DB8  6000 008C                bra        +0x8E /* 00005E46 */
label00005DBC:
00005DBC  7000                     moveq.l    D0, 0x00
00005DBE  2F00                     move.l     -[A7], D0
00005DC0  322E FFEC                move.w     D1, [A6 - 0x14]
00005DC4  48C1                     ext.l      D1
00005DC6  342E FFFA                move.w     D2, [A6 - 0x6]
00005DCA  48C2                     ext.l      D2
00005DCC  362E FFFE                move.w     D3, [A6 - 0x2]
00005DD0  48C3                     ext.l      D3
00005DD2  D682                     add.l      D3, D2
00005DD4  2003                     move.l     D0, D3
00005DD6  2D41 FFE8                move.l     [A6 - 0x18], D1
00005DDA  7202                     moveq.l    D1, 0x02
00005DDC  4EBA 2DD4                jsr        [PC + 0x2DD4 /* 00008BB2 */]
00005DE0  222E FFE8                move.l     D1, [A6 - 0x18]
00005DE4  9280                     sub.l      D1, D0
00005DE6  2F01                     move.l     -[A7], D1
00005DE8  48C7                     ext.l      D7
00005DEA  2F07                     move.l     -[A7], D7
00005DEC  2F0B                     move.l     -[A7], A3
00005DEE  4EBA E01C                jsr        [PC - 0x1FE4 /* 00003E0C */]
00005DF2  4FEF 0010                lea.l      A7, [A7 + 0x10]
00005DF6  604E                     bra        +0x50 /* 00005E46 */
label00005DF8:
00005DF8  48C5                     ext.l      D5
00005DFA  48C6                     ext.l      D6
00005DFC  2005                     move.l     D0, D5
00005DFE  D086                     add.l      D0, D6
00005E00  7202                     moveq.l    D1, 0x02
00005E02  4EBA 2DAE                jsr        [PC + 0x2DAE /* 00008BB2 */]
00005E06  3D40 FFEE                move.w     [A6 - 0x12], D0
00005E0A  302E FFFA                move.w     D0, [A6 - 0x6]
00005E0E  48C0                     ext.l      D0
00005E10  322E FFFE                move.w     D1, [A6 - 0x2]
00005E14  48C1                     ext.l      D1
00005E16  D280                     add.l      D1, D0
00005E18  2001                     move.l     D0, D1
00005E1A  7202                     moveq.l    D1, 0x02
00005E1C  4EBA 2D94                jsr        [PC + 0x2D94 /* 00008BB2 */]
00005E20  3D40 FFF0                move.w     [A6 - 0x10], D0
00005E24  7000                     moveq.l    D0, 0x00
00005E26  2F00                     move.l     -[A7], D0
00005E28  322E FFEE                move.w     D1, [A6 - 0x12]
00005E2C  48C1                     ext.l      D1
00005E2E  342E FFF0                move.w     D2, [A6 - 0x10]
00005E32  48C2                     ext.l      D2
00005E34  9282                     sub.l      D1, D2
00005E36  2F01                     move.l     -[A7], D1
00005E38  48C7                     ext.l      D7
00005E3A  2F07                     move.l     -[A7], D7
00005E3C  2F0B                     move.l     -[A7], A3
00005E3E  4EBA DFCC                jsr        [PC - 0x2034 /* 00003E0C */]
00005E42  4FEF 0010                lea.l      A7, [A7 + 0x10]
label00005E46:
00005E46  3007                     move.w     D0, D7
00005E48  5247                     addq.w     D7, 1
label00005E4A:
00005E4A  2053                     movea.l    A0, [A3]
00005E4C  BE68 0150                cmp.w      D7, [A0 + 0x150]
00005E50  6F00 FEDE                ble        -0x120 /* 00005D30 */
00005E54  4CEE 18F8 FFCC           movem.l    D3,D4,D5,D6,D7,A3,A4, [A6 - 0x34]
00005E5A  4E5E                     unlink     A6
00005E5C  4E75                     rts
fn00005E5E:
00005E5E  4E56 FFE8                link       A6, -0x0018
00005E62  48E7 0F18                movem.l    -[A7], D4,D5,D6,D7,A3,A4
00005E66  382E 000E                move.w     D4, [A6 + 0xE]
00005E6A  266E 0008                movea.l    A3, [A6 + 0x8]
00005E6E  3A3C 7FFF                move.w     D5, 0x7FFF
00005E72  3C3C 8001                move.w     D6, 0x8001
00005E76  7002                     moveq.l    D0, 0x02
00005E78  2F00                     move.l     -[A7], D0
00005E7A  2F0B                     move.l     -[A7], A3
00005E7C  4EBA 0A46                jsr        [PC + 0xA46 /* 000068C4 */]
00005E80  2053                     movea.l    A0, [A3]
00005E82  2068 015E                movea.l    A0, [A0 + 0x15E]
00005E86  2850                     movea.l    A4, [A0]
00005E88  7E01                     moveq.l    D7, 0x01
00005E8A  504F                     addq.w     A7, 8
00005E8C  6000 0086                bra        +0x88 /* 00005F14 */
label00005E90:
00005E90  48C7                     ext.l      D7
00005E92  2007                     move.l     D0, D7
00005E94  E580                     asl        D0, 2
00005E96  4A74 0800                tst.w      [A4 + D0]
00005E9A  6774                     beq        +0x76 /* 00005F10 */
00005E9C  486E FFF8                pea.l      [A6 - 0x8]
00005EA0  486E FFF4                pea.l      [A6 - 0xC]
00005EA4  486E FFF2                pea.l      [A6 - 0xE]
00005EA8  48C7                     ext.l      D7
00005EAA  2F07                     move.l     -[A7], D7
00005EAC  2053                     movea.l    A0, [A3]
00005EAE  2F28 0104                move.l     -[A7], [A0 + 0x104]
00005EB2  4EBA 2B94                jsr        [PC + 0x2B94 /* 00008A48 */]
00005EB6  3004                     move.w     D0, D4
00005EB8  5740                     subq.w     D0, 3
00005EBA  4FEF 0014                lea.l      A7, [A7 + 0x14]
00005EBE  670E                     beq        +0x10 /* 00005ECE */
00005EC0  5340                     subq.w     D0, 1
00005EC2  6716                     beq        +0x18 /* 00005EDA */
00005EC4  5540                     subq.w     D0, 2
00005EC6  671E                     beq        +0x20 /* 00005EE6 */
00005EC8  5540                     subq.w     D0, 2
00005ECA  6730                     beq        +0x32 /* 00005EFC */
00005ECC  6042                     bra        +0x44 /* 00005F10 */
label00005ECE:
00005ECE  BA6E FFF8                cmp.w      D5, [A6 - 0x8]
00005ED2  6F3C                     ble        +0x3E /* 00005F10 */
00005ED4  3A2E FFF8                move.w     D5, [A6 - 0x8]
00005ED8  6036                     bra        +0x38 /* 00005F10 */
label00005EDA:
00005EDA  BC6E FFFC                cmp.w      D6, [A6 - 0x4]
00005EDE  6C30                     bge        +0x32 /* 00005F10 */
00005EE0  3C2E FFFC                move.w     D6, [A6 - 0x4]
00005EE4  602A                     bra        +0x2C /* 00005F10 */
label00005EE6:
00005EE6  BA6E FFF8                cmp.w      D5, [A6 - 0x8]
00005EEA  6F04                     ble        +0x6 /* 00005EF0 */
00005EEC  3A2E FFF8                move.w     D5, [A6 - 0x8]
label00005EF0:
00005EF0  BC6E FFFC                cmp.w      D6, [A6 - 0x4]
00005EF4  6C1A                     bge        +0x1C /* 00005F10 */
00005EF6  3C2E FFFC                move.w     D6, [A6 - 0x4]
00005EFA  6014                     bra        +0x16 /* 00005F10 */
label00005EFC:
00005EFC  2053                     movea.l    A0, [A3]
00005EFE  2068 0104                movea.l    A0, [A0 + 0x104]
00005F02  3A28 0010                move.w     D5, [A0 + 0x10]
00005F06  2053                     movea.l    A0, [A3]
00005F08  2068 0104                movea.l    A0, [A0 + 0x104]
00005F0C  3C28 0014                move.w     D6, [A0 + 0x14]
label00005F10:
00005F10  3007                     move.w     D0, D7
00005F12  5247                     addq.w     D7, 1
label00005F14:
00005F14  2053                     movea.l    A0, [A3]
00005F16  BE68 0150                cmp.w      D7, [A0 + 0x150]
00005F1A  6F00 FF74                ble        -0x8A /* 00005E90 */
00005F1E  48C5                     ext.l      D5
00005F20  48C6                     ext.l      D6
00005F22  2005                     move.l     D0, D5
00005F24  D086                     add.l      D0, D6
00005F26  7202                     moveq.l    D1, 0x02
00005F28  4EBA 2C88                jsr        [PC + 0x2C88 /* 00008BB2 */]
00005F2C  3D40 FFEC                move.w     [A6 - 0x14], D0
00005F30  7E01                     moveq.l    D7, 0x01
00005F32  6000 011C                bra        +0x11E /* 00006050 */
label00005F36:
00005F36  48C7                     ext.l      D7
00005F38  2007                     move.l     D0, D7
00005F3A  E580                     asl        D0, 2
00005F3C  4A74 0800                tst.w      [A4 + D0]
00005F40  6700 010A                beq        +0x10C /* 0000604C */
00005F44  486E FFF8                pea.l      [A6 - 0x8]
00005F48  486E FFF4                pea.l      [A6 - 0xC]
00005F4C  486E FFF2                pea.l      [A6 - 0xE]
00005F50  48C7                     ext.l      D7
00005F52  2F07                     move.l     -[A7], D7
00005F54  2053                     movea.l    A0, [A3]
00005F56  2F28 0104                move.l     -[A7], [A0 + 0x104]
00005F5A  4EBA 2AEC                jsr        [PC + 0x2AEC /* 00008A48 */]
00005F5E  3004                     move.w     D0, D4
00005F60  5740                     subq.w     D0, 3
00005F62  4FEF 0014                lea.l      A7, [A7 + 0x14]
00005F66  6712                     beq        +0x14 /* 00005F7A */
00005F68  5340                     subq.w     D0, 1
00005F6A  6732                     beq        +0x34 /* 00005F9E */
00005F6C  5540                     subq.w     D0, 2
00005F6E  6752                     beq        +0x54 /* 00005FC2 */
00005F70  5540                     subq.w     D0, 2
00005F72  6700 008A                beq        +0x8C /* 00005FFE */
00005F76  6000 00D4                bra        +0xD6 /* 0000604C */
label00005F7A:
00005F7A  48C5                     ext.l      D5
00005F7C  302E FFF8                move.w     D0, [A6 - 0x8]
00005F80  48C0                     ext.l      D0
00005F82  2205                     move.l     D1, D5
00005F84  9280                     sub.l      D1, D0
00005F86  2F01                     move.l     -[A7], D1
00005F88  7000                     moveq.l    D0, 0x00
00005F8A  2F00                     move.l     -[A7], D0
00005F8C  48C7                     ext.l      D7
00005F8E  2F07                     move.l     -[A7], D7
00005F90  2F0B                     move.l     -[A7], A3
00005F92  4EBA DE78                jsr        [PC - 0x2188 /* 00003E0C */]
00005F96  4FEF 0010                lea.l      A7, [A7 + 0x10]
00005F9A  6000 00B0                bra        +0xB2 /* 0000604C */
label00005F9E:
00005F9E  48C6                     ext.l      D6
00005FA0  302E FFFC                move.w     D0, [A6 - 0x4]
00005FA4  48C0                     ext.l      D0
00005FA6  2206                     move.l     D1, D6
00005FA8  9280                     sub.l      D1, D0
00005FAA  2F01                     move.l     -[A7], D1
00005FAC  7000                     moveq.l    D0, 0x00
00005FAE  2F00                     move.l     -[A7], D0
00005FB0  48C7                     ext.l      D7
00005FB2  2F07                     move.l     -[A7], D7
00005FB4  2F0B                     move.l     -[A7], A3
00005FB6  4EBA DE54                jsr        [PC - 0x21AC /* 00003E0C */]
00005FBA  4FEF 0010                lea.l      A7, [A7 + 0x10]
00005FBE  6000 008C                bra        +0x8E /* 0000604C */
label00005FC2:
00005FC2  302E FFEC                move.w     D0, [A6 - 0x14]
00005FC6  48C0                     ext.l      D0
00005FC8  322E FFFC                move.w     D1, [A6 - 0x4]
00005FCC  48C1                     ext.l      D1
00005FCE  342E FFF8                move.w     D2, [A6 - 0x8]
00005FD2  48C2                     ext.l      D2
00005FD4  D481                     add.l      D2, D1
00005FD6  2D40 FFE8                move.l     [A6 - 0x18], D0
00005FDA  2002                     move.l     D0, D2
00005FDC  7202                     moveq.l    D1, 0x02
00005FDE  4EBA 2BD2                jsr        [PC + 0x2BD2 /* 00008BB2 */]
00005FE2  222E FFE8                move.l     D1, [A6 - 0x18]
00005FE6  9280                     sub.l      D1, D0
00005FE8  2F01                     move.l     -[A7], D1
00005FEA  7000                     moveq.l    D0, 0x00
00005FEC  2F00                     move.l     -[A7], D0
00005FEE  48C7                     ext.l      D7
00005FF0  2F07                     move.l     -[A7], D7
00005FF2  2F0B                     move.l     -[A7], A3
00005FF4  4EBA DE16                jsr        [PC - 0x21EA /* 00003E0C */]
00005FF8  4FEF 0010                lea.l      A7, [A7 + 0x10]
00005FFC  604E                     bra        +0x50 /* 0000604C */
label00005FFE:
00005FFE  48C6                     ext.l      D6
00006000  48C5                     ext.l      D5
00006002  2006                     move.l     D0, D6
00006004  D085                     add.l      D0, D5
00006006  7202                     moveq.l    D1, 0x02
00006008  4EBA 2BA8                jsr        [PC + 0x2BA8 /* 00008BB2 */]
0000600C  3D40 FFEE                move.w     [A6 - 0x12], D0
00006010  302E FFFC                move.w     D0, [A6 - 0x4]
00006014  48C0                     ext.l      D0
00006016  322E FFF8                move.w     D1, [A6 - 0x8]
0000601A  48C1                     ext.l      D1
0000601C  D280                     add.l      D1, D0
0000601E  2001                     move.l     D0, D1
00006020  7202                     moveq.l    D1, 0x02
00006022  4EBA 2B8E                jsr        [PC + 0x2B8E /* 00008BB2 */]
00006026  3D40 FFF0                move.w     [A6 - 0x10], D0
0000602A  302E FFEE                move.w     D0, [A6 - 0x12]
0000602E  48C0                     ext.l      D0
00006030  322E FFF0                move.w     D1, [A6 - 0x10]
00006034  48C1                     ext.l      D1
00006036  9081                     sub.l      D0, D1
00006038  2F00                     move.l     -[A7], D0
0000603A  7000                     moveq.l    D0, 0x00
0000603C  2F00                     move.l     -[A7], D0
0000603E  48C7                     ext.l      D7
00006040  2F07                     move.l     -[A7], D7
00006042  2F0B                     move.l     -[A7], A3
00006044  4EBA DDC6                jsr        [PC - 0x223A /* 00003E0C */]
00006048  4FEF 0010                lea.l      A7, [A7 + 0x10]
label0000604C:
0000604C  3007                     move.w     D0, D7
0000604E  5247                     addq.w     D7, 1
label00006050:
00006050  2053                     movea.l    A0, [A3]
00006052  BE68 0150                cmp.w      D7, [A0 + 0x150]
00006056  6F00 FEDE                ble        -0x120 /* 00005F36 */
0000605A  4CEE 18F0 FFD0           movem.l    D4,D5,D6,D7,A3,A4, [A6 - 0x30]
00006060  4E5E                     unlink     A6
00006062  4E75                     rts
fn00006064:
00006064  4E56 FFF8                link       A6, -0x0008
00006068  48E7 0F38                movem.l    -[A7], D4,D5,D6,D7,A2,A3,A4
0000606C  286E 0008                movea.l    A4, [A6 + 0x8]
00006070  4246                     clr.w      D6
00006072  4247                     clr.w      D7
00006074  2054                     movea.l    A0, [A4]
00006076  2F28 0104                move.l     -[A7], [A0 + 0x104]
0000607A  7000                     moveq.l    D0, 0x00
0000607C  1F00                     move.b     -[A7], D0
0000607E  A908                     syscall    ShowHide
00006080  2054                     movea.l    A0, [A4]
00006082  4A28 01CA                tst.b      [A0 + 0x1CA]
00006086  6762                     beq        +0x64 /* 000060EA */
00006088  2648                     movea.l    A3, A0
0000608A  206B 0104                movea.l    A0, [A3 + 0x104]
0000608E  43EB 016E                lea.l      A1, [A3 + 0x16E]
00006092  45E8 0010                lea.l      A2, [A0 + 0x10]
00006096  24D9                     move.l     [A2]+, [A1]+
00006098  24D9                     move.l     [A2]+, [A1]+
0000609A  2054                     movea.l    A0, [A4]
0000609C  2248                     movea.l    A1, A0
0000609E  2269 0104                movea.l    A1, [A1 + 0x104]
000060A2  3029 000A                move.w     D0, [A1 + 0xA]
000060A6  48C0                     ext.l      D0
000060A8  4480                     neg.l      D0
000060AA  3228 01E8                move.w     D1, [A0 + 0x1E8]
000060AE  48C1                     ext.l      D1
000060B0  B081                     cmp.l      D0, D1
000060B2  6618                     bne        +0x1A /* 000060CC */
000060B4  2248                     movea.l    A1, A0
000060B6  2269 0104                movea.l    A1, [A1 + 0x104]
000060BA  3029 0008                move.w     D0, [A1 + 0x8]
000060BE  48C0                     ext.l      D0
000060C0  4480                     neg.l      D0
000060C2  3228 01EA                move.w     D1, [A0 + 0x1EA]
000060C6  48C1                     ext.l      D1
000060C8  B081                     cmp.l      D0, D1
000060CA  6714                     beq        +0x16 /* 000060E0 */
label000060CC:
000060CC  2054                     movea.l    A0, [A4]
000060CE  2F28 0104                move.l     -[A7], [A0 + 0x104]
000060D2  3F28 01E8                move.w     -[A7], [A0 + 0x1E8]
000060D6  3F28 01EA                move.w     -[A7], [A0 + 0x1EA]
000060DA  7001                     moveq.l    D0, 0x01
000060DC  1F00                     move.b     -[A7], D0
000060DE  A91B                     syscall    MoveWindow
label000060E0:
000060E0  2054                     movea.l    A0, [A4]
000060E2  4228 01CA                clr.b      [A0 + 0x1CA]
000060E6  6000 00EE                bra        +0xF0 /* 000061D6 */
label000060EA:
000060EA  2054                     movea.l    A0, [A4]
000060EC  2668 0104                movea.l    A3, [A0 + 0x104]
000060F0  382B 000A                move.w     D4, [A3 + 0xA]
000060F4  3A2B 0008                move.w     D5, [A3 + 0x8]
000060F8  48C4                     ext.l      D4
000060FA  2004                     move.l     D0, D4
000060FC  4480                     neg.l      D0
000060FE  3140 01E8                move.w     [A0 + 0x1E8], D0
00006102  48C5                     ext.l      D5
00006104  2005                     move.l     D0, D5
00006106  4480                     neg.l      D0
00006108  2054                     movea.l    A0, [A4]
0000610A  3140 01EA                move.w     [A0 + 0x1EA], D0
0000610E  486E FFF8                pea.l      [A6 - 0x8]
00006112  2F0C                     move.l     -[A7], A4
00006114  4EBA FA64                jsr        [PC - 0x59C /* 00005B7A */]
00006118  4A6E FFF8                tst.w      [A6 - 0x8]
0000611C  504F                     addq.w     A7, 8
0000611E  6D06                     blt        +0x8 /* 00006126 */
00006120  4A6E FFFA                tst.w      [A6 - 0x6]
00006124  6C0E                     bge        +0x10 /* 00006134 */
label00006126:
00006126  486E FFF8                pea.l      [A6 - 0x8]
0000612A  70F6                     moveq.l    D0, 0xFFFFFFF6
0000612C  3F00                     move.w     -[A7], D0
0000612E  3F00                     move.w     -[A7], D0
00006130  A8A9                     syscall    InsetRect
00006132  600C                     bra        +0xE /* 00006140 */
label00006134:
00006134  066E 000A FFFC           addi.w     [A6 - 0x4], 0xA /* '\n' */
0000613A  066E 000A FFFE           addi.w     [A6 - 0x2], 0xA /* '\n' */
label00006140:
00006140  48C5                     ext.l      D5
00006142  3038 0BAA                move.w     D0, [0x00000BAA /* MBarHeight */]
00006146  48C0                     ext.l      D0
00006148  D085                     add.l      D0, D5
0000614A  7219                     moveq.l    D1, 0x19
0000614C  D081                     add.l      D0, D1
0000614E  342E FFF8                move.w     D2, [A6 - 0x8]
00006152  48C2                     ext.l      D2
00006154  B082                     cmp.l      D0, D2
00006156  6F14                     ble        +0x16 /* 0000616C */
00006158  48C5                     ext.l      D5
0000615A  3038 0BAA                move.w     D0, [0x00000BAA /* MBarHeight */]
0000615E  48C0                     ext.l      D0
00006160  D085                     add.l      D0, D5
00006162  7219                     moveq.l    D1, 0x19
00006164  D081                     add.l      D0, D1
00006166  3E00                     move.w     D7, D0
00006168  9E6E FFF8                sub.w      D7, [A6 - 0x8]
label0000616C:
0000616C  B86E FFFA                cmp.w      D4, [A6 - 0x6]
00006170  6F0E                     ble        +0x10 /* 00006180 */
00006172  48C4                     ext.l      D4
00006174  2004                     move.l     D0, D4
00006176  720A                     moveq.l    D1, 0x0A
00006178  D081                     add.l      D0, D1
0000617A  3C00                     move.w     D6, D0
0000617C  9C6E FFFA                sub.w      D6, [A6 - 0x6]
label00006180:
00006180  4A47                     tst.w      D7
00006182  6604                     bne        +0x6 /* 00006188 */
00006184  4A46                     tst.w      D6
00006186  671C                     beq        +0x1E /* 000061A4 */
label00006188:
00006188  2054                     movea.l    A0, [A4]
0000618A  2F28 0104                move.l     -[A7], [A0 + 0x104]
0000618E  3006                     move.w     D0, D6
00006190  D068 01E8                add.w      D0, [A0 + 0x1E8]
00006194  3F00                     move.w     -[A7], D0
00006196  3007                     move.w     D0, D7
00006198  D068 01EA                add.w      D0, [A0 + 0x1EA]
0000619C  3F00                     move.w     -[A7], D0
0000619E  7001                     moveq.l    D0, 0x01
000061A0  1F00                     move.b     -[A7], D0
000061A2  A91B                     syscall    MoveWindow
label000061A4:
000061A4  558F                     subq.l     A7, 2
000061A6  486E FFF8                pea.l      [A6 - 0x8]
000061AA  2054                     movea.l    A0, [A4]
000061AC  2068 0104                movea.l    A0, [A0 + 0x104]
000061B0  4868 0008                pea.l      [A0 + 0x8]
000061B4  486E FFF8                pea.l      [A6 - 0x8]
000061B8  A8AA                     syscall    SectRect
000061BA  1C1F                     move.b     D6, [A7]+
000061BC  2054                     movea.l    A0, [A4]
000061BE  2068 0104                movea.l    A0, [A0 + 0x104]
000061C2  41E8 0010                lea.l      A0, [A0 + 0x10]
000061C6  43EE FFF8                lea.l      A1, [A6 - 0x8]
000061CA  20D9                     move.l     [A0]+, [A1]+
000061CC  20D9                     move.l     [A0]+, [A1]+
000061CE  2054                     movea.l    A0, [A4]
000061D0  117C 0001 01CA           move.b     [A0 + 0x1CA], 0x1
label000061D6:
000061D6  2054                     movea.l    A0, [A4]
000061D8  2F28 0104                move.l     -[A7], [A0 + 0x104]
000061DC  7001                     moveq.l    D0, 0x01
000061DE  1F00                     move.b     -[A7], D0
000061E0  A908                     syscall    ShowHide
000061E2  4CEE 1CF0 FFDC           movem.l    D4,D5,D6,D7,A2,A3,A4, [A6 - 0x24]
000061E8  4E5E                     unlink     A6
000061EA  4E75                     rts
fn000061EC:
000061EC  4E56 FFF2                link       A6, -0x000E
000061F0  48E7 0118                movem.l    -[A7], D7,A3,A4
000061F4  266E 0008                movea.l    A3, [A6 + 0x8]
000061F8  7002                     moveq.l    D0, 0x02
000061FA  2F00                     move.l     -[A7], D0
000061FC  2F0B                     move.l     -[A7], A3
000061FE  4EBA 06C4                jsr        [PC + 0x6C4 /* 000068C4 */]
00006202  2053                     movea.l    A0, [A3]
00006204  2068 015E                movea.l    A0, [A0 + 0x15E]
00006208  2850                     movea.l    A4, [A0]
0000620A  7E01                     moveq.l    D7, 0x01
0000620C  504F                     addq.w     A7, 8
0000620E  6000 0132                bra        +0x134 /* 00006342 */
label00006212:
00006212  48C7                     ext.l      D7
00006214  2007                     move.l     D0, D7
00006216  E580                     asl        D0, 2
00006218  4A74 0800                tst.w      [A4 + D0]
0000621C  6700 0120                beq        +0x122 /* 0000633E */
00006220  486E FFF8                pea.l      [A6 - 0x8]
00006224  486E FFF4                pea.l      [A6 - 0xC]
00006228  486E FFF2                pea.l      [A6 - 0xE]
0000622C  48C7                     ext.l      D7
0000622E  2F07                     move.l     -[A7], D7
00006230  2053                     movea.l    A0, [A3]
00006232  2F28 0104                move.l     -[A7], [A0 + 0x104]
00006236  4EBA 2810                jsr        [PC + 0x2810 /* 00008A48 */]
0000623A  303C FF7F                move.w     D0, 0xFF7F
0000623E  C06E FFF2                and.w      D0, [A6 - 0xE]
00006242  5F40                     subq.w     D0, 7
00006244  4FEF 0014                lea.l      A7, [A7 + 0x14]
00006248  677E                     beq        +0x80 /* 000062C8 */
0000624A  0440 0019                subi.w     D0, 0x19
0000624E  670A                     beq        +0xC /* 0000625A */
00006250  0440 0020                subi.w     D0, 0x20 /* ' ' */
00006254  6726                     beq        +0x28 /* 0000627C */
00006256  6000 00E6                bra        +0xE8 /* 0000633E */
label0000625A:
0000625A  486E FFF8                pea.l      [A6 - 0x8]
0000625E  A928                     syscall    InvalRect
00006260  302E FFFA                move.w     D0, [A6 - 0x6]
00006264  D07C 0020                add.w      D0, 0x20 /* ' ' */
00006268  3D40 FFFE                move.w     [A6 - 0x2], D0
0000626C  302E FFF8                move.w     D0, [A6 - 0x8]
00006270  D07C 0020                add.w      D0, 0x20 /* ' ' */
00006274  3D40 FFFC                move.w     [A6 - 0x4], D0
00006278  6000 0098                bra        +0x9A /* 00006312 */
label0000627C:
0000627C  486E FFF8                pea.l      [A6 - 0x8]
00006280  A928                     syscall    InvalRect
00006282  206E FFF4                movea.l    A0, [A6 - 0xC]
00006286  2050                     movea.l    A0, [A0]
00006288  3028 0006                move.w     D0, [A0 + 0x6]
0000628C  48C0                     ext.l      D0
0000628E  206E FFF4                movea.l    A0, [A6 - 0xC]
00006292  2050                     movea.l    A0, [A0]
00006294  3228 0002                move.w     D1, [A0 + 0x2]
00006298  48C1                     ext.l      D1
0000629A  9081                     sub.l      D0, D1
0000629C  D06E FFF8                add.w      D0, [A6 - 0x8]
000062A0  3D40 FFFC                move.w     [A6 - 0x4], D0
000062A4  206E FFF4                movea.l    A0, [A6 - 0xC]
000062A8  2050                     movea.l    A0, [A0]
000062AA  3028 0008                move.w     D0, [A0 + 0x8]
000062AE  48C0                     ext.l      D0
000062B0  206E FFF4                movea.l    A0, [A6 - 0xC]
000062B4  2050                     movea.l    A0, [A0]
000062B6  3228 0004                move.w     D1, [A0 + 0x4]
000062BA  48C1                     ext.l      D1
000062BC  9081                     sub.l      D0, D1
000062BE  D06E FFFA                add.w      D0, [A6 - 0x6]
000062C2  3D40 FFFE                move.w     [A6 - 0x2], D0
000062C6  604A                     bra        +0x4C /* 00006312 */
label000062C8:
000062C8  486E FFF8                pea.l      [A6 - 0x8]
000062CC  A928                     syscall    InvalRect
000062CE  206E FFF4                movea.l    A0, [A6 - 0xC]
000062D2  2050                     movea.l    A0, [A0]
000062D4  3028 000C                move.w     D0, [A0 + 0xC]
000062D8  48C0                     ext.l      D0
000062DA  206E FFF4                movea.l    A0, [A6 - 0xC]
000062DE  2050                     movea.l    A0, [A0]
000062E0  3228 0008                move.w     D1, [A0 + 0x8]
000062E4  48C1                     ext.l      D1
000062E6  9081                     sub.l      D0, D1
000062E8  D06E FFF8                add.w      D0, [A6 - 0x8]
000062EC  3D40 FFFC                move.w     [A6 - 0x4], D0
000062F0  206E FFF4                movea.l    A0, [A6 - 0xC]
000062F4  2050                     movea.l    A0, [A0]
000062F6  3028 000E                move.w     D0, [A0 + 0xE]
000062FA  48C0                     ext.l      D0
000062FC  206E FFF4                movea.l    A0, [A6 - 0xC]
00006300  2050                     movea.l    A0, [A0]
00006302  3228 000A                move.w     D1, [A0 + 0xA]
00006306  48C1                     ext.l      D1
00006308  9081                     sub.l      D0, D1
0000630A  D06E FFFA                add.w      D0, [A6 - 0x6]
0000630E  3D40 FFFE                move.w     [A6 - 0x2], D0
label00006312:
00006312  2053                     movea.l    A0, [A3]
00006314  2F28 0104                move.l     -[A7], [A0 + 0x104]
00006318  3F07                     move.w     -[A7], D7
0000631A  3F2E FFF2                move.w     -[A7], [A6 - 0xE]
0000631E  2F2E FFF4                move.l     -[A7], [A6 - 0xC]
00006322  486E FFF8                pea.l      [A6 - 0x8]
00006326  A98E                     syscall    SetDialogItem/SetDItem
00006328  7001                     moveq.l    D0, 0x01
0000632A  2F00                     move.l     -[A7], D0
0000632C  7204                     moveq.l    D1, 0x04
0000632E  2F01                     move.l     -[A7], D1
00006330  48C7                     ext.l      D7
00006332  2F07                     move.l     -[A7], D7
00006334  2F0B                     move.l     -[A7], A3
00006336  4EBA 1BEE                jsr        [PC + 0x1BEE /* 00007F26 */]
0000633A  4FEF 0010                lea.l      A7, [A7 + 0x10]
label0000633E:
0000633E  3007                     move.w     D0, D7
00006340  5247                     addq.w     D7, 1
label00006342:
00006342  2053                     movea.l    A0, [A3]
00006344  BE68 0150                cmp.w      D7, [A0 + 0x150]
00006348  6F00 FEC8                ble        -0x136 /* 00006212 */
0000634C  4CEE 1880 FFE6           movem.l    D7,A3,A4, [A6 - 0x1A]
00006352  4E5E                     unlink     A6
00006354  4E75                     rts
fn00006356:
00006356  4E56 FF00                link       A6, -0x0100
0000635A  48E7 0308                movem.l    -[A7], D6,D7,A4
0000635E  1C2E 0017                move.b     D6, [A6 + 0x17]
00006362  286E 0008                movea.l    A4, [A6 + 0x8]
00006366  422E FF0F                clr.b      [A6 - 0xF1]
0000636A  486E FF00                pea.l      [A6 - 0x100]
0000636E  2F2E 0018                move.l     -[A7], [A6 + 0x18]
00006372  7000                     moveq.l    D0, 0x00
00006374  1006                     move.b     D0, D6
00006376  2F00                     move.l     -[A7], D0
00006378  486E 000C                pea.l      [A6 + 0xC]
0000637C  486E FF02                pea.l      [A6 - 0xFE]
00006380  2F0C                     move.l     -[A7], A4
00006382  4EBA 009A                jsr        [PC + 0x9A /* 0000641E */]
00006386  1E00                     move.b     D7, D0
00006388  4FEF 0018                lea.l      A7, [A7 + 0x18]
0000638C  6744                     beq        +0x46 /* 000063D2 */
0000638E  7000                     moveq.l    D0, 0x00
00006390  1006                     move.b     D0, D6
00006392  323C FF7F                move.w     D1, 0xFF7F
00006396  C240                     and.w      D1, D0
00006398  5F41                     subq.w     D1, 7
0000639A  670E                     beq        +0x10 /* 000063AA */
0000639C  0441 0019                subi.w     D1, 0x19
000063A0  6710                     beq        +0x12 /* 000063B2 */
000063A2  0441 0020                subi.w     D1, 0x20 /* ' ' */
000063A6  6712                     beq        +0x14 /* 000063BA */
000063A8  6016                     bra        +0x18 /* 000063C0 */
label000063AA:
000063AA  2E3C 434E 544C           move.l     D7, 0x434E544C /* 'CNTL' */
000063B0  600E                     bra        +0x10 /* 000063C0 */
label000063B2:
000063B2  2E3C 4943 4F4E           move.l     D7, 0x49434F4E /* 'ICON' */
000063B8  6006                     bra        +0x8 /* 000063C0 */
label000063BA:
000063BA  2E3C 5049 4354           move.l     D7, 0x50494354 /* 'PICT' */
label000063C0:
000063C0  558F                     subq.l     A7, 2
000063C2  2054                     movea.l    A0, [A4]
000063C4  3F28 0110                move.w     -[A7], [A0 + 0x110]
000063C8  2F07                     move.l     -[A7], D7
000063CA  4EBA 9DD2                jsr        [PC - 0x622E /* 0000019E */]
000063CE  3D5F FF10                move.w     [A6 - 0xF0], [A7]+
label000063D2:
000063D2  7000                     moveq.l    D0, 0x00
000063D4  302E FF00                move.w     D0, [A6 - 0x100]
000063D8  2F00                     move.l     -[A7], D0
000063DA  486E FF02                pea.l      [A6 - 0xFE]
000063DE  2F0C                     move.l     -[A7], A4
000063E0  4EBA 0396                jsr        [PC + 0x396 /* 00006778 */]
000063E4  2054                     movea.l    A0, [A4]
000063E6  3028 0150                move.w     D0, [A0 + 0x150]
000063EA  48C0                     ext.l      D0
000063EC  2F00                     move.l     -[A7], D0
000063EE  2F0C                     move.l     -[A7], A4
000063F0  4EBA CCD0                jsr        [PC - 0x3330 /* 000030C2 */]
000063F4  7000                     moveq.l    D0, 0x00
000063F6  1006                     move.b     D0, D6
000063F8  7210                     moveq.l    D1, 0x10
000063FA  C200                     and.b      D1, D0
000063FC  4FEF 0014                lea.l      A7, [A7 + 0x14]
00006400  670C                     beq        +0xE /* 0000640E */
00006402  486E 000C                pea.l      [A6 + 0xC]
00006406  70FD                     moveq.l    D0, 0xFFFFFFFD
00006408  3F00                     move.w     -[A7], D0
0000640A  3F00                     move.w     -[A7], D0
0000640C  A8A9                     syscall    InsetRect
label0000640E:
0000640E  486E 000C                pea.l      [A6 + 0xC]
00006412  A928                     syscall    InvalRect
00006414  4CEE 10C0 FEF4           movem.l    D6,D7,A4, [A6 - 0x10C]
0000641A  4E5E                     unlink     A6
0000641C  4E75                     rts
fn0000641E:
0000641E  4E56 FFE2                link       A6, -0x001E
00006422  48E7 0F18                movem.l    -[A7], D4,D5,D6,D7,A3,A4
00006426  182E 0017                move.b     D4, [A6 + 0x17]
0000642A  266E 0008                movea.l    A3, [A6 + 0x8]
0000642E  286E 0018                movea.l    A4, [A6 + 0x18]
00006432  4205                     clr.b      D5
00006434  2053                     movea.l    A0, [A3]
00006436  2068 0104                movea.l    A0, [A0 + 0x104]
0000643A  2D68 001C FFFC           move.l     [A6 - 0x4], [A0 + 0x1C]
00006440  2053                     movea.l    A0, [A3]
00006442  4AA8 0104                tst.l      [A0 + 0x104]
00006446  672E                     beq        +0x30 /* 00006476 */
00006448  4AAE FFFC                tst.l      [A6 - 0x4]
0000644C  6728                     beq        +0x2A /* 00006476 */
0000644E  206E FFFC                movea.l    A0, [A6 - 0x4]
00006452  4A90                     tst.l      [A0]
00006454  6720                     beq        +0x22 /* 00006476 */
00006456  42AE FFE6                clr.l      [A6 - 0x1A]
0000645A  42AE FFE2                clr.l      [A6 - 0x1E]
0000645E  206E FFFC                movea.l    A0, [A6 - 0x4]
00006462  2050                     movea.l    A0, [A0]
00006464  43EE FFF4                lea.l      A1, [A6 - 0xC]
00006468  5488                     addq.l     A0, 2
0000646A  22D8                     move.l     [A1]+, [A0]+
0000646C  22D8                     move.l     [A1]+, [A0]+
0000646E  486E FFE2                pea.l      [A6 - 0x1E]
00006472  A87B                     syscall    ClipRect
00006474  7A01                     moveq.l    D5, 0x01
label00006476:
00006476  4206                     clr.b      D6
00006478  7000                     moveq.l    D0, 0x00
0000647A  1004                     move.b     D0, D4
0000647C  323C FF7F                move.w     D1, 0xFF7F
00006480  C240                     and.w      D1, D0
00006482  6700 0254                beq        +0x256 /* 000066D8 */
00006486  5341                     subq.w     D1, 1
00006488  6700 024E                beq        +0x250 /* 000066D8 */
0000648C  5741                     subq.w     D1, 3
0000648E  6730                     beq        +0x32 /* 000064C0 */
00006490  5341                     subq.w     D1, 1
00006492  6700 009A                beq        +0x9C /* 0000652E */
00006496  5341                     subq.w     D1, 1
00006498  675A                     beq        +0x5C /* 000064F4 */
0000649A  5341                     subq.w     D1, 1
0000649C  6700 00C4                beq        +0xC6 /* 00006562 */
000064A0  5341                     subq.w     D1, 1
000064A2  6700 0168                beq        +0x16A /* 0000660C */
000064A6  5141                     subq.w     D1, 8
000064A8  6700 0162                beq        +0x164 /* 0000660C */
000064AC  0441 0010                subi.w     D1, 0x10
000064B0  6700 017A                beq        +0x17C /* 0000662C */
000064B4  0441 0020                subi.w     D1, 0x20 /* ' ' */
000064B8  6700 01CA                beq        +0x1CC /* 00006684 */
000064BC  6000 022A                bra        +0x22C /* 000066E8 */
label000064C0:
000064C0  2F0C                     move.l     -[A7], A4
000064C2  4EBA 26CA                jsr        [PC + 0x26CA /* 00008B8E */]
000064C6  3E00                     move.w     D7, D0
000064C8  7000                     moveq.l    D0, 0x00
000064CA  2F00                     move.l     -[A7], D0
000064CC  2F00                     move.l     -[A7], D0
000064CE  2F00                     move.l     -[A7], D0
000064D0  2F00                     move.l     -[A7], D0
000064D2  2F00                     move.l     -[A7], D0
000064D4  7201                     moveq.l    D1, 0x01
000064D6  2F01                     move.l     -[A7], D1
000064D8  2F0C                     move.l     -[A7], A4
000064DA  2F2E 0010                move.l     -[A7], [A6 + 0x10]
000064DE  2053                     movea.l    A0, [A3]
000064E0  2F28 0104                move.l     -[A7], [A0 + 0x104]
000064E4  4EBA 29D2                jsr        [PC + 0x29D2 /* 00008EB8 */]
000064E8  2D40 FFEC                move.l     [A6 - 0x14], D0
000064EC  4FEF 0028                lea.l      A7, [A7 + 0x28]
000064F0  6000 01F6                bra        +0x1F8 /* 000066E8 */
label000064F4:
000064F4  2F0C                     move.l     -[A7], A4
000064F6  4EBA 2696                jsr        [PC + 0x2696 /* 00008B8E */]
000064FA  3E00                     move.w     D7, D0
000064FC  7000                     moveq.l    D0, 0x00
000064FE  2F00                     move.l     -[A7], D0
00006500  7202                     moveq.l    D1, 0x02
00006502  2F01                     move.l     -[A7], D1
00006504  7001                     moveq.l    D0, 0x01
00006506  2F00                     move.l     -[A7], D0
00006508  7000                     moveq.l    D0, 0x00
0000650A  2F00                     move.l     -[A7], D0
0000650C  2F00                     move.l     -[A7], D0
0000650E  7001                     moveq.l    D0, 0x01
00006510  2F00                     move.l     -[A7], D0
00006512  2F0C                     move.l     -[A7], A4
00006514  2F2E 0010                move.l     -[A7], [A6 + 0x10]
00006518  2053                     movea.l    A0, [A3]
0000651A  2F28 0104                move.l     -[A7], [A0 + 0x104]
0000651E  4EBA 2998                jsr        [PC + 0x2998 /* 00008EB8 */]
00006522  2D40 FFEC                move.l     [A6 - 0x14], D0
00006526  4FEF 0028                lea.l      A7, [A7 + 0x28]
0000652A  6000 01BC                bra        +0x1BE /* 000066E8 */
label0000652E:
0000652E  2F0C                     move.l     -[A7], A4
00006530  4EBA 265C                jsr        [PC + 0x265C /* 00008B8E */]
00006534  3E00                     move.w     D7, D0
00006536  7000                     moveq.l    D0, 0x00
00006538  2F00                     move.l     -[A7], D0
0000653A  7201                     moveq.l    D1, 0x01
0000653C  2F01                     move.l     -[A7], D1
0000653E  2F01                     move.l     -[A7], D1
00006540  2F00                     move.l     -[A7], D0
00006542  2F00                     move.l     -[A7], D0
00006544  2F01                     move.l     -[A7], D1
00006546  2F0C                     move.l     -[A7], A4
00006548  2F2E 0010                move.l     -[A7], [A6 + 0x10]
0000654C  2053                     movea.l    A0, [A3]
0000654E  2F28 0104                move.l     -[A7], [A0 + 0x104]
00006552  4EBA 2964                jsr        [PC + 0x2964 /* 00008EB8 */]
00006556  2D40 FFEC                move.l     [A6 - 0x14], D0
0000655A  4FEF 0028                lea.l      A7, [A7 + 0x28]
0000655E  6000 0188                bra        +0x18A /* 000066E8 */
label00006562:
00006562  7E02                     moveq.l    D7, 0x02
00006564  2F0B                     move.l     -[A7], A3
00006566  4EBA 9D12                jsr        [PC - 0x62EE /* 0000027A */]
0000656A  2053                     movea.l    A0, [A3]
0000656C  4A68 01D6                tst.w      [A0 + 0x1D6]
00006570  584F                     addq.w     A7, 4
00006572  6632                     bne        +0x34 /* 000065A6 */
00006574  598F                     subq.l     A7, 4
00006576  2053                     movea.l    A0, [A3]
00006578  3F28 0110                move.w     -[A7], [A0 + 0x110]
0000657C  2F3C 434E 544C           move.l     -[A7], 0x434E544C /* 'CNTL' */
00006582  3F14                     move.w     -[A7], [A4]
00006584  4EBA 9AD8                jsr        [PC - 0x6528 /* 0000005E */]
00006588  4A9F                     tst.l      [A7]+
0000658A  671A                     beq        +0x1C /* 000065A6 */
0000658C  2053                     movea.l    A0, [A3]
0000658E  3F28 0110                move.w     -[A7], [A0 + 0x110]
00006592  A998                     syscall    UseResFile
00006594  598F                     subq.l     A7, 4
00006596  3F14                     move.w     -[A7], [A4]
00006598  2053                     movea.l    A0, [A3]
0000659A  2F28 0104                move.l     -[A7], [A0 + 0x104]
0000659E  A9BE                     syscall    GetNewControl
000065A0  2D5F FFF0                move.l     [A6 - 0x10], [A7]+
000065A4  601C                     bra        +0x1E /* 000065C2 */
label000065A6:
000065A6  558F                     subq.l     A7, 2
000065A8  3EB8 0900                move.w     [A7], [0x00000900 /* CurApRefNum */]
000065AC  A998                     syscall    UseResFile
000065AE  598F                     subq.l     A7, 4
000065B0  3F3C 0597                move.w     -[A7], 0x597
000065B4  2053                     movea.l    A0, [A3]
000065B6  2F28 0104                move.l     -[A7], [A0 + 0x104]
000065BA  A9BE                     syscall    GetNewControl
000065BC  2D5F FFF0                move.l     [A6 - 0x10], [A7]+
000065C0  7C01                     moveq.l    D6, 0x01
label000065C2:
000065C2  2F2E FFF0                move.l     -[A7], [A6 - 0x10]
000065C6  206E 0010                movea.l    A0, [A6 + 0x10]
000065CA  2248                     movea.l    A1, A0
000065CC  3028 0006                move.w     D0, [A0 + 0x6]
000065D0  9069 0002                sub.w      D0, [A1 + 0x2]
000065D4  3F00                     move.w     -[A7], D0
000065D6  206E 0010                movea.l    A0, [A6 + 0x10]
000065DA  2248                     movea.l    A1, A0
000065DC  3028 0004                move.w     D0, [A0 + 0x4]
000065E0  9051                     sub.w      D0, [A1]
000065E2  3F00                     move.w     -[A7], D0
000065E4  A95C                     syscall    SizeControl
000065E6  2F2E FFF0                move.l     -[A7], [A6 - 0x10]
000065EA  206E 0010                movea.l    A0, [A6 + 0x10]
000065EE  3F28 0002                move.w     -[A7], [A0 + 0x2]
000065F2  3F10                     move.w     -[A7], [A0]
000065F4  A959                     syscall    MoveControl
000065F6  2D6E FFF0 FFEC           move.l     [A6 - 0x14], [A6 - 0x10]
000065FC  4EBA 9A5C                jsr        [PC - 0x65A4 /* 0000005A */]
00006600  2F0B                     move.l     -[A7], A3
00006602  4EBA 9CAA                jsr        [PC - 0x6356 /* 000002AE */]
00006606  584F                     addq.w     A7, 4
00006608  6000 00DE                bra        +0xE0 /* 000066E8 */
label0000660C:
0000660C  2F0C                     move.l     -[A7], A4
0000660E  4EBA 257E                jsr        [PC + 0x257E /* 00008B8E */]
00006612  3E00                     move.w     D7, D0
00006614  558F                     subq.l     A7, 2
00006616  2F0C                     move.l     -[A7], A4
00006618  486E FFEC                pea.l      [A6 - 0x14]
0000661C  7000                     moveq.l    D0, 0x00
0000661E  3007                     move.w     D0, D7
00006620  2F00                     move.l     -[A7], D0
00006622  4EBA 26E8                jsr        [PC + 0x26E8 /* 00008D0C */]
00006626  5C4F                     addq.w     A7, 6
00006628  6000 00BE                bra        +0xC0 /* 000066E8 */
label0000662C:
0000662C  7E02                     moveq.l    D7, 0x02
0000662E  598F                     subq.l     A7, 4
00006630  2053                     movea.l    A0, [A3]
00006632  3F28 0110                move.w     -[A7], [A0 + 0x110]
00006636  2F3C 4943 4F4E           move.l     -[A7], 0x49434F4E /* 'ICON' */
0000663C  3F14                     move.w     -[A7], [A4]
0000663E  4EBA 9A1E                jsr        [PC - 0x65E2 /* 0000005E */]
00006642  2D5F FFEC                move.l     [A6 - 0x14], [A7]+
00006646  6600 00A0                bne        +0xA2 /* 000066E8 */
0000664A  598F                     subq.l     A7, 4
0000664C  558F                     subq.l     A7, 2
0000664E  4EBA 9A46                jsr        [PC - 0x65BA /* 00000096 */]
00006652  2F3C 4943 4F4E           move.l     -[A7], 0x49434F4E /* 'ICON' */
00006658  3F14                     move.w     -[A7], [A4]
0000665A  4EBA 9A02                jsr        [PC - 0x65FE /* 0000005E */]
0000665E  2D5F FFEC                move.l     [A6 - 0x14], [A7]+
00006662  6600 0084                bne        +0x86 /* 000066E8 */
00006666  598F                     subq.l     A7, 4
00006668  558F                     subq.l     A7, 2
0000666A  3EB8 0900                move.w     [A7], [0x00000900 /* CurApRefNum */]
0000666E  2F3C 4943 4F4E           move.l     -[A7], 0x49434F4E /* 'ICON' */
00006674  3F3C 0597                move.w     -[A7], 0x597
00006678  4EBA 99E4                jsr        [PC - 0x661C /* 0000005E */]
0000667C  2D5F FFEC                move.l     [A6 - 0x14], [A7]+
00006680  7C01                     moveq.l    D6, 0x01
00006682  6064                     bra        +0x66 /* 000066E8 */
label00006684:
00006684  7E02                     moveq.l    D7, 0x02
00006686  598F                     subq.l     A7, 4
00006688  2053                     movea.l    A0, [A3]
0000668A  3F28 0110                move.w     -[A7], [A0 + 0x110]
0000668E  2F3C 5049 4354           move.l     -[A7], 0x50494354 /* 'PICT' */
00006694  3F14                     move.w     -[A7], [A4]
00006696  4EBA 99C6                jsr        [PC - 0x663A /* 0000005E */]
0000669A  2D5F FFEC                move.l     [A6 - 0x14], [A7]+
0000669E  6648                     bne        +0x4A /* 000066E8 */
000066A0  598F                     subq.l     A7, 4
000066A2  558F                     subq.l     A7, 2
000066A4  4EBA 99F0                jsr        [PC - 0x6610 /* 00000096 */]
000066A8  2F3C 5049 4354           move.l     -[A7], 0x50494354 /* 'PICT' */
000066AE  3F14                     move.w     -[A7], [A4]
000066B0  4EBA 99AC                jsr        [PC - 0x6654 /* 0000005E */]
000066B4  2D5F FFEC                move.l     [A6 - 0x14], [A7]+
000066B8  662E                     bne        +0x30 /* 000066E8 */
000066BA  598F                     subq.l     A7, 4
000066BC  558F                     subq.l     A7, 2
000066BE  3EB8 0900                move.w     [A7], [0x00000900 /* CurApRefNum */]
000066C2  2F3C 5049 4354           move.l     -[A7], 0x50494354 /* 'PICT' */
000066C8  3F3C 0597                move.w     -[A7], 0x597
000066CC  4EBA 9990                jsr        [PC - 0x6670 /* 0000005E */]
000066D0  2D5F FFEC                move.l     [A6 - 0x14], [A7]+
000066D4  7C01                     moveq.l    D6, 0x01
000066D6  6010                     bra        +0x12 /* 000066E8 */
label000066D8:
000066D8  206E 000C                movea.l    A0, [A6 + 0xC]
000066DC  7E00                     moveq.l    D7, 0x00
000066DE  1E28 000D                move.b     D7, [A0 + 0xD]
000066E2  7000                     moveq.l    D0, 0x00
000066E4  2D40 FFEC                move.l     [A6 - 0x14], D0
label000066E8:
000066E8  3007                     move.w     D0, D7
000066EA  D07C 000E                add.w      D0, 0xE
000066EE  206E 001C                movea.l    A0, [A6 + 0x1C]
000066F2  3080                     move.w     [A0], D0
000066F4  7000                     moveq.l    D0, 0x00
000066F6  3007                     move.w     D0, D7
000066F8  2F00                     move.l     -[A7], D0
000066FA  4EBA 23B6                jsr        [PC + 0x23B6 /* 00008AB2 */]
000066FE  1D40 FFEB                move.b     [A6 - 0x15], D0
00006702  206E 000C                movea.l    A0, [A6 + 0xC]
00006706  20AE FFEC                move.l     [A0], [A6 - 0x14]
0000670A  206E 0010                movea.l    A0, [A6 + 0x10]
0000670E  226E 000C                movea.l    A1, [A6 + 0xC]
00006712  5889                     addq.l     A1, 4
00006714  22D8                     move.l     [A1]+, [A0]+
00006716  22D8                     move.l     [A1]+, [A0]+
00006718  206E 000C                movea.l    A0, [A6 + 0xC]
0000671C  1144 000C                move.b     [A0 + 0xC], D4
00006720  206E 000C                movea.l    A0, [A6 + 0xC]
00006724  1147 000D                move.b     [A0 + 0xD], D7
00006728  7000                     moveq.l    D0, 0x00
0000672A  3007                     move.w     D0, D7
0000672C  4A80                     tst.l      D0
0000672E  584F                     addq.w     A7, 4
00006730  6718                     beq        +0x1A /* 0000674A */
00006732  7000                     moveq.l    D0, 0x00
00006734  3007                     move.w     D0, D7
00006736  2F00                     move.l     -[A7], D0
00006738  206E 000C                movea.l    A0, [A6 + 0xC]
0000673C  4868 000E                pea.l      [A0 + 0xE]
00006740  2F0C                     move.l     -[A7], A4
00006742  4EBA 22D2                jsr        [PC + 0x22D2 /* 00008A16 */]
00006746  4FEF 000C                lea.l      A7, [A7 + 0xC]
label0000674A:
0000674A  4A2E FFEB                tst.b      [A6 - 0x15]
0000674E  6712                     beq        +0x14 /* 00006762 */
00006750  206E 001C                movea.l    A0, [A6 + 0x1C]
00006754  5250                     addq.w     [A0], 1
00006756  7000                     moveq.l    D0, 0x00
00006758  3007                     move.w     D0, D7
0000675A  206E 000C                movea.l    A0, [A6 + 0xC]
0000675E  4230 080E                clr.b      [A0 + D0 + 0xE]
label00006762:
00006762  4A05                     tst.b      D5
00006764  6706                     beq        +0x8 /* 0000676C */
00006766  486E FFF4                pea.l      [A6 - 0xC]
0000676A  A87B                     syscall    ClipRect
label0000676C:
0000676C  1006                     move.b     D0, D6
0000676E  4CEE 18F0 FFCA           movem.l    D4,D5,D6,D7,A3,A4, [A6 - 0x36]
00006774  4E5E                     unlink     A6
00006776  4E75                     rts
fn00006778:
00006778  4E56 FFFE                link       A6, -0x0002
0000677C  48E7 0F18                movem.l    -[A7], D4,D5,D6,D7,A3,A4
00006780  3C2E 0012                move.w     D6, [A6 + 0x12]
00006784  286E 0008                movea.l    A4, [A6 + 0x8]
00006788  2054                     movea.l    A0, [A4]
0000678A  2068 0114                movea.l    A0, [A0 + 0x114]
0000678E  A069                     syscall    HGetState
00006790  1D40 FFFF                move.b     [A6 - 0x1], D0
00006794  2054                     movea.l    A0, [A4]
00006796  2068 0120                movea.l    A0, [A0 + 0x120]
0000679A  A069                     syscall    HGetState
0000679C  1800                     move.b     D4, D0
0000679E  598F                     subq.l     A7, 4
000067A0  2054                     movea.l    A0, [A4]
000067A2  2F28 0120                move.l     -[A7], [A0 + 0x120]
000067A6  4EBA 2540                jsr        [PC + 0x2540 /* 00008CE8 */]
000067AA  2E1F                     move.l     D7, [A7]+
000067AC  2054                     movea.l    A0, [A4]
000067AE  2068 0120                movea.l    A0, [A0 + 0x120]
000067B2  A02A                     syscall    HUnlock
000067B4  2054                     movea.l    A0, [A4]
000067B6  2068 0120                movea.l    A0, [A0 + 0x120]
000067BA  48C6                     ext.l      D6
000067BC  2007                     move.l     D0, D7
000067BE  D086                     add.l      D0, D6
000067C0  A024                     syscall    SetHandleSize
000067C2  558F                     subq.l     A7, 2
000067C4  3F38 0220                move.w     -[A7], [0x00000220 /* MemErr */]
000067C8  7000                     moveq.l    D0, 0x00
000067CA  3F00                     move.w     -[A7], D0
000067CC  4EBA 997C                jsr        [PC - 0x6684 /* 0000014A */]
000067D0  4A1F                     tst.b      [A7]+
000067D2  6700 00E6                beq        +0xE8 /* 000068BA */
000067D6  2054                     movea.l    A0, [A4]
000067D8  2068 0114                movea.l    A0, [A0 + 0x114]
000067DC  A02A                     syscall    HUnlock
000067DE  2054                     movea.l    A0, [A4]
000067E0  2068 0114                movea.l    A0, [A0 + 0x114]
000067E4  48C6                     ext.l      D6
000067E6  2007                     move.l     D0, D7
000067E8  D086                     add.l      D0, D6
000067EA  A024                     syscall    SetHandleSize
000067EC  558F                     subq.l     A7, 2
000067EE  3F38 0220                move.w     -[A7], [0x00000220 /* MemErr */]
000067F2  7000                     moveq.l    D0, 0x00
000067F4  3F00                     move.w     -[A7], D0
000067F6  4EBA 9952                jsr        [PC - 0x66AE /* 0000014A */]
000067FA  4A1F                     tst.b      [A7]+
000067FC  6700 00BC                beq        +0xBE /* 000068BA */
00006800  2054                     movea.l    A0, [A4]
00006802  2068 015E                movea.l    A0, [A0 + 0x15E]
00006806  A02A                     syscall    HUnlock
00006808  598F                     subq.l     A7, 4
0000680A  2054                     movea.l    A0, [A4]
0000680C  2F28 015E                move.l     -[A7], [A0 + 0x15E]
00006810  4EBA 24D6                jsr        [PC + 0x24D6 /* 00008CE8 */]
00006814  2A1F                     move.l     D5, [A7]+
00006816  2054                     movea.l    A0, [A4]
00006818  2068 015E                movea.l    A0, [A0 + 0x15E]
0000681C  2005                     move.l     D0, D5
0000681E  5880                     addq.l     D0, 4
00006820  A024                     syscall    SetHandleSize
00006822  558F                     subq.l     A7, 2
00006824  3F38 0220                move.w     -[A7], [0x00000220 /* MemErr */]
00006828  7000                     moveq.l    D0, 0x00
0000682A  3F00                     move.w     -[A7], D0
0000682C  4EBA 991C                jsr        [PC - 0x66E4 /* 0000014A */]
00006830  4A1F                     tst.b      [A7]+
00006832  6700 0086                beq        +0x88 /* 000068BA */
00006836  2054                     movea.l    A0, [A4]
00006838  2F28 015E                move.l     -[A7], [A0 + 0x15E]
0000683C  4EBA 9810                jsr        [PC - 0x67F0 /* 0000004E */]
00006840  2054                     movea.l    A0, [A4]
00006842  2068 015E                movea.l    A0, [A0 + 0x15E]
00006846  A029                     syscall    HLock
00006848  2054                     movea.l    A0, [A4]
0000684A  2068 0114                movea.l    A0, [A0 + 0x114]
0000684E  2647                     movea.l    A3, D7
00006850  D7D0                     add.l      A3, [A0]
00006852  48C6                     ext.l      D6
00006854  2F06                     move.l     -[A7], D6
00006856  2F0B                     move.l     -[A7], A3
00006858  2F2E 000C                move.l     -[A7], [A6 + 0xC]
0000685C  4EBA 21B8                jsr        [PC + 0x21B8 /* 00008A16 */]
00006860  7000                     moveq.l    D0, 0x00
00006862  2680                     move.l     [A3], D0
00006864  2054                     movea.l    A0, [A4]
00006866  2068 0114                movea.l    A0, [A0 + 0x114]
0000686A  2050                     movea.l    A0, [A0]
0000686C  5250                     addq.w     [A0], 1
0000686E  2054                     movea.l    A0, [A4]
00006870  2068 0120                movea.l    A0, [A0 + 0x120]
00006874  2647                     movea.l    A3, D7
00006876  D7D0                     add.l      A3, [A0]
00006878  48C6                     ext.l      D6
0000687A  2F06                     move.l     -[A7], D6
0000687C  2F0B                     move.l     -[A7], A3
0000687E  2F2E 000C                move.l     -[A7], [A6 + 0xC]
00006882  4EBA 2192                jsr        [PC + 0x2192 /* 00008A16 */]
00006886  2054                     movea.l    A0, [A4]
00006888  2068 0120                movea.l    A0, [A0 + 0x120]
0000688C  2050                     movea.l    A0, [A0]
0000688E  5250                     addq.w     [A0], 1
00006890  2054                     movea.l    A0, [A4]
00006892  2068 0114                movea.l    A0, [A0 + 0x114]
00006896  102E FFFF                move.b     D0, [A6 - 0x1]
0000689A  A06A                     syscall    HSetState
0000689C  2054                     movea.l    A0, [A4]
0000689E  2068 0120                movea.l    A0, [A0 + 0x120]
000068A2  1004                     move.b     D0, D4
000068A4  A06A                     syscall    HSetState
000068A6  2054                     movea.l    A0, [A4]
000068A8  5268 0150                addq.w     [A0 + 0x150], 1
000068AC  2054                     movea.l    A0, [A4]
000068AE  2F28 0114                move.l     -[A7], [A0 + 0x114]
000068B2  4EBA 982A                jsr        [PC - 0x67D6 /* 000000DE */]
000068B6  4FEF 0018                lea.l      A7, [A7 + 0x18]
label000068BA:
000068BA  4CEE 18F0 FFE6           movem.l    D4,D5,D6,D7,A3,A4, [A6 - 0x1A]
000068C0  4E5E                     unlink     A6
000068C2  4E75                     rts
fn000068C4:
000068C4  4E56 0000                link       A6, 0
000068C8  48E7 0F08                movem.l    -[A7], D4,D5,D6,D7,A4
000068CC  286E 0008                movea.l    A4, [A6 + 0x8]
000068D0  2054                     movea.l    A0, [A4]
000068D2  2068 0162                movea.l    A0, [A0 + 0x162]
000068D6  A069                     syscall    HGetState
000068D8  1A00                     move.b     D5, D0
000068DA  2054                     movea.l    A0, [A4]
000068DC  2068 0124                movea.l    A0, [A0 + 0x124]
000068E0  A069                     syscall    HGetState
000068E2  1800                     move.b     D4, D0
000068E4  598F                     subq.l     A7, 4
000068E6  2054                     movea.l    A0, [A4]
000068E8  2F28 0120                move.l     -[A7], [A0 + 0x120]
000068EC  4EBA 23FA                jsr        [PC + 0x23FA /* 00008CE8 */]
000068F0  2C1F                     move.l     D6, [A7]+
000068F2  598F                     subq.l     A7, 4
000068F4  2054                     movea.l    A0, [A4]
000068F6  2F28 015E                move.l     -[A7], [A0 + 0x15E]
000068FA  4EBA 23EC                jsr        [PC + 0x23EC /* 00008CE8 */]
000068FE  2E1F                     move.l     D7, [A7]+
00006900  2054                     movea.l    A0, [A4]
00006902  2068 0124                movea.l    A0, [A0 + 0x124]
00006906  A02A                     syscall    HUnlock
00006908  2054                     movea.l    A0, [A4]
0000690A  2068 0162                movea.l    A0, [A0 + 0x162]
0000690E  A02A                     syscall    HUnlock
00006910  2054                     movea.l    A0, [A4]
00006912  2068 0124                movea.l    A0, [A0 + 0x124]
00006916  2006                     move.l     D0, D6
00006918  A024                     syscall    SetHandleSize
0000691A  2054                     movea.l    A0, [A4]
0000691C  2068 0162                movea.l    A0, [A0 + 0x162]
00006920  2007                     move.l     D0, D7
00006922  A024                     syscall    SetHandleSize
00006924  2F06                     move.l     -[A7], D6
00006926  2054                     movea.l    A0, [A4]
00006928  2068 0124                movea.l    A0, [A0 + 0x124]
0000692C  2F10                     move.l     -[A7], [A0]
0000692E  2054                     movea.l    A0, [A4]
00006930  2068 0114                movea.l    A0, [A0 + 0x114]
00006934  2F10                     move.l     -[A7], [A0]
00006936  4EBA 20DE                jsr        [PC + 0x20DE /* 00008A16 */]
0000693A  2F07                     move.l     -[A7], D7
0000693C  2054                     movea.l    A0, [A4]
0000693E  2068 0162                movea.l    A0, [A0 + 0x162]
00006942  2F10                     move.l     -[A7], [A0]
00006944  2054                     movea.l    A0, [A4]
00006946  2068 015E                movea.l    A0, [A0 + 0x15E]
0000694A  2F10                     move.l     -[A7], [A0]
0000694C  4EBA 20C8                jsr        [PC + 0x20C8 /* 00008A16 */]
00006950  2054                     movea.l    A0, [A4]
00006952  2068 0124                movea.l    A0, [A0 + 0x124]
00006956  1004                     move.b     D0, D4
00006958  A06A                     syscall    HSetState
0000695A  2054                     movea.l    A0, [A4]
0000695C  2068 0162                movea.l    A0, [A0 + 0x162]
00006960  1005                     move.b     D0, D5
00006962  A06A                     syscall    HSetState
00006964  598F                     subq.l     A7, 4
00006966  7003                     moveq.l    D0, 0x03
00006968  3F00                     move.w     -[A7], D0
0000696A  A949                     syscall    GetMenuHandle
0000696C  7001                     moveq.l    D0, 0x01
0000696E  3F00                     move.w     -[A7], D0
00006970  A939                     syscall    EnableItem
00006972  2054                     movea.l    A0, [A4]
00006974  116E 000F 015C           move.b     [A0 + 0x15C], [A6 + 0xF]
0000697A  4CEE 10F0 FFEC           movem.l    D4,D5,D6,D7,A4, [A6 - 0x14]
00006980  4E5E                     unlink     A6
00006982  4E75                     rts
fn00006984:
00006984  4E56 0000                link       A6, 0
00006988  2F0C                     move.l     -[A7], A4
0000698A  286E 0008                movea.l    A4, [A6 + 0x8]
0000698E  2054                     movea.l    A0, [A4]
00006990  7000                     moveq.l    D0, 0x00
00006992  1028 015C                move.b     D0, [A0 + 0x15C]
00006996  4A80                     tst.l      D0
00006998  670E                     beq        +0x10 /* 000069A8 */
0000699A  2F0C                     move.l     -[A7], A4
0000699C  4EBA 0012                jsr        [PC + 0x12 /* 000069B0 */]
000069A0  2F0C                     move.l     -[A7], A4
000069A2  4EBA 0158                jsr        [PC + 0x158 /* 00006AFC */]
000069A6  504F                     addq.w     A7, 8
label000069A8:
000069A8  286E FFFC                movea.l    A4, [A6 - 0x4]
000069AC  4E5E                     unlink     A6
000069AE  4E75                     rts
fn000069B0:
000069B0  4E56 FFFC                link       A6, -0x0004
000069B4  48E7 0F08                movem.l    -[A7], D4,D5,D6,D7,A4
000069B8  286E 0008                movea.l    A4, [A6 + 0x8]
000069BC  2054                     movea.l    A0, [A4]
000069BE  2D68 0114 FFFC           move.l     [A6 - 0x4], [A0 + 0x114]
000069C4  558F                     subq.l     A7, 2
000069C6  486E FFFC                pea.l      [A6 - 0x4]
000069CA  4EBA 232A                jsr        [PC + 0x232A /* 00008CF6 */]
000069CE  558F                     subq.l     A7, 2
000069D0  3F38 0220                move.w     -[A7], [0x00000220 /* MemErr */]
000069D4  7000                     moveq.l    D0, 0x00
000069D6  3F00                     move.w     -[A7], D0
000069D8  4EBA 9770                jsr        [PC - 0x6890 /* 0000014A */]
000069DC  4A1F                     tst.b      [A7]+
000069DE  544F                     addq.w     A7, 2
000069E0  6700 0110                beq        +0x112 /* 00006AF2 */
000069E4  2054                     movea.l    A0, [A4]
000069E6  7000                     moveq.l    D0, 0x00
000069E8  1028 015C                move.b     D0, [A0 + 0x15C]
000069EC  0C40 0005                cmpi.w     D0, 0x5
000069F0  662E                     bne        +0x30 /* 00006A20 */
000069F2  2068 0124                movea.l    A0, [A0 + 0x124]
000069F6  2050                     movea.l    A0, [A0]
000069F8  3C10                     move.w     D6, [A0]
000069FA  5246                     addq.w     D6, 1
000069FC  3E06                     move.w     D7, D6
000069FE  5247                     addq.w     D7, 1
00006A00  6016                     bra        +0x18 /* 00006A18 */
label00006A02:
00006A02  7001                     moveq.l    D0, 0x01
00006A04  2F00                     move.l     -[A7], D0
00006A06  48C7                     ext.l      D7
00006A08  2F07                     move.l     -[A7], D7
00006A0A  2F0C                     move.l     -[A7], A4
00006A0C  4EBA D3B6                jsr        [PC - 0x2C4A /* 00003DC4 */]
00006A10  4FEF 000C                lea.l      A7, [A7 + 0xC]
00006A14  3007                     move.w     D0, D7
00006A16  5247                     addq.w     D7, 1
label00006A18:
00006A18  2054                     movea.l    A0, [A4]
00006A1A  BE68 0150                cmp.w      D7, [A0 + 0x150]
00006A1E  6FE2                     ble        -0x1C /* 00006A02 */
label00006A20:
00006A20  598F                     subq.l     A7, 4
00006A22  2F2E FFFC                move.l     -[A7], [A6 - 0x4]
00006A26  4EBA 22C0                jsr        [PC + 0x22C0 /* 00008CE8 */]
00006A2A  2E1F                     move.l     D7, [A7]+
00006A2C  598F                     subq.l     A7, 4
00006A2E  2054                     movea.l    A0, [A4]
00006A30  2F28 0124                move.l     -[A7], [A0 + 0x124]
00006A34  4EBA 22B2                jsr        [PC + 0x22B2 /* 00008CE8 */]
00006A38  2C1F                     move.l     D6, [A7]+
00006A3A  2054                     movea.l    A0, [A4]
00006A3C  2F28 0124                move.l     -[A7], [A0 + 0x124]
00006A40  2F0C                     move.l     -[A7], A4
00006A42  4EBA 01F4                jsr        [PC + 0x1F4 /* 00006C38 */]
00006A46  2054                     movea.l    A0, [A4]
00006A48  2068 0114                movea.l    A0, [A0 + 0x114]
00006A4C  A069                     syscall    HGetState
00006A4E  1800                     move.b     D4, D0
00006A50  2054                     movea.l    A0, [A4]
00006A52  2068 0124                movea.l    A0, [A0 + 0x124]
00006A56  A069                     syscall    HGetState
00006A58  1A00                     move.b     D5, D0
00006A5A  2054                     movea.l    A0, [A4]
00006A5C  2068 0114                movea.l    A0, [A0 + 0x114]
00006A60  A02A                     syscall    HUnlock
00006A62  2054                     movea.l    A0, [A4]
00006A64  2068 0124                movea.l    A0, [A0 + 0x124]
00006A68  A02A                     syscall    HUnlock
00006A6A  2054                     movea.l    A0, [A4]
00006A6C  2068 0114                movea.l    A0, [A0 + 0x114]
00006A70  2006                     move.l     D0, D6
00006A72  A024                     syscall    SetHandleSize
00006A74  558F                     subq.l     A7, 2
00006A76  3F38 0220                move.w     -[A7], [0x00000220 /* MemErr */]
00006A7A  7000                     moveq.l    D0, 0x00
00006A7C  3F00                     move.w     -[A7], D0
00006A7E  4EBA 96CA                jsr        [PC - 0x6936 /* 0000014A */]
00006A82  4A1F                     tst.b      [A7]+
00006A84  504F                     addq.w     A7, 8
00006A86  676A                     beq        +0x6C /* 00006AF2 */
00006A88  2054                     movea.l    A0, [A4]
00006A8A  2068 0124                movea.l    A0, [A0 + 0x124]
00006A8E  2007                     move.l     D0, D7
00006A90  A024                     syscall    SetHandleSize
00006A92  558F                     subq.l     A7, 2
00006A94  3F38 0220                move.w     -[A7], [0x00000220 /* MemErr */]
00006A98  7000                     moveq.l    D0, 0x00
00006A9A  3F00                     move.w     -[A7], D0
00006A9C  4EBA 96AC                jsr        [PC - 0x6954 /* 0000014A */]
00006AA0  4A1F                     tst.b      [A7]+
00006AA2  674E                     beq        +0x50 /* 00006AF2 */
00006AA4  2054                     movea.l    A0, [A4]
00006AA6  2068 0114                movea.l    A0, [A0 + 0x114]
00006AAA  1004                     move.b     D0, D4
00006AAC  A06A                     syscall    HSetState
00006AAE  2054                     movea.l    A0, [A4]
00006AB0  2068 0124                movea.l    A0, [A0 + 0x124]
00006AB4  1005                     move.b     D0, D5
00006AB6  A06A                     syscall    HSetState
00006AB8  2F07                     move.l     -[A7], D7
00006ABA  2054                     movea.l    A0, [A4]
00006ABC  2068 0124                movea.l    A0, [A0 + 0x124]
00006AC0  2F10                     move.l     -[A7], [A0]
00006AC2  206E FFFC                movea.l    A0, [A6 - 0x4]
00006AC6  2F10                     move.l     -[A7], [A0]
00006AC8  4EBA 1F4C                jsr        [PC + 0x1F4C /* 00008A16 */]
00006ACC  206E FFFC                movea.l    A0, [A6 - 0x4]
00006AD0  A023                     syscall    DisposHandle/DisposeHandle
00006AD2  2054                     movea.l    A0, [A4]
00006AD4  3028 0150                move.w     D0, [A0 + 0x150]
00006AD8  5340                     subq.w     D0, 1
00006ADA  2054                     movea.l    A0, [A4]
00006ADC  2068 0114                movea.l    A0, [A0 + 0x114]
00006AE0  2050                     movea.l    A0, [A0]
00006AE2  3080                     move.w     [A0], D0
00006AE4  7001                     moveq.l    D0, 0x01
00006AE6  2F00                     move.l     -[A7], D0
00006AE8  2F0C                     move.l     -[A7], A4
00006AEA  4EBA 15A2                jsr        [PC + 0x15A2 /* 0000808E */]
00006AEE  4FEF 0014                lea.l      A7, [A7 + 0x14]
label00006AF2:
00006AF2  4CEE 10F0 FFE8           movem.l    D4,D5,D6,D7,A4, [A6 - 0x18]
00006AF8  4E5E                     unlink     A6
00006AFA  4E75                     rts
fn00006AFC:
00006AFC  4E56 FFF0                link       A6, -0x0010
00006B00  48E7 0318                movem.l    -[A7], D6,D7,A3,A4
00006B04  266E 0008                movea.l    A3, [A6 + 0x8]
00006B08  598F                     subq.l     A7, 4
00006B0A  2053                     movea.l    A0, [A3]
00006B0C  2F28 015E                move.l     -[A7], [A0 + 0x15E]
00006B10  4EBA 21D6                jsr        [PC + 0x21D6 /* 00008CE8 */]
00006B14  2E1F                     move.l     D7, [A7]+
00006B16  598F                     subq.l     A7, 4
00006B18  2053                     movea.l    A0, [A3]
00006B1A  2F28 0162                move.l     -[A7], [A0 + 0x162]
00006B1E  4EBA 21C8                jsr        [PC + 0x21C8 /* 00008CE8 */]
00006B22  2C1F                     move.l     D6, [A7]+
00006B24  2053                     movea.l    A0, [A3]
00006B26  2D68 015E FFF8           move.l     [A6 - 0x8], [A0 + 0x15E]
00006B2C  558F                     subq.l     A7, 2
00006B2E  486E FFF8                pea.l      [A6 - 0x8]
00006B32  4EBA 21C2                jsr        [PC + 0x21C2 /* 00008CF6 */]
00006B36  558F                     subq.l     A7, 2
00006B38  3F38 0220                move.w     -[A7], [0x00000220 /* MemErr */]
00006B3C  7000                     moveq.l    D0, 0x00
00006B3E  3F00                     move.w     -[A7], D0
00006B40  4EBA 9608                jsr        [PC - 0x69F8 /* 0000014A */]
00006B44  4A1F                     tst.b      [A7]+
00006B46  544F                     addq.w     A7, 2
00006B48  6700 00E4                beq        +0xE6 /* 00006C2E */
00006B4C  2053                     movea.l    A0, [A3]
00006B4E  2068 015E                movea.l    A0, [A0 + 0x15E]
00006B52  A02A                     syscall    HUnlock
00006B54  2053                     movea.l    A0, [A3]
00006B56  2068 015E                movea.l    A0, [A0 + 0x15E]
00006B5A  2006                     move.l     D0, D6
00006B5C  A024                     syscall    SetHandleSize
00006B5E  558F                     subq.l     A7, 2
00006B60  3F38 0220                move.w     -[A7], [0x00000220 /* MemErr */]
00006B64  7000                     moveq.l    D0, 0x00
00006B66  3F00                     move.w     -[A7], D0
00006B68  4EBA 95E0                jsr        [PC - 0x6A20 /* 0000014A */]
00006B6C  4A1F                     tst.b      [A7]+
00006B6E  6700 00BE                beq        +0xC0 /* 00006C2E */
00006B72  2053                     movea.l    A0, [A3]
00006B74  2F28 015E                move.l     -[A7], [A0 + 0x15E]
00006B78  4EBA 94D4                jsr        [PC - 0x6B2C /* 0000004E */]
00006B7C  2053                     movea.l    A0, [A3]
00006B7E  2068 015E                movea.l    A0, [A0 + 0x15E]
00006B82  A029                     syscall    HLock
00006B84  2F0B                     move.l     -[A7], A3
00006B86  4EBA 9B08                jsr        [PC - 0x64F8 /* 00000690 */]
00006B8A  2053                     movea.l    A0, [A3]
00006B8C  2D48 FFFC                move.l     [A6 - 0x4], A0
00006B90  2068 0162                movea.l    A0, [A0 + 0x162]
00006B94  2850                     movea.l    A4, [A0]
00006B96  206E FFFC                movea.l    A0, [A6 - 0x4]
00006B9A  2068 015E                movea.l    A0, [A0 + 0x15E]
00006B9E  2D50 FFF0                move.l     [A6 - 0x10], [A0]
00006BA2  2F06                     move.l     -[A7], D6
00006BA4  2F2E FFF0                move.l     -[A7], [A6 - 0x10]
00006BA8  2F0C                     move.l     -[A7], A4
00006BAA  4EBA 1E6A                jsr        [PC + 0x1E6A /* 00008A16 */]
00006BAE  2053                     movea.l    A0, [A3]
00006BB0  2068 0162                movea.l    A0, [A0 + 0x162]
00006BB4  A02A                     syscall    HUnlock
00006BB6  2053                     movea.l    A0, [A3]
00006BB8  2068 0162                movea.l    A0, [A0 + 0x162]
00006BBC  2007                     move.l     D0, D7
00006BBE  A024                     syscall    SetHandleSize
00006BC0  558F                     subq.l     A7, 2
00006BC2  3F38 0220                move.w     -[A7], [0x00000220 /* MemErr */]
00006BC6  7000                     moveq.l    D0, 0x00
00006BC8  3F00                     move.w     -[A7], D0
00006BCA  4EBA 957E                jsr        [PC - 0x6A82 /* 0000014A */]
00006BCE  4A1F                     tst.b      [A7]+
00006BD0  4FEF 0010                lea.l      A7, [A7 + 0x10]
00006BD4  6758                     beq        +0x5A /* 00006C2E */
00006BD6  206E FFF8                movea.l    A0, [A6 - 0x8]
00006BDA  2D50 FFF4                move.l     [A6 - 0xC], [A0]
00006BDE  2053                     movea.l    A0, [A3]
00006BE0  2068 0162                movea.l    A0, [A0 + 0x162]
00006BE4  2850                     movea.l    A4, [A0]
00006BE6  2F07                     move.l     -[A7], D7
00006BE8  2F0C                     move.l     -[A7], A4
00006BEA  206E FFF8                movea.l    A0, [A6 - 0x8]
00006BEE  2F10                     move.l     -[A7], [A0]
00006BF0  4EBA 1E24                jsr        [PC + 0x1E24 /* 00008A16 */]
00006BF4  206E FFF8                movea.l    A0, [A6 - 0x8]
00006BF8  A023                     syscall    DisposHandle/DisposeHandle
00006BFA  2053                     movea.l    A0, [A3]
00006BFC  4268 0152                clr.w      [A0 + 0x152]
00006C00  2053                     movea.l    A0, [A3]
00006C02  2068 015E                movea.l    A0, [A0 + 0x15E]
00006C06  2850                     movea.l    A4, [A0]
00006C08  7E01                     moveq.l    D7, 0x01
00006C0A  4FEF 000C                lea.l      A7, [A7 + 0xC]
00006C0E  6016                     bra        +0x18 /* 00006C26 */
label00006C10:
00006C10  48C7                     ext.l      D7
00006C12  2007                     move.l     D0, D7
00006C14  E580                     asl        D0, 2
00006C16  4A74 0800                tst.w      [A4 + D0]
00006C1A  6706                     beq        +0x8 /* 00006C22 */
00006C1C  2053                     movea.l    A0, [A3]
00006C1E  5268 0152                addq.w     [A0 + 0x152], 1
label00006C22:
00006C22  3007                     move.w     D0, D7
00006C24  5247                     addq.w     D7, 1
label00006C26:
00006C26  2053                     movea.l    A0, [A3]
00006C28  BE68 0150                cmp.w      D7, [A0 + 0x150]
00006C2C  6FE2                     ble        -0x1C /* 00006C10 */
label00006C2E:
00006C2E  4CEE 18C0 FFE0           movem.l    D6,D7,A3,A4, [A6 - 0x20]
00006C34  4E5E                     unlink     A6
00006C36  4E75                     rts
fn00006C38:
00006C38  4E56 FEE4                link       A6, -0x011C
00006C3C  48E7 0F38                movem.l    -[A7], D4,D5,D6,D7,A2,A3,A4
00006C40  2D6E 000C FEF4           move.l     [A6 - 0x10C], [A6 + 0xC]
00006C46  558F                     subq.l     A7, 2
00006C48  486E FEF4                pea.l      [A6 - 0x10C]
00006C4C  4EBA 20A8                jsr        [PC + 0x20A8 /* 00008CF6 */]
00006C50  558F                     subq.l     A7, 2
00006C52  3F38 0220                move.w     -[A7], [0x00000220 /* MemErr */]
00006C56  7000                     moveq.l    D0, 0x00
00006C58  3F00                     move.w     -[A7], D0
00006C5A  4EBA 94EE                jsr        [PC - 0x6B12 /* 0000014A */]
00006C5E  4A1F                     tst.b      [A7]+
00006C60  544F                     addq.w     A7, 2
00006C62  6700 01EA                beq        +0x1EC /* 00006E4E */
00006C66  206E FEF4                movea.l    A0, [A6 - 0x10C]
00006C6A  A029                     syscall    HLock
00006C6C  206E FEF4                movea.l    A0, [A6 - 0x10C]
00006C70  2050                     movea.l    A0, [A0]
00006C72  3A10                     move.w     D5, [A0]
00006C74  5245                     addq.w     D5, 1
00006C76  206E 0008                movea.l    A0, [A6 + 0x8]
00006C7A  2050                     movea.l    A0, [A0]
00006C7C  2068 0120                movea.l    A0, [A0 + 0x120]
00006C80  2050                     movea.l    A0, [A0]
00006C82  3010                     move.w     D0, [A0]
00006C84  5240                     addq.w     D0, 1
00006C86  3D40 FEE4                move.w     [A6 - 0x11C], D0
00006C8A  206E 0008                movea.l    A0, [A6 + 0x8]
00006C8E  2050                     movea.l    A0, [A0]
00006C90  3145 0150                move.w     [A0 + 0x150], D5
00006C94  7801                     moveq.l    D4, 0x01
00006C96  6000 0092                bra        +0x94 /* 00006D2A */
label00006C9A:
00006C9A  486E FEEC                pea.l      [A6 - 0x114]
00006C9E  486E FEE8                pea.l      [A6 - 0x118]
00006CA2  48C4                     ext.l      D4
00006CA4  2F04                     move.l     -[A7], D4
00006CA6  206E 0008                movea.l    A0, [A6 + 0x8]
00006CAA  2050                     movea.l    A0, [A0]
00006CAC  2F28 0120                move.l     -[A7], [A0 + 0x120]
00006CB0  4EBA 1CD0                jsr        [PC + 0x1CD0 /* 00008982 */]
00006CB4  206E 0008                movea.l    A0, [A6 + 0x8]
00006CB8  2050                     movea.l    A0, [A0]
00006CBA  2068 0120                movea.l    A0, [A0 + 0x120]
00006CBE  2050                     movea.l    A0, [A0]
00006CC0  202E FEE8                move.l     D0, [A6 - 0x118]
00006CC4  47F0 0800                lea.l      A3, [A0 + D0]
00006CC8  4206                     clr.b      D6
00006CCA  7E01                     moveq.l    D7, 0x01
00006CCC  4FEF 0010                lea.l      A7, [A7 + 0x10]
00006CD0  603A                     bra        +0x3C /* 00006D0C */
label00006CD2:
00006CD2  486E FEF0                pea.l      [A6 - 0x110]
00006CD6  486E FEE8                pea.l      [A6 - 0x118]
00006CDA  48C7                     ext.l      D7
00006CDC  2F07                     move.l     -[A7], D7
00006CDE  2F2E FEF4                move.l     -[A7], [A6 - 0x10C]
00006CE2  4EBA 1C9E                jsr        [PC + 0x1C9E /* 00008982 */]
00006CE6  206E FEF4                movea.l    A0, [A6 - 0x10C]
00006CEA  2050                     movea.l    A0, [A0]
00006CEC  202E FEE8                move.l     D0, [A6 - 0x118]
00006CF0  49F0 0800                lea.l      A4, [A0 + D0]
00006CF4  2F0B                     move.l     -[A7], A3
00006CF6  2F0C                     move.l     -[A7], A4
00006CF8  4EBA DFA4                jsr        [PC - 0x205C /* 00004C9E */]
00006CFC  4A00                     tst.b      D0
00006CFE  4FEF 0018                lea.l      A7, [A7 + 0x18]
00006D02  6704                     beq        +0x6 /* 00006D08 */
00006D04  7C01                     moveq.l    D6, 0x01
00006D06  6008                     bra        +0xA /* 00006D10 */
label00006D08:
00006D08  3007                     move.w     D0, D7
00006D0A  5247                     addq.w     D7, 1
label00006D0C:
00006D0C  BA47                     cmp.w      D5, D7
00006D0E  6CC2                     bge        -0x3C /* 00006CD2 */
label00006D10:
00006D10  4A06                     tst.b      D6
00006D12  6704                     beq        +0x6 /* 00006D18 */
00006D14  2893                     move.l     [A4], [A3]
00006D16  600E                     bra        +0x10 /* 00006D26 */
label00006D18:
00006D18  48C4                     ext.l      D4
00006D1A  2F04                     move.l     -[A7], D4
00006D1C  2F2E 0008                move.l     -[A7], [A6 + 0x8]
00006D20  4EBA 15E4                jsr        [PC + 0x15E4 /* 00008306 */]
00006D24  504F                     addq.w     A7, 8
label00006D26:
00006D26  3004                     move.w     D0, D4
00006D28  5244                     addq.w     D4, 1
label00006D2A:
00006D2A  B86E FEE4                cmp.w      D4, [A6 - 0x11C]
00006D2E  6F00 FF6A                ble        -0x94 /* 00006C9A */
00006D32  7801                     moveq.l    D4, 0x01
00006D34  6000 0094                bra        +0x96 /* 00006DCA */
label00006D38:
00006D38  486E FEF0                pea.l      [A6 - 0x110]
00006D3C  486E FEE8                pea.l      [A6 - 0x118]
00006D40  48C4                     ext.l      D4
00006D42  2F04                     move.l     -[A7], D4
00006D44  2F2E FEF4                move.l     -[A7], [A6 - 0x10C]
00006D48  4EBA 1C38                jsr        [PC + 0x1C38 /* 00008982 */]
00006D4C  206E FEF4                movea.l    A0, [A6 - 0x10C]
00006D50  2050                     movea.l    A0, [A0]
00006D52  202E FEE8                move.l     D0, [A6 - 0x118]
00006D56  49F0 0800                lea.l      A4, [A0 + D0]
00006D5A  4A94                     tst.l      [A4]
00006D5C  4FEF 0010                lea.l      A7, [A7 + 0x10]
00006D60  6664                     bne        +0x66 /* 00006DC6 */
00006D62  7000                     moveq.l    D0, 0x00
00006D64  102C 000D                move.b     D0, [A4 + 0xD]
00006D68  2F00                     move.l     -[A7], D0
00006D6A  486E FF00                pea.l      [A6 - 0x100]
00006D6E  486C 000E                pea.l      [A4 + 0xE]
00006D72  4EBA 1CA2                jsr        [PC + 0x1CA2 /* 00008A16 */]
00006D76  7000                     moveq.l    D0, 0x00
00006D78  102C 000D                move.b     D0, [A4 + 0xD]
00006D7C  41EE FF00                lea.l      A0, [A6 - 0x100]
00006D80  4230 0000                clr.b      [A0 + D0.w]
00006D84  43EE FEF8                lea.l      A1, [A6 - 0x108]
00006D88  244C                     movea.l    A2, A4
00006D8A  588A                     addq.l     A2, 4
00006D8C  22DA                     move.l     [A1]+, [A2]+
00006D8E  22DA                     move.l     [A1]+, [A2]+
00006D90  486E FEE6                pea.l      [A6 - 0x11A]
00006D94  486E FF00                pea.l      [A6 - 0x100]
00006D98  7000                     moveq.l    D0, 0x00
00006D9A  102C 000C                move.b     D0, [A4 + 0xC]
00006D9E  2F00                     move.l     -[A7], D0
00006DA0  486E FEF8                pea.l      [A6 - 0x108]
00006DA4  2F0C                     move.l     -[A7], A4
00006DA6  2F2E 0008                move.l     -[A7], [A6 + 0x8]
00006DAA  4EBA F672                jsr        [PC - 0x98E /* 0000641E */]
00006DAE  1C00                     move.b     D6, D0
00006DB0  486E FEF8                pea.l      [A6 - 0x108]
00006DB4  70FD                     moveq.l    D0, 0xFFFFFFFD
00006DB6  3F00                     move.w     -[A7], D0
00006DB8  3F00                     move.w     -[A7], D0
00006DBA  A8A9                     syscall    InsetRect
00006DBC  486E FEF8                pea.l      [A6 - 0x108]
00006DC0  A928                     syscall    InvalRect
00006DC2  4FEF 0024                lea.l      A7, [A7 + 0x24]
label00006DC6:
00006DC6  3004                     move.w     D0, D4
00006DC8  5244                     addq.w     D4, 1
label00006DCA:
00006DCA  BA44                     cmp.w      D5, D4
00006DCC  6C00 FF6A                bge        -0x94 /* 00006D38 */
00006DD0  598F                     subq.l     A7, 4
00006DD2  2F2E FEF4                move.l     -[A7], [A6 - 0x10C]
00006DD6  4EBA 1F10                jsr        [PC + 0x1F10 /* 00008CE8 */]
00006DDA  281F                     move.l     D4, [A7]+
00006DDC  206E 0008                movea.l    A0, [A6 + 0x8]
00006DE0  2050                     movea.l    A0, [A0]
00006DE2  2068 0120                movea.l    A0, [A0 + 0x120]
00006DE6  A069                     syscall    HGetState
00006DE8  1A00                     move.b     D5, D0
00006DEA  206E 0008                movea.l    A0, [A6 + 0x8]
00006DEE  2050                     movea.l    A0, [A0]
00006DF0  2068 0120                movea.l    A0, [A0 + 0x120]
00006DF4  A02A                     syscall    HUnlock
00006DF6  206E 0008                movea.l    A0, [A6 + 0x8]
00006DFA  2050                     movea.l    A0, [A0]
00006DFC  2068 0120                movea.l    A0, [A0 + 0x120]
00006E00  2004                     move.l     D0, D4
00006E02  A024                     syscall    SetHandleSize
00006E04  558F                     subq.l     A7, 2
00006E06  3F38 0220                move.w     -[A7], [0x00000220 /* MemErr */]
00006E0A  7000                     moveq.l    D0, 0x00
00006E0C  3F00                     move.w     -[A7], D0
00006E0E  4EBA 933A                jsr        [PC - 0x6CC6 /* 0000014A */]
00006E12  4A1F                     tst.b      [A7]+
00006E14  6608                     bne        +0xA /* 00006E1E */
00006E16  206E FEF4                movea.l    A0, [A6 - 0x10C]
00006E1A  A023                     syscall    DisposHandle/DisposeHandle
00006E1C  6030                     bra        +0x32 /* 00006E4E */
label00006E1E:
00006E1E  2F04                     move.l     -[A7], D4
00006E20  206E 0008                movea.l    A0, [A6 + 0x8]
00006E24  2050                     movea.l    A0, [A0]
00006E26  2068 0120                movea.l    A0, [A0 + 0x120]
00006E2A  2F10                     move.l     -[A7], [A0]
00006E2C  206E FEF4                movea.l    A0, [A6 - 0x10C]
00006E30  2F10                     move.l     -[A7], [A0]
00006E32  4EBA 1BE2                jsr        [PC + 0x1BE2 /* 00008A16 */]
00006E36  206E FEF4                movea.l    A0, [A6 - 0x10C]
00006E3A  A023                     syscall    DisposHandle/DisposeHandle
00006E3C  206E 0008                movea.l    A0, [A6 + 0x8]
00006E40  2050                     movea.l    A0, [A0]
00006E42  2068 0120                movea.l    A0, [A0 + 0x120]
00006E46  1005                     move.b     D0, D5
00006E48  A06A                     syscall    HSetState
00006E4A  4FEF 000C                lea.l      A7, [A7 + 0xC]
label00006E4E:
00006E4E  4CEE 1CF0 FEC8           movem.l    D4,D5,D6,D7,A2,A3,A4, [A6 - 0x138]
00006E54  4E5E                     unlink     A6
00006E56  4E75                     rts
fn00006E58:
00006E58  4E56 FEE0                link       A6, -0x0120
00006E5C  48E7 0F18                movem.l    -[A7], D4,D5,D6,D7,A3,A4
00006E60  47EE FEF8                lea.l      A3, [A6 - 0x108]
00006E64  286E 0008                movea.l    A4, [A6 + 0x8]
00006E68  558F                     subq.l     A7, 2
00006E6A  3EB8 0900                move.w     [A7], [0x00000900 /* CurApRefNum */]
00006E6E  A998                     syscall    UseResFile
00006E70  2F3C 444C 4F47           move.l     -[A7], 0x444C4F47 /* 'DLOG' */
00006E76  3F3C 059A                move.w     -[A7], 0x59A
00006E7A  4EBA 930A                jsr        [PC - 0x6CF6 /* 00000186 */]
00006E7E  598F                     subq.l     A7, 4
00006E80  3F3C 059A                move.w     -[A7], 0x59A
00006E84  7000                     moveq.l    D0, 0x00
00006E86  2F00                     move.l     -[A7], D0
00006E88  72FF                     moveq.l    D1, 0xFFFFFFFF
00006E8A  2F01                     move.l     -[A7], D1
00006E8C  A97C                     syscall    GetNewDialog
00006E8E  2D5F FEE8                move.l     [A6 - 0x118], [A7]+
00006E92  4EBA 91C6                jsr        [PC - 0x6E3A /* 0000005A */]
00006E96  2054                     movea.l    A0, [A4]
00006E98  2D48 FFFC                move.l     [A6 - 0x4], A0
00006E9C  3C28 014C                move.w     D6, [A0 + 0x14C]
00006EA0  3E28 014E                move.w     D7, [A0 + 0x14E]
00006EA4  3A28 0148                move.w     D5, [A0 + 0x148]
00006EA8  3828 014A                move.w     D4, [A0 + 0x14A]
00006EAC  206E FEE8                movea.l    A0, [A6 - 0x118]
00006EB0  214C 0098                move.l     [A0 + 0x98], A4
00006EB4  486E FEF0                pea.l      [A6 - 0x110]
00006EB8  486E FEEC                pea.l      [A6 - 0x114]
00006EBC  486E FEE2                pea.l      [A6 - 0x11E]
00006EC0  7003                     moveq.l    D0, 0x03
00006EC2  2F00                     move.l     -[A7], D0
00006EC4  2F2E FEE8                move.l     -[A7], [A6 - 0x118]
00006EC8  4EBA 1B7E                jsr        [PC + 0x1B7E /* 00008A48 */]
00006ECC  2F2E FEE8                move.l     -[A7], [A6 - 0x118]
00006ED0  7003                     moveq.l    D0, 0x03
00006ED2  3F00                     move.w     -[A7], D0
00006ED4  3F2E FEE2                move.w     -[A7], [A6 - 0x11E]
00006ED8  487A 0150                pea.l      [PC + 0x150 /* 0000702A, value 0x4E560000 'NV\0\0', cstring "NV" */]
00006EDC  486E FEF0                pea.l      [A6 - 0x110]
00006EE0  A98E                     syscall    SetDialogItem/SetDItem
00006EE2  486E FEF0                pea.l      [A6 - 0x110]
00006EE6  486E FEEC                pea.l      [A6 - 0x114]
00006EEA  486E FEE2                pea.l      [A6 - 0x11E]
00006EEE  7004                     moveq.l    D0, 0x04
00006EF0  2F00                     move.l     -[A7], D0
00006EF2  2F2E FEE8                move.l     -[A7], [A6 - 0x118]
00006EF6  4EBA 1B50                jsr        [PC + 0x1B50 /* 00008A48 */]
00006EFA  2F2E FEE8                move.l     -[A7], [A6 - 0x118]
00006EFE  7004                     moveq.l    D0, 0x04
00006F00  3F00                     move.w     -[A7], D0
00006F02  3F2E FEE2                move.w     -[A7], [A6 - 0x11E]
00006F06  487A 0154                pea.l      [PC + 0x154 /* 0000705C, value 0x4E560000 'NV\0\0', cstring "NV" */]
00006F0A  486E FEF0                pea.l      [A6 - 0x110]
00006F0E  A98E                     syscall    SetDialogItem/SetDItem
00006F10  4FEF 0028                lea.l      A7, [A7 + 0x28]
label00006F14:
00006F14  487A E5BC                pea.l      [PC - 0x1A44 /* 000054D2, value 0x4E560000 'NV\0\0', cstring "NV" */]
00006F18  486E FEE0                pea.l      [A6 - 0x120]
00006F1C  A991                     syscall    ModalDialog
00006F1E  302E FEE0                move.w     D0, [A6 - 0x120]
00006F22  5340                     subq.w     D0, 1
00006F24  6B00 00E2                bmi        +0xE4 /* 00007008 */
00006F28  0C40 0003                cmpi.w     D0, 0x3
00006F2C  6E00 00DA                bgt        +0xDC /* 00007008 */
00006F30  D040                     add.w      D0, D0
00006F32  303B 0006                move.w     D0, [PC + D0.w + 0x6]
00006F36  4EFB 0000                jmp        [PC + D0.w]
00006F3A  000A 002E                ori.b      A2, 0x2E /* '.' */
00006F3E  004A 0096                ori.w      A2, 0x96
00006F42  486E FFF8                pea.l      [A6 - 0x8]
00006F46  A874                     syscall    GetPort
00006F48  2054                     movea.l    A0, [A4]
00006F4A  2F28 0104                move.l     -[A7], [A0 + 0x104]
00006F4E  A873                     syscall    SetPort
00006F50  2054                     movea.l    A0, [A4]
00006F52  2068 0104                movea.l    A0, [A0 + 0x104]
00006F56  4868 0010                pea.l      [A0 + 0x10]
00006F5A  A928                     syscall    InvalRect
00006F5C  2F2E FFF8                move.l     -[A7], [A6 - 0x8]
00006F60  A873                     syscall    SetPort
00006F62  6000 00A4                bra        +0xA6 /* 00007008 */
00006F66  2054                     movea.l    A0, [A4]
00006F68  3146 014C                move.w     [A0 + 0x14C], D6
00006F6C  2054                     movea.l    A0, [A4]
00006F6E  3147 014E                move.w     [A0 + 0x14E], D7
00006F72  2054                     movea.l    A0, [A4]
00006F74  3145 0148                move.w     [A0 + 0x148], D5
00006F78  2054                     movea.l    A0, [A4]
00006F7A  3144 014A                move.w     [A0 + 0x14A], D4
00006F7E  6000 0088                bra        +0x8A /* 00007008 */
00006F82  2F2E FEE8                move.l     -[A7], [A6 - 0x118]
00006F86  7005                     moveq.l    D0, 0x05
00006F88  3F00                     move.w     -[A7], D0
00006F8A  7203                     moveq.l    D1, 0x03
00006F8C  3F01                     move.w     -[A7], D1
00006F8E  2054                     movea.l    A0, [A4]
00006F90  4868 0148                pea.l      [A0 + 0x148]
00006F94  2F28 013C                move.l     -[A7], [A0 + 0x13C]
00006F98  4EBA 9234                jsr        [PC - 0x6DCC /* 000001CE */]
00006F9C  2054                     movea.l    A0, [A4]
00006F9E  2F28 013C                move.l     -[A7], [A0 + 0x13C]
00006FA2  3F28 0148                move.w     -[A7], [A0 + 0x148]
00006FA6  2F0B                     move.l     -[A7], A3
00006FA8  A946                     syscall    GetMenuItemText/GetItem
00006FAA  2F0B                     move.l     -[A7], A3
00006FAC  2054                     movea.l    A0, [A4]
00006FAE  4868 014C                pea.l      [A0 + 0x14C]
00006FB2  A900                     syscall    GetFNum
00006FB4  7000                     moveq.l    D0, 0x00
00006FB6  2F00                     move.l     -[A7], D0
00006FB8  2F0C                     move.l     -[A7], A4
00006FBA  4EBA BF62                jsr        [PC - 0x409E /* 00002F1E */]
00006FBE  7001                     moveq.l    D0, 0x01
00006FC0  2F00                     move.l     -[A7], D0
00006FC2  2F0C                     move.l     -[A7], A4
00006FC4  4EBA BF58                jsr        [PC - 0x40A8 /* 00002F1E */]
00006FC8  4FEF 0010                lea.l      A7, [A7 + 0x10]
00006FCC  603A                     bra        +0x3C /* 00007008 */
00006FCE  2F2E FEE8                move.l     -[A7], [A6 - 0x118]
00006FD2  7006                     moveq.l    D0, 0x06
00006FD4  3F00                     move.w     -[A7], D0
00006FD6  7204                     moveq.l    D1, 0x04
00006FD8  3F01                     move.w     -[A7], D1
00006FDA  2054                     movea.l    A0, [A4]
00006FDC  4868 014A                pea.l      [A0 + 0x14A]
00006FE0  2F28 0140                move.l     -[A7], [A0 + 0x140]
00006FE4  4EBA 91E8                jsr        [PC - 0x6E18 /* 000001CE */]
00006FE8  2054                     movea.l    A0, [A4]
00006FEA  2F28 0140                move.l     -[A7], [A0 + 0x140]
00006FEE  3F28 014A                move.w     -[A7], [A0 + 0x14A]
00006FF2  2F0B                     move.l     -[A7], A3
00006FF4  A946                     syscall    GetMenuItemText/GetItem
00006FF6  2F0B                     move.l     -[A7], A3
00006FF8  486E FEE4                pea.l      [A6 - 0x11C]
00006FFC  4EBA 1E94                jsr        [PC + 0x1E94 /* 00008E92 */]
00007000  2054                     movea.l    A0, [A4]
00007002  316E FEE6 014E           move.w     [A0 + 0x14E], [A6 - 0x11A]
label00007008:
00007008  7001                     moveq.l    D0, 0x01
0000700A  B06E FEE0                cmp.w      D0, [A6 - 0x120]
0000700E  670A                     beq        +0xC /* 0000701A */
00007010  7002                     moveq.l    D0, 0x02
00007012  B06E FEE0                cmp.w      D0, [A6 - 0x120]
00007016  6600 FEFC                bne        -0x102 /* 00006F14 */
label0000701A:
0000701A  2F2E FEE8                move.l     -[A7], [A6 - 0x118]
0000701E  A983                     syscall    DisposeDialog
00007020  4CEE 18F0 FEC8           movem.l    D4,D5,D6,D7,A3,A4, [A6 - 0x138]
00007026  4E5E                     unlink     A6
00007028  4E75                     rts
0000702A  4E56 0000                link       A6, 0
0000702E  48E7 0018                movem.l    -[A7], A3,A4
00007032  266E 000A                movea.l    A3, [A6 + 0xA]
00007036  286B 0098                movea.l    A4, [A3 + 0x98]
0000703A  2F0B                     move.l     -[A7], A3
0000703C  3F2E 0008                move.w     -[A7], [A6 + 0x8]
00007040  2054                     movea.l    A0, [A4]
00007042  3F28 0148                move.w     -[A7], [A0 + 0x148]
00007046  2F28 013C                move.l     -[A7], [A0 + 0x13C]
0000704A  4EBA 90BE                jsr        [PC - 0x6F42 /* 0000010A */]
0000704E  4CEE 1800 FFF8           movem.l    A3,A4, [A6 - 0x8]
00007054  4E5E                     unlink     A6
00007056  205F                     movea.l    A0, [A7]+
00007058  5C4F                     addq.w     A7, 6
0000705A  4ED0                     jmp        [A0]
0000705C  4E56 0000                link       A6, 0
00007060  48E7 0018                movem.l    -[A7], A3,A4
00007064  266E 000A                movea.l    A3, [A6 + 0xA]
00007068  286B 0098                movea.l    A4, [A3 + 0x98]
0000706C  2F0B                     move.l     -[A7], A3
0000706E  3F2E 0008                move.w     -[A7], [A6 + 0x8]
00007072  2054                     movea.l    A0, [A4]
00007074  3F28 014A                move.w     -[A7], [A0 + 0x14A]
00007078  2F28 0140                move.l     -[A7], [A0 + 0x140]
0000707C  4EBA 908C                jsr        [PC - 0x6F74 /* 0000010A */]
00007080  4CEE 1800 FFF8           movem.l    A3,A4, [A6 - 0x8]
00007086  4E5E                     unlink     A6
00007088  205F                     movea.l    A0, [A7]+
0000708A  5C4F                     addq.w     A7, 6
0000708C  4ED0                     jmp        [A0]
fn0000708E:
0000708E  4E56 FFE6                link       A6, -0x001A
00007092  2F0C                     move.l     -[A7], A4
00007094  286E 0008                movea.l    A4, [A6 + 0x8]
00007098  2054                     movea.l    A0, [A4]
0000709A  2068 0104                movea.l    A0, [A0 + 0x104]
0000709E  43EE FFE6                lea.l      A1, [A6 - 0x1A]
000070A2  41E8 0010                lea.l      A0, [A0 + 0x10]
000070A6  22D8                     move.l     [A1]+, [A0]+
000070A8  22D8                     move.l     [A1]+, [A0]+
000070AA  302E FFEC                move.w     D0, [A6 - 0x14]
000070AE  5140                     subq.w     D0, 8
000070B0  3D40 FFE8                move.w     [A6 - 0x18], D0
000070B4  302E FFEA                move.w     D0, [A6 - 0x16]
000070B8  5140                     subq.w     D0, 8
000070BA  3D40 FFE6                move.w     [A6 - 0x1A], D0
000070BE  486E FFEE                pea.l      [A6 - 0x12]
000070C2  A898                     syscall    GetPenState
000070C4  2054                     movea.l    A0, [A4]
000070C6  2068 016A                movea.l    A0, [A0 + 0x16A]
000070CA  4868 006E                pea.l      [A0 + 0x6E]
000070CE  A89D                     syscall    PenPat
000070D0  7009                     moveq.l    D0, 0x09
000070D2  3F00                     move.w     -[A7], D0
000070D4  A89C                     syscall    PenMode
000070D6  486E FFE6                pea.l      [A6 - 0x1A]
000070DA  A8A2                     syscall    PaintRect
000070DC  486E FFEE                pea.l      [A6 - 0x12]
000070E0  A899                     syscall    SetPenState
000070E2  286E FFE2                movea.l    A4, [A6 - 0x1E]
000070E6  4E5E                     unlink     A6
000070E8  4E75                     rts
fn000070EA:
000070EA  4E56 FFEA                link       A6, -0x0016
000070EE  48E7 1718                movem.l    -[A7], D3,D5,D6,D7,A3,A4
000070F2  206E 0008                movea.l    A0, [A6 + 0x8]
000070F6  2050                     movea.l    A0, [A0]
000070F8  3028 0150                move.w     D0, [A0 + 0x150]
000070FC  48C0                     ext.l      D0
000070FE  D080                     add.l      D0, D0
00007100  A31E                     syscall    NewPtrClear, flags=3
00007102  2648                     movea.l    A3, A0
00007104  558F                     subq.l     A7, 2
00007106  3F38 0220                move.w     -[A7], [0x00000220 /* MemErr */]
0000710A  7000                     moveq.l    D0, 0x00
0000710C  3F00                     move.w     -[A7], D0
0000710E  4EBA 903A                jsr        [PC - 0x6FC6 /* 0000014A */]
00007112  4A1F                     tst.b      [A7]+
00007114  6606                     bne        +0x8 /* 0000711C */
00007116  7000                     moveq.l    D0, 0x00
00007118  6000 01B4                bra        +0x1B6 /* 000072CE */
label0000711C:
0000711C  4246                     clr.w      D6
0000711E  206E 0008                movea.l    A0, [A6 + 0x8]
00007122  2050                     movea.l    A0, [A0]
00007124  3A28 0152                move.w     D5, [A0 + 0x152]
00007128  206E 0008                movea.l    A0, [A6 + 0x8]
0000712C  2050                     movea.l    A0, [A0]
0000712E  2068 015E                movea.l    A0, [A0 + 0x15E]
00007132  2850                     movea.l    A4, [A0]
00007134  206E 0008                movea.l    A0, [A6 + 0x8]
00007138  2050                     movea.l    A0, [A0]
0000713A  3E28 0150                move.w     D7, [A0 + 0x150]
0000713E  6000 00A4                bra        +0xA6 /* 000071E4 */
label00007142:
00007142  486E FFF0                pea.l      [A6 - 0x10]
00007146  486E FFEC                pea.l      [A6 - 0x14]
0000714A  486E FFEA                pea.l      [A6 - 0x16]
0000714E  48C7                     ext.l      D7
00007150  2F07                     move.l     -[A7], D7
00007152  206E 0008                movea.l    A0, [A6 + 0x8]
00007156  2050                     movea.l    A0, [A0]
00007158  2F28 0104                move.l     -[A7], [A0 + 0x104]
0000715C  4EBA 18EA                jsr        [PC + 0x18EA /* 00008A48 */]
00007160  026E FF7F FFEA           andi.w     [A6 - 0x16], 0xFF7F
00007166  7001                     moveq.l    D0, 0x01
00007168  B06E FFEA                cmp.w      D0, [A6 - 0x16]
0000716C  4FEF 0014                lea.l      A7, [A7 + 0x14]
00007170  6770                     beq        +0x72 /* 000071E2 */
00007172  7004                     moveq.l    D0, 0x04
00007174  C06E FFEA                and.w      D0, [A6 - 0x16]
00007178  7200                     moveq.l    D1, 0x00
0000717A  3200                     move.w     D1, D0
0000717C  4A81                     tst.l      D1
0000717E  6762                     beq        +0x64 /* 000071E2 */
00007180  558F                     subq.l     A7, 2
00007182  2F2E 000C                move.l     -[A7], [A6 + 0xC]
00007186  486E FFF0                pea.l      [A6 - 0x10]
0000718A  A8AD                     syscall    PtInRect
0000718C  4A1F                     tst.b      [A7]+
0000718E  670E                     beq        +0x10 /* 0000719E */
00007190  3006                     move.w     D0, D6
00007192  5246                     addq.w     D6, 1
00007194  48C0                     ext.l      D0
00007196  D080                     add.l      D0, D0
00007198  3787 0800                move.w     [A3 + D0], D7
0000719C  6044                     bra        +0x46 /* 000071E2 */
label0000719E:
0000719E  48C7                     ext.l      D7
000071A0  2007                     move.l     D0, D7
000071A2  E580                     asl        D0, 2
000071A4  7201                     moveq.l    D1, 0x01
000071A6  B274 0800                cmp.w      D1, [A4 + D0]
000071AA  6636                     bne        +0x38 /* 000071E2 */
000071AC  0C45 0001                cmpi.w     D5, 0x1
000071B0  6630                     bne        +0x32 /* 000071E2 */
000071B2  41EE FFF8                lea.l      A0, [A6 - 0x8]
000071B6  2F20                     move.l     -[A7], -[A0]
000071B8  2F20                     move.l     -[A7], -[A0]
000071BA  486E FFF8                pea.l      [A6 - 0x8]
000071BE  4EBA 181E                jsr        [PC + 0x181E /* 000089DE */]
000071C2  558F                     subq.l     A7, 2
000071C4  2F2E 000C                move.l     -[A7], [A6 + 0xC]
000071C8  486E FFF8                pea.l      [A6 - 0x8]
000071CC  A8AD                     syscall    PtInRect
000071CE  4A1F                     tst.b      [A7]+
000071D0  4FEF 000C                lea.l      A7, [A7 + 0xC]
000071D4  670C                     beq        +0xE /* 000071E2 */
000071D6  3006                     move.w     D0, D6
000071D8  5246                     addq.w     D6, 1
000071DA  48C0                     ext.l      D0
000071DC  D080                     add.l      D0, D0
000071DE  3787 0800                move.w     [A3 + D0], D7
label000071E2:
000071E2  5347                     subq.w     D7, 1
label000071E4:
000071E4  0C47 0001                cmpi.w     D7, 0x1
000071E8  6C00 FF58                bge        -0xA6 /* 00007142 */
000071EC  7E01                     moveq.l    D7, 0x01
000071EE  6000 00A0                bra        +0xA2 /* 00007290 */
label000071F2:
000071F2  486E FFF0                pea.l      [A6 - 0x10]
000071F6  486E FFEC                pea.l      [A6 - 0x14]
000071FA  486E FFEA                pea.l      [A6 - 0x16]
000071FE  48C7                     ext.l      D7
00007200  2F07                     move.l     -[A7], D7
00007202  206E 0008                movea.l    A0, [A6 + 0x8]
00007206  2050                     movea.l    A0, [A0]
00007208  2F28 0104                move.l     -[A7], [A0 + 0x104]
0000720C  4EBA 183A                jsr        [PC + 0x183A /* 00008A48 */]
00007210  026E FF7F FFEA           andi.w     [A6 - 0x16], 0xFF7F
00007216  7001                     moveq.l    D0, 0x01
00007218  B06E FFEA                cmp.w      D0, [A6 - 0x16]
0000721C  4FEF 0014                lea.l      A7, [A7 + 0x14]
00007220  676A                     beq        +0x6C /* 0000728C */
00007222  7004                     moveq.l    D0, 0x04
00007224  C06E FFEA                and.w      D0, [A6 - 0x16]
00007228  6662                     bne        +0x64 /* 0000728C */
0000722A  558F                     subq.l     A7, 2
0000722C  2F2E 000C                move.l     -[A7], [A6 + 0xC]
00007230  486E FFF0                pea.l      [A6 - 0x10]
00007234  A8AD                     syscall    PtInRect
00007236  4A1F                     tst.b      [A7]+
00007238  670E                     beq        +0x10 /* 00007248 */
0000723A  3006                     move.w     D0, D6
0000723C  5246                     addq.w     D6, 1
0000723E  48C0                     ext.l      D0
00007240  D080                     add.l      D0, D0
00007242  3787 0800                move.w     [A3 + D0], D7
00007246  6044                     bra        +0x46 /* 0000728C */
label00007248:
00007248  48C7                     ext.l      D7
0000724A  2007                     move.l     D0, D7
0000724C  E580                     asl        D0, 2
0000724E  7201                     moveq.l    D1, 0x01
00007250  B274 0800                cmp.w      D1, [A4 + D0]
00007254  6636                     bne        +0x38 /* 0000728C */
00007256  0C45 0001                cmpi.w     D5, 0x1
0000725A  6630                     bne        +0x32 /* 0000728C */
0000725C  41EE FFF8                lea.l      A0, [A6 - 0x8]
00007260  2F20                     move.l     -[A7], -[A0]
00007262  2F20                     move.l     -[A7], -[A0]
00007264  486E FFF8                pea.l      [A6 - 0x8]
00007268  4EBA 1774                jsr        [PC + 0x1774 /* 000089DE */]
0000726C  558F                     subq.l     A7, 2
0000726E  2F2E 000C                move.l     -[A7], [A6 + 0xC]
00007272  486E FFF8                pea.l      [A6 - 0x8]
00007276  A8AD                     syscall    PtInRect
00007278  4A1F                     tst.b      [A7]+
0000727A  4FEF 000C                lea.l      A7, [A7 + 0xC]
0000727E  670C                     beq        +0xE /* 0000728C */
00007280  3006                     move.w     D0, D6
00007282  5246                     addq.w     D6, 1
00007284  48C0                     ext.l      D0
00007286  D080                     add.l      D0, D0
00007288  3787 0800                move.w     [A3 + D0], D7
label0000728C:
0000728C  3007                     move.w     D0, D7
0000728E  5247                     addq.w     D7, 1
label00007290:
00007290  206E 0008                movea.l    A0, [A6 + 0x8]
00007294  2050                     movea.l    A0, [A0]
00007296  BE68 0150                cmp.w      D7, [A0 + 0x150]
0000729A  6F00 FF56                ble        -0xA8 /* 000071F2 */
0000729E  4A46                     tst.w      D6
000072A0  6604                     bne        +0x6 /* 000072A6 */
000072A2  4245                     clr.w      D5
000072A4  6022                     bra        +0x24 /* 000072C8 */
label000072A6:
000072A6  4247                     clr.w      D7
000072A8  601A                     bra        +0x1C /* 000072C4 */
label000072AA:
000072AA  48C7                     ext.l      D7
000072AC  2007                     move.l     D0, D7
000072AE  D080                     add.l      D0, D0
000072B0  3A33 0800                move.w     D5, [A3 + D0]
000072B4  48C5                     ext.l      D5
000072B6  2005                     move.l     D0, D5
000072B8  E580                     asl        D0, 2
000072BA  4A74 0800                tst.w      [A4 + D0]
000072BE  6608                     bne        +0xA /* 000072C8 */
000072C0  3007                     move.w     D0, D7
000072C2  5247                     addq.w     D7, 1
label000072C4:
000072C4  BC47                     cmp.w      D6, D7
000072C6  6EE2                     bgt        -0x1C /* 000072AA */
label000072C8:
000072C8  204B                     movea.l    A0, A3
000072CA  A01F                     syscall    DisposPtr/DisposePtr
000072CC  3005                     move.w     D0, D5
label000072CE:
000072CE  4CEE 18E8 FFD2           movem.l    D3,D5,D6,D7,A3,A4, [A6 - 0x2E]
000072D4  4E5E                     unlink     A6
000072D6  4E75                     rts
fn000072D8:
000072D8  4E56 FEC0                link       A6, -0x0140
000072DC  48E7 0118                movem.l    -[A7], D7,A3,A4
000072E0  266E 0008                movea.l    A3, [A6 + 0x8]
000072E4  2053                     movea.l    A0, [A3]
000072E6  2068 0104                movea.l    A0, [A0 + 0x104]
000072EA  43EE FFE2                lea.l      A1, [A6 - 0x1E]
000072EE  41E8 0010                lea.l      A0, [A0 + 0x10]
000072F2  22D8                     move.l     [A1]+, [A0]+
000072F4  22D8                     move.l     [A1]+, [A0]+
000072F6  41EE FFDA                lea.l      A0, [A6 - 0x26]
000072FA  43EE FFE2                lea.l      A1, [A6 - 0x1E]
000072FE  20D9                     move.l     [A0]+, [A1]+
00007300  20D9                     move.l     [A0]+, [A1]+
00007302  302E FFE0                move.w     D0, [A6 - 0x20]
00007306  5140                     subq.w     D0, 8
00007308  3D40 FFDC                move.w     [A6 - 0x24], D0
0000730C  302E FFDE                move.w     D0, [A6 - 0x22]
00007310  5140                     subq.w     D0, 8
00007312  3D40 FFDA                move.w     [A6 - 0x26], D0
00007316  486E FFCE                pea.l      [A6 - 0x32]
0000731A  A972                     syscall    GetMouse
0000731C  558F                     subq.l     A7, 2
0000731E  2F2E FFCE                move.l     -[A7], [A6 - 0x32]
00007322  486E FFDA                pea.l      [A6 - 0x26]
00007326  A8AD                     syscall    PtInRect
00007328  4A1F                     tst.b      [A7]+
0000732A  6606                     bne        +0x8 /* 00007332 */
0000732C  7000                     moveq.l    D0, 0x00
0000732E  6000 029E                bra        +0x2A0 /* 000075CE */
label00007332:
00007332  486E FFDA                pea.l      [A6 - 0x26]
00007336  A928                     syscall    InvalRect
00007338  486E FFCE                pea.l      [A6 - 0x32]
0000733C  A870                     syscall    LocalToGlobal
0000733E  486E FFDA                pea.l      [A6 - 0x26]
00007342  A870                     syscall    LocalToGlobal
00007344  486E FFDE                pea.l      [A6 - 0x22]
00007348  A870                     syscall    LocalToGlobal
0000734A  486E FFE2                pea.l      [A6 - 0x1E]
0000734E  A870                     syscall    LocalToGlobal
00007350  486E FFE6                pea.l      [A6 - 0x1A]
00007354  A870                     syscall    LocalToGlobal
00007356  486E FFFC                pea.l      [A6 - 0x4]
0000735A  A910                     syscall    GetWMgrPort
0000735C  2F2E FFFC                move.l     -[A7], [A6 - 0x4]
00007360  A873                     syscall    SetPort
00007362  2F38 09EE                move.l     -[A7], [0x000009EE /* GrayRgn */]
00007366  A879                     syscall    SetClip
00007368  486E FFCE                pea.l      [A6 - 0x32]
0000736C  A871                     syscall    GlobalToLocal
0000736E  486E FFDA                pea.l      [A6 - 0x26]
00007372  A871                     syscall    GlobalToLocal
00007374  486E FFDE                pea.l      [A6 - 0x22]
00007378  A871                     syscall    GlobalToLocal
0000737A  486E FFE2                pea.l      [A6 - 0x1E]
0000737E  A871                     syscall    GlobalToLocal
00007380  486E FFE6                pea.l      [A6 - 0x1A]
00007384  A871                     syscall    GlobalToLocal
00007386  486E FFE2                pea.l      [A6 - 0x1E]
0000738A  70FF                     moveq.l    D0, 0xFFFFFFFF
0000738C  3F00                     move.w     -[A7], D0
0000738E  3F00                     move.w     -[A7], D0
00007390  A8A9                     syscall    InsetRect
00007392  486E FFEA                pea.l      [A6 - 0x16]
00007396  A898                     syscall    GetPenState
00007398  2053                     movea.l    A0, [A3]
0000739A  2068 016A                movea.l    A0, [A0 + 0x16A]
0000739E  4868 0066                pea.l      [A0 + 0x66]
000073A2  A89D                     syscall    PenPat
000073A4  700A                     moveq.l    D0, 0x0A
000073A6  3F00                     move.w     -[A7], D0
000073A8  A89C                     syscall    PenMode
000073AA  2D6E FFCE FFD6           move.l     [A6 - 0x2A], [A6 - 0x32]
000073B0  486E FFE2                pea.l      [A6 - 0x1E]
000073B4  A8A1                     syscall    FrameRect
000073B6  606E                     bra        +0x70 /* 00007426 */
label000073B8:
000073B8  486E FFD2                pea.l      [A6 - 0x2E]
000073BC  A972                     syscall    GetMouse
000073BE  558F                     subq.l     A7, 2
000073C0  2F2E FFD2                move.l     -[A7], [A6 - 0x2E]
000073C4  2F2E FFD6                move.l     -[A7], [A6 - 0x2A]
000073C8  A881                     syscall    EqualPt
000073CA  4A1F                     tst.b      [A7]+
000073CC  6658                     bne        +0x5A /* 00007426 */
000073CE  302E FFD4                move.w     D0, [A6 - 0x2C]
000073D2  B06E FFE4                cmp.w      D0, [A6 - 0x1C]
000073D6  6D4E                     blt        +0x50 /* 00007426 */
000073D8  302E FFD2                move.w     D0, [A6 - 0x2E]
000073DC  B06E FFE2                cmp.w      D0, [A6 - 0x1E]
000073E0  6D44                     blt        +0x46 /* 00007426 */
000073E2  486E FFE2                pea.l      [A6 - 0x1E]
000073E6  A8A1                     syscall    FrameRect
000073E8  486E FFDA                pea.l      [A6 - 0x26]
000073EC  302E FFD4                move.w     D0, [A6 - 0x2C]
000073F0  906E FFD8                sub.w      D0, [A6 - 0x28]
000073F4  3F00                     move.w     -[A7], D0
000073F6  302E FFD2                move.w     D0, [A6 - 0x2E]
000073FA  906E FFD6                sub.w      D0, [A6 - 0x2A]
000073FE  3F00                     move.w     -[A7], D0
00007400  A8A8                     syscall    OffsetRect
00007402  302E FFD4                move.w     D0, [A6 - 0x2C]
00007406  906E FFD8                sub.w      D0, [A6 - 0x28]
0000740A  D16E FFE8                add.w      [A6 - 0x18], D0
0000740E  302E FFD2                move.w     D0, [A6 - 0x2E]
00007412  906E FFD6                sub.w      D0, [A6 - 0x2A]
00007416  D16E FFE6                add.w      [A6 - 0x1A], D0
0000741A  486E FFE2                pea.l      [A6 - 0x1E]
0000741E  A8A1                     syscall    FrameRect
00007420  2D6E FFD2 FFD6           move.l     [A6 - 0x2A], [A6 - 0x2E]
label00007426:
00007426  558F                     subq.l     A7, 2
00007428  A973                     syscall    StillDown
0000742A  4A1F                     tst.b      [A7]+
0000742C  668A                     bne        -0x74 /* 000073B8 */
0000742E  486E FFE2                pea.l      [A6 - 0x1E]
00007432  A8A1                     syscall    FrameRect
00007434  486E FFEA                pea.l      [A6 - 0x16]
00007438  A899                     syscall    SetPenState
0000743A  486E FFDA                pea.l      [A6 - 0x26]
0000743E  A870                     syscall    LocalToGlobal
00007440  486E FFDE                pea.l      [A6 - 0x22]
00007444  A870                     syscall    LocalToGlobal
00007446  2053                     movea.l    A0, [A3]
00007448  2F28 0104                move.l     -[A7], [A0 + 0x104]
0000744C  A873                     syscall    SetPort
0000744E  486E FFDA                pea.l      [A6 - 0x26]
00007452  A871                     syscall    GlobalToLocal
00007454  486E FFDE                pea.l      [A6 - 0x22]
00007458  A871                     syscall    GlobalToLocal
0000745A  486E FFE2                pea.l      [A6 - 0x1E]
0000745E  7001                     moveq.l    D0, 0x01
00007460  3F00                     move.w     -[A7], D0
00007462  3F00                     move.w     -[A7], D0
00007464  A8A9                     syscall    InsetRect
00007466  486E FFDA                pea.l      [A6 - 0x26]
0000746A  A928                     syscall    InvalRect
0000746C  41EE FFCE                lea.l      A0, [A6 - 0x32]
00007470  43EE FFD2                lea.l      A1, [A6 - 0x2E]
00007474  7000                     moveq.l    D0, 0x00
label00007476:
00007476  B189                     cmpm.l     [A0]+, [A1]+
00007478  56C8 FFFC                dbne       D0, -0x6 /* 00007476 */
0000747C  6700 014E                beq        +0x150 /* 000075CC */
00007480  2053                     movea.l    A0, [A3]
00007482  2F28 0104                move.l     -[A7], [A0 + 0x104]
00007486  302E FFE8                move.w     D0, [A6 - 0x18]
0000748A  906E FFE4                sub.w      D0, [A6 - 0x1C]
0000748E  3F00                     move.w     -[A7], D0
00007490  302E FFE6                move.w     D0, [A6 - 0x1A]
00007494  906E FFE2                sub.w      D0, [A6 - 0x1E]
00007498  3F00                     move.w     -[A7], D0
0000749A  7001                     moveq.l    D0, 0x01
0000749C  1F00                     move.b     -[A7], D0
0000749E  A91D                     syscall    SizeWindow
000074A0  4207                     clr.b      D7
000074A2  2053                     movea.l    A0, [A3]
000074A4  2F28 0114                move.l     -[A7], [A0 + 0x114]
000074A8  486E FEC2                pea.l      [A6 - 0x13E]
000074AC  486E FEC6                pea.l      [A6 - 0x13A]
000074B0  486E FECA                pea.l      [A6 - 0x136]
000074B4  A9A8                     syscall    GetResInfo
000074B6  598F                     subq.l     A7, 4
000074B8  2053                     movea.l    A0, [A3]
000074BA  3F28 0110                move.w     -[A7], [A0 + 0x110]
000074BE  2F3C 444C 4F47           move.l     -[A7], 0x444C4F47 /* 'DLOG' */
000074C4  3F2E FEC2                move.w     -[A7], [A6 - 0x13E]
000074C8  486E FEC1                pea.l      [A6 - 0x13F]
000074CC  486E FEC4                pea.l      [A6 - 0x13C]
000074D0  4EBA 8B90                jsr        [PC - 0x7470 /* 00000062 */]
000074D4  285F                     movea.l    A4, [A7]+
000074D6  200C                     move.l     D0, A4
000074D8  6742                     beq        +0x44 /* 0000751C */
000074DA  4A94                     tst.l      [A4]
000074DC  673E                     beq        +0x40 /* 0000751C */
000074DE  2054                     movea.l    A0, [A4]
000074E0  3028 0012                move.w     D0, [A0 + 0x12]
000074E4  B06E FEC2                cmp.w      D0, [A6 - 0x13E]
000074E8  6632                     bne        +0x34 /* 0000751C */
000074EA  3028 0002                move.w     D0, [A0 + 0x2]
000074EE  48C0                     ext.l      D0
000074F0  322E FFE8                move.w     D1, [A6 - 0x18]
000074F4  48C1                     ext.l      D1
000074F6  D280                     add.l      D1, D0
000074F8  926E FFE4                sub.w      D1, [A6 - 0x1C]
000074FC  2054                     movea.l    A0, [A4]
000074FE  3141 0006                move.w     [A0 + 0x6], D1
00007502  2054                     movea.l    A0, [A4]
00007504  3010                     move.w     D0, [A0]
00007506  48C0                     ext.l      D0
00007508  322E FFE6                move.w     D1, [A6 - 0x1A]
0000750C  48C1                     ext.l      D1
0000750E  D280                     add.l      D1, D0
00007510  926E FFE2                sub.w      D1, [A6 - 0x1E]
00007514  2054                     movea.l    A0, [A4]
00007516  3141 0004                move.w     [A0 + 0x4], D1
0000751A  7E01                     moveq.l    D7, 0x01
label0000751C:
0000751C  4A07                     tst.b      D7
0000751E  6666                     bne        +0x68 /* 00007586 */
00007520  598F                     subq.l     A7, 4
00007522  2053                     movea.l    A0, [A3]
00007524  3F28 0110                move.w     -[A7], [A0 + 0x110]
00007528  2F3C 414C 5254           move.l     -[A7], 0x414C5254 /* 'ALRT' */
0000752E  3F2E FEC2                move.w     -[A7], [A6 - 0x13E]
00007532  486E FEC1                pea.l      [A6 - 0x13F]
00007536  486E FEC4                pea.l      [A6 - 0x13C]
0000753A  4EBA 8B26                jsr        [PC - 0x74DA /* 00000062 */]
0000753E  285F                     movea.l    A4, [A7]+
00007540  200C                     move.l     D0, A4
00007542  6742                     beq        +0x44 /* 00007586 */
00007544  4A94                     tst.l      [A4]
00007546  673E                     beq        +0x40 /* 00007586 */
00007548  2054                     movea.l    A0, [A4]
0000754A  3028 0008                move.w     D0, [A0 + 0x8]
0000754E  B06E FEC2                cmp.w      D0, [A6 - 0x13E]
00007552  6632                     bne        +0x34 /* 00007586 */
00007554  3028 0002                move.w     D0, [A0 + 0x2]
00007558  48C0                     ext.l      D0
0000755A  322E FFE8                move.w     D1, [A6 - 0x18]
0000755E  48C1                     ext.l      D1
00007560  D280                     add.l      D1, D0
00007562  926E FFE4                sub.w      D1, [A6 - 0x1C]
00007566  2054                     movea.l    A0, [A4]
00007568  3141 0006                move.w     [A0 + 0x6], D1
0000756C  2054                     movea.l    A0, [A4]
0000756E  3010                     move.w     D0, [A0]
00007570  48C0                     ext.l      D0
00007572  322E FFE6                move.w     D1, [A6 - 0x1A]
00007576  48C1                     ext.l      D1
00007578  D280                     add.l      D1, D0
0000757A  926E FFE2                sub.w      D1, [A6 - 0x1E]
0000757E  2054                     movea.l    A0, [A4]
00007580  3141 0004                move.w     [A0 + 0x4], D1
00007584  7E01                     moveq.l    D7, 0x01
label00007586:
00007586  4A07                     tst.b      D7
00007588  6710                     beq        +0x12 /* 0000759A */
0000758A  4A2E FEC1                tst.b      [A6 - 0x13F]
0000758E  660A                     bne        +0xC /* 0000759A */
00007590  2F0C                     move.l     -[A7], A4
00007592  4EBA 8B4A                jsr        [PC - 0x74B6 /* 000000DE */]
00007596  2F0C                     move.l     -[A7], A4
00007598  A9A3                     syscall    ReleaseResource
label0000759A:
0000759A  4A07                     tst.b      D7
0000759C  672A                     beq        +0x2C /* 000075C8 */
0000759E  4A2E FEC1                tst.b      [A6 - 0x13F]
000075A2  6724                     beq        +0x26 /* 000075C8 */
000075A4  598F                     subq.l     A7, 4
000075A6  2F0C                     move.l     -[A7], A4
000075A8  4EBA 8BC0                jsr        [PC - 0x7440 /* 0000016A */]
000075AC  2D5F FFCA                move.l     [A6 - 0x36], [A7]+
000075B0  6716                     beq        +0x18 /* 000075C8 */
000075B2  2F2E FFCA                move.l     -[A7], [A6 - 0x36]
000075B6  41EE FFEA                lea.l      A0, [A6 - 0x16]
000075BA  2F20                     move.l     -[A7], -[A0]
000075BC  2F20                     move.l     -[A7], -[A0]
000075BE  2F0B                     move.l     -[A7], A3
000075C0  4EBA 0016                jsr        [PC + 0x16 /* 000075D8 */]
000075C4  4FEF 0010                lea.l      A7, [A7 + 0x10]
label000075C8:
000075C8  7001                     moveq.l    D0, 0x01
000075CA  6002                     bra        +0x4 /* 000075CE */
label000075CC:
000075CC  7000                     moveq.l    D0, 0x00
label000075CE:
000075CE  4CEE 1880 FEB4           movem.l    D7,A3,A4, [A6 - 0x14C]
000075D4  4E5E                     unlink     A6
000075D6  4E75                     rts
fn000075D8:
000075D8  4E56 FFF0                link       A6, -0x0010
000075DC  3D7C 000C FFF0           move.w     [A6 - 0x10], 0xC
000075E2  206E 0008                movea.l    A0, [A6 + 0x8]
000075E6  2050                     movea.l    A0, [A0]
000075E8  3028 0112                move.w     D0, [A0 + 0x112]
000075EC  48C0                     ext.l      D0
000075EE  4840                     swap.w     D0
000075F0  4240                     clr.w      D0
000075F2  2D40 FFF2                move.l     [A6 - 0xE], D0
000075F6  302E 0012                move.w     D0, [A6 + 0x12]
000075FA  48C0                     ext.l      D0
000075FC  322E 000E                move.w     D1, [A6 + 0xE]
00007600  48C1                     ext.l      D1
00007602  9081                     sub.l      D0, D1
00007604  4840                     swap.w     D0
00007606  4240                     clr.w      D0
00007608  322E 0010                move.w     D1, [A6 + 0x10]
0000760C  48C1                     ext.l      D1
0000760E  342E 000C                move.w     D2, [A6 + 0xC]
00007612  48C2                     ext.l      D2
00007614  9282                     sub.l      D1, D2
00007616  D280                     add.l      D1, D0
00007618  2D41 FFF6                move.l     [A6 - 0xA], D1
0000761C  42AE FFFA                clr.l      [A6 - 0x6]
00007620  426E FFFE                clr.w      [A6 - 0x2]
00007624  486E FFF0                pea.l      [A6 - 0x10]
00007628  2F2E 0014                move.l     -[A7], [A6 + 0x14]
0000762C  4EBA 8A7C                jsr        [PC - 0x7584 /* 000000AA */]
00007630  4E5E                     unlink     A6
00007632  4E75                     rts
fn00007634:
00007634  4E56 FFF4                link       A6, -0x000C
00007638  48E7 0718                movem.l    -[A7], D5,D6,D7,A3,A4
0000763C  266E 0008                movea.l    A3, [A6 + 0x8]
00007640  598F                     subq.l     A7, 4
00007642  2053                     movea.l    A0, [A3]
00007644  2F28 0114                move.l     -[A7], [A0 + 0x114]
00007648  4EBA 169E                jsr        [PC + 0x169E /* 00008CE8 */]
0000764C  2A1F                     move.l     D5, [A7]+
0000764E  598F                     subq.l     A7, 4
00007650  2053                     movea.l    A0, [A3]
00007652  2F28 0120                move.l     -[A7], [A0 + 0x120]
00007656  4EBA 1690                jsr        [PC + 0x1690 /* 00008CE8 */]
0000765A  2E1F                     move.l     D7, [A7]+
0000765C  2053                     movea.l    A0, [A3]
0000765E  2068 0114                movea.l    A0, [A0 + 0x114]
00007662  A069                     syscall    HGetState
00007664  1C00                     move.b     D6, D0
00007666  BA87                     cmp.l      D5, D7
00007668  6724                     beq        +0x26 /* 0000768E */
0000766A  2053                     movea.l    A0, [A3]
0000766C  2068 0114                movea.l    A0, [A0 + 0x114]
00007670  A02A                     syscall    HUnlock
00007672  2053                     movea.l    A0, [A3]
00007674  2068 0114                movea.l    A0, [A0 + 0x114]
00007678  2007                     move.l     D0, D7
0000767A  A024                     syscall    SetHandleSize
0000767C  558F                     subq.l     A7, 2
0000767E  3F38 0220                move.w     -[A7], [0x00000220 /* MemErr */]
00007682  7000                     moveq.l    D0, 0x00
00007684  3F00                     move.w     -[A7], D0
00007686  4EBA 8AC2                jsr        [PC - 0x753E /* 0000014A */]
0000768A  4A1F                     tst.b      [A7]+
0000768C  6770                     beq        +0x72 /* 000076FE */
label0000768E:
0000768E  2F07                     move.l     -[A7], D7
00007690  2053                     movea.l    A0, [A3]
00007692  2068 0114                movea.l    A0, [A0 + 0x114]
00007696  2F10                     move.l     -[A7], [A0]
00007698  2053                     movea.l    A0, [A3]
0000769A  2068 0120                movea.l    A0, [A0 + 0x120]
0000769E  2F10                     move.l     -[A7], [A0]
000076A0  4EBA 1374                jsr        [PC + 0x1374 /* 00008A16 */]
000076A4  2053                     movea.l    A0, [A3]
000076A6  2068 0114                movea.l    A0, [A0 + 0x114]
000076AA  2D50 FFFC                move.l     [A6 - 0x4], [A0]
000076AE  7E01                     moveq.l    D7, 0x01
000076B0  4FEF 000C                lea.l      A7, [A7 + 0xC]
000076B4  602E                     bra        +0x30 /* 000076E4 */
label000076B6:
000076B6  486E FFF8                pea.l      [A6 - 0x8]
000076BA  486E FFF4                pea.l      [A6 - 0xC]
000076BE  48C7                     ext.l      D7
000076C0  2F07                     move.l     -[A7], D7
000076C2  2053                     movea.l    A0, [A3]
000076C4  2F28 0114                move.l     -[A7], [A0 + 0x114]
000076C8  4EBA 12B8                jsr        [PC + 0x12B8 /* 00008982 */]
000076CC  206E FFFC                movea.l    A0, [A6 - 0x4]
000076D0  202E FFF4                move.l     D0, [A6 - 0xC]
000076D4  49F0 0800                lea.l      A4, [A0 + D0]
000076D8  7000                     moveq.l    D0, 0x00
000076DA  2880                     move.l     [A4], D0
000076DC  4FEF 0010                lea.l      A7, [A7 + 0x10]
000076E0  3007                     move.w     D0, D7
000076E2  5247                     addq.w     D7, 1
label000076E4:
000076E4  2053                     movea.l    A0, [A3]
000076E6  BE68 0150                cmp.w      D7, [A0 + 0x150]
000076EA  6FCA                     ble        -0x34 /* 000076B6 */
000076EC  2068 0114                movea.l    A0, [A0 + 0x114]
000076F0  1006                     move.b     D0, D6
000076F2  A06A                     syscall    HSetState
000076F4  2053                     movea.l    A0, [A3]
000076F6  2F28 0114                move.l     -[A7], [A0 + 0x114]
000076FA  4EBA 89E2                jsr        [PC - 0x761E /* 000000DE */]
label000076FE:
000076FE  4CEE 18E0 FFE0           movem.l    D5,D6,D7,A3,A4, [A6 - 0x20]
00007704  4E5E                     unlink     A6
00007706  4E75                     rts
fn00007708:
00007708  6000 15EC                bra        +0x15EE /* 00008CF6 */
fn0000770C:
0000770C  6000 15DA                bra        +0x15DC /* 00008CE8 */
fn00007710:
00007710  4E56 FDA2                link       A6, -0x025E
00007714  48E7 1F38                movem.l    -[A7], D3,D4,D5,D6,D7,A2,A3,A4
00007718  266E 0008                movea.l    A3, [A6 + 0x8]
0000771C  2053                     movea.l    A0, [A3]
0000771E  2068 0114                movea.l    A0, [A0 + 0x114]
00007722  A069                     syscall    HGetState
00007724  1D40 FEC7                move.b     [A6 - 0x139], D0
00007728  2053                     movea.l    A0, [A3]
0000772A  2068 0114                movea.l    A0, [A0 + 0x114]
0000772E  A029                     syscall    HLock
00007730  2053                     movea.l    A0, [A3]
00007732  2068 0114                movea.l    A0, [A0 + 0x114]
00007736  2D50 FEC2                move.l     [A6 - 0x13E], [A0]
0000773A  4247                     clr.w      D7
0000773C  7604                     moveq.l    D3, 0x04
label0000773E:
0000773E  48C7                     ext.l      D7
00007740  2053                     movea.l    A0, [A3]
00007742  2007                     move.l     D0, D7
00007744  D080                     add.l      D0, D0
00007746  41E8 0154                lea.l      A0, [A0 + 0x154]
0000774A  31BC 0001 0800           move.w     [A0 + D0], 0x1
00007750  2007                     move.l     D0, D7
00007752  D040                     add.w      D0, D0
00007754  41EE FEDC                lea.l      A0, [A6 - 0x124]
00007758  31BC 0001 0000           move.w     [A0 + D0.w], 0x1
0000775E  2007                     move.l     D0, D7
00007760  D040                     add.w      D0, D0
00007762  43EE FECC                lea.l      A1, [A6 - 0x134]
00007766  4271 0000                clr.w      [A1 + D0.w]
0000776A  2007                     move.l     D0, D7
0000776C  D040                     add.w      D0, D0
0000776E  45EE FED4                lea.l      A2, [A6 - 0x12C]
00007772  4272 0000                clr.w      [A2 + D0.w]
00007776  3007                     move.w     D0, D7
00007778  5247                     addq.w     D7, 1
0000777A  B647                     cmp.w      D3, D7
0000777C  6EC0                     bgt        -0x3E /* 0000773E */
0000777E  4246                     clr.w      D6
00007780  4247                     clr.w      D7
00007782  6000 00CA                bra        +0xCC /* 0000784E */
label00007786:
00007786  486E FEE8                pea.l      [A6 - 0x118]
0000778A  486E FEE4                pea.l      [A6 - 0x11C]
0000778E  48C7                     ext.l      D7
00007790  2007                     move.l     D0, D7
00007792  5280                     addq.l     D0, 1
00007794  2F00                     move.l     -[A7], D0
00007796  2053                     movea.l    A0, [A3]
00007798  2F28 0114                move.l     -[A7], [A0 + 0x114]
0000779C  4EBA 11E4                jsr        [PC + 0x11E4 /* 00008982 */]
000077A0  206E FEC2                movea.l    A0, [A6 - 0x13E]
000077A4  202E FEE4                move.l     D0, [A6 - 0x11C]
000077A8  49F0 0800                lea.l      A4, [A0 + D0]
000077AC  7000                     moveq.l    D0, 0x00
000077AE  102C 000C                move.b     D0, [A4 + 0xC]
000077B2  323C FF7F                move.w     D1, 0xFF7F
000077B6  C240                     and.w      D1, D0
000077B8  7000                     moveq.l    D0, 0x00
000077BA  3001                     move.w     D0, D1
000077BC  7201                     moveq.l    D1, 0x01
000077BE  B280                     cmp.l      D1, D0
000077C0  4FEF 0010                lea.l      A7, [A7 + 0x10]
000077C4  6600 0084                bne        +0x86 /* 0000784A */
000077C8  2006                     move.l     D0, D6
000077CA  D040                     add.w      D0, D0
000077CC  41EE FED4                lea.l      A0, [A6 - 0x12C]
000077D0  3187 0000                move.w     [A0 + D0.w], D7
000077D4  2006                     move.l     D0, D6
000077D6  D040                     add.w      D0, D0
000077D8  43EE FEDC                lea.l      A1, [A6 - 0x124]
000077DC  33AC 000E 0000           move.w     [A1 + D0.w], [A4 + 0xE]
000077E2  2006                     move.l     D0, D6
000077E4  D040                     add.w      D0, D0
000077E6  45EE FECC                lea.l      A2, [A6 - 0x134]
000077EA  35AC 0010 0000           move.w     [A2 + D0.w], [A4 + 0x10]
000077F0  2006                     move.l     D0, D6
000077F2  D040                     add.w      D0, D0
000077F4  3031 0000                move.w     D0, [A1 + D0.w]
000077F8  5340                     subq.w     D0, 1
000077FA  670A                     beq        +0xC /* 00007806 */
000077FC  5340                     subq.w     D0, 1
000077FE  671A                     beq        +0x1C /* 0000781A */
00007800  5D40                     subq.w     D0, 6
00007802  672A                     beq        +0x2C /* 0000782E */
00007804  603A                     bra        +0x3C /* 00007840 */
label00007806:
00007806  48C6                     ext.l      D6
00007808  2053                     movea.l    A0, [A3]
0000780A  2006                     move.l     D0, D6
0000780C  D080                     add.l      D0, D0
0000780E  41E8 0154                lea.l      A0, [A0 + 0x154]
00007812  31BC 0001 0800           move.w     [A0 + D0], 0x1
00007818  6026                     bra        +0x28 /* 00007840 */
label0000781A:
0000781A  48C6                     ext.l      D6
0000781C  2053                     movea.l    A0, [A3]
0000781E  2006                     move.l     D0, D6
00007820  D080                     add.l      D0, D0
00007822  41E8 0154                lea.l      A0, [A0 + 0x154]
00007826  31BC 0002 0800           move.w     [A0 + D0], 0x2
0000782C  6012                     bra        +0x14 /* 00007840 */
label0000782E:
0000782E  48C6                     ext.l      D6
00007830  2053                     movea.l    A0, [A3]
00007832  2006                     move.l     D0, D6
00007834  D080                     add.l      D0, D0
00007836  41E8 0154                lea.l      A0, [A0 + 0x154]
0000783A  31BC 0003 0800           move.w     [A0 + D0], 0x3
label00007840:
00007840  3006                     move.w     D0, D6
00007842  5246                     addq.w     D6, 1
00007844  0C46 0003                cmpi.w     D6, 0x3
00007848  6E0E                     bgt        +0x10 /* 00007858 */
label0000784A:
0000784A  3007                     move.w     D0, D7
0000784C  5247                     addq.w     D7, 1
label0000784E:
0000784E  2053                     movea.l    A0, [A3]
00007850  BE68 0150                cmp.w      D7, [A0 + 0x150]
00007854  6D00 FF30                blt        -0xCE /* 00007786 */
label00007858:
00007858  558F                     subq.l     A7, 2
0000785A  3EB8 0900                move.w     [A7], [0x00000900 /* CurApRefNum */]
0000785E  A998                     syscall    UseResFile
00007860  2F3C 444C 4F47           move.l     -[A7], 0x444C4F47 /* 'DLOG' */
00007866  3F3C 059B                move.w     -[A7], 0x59B
0000786A  4EBA 891A                jsr        [PC - 0x76E6 /* 00000186 */]
0000786E  598F                     subq.l     A7, 4
00007870  3F3C 059B                move.w     -[A7], 0x59B
00007874  7000                     moveq.l    D0, 0x00
00007876  2F00                     move.l     -[A7], D0
00007878  72FF                     moveq.l    D1, 0xFFFFFFFF
0000787A  2F01                     move.l     -[A7], D1
0000787C  A97C                     syscall    GetNewDialog
0000787E  2D5F FEF0                move.l     [A6 - 0x110], [A7]+
00007882  4EBA 87D6                jsr        [PC - 0x782A /* 0000005A */]
00007886  4204                     clr.b      D4
00007888  206E FEF0                movea.l    A0, [A6 - 0x110]
0000788C  214B 0098                move.l     [A0 + 0x98], A3
00007890  4247                     clr.w      D7
label00007892:
00007892  2007                     move.l     D0, D7
00007894  D040                     add.w      D0, D0
00007896  41EE FECC                lea.l      A0, [A6 - 0x134]
0000789A  4A70 0000                tst.w      [A0 + D0.w]
0000789E  56C3                     sne        D3
000078A0  4403                     neg.b      D3
000078A2  4883                     ext.w      D3
000078A4  48C3                     ext.l      D3
000078A6  2F03                     move.l     -[A7], D3
000078A8  2007                     move.l     D0, D7
000078AA  D040                     add.w      D0, D0
000078AC  3030 0000                move.w     D0, [A0 + D0.w]
000078B0  48C0                     ext.l      D0
000078B2  2F00                     move.l     -[A7], D0
000078B4  48C7                     ext.l      D7
000078B6  2F07                     move.l     -[A7], D7
000078B8  2F2E FEF0                move.l     -[A7], [A6 - 0x110]
000078BC  4EBA 04F8                jsr        [PC + 0x4F8 /* 00007DB6 */]
000078C0  486E FEF8                pea.l      [A6 - 0x108]
000078C4  486E FEF4                pea.l      [A6 - 0x10C]
000078C8  486E FECA                pea.l      [A6 - 0x136]
000078CC  48C7                     ext.l      D7
000078CE  2007                     move.l     D0, D7
000078D0  5E80                     addq.l     D0, 7
000078D2  2F00                     move.l     -[A7], D0
000078D4  2F2E FEF0                move.l     -[A7], [A6 - 0x110]
000078D8  4EBA 116E                jsr        [PC + 0x116E /* 00008A48 */]
000078DC  2F2E FEF0                move.l     -[A7], [A6 - 0x110]
000078E0  3007                     move.w     D0, D7
000078E2  5E40                     addq.w     D0, 7
000078E4  3F00                     move.w     -[A7], D0
000078E6  3F2E FECA                move.w     -[A7], [A6 - 0x136]
000078EA  487A 05F4                pea.l      [PC + 0x5F4 /* 00007EE0, value 0x4E560000 'NV\0\0', cstring "NV" */]
000078EE  486E FEF8                pea.l      [A6 - 0x108]
000078F2  A98E                     syscall    SetDialogItem/SetDItem
000078F4  4FEF 0024                lea.l      A7, [A7 + 0x24]
000078F8  3007                     move.w     D0, D7
000078FA  5247                     addq.w     D7, 1
000078FC  0C47 0004                cmpi.w     D7, 0x4
00007900  6D90                     blt        -0x6E /* 00007892 */
00007902  4A6E FED4                tst.w      [A6 - 0x12C]
00007906  6F12                     ble        +0x14 /* 0000791A */
00007908  2F2E FEF0                move.l     -[A7], [A6 - 0x110]
0000790C  7003                     moveq.l    D0, 0x03
0000790E  3F00                     move.w     -[A7], D0
00007910  7200                     moveq.l    D1, 0x00
00007912  3F01                     move.w     -[A7], D1
00007914  3F3C 7FFF                move.w     -[A7], 0x7FFF
00007918  A97E                     syscall    SelectDialogItemText/SelIText
label0000791A:
0000791A  487A DB68                pea.l      [PC - 0x2498 /* 00005484, value 0x4E560000 'NV\0\0', cstring "NV" */]
0000791E  486E FEC8                pea.l      [A6 - 0x138]
00007922  A991                     syscall    ModalDialog
00007924  302E FEC8                move.w     D0, [A6 - 0x138]
00007928  5340                     subq.w     D0, 1
0000792A  6B00 0128                bmi        +0x12A /* 00007A54 */
0000792E  0C40 0009                cmpi.w     D0, 0x9 /* '\t' */
00007932  6E00 0120                bgt        +0x122 /* 00007A54 */
00007936  D040                     add.w      D0, D0
00007938  303B 0006                move.w     D0, [PC + D0.w + 0x6]
0000793C  4EFB 0000                jmp        [PC + D0.w]
00007940  0116                     btst       [A6], D0
00007942  0116                     btst       [A6], D0
00007944  001A 001A                ori.b      [A2]+, 0x1A
00007948  001A 001A                ori.b      [A2]+, 0x1A
0000794C  00CE                     .incomplete
0000794E  00CE                     .incomplete
00007950  00CE                     .incomplete
00007952  00CE                     .incomplete
00007954  6000 00FE                bra        +0x100 /* 00007A54 */
00007958  3C2E FEC8                move.w     D6, [A6 - 0x138]
0000795C  5746                     subq.w     D6, 3
0000795E  486E FEF8                pea.l      [A6 - 0x108]
00007962  486E FEF4                pea.l      [A6 - 0x10C]
00007966  486E FECA                pea.l      [A6 - 0x136]
0000796A  48C6                     ext.l      D6
0000796C  2006                     move.l     D0, D6
0000796E  5680                     addq.l     D0, 3
00007970  2F00                     move.l     -[A7], D0
00007972  2F2E FEF0                move.l     -[A7], [A6 - 0x110]
00007976  4EBA 10D0                jsr        [PC + 0x10D0 /* 00008A48 */]
0000797A  2F2E FEF4                move.l     -[A7], [A6 - 0x10C]
0000797E  486E FF00                pea.l      [A6 - 0x100]
00007982  A990                     syscall    GetDialogItemText/GetIText
00007984  486E FEF8                pea.l      [A6 - 0x108]
00007988  486E FEF4                pea.l      [A6 - 0x10C]
0000798C  486E FECA                pea.l      [A6 - 0x136]
00007990  48C6                     ext.l      D6
00007992  2006                     move.l     D0, D6
00007994  5E80                     addq.l     D0, 7
00007996  2F00                     move.l     -[A7], D0
00007998  2F2E FEF0                move.l     -[A7], [A6 - 0x110]
0000799C  4EBA 10AA                jsr        [PC + 0x10AA /* 00008A48 */]
000079A0  7000                     moveq.l    D0, 0x00
000079A2  102E FF00                move.b     D0, [A6 - 0x100]
000079A6  4A80                     tst.l      D0
000079A8  4FEF 0028                lea.l      A7, [A7 + 0x28]
000079AC  6708                     beq        +0xA /* 000079B6 */
000079AE  026E FF7F FECA           andi.w     [A6 - 0x136], 0xFF7F
000079B4  6018                     bra        +0x1A /* 000079CE */
label000079B6:
000079B6  006E 0080 FECA           ori.w      [A6 - 0x136], 0x80
000079BC  48C6                     ext.l      D6
000079BE  2053                     movea.l    A0, [A3]
000079C0  2006                     move.l     D0, D6
000079C2  D080                     add.l      D0, D0
000079C4  41E8 0154                lea.l      A0, [A0 + 0x154]
000079C8  31BC 0001 0800           move.w     [A0 + D0], 0x1
label000079CE:
000079CE  2F2E FEF0                move.l     -[A7], [A6 - 0x110]
000079D2  3006                     move.w     D0, D6
000079D4  5E40                     addq.w     D0, 7
000079D6  3F00                     move.w     -[A7], D0
000079D8  3F2E FECA                move.w     -[A7], [A6 - 0x136]
000079DC  487A 0502                pea.l      [PC + 0x502 /* 00007EE0, value 0x4E560000 'NV\0\0', cstring "NV" */]
000079E0  486E FEF8                pea.l      [A6 - 0x108]
000079E4  A98E                     syscall    SetDialogItem/SetDItem
000079E6  2F2E FEF0                move.l     -[A7], [A6 - 0x110]
000079EA  3006                     move.w     D0, D6
000079EC  5E40                     addq.w     D0, 7
000079EE  3F00                     move.w     -[A7], D0
000079F0  48C6                     ext.l      D6
000079F2  2053                     movea.l    A0, [A3]
000079F4  2006                     move.l     D0, D6
000079F6  D080                     add.l      D0, D0
000079F8  41E8 0154                lea.l      A0, [A0 + 0x154]
000079FC  3F30 0800                move.w     -[A7], [A0 + D0]
00007A00  2053                     movea.l    A0, [A3]
00007A02  2F28 0144                move.l     -[A7], [A0 + 0x144]
00007A06  4EBA 8702                jsr        [PC - 0x78FE /* 0000010A */]
00007A0A  6048                     bra        +0x4A /* 00007A54 */
00007A0C  3C2E FEC8                move.w     D6, [A6 - 0x138]
00007A10  5F46                     subq.w     D6, 7
00007A12  2F2E FEF0                move.l     -[A7], [A6 - 0x110]
00007A16  7000                     moveq.l    D0, 0x00
00007A18  3F00                     move.w     -[A7], D0
00007A1A  3206                     move.w     D1, D6
00007A1C  5E41                     addq.w     D1, 7
00007A1E  3F01                     move.w     -[A7], D1
00007A20  48C6                     ext.l      D6
00007A22  2053                     movea.l    A0, [A3]
00007A24  2206                     move.l     D1, D6
00007A26  D281                     add.l      D1, D1
00007A28  41E8 0154                lea.l      A0, [A0 + 0x154]
00007A2C  4870 1800                pea.l      [A0 + D1]
00007A30  2053                     movea.l    A0, [A3]
00007A32  2F28 0144                move.l     -[A7], [A0 + 0x144]
00007A36  4EBA 8796                jsr        [PC - 0x786A /* 000001CE */]
00007A3A  2053                     movea.l    A0, [A3]
00007A3C  2F28 013C                move.l     -[A7], [A0 + 0x13C]
00007A40  48C6                     ext.l      D6
00007A42  2006                     move.l     D0, D6
00007A44  D080                     add.l      D0, D0
00007A46  41E8 0154                lea.l      A0, [A0 + 0x154]
00007A4A  3F30 0800                move.w     -[A7], [A0 + D0]
00007A4E  486E FF00                pea.l      [A6 - 0x100]
00007A52  A946                     syscall    GetMenuItemText/GetItem
label00007A54:
00007A54  7001                     moveq.l    D0, 0x01
00007A56  B06E FEC8                cmp.w      D0, [A6 - 0x138]
00007A5A  670A                     beq        +0xC /* 00007A66 */
00007A5C  7002                     moveq.l    D0, 0x02
00007A5E  B06E FEC8                cmp.w      D0, [A6 - 0x138]
00007A62  6600 FEB6                bne        -0x148 /* 0000791A */
label00007A66:
00007A66  7001                     moveq.l    D0, 0x01
00007A68  B06E FEC8                cmp.w      D0, [A6 - 0x138]
00007A6C  6600 031E                bne        +0x320 /* 00007D8C */
00007A70  4244                     clr.w      D4
00007A72  426E FEBE                clr.w      [A6 - 0x142]
00007A76  422E FEC0                clr.b      [A6 - 0x140]
00007A7A  4206                     clr.b      D6
00007A7C  422E FEC1                clr.b      [A6 - 0x13F]
00007A80  4247                     clr.w      D7
label00007A82:
00007A82  48C7                     ext.l      D7
00007A84  2053                     movea.l    A0, [A3]
00007A86  2007                     move.l     D0, D7
00007A88  D080                     add.l      D0, D0
00007A8A  41E8 0154                lea.l      A0, [A0 + 0x154]
00007A8E  3D70 0800 FEBA           move.w     [A6 - 0x146], [A0 + D0]
00007A94  486E FEF8                pea.l      [A6 - 0x108]
00007A98  486E FEF4                pea.l      [A6 - 0x10C]
00007A9C  486E FECA                pea.l      [A6 - 0x136]
00007AA0  48C7                     ext.l      D7
00007AA2  2007                     move.l     D0, D7
00007AA4  5680                     addq.l     D0, 3
00007AA6  2F00                     move.l     -[A7], D0
00007AA8  2F2E FEF0                move.l     -[A7], [A6 - 0x110]
00007AAC  4EBA 0F9A                jsr        [PC + 0xF9A /* 00008A48 */]
00007AB0  2F2E FEF4                move.l     -[A7], [A6 - 0x10C]
00007AB4  486E FF00                pea.l      [A6 - 0x100]
00007AB8  A990                     syscall    GetDialogItemText/GetIText
00007ABA  486E FF00                pea.l      [A6 - 0x100]
00007ABE  486E FEEC                pea.l      [A6 - 0x114]
00007AC2  4EBA 13CE                jsr        [PC + 0x13CE /* 00008E92 */]
00007AC6  2007                     move.l     D0, D7
00007AC8  D040                     add.w      D0, D0
00007ACA  41EE FECC                lea.l      A0, [A6 - 0x134]
00007ACE  4A70 0000                tst.w      [A0 + D0.w]
00007AD2  56C3                     sne        D3
00007AD4  4403                     neg.b      D3
00007AD6  2D43 FDA6                move.l     [A6 - 0x25A], D3
00007ADA  4AAE FEEC                tst.l      [A6 - 0x114]
00007ADE  57C3                     seq        D3
00007AE0  4403                     neg.b      D3
00007AE2  202E FDA6                move.l     D0, [A6 - 0x25A]
00007AE6  C600                     and.b      D3, D0
00007AE8  4A03                     tst.b      D3
00007AEA  4FEF 0014                lea.l      A7, [A7 + 0x14]
00007AEE  6708                     beq        +0xA /* 00007AF8 */
00007AF0  3004                     move.w     D0, D4
00007AF2  5244                     addq.w     D4, 1
00007AF4  6000 0184                bra        +0x186 /* 00007C7A */
label00007AF8:
00007AF8  3007                     move.w     D0, D7
00007AFA  9044                     sub.w      D0, D4
00007AFC  D040                     add.w      D0, D0
00007AFE  41EE FECC                lea.l      A0, [A6 - 0x134]
00007B02  4A70 0000                tst.w      [A0 + D0.w]
00007B06  56C3                     sne        D3
00007B08  4403                     neg.b      D3
00007B0A  2D43 FDA2                move.l     [A6 - 0x25E], D3
00007B0E  4AAE FEEC                tst.l      [A6 - 0x114]
00007B12  56C3                     sne        D3
00007B14  4403                     neg.b      D3
00007B16  202E FDA2                move.l     D0, [A6 - 0x25E]
00007B1A  C600                     and.b      D3, D0
00007B1C  4A03                     tst.b      D3
00007B1E  6700 0118                beq        +0x11A /* 00007C38 */
00007B22  3007                     move.w     D0, D7
00007B24  9044                     sub.w      D0, D4
00007B26  D040                     add.w      D0, D0
00007B28  41EE FED4                lea.l      A0, [A6 - 0x12C]
00007B2C  3030 0000                move.w     D0, [A0 + D0.w]
00007B30  5240                     addq.w     D0, 1
00007B32  3D40 FEBC                move.w     [A6 - 0x144], D0
00007B36  486E FEE8                pea.l      [A6 - 0x118]
00007B3A  486E FEE4                pea.l      [A6 - 0x11C]
00007B3E  302E FEBC                move.w     D0, [A6 - 0x144]
00007B42  48C0                     ext.l      D0
00007B44  2F00                     move.l     -[A7], D0
00007B46  2053                     movea.l    A0, [A3]
00007B48  2F28 0120                move.l     -[A7], [A0 + 0x120]
00007B4C  4EBA 0E34                jsr        [PC + 0xE34 /* 00008982 */]
00007B50  2053                     movea.l    A0, [A3]
00007B52  2068 0120                movea.l    A0, [A0 + 0x120]
00007B56  286E FEE4                movea.l    A4, [A6 - 0x11C]
00007B5A  D9D0                     add.l      A4, [A0]
00007B5C  302C 000E                move.w     D0, [A4 + 0xE]
00007B60  3D40 FEB8                move.w     [A6 - 0x148], D0
00007B64  5340                     subq.w     D0, 1
00007B66  4FEF 0010                lea.l      A7, [A7 + 0x10]
00007B6A  670A                     beq        +0xC /* 00007B76 */
00007B6C  5340                     subq.w     D0, 1
00007B6E  6706                     beq        +0x8 /* 00007B76 */
00007B70  5D40                     subq.w     D0, 6
00007B72  670A                     beq        +0xC /* 00007B7E */
00007B74  600E                     bra        +0x10 /* 00007B84 */
label00007B76:
00007B76  3D7C 0004 FEB4           move.w     [A6 - 0x14C], 0x4
00007B7C  6006                     bra        +0x8 /* 00007B84 */
label00007B7E:
00007B7E  3D7C 0006 FEB4           move.w     [A6 - 0x14C], 0x6
label00007B84:
00007B84  302E FEBA                move.w     D0, [A6 - 0x146]
00007B88  5340                     subq.w     D0, 1
00007B8A  670A                     beq        +0xC /* 00007B96 */
00007B8C  5340                     subq.w     D0, 1
00007B8E  6710                     beq        +0x12 /* 00007BA0 */
00007B90  5340                     subq.w     D0, 1
00007B92  6716                     beq        +0x18 /* 00007BAA */
00007B94  601C                     bra        +0x1E /* 00007BB2 */
label00007B96:
00007B96  3D7C 0001 FEB6           move.w     [A6 - 0x14A], 0x1
00007B9C  7A04                     moveq.l    D5, 0x04
00007B9E  6012                     bra        +0x14 /* 00007BB2 */
label00007BA0:
00007BA0  3D7C 0002 FEB6           move.w     [A6 - 0x14A], 0x2
00007BA6  7A04                     moveq.l    D5, 0x04
00007BA8  6008                     bra        +0xA /* 00007BB2 */
label00007BAA:
00007BAA  3D7C 0008 FEB6           move.w     [A6 - 0x14A], 0x8
00007BB0  7A06                     moveq.l    D5, 0x06
label00007BB2:
00007BB2  7000                     moveq.l    D0, 0x00
00007BB4  1006                     move.b     D0, D6
00007BB6  4A80                     tst.l      D0
00007BB8  660E                     bne        +0x10 /* 00007BC8 */
00007BBA  7005                     moveq.l    D0, 0x05
00007BBC  2F00                     move.l     -[A7], D0
00007BBE  2F0B                     move.l     -[A7], A3
00007BC0  4EBA ED02                jsr        [PC - 0x12FE /* 000068C4 */]
00007BC4  7C01                     moveq.l    D6, 0x01
00007BC6  504F                     addq.w     A7, 8
label00007BC8:
00007BC8  BA6E FEB4                cmp.w      D5, [A6 - 0x14C]
00007BCC  660E                     bne        +0x10 /* 00007BDC */
00007BCE  396E FEB6 000E           move.w     [A4 + 0xE], [A6 - 0x14A]
00007BD4  396E FEEE 0010           move.w     [A4 + 0x10], [A6 - 0x112]
00007BDA  604C                     bra        +0x4E /* 00007C28 */
label00007BDC:
00007BDC  3D6E FEEE FDAA           move.w     [A6 - 0x256], [A6 - 0x112]
00007BE2  1D45 FDAC                move.b     [A6 - 0x254], D5
00007BE6  7002                     moveq.l    D0, 0x02
00007BE8  2F00                     move.l     -[A7], D0
00007BEA  486E FEB6                pea.l      [A6 - 0x14A]
00007BEE  486E FDAD                pea.l      [A6 - 0x253]
00007BF2  4EBA 0F44                jsr        [PC + 0xF44 /* 00008B38 */]
00007BF6  7002                     moveq.l    D0, 0x02
00007BF8  2F00                     move.l     -[A7], D0
00007BFA  486E FDAA                pea.l      [A6 - 0x256]
00007BFE  486E FDAF                pea.l      [A6 - 0x251]
00007C02  4EBA 0F34                jsr        [PC + 0xF34 /* 00008B38 */]
00007C06  422E FDB1                clr.b      [A6 - 0x24F]
00007C0A  422E FDB2                clr.b      [A6 - 0x24E]
00007C0E  486E FDAC                pea.l      [A6 - 0x254]
00007C12  302E FEBC                move.w     D0, [A6 - 0x144]
00007C16  48C0                     ext.l      D0
00007C18  2F00                     move.l     -[A7], D0
00007C1A  2053                     movea.l    A0, [A3]
00007C1C  2F28 0120                move.l     -[A7], [A0 + 0x120]
00007C20  4EBA CAB4                jsr        [PC - 0x354C /* 000046D6 */]
00007C24  4FEF 0024                lea.l      A7, [A7 + 0x24]
label00007C28:
00007C28  48C7                     ext.l      D7
00007C2A  48C4                     ext.l      D4
00007C2C  2007                     move.l     D0, D7
00007C2E  9084                     sub.l      D0, D4
00007C30  5240                     addq.w     D0, 1
00007C32  3D40 FEBE                move.w     [A6 - 0x142], D0
00007C36  6042                     bra        +0x44 /* 00007C7A */
label00007C38:
00007C38  7000                     moveq.l    D0, 0x00
00007C3A  102E FF00                move.b     D0, [A6 - 0x100]
00007C3E  4A80                     tst.l      D0
00007C40  6338                     bls        +0x3A /* 00007C7A */
00007C42  7000                     moveq.l    D0, 0x00
00007C44  1006                     move.b     D0, D6
00007C46  4A80                     tst.l      D0
00007C48  660E                     bne        +0x10 /* 00007C58 */
00007C4A  7005                     moveq.l    D0, 0x05
00007C4C  2F00                     move.l     -[A7], D0
00007C4E  2F0B                     move.l     -[A7], A3
00007C50  4EBA EC72                jsr        [PC - 0x138E /* 000068C4 */]
00007C54  7C01                     moveq.l    D6, 0x01
00007C56  504F                     addq.w     A7, 8
label00007C58:
00007C58  302E FEBA                move.w     D0, [A6 - 0x146]
00007C5C  48C0                     ext.l      D0
00007C5E  2F00                     move.l     -[A7], D0
00007C60  302E FEEE                move.w     D0, [A6 - 0x112]
00007C64  48C0                     ext.l      D0
00007C66  2F00                     move.l     -[A7], D0
00007C68  2F0B                     move.l     -[A7], A3
00007C6A  4EBA 01EA                jsr        [PC + 0x1EA /* 00007E56 */]
00007C6E  302E FEBE                move.w     D0, [A6 - 0x142]
00007C72  526E FEBE                addq.w     [A6 - 0x142], 1
00007C76  4FEF 000C                lea.l      A7, [A7 + 0xC]
label00007C7A:
00007C7A  3007                     move.w     D0, D7
00007C7C  5247                     addq.w     D7, 1
00007C7E  0C47 0004                cmpi.w     D7, 0x4
00007C82  6D00 FDFE                blt        -0x200 /* 00007A82 */
00007C86  7000                     moveq.l    D0, 0x00
00007C88  1006                     move.b     D0, D6
00007C8A  0C40 0001                cmpi.w     D0, 0x1
00007C8E  6608                     bne        +0xA /* 00007C98 */
00007C90  2F0B                     move.l     -[A7], A3
00007C92  4EBA F9A0                jsr        [PC - 0x660 /* 00007634 */]
00007C96  584F                     addq.w     A7, 4
label00007C98:
00007C98  7E03                     moveq.l    D7, 0x03
00007C9A  4244                     clr.w      D4
00007C9C  6000 0082                bra        +0x84 /* 00007D20 */
label00007CA0:
00007CA0  2007                     move.l     D0, D7
00007CA2  D040                     add.w      D0, D0
00007CA4  41EE FECC                lea.l      A0, [A6 - 0x134]
00007CA8  4A70 0000                tst.w      [A0 + D0.w]
00007CAC  676E                     beq        +0x70 /* 00007D1C */
00007CAE  7000                     moveq.l    D0, 0x00
00007CB0  102E FEC0                move.b     D0, [A6 - 0x140]
00007CB4  4A80                     tst.l      D0
00007CB6  6620                     bne        +0x22 /* 00007CD8 */
00007CB8  7000                     moveq.l    D0, 0x00
00007CBA  1006                     move.b     D0, D6
00007CBC  0C40 0001                cmpi.w     D0, 0x1
00007CC0  6608                     bne        +0xA /* 00007CCA */
00007CC2  2053                     movea.l    A0, [A3]
00007CC4  317C 0001 01CE           move.w     [A0 + 0x1CE], 0x1
label00007CCA:
00007CCA  2F0B                     move.l     -[A7], A3
00007CCC  4EBA 89C2                jsr        [PC - 0x763E /* 00000690 */]
00007CD0  1D7C 0001 FEC0           move.b     [A6 - 0x140], 0x1
00007CD6  584F                     addq.w     A7, 4
label00007CD8:
00007CD8  2007                     move.l     D0, D7
00007CDA  D040                     add.w      D0, D0
00007CDC  41EE FED4                lea.l      A0, [A6 - 0x12C]
00007CE0  3030 0000                move.w     D0, [A0 + D0.w]
00007CE4  48C0                     ext.l      D0
00007CE6  5280                     addq.l     D0, 1
00007CE8  48C4                     ext.l      D4
00007CEA  D084                     add.l      D0, D4
00007CEC  2253                     movea.l    A1, [A3]
00007CEE  3229 0150                move.w     D1, [A1 + 0x150]
00007CF2  48C1                     ext.l      D1
00007CF4  B280                     cmp.l      D1, D0
00007CF6  6F06                     ble        +0x8 /* 00007CFE */
00007CF8  1D7C 0001 FEC1           move.b     [A6 - 0x13F], 0x1
label00007CFE:
00007CFE  3004                     move.w     D0, D4
00007D00  5244                     addq.w     D4, 1
00007D02  2007                     move.l     D0, D7
00007D04  D040                     add.w      D0, D0
00007D06  41EE FED4                lea.l      A0, [A6 - 0x12C]
00007D0A  3030 0000                move.w     D0, [A0 + D0.w]
00007D0E  48C0                     ext.l      D0
00007D10  5280                     addq.l     D0, 1
00007D12  2F00                     move.l     -[A7], D0
00007D14  2F0B                     move.l     -[A7], A3
00007D16  4EBA B3AA                jsr        [PC - 0x4C56 /* 000030C2 */]
00007D1A  504F                     addq.w     A7, 8
label00007D1C:
00007D1C  3007                     move.w     D0, D7
00007D1E  5347                     subq.w     D7, 1
label00007D20:
00007D20  BE6E FEBE                cmp.w      D7, [A6 - 0x142]
00007D24  6C00 FF7A                bge        -0x84 /* 00007CA0 */
00007D28  7000                     moveq.l    D0, 0x00
00007D2A  102E FEC0                move.b     D0, [A6 - 0x140]
00007D2E  0C40 0001                cmpi.w     D0, 0x1
00007D32  6658                     bne        +0x5A /* 00007D8C */
00007D34  7000                     moveq.l    D0, 0x00
00007D36  102E FEC1                move.b     D0, [A6 - 0x13F]
00007D3A  0C40 0001                cmpi.w     D0, 0x1
00007D3E  663E                     bne        +0x40 /* 00007D7E */
00007D40  302E FEBE                move.w     D0, [A6 - 0x142]
00007D44  D040                     add.w      D0, D0
00007D46  41EE FED4                lea.l      A0, [A6 - 0x12C]
00007D4A  3030 0000                move.w     D0, [A0 + D0.w]
00007D4E  48C0                     ext.l      D0
00007D50  5280                     addq.l     D0, 1
00007D52  2F00                     move.l     -[A7], D0
00007D54  486E FDB4                pea.l      [A6 - 0x24C]
00007D58  4EBA 114C                jsr        [PC + 0x114C /* 00008EA6 */]
00007D5C  486E FDB4                pea.l      [A6 - 0x24C]
00007D60  7000                     moveq.l    D0, 0x00
00007D62  2F00                     move.l     -[A7], D0
00007D64  2F00                     move.l     -[A7], D0
00007D66  2F00                     move.l     -[A7], D0
00007D68  A98B                     syscall    ParamText
00007D6A  558F                     subq.l     A7, 2
00007D6C  7002                     moveq.l    D0, 0x02
00007D6E  1F00                     move.b     -[A7], D0
00007D70  487A 0036                pea.l      [PC + 0x36 /* 00007DA8, value 0xB444954, pstring "DITL alerts" */]
00007D74  720F                     moveq.l    D1, 0x0F
00007D76  3F01                     move.w     -[A7], D1
00007D78  4EBA 838C                jsr        [PC - 0x7C74 /* 00000106 */]
00007D7C  544F                     addq.w     A7, 2
label00007D7E:
00007D7E  2F0B                     move.l     -[A7], A3
00007D80  4EBA BCBC                jsr        [PC - 0x4344 /* 00003A3E */]
00007D84  2053                     movea.l    A0, [A3]
00007D86  4268 01CE                clr.w      [A0 + 0x1CE]
00007D8A  584F                     addq.w     A7, 4
label00007D8C:
00007D8C  2F2E FEF0                move.l     -[A7], [A6 - 0x110]
00007D90  A983                     syscall    DisposeDialog
00007D92  2053                     movea.l    A0, [A3]
00007D94  2068 0114                movea.l    A0, [A0 + 0x114]
00007D98  102E FEC7                move.b     D0, [A6 - 0x139]
00007D9C  A06A                     syscall    HSetState
00007D9E  4CEE 1CF8 FD82           movem.l    D3,D4,D5,D6,D7,A2,A3,A4, [A6 - 0x27E]
00007DA4  4E5E                     unlink     A6
00007DA6  4E75                     rts
00007DA8  0B44                     bchg       D4, D5
00007DAA  4954                     chk.w      D4, [A4]
00007DAC  4C20 616C                mulu.l     D6, -[A0]
00007DB0  6572                     bcs        +0x74 /* 00007E24 */
00007DB2  7473                     moveq.l    D2, 0x73
00007DB4  0000 4E56                ori.b      D0, 0x56 /* 'V' */
// begin alternate branch 00007DB6-00007DBE
fn00007DB6:
00007DB6  4E56 FEF2                link       A6, -0x010E
00007DBA  48E7 0318                movem.l    -[A7], D6,D7,A3,A4
// end alternate branch 00007DB6-00007DBE
fn00007DB6: // (misaligned)
00007DB8  FEF2 48E7                .extension 0xEF2 <<F/2-3/7>> // unimplemented
00007DBC  0318                     btst       [A0]+, D1
00007DBE  47EE FF00                lea.l      A3, [A6 - 0x100]
00007DC2  1C2E 0017                move.b     D6, [A6 + 0x17]
00007DC6  3E2E 000E                move.w     D7, [A6 + 0xE]
00007DCA  286E 0008                movea.l    A4, [A6 + 0x8]
00007DCE  4A06                     tst.b      D6
00007DD0  6734                     beq        +0x36 /* 00007E06 */
00007DD2  486E FEF8                pea.l      [A6 - 0x108]
00007DD6  486E FEF4                pea.l      [A6 - 0x10C]
00007DDA  486E FEF2                pea.l      [A6 - 0x10E]
00007DDE  48C7                     ext.l      D7
00007DE0  2007                     move.l     D0, D7
00007DE2  5680                     addq.l     D0, 3
00007DE4  2F00                     move.l     -[A7], D0
00007DE6  2F0C                     move.l     -[A7], A4
00007DE8  4EBA 0C5E                jsr        [PC + 0xC5E /* 00008A48 */]
00007DEC  302E 0012                move.w     D0, [A6 + 0x12]
00007DF0  48C0                     ext.l      D0
00007DF2  2F00                     move.l     -[A7], D0
00007DF4  2F0B                     move.l     -[A7], A3
00007DF6  4EBA 10AE                jsr        [PC + 0x10AE /* 00008EA6 */]
00007DFA  2F2E FEF4                move.l     -[A7], [A6 - 0x10C]
00007DFE  2F0B                     move.l     -[A7], A3
00007E00  A98F                     syscall    SetDialogItemText/SetIText
00007E02  4FEF 0014                lea.l      A7, [A7 + 0x14]
label00007E06:
00007E06  486E FEF8                pea.l      [A6 - 0x108]
00007E0A  486E FEF4                pea.l      [A6 - 0x10C]
00007E0E  486E FEF2                pea.l      [A6 - 0x10E]
00007E12  48C7                     ext.l      D7
00007E14  2007                     move.l     D0, D7
00007E16  5E80                     addq.l     D0, 7
00007E18  2F00                     move.l     -[A7], D0
00007E1A  2F0C                     move.l     -[A7], A4
00007E1C  4EBA 0C2A                jsr        [PC + 0xC2A /* 00008A48 */]
00007E20  4A06                     tst.b      D6
00007E22  4FEF 0014                lea.l      A7, [A7 + 0x14]
// begin alternate branch 00007E24-00007E28
label00007E24:
00007E24  0014 6708                ori.b      [A4], 0x8
// end alternate branch 00007E24-00007E28
label00007E24: // (misaligned)
00007E26  6708                     beq        +0xA /* 00007E30 */
00007E28  026E FF7F FEF2           andi.w     [A6 - 0x10E], 0xFF7F
00007E2E  6006                     bra        +0x8 /* 00007E36 */
label00007E30:
00007E30  006E 0080 FEF2           ori.w      [A6 - 0x10E], 0x80
label00007E36:
00007E36  2F0C                     move.l     -[A7], A4
00007E38  3007                     move.w     D0, D7
00007E3A  5E40                     addq.w     D0, 7
00007E3C  3F00                     move.w     -[A7], D0
00007E3E  3F2E FEF2                move.w     -[A7], [A6 - 0x10E]
00007E42  2F2E FEF4                move.l     -[A7], [A6 - 0x10C]
00007E46  486E FEF8                pea.l      [A6 - 0x108]
00007E4A  A98E                     syscall    SetDialogItem/SetDItem
00007E4C  4CEE 18C0 FEE2           movem.l    D6,D7,A3,A4, [A6 - 0x11E]
00007E52  4E5E                     unlink     A6
00007E54  4E75                     rts
fn00007E56:
00007E56  4E56 FF02                link       A6, -0x00FE
00007E5A  48E7 0300                movem.l    -[A7], D6,D7
00007E5E  302E 0012                move.w     D0, [A6 + 0x12]
00007E62  5340                     subq.w     D0, 1
00007E64  670A                     beq        +0xC /* 00007E70 */
00007E66  5340                     subq.w     D0, 1
00007E68  670C                     beq        +0xE /* 00007E76 */
00007E6A  5340                     subq.w     D0, 1
00007E6C  670E                     beq        +0x10 /* 00007E7C */
00007E6E  6010                     bra        +0x12 /* 00007E80 */
label00007E70:
00007E70  7C01                     moveq.l    D6, 0x01
00007E72  7E04                     moveq.l    D7, 0x04
00007E74  600A                     bra        +0xC /* 00007E80 */
label00007E76:
00007E76  7C02                     moveq.l    D6, 0x02
00007E78  7E04                     moveq.l    D7, 0x04
00007E7A  6004                     bra        +0x6 /* 00007E80 */
label00007E7C:
00007E7C  7C08                     moveq.l    D6, 0x08
00007E7E  7E06                     moveq.l    D7, 0x06
label00007E80:
00007E80  7000                     moveq.l    D0, 0x00
00007E82  2D40 FF02                move.l     [A6 - 0xFE], D0
00007E86  486E FF06                pea.l      [A6 - 0xFA]
00007E8A  7000                     moveq.l    D0, 0x00
00007E8C  3F00                     move.w     -[A7], D0
00007E8E  3F00                     move.w     -[A7], D0
00007E90  3F00                     move.w     -[A7], D0
00007E92  3F00                     move.w     -[A7], D0
00007E94  A8A7                     syscall    SetRect
00007E96  1D7C 0001 FF0E           move.b     [A6 - 0xF2], 0x1
00007E9C  1D47 FF0F                move.b     [A6 - 0xF1], D7
00007EA0  3D46 FF10                move.w     [A6 - 0xF0], D6
00007EA4  3D6E 000E FF12           move.w     [A6 - 0xEE], [A6 + 0xE]
00007EAA  0C47 0006                cmpi.w     D7, 0x6
00007EAE  6604                     bne        +0x6 /* 00007EB4 */
00007EB0  426E FF14                clr.w      [A6 - 0xEC]
label00007EB4:
00007EB4  48C7                     ext.l      D7
00007EB6  2007                     move.l     D0, D7
00007EB8  720E                     moveq.l    D1, 0x0E
00007EBA  D081                     add.l      D0, D1
00007EBC  2F00                     move.l     -[A7], D0
00007EBE  486E FF02                pea.l      [A6 - 0xFE]
00007EC2  2F2E 0008                move.l     -[A7], [A6 + 0x8]
00007EC6  4EBA E8B0                jsr        [PC - 0x1750 /* 00006778 */]
00007ECA  4FEF 000C                lea.l      A7, [A7 + 0xC]
00007ECE  4CEE 00C0 FEFA           movem.l    D6,D7, [A6 - 0x106]
00007ED4  4E5E                     unlink     A6
00007ED6  4E75                     rts
fn00007ED8:
00007ED8  6000 0E4E                bra        +0xE50 /* 00008D28 */
fn00007EDC:
00007EDC  6000 0B38                bra        +0xB3A /* 00008A16 */
00007EE0  4E56 0000                link       A6, 0
00007EE4  48E7 0718                movem.l    -[A7], D5,D6,D7,A3,A4
00007EE8  3E2E 0008                move.w     D7, [A6 + 0x8]
00007EEC  266E 000A                movea.l    A3, [A6 + 0xA]
00007EF0  286B 0098                movea.l    A4, [A3 + 0x98]
00007EF4  3A07                     move.w     D5, D7
00007EF6  5F45                     subq.w     D5, 7
00007EF8  48C5                     ext.l      D5
00007EFA  2054                     movea.l    A0, [A4]
00007EFC  2005                     move.l     D0, D5
00007EFE  D080                     add.l      D0, D0
00007F00  41E8 0154                lea.l      A0, [A0 + 0x154]
00007F04  3C30 0800                move.w     D6, [A0 + D0]
00007F08  2F0B                     move.l     -[A7], A3
00007F0A  3F07                     move.w     -[A7], D7
00007F0C  3F06                     move.w     -[A7], D6
00007F0E  2054                     movea.l    A0, [A4]
00007F10  2F28 0144                move.l     -[A7], [A0 + 0x144]
00007F14  4EBA 81F4                jsr        [PC - 0x7E0C /* 0000010A */]
00007F18  4CEE 18E0 FFEC           movem.l    D5,D6,D7,A3,A4, [A6 - 0x14]
00007F1E  4E5E                     unlink     A6
00007F20  205F                     movea.l    A0, [A7]+
00007F22  5C4F                     addq.w     A7, 6
00007F24  4ED0                     jmp        [A0]
fn00007F26:
00007F26  4E56 FFEA                link       A6, -0x0016
00007F2A  48E7 1F18                movem.l    -[A7], D3,D4,D5,D6,D7,A3,A4
00007F2E  2A2E 0010                move.l     D5, [A6 + 0x10]
00007F32  3C2E 000E                move.w     D6, [A6 + 0xE]
00007F36  206E 0008                movea.l    A0, [A6 + 0x8]
00007F3A  2050                     movea.l    A0, [A0]
00007F3C  2068 0114                movea.l    A0, [A0 + 0x114]
00007F40  A069                     syscall    HGetState
00007F42  1800                     move.b     D4, D0
00007F44  206E 0008                movea.l    A0, [A6 + 0x8]
00007F48  2050                     movea.l    A0, [A0]
00007F4A  2068 0120                movea.l    A0, [A0 + 0x120]
00007F4E  A069                     syscall    HGetState
00007F50  1D40 FFEB                move.b     [A6 - 0x15], D0
00007F54  206E 0008                movea.l    A0, [A6 + 0x8]
00007F58  2050                     movea.l    A0, [A0]
00007F5A  2068 0120                movea.l    A0, [A0 + 0x120]
00007F5E  A029                     syscall    HLock
00007F60  206E 0008                movea.l    A0, [A6 + 0x8]
00007F64  2050                     movea.l    A0, [A0]
00007F66  2068 0114                movea.l    A0, [A0 + 0x114]
00007F6A  A029                     syscall    HLock
00007F6C  486E FFF0                pea.l      [A6 - 0x10]
00007F70  486E FFEC                pea.l      [A6 - 0x14]
00007F74  48C6                     ext.l      D6
00007F76  2F06                     move.l     -[A7], D6
00007F78  206E 0008                movea.l    A0, [A6 + 0x8]
00007F7C  2050                     movea.l    A0, [A0]
00007F7E  2F28 0120                move.l     -[A7], [A0 + 0x120]
00007F82  4EBA 09FE                jsr        [PC + 0x9FE /* 00008982 */]
00007F86  206E 0008                movea.l    A0, [A6 + 0x8]
00007F8A  2050                     movea.l    A0, [A0]
00007F8C  2D48 FFFC                move.l     [A6 - 0x4], A0
00007F90  2068 0120                movea.l    A0, [A0 + 0x120]
00007F94  2050                     movea.l    A0, [A0]
00007F96  202E FFEC                move.l     D0, [A6 - 0x14]
00007F9A  47F0 0800                lea.l      A3, [A0 + D0]
00007F9E  206E FFFC                movea.l    A0, [A6 - 0x4]
00007FA2  2068 0114                movea.l    A0, [A0 + 0x114]
00007FA6  2050                     movea.l    A0, [A0]
00007FA8  202E FFEC                move.l     D0, [A6 - 0x14]
00007FAC  49F0 0800                lea.l      A4, [A0 + D0]
00007FB0  2F0C                     move.l     -[A7], A4
00007FB2  2F0B                     move.l     -[A7], A3
00007FB4  4EBA CCE8                jsr        [PC - 0x3318 /* 00004C9E */]
00007FB8  4A00                     tst.b      D0
00007FBA  57C3                     seq        D3
00007FBC  4403                     neg.b      D3
00007FBE  1E03                     move.b     D7, D3
00007FC0  4A2E 0017                tst.b      [A6 + 0x17]
00007FC4  4FEF 0018                lea.l      A7, [A7 + 0x18]
00007FC8  6604                     bne        +0x6 /* 00007FCE */
00007FCA  4A07                     tst.b      D7
00007FCC  6748                     beq        +0x4A /* 00008016 */
label00007FCE:
00007FCE  7000                     moveq.l    D0, 0x00
00007FD0  102C 000C                move.b     D0, [A4 + 0xC]
00007FD4  7210                     moveq.l    D1, 0x10
00007FD6  C200                     and.b      D1, D0
00007FD8  670C                     beq        +0xE /* 00007FE6 */
00007FDA  486C 0004                pea.l      [A4 + 0x4]
00007FDE  70FD                     moveq.l    D0, 0xFFFFFFFD
00007FE0  3F00                     move.w     -[A7], D0
00007FE2  3F00                     move.w     -[A7], D0
00007FE4  A8A9                     syscall    InsetRect
label00007FE6:
00007FE6  486C 0004                pea.l      [A4 + 0x4]
00007FEA  A928                     syscall    InvalRect
00007FEC  41EE FFF4                lea.l      A0, [A6 - 0xC]
00007FF0  224B                     movea.l    A1, A3
00007FF2  5889                     addq.l     A1, 4
00007FF4  20D9                     move.l     [A0]+, [A1]+
00007FF6  20D9                     move.l     [A0]+, [A1]+
00007FF8  7000                     moveq.l    D0, 0x00
00007FFA  102C 000C                move.b     D0, [A4 + 0xC]
00007FFE  7210                     moveq.l    D1, 0x10
00008000  C200                     and.b      D1, D0
00008002  670C                     beq        +0xE /* 00008010 */
00008004  486E FFF4                pea.l      [A6 - 0xC]
00008008  70FD                     moveq.l    D0, 0xFFFFFFFD
0000800A  3F00                     move.w     -[A7], D0
0000800C  3F00                     move.w     -[A7], D0
0000800E  A8A9                     syscall    InsetRect
label00008010:
00008010  486E FFF4                pea.l      [A6 - 0xC]
00008014  A928                     syscall    InvalRect
label00008016:
00008016  4A07                     tst.b      D7
00008018  674C                     beq        +0x4E /* 00008066 */
0000801A  3E2C 000E                move.w     D7, [A4 + 0xE]
0000801E  2F2E FFF0                move.l     -[A7], [A6 - 0x10]
00008022  2F0C                     move.l     -[A7], A4
00008024  2F0B                     move.l     -[A7], A3
00008026  4EBA 09EE                jsr        [PC + 0x9EE /* 00008A16 */]
0000802A  3947 000E                move.w     [A4 + 0xE], D7
0000802E  7000                     moveq.l    D0, 0x00
00008030  2880                     move.l     [A4], D0
00008032  206E 0008                movea.l    A0, [A6 + 0x8]
00008036  2050                     movea.l    A0, [A0]
00008038  2F28 0114                move.l     -[A7], [A0 + 0x114]
0000803C  4EBA 80A0                jsr        [PC - 0x7F60 /* 000000DE */]
00008040  206E 0008                movea.l    A0, [A6 + 0x8]
00008044  2050                     movea.l    A0, [A0]
00008046  4A68 01CE                tst.w      [A0 + 0x1CE]
0000804A  4FEF 000C                lea.l      A7, [A7 + 0xC]
0000804E  6616                     bne        +0x18 /* 00008066 */
00008050  4A85                     tst.l      D5
00008052  6712                     beq        +0x14 /* 00008066 */
00008054  2F05                     move.l     -[A7], D5
00008056  48C6                     ext.l      D6
00008058  2F06                     move.l     -[A7], D6
0000805A  2F2E 0008                move.l     -[A7], [A6 + 0x8]
0000805E  4EBA BD64                jsr        [PC - 0x429C /* 00003DC4 */]
00008062  4FEF 000C                lea.l      A7, [A7 + 0xC]
label00008066:
00008066  206E 0008                movea.l    A0, [A6 + 0x8]
0000806A  2050                     movea.l    A0, [A0]
0000806C  2068 0114                movea.l    A0, [A0 + 0x114]
00008070  1004                     move.b     D0, D4
00008072  A06A                     syscall    HSetState
00008074  206E 0008                movea.l    A0, [A6 + 0x8]
00008078  2050                     movea.l    A0, [A0]
0000807A  2068 0120                movea.l    A0, [A0 + 0x120]
0000807E  102E FFEB                move.b     D0, [A6 - 0x15]
00008082  A06A                     syscall    HSetState
00008084  4CEE 18F8 FFCE           movem.l    D3,D4,D5,D6,D7,A3,A4, [A6 - 0x32]
0000808A  4E5E                     unlink     A6
0000808C  4E75                     rts
fn0000808E:
0000808E  4E56 FFEA                link       A6, -0x0016
00008092  48E7 1F18                movem.l    -[A7], D3,D4,D5,D6,D7,A3,A4
00008096  1A2E 000F                move.b     D5, [A6 + 0xF]
0000809A  206E 0008                movea.l    A0, [A6 + 0x8]
0000809E  2050                     movea.l    A0, [A0]
000080A0  2068 0114                movea.l    A0, [A0 + 0x114]
000080A4  A069                     syscall    HGetState
000080A6  1800                     move.b     D4, D0
000080A8  206E 0008                movea.l    A0, [A6 + 0x8]
000080AC  2050                     movea.l    A0, [A0]
000080AE  2068 0120                movea.l    A0, [A0 + 0x120]
000080B2  A069                     syscall    HGetState
000080B4  1D40 FFEF                move.b     [A6 - 0x11], D0
000080B8  206E 0008                movea.l    A0, [A6 + 0x8]
000080BC  2050                     movea.l    A0, [A0]
000080BE  2068 0120                movea.l    A0, [A0 + 0x120]
000080C2  A029                     syscall    HLock
000080C4  206E 0008                movea.l    A0, [A6 + 0x8]
000080C8  2050                     movea.l    A0, [A0]
000080CA  2068 0114                movea.l    A0, [A0 + 0x114]
000080CE  A029                     syscall    HLock
000080D0  206E 0008                movea.l    A0, [A6 + 0x8]
000080D4  2050                     movea.l    A0, [A0]
000080D6  3028 0150                move.w     D0, [A0 + 0x150]
000080DA  48C0                     ext.l      D0
000080DC  A31E                     syscall    NewPtrClear, flags=3
000080DE  2D48 FFEA                move.l     [A6 - 0x16], A0
000080E2  206E 0008                movea.l    A0, [A6 + 0x8]
000080E6  2050                     movea.l    A0, [A0]
000080E8  3C28 0150                move.w     D6, [A0 + 0x150]
000080EC  6000 009A                bra        +0x9C /* 00008188 */
label000080F0:
000080F0  486E FFF4                pea.l      [A6 - 0xC]
000080F4  486E FFF0                pea.l      [A6 - 0x10]
000080F8  48C6                     ext.l      D6
000080FA  2F06                     move.l     -[A7], D6
000080FC  206E 0008                movea.l    A0, [A6 + 0x8]
00008100  2050                     movea.l    A0, [A0]
00008102  2F28 0120                move.l     -[A7], [A0 + 0x120]
00008106  4EBA 087A                jsr        [PC + 0x87A /* 00008982 */]
0000810A  206E 0008                movea.l    A0, [A6 + 0x8]
0000810E  2050                     movea.l    A0, [A0]
00008110  2068 0120                movea.l    A0, [A0 + 0x120]
00008114  2050                     movea.l    A0, [A0]
00008116  202E FFF0                move.l     D0, [A6 - 0x10]
0000811A  47F0 0800                lea.l      A3, [A0 + D0]
0000811E  206E FFEA                movea.l    A0, [A6 - 0x16]
00008122  4230 6000                clr.b      [A0 + D6.w]
00008126  206E 0008                movea.l    A0, [A6 + 0x8]
0000812A  2050                     movea.l    A0, [A0]
0000812C  3E28 0150                move.w     D7, [A0 + 0x150]
00008130  4FEF 0010                lea.l      A7, [A7 + 0x10]
00008134  604C                     bra        +0x4E /* 00008182 */
label00008136:
00008136  486E FFF4                pea.l      [A6 - 0xC]
0000813A  486E FFF0                pea.l      [A6 - 0x10]
0000813E  48C7                     ext.l      D7
00008140  2F07                     move.l     -[A7], D7
00008142  206E 0008                movea.l    A0, [A6 + 0x8]
00008146  2050                     movea.l    A0, [A0]
00008148  2F28 0114                move.l     -[A7], [A0 + 0x114]
0000814C  4EBA 0834                jsr        [PC + 0x834 /* 00008982 */]
00008150  206E 0008                movea.l    A0, [A6 + 0x8]
00008154  2050                     movea.l    A0, [A0]
00008156  2068 0114                movea.l    A0, [A0 + 0x114]
0000815A  2050                     movea.l    A0, [A0]
0000815C  202E FFF0                move.l     D0, [A6 - 0x10]
00008160  49F0 0800                lea.l      A4, [A0 + D0]
00008164  2F0C                     move.l     -[A7], A4
00008166  2F0B                     move.l     -[A7], A3
00008168  4EBA CB34                jsr        [PC - 0x34CC /* 00004C9E */]
0000816C  4A00                     tst.b      D0
0000816E  4FEF 0018                lea.l      A7, [A7 + 0x18]
00008172  670C                     beq        +0xE /* 00008180 */
00008174  206E FFEA                movea.l    A0, [A6 - 0x16]
00008178  11BC 0001 6000           move.b     [A0 + D6.w], 0x1
0000817E  6006                     bra        +0x8 /* 00008186 */
label00008180:
00008180  5347                     subq.w     D7, 1
label00008182:
00008182  4A47                     tst.w      D7
00008184  6EB0                     bgt        -0x4E /* 00008136 */
label00008186:
00008186  5346                     subq.w     D6, 1
label00008188:
00008188  4A46                     tst.w      D6
0000818A  6E00 FF64                bgt        -0x9A /* 000080F0 */
0000818E  598F                     subq.l     A7, 4
00008190  206E 0008                movea.l    A0, [A6 + 0x8]
00008194  2050                     movea.l    A0, [A0]
00008196  2F28 0120                move.l     -[A7], [A0 + 0x120]
0000819A  4EBA 0B4C                jsr        [PC + 0xB4C /* 00008CE8 */]
0000819E  206E 0008                movea.l    A0, [A6 + 0x8]
000081A2  2050                     movea.l    A0, [A0]
000081A4  2068 0114                movea.l    A0, [A0 + 0x114]
000081A8  2F10                     move.l     -[A7], [A0]
000081AA  206E 0008                movea.l    A0, [A6 + 0x8]
000081AE  2050                     movea.l    A0, [A0]
000081B0  2068 0120                movea.l    A0, [A0 + 0x120]
000081B4  2F10                     move.l     -[A7], [A0]
000081B6  4EBA 085E                jsr        [PC + 0x85E /* 00008A16 */]
000081BA  206E 0008                movea.l    A0, [A6 + 0x8]
000081BE  2050                     movea.l    A0, [A0]
000081C0  3C28 0150                move.w     D6, [A0 + 0x150]
000081C4  4FEF 000C                lea.l      A7, [A7 + 0xC]
000081C8  6000 00E8                bra        +0xEA /* 000082B2 */
label000081CC:
000081CC  486E FFF4                pea.l      [A6 - 0xC]
000081D0  486E FFF0                pea.l      [A6 - 0x10]
000081D4  48C6                     ext.l      D6
000081D6  2F06                     move.l     -[A7], D6
000081D8  206E 0008                movea.l    A0, [A6 + 0x8]
000081DC  2050                     movea.l    A0, [A0]
000081DE  2F28 0114                move.l     -[A7], [A0 + 0x114]
000081E2  4EBA 079E                jsr        [PC + 0x79E /* 00008982 */]
000081E6  206E 0008                movea.l    A0, [A6 + 0x8]
000081EA  2050                     movea.l    A0, [A0]
000081EC  2068 0114                movea.l    A0, [A0 + 0x114]
000081F0  2050                     movea.l    A0, [A0]
000081F2  202E FFF0                move.l     D0, [A6 - 0x10]
000081F6  49F0 0800                lea.l      A4, [A0 + D0]
000081FA  7000                     moveq.l    D0, 0x00
000081FC  2880                     move.l     [A4], D0
000081FE  206E FFEA                movea.l    A0, [A6 - 0x16]
00008202  4A30 6000                tst.b      [A0 + D6.w]
00008206  4FEF 0010                lea.l      A7, [A7 + 0x10]
0000820A  6600 00A4                bne        +0xA6 /* 000082B0 */
0000820E  206E 0008                movea.l    A0, [A6 + 0x8]
00008212  2050                     movea.l    A0, [A0]
00008214  2068 0120                movea.l    A0, [A0 + 0x120]
00008218  2050                     movea.l    A0, [A0]
0000821A  202E FFF0                move.l     D0, [A6 - 0x10]
0000821E  47F0 0800                lea.l      A3, [A0 + D0]
00008222  41EE FFF8                lea.l      A0, [A6 - 0x8]
00008226  224C                     movea.l    A1, A4
00008228  5889                     addq.l     A1, 4
0000822A  20D9                     move.l     [A0]+, [A1]+
0000822C  20D9                     move.l     [A0]+, [A1]+
0000822E  486E FFF8                pea.l      [A6 - 0x8]
00008232  70FD                     moveq.l    D0, 0xFFFFFFFD
00008234  3F00                     move.w     -[A7], D0
00008236  3F00                     move.w     -[A7], D0
00008238  A8A9                     syscall    InsetRect
0000823A  486E FFF8                pea.l      [A6 - 0x8]
0000823E  A928                     syscall    InvalRect
00008240  41EE FFF8                lea.l      A0, [A6 - 0x8]
00008244  224B                     movea.l    A1, A3
00008246  5889                     addq.l     A1, 4
00008248  20D9                     move.l     [A0]+, [A1]+
0000824A  20D9                     move.l     [A0]+, [A1]+
0000824C  486E FFF8                pea.l      [A6 - 0x8]
00008250  70FD                     moveq.l    D0, 0xFFFFFFFD
00008252  3F00                     move.w     -[A7], D0
00008254  3F00                     move.w     -[A7], D0
00008256  A8A9                     syscall    InsetRect
00008258  486E FFF8                pea.l      [A6 - 0x8]
0000825C  A928                     syscall    InvalRect
0000825E  206E 0008                movea.l    A0, [A6 + 0x8]
00008262  2050                     movea.l    A0, [A0]
00008264  4A68 01CE                tst.w      [A0 + 0x1CE]
00008268  6646                     bne        +0x48 /* 000082B0 */
0000826A  4A05                     tst.b      D5
0000826C  6742                     beq        +0x44 /* 000082B0 */
0000826E  206E 0008                movea.l    A0, [A6 + 0x8]
00008272  2050                     movea.l    A0, [A0]
00008274  1028 015C                move.b     D0, [A0 + 0x15C]
00008278  5500                     subq.b     D0, 2
0000827A  670E                     beq        +0x10 /* 0000828A */
0000827C  5B00                     subq.b     D0, 5
0000827E  6712                     beq        +0x14 /* 00008292 */
00008280  5300                     subq.b     D0, 1
00008282  670A                     beq        +0xC /* 0000828E */
00008284  5300                     subq.b     D0, 1
00008286  670E                     beq        +0x10 /* 00008296 */
00008288  6010                     bra        +0x12 /* 0000829A */
label0000828A:
0000828A  7E04                     moveq.l    D7, 0x04
0000828C  600E                     bra        +0x10 /* 0000829C */
label0000828E:
0000828E  7E05                     moveq.l    D7, 0x05
00008290  600A                     bra        +0xC /* 0000829C */
label00008292:
00008292  7E06                     moveq.l    D7, 0x06
00008294  6006                     bra        +0x8 /* 0000829C */
label00008296:
00008296  7E07                     moveq.l    D7, 0x07
00008298  6002                     bra        +0x4 /* 0000829C */
label0000829A:
0000829A  4247                     clr.w      D7
label0000829C:
0000829C  48C7                     ext.l      D7
0000829E  2F07                     move.l     -[A7], D7
000082A0  48C6                     ext.l      D6
000082A2  2F06                     move.l     -[A7], D6
000082A4  2F2E 0008                move.l     -[A7], [A6 + 0x8]
000082A8  4EBA BB1A                jsr        [PC - 0x44E6 /* 00003DC4 */]
000082AC  4FEF 000C                lea.l      A7, [A7 + 0xC]
label000082B0:
000082B0  5346                     subq.w     D6, 1
label000082B2:
000082B2  4A46                     tst.w      D6
000082B4  6E00 FF16                bgt        -0xE8 /* 000081CC */
000082B8  206E FFEA                movea.l    A0, [A6 - 0x16]
000082BC  A01F                     syscall    DisposPtr/DisposePtr
000082BE  206E 0008                movea.l    A0, [A6 + 0x8]
000082C2  2050                     movea.l    A0, [A0]
000082C4  2068 0114                movea.l    A0, [A0 + 0x114]
000082C8  1004                     move.b     D0, D4
000082CA  A06A                     syscall    HSetState
000082CC  206E 0008                movea.l    A0, [A6 + 0x8]
000082D0  2050                     movea.l    A0, [A0]
000082D2  2068 0120                movea.l    A0, [A0 + 0x120]
000082D6  102E FFEF                move.b     D0, [A6 - 0x11]
000082DA  A06A                     syscall    HSetState
000082DC  206E 0008                movea.l    A0, [A6 + 0x8]
000082E0  2050                     movea.l    A0, [A0]
000082E2  2F28 0114                move.l     -[A7], [A0 + 0x114]
000082E6  4EBA 8AF2                jsr        [PC - 0x750E /* 00000DDA */]
000082EA  4A05                     tst.b      D5
000082EC  670E                     beq        +0x10 /* 000082FC */
000082EE  7001                     moveq.l    D0, 0x01
000082F0  2F00                     move.l     -[A7], D0
000082F2  2F2E 0008                move.l     -[A7], [A6 + 0x8]
000082F6  4EBA 8E22                jsr        [PC - 0x71DE /* 0000111A */]
000082FA  504F                     addq.w     A7, 8
label000082FC:
000082FC  4CEE 18F8 FFCE           movem.l    D3,D4,D5,D6,D7,A3,A4, [A6 - 0x32]
00008302  4E5E                     unlink     A6
00008304  4E75                     rts
fn00008306:
00008306  4E56 FFF0                link       A6, -0x0010
0000830A  48E7 0318                movem.l    -[A7], D6,D7,A3,A4
0000830E  3E2E 000E                move.w     D7, [A6 + 0xE]
00008312  286E 0008                movea.l    A4, [A6 + 0x8]
00008316  2054                     movea.l    A0, [A4]
00008318  2068 0120                movea.l    A0, [A0 + 0x120]
0000831C  A069                     syscall    HGetState
0000831E  1C00                     move.b     D6, D0
00008320  2054                     movea.l    A0, [A4]
00008322  2068 0120                movea.l    A0, [A0 + 0x120]
00008326  A029                     syscall    HLock
00008328  486E FFF4                pea.l      [A6 - 0xC]
0000832C  486E FFF0                pea.l      [A6 - 0x10]
00008330  48C7                     ext.l      D7
00008332  2F07                     move.l     -[A7], D7
00008334  2054                     movea.l    A0, [A4]
00008336  2F28 0120                move.l     -[A7], [A0 + 0x120]
0000833A  4EBA 0646                jsr        [PC + 0x646 /* 00008982 */]
0000833E  2054                     movea.l    A0, [A4]
00008340  2068 0120                movea.l    A0, [A0 + 0x120]
00008344  2050                     movea.l    A0, [A0]
00008346  202E FFF0                move.l     D0, [A6 - 0x10]
0000834A  47F0 0800                lea.l      A3, [A0 + D0]
0000834E  41EE FFF8                lea.l      A0, [A6 - 0x8]
00008352  224B                     movea.l    A1, A3
00008354  5889                     addq.l     A1, 4
00008356  20D9                     move.l     [A0]+, [A1]+
00008358  20D9                     move.l     [A0]+, [A1]+
0000835A  7000                     moveq.l    D0, 0x00
0000835C  102B 000C                move.b     D0, [A3 + 0xC]
00008360  323C FF7F                move.w     D1, 0xFF7F
00008364  C240                     and.w      D1, D0
00008366  4FEF 0010                lea.l      A7, [A7 + 0x10]
0000836A  6750                     beq        +0x52 /* 000083BC */
0000836C  5941                     subq.w     D1, 4
0000836E  6722                     beq        +0x24 /* 00008392 */
00008370  5341                     subq.w     D1, 1
00008372  671E                     beq        +0x20 /* 00008392 */
00008374  5341                     subq.w     D1, 1
00008376  671A                     beq        +0x1C /* 00008392 */
00008378  5341                     subq.w     D1, 1
0000837A  6716                     beq        +0x18 /* 00008392 */
0000837C  5341                     subq.w     D1, 1
0000837E  6750                     beq        +0x52 /* 000083D0 */
00008380  5141                     subq.w     D1, 8
00008382  6740                     beq        +0x42 /* 000083C4 */
00008384  0441 0010                subi.w     D1, 0x10
00008388  6732                     beq        +0x34 /* 000083BC */
0000838A  0441 0020                subi.w     D1, 0x20 /* ' ' */
0000838E  672C                     beq        +0x2E /* 000083BC */
00008390  602A                     bra        +0x2C /* 000083BC */
label00008392:
00008392  7000                     moveq.l    D0, 0x00
00008394  2F00                     move.l     -[A7], D0
00008396  7201                     moveq.l    D1, 0x01
00008398  2F01                     move.l     -[A7], D1
0000839A  2F01                     move.l     -[A7], D1
0000839C  2F00                     move.l     -[A7], D0
0000839E  48C7                     ext.l      D7
000083A0  2F07                     move.l     -[A7], D7
000083A2  2F0C                     move.l     -[A7], A4
000083A4  4EBA D472                jsr        [PC - 0x2B8E /* 00005818 */]
000083A8  2F0C                     move.l     -[A7], A4
000083AA  4EBA 8D6A                jsr        [PC - 0x7296 /* 00001116 */]
000083AE  2F13                     move.l     -[A7], [A3]
000083B0  A955                     syscall    DisposeControl
000083B2  2F0C                     move.l     -[A7], A4
000083B4  4EBA 8D5C                jsr        [PC - 0x72A4 /* 00001112 */]
000083B8  4FEF 0020                lea.l      A7, [A7 + 0x20]
label000083BC:
000083BC  486E FFF8                pea.l      [A6 - 0x8]
000083C0  A928                     syscall    InvalRect
000083C2  6016                     bra        +0x18 /* 000083DA */
label000083C4:
000083C4  486E FFF8                pea.l      [A6 - 0x8]
000083C8  70FD                     moveq.l    D0, 0xFFFFFFFD
000083CA  3F00                     move.w     -[A7], D0
000083CC  3F00                     move.w     -[A7], D0
000083CE  A8A9                     syscall    InsetRect
label000083D0:
000083D0  486E FFF8                pea.l      [A6 - 0x8]
000083D4  A928                     syscall    InvalRect
000083D6  2053                     movea.l    A0, [A3]
000083D8  A023                     syscall    DisposHandle/DisposeHandle
label000083DA:
000083DA  7000                     moveq.l    D0, 0x00
000083DC  2680                     move.l     [A3], D0
000083DE  2054                     movea.l    A0, [A4]
000083E0  2068 0120                movea.l    A0, [A0 + 0x120]
000083E4  1006                     move.b     D0, D6
000083E6  A06A                     syscall    HSetState
000083E8  4CEE 18C0 FFE0           movem.l    D6,D7,A3,A4, [A6 - 0x20]
000083EE  4E5E                     unlink     A6
000083F0  4E75                     rts
fn000083F2:
000083F2  4E56 FFF8                link       A6, -0x0008
000083F6  48E7 0308                movem.l    -[A7], D6,D7,A4
000083FA  286E 000C                movea.l    A4, [A6 + 0xC]
000083FE  3C2E 001A                move.w     D6, [A6 + 0x1A]
00008402  7E01                     moveq.l    D7, 0x01
00008404  0C46 0009                cmpi.w     D6, 0x9 /* '\t' */
00008408  6F04                     ble        +0x6 /* 0000840E */
0000840A  3007                     move.w     D0, D7
0000840C  5247                     addq.w     D7, 1
label0000840E:
0000840E  0C46 0063                cmpi.w     D6, 0x63 /* 'c' */
00008412  6F04                     ble        +0x6 /* 00008418 */
00008414  3007                     move.w     D0, D7
00008416  5247                     addq.w     D7, 1
label00008418:
00008418  0C46 03E7                cmpi.w     D6, 0x3E7
0000841C  6F04                     ble        +0x6 /* 00008422 */
0000841E  3007                     move.w     D0, D7
00008420  5247                     addq.w     D7, 1
label00008422:
00008422  0C46 270F                cmpi.w     D6, 0x270F
00008426  6F04                     ble        +0x6 /* 0000842C */
00008428  3007                     move.w     D0, D7
0000842A  5247                     addq.w     D7, 1
label0000842C:
0000842C  3D6E 0012 FFF8           move.w     [A6 - 0x8], [A6 + 0x12]
00008432  3D6E 0016 FFFE           move.w     [A6 - 0x2], [A6 + 0x16]
00008438  2054                     movea.l    A0, [A4]
0000843A  3028 01BC                move.w     D0, [A0 + 0x1BC]
0000843E  D06E FFF8                add.w      D0, [A6 - 0x8]
00008442  3D40 FFFC                move.w     [A6 - 0x4], D0
00008446  2054                     movea.l    A0, [A4]
00008448  3028 01BE                move.w     D0, [A0 + 0x1BE]
0000844C  C1C7                     muls.w     D0, D7
0000844E  5A80                     addq.l     D0, 5
00008450  322E FFFE                move.w     D1, [A6 - 0x2]
00008454  9240                     sub.w      D1, D0
00008456  3D41 FFFA                move.w     [A6 - 0x6], D1
0000845A  206E 0008                movea.l    A0, [A6 + 0x8]
0000845E  43EE FFF8                lea.l      A1, [A6 - 0x8]
00008462  20D9                     move.l     [A0]+, [A1]+
00008464  20D9                     move.l     [A0]+, [A1]+
00008466  4CEE 10C0 FFEC           movem.l    D6,D7,A4, [A6 - 0x14]
0000846C  4E5E                     unlink     A6
0000846E  4E75                     rts
fn00008470:
00008470  4E56 FFE8                link       A6, -0x0018
00008474  48E7 0F18                movem.l    -[A7], D4,D5,D6,D7,A3,A4
00008478  206E 0008                movea.l    A0, [A6 + 0x8]
0000847C  2D68 0018 FFEC           move.l     [A6 - 0x14], [A0 + 0x18]
00008482  206E 000C                movea.l    A0, [A6 + 0xC]
00008486  2050                     movea.l    A0, [A0]
00008488  4A68 01D6                tst.w      [A0 + 0x1D6]
0000848C  660C                     bne        +0xE /* 0000849A */
0000848E  206E 000C                movea.l    A0, [A6 + 0xC]
00008492  2050                     movea.l    A0, [A0]
00008494  3F28 0110                move.w     -[A7], [A0 + 0x110]
00008498  A998                     syscall    UseResFile
label0000849A:
0000849A  2F2E 000C                move.l     -[A7], [A6 + 0xC]
0000849E  4EBA 8C76                jsr        [PC - 0x738A /* 00001116 */]
000084A2  2F2E 0008                move.l     -[A7], [A6 + 0x8]
000084A6  2F2E FFEC                move.l     -[A7], [A6 - 0x14]
000084AA  A953                     syscall    UpdtControl
000084AC  2F2E 000C                move.l     -[A7], [A6 + 0xC]
000084B0  4EBA 8C60                jsr        [PC - 0x73A0 /* 00001112 */]
000084B4  206E 0008                movea.l    A0, [A6 + 0x8]
000084B8  2068 009C                movea.l    A0, [A0 + 0x9C]
000084BC  A069                     syscall    HGetState
000084BE  1800                     move.b     D4, D0
000084C0  206E 0008                movea.l    A0, [A6 + 0x8]
000084C4  2068 009C                movea.l    A0, [A0 + 0x9C]
000084C8  A029                     syscall    HLock
000084CA  206E 0008                movea.l    A0, [A6 + 0x8]
000084CE  2068 009C                movea.l    A0, [A0 + 0x9C]
000084D2  2050                     movea.l    A0, [A0]
000084D4  3C10                     move.w     D6, [A0]
000084D6  5246                     addq.w     D6, 1
000084D8  7002                     moveq.l    D0, 0x02
000084DA  2D40 FFE8                move.l     [A6 - 0x18], D0
000084DE  7E01                     moveq.l    D7, 0x01
000084E0  504F                     addq.w     A7, 8
000084E2  6000 0200                bra        +0x202 /* 000086E4 */
label000084E6:
000084E6  486E FFE8                pea.l      [A6 - 0x18]
000084EA  206E 0008                movea.l    A0, [A6 + 0x8]
000084EE  2F28 009C                move.l     -[A7], [A0 + 0x9C]
000084F2  4EBA 05D2                jsr        [PC + 0x5D2 /* 00008AC6 */]
000084F6  2840                     movea.l    A4, D0
000084F8  41EE FFF0                lea.l      A0, [A6 - 0x10]
000084FC  224C                     movea.l    A1, A4
000084FE  5889                     addq.l     A1, 4
00008500  20D9                     move.l     [A0]+, [A1]+
00008502  20D9                     move.l     [A0]+, [A1]+
00008504  486E FFF0                pea.l      [A6 - 0x10]
00008508  70FC                     moveq.l    D0, 0xFFFFFFFC
0000850A  3F00                     move.w     -[A7], D0
0000850C  3F00                     move.w     -[A7], D0
0000850E  A8A9                     syscall    InsetRect
00008510  558F                     subq.l     A7, 2
00008512  486E FFF0                pea.l      [A6 - 0x10]
00008516  2F2E FFEC                move.l     -[A7], [A6 - 0x14]
0000851A  A8E9                     syscall    RectInRgn
0000851C  4A1F                     tst.b      [A7]+
0000851E  504F                     addq.w     A7, 8
00008520  6700 01BE                beq        +0x1C0 /* 000086E0 */
00008524  7000                     moveq.l    D0, 0x00
00008526  102C 000C                move.b     D0, [A4 + 0xC]
0000852A  323C FF7F                move.w     D1, 0xFF7F
0000852E  C240                     and.w      D1, D0
00008530  6700 0188                beq        +0x18A /* 000086BA */
00008534  5341                     subq.w     D1, 1
00008536  6700 01A8                beq        +0x1AA /* 000086E0 */
0000853A  5741                     subq.w     D1, 3
0000853C  6700 01A2                beq        +0x1A4 /* 000086E0 */
00008540  5341                     subq.w     D1, 1
00008542  6700 019C                beq        +0x19E /* 000086E0 */
00008546  5341                     subq.w     D1, 1
00008548  6700 0196                beq        +0x198 /* 000086E0 */
0000854C  5341                     subq.w     D1, 1
0000854E  6700 0190                beq        +0x192 /* 000086E0 */
00008552  5341                     subq.w     D1, 1
00008554  6716                     beq        +0x18 /* 0000856C */
00008556  5141                     subq.w     D1, 8
00008558  6712                     beq        +0x14 /* 0000856C */
0000855A  0441 0010                subi.w     D1, 0x10
0000855E  6700 00EC                beq        +0xEE /* 0000864C */
00008562  0441 0020                subi.w     D1, 0x20 /* ' ' */
00008566  6774                     beq        +0x76 /* 000085DC */
00008568  6000 0176                bra        +0x178 /* 000086E0 */
label0000856C:
0000856C  41EE FFF0                lea.l      A0, [A6 - 0x10]
00008570  224C                     movea.l    A1, A4
00008572  5889                     addq.l     A1, 4
00008574  20D9                     move.l     [A0]+, [A1]+
00008576  20D9                     move.l     [A0]+, [A1]+
00008578  486E FFF0                pea.l      [A6 - 0x10]
0000857C  A87B                     syscall    ClipRect
0000857E  598F                     subq.l     A7, 4
00008580  2F14                     move.l     -[A7], [A4]
00008582  4EBA 0764                jsr        [PC + 0x764 /* 00008CE8 */]
00008586  2A1F                     move.l     D5, [A7]+
00008588  2054                     movea.l    A0, [A4]
0000858A  A029                     syscall    HLock
0000858C  2054                     movea.l    A0, [A4]
0000858E  2F10                     move.l     -[A7], [A0]
00008590  2F05                     move.l     -[A7], D5
00008592  486E FFF0                pea.l      [A6 - 0x10]
00008596  7000                     moveq.l    D0, 0x00
00008598  3F00                     move.w     -[A7], D0
0000859A  A9CE                     syscall    TETextBox/TextBox
0000859C  2054                     movea.l    A0, [A4]
0000859E  A02A                     syscall    HUnlock
000085A0  486E FFF8                pea.l      [A6 - 0x8]
000085A4  2F3C 8001 8001           move.l     -[A7], 0x80018001
000085AA  2F3C 7FFF 7FFF           move.l     -[A7], 0x7FFF7FFF
000085B0  A8A7                     syscall    SetRect
000085B2  486E FFF8                pea.l      [A6 - 0x8]
000085B6  A87B                     syscall    ClipRect
000085B8  7000                     moveq.l    D0, 0x00
000085BA  102C 000C                move.b     D0, [A4 + 0xC]
000085BE  7210                     moveq.l    D1, 0x10
000085C0  C200                     and.b      D1, D0
000085C2  6700 011C                beq        +0x11E /* 000086E0 */
000085C6  486E FFF0                pea.l      [A6 - 0x10]
000085CA  70FD                     moveq.l    D0, 0xFFFFFFFD
000085CC  3F00                     move.w     -[A7], D0
000085CE  3F00                     move.w     -[A7], D0
000085D0  A8A9                     syscall    InsetRect
000085D2  486E FFF0                pea.l      [A6 - 0x10]
000085D6  A8A1                     syscall    FrameRect
000085D8  6000 0106                bra        +0x108 /* 000086E0 */
label000085DC:
000085DC  558F                     subq.l     A7, 2
000085DE  2F14                     move.l     -[A7], [A4]
000085E0  A9A4                     syscall    HomeResFile
000085E2  70FF                     moveq.l    D0, 0xFFFFFFFF
000085E4  B05F                     cmp.w      D0, [A7]+
000085E6  6654                     bne        +0x56 /* 0000863C */
000085E8  598F                     subq.l     A7, 4
000085EA  206E 000C                movea.l    A0, [A6 + 0xC]
000085EE  2050                     movea.l    A0, [A0]
000085F0  3F28 0110                move.w     -[A7], [A0 + 0x110]
000085F4  2F3C 5049 4354           move.l     -[A7], 0x50494354 /* 'PICT' */
000085FA  3F2C 000E                move.w     -[A7], [A4 + 0xE]
000085FE  4EBA 8F94                jsr        [PC - 0x706C /* 00001594 */]
00008602  289F                     move.l     [A4], [A7]+
00008604  6618                     bne        +0x1A /* 0000861E */
00008606  598F                     subq.l     A7, 4
00008608  558F                     subq.l     A7, 2
0000860A  4EBA 8F84                jsr        [PC - 0x707C /* 00001590 */]
0000860E  2F3C 5049 4354           move.l     -[A7], 0x50494354 /* 'PICT' */
00008614  3F2C 000E                move.w     -[A7], [A4 + 0xE]
00008618  4EBA 8F7A                jsr        [PC - 0x7086 /* 00001594 */]
0000861C  289F                     move.l     [A4], [A7]+
label0000861E:
0000861E  4A94                     tst.l      [A4]
00008620  661E                     bne        +0x20 /* 00008640 */
00008622  598F                     subq.l     A7, 4
00008624  558F                     subq.l     A7, 2
00008626  3EB8 0900                move.w     [A7], [0x00000900 /* CurApRefNum */]
0000862A  2F3C 5049 4354           move.l     -[A7], 0x50494354 /* 'PICT' */
00008630  3F2C 000E                move.w     -[A7], [A4 + 0xE]
00008634  4EBA 8F5E                jsr        [PC - 0x70A2 /* 00001594 */]
00008638  289F                     move.l     [A4], [A7]+
0000863A  6004                     bra        +0x6 /* 00008640 */
label0000863C:
0000863C  2F14                     move.l     -[A7], [A4]
0000863E  A9A2                     syscall    LoadResource
label00008640:
00008640  2F14                     move.l     -[A7], [A4]
00008642  486C 0004                pea.l      [A4 + 0x4]
00008646  A8F6                     syscall    DrawPicture
00008648  6000 0096                bra        +0x98 /* 000086E0 */
label0000864C:
0000864C  558F                     subq.l     A7, 2
0000864E  2F14                     move.l     -[A7], [A4]
00008650  A9A4                     syscall    HomeResFile
00008652  70FF                     moveq.l    D0, 0xFFFFFFFF
00008654  B05F                     cmp.w      D0, [A7]+
00008656  6654                     bne        +0x56 /* 000086AC */
00008658  598F                     subq.l     A7, 4
0000865A  206E 000C                movea.l    A0, [A6 + 0xC]
0000865E  2050                     movea.l    A0, [A0]
00008660  3F28 0110                move.w     -[A7], [A0 + 0x110]
00008664  2F3C 4943 4F4E           move.l     -[A7], 0x49434F4E /* 'ICON' */
0000866A  3F2C 000E                move.w     -[A7], [A4 + 0xE]
0000866E  4EBA 8F24                jsr        [PC - 0x70DC /* 00001594 */]
00008672  289F                     move.l     [A4], [A7]+
00008674  6618                     bne        +0x1A /* 0000868E */
00008676  598F                     subq.l     A7, 4
00008678  558F                     subq.l     A7, 2
0000867A  4EBA 8F14                jsr        [PC - 0x70EC /* 00001590 */]
0000867E  2F3C 4943 4F4E           move.l     -[A7], 0x49434F4E /* 'ICON' */
00008684  3F2C 000E                move.w     -[A7], [A4 + 0xE]
00008688  4EBA 8F0A                jsr        [PC - 0x70F6 /* 00001594 */]
0000868C  289F                     move.l     [A4], [A7]+
label0000868E:
0000868E  4A94                     tst.l      [A4]
00008690  661E                     bne        +0x20 /* 000086B0 */
00008692  598F                     subq.l     A7, 4
00008694  558F                     subq.l     A7, 2
00008696  3EB8 0900                move.w     [A7], [0x00000900 /* CurApRefNum */]
0000869A  2F3C 4943 4F4E           move.l     -[A7], 0x49434F4E /* 'ICON' */
000086A0  3F2C 000E                move.w     -[A7], [A4 + 0xE]
000086A4  4EBA 8EEE                jsr        [PC - 0x7112 /* 00001594 */]
000086A8  289F                     move.l     [A4], [A7]+
000086AA  6004                     bra        +0x6 /* 000086B0 */
label000086AC:
000086AC  2F14                     move.l     -[A7], [A4]
000086AE  A9A2                     syscall    LoadResource
label000086B0:
000086B0  486C 0004                pea.l      [A4 + 0x4]
000086B4  2F14                     move.l     -[A7], [A4]
000086B6  A94B                     syscall    PlotIcon
000086B8  6026                     bra        +0x28 /* 000086E0 */
label000086BA:
000086BA  598F                     subq.l     A7, 4
000086BC  4EBA 8ECE                jsr        [PC - 0x7132 /* 0000158C */]
000086C0  265F                     movea.l    A3, [A7]+
000086C2  486B 005E                pea.l      [A3 + 0x5E]
000086C6  A89D                     syscall    PenPat
000086C8  7009                     moveq.l    D0, 0x09
000086CA  3F00                     move.w     -[A7], D0
000086CC  A89C                     syscall    PenMode
000086CE  486C 0004                pea.l      [A4 + 0x4]
000086D2  A8A2                     syscall    PaintRect
000086D4  486B 006E                pea.l      [A3 + 0x6E]
000086D8  A89D                     syscall    PenPat
000086DA  486C 0004                pea.l      [A4 + 0x4]
000086DE  A8A1                     syscall    FrameRect
label000086E0:
000086E0  3007                     move.w     D0, D7
000086E2  5247                     addq.w     D7, 1
label000086E4:
000086E4  BC47                     cmp.w      D6, D7
000086E6  6C00 FDFE                bge        -0x200 /* 000084E6 */
000086EA  206E 0008                movea.l    A0, [A6 + 0x8]
000086EE  2068 009C                movea.l    A0, [A0 + 0x9C]
000086F2  1004                     move.b     D0, D4
000086F4  A06A                     syscall    HSetState
000086F6  4CEE 18F0 FFD0           movem.l    D4,D5,D6,D7,A3,A4, [A6 - 0x30]
000086FC  4E5E                     unlink     A6
000086FE  4E75                     rts
fn00008700:
00008700  4E56 FFF8                link       A6, -0x0008
00008704  48E7 0018                movem.l    -[A7], A3,A4
00008708  266E 0008                movea.l    A3, [A6 + 0x8]
0000870C  2053                     movea.l    A0, [A3]
0000870E  2868 01C4                movea.l    A4, [A0 + 0x1C4]
00008712  486E FFFC                pea.l      [A6 - 0x4]
00008716  7001                     moveq.l    D0, 0x01
00008718  3F00                     move.w     -[A7], D0
0000871A  7200                     moveq.l    D1, 0x00
0000871C  3F01                     move.w     -[A7], D1
0000871E  A880                     syscall    SetPt
00008720  200C                     move.l     D0, A4
00008722  6654                     bne        +0x56 /* 00008778 */
00008724  203C 0000 0120           move.l     D0, 0x120
0000872A  A322                     syscall    NewHandleClear, flags=3
0000872C  2848                     movea.l    A4, A0
0000872E  598F                     subq.l     A7, 4
00008730  3F3C 0599                move.w     -[A7], 0x599
00008734  2F0C                     move.l     -[A7], A4
00008736  2F0B                     move.l     -[A7], A3
00008738  2F2E FFFC                move.l     -[A7], [A6 - 0x4]
0000873C  4EBA 8E5A                jsr        [PC - 0x71A6 /* 00001598 */]
00008740  2D5F FFF8                move.l     [A6 - 0x8], [A7]+
00008744  598F                     subq.l     A7, 4
00008746  3F3C 0599                move.w     -[A7], 0x599
0000874A  2F2E FFF8                move.l     -[A7], [A6 - 0x8]
0000874E  A9BE                     syscall    GetNewControl
00008750  2054                     movea.l    A0, [A4]
00008752  215F 0118                move.l     [A0 + 0x118], [A7]+
00008756  598F                     subq.l     A7, 4
00008758  3F3C 059A                move.w     -[A7], 0x59A
0000875C  2F2E FFF8                move.l     -[A7], [A6 - 0x8]
00008760  A9BE                     syscall    GetNewControl
00008762  2054                     movea.l    A0, [A4]
00008764  215F 011C                move.l     [A0 + 0x11C], [A7]+
00008768  2054                     movea.l    A0, [A4]
0000876A  117C 0001 0109           move.b     [A0 + 0x109], 0x1
00008770  2053                     movea.l    A0, [A3]
00008772  214C 01C4                move.l     [A0 + 0x1C4], A4
00008776  603A                     bra        +0x3C /* 000087B2 */
label00008778:
00008778  2054                     movea.l    A0, [A4]
0000877A  4A28 0109                tst.b      [A0 + 0x109]
0000877E  6632                     bne        +0x34 /* 000087B2 */
00008780  117C 0001 0109           move.b     [A0 + 0x109], 0x1
00008786  2054                     movea.l    A0, [A4]
00008788  2F28 0104                move.l     -[A7], [A0 + 0x104]
0000878C  7001                     moveq.l    D0, 0x01
0000878E  1F00                     move.b     -[A7], D0
00008790  A908                     syscall    ShowHide
00008792  2054                     movea.l    A0, [A4]
00008794  2F28 0104                move.l     -[A7], [A0 + 0x104]
00008798  A920                     syscall    BringToFront
0000879A  2054                     movea.l    A0, [A4]
0000879C  2F28 0104                move.l     -[A7], [A0 + 0x104]
000087A0  7001                     moveq.l    D0, 0x01
000087A2  1F00                     move.b     -[A7], D0
000087A4  A91C                     syscall    HiliteWindow
000087A6  2054                     movea.l    A0, [A4]
000087A8  2F28 0114                move.l     -[A7], [A0 + 0x114]
000087AC  7001                     moveq.l    D0, 0x01
000087AE  1F00                     move.b     -[A7], D0
000087B0  A91C                     syscall    HiliteWindow
label000087B2:
000087B2  4CEE 1800 FFF0           movem.l    A3,A4, [A6 - 0x10]
000087B8  4E5E                     unlink     A6
000087BA  4E75                     rts
fn000087BC:
000087BC  4E56 FFF8                link       A6, -0x0008
000087C0  48E7 0018                movem.l    -[A7], A3,A4
000087C4  266E 0008                movea.l    A3, [A6 + 0x8]
000087C8  2053                     movea.l    A0, [A3]
000087CA  2868 01C4                movea.l    A4, [A0 + 0x1C4]
000087CE  486E FFF8                pea.l      [A6 - 0x8]
000087D2  A874                     syscall    GetPort
000087D4  2054                     movea.l    A0, [A4]
000087D6  2F28 0104                move.l     -[A7], [A0 + 0x104]
000087DA  A873                     syscall    SetPort
000087DC  486E 000C                pea.l      [A6 + 0xC]
000087E0  A871                     syscall    GlobalToLocal
000087E2  2F2E FFF8                move.l     -[A7], [A6 - 0x8]
000087E6  A873                     syscall    SetPort
000087E8  200C                     move.l     D0, A4
000087EA  6764                     beq        +0x66 /* 00008850 */
000087EC  2054                     movea.l    A0, [A4]
000087EE  4A28 0109                tst.b      [A0 + 0x109]
000087F2  675C                     beq        +0x5E /* 00008850 */
000087F4  558F                     subq.l     A7, 2
000087F6  2F2E 000C                move.l     -[A7], [A6 + 0xC]
000087FA  2054                     movea.l    A0, [A4]
000087FC  2F28 0104                move.l     -[A7], [A0 + 0x104]
00008800  486E FFFC                pea.l      [A6 - 0x4]
00008804  A96C                     syscall    FindControl
00008806  700A                     moveq.l    D0, 0x0A
00008808  B05F                     cmp.w      D0, [A7]+
0000880A  6644                     bne        +0x46 /* 00008850 */
0000880C  558F                     subq.l     A7, 2
0000880E  2F2E FFFC                move.l     -[A7], [A6 - 0x4]
00008812  2F2E 000C                move.l     -[A7], [A6 + 0xC]
00008816  7000                     moveq.l    D0, 0x00
00008818  2F00                     move.l     -[A7], D0
0000881A  A968                     syscall    TrackControl
0000881C  700A                     moveq.l    D0, 0x0A
0000881E  B05F                     cmp.w      D0, [A7]+
00008820  662E                     bne        +0x30 /* 00008850 */
00008822  2054                     movea.l    A0, [A4]
00008824  202E FFFC                move.l     D0, [A6 - 0x4]
00008828  B0A8 0118                cmp.l      D0, [A0 + 0x118]
0000882C  660E                     bne        +0x10 /* 0000883C */
0000882E  7000                     moveq.l    D0, 0x00
00008830  2F00                     move.l     -[A7], D0
00008832  2F0B                     move.l     -[A7], A3
00008834  4EBA C12E                jsr        [PC - 0x3ED2 /* 00004964 */]
00008838  504F                     addq.w     A7, 8
0000883A  6014                     bra        +0x16 /* 00008850 */
label0000883C:
0000883C  2054                     movea.l    A0, [A4]
0000883E  202E FFFC                move.l     D0, [A6 - 0x4]
00008842  B0A8 011C                cmp.l      D0, [A0 + 0x11C]
00008846  6608                     bne        +0xA /* 00008850 */
00008848  2F0B                     move.l     -[A7], A3
0000884A  4EBA C026                jsr        [PC - 0x3FDA /* 00004872 */]
0000884E  584F                     addq.w     A7, 4
label00008850:
00008850  4CEE 1800 FFF0           movem.l    A3,A4, [A6 - 0x10]
00008856  4E5E                     unlink     A6
00008858  4E75                     rts
fn0000885A:
0000885A  4E56 FEF4                link       A6, -0x010C
0000885E  48E7 0018                movem.l    -[A7], A3,A4
00008862  47EE FEF8                lea.l      A3, [A6 - 0x108]
00008866  206E 0008                movea.l    A0, [A6 + 0x8]
0000886A  2050                     movea.l    A0, [A0]
0000886C  2868 01C4                movea.l    A4, [A0 + 0x1C4]
00008870  200C                     move.l     D0, A4
00008872  676C                     beq        +0x6E /* 000088E0 */
00008874  2054                     movea.l    A0, [A4]
00008876  4A28 0109                tst.b      [A0 + 0x109]
0000887A  6764                     beq        +0x66 /* 000088E0 */
0000887C  486E FEF4                pea.l      [A6 - 0x10C]
00008880  A874                     syscall    GetPort
00008882  2054                     movea.l    A0, [A4]
00008884  2F28 0104                move.l     -[A7], [A0 + 0x104]
00008888  A873                     syscall    SetPort
0000888A  7009                     moveq.l    D0, 0x09
0000888C  3F00                     move.w     -[A7], D0
0000888E  A88A                     syscall    TextSize
00008890  2054                     movea.l    A0, [A4]
00008892  2068 0104                movea.l    A0, [A0 + 0x104]
00008896  43EE FFF8                lea.l      A1, [A6 - 0x8]
0000889A  41E8 0010                lea.l      A0, [A0 + 0x10]
0000889E  22D8                     move.l     [A1]+, [A0]+
000088A0  22D8                     move.l     [A1]+, [A0]+
000088A2  486E FFF8                pea.l      [A6 - 0x8]
000088A6  700A                     moveq.l    D0, 0x0A
000088A8  3F00                     move.w     -[A7], D0
000088AA  7205                     moveq.l    D1, 0x05
000088AC  3F01                     move.w     -[A7], D1
000088AE  A8A9                     syscall    InsetRect
000088B0  7001                     moveq.l    D0, 0x01
000088B2  3F00                     move.w     -[A7], D0
000088B4  487A 0034                pea.l      [PC + 0x34 /* 000088EA, value 0x18444954, pstring "DITL Renumbering Strings" */]
000088B8  2F0B                     move.l     -[A7], A3
000088BA  4EBA 8CE0                jsr        [PC - 0x7320 /* 0000159C */]
000088BE  486B 0001                pea.l      [A3 + 0x1]
000088C2  7000                     moveq.l    D0, 0x00
000088C4  1013                     move.b     D0, [A3]
000088C6  2F00                     move.l     -[A7], D0
000088C8  486E FFF8                pea.l      [A6 - 0x8]
000088CC  7000                     moveq.l    D0, 0x00
000088CE  3F00                     move.w     -[A7], D0
000088D0  A9CE                     syscall    TETextBox/TextBox
000088D2  2054                     movea.l    A0, [A4]
000088D4  2F28 0104                move.l     -[A7], [A0 + 0x104]
000088D8  A969                     syscall    DrawControls
000088DA  2F2E FEF4                move.l     -[A7], [A6 - 0x10C]
000088DE  A873                     syscall    SetPort
label000088E0:
000088E0  4CEE 1800 FEEC           movem.l    A3,A4, [A6 - 0x114]
000088E6  4E5E                     unlink     A6
000088E8  4E75                     rts
000088EA  1844                     movea.b    A4, D4
000088EC  4954                     chk.w      D4, [A4]
000088EE  4C20 5265                mulu.l     D5, -[A0]
000088F2  6E75                     bgt        +0x77 /* 00008969 */
000088F4  6D62                     blt        +0x64 /* 00008958 */
000088F6  6572                     bcs        +0x74 /* 0000896A */
000088F8  696E                     bvs        +0x70 /* 00008968 */
000088FA  6720                     beq        +0x22 /* 0000891C */
000088FC  5374 7269                subq.w     [A4 + D7.w * 2 + 0x69], 1
00008900  6E67                     bgt        +0x69 /* 00008969 */
00008902  7300                     moveq.l    D1, 0x00
fn00008904:
00008904  4E56 0000                link       A6, 0
00008908  2F0C                     move.l     -[A7], A4
0000890A  206E 0008                movea.l    A0, [A6 + 0x8]
0000890E  2050                     movea.l    A0, [A0]
00008910  2868 01C4                movea.l    A4, [A0 + 0x1C4]
00008914  200C                     move.l     D0, A4
00008916  6724                     beq        +0x26 /* 0000893C */
00008918  2054                     movea.l    A0, [A4]
0000891A  4A28 0109                tst.b      [A0 + 0x109]
// begin alternate branch 0000891C-0000891E
label0000891C:
0000891C  0109                     btst       A1, D0
// end alternate branch 0000891C-0000891E
label0000891C: // (misaligned)
0000891E  671C                     beq        +0x1E /* 0000893C */
00008920  4228 0109                clr.b      [A0 + 0x109]
00008924  2054                     movea.l    A0, [A4]
00008926  2F28 0104                move.l     -[A7], [A0 + 0x104]
0000892A  7000                     moveq.l    D0, 0x00
0000892C  1F00                     move.b     -[A7], D0
0000892E  A908                     syscall    ShowHide
00008930  2054                     movea.l    A0, [A4]
00008932  2F28 0114                move.l     -[A7], [A0 + 0x114]
00008936  7001                     moveq.l    D0, 0x01
00008938  1F00                     move.b     -[A7], D0
0000893A  A91C                     syscall    HiliteWindow
label0000893C:
0000893C  286E FFFC                movea.l    A4, [A6 - 0x4]
00008940  4E5E                     unlink     A6
00008942  4E75                     rts
fn00008944:
00008944  4E56 0000                link       A6, 0
00008948  48E7 0018                movem.l    -[A7], A3,A4
0000894C  266E 0008                movea.l    A3, [A6 + 0x8]
00008950  2053                     movea.l    A0, [A3]
00008952  2868 01C4                movea.l    A4, [A0 + 0x1C4]
00008956  200C                     move.l     D0, A4
label00008958:
00008958  671E                     beq        +0x20 /* 00008978 */
0000895A  2054                     movea.l    A0, [A4]
0000895C  2F28 0104                move.l     -[A7], [A0 + 0x104]
00008960  A92D                     syscall    CloseWindow
00008962  2054                     movea.l    A0, [A4]
00008964  2F28 0104                move.l     -[A7], [A0 + 0x104]
label00008968:
00008968  4EBA 8C36                jsr        [PC - 0x73CA /* 000015A0 */]
// begin alternate branch 0000896A-0000896E
label0000896A:
0000896A  8C36 204C                or.b       D6, [A6 + D2.w + 0x4C]
// end alternate branch 0000896A-0000896E
label0000896A: // (misaligned)
0000896C  204C                     movea.l    A0, A4
0000896E  A023                     syscall    DisposHandle/DisposeHandle
00008970  2053                     movea.l    A0, [A3]
00008972  7000                     moveq.l    D0, 0x00
00008974  2140 01C4                move.l     [A0 + 0x1C4], D0
label00008978:
00008978  4CEE 1800 FFF8           movem.l    A3,A4, [A6 - 0x8]
0000897E  4E5E                     unlink     A6
00008980  4E75                     rts
fn00008982:
00008982  4E56 0000                link       A6, 0
00008986  48E7 0178                movem.l    -[A7], D7,A1,A2,A3,A4
0000898A  206E 0008                movea.l    A0, [A6 + 0x8]
0000898E  2850                     movea.l    A4, [A0]
00008990  266E 0014                movea.l    A3, [A6 + 0x14]
00008994  7002                     moveq.l    D0, 0x02
00008996  2680                     move.l     [A3], D0
00008998  246E 0010                movea.l    A2, [A6 + 0x10]
0000899C  4292                     clr.l      [A2]
0000899E  3E2E 000E                move.w     D7, [A6 + 0xE]
000089A2  601C                     bra        +0x1E /* 000089C0 */
label000089A4:
000089A4  2013                     move.l     D0, [A3]
000089A6  D192                     add.l      [A2], D0
000089A8  2012                     move.l     D0, [A2]
000089AA  D08C                     add.l      D0, A4
000089AC  2240                     movea.l    A1, D0
000089AE  700E                     moveq.l    D0, 0x0E
000089B0  D029 000D                add.b      D0, [A1 + 0xD]
000089B4  2680                     move.l     [A3], D0
000089B6  0800 0000                btst.b     D0, 0x0
000089BA  6702                     beq        +0x4 /* 000089BE */
000089BC  5293                     addq.l     [A3], 1
label000089BE:
000089BE  5347                     subq.w     D7, 1
label000089C0:
000089C0  66E2                     bne        -0x1C /* 000089A4 */
000089C2  4CDF 1E80                movem.l    D7,A1,A2,A3,A4, [A7]+
000089C6  4E5E                     unlink     A6
000089C8  4E75                     rts
000089CA  9147 6574 4449 544C 4... dc.b       "GetDITLItemOffset"
fn000089DE:
000089DE  4E56 0000                link       A6, 0
000089E2  2D6E 0010 000C           move.l     [A6 + 0xC], [A6 + 0x10]
000089E8  04AE 0006 0006 000C      subi.l     [A6 + 0xC], 0x60006
000089F0  04AE 0001 0001 0010      subi.l     [A6 + 0x10], 0x10001
000089F8  206E 0008                movea.l    A0, [A6 + 0x8]
000089FC  43EE 000C                lea.l      A1, [A6 + 0xC]
00008A00  20D9                     move.l     [A0]+, [A1]+
00008A02  2091                     move.l     [A0], [A1]
00008A04  4E5E                     unlink     A6
00008A06  4E75                     rts
00008A08  8B47 6574 4772 6F77 5... dc.b       "GetGrowRect"
fn00008A16:
00008A16  206F 0004                movea.l    A0, [A7 + 0x4]
00008A1A  226F 0008                movea.l    A1, [A7 + 0x8]
00008A1E  202F 000C                move.l     D0, [A7 + 0xC]
00008A22  6F16                     ble        +0x18 /* 00008A3A */
00008A24  B3C8                     cmpa.l     A1, A0
00008A26  630C                     bls        +0xE /* 00008A34 */
00008A28  D1C0                     add.l      A0, D0
00008A2A  D3C0                     add.l      A1, D0
label00008A2C:
00008A2C  1320                     move.b     -[A1], -[A0]
00008A2E  5380                     subq.l     D0, 1
00008A30  66FA                     bne        -0x4 /* 00008A2C */
00008A32  4E75                     rts
label00008A34:
00008A34  12D8                     move.b     [A1]+, [A0]+
00008A36  5380                     subq.l     D0, 1
00008A38  66FA                     bne        -0x4 /* 00008A34 */
label00008A3A:
00008A3A  4E75                     rts
00008A3C  8942 6C6F 636B 436F 7... dc.b       "BlockCopy"
fn00008A48:
00008A48  4E56 0000                link       A6, 0
00008A4C  48E7 3830                movem.l    -[A7], D2,D3,D4,A2,A3
00008A50  246E 0008                movea.l    A2, [A6 + 0x8]
00008A54  266A 009C                movea.l    A3, [A2 + 0x9C]
00008A58  362E 000E                move.w     D3, [A6 + 0xE]
00008A5C  5343                     subq.w     D3, 1
00008A5E  7800                     moveq.l    D4, 0x00
00008A60  7400                     moveq.l    D2, 0x00
00008A62  2453                     movea.l    A2, [A3]
00008A64  321A                     move.w     D1, [A2]+
00008A66  600E                     bra        +0x10 /* 00008A76 */
label00008A68:
00008A68  1432 400D                move.b     D2, [A2 + D4.w + 0xD]
00008A6C  D842                     add.w      D4, D2
00008A6E  0644 000F                addi.w     D4, 0xF
00008A72  0244 FFFE                andi.w     D4, 0xFFFE
label00008A76:
00008A76  51CB FFF0                dbf        D3, -0x12 /* 00008A68 */
00008A7A  D4C4                     add.w      A2, D4
00008A7C  41EA 0004                lea.l      A0, [A2 + 0x4]
00008A80  226E 0018                movea.l    A1, [A6 + 0x18]
00008A84  22D8                     move.l     [A1]+, [A0]+
00008A86  22D8                     move.l     [A1]+, [A0]+
00008A88  206E 0010                movea.l    A0, [A6 + 0x10]
00008A8C  7000                     moveq.l    D0, 0x00
00008A8E  102A 000C                move.b     D0, [A2 + 0xC]
00008A92  3080                     move.w     [A0], D0
00008A94  2012                     move.l     D0, [A2]
00008A96  206E 0014                movea.l    A0, [A6 + 0x14]
00008A9A  2080                     move.l     [A0], D0
00008A9C  4CDF 0C1C                movem.l    D2,D3,D4,A2,A3, [A7]+
00008AA0  4E5E                     unlink     A6
00008AA2  4E75                     rts
00008AA4  8B47 6574 4449 544C 4... dc.b       "GetDITLItem"
fn00008AB2:
00008AB2  202F 0004                move.l     D0, [A7 + 0x4]
00008AB6  0280 0000 0001           andi.l     D0, 0x1
00008ABC  4E75                     rts
00008ABE  8569 734F 6464 0000      dc.b       "isOdd"
fn00008AC6:
00008AC6  4E56 0000                link       A6, 0
00008ACA  206E 0008                movea.l    A0, [A6 + 0x8]
00008ACE  2250                     movea.l    A1, [A0]
00008AD0  206E 000C                movea.l    A0, [A6 + 0xC]
00008AD4  2010                     move.l     D0, [A0]
00008AD6  43F1 0800                lea.l      A1, [A1 + D0]
00008ADA  7200                     moveq.l    D1, 0x00
00008ADC  1229 000D                move.b     D1, [A1 + 0xD]
00008AE0  0641 000F                addi.w     D1, 0xF
00008AE4  0241 FFFE                andi.w     D1, 0xFFFE
00008AE8  206E 000C                movea.l    A0, [A6 + 0xC]
00008AEC  D390                     add.l      [A0], D1
00008AEE  2009                     move.l     D0, A1
00008AF0  4E5E                     unlink     A6
00008AF2  4E75                     rts
00008AF4  884E 6578 7449 7465 6... dc.b       "NextItem"
fn00008B00:
00008B00  4CEF 0300 0004           movem.l    A0,A1, [A7 + 0x4]
00008B06  222F 000C                move.l     D1, [A7 + 0xC]
00008B0A  B000                     cmp.b      D0, D0
00008B0C  6004                     bra        +0x6 /* 00008B12 */
label00008B0E:
00008B0E  4841                     swap.w     D1
label00008B10:
00008B10  B109                     cmpm.b     [A0]+, [A1]+
label00008B12:
00008B12  56C9 FFFC                dbne       D1, -0x6 /* 00008B10 */
00008B16  660A                     bne        +0xC /* 00008B22 */
00008B18  4841                     swap.w     D1
00008B1A  51C9 FFF2                dbf        D1, -0x10 /* 00008B0E */
00008B1E  7000                     moveq.l    D0, 0x00
00008B20  4E75                     rts
label00008B22:
00008B22  7200                     moveq.l    D1, 0x00
00008B24  1221                     move.b     D1, -[A1]
00008B26  7000                     moveq.l    D0, 0x00
00008B28  1020                     move.b     D0, -[A0]
00008B2A  9081                     sub.l      D0, D1
00008B2C  4E75                     rts
00008B2E  866D 656D 636D 7000 0000 dc.b       "memcmp"
fn00008B38:
00008B38  4CEF 0300 0004           movem.l    A0,A1, [A7 + 0x4]
00008B3E  2008                     move.l     D0, A0
00008B40  2F02                     move.l     -[A7], D2
00008B42  222F 0010                move.l     D1, [A7 + 0x10]
00008B46  0C81 0000 0011           cmpi.l     D1, 0x11
00008B4C  6D2E                     blt        +0x30 /* 00008B7C */
00008B4E  2409                     move.l     D2, A1
00008B50  B102                     xor.b      D2, D0
00008B52  E20A                     lsr        D2.b, 1
00008B54  6526                     bcs        +0x28 /* 00008B7C */
00008B56  0800 0000                btst.b     D0, 0x0
00008B5A  6704                     beq        +0x6 /* 00008B60 */
00008B5C  10D9                     move.b     [A0]+, [A1]+
00008B5E  5381                     subq.l     D1, 1
label00008B60:
00008B60  2401                     move.l     D2, D1
00008B62  E88A                     lsr        D2, 4
00008B64  5382                     subq.l     D2, 1
label00008B66:
00008B66  20D9                     move.l     [A0]+, [A1]+
00008B68  20D9                     move.l     [A0]+, [A1]+
00008B6A  20D9                     move.l     [A0]+, [A1]+
00008B6C  20D9                     move.l     [A0]+, [A1]+
00008B6E  5382                     subq.l     D2, 1
00008B70  64F4                     bcc        -0xA /* 00008B66 */
00008B72  0281 0000 000F           andi.l     D1, 0xF
00008B78  6002                     bra        +0x4 /* 00008B7C */
label00008B7A:
00008B7A  10D9                     move.b     [A0]+, [A1]+
label00008B7C:
00008B7C  5381                     subq.l     D1, 1
00008B7E  64FA                     bcc        -0x4 /* 00008B7A */
00008B80  241F                     move.l     D2, [A7]+
00008B82  4E75                     rts
00008B84  866D 656D 6370 7900 0000 dc.b       "memcpy"
fn00008B8E:
00008B8E  206F 0004                movea.l    A0, [A7 + 0x4]
00008B92  2248                     movea.l    A1, A0
label00008B94:
00008B94  4A18                     tst.b      [A0]+
00008B96  66FC                     bne        -0x2 /* 00008B94 */
00008B98  91C9                     sub.l      A0, A1
00008B9A  2008                     move.l     D0, A0
00008B9C  5380                     subq.l     D0, 1
00008B9E  4E75                     rts
00008BA0  8673 7472 6C65 6E00 0000 dc.b       "strlen"
00008BAA  222F 0004                move.l     D1, [A7 + 0x4]
00008BAE  202F 0008                move.l     D0, [A7 + 0x8]
fn00008BB2:
00008BB2  41FA 000A                lea.l      A0, [PC + 0xA /* 00008BBE, value 0x60064C41 */]
00008BB6  327C 0002                movea.w    A1, 0x2
00008BBA  4EF0 92FE                jmp        [A0 + A1.w * 2 - 0x2]
00008BBE  6006                     bra        +0x8 /* 00008BC6 */
00008BC0  4C41 0801                divs.l     D1:D0, D1
00008BC4  4E75                     rts
label00008BC6:
00008BC6  4EBA 0024                jsr        [PC + 0x24 /* 00008BEC */]
00008BCA  2001                     move.l     D0, D1
00008BCC  4E75                     rts
00008BCE  222F 0004                move.l     D1, [A7 + 0x4]
00008BD2  202F 0008                move.l     D0, [A7 + 0x8]
00008BD6  41FA 000A                lea.l      A0, [PC + 0xA /* 00008BE2, value 0x60084C41 */]
00008BDA  327C 0002                movea.w    A1, 0x2
00008BDE  4EF0 92FE                jmp        [A0 + A1.w * 2 - 0x2]
00008BE2  6008                     bra        +0xA /* 00008BEC */
00008BE4  4C41 0801                divs.l     D1:D0, D1
00008BE8  C340                     exg        D1, D0
00008BEA  4E75                     rts
fn00008BEC:
00008BEC  4A80                     tst.l      D0
00008BEE  6B14                     bmi        +0x16 /* 00008C04 */
00008BF0  4A81                     tst.l      D1
00008BF2  6B06                     bmi        +0x8 /* 00008BFA */
00008BF4  4EBA 0046                jsr        [PC + 0x46 /* 00008C3C */]
00008BF8  4E75                     rts
label00008BFA:
00008BFA  4481                     neg.l      D1
00008BFC  4EBA 003E                jsr        [PC + 0x3E /* 00008C3C */]
00008C00  4481                     neg.l      D1
00008C02  4E75                     rts
label00008C04:
00008C04  4480                     neg.l      D0
00008C06  4A81                     tst.l      D1
00008C08  6B0A                     bmi        +0xC /* 00008C14 */
00008C0A  4EBA 0030                jsr        [PC + 0x30 /* 00008C3C */]
00008C0E  4480                     neg.l      D0
00008C10  4481                     neg.l      D1
00008C12  4E75                     rts
label00008C14:
00008C14  4481                     neg.l      D1
00008C16  4EBA 0024                jsr        [PC + 0x24 /* 00008C3C */]
00008C1A  4480                     neg.l      D0
00008C1C  4E75                     rts
00008C1E  222F 0004                move.l     D1, [A7 + 0x4]
00008C22  202F 0008                move.l     D0, [A7 + 0x8]
00008C26  41FA 000A                lea.l      A0, [PC + 0xA /* 00008C32, value 0x60084C41 */]
00008C2A  327C 0002                movea.w    A1, 0x2
00008C2E  4EF0 92FE                jmp        [A0 + A1.w * 2 - 0x2]
00008C32  6008                     bra        +0xA /* 00008C3C */
00008C34  4C41 0001                divu.l     D1:D0, D1
00008C38  C340                     exg        D1, D0
00008C3A  4E75                     rts
fn00008C3C:
00008C3C  3F01                     move.w     -[A7], D1
00008C3E  4841                     swap.w     D1
00008C40  4A41                     tst.w      D1
00008C42  661C                     bne        +0x1E /* 00008C60 */
00008C44  2200                     move.l     D1, D0
00008C46  4241                     clr.w      D1
00008C48  4841                     swap.w     D1
00008C4A  670A                     beq        +0xC /* 00008C56 */
00008C4C  82D7                     divu.w     D1, [A7]
00008C4E  4841                     swap.w     D1
00008C50  4840                     swap.w     D0
00008C52  3001                     move.w     D0, D1
00008C54  4840                     swap.w     D0
label00008C56:
00008C56  80DF                     divu.w     D0, [A7]+
00008C58  3200                     move.w     D1, D0
00008C5A  4240                     clr.w      D0
00008C5C  4840                     swap.w     D0
00008C5E  4E75                     rts
label00008C60:
00008C60  4841                     swap.w     D1
00008C62  3E82                     move.w     [A7], D2
00008C64  2F03                     move.l     -[A7], D3
00008C66  3400                     move.w     D2, D0
00008C68  2601                     move.l     D3, D1
00008C6A  7201                     moveq.l    D1, 0x01
00008C6C  4240                     clr.w      D0
00008C6E  4840                     swap.w     D0
00008C70  660C                     bne        +0xE /* 00008C7E */
00008C72  4840                     swap.w     D0
00008C74  3002                     move.w     D0, D2
00008C76  7200                     moveq.l    D1, 0x00
00008C78  6016                     bra        +0x18 /* 00008C90 */
label00008C7A:
00008C7A  D241                     add.w      D1, D1
00008C7C  6512                     bcs        +0x14 /* 00008C90 */
label00008C7E:
00008C7E  D442                     add.w      D2, D2
00008C80  D180                     addx.l     D0, D0
00008C82  B083                     cmp.l      D0, D3
00008C84  65F4                     bcs        -0xA /* 00008C7A */
00008C86  9083                     sub.l      D0, D3
00008C88  D241                     add.w      D1, D1
00008C8A  08C1 0000                bset.b     D1, 0x0
00008C8E  64EE                     bcc        -0x10 /* 00008C7E */
label00008C90:
00008C90  261F                     move.l     D3, [A7]+
00008C92  341F                     move.w     D2, [A7]+
00008C94  4E75                     rts
fn00008C96:
00008C96  202F 0004                move.l     D0, [A7 + 0x4]
00008C9A  6712                     beq        +0x14 /* 00008CAE */
00008C9C  2040                     movea.l    A0, D0
00008C9E  4241                     clr.w      D1
00008CA0  1210                     move.b     D1, [A0]
00008CA2  6004                     bra        +0x6 /* 00008CA8 */
label00008CA4:
00008CA4  10E8 0001                move.b     [A0]+, [A0 + 0x1]
label00008CA8:
00008CA8  51C9 FFFA                dbf        D1, -0x8 /* 00008CA4 */
00008CAC  4210                     clr.b      [A0]
label00008CAE:
00008CAE  4E75                     rts
00008CB0  8670 3263 7374 7200 0000 dc.b       "p2cstr"
fn00008CBA:
00008CBA  202F 0004                move.l     D0, [A7 + 0x4]
00008CBE  671C                     beq        +0x1E /* 00008CDC */
00008CC0  2040                     movea.l    A0, D0
00008CC2  2240                     movea.l    A1, D0
00008CC4  343C 00FF                move.w     D2, 0xFF
label00008CC8:
00008CC8  1210                     move.b     D1, [A0]
00008CCA  10C0                     move.b     [A0]+, D0
00008CCC  1001                     move.b     D0, D1
00008CCE  57CA FFF8                dbeq       D2, -0xA /* 00008CC8 */
00008CD2  2208                     move.l     D1, A0
00008CD4  2009                     move.l     D0, A1
00008CD6  9280                     sub.l      D1, D0
00008CD8  5301                     subq.b     D1, 1
00008CDA  1281                     move.b     [A1], D1
label00008CDC:
00008CDC  4E75                     rts
00008CDE  8663 3270 7374 7200 0000 dc.b       "c2pstr"
fn00008CE8:
00008CE8  225F                     movea.l    A1, [A7]+
00008CEA  205F                     movea.l    A0, [A7]+
00008CEC  A025                     syscall    GetHandleSize
00008CEE  2E80                     move.l     [A7], D0
00008CF0  6A02                     bpl        +0x4 /* 00008CF4 */
00008CF2  4297                     clr.l      [A7]
label00008CF4:
00008CF4  4ED1                     jmp        [A1]
fn00008CF6:
00008CF6  206F 0004                movea.l    A0, [A7 + 0x4]
00008CFA  2050                     movea.l    A0, [A0]
00008CFC  A9E1                     syscall    HandToHand
00008CFE  226F 0004                movea.l    A1, [A7 + 0x4]
00008D02  2288                     move.l     [A1], A0
00008D04  3F40 0008                move.w     [A7 + 0x8], D0
00008D08  2E9F                     move.l     [A7], [A7]+
00008D0A  4E75                     rts
fn00008D0C:
00008D0C  206F 000C                movea.l    A0, [A7 + 0xC]
00008D10  202F 0004                move.l     D0, [A7 + 0x4]
00008D14  A9E3                     syscall    PtrToHand
00008D16  3F40 0010                move.w     [A7 + 0x10], D0
00008D1A  226F 0008                movea.l    A1, [A7 + 0x8]
00008D1E  2288                     move.l     [A1], A0
00008D20  205F                     movea.l    A0, [A7]+
00008D22  4FEF 000C                lea.l      A7, [A7 + 0xC]
00008D26  4ED0                     jmp        [A0]
label00008D28:
00008D28  4A78 028E                tst.w      [0x0000028E /* ROM85 */]
00008D2C  6B22                     bmi        +0x24 /* 00008D50 */
00008D2E  303C 0090                move.w     D0, 0x90
00008D32  A346                     syscall    GetOSTrapAddress, flags=3
00008D34  2248                     movea.l    A1, A0
00008D36  303C 009F                move.w     D0, 0x9F
00008D3A  A746                     syscall    GetToolBoxTrapAddress/GetToolTrapAddress, flags=7
00008D3C  B3C8                     cmpa.l     A1, A0
00008D3E  6710                     beq        +0x12 /* 00008D50 */
00008D40  225F                     movea.l    A1, [A7]+
00008D42  205F                     movea.l    A0, [A7]+
00008D44  301F                     move.w     D0, [A7]+
00008D46  2F09                     move.l     -[A7], A1
00008D48  A090                     syscall    SysEnvirons
00008D4A  3F40 0004                move.w     [A7 + 0x4], D0
00008D4E  4E75                     rts
label00008D50:
00008D50  206F 0004                movea.l    A0, [A7 + 0x4]
00008D54  303C 0001                move.w     D0, 0x1
00008D58  2248                     movea.l    A1, A0
00008D5A  6006                     bra        +0x8 /* 00008D62 */
00008D5C  0313                     btst       [A3], D1
00008D5E  0B02                     btst       D2, D5
00008D60  0100                     btst       D0, D0
label00008D62:
00008D62  303C 0010                move.w     D0, 0x10
00008D66  E240                     asr        D0.w, 1
00008D68  5340                     subq.w     D0, 1
label00008D6A:
00008D6A  4258                     clr.w      [A0]+
00008D6C  51C8 FFFC                dbf        D0, -0x6 /* 00008D6A */
00008D70  32BC 0002                move.w     [A1], 0x2
00008D74  2078 02AE                movea.l    A0, [0x000002AE /* ROMBase */]
00008D78  337C FFFE 0002           move.w     [A1 + 0x2], 0xFFFE
00008D7E  0C28 00FF 0009           cmpi.b     [A0 + 0x9], 0xFF
00008D84  6742                     beq        +0x44 /* 00008DC8 */
00008D86  4A28 0008                tst.b      [A0 + 0x8]
00008D8A  6E20                     bgt        +0x22 /* 00008DAC */
00008D8C  337C FFFF 0002           move.w     [A1 + 0x2], 0xFFFF
00008D92  4A78 028E                tst.w      [0x0000028E /* ROM85 */]
00008D96  6B30                     bmi        +0x32 /* 00008DC8 */
00008D98  337C 0001 0002           move.w     [A1 + 0x2], 0x1
00008D9E  4A78 0B22                tst.w      [0x00000B22 /* HWCfgFlags */]
00008DA2  6A24                     bpl        +0x26 /* 00008DC8 */
00008DA4  337C 0002 0002           move.w     [A1 + 0x2], 0x2
00008DAA  601C                     bra        +0x1E /* 00008DC8 */
label00008DAC:
00008DAC  4269 0002                clr.w      [A1 + 0x2]
00008DB0  0C28 0002 0008           cmpi.b     [A0 + 0x8], 0x2
00008DB6  6E10                     bgt        +0x12 /* 00008DC8 */
00008DB8  6708                     beq        +0xA /* 00008DC2 */
00008DBA  337C 0004 0002           move.w     [A1 + 0x2], 0x4
00008DC0  6006                     bra        +0x8 /* 00008DC8 */
label00008DC2:
00008DC2  337C 0003 0002           move.w     [A1 + 0x2], 0x3
label00008DC8:
00008DC8  4269 0004                clr.w      [A1 + 0x4]
00008DCC  0C38 0002 012F           cmpi.b     [0x0000012F /* CPUFlag */], 0x2
00008DD2  6E0A                     bgt        +0xC /* 00008DDE */
00008DD4  1038 012F                move.b     D0, [0x0000012F /* CPUFlag */]
00008DD8  5240                     addq.w     D0, 1
00008DDA  1340 0007                move.b     [A1 + 0x7], D0
label00008DDE:
00008DDE  4A78 028E                tst.w      [0x0000028E /* ROM85 */]
00008DE2  6B0E                     bmi        +0x10 /* 00008DF2 */
00008DE4  0838 0004 0B22           btst.b     [0x00000B22 /* HWCfgFlags */], 0x4
00008DEA  6706                     beq        +0x8 /* 00008DF2 */
00008DEC  137C 0001 0008           move.b     [A1 + 0x8], 0x1
label00008DF2:
00008DF2  0C78 3FFF 028E           cmpi.w     [0x0000028E /* ROM85 */], 0x3FFF
00008DF8  6206                     bhi        +0x8 /* 00008E00 */
00008DFA  137C 0001 0009           move.b     [A1 + 0x9], 0x1
label00008E00:
00008E00  1038 021E                move.b     D0, [0x0000021E /* KbdType */]
00008E04  41FA FF5B                lea.l      A0, [PC - 0xA5 /* 00008D61, value 0x303C00 '0<\0', cstring "" */]
00008E08  323C 0004                move.w     D1, 0x4
label00008E0C:
00008E0C  B020                     cmp.b      D0, -[A0]
00008E0E  57C9 FFFC                dbeq       D1, -0x6 /* 00008E0C */
00008E12  5241                     addq.w     D1, 1
00008E14  3341 000A                move.w     [A1 + 0xA], D1
00008E18  4A38 0291                tst.b      [0x00000291 /* PortBUse */]
00008E1C  6B18                     bmi        +0x1A /* 00008E36 */
00008E1E  1238 01FB                move.b     D1, [0x000001FB /* SPConfig */]
00008E22  0201 000F                andi.b     D1, 0xF
00008E26  0C01 0001                cmpi.b     D1, 0x1
00008E2A  660A                     bne        +0xC /* 00008E36 */
00008E2C  2078 02DC                movea.l    A0, [0x000002DC /* ABusDCE */]
00008E30  1368 0007 000D           move.b     [A1 + 0xD], [A0 + 0x7]
label00008E36:
00008E36  3378 0210 000E           move.w     [A1 + 0xE], [0x00000210 /* BootDrive */]
00008E3C  4A78 03F6                tst.w      [0x000003F6 /* FSFCBLen */]
00008E40  6D44                     blt        +0x46 /* 00008E86 */
00008E42  4269 000E                clr.w      [A1 + 0xE]
00008E46  323C 003C                move.w     D1, 0x3C /* '<' */
label00008E4A:
00008E4A  4267                     clr.w      -[A7]
00008E4C  51C9 FFFC                dbf        D1, -0x6 /* 00008E4A */
00008E50  204F                     movea.l    A0, A7
00008E52  3178 0A58 0018           move.w     [A0 + 0x18], [0x00000A58 /* SysMap */]
00008E58  7008                     moveq.l    D0, 0x08
00008E5A  A260                     syscall    FSDispatch/HFSDispatch, flags=2
00008E5C  6624                     bne        +0x26 /* 00008E82 */
00008E5E  3168 0034 0016           move.w     [A0 + 0x16], [A0 + 0x34]
00008E64  A207                     syscall    GetVolInfo/PBHGetVInfo/HGetVInfo, flags=2
00008E66  661A                     bne        +0x1C /* 00008E82 */
00008E68  2168 005A 0030           move.l     [A0 + 0x30], [A0 + 0x5A]
00008E6E  217C 4552 494B 001C      move.l     [A0 + 0x1C], 0x4552494B /* 'ERIK' */
00008E76  7001                     moveq.l    D0, 0x01
00008E78  A260                     syscall    FSDispatch/HFSDispatch, flags=2
00008E7A  6606                     bne        +0x8 /* 00008E82 */
00008E7C  3368 0016 000E           move.w     [A1 + 0xE], [A0 + 0x16]
label00008E82:
00008E82  4FEF 007A                lea.l      A7, [A7 + 0x7A]
label00008E86:
00008E86  2049                     movea.l    A0, A1
00008E88  225F                     movea.l    A1, [A7]+
00008E8A  5C4F                     addq.w     A7, 6
00008E8C  3EBC EA84                move.w     [A7], 0xEA84
00008E90  4ED1                     jmp        [A1]
fn00008E92:
00008E92  206F 0008                movea.l    A0, [A7 + 0x8]
00008E96  3F3C 0001                move.w     -[A7], 0x1
00008E9A  A9EE                     syscall    Pack7/DecStr68K
00008E9C  206F 0004                movea.l    A0, [A7 + 0x4]
00008EA0  2080                     move.l     [A0], D0
00008EA2  4EFA 000E                jmp        [PC + 0xE /* 00008EB2 */]
fn00008EA6:
00008EA6  206F 0004                movea.l    A0, [A7 + 0x4]
00008EAA  202F 0008                move.l     D0, [A7 + 0x8]
00008EAE  4267                     clr.w      -[A7]
00008EB0  A9EE                     syscall    Pack7/DecStr68K
label00008EB2:
00008EB2  205F                     movea.l    A0, [A7]+
00008EB4  504F                     addq.w     A7, 8
00008EB6  4ED0                     jmp        [A0]
fn00008EB8:
00008EB8  2F02                     move.l     -[A7], D2
00008EBA  42A7                     clr.l      -[A7]
00008EBC  2F2F 000C                move.l     -[A7], [A7 + 0xC]
00008EC0  2F2F 0014                move.l     -[A7], [A7 + 0x14]
00008EC4  2F2F 001C                move.l     -[A7], [A7 + 0x1C]
00008EC8  4EBA FDF0                jsr        [PC - 0x210 /* 00008CBA */]
00008ECC  1F2F 0027                move.b     -[A7], [A7 + 0x27]
00008ED0  3F2F 002C                move.w     -[A7], [A7 + 0x2C]
00008ED4  3F2F 0032                move.w     -[A7], [A7 + 0x32]
00008ED8  3F2F 0038                move.w     -[A7], [A7 + 0x38]
00008EDC  3F2F 003E                move.w     -[A7], [A7 + 0x3E]
00008EE0  2F2F 0042                move.l     -[A7], [A7 + 0x42]
00008EE4  A954                     syscall    NewControl
00008EE6  2F2F 0014                move.l     -[A7], [A7 + 0x14]
00008EEA  4EBA FDAA                jsr        [PC - 0x256 /* 00008C96 */]
00008EEE  584F                     addq.w     A7, 4
00008EF0  201F                     move.l     D0, [A7]+
00008EF2  241F                     move.l     D2, [A7]+
00008EF4  4E75                     rts
fn00008EF6:
00008EF6  2F02                     move.l     -[A7], D2
00008EF8  2F2F 0008                move.l     -[A7], [A7 + 0x8]
00008EFC  2F2F 0010                move.l     -[A7], [A7 + 0x10]
00008F00  A95E                     syscall    GetControlTitle/GetCTitle
00008F02  2F2F 000C                move.l     -[A7], [A7 + 0xC]
00008F06  4EBA FD8E                jsr        [PC - 0x272 /* 00008C96 */]
00008F0A  584F                     addq.w     A7, 4
00008F0C  241F                     move.l     D2, [A7]+
00008F0E  4E75                     rts
fn00008F10:
00008F10  2F02                     move.l     -[A7], D2
00008F12  2F2F 0008                move.l     -[A7], [A7 + 0x8]
00008F16  2F2F 0010                move.l     -[A7], [A7 + 0x10]
00008F1A  A990                     syscall    GetDialogItemText/GetIText
00008F1C  2F2F 000C                move.l     -[A7], [A7 + 0xC]
00008F20  4EBA FD74                jsr        [PC - 0x28C /* 00008C96 */]
00008F24  584F                     addq.w     A7, 4
00008F26  241F                     move.l     D2, [A7]+
00008F28  4E75                     rts
fn00008F2A:
00008F2A  2F02                     move.l     -[A7], D2
00008F2C  2F2F 0008                move.l     -[A7], [A7 + 0x8]
00008F30  4EBA FD88                jsr        [PC - 0x278 /* 00008CBA */]
00008F34  2057                     movea.l    A0, [A7]
00008F36  3F3C 0001                move.w     -[A7], 0x1
00008F3A  A9EE                     syscall    Pack7/DecStr68K
00008F3C  206F 0010                movea.l    A0, [A7 + 0x10]
00008F40  2080                     move.l     [A0], D0
00008F42  4EBA FD52                jsr        [PC - 0x2AE /* 00008C96 */]
00008F46  584F                     addq.w     A7, 4
00008F48  241F                     move.l     D2, [A7]+
00008F4A  4E75                     rts
