# export_0 => 00000016
# export_1 => 0000001A
# export_2 => 0000001E
# export_3 => 00000022
# export_4 => 00000026
# export_5 => 0000002A
# export_6 => (not set)
# export_7 => (not set)
# export_8 => (not set)
export_0:
00000016  4EFA 01DA                jmp        [PC + 0x1DA /* 000001F2 */]
export_1:
0000001A  4EFA 01E2                jmp        [PC + 0x1E2 /* 000001FE */]
export_2:
0000001E  4EFA 0286                jmp        [PC + 0x286 /* 000002A6 */]
export_3:
00000022  4EFA 0468                jmp        [PC + 0x468 /* 0000048C */]
export_4:
00000026  4EFA 0334                jmp        [PC + 0x334 /* 0000035C */]
export_5:
0000002A  4EFA 0348                jmp        [PC + 0x348 /* 00000374 */]
fn0000002E:
0000002E  4E56 FF00                link       A6, -0x0100
00000032  41FA FFCC                lea.l      A0, [PC - 0x34 /* 00000000 */]
00000036  A128                     syscall    RecoverHandle, flags=1
00000038  2F08                     move.l     -[A7], A0
0000003A  486E 0008                pea.l      [A6 + 0x8]
0000003E  486E FF00                pea.l      [A6 - 0x100]
00000042  2F17                     move.l     -[A7], [A7]
00000044  A9A8                     syscall    GetResInfo
00000046  4E5E                     unlink     A6
00000048  4E75                     rts
0000004A  4EBA 0196                jsr        [PC + 0x196 /* 000001E2 */]
fn0000004E:
0000004E  4EBA 0192                jsr        [PC + 0x192 /* 000001E2 */]
fn00000052:
00000052  4EBA 018E                jsr        [PC + 0x18E /* 000001E2 */]
fn00000056:
00000056  4EBA 018A                jsr        [PC + 0x18A /* 000001E2 */]
fn0000005A:
0000005A  4EBA 0186                jsr        [PC + 0x186 /* 000001E2 */]
fn0000005E:
0000005E  4EBA 0182                jsr        [PC + 0x182 /* 000001E2 */]
00000062  4EBA 017E                jsr        [PC + 0x17E /* 000001E2 */]
00000066  4EBA 017A                jsr        [PC + 0x17A /* 000001E2 */]
0000006A  4EBA 0176                jsr        [PC + 0x176 /* 000001E2 */]
0000006E  4EBA 0172                jsr        [PC + 0x172 /* 000001E2 */]
fn00000072:
00000072  4EBA 016E                jsr        [PC + 0x16E /* 000001E2 */]
00000076  4EBA 016A                jsr        [PC + 0x16A /* 000001E2 */]
0000007A  4EBA 0166                jsr        [PC + 0x166 /* 000001E2 */]
0000007E  4EBA 0162                jsr        [PC + 0x162 /* 000001E2 */]
00000082  4EBA 015E                jsr        [PC + 0x15E /* 000001E2 */]
00000086  4EBA 015A                jsr        [PC + 0x15A /* 000001E2 */]
0000008A  4EBA 0156                jsr        [PC + 0x156 /* 000001E2 */]
0000008E  4EBA 0152                jsr        [PC + 0x152 /* 000001E2 */]
fn00000092:
00000092  4EBA 014E                jsr        [PC + 0x14E /* 000001E2 */]
00000096  4EBA 014A                jsr        [PC + 0x14A /* 000001E2 */]
0000009A  4EBA 0146                jsr        [PC + 0x146 /* 000001E2 */]
0000009E  4EBA 0142                jsr        [PC + 0x142 /* 000001E2 */]
000000A2  4EBA 013E                jsr        [PC + 0x13E /* 000001E2 */]
000000A6  4EBA 013A                jsr        [PC + 0x13A /* 000001E2 */]
000000AA  4EBA 0136                jsr        [PC + 0x136 /* 000001E2 */]
000000AE  4EBA 0132                jsr        [PC + 0x132 /* 000001E2 */]
fn000000B2:
000000B2  4EBA 012E                jsr        [PC + 0x12E /* 000001E2 */]
000000B6  4EBA 012A                jsr        [PC + 0x12A /* 000001E2 */]
000000BA  4EBA 0126                jsr        [PC + 0x126 /* 000001E2 */]
000000BE  4EBA 0122                jsr        [PC + 0x122 /* 000001E2 */]
fn000000C2:
000000C2  4EBA 011E                jsr        [PC + 0x11E /* 000001E2 */]
fn000000C6:
000000C6  4EBA 011A                jsr        [PC + 0x11A /* 000001E2 */]
fn000000CA:
000000CA  4EBA 0116                jsr        [PC + 0x116 /* 000001E2 */]
000000CE  4EBA 0112                jsr        [PC + 0x112 /* 000001E2 */]
fn000000D2:
000000D2  4EBA 010E                jsr        [PC + 0x10E /* 000001E2 */]
fn000000D6:
000000D6  4EBA 010A                jsr        [PC + 0x10A /* 000001E2 */]
000000DA  4EBA 0106                jsr        [PC + 0x106 /* 000001E2 */]
000000DE  4EBA 0102                jsr        [PC + 0x102 /* 000001E2 */]
000000E2  4EBA 00FE                jsr        [PC + 0xFE /* 000001E2 */]
000000E6  4EBA 00FA                jsr        [PC + 0xFA /* 000001E2 */]
000000EA  4EBA 00F6                jsr        [PC + 0xF6 /* 000001E2 */]
000000EE  4EBA 00F2                jsr        [PC + 0xF2 /* 000001E2 */]
000000F2  4EBA 00EE                jsr        [PC + 0xEE /* 000001E2 */]
fn000000F6:
000000F6  4EBA 00EA                jsr        [PC + 0xEA /* 000001E2 */]
000000FA  4EBA 00E6                jsr        [PC + 0xE6 /* 000001E2 */]
000000FE  4EBA 00E2                jsr        [PC + 0xE2 /* 000001E2 */]
00000102  4EBA 00DE                jsr        [PC + 0xDE /* 000001E2 */]
fn00000106:
00000106  4EBA 00DA                jsr        [PC + 0xDA /* 000001E2 */]
0000010A  4EBA 00D6                jsr        [PC + 0xD6 /* 000001E2 */]
0000010E  4EBA 00D2                jsr        [PC + 0xD2 /* 000001E2 */]
fn00000112:
00000112  4EBA 00CE                jsr        [PC + 0xCE /* 000001E2 */]
fn00000116:
00000116  4EBA 00CA                jsr        [PC + 0xCA /* 000001E2 */]
0000011A  4EBA 00C6                jsr        [PC + 0xC6 /* 000001E2 */]
fn0000011E:
0000011E  4EBA 00C2                jsr        [PC + 0xC2 /* 000001E2 */]
00000122  4EBA 00BE                jsr        [PC + 0xBE /* 000001E2 */]
fn00000126:
00000126  4EBA 00BA                jsr        [PC + 0xBA /* 000001E2 */]
fn0000012A:
0000012A  4EBA 00B6                jsr        [PC + 0xB6 /* 000001E2 */]
0000012E  4EBA 00B2                jsr        [PC + 0xB2 /* 000001E2 */]
00000132  4EBA 00AE                jsr        [PC + 0xAE /* 000001E2 */]
00000136  4EBA 00AA                jsr        [PC + 0xAA /* 000001E2 */]
fn0000013A:
0000013A  4EBA 00A6                jsr        [PC + 0xA6 /* 000001E2 */]
0000013E  4EBA 00A2                jsr        [PC + 0xA2 /* 000001E2 */]
fn00000142:
00000142  4EBA 009E                jsr        [PC + 0x9E /* 000001E2 */]
00000146  4EBA 009A                jsr        [PC + 0x9A /* 000001E2 */]
0000014A  4EBA 0096                jsr        [PC + 0x96 /* 000001E2 */]
0000014E  4EBA 0092                jsr        [PC + 0x92 /* 000001E2 */]
fn00000152:
00000152  4EBA 008E                jsr        [PC + 0x8E /* 000001E2 */]
00000156  4EBA 008A                jsr        [PC + 0x8A /* 000001E2 */]
0000015A  4EBA 0086                jsr        [PC + 0x86 /* 000001E2 */]
0000015E  4EBA 0082                jsr        [PC + 0x82 /* 000001E2 */]
00000162  4EBA 007E                jsr        [PC + 0x7E /* 000001E2 */]
00000166  4EBA 007A                jsr        [PC + 0x7A /* 000001E2 */]
0000016A  4EBA 0076                jsr        [PC + 0x76 /* 000001E2 */]
0000016E  4EBA 0072                jsr        [PC + 0x72 /* 000001E2 */]
00000172  4EBA 006E                jsr        [PC + 0x6E /* 000001E2 */]
00000176  4EBA 006A                jsr        [PC + 0x6A /* 000001E2 */]
fn0000017A:
0000017A  4EBA 0066                jsr        [PC + 0x66 /* 000001E2 */]
0000017E  4EBA 0062                jsr        [PC + 0x62 /* 000001E2 */]
00000182  4EBA 005E                jsr        [PC + 0x5E /* 000001E2 */]
fn00000186:
00000186  4EBA 005A                jsr        [PC + 0x5A /* 000001E2 */]
0000018A  4EBA 0056                jsr        [PC + 0x56 /* 000001E2 */]
0000018E  4EBA 0052                jsr        [PC + 0x52 /* 000001E2 */]
fn00000192:
00000192  4EBA 004E                jsr        [PC + 0x4E /* 000001E2 */]
fn00000196:
00000196  4EBA 004A                jsr        [PC + 0x4A /* 000001E2 */]
fn0000019A:
0000019A  4EBA 0046                jsr        [PC + 0x46 /* 000001E2 */]
0000019E  4EBA 0042                jsr        [PC + 0x42 /* 000001E2 */]
000001A2  4EBA 003E                jsr        [PC + 0x3E /* 000001E2 */]
000001A6  4EBA 003A                jsr        [PC + 0x3A /* 000001E2 */]
000001AA  4EBA 0036                jsr        [PC + 0x36 /* 000001E2 */]
000001AE  4EBA 0032                jsr        [PC + 0x32 /* 000001E2 */]
000001B2  4EBA 002E                jsr        [PC + 0x2E /* 000001E2 */]
fn000001B6:
000001B6  4EBA 002A                jsr        [PC + 0x2A /* 000001E2 */]
000001BA  4EBA 0026                jsr        [PC + 0x26 /* 000001E2 */]
000001BE  4EBA 0022                jsr        [PC + 0x22 /* 000001E2 */]
000001C2  4EBA 001E                jsr        [PC + 0x1E /* 000001E2 */]
000001C6  4EBA 001A                jsr        [PC + 0x1A /* 000001E2 */]
000001CA  4EBA 0016                jsr        [PC + 0x16 /* 000001E2 */]
000001CE  4EBA 0012                jsr        [PC + 0x12 /* 000001E2 */]
000001D2  4EBA 000E                jsr        [PC + 0xE /* 000001E2 */]
000001D6  4EBA 000A                jsr        [PC + 0xA /* 000001E2 */]
000001DA  4EBA 0006                jsr        [PC + 0x6 /* 000001E2 */]
000001DE  4EBA 0002                jsr        [PC + 0x2 /* 000001E2 */]
fn000001E2:
000001E2  43FA FE6A                lea.l      A1, [PC - 0x196 /* 0000004E, value 0x4EBA0192 */]
000001E6  205F                     movea.l    A0, [A7]+
000001E8  91C9                     sub.l      A0, A1
000001EA  D1F8 0A78                add.l      A0, [0x00000A78 /* ApplScratch */]
000001EE  2050                     movea.l    A0, [A0]
000001F0  4ED0                     jmp        [A0]
label000001F2:
000001F2  4E56 0000                link       A6, 0
000001F6  4E5E                     unlink     A6
000001F8  205F                     movea.l    A0, [A7]+
000001FA  504F                     addq.w     A7, 8
000001FC  4ED0                     jmp        [A0]
label000001FE:
000001FE  4E56 FFFC                link       A6, -0x0004
00000202  48E7 0018                movem.l    -[A7], A3,A4
00000206  42A7                     clr.l      -[A7]
00000208  2F3C 0000 023C           move.l     -[A7], 0x23C
0000020E  4EBA 1472                jsr        [PC + 0x1472 /* 00001682 */]
00000212  265F                     movea.l    A3, [A7]+
00000214  2853                     movea.l    A4, [A3]
00000216  28AE 0008                move.l     [A4], [A6 + 0x8]
0000021A  296E 000C 0118           move.l     [A4 + 0x118], [A6 + 0xC]
00000220  197C 0004 012A           move.b     [A4 + 0x12A], 0x4
00000226  296E 000C 012C           move.l     [A4 + 0x12C], [A6 + 0xC]
0000022C  7000                     moveq.l    D0, 0x00
0000022E  2940 0138                move.l     [A4 + 0x138], D0
00000232  42AC 0120                clr.l      [A4 + 0x120]
00000236  42A7                     clr.l      -[A7]
00000238  42A7                     clr.l      -[A7]
0000023A  4267                     clr.w      -[A7]
0000023C  4EBA FDF0                jsr        [PC - 0x210 /* 0000002E */]
00000240  2F0B                     move.l     -[A7], A3
00000242  4EBA FF36                jsr        [PC - 0xCA /* 0000017A */]
00000246  101F                     move.b     D0, [A7]+
00000248  674A                     beq        +0x4C /* 00000294 */
0000024A  2F0B                     move.l     -[A7], A3
0000024C  205F                     movea.l    A0, [A7]+
0000024E  A029                     syscall    HLock
00000250  2853                     movea.l    A4, [A3]
00000252  702C                     moveq.l    D0, 0x2C
00000254  2940 011C                move.l     [A4 + 0x11C], D0
00000258  2F0B                     move.l     -[A7], A3
0000025A  4EBA 0866                jsr        [PC + 0x866 /* 00000AC2 */]
0000025E  1F3C 0001                move.b     -[A7], 0x1
00000262  42A7                     clr.l      -[A7]
00000264  2F2C 0124                move.l     -[A7], [A4 + 0x124]
00000268  3F3C 005C                move.w     -[A7], 0x5C /* '\\' */
0000026C  A9E7                     syscall    Pack0/ListManager
0000026E  2F2C 0104                move.l     -[A7], [A4 + 0x104]
00000272  A922                     syscall    BeginUpdate
00000274  206C 0104                movea.l    A0, [A4 + 0x104]
00000278  2F28 0018                move.l     -[A7], [A0 + 0x18]
0000027C  2F2C 0124                move.l     -[A7], [A4 + 0x124]
00000280  3F3C 0064                move.w     -[A7], 0x64 /* 'd' */
00000284  A9E7                     syscall    Pack0/ListManager
00000286  2F2C 0104                move.l     -[A7], [A4 + 0x104]
0000028A  A923                     syscall    EndUpdate
0000028C  2F0B                     move.l     -[A7], A3
0000028E  205F                     movea.l    A0, [A7]+
00000290  A02A                     syscall    HUnlock
00000292  6006                     bra        +0x8 /* 0000029A */
label00000294:
00000294  2F0B                     move.l     -[A7], A3
00000296  205F                     movea.l    A0, [A7]+
00000298  A023                     syscall    DisposHandle/DisposeHandle
label0000029A:
0000029A  4CDF 1800                movem.l    A3,A4, [A7]+
0000029E  4E5E                     unlink     A6
000002A0  205F                     movea.l    A0, [A7]+
000002A2  504F                     addq.w     A7, 8
000002A4  4ED0                     jmp        [A0]
label000002A6:
000002A6  4E56 FFFA                link       A6, -0x0006
000002AA  48E7 0118                movem.l    -[A7], D7,A3,A4
000002AE  266E 0008                movea.l    A3, [A6 + 0x8]
000002B2  4207                     clr.b      D7
000002B4  2F0B                     move.l     -[A7], A3
000002B6  4EBA FD96                jsr        [PC - 0x26A /* 0000004E */]
000002BA  2F0B                     move.l     -[A7], A3
000002BC  205F                     movea.l    A0, [A7]+
000002BE  A029                     syscall    HLock
000002C0  2853                     movea.l    A4, [A3]
000002C2  102C 0108                move.b     D0, [A4 + 0x108]
000002C6  6750                     beq        +0x52 /* 00000318 */
000002C8  422C 0108                clr.b      [A4 + 0x108]
000002CC  206E 000C                movea.l    A0, [A6 + 0xC]
000002D0  7008                     moveq.l    D0, 0x08
000002D2  B050                     cmp.w      D0, [A0]
000002D4  663C                     bne        +0x3E /* 00000312 */
000002D6  7000                     moveq.l    D0, 0x00
000002D8  2D40 FFFA                move.l     [A6 - 0x6], D0
label000002DC:
000002DC  4267                     clr.w      -[A7]
000002DE  1F3C 0001                move.b     -[A7], 0x1
000002E2  486E FFFA                pea.l      [A6 - 0x6]
000002E6  2F2C 0124                move.l     -[A7], [A4 + 0x124]
000002EA  3F3C 003C                move.w     -[A7], 0x3C /* '<' */
000002EE  A9E7                     syscall    Pack0/ListManager
000002F0  101F                     move.b     D0, [A7]+
000002F2  6712                     beq        +0x14 /* 00000306 */
000002F4  4267                     clr.w      -[A7]
000002F6  2F2E FFFA                move.l     -[A7], [A6 - 0x6]
000002FA  2F2C 0124                move.l     -[A7], [A4 + 0x124]
000002FE  3F3C 005C                move.w     -[A7], 0x5C /* '\\' */
00000302  A9E7                     syscall    Pack0/ListManager
00000304  60D6                     bra        -0x28 /* 000002DC */
label00000306:
00000306  7E01                     moveq.l    D7, 0x01
00000308  2F2E 000C                move.l     -[A7], [A6 + 0xC]
0000030C  2F0B                     move.l     -[A7], A3
0000030E  4EBA FDB2                jsr        [PC - 0x24E /* 000000C2 */]
label00000312:
00000312  2F0B                     move.l     -[A7], A3
00000314  4EBA 07AC                jsr        [PC + 0x7AC /* 00000AC2 */]
label00000318:
00000318  2F0B                     move.l     -[A7], A3
0000031A  205F                     movea.l    A0, [A7]+
0000031C  A029                     syscall    HLock
0000031E  1007                     move.b     D0, D7
00000320  6628                     bne        +0x2A /* 0000034A */
00000322  206E 000C                movea.l    A0, [A6 + 0xC]
00000326  7003                     moveq.l    D0, 0x03
00000328  B050                     cmp.w      D0, [A0]
0000032A  6614                     bne        +0x16 /* 00000340 */
0000032C  2F2E 000C                move.l     -[A7], [A6 + 0xC]
00000330  3F3C 0003                move.w     -[A7], 0x3
00000334  2053                     movea.l    A0, [A3]
00000336  2F28 0124                move.l     -[A7], [A0 + 0x124]
0000033A  4EBA FDE2                jsr        [PC - 0x21E /* 0000011E */]
0000033E  600A                     bra        +0xC /* 0000034A */
label00000340:
00000340  2F2E 000C                move.l     -[A7], [A6 + 0xC]
00000344  2F0B                     move.l     -[A7], A3
00000346  4EBA FD7A                jsr        [PC - 0x286 /* 000000C2 */]
label0000034A:
0000034A  2F0B                     move.l     -[A7], A3
0000034C  205F                     movea.l    A0, [A7]+
0000034E  A02A                     syscall    HUnlock
00000350  4CDF 1880                movem.l    D7,A3,A4, [A7]+
00000354  4E5E                     unlink     A6
00000356  205F                     movea.l    A0, [A7]+
00000358  504F                     addq.w     A7, 8
0000035A  4ED0                     jmp        [A0]
label0000035C:
0000035C  4E56 0000                link       A6, 0
00000360  2F2E 000C                move.l     -[A7], [A6 + 0xC]
00000364  2F2E 0008                move.l     -[A7], [A6 + 0x8]
00000368  4EBA FD5C                jsr        [PC - 0x2A4 /* 000000C6 */]
0000036C  4E5E                     unlink     A6
0000036E  205F                     movea.l    A0, [A7]+
00000370  504F                     addq.w     A7, 8
00000372  4ED0                     jmp        [A0]
label00000374:
00000374  4E56 0000                link       A6, 0
00000378  422E 0010                clr.b      [A6 + 0x10]
0000037C  4E5E                     unlink     A6
0000037E  205F                     movea.l    A0, [A7]+
00000380  504F                     addq.w     A7, 8
00000382  4ED0                     jmp        [A0]
00000384  4E56 FFFA                link       A6, -0x0006
00000388  2F07                     move.l     -[A7], D7
0000038A  302E 000A                move.w     D0, [A6 + 0xA]
0000038E  B06E 0008                cmp.w      D0, [A6 + 0x8]
00000392  6708                     beq        +0xA /* 0000039C */
00000394  3D7C 0001 0014           move.w     [A6 + 0x14], 0x1
0000039A  603A                     bra        +0x3C /* 000003D6 */
label0000039C:
0000039C  3D7C 0001 FFFC           move.w     [A6 - 0x4], 0x1
000003A2  3D6E 000A FFFA           move.w     [A6 - 0x6], [A6 + 0xA]
000003A8  3E2E FFFC                move.w     D7, [A6 - 0x4]
000003AC  601E                     bra        +0x20 /* 000003CC */
label000003AE:
000003AE  206E 0010                movea.l    A0, [A6 + 0x10]
000003B2  226E 000C                movea.l    A1, [A6 + 0xC]
000003B6  1030 70FF                move.b     D0, [A0 + D7.w - 0x1]
000003BA  B031 70FF                cmp.b      D0, [A1 + D7.w - 0x1]
000003BE  6708                     beq        +0xA /* 000003C8 */
000003C0  3D7C 0001 0014           move.w     [A6 + 0x14], 0x1
000003C6  600E                     bra        +0x10 /* 000003D6 */
label000003C8:
000003C8  5247                     addq.w     D7, 1
000003CA  6906                     bvs        +0x8 /* 000003D2 */
label000003CC:
000003CC  BE6E FFFA                cmp.w      D7, [A6 - 0x6]
000003D0  6FDC                     ble        -0x22 /* 000003AE */
label000003D2:
000003D2  426E 0014                clr.w      [A6 + 0x14]
label000003D6:
000003D6  2E1F                     move.l     D7, [A7]+
000003D8  4E5E                     unlink     A6
000003DA  205F                     movea.l    A0, [A7]+
000003DC  DEFC 000C                add.w      A7, 0xC
000003E0  4ED0                     jmp        [A0]
fn000003E2:
000003E2  4E56 FFF8                link       A6, -0x0008
000003E6  48E7 0018                movem.l    -[A7], A3,A4
000003EA  206E 0008                movea.l    A0, [A6 + 0x8]
000003EE  2850                     movea.l    A4, [A0]
000003F0  7000                     moveq.l    D0, 0x00
000003F2  2D40 FFFC                move.l     [A6 - 0x4], D0
label000003F6:
000003F6  4267                     clr.w      -[A7]
000003F8  1F3C 0001                move.b     -[A7], 0x1
000003FC  486E FFFC                pea.l      [A6 - 0x4]
00000400  2F2C 0124                move.l     -[A7], [A4 + 0x124]
00000404  3F3C 003C                move.w     -[A7], 0x3C /* '<' */
00000408  A9E7                     syscall    Pack0/ListManager
0000040A  101F                     move.b     D0, [A7]+
0000040C  6768                     beq        +0x6A /* 00000476 */
0000040E  4267                     clr.w      -[A7]
00000410  A99B                     syscall    SetResLoad
00000412  42A7                     clr.l      -[A7]
00000414  3F2C 0110                move.w     -[A7], [A4 + 0x110]
00000418  2F2E FFFC                move.l     -[A7], [A6 - 0x4]
0000041C  2F2C 0124                move.l     -[A7], [A4 + 0x124]
00000420  4EBA 05F4                jsr        [PC + 0x5F4 /* 00000A16 */]
00000424  265F                     movea.l    A3, [A7]+
00000426  1F3C 0001                move.b     -[A7], 0x1
0000042A  A99B                     syscall    SetResLoad
0000042C  200B                     move.l     D0, A3
0000042E  6602                     bne        +0x4 /* 00000432 */
00000430  6044                     bra        +0x46 /* 00000476 */
label00000432:
00000432  4267                     clr.w      -[A7]
00000434  2F0B                     move.l     -[A7], A3
00000436  4EBA FC3A                jsr        [PC - 0x3C6 /* 00000072 */]
0000043A  101F                     move.b     D0, [A7]+
0000043C  671C                     beq        +0x1E /* 0000045A */
0000043E  4267                     clr.w      -[A7]
00000440  1F3C 0004                move.b     -[A7], 0x4
00000444  487A 003A                pea.l      [PC + 0x3A /* 00000480, value 0xB466F6E, pstring "Font Alerts" */]
00000448  3F3C 0006                move.w     -[A7], 0x6
0000044C  4EBA FCB8                jsr        [PC - 0x348 /* 00000106 */]
00000450  101F                     move.b     D0, [A7]+
00000452  6606                     bne        +0x8 /* 0000045A */
00000454  4EBA FCE4                jsr        [PC - 0x31C /* 0000013A */]
00000458  601C                     bra        +0x1E /* 00000476 */
label0000045A:
0000045A  4267                     clr.w      -[A7]
0000045C  1F3C 0001                move.b     -[A7], 0x1
00000460  1F3C 0001                move.b     -[A7], 0x1
00000464  486E FFFC                pea.l      [A6 - 0x4]
00000468  2F2C 0124                move.l     -[A7], [A4 + 0x124]
0000046C  3F3C 0048                move.w     -[A7], 0x48 /* 'H' */
00000470  A9E7                     syscall    Pack0/ListManager
00000472  101F                     move.b     D0, [A7]+
00000474  6680                     bne        -0x7E /* 000003F6 */
label00000476:
00000476  4CDF 1800                movem.l    A3,A4, [A7]+
0000047A  4E5E                     unlink     A6
0000047C  2E9F                     move.l     [A7], [A7]+
0000047E  4E75                     rts
00000480  0B46                     bchg       D6, D5
00000482  6F6E                     ble        +0x70 /* 000004F2 */
00000484  7420                     moveq.l    D2, 0x20
00000486  416C 6572                chk.w      D0, [A4 + 0x6572]
0000048A  7473                     moveq.l    D2, 0x73
label0000048C:
0000048C  4E56 FDD4                link       A6, -0x022C
00000490  48E7 0F18                movem.l    -[A7], D4,D5,D6,D7,A3,A4
00000494  382E 000E                move.w     D4, [A6 + 0xE]
00000498  2C2E 0008                move.l     D6, [A6 + 0x8]
0000049C  3E2E 000C                move.w     D7, [A6 + 0xC]
000004A0  2F06                     move.l     -[A7], D6
000004A2  4EBA FBAA                jsr        [PC - 0x456 /* 0000004E */]
000004A6  2F06                     move.l     -[A7], D6
000004A8  205F                     movea.l    A0, [A7]+
000004AA  A029                     syscall    HLock
000004AC  2046                     movea.l    A0, D6
000004AE  2850                     movea.l    A4, [A0]
000004B0  4205                     clr.b      D5
000004B2  7003                     moveq.l    D0, 0x03
000004B4  B044                     cmp.w      D0, D4
000004B6  6600 0326                bne        +0x328 /* 000007DE */
000004BA  1D7C 0001 FDDA           move.b     [A6 - 0x226], 0x1
000004C0  7008                     moveq.l    D0, 0x08
000004C2  B047                     cmp.w      D0, D7
000004C4  6616                     bne        +0x18 /* 000004DC */
000004C6  4267                     clr.w      -[A7]
000004C8  1F3C 0003                move.b     -[A7], 0x3
000004CC  487A 053C                pea.l      [PC + 0x53C /* 00000A0A, value 0xB466F6E, pstring "Font Alerts" */]
000004D0  3F3C 0004                move.w     -[A7], 0x4
000004D4  4EBA FC30                jsr        [PC - 0x3D0 /* 00000106 */]
000004D8  1D5F FDDA                move.b     [A6 - 0x226], [A7]+
label000004DC:
000004DC  7003                     moveq.l    D0, 0x03
000004DE  B047                     cmp.w      D0, D7
000004E0  57C0                     seq        D0
000004E2  4A00                     tst.b      D0
000004E4  660A                     bne        +0xC /* 000004F0 */
000004E6  7206                     moveq.l    D1, 0x06
000004E8  B247                     cmp.w      D1, D7
000004EA  57C1                     seq        D1
000004EC  8001                     or.b       D0, D1
000004EE  6734                     beq        +0x36 /* 00000524 */
label000004F0:
000004F0  7000                     moveq.l    D0, 0x00
label000004F2:
000004F2  2D40 FFE6                move.l     [A6 - 0x1A], D0
000004F6  4267                     clr.w      -[A7]
000004F8  1F3C 0001                move.b     -[A7], 0x1
000004FC  486E FFE6                pea.l      [A6 - 0x1A]
00000500  2F2C 0124                move.l     -[A7], [A4 + 0x124]
00000504  3F3C 003C                move.w     -[A7], 0x3C /* '<' */
00000508  A9E7                     syscall    Pack0/ListManager
0000050A  101F                     move.b     D0, [A7]+
0000050C  6716                     beq        +0x18 /* 00000524 */
0000050E  4267                     clr.w      -[A7]
00000510  1F3C 0003                move.b     -[A7], 0x3
00000514  487A 04F4                pea.l      [PC + 0x4F4 /* 00000A0A, value 0xB466F6E, pstring "Font Alerts" */]
00000518  3F3C 0005                move.w     -[A7], 0x5
0000051C  4EBA FBE8                jsr        [PC - 0x418 /* 00000106 */]
00000520  1D5F FDDA                move.b     [A6 - 0x226], [A7]+
label00000524:
00000524  102E FDDA                move.b     D0, [A6 - 0x226]
00000528  6700 04C2                beq        +0x4C4 /* 000009EC */
0000052C  7009                     moveq.l    D0, 0x09
0000052E  B047                     cmp.w      D0, D7
00000530  57C0                     seq        D0
00000532  4A00                     tst.b      D0
00000534  6614                     bne        +0x16 /* 0000054A */
00000536  720A                     moveq.l    D1, 0x0A
00000538  B247                     cmp.w      D1, D7
0000053A  57C1                     seq        D1
0000053C  8001                     or.b       D0, D1
0000053E  660A                     bne        +0xC /* 0000054A */
00000540  7205                     moveq.l    D1, 0x05
00000542  B247                     cmp.w      D1, D7
00000544  57C1                     seq        D1
00000546  8001                     or.b       D0, D1
00000548  6718                     beq        +0x1A /* 00000562 */
label0000054A:
0000054A  3F04                     move.w     -[A7], D4
0000054C  3F07                     move.w     -[A7], D7
0000054E  2F06                     move.l     -[A7], D6
00000550  4EBA FB78                jsr        [PC - 0x488 /* 000000CA */]
00000554  7005                     moveq.l    D0, 0x05
00000556  B047                     cmp.w      D0, D7
00000558  6600 0492                bne        +0x494 /* 000009EC */
0000055C  7A01                     moveq.l    D5, 0x01
0000055E  6000 048C                bra        +0x48E /* 000009EC */
label00000562:
00000562  7003                     moveq.l    D0, 0x03
00000564  B047                     cmp.w      D0, D7
00000566  57C0                     seq        D0
00000568  4A00                     tst.b      D0
0000056A  6614                     bne        +0x16 /* 00000580 */
0000056C  7204                     moveq.l    D1, 0x04
0000056E  B247                     cmp.w      D1, D7
00000570  57C1                     seq        D1
00000572  8001                     or.b       D0, D1
00000574  660A                     bne        +0xC /* 00000580 */
00000576  7208                     moveq.l    D1, 0x08
00000578  B247                     cmp.w      D1, D7
0000057A  57C1                     seq        D1
0000057C  8001                     or.b       D0, D1
0000057E  6706                     beq        +0x8 /* 00000586 */
label00000580:
00000580  2F06                     move.l     -[A7], D6
00000582  4EBA FE5E                jsr        [PC - 0x1A2 /* 000003E2 */]
label00000586:
00000586  4267                     clr.w      -[A7]
00000588  4EBA FBB8                jsr        [PC - 0x448 /* 00000142 */]
0000058C  101F                     move.b     D0, [A7]+
0000058E  6620                     bne        +0x22 /* 000005B0 */
00000590  7003                     moveq.l    D0, 0x03
00000592  B047                     cmp.w      D0, D7
00000594  57C0                     seq        D0
00000596  4A00                     tst.b      D0
00000598  660A                     bne        +0xC /* 000005A4 */
0000059A  7206                     moveq.l    D1, 0x06
0000059C  B247                     cmp.w      D1, D7
0000059E  57C1                     seq        D1
000005A0  8001                     or.b       D0, D1
000005A2  670C                     beq        +0xE /* 000005B0 */
label000005A4:
000005A4  2F3C 0004 0002           move.l     -[A7], 0x40002
000005AA  2F06                     move.l     -[A7], D6
000005AC  4EBA FB48                jsr        [PC - 0x4B8 /* 000000F6 */]
label000005B0:
000005B0  4267                     clr.w      -[A7]
000005B2  4EBA FB8E                jsr        [PC - 0x472 /* 00000142 */]
000005B6  101F                     move.b     D0, [A7]+
000005B8  6600 0432                bne        +0x434 /* 000009EC */
000005BC  7003                     moveq.l    D0, 0x03
000005BE  B047                     cmp.w      D0, D7
000005C0  57C0                     seq        D0
000005C2  4A00                     tst.b      D0
000005C4  660A                     bne        +0xC /* 000005D0 */
000005C6  7204                     moveq.l    D1, 0x04
000005C8  B247                     cmp.w      D1, D7
000005CA  57C1                     seq        D1
000005CC  8001                     or.b       D0, D1
000005CE  6704                     beq        +0x6 /* 000005D4 */
label000005D0:
000005D0  4EBA FB04                jsr        [PC - 0x4FC /* 000000D6 */]
label000005D4:
000005D4  7000                     moveq.l    D0, 0x00
000005D6  2D40 FFE6                move.l     [A6 - 0x1A], D0
label000005DA:
000005DA  4267                     clr.w      -[A7]
000005DC  1F3C 0001                move.b     -[A7], 0x1
000005E0  486E FFE6                pea.l      [A6 - 0x1A]
000005E4  2F2C 0124                move.l     -[A7], [A4 + 0x124]
000005E8  3F3C 003C                move.w     -[A7], 0x3C /* '<' */
000005EC  A9E7                     syscall    Pack0/ListManager
000005EE  101F                     move.b     D0, [A7]+
000005F0  6700 03FA                beq        +0x3FC /* 000009EC */
000005F4  3D7C 00FF FFEA           move.w     [A6 - 0x16], 0xFF
000005FA  486E FDE0                pea.l      [A6 - 0x220]
000005FE  486E FFEA                pea.l      [A6 - 0x16]
00000602  2F2E FFE6                move.l     -[A7], [A6 - 0x1A]
00000606  2F2C 0124                move.l     -[A7], [A4 + 0x124]
0000060A  3F3C 0038                move.w     -[A7], 0x38 /* '8' */
0000060E  A9E7                     syscall    Pack0/ListManager
00000610  42A7                     clr.l      -[A7]
00000612  3F2C 0110                move.w     -[A7], [A4 + 0x110]
00000616  2F2E FFE6                move.l     -[A7], [A6 - 0x1A]
0000061A  2F2C 0124                move.l     -[A7], [A4 + 0x124]
0000061E  4EBA 03F6                jsr        [PC + 0x3F6 /* 00000A16 */]
00000622  2D5F FFF0                move.l     [A6 - 0x10], [A7]+
00000626  6700 00E2                beq        +0xE4 /* 0000070A */
0000062A  2F2E FFF0                move.l     -[A7], [A6 - 0x10]
0000062E  486E FDDC                pea.l      [A6 - 0x224]
00000632  486E FEE2                pea.l      [A6 - 0x11E]
00000636  486E FEE6                pea.l      [A6 - 0x11A]
0000063A  A9A8                     syscall    GetResInfo
0000063C  42A7                     clr.l      -[A7]
0000063E  302E FDDC                move.w     D0, [A6 - 0x224]
00000642  48C0                     ext.l      D0
00000644  2F00                     move.l     -[A7], D0
00000646  7080                     moveq.l    D0, 0xFFFFFF80
00000648  2F00                     move.l     -[A7], D0
0000064A  A858                     syscall    BitAnd
0000064C  201F                     move.l     D0, [A7]+
0000064E  3D40 FDDE                move.w     [A6 - 0x222], D0
00000652  42A7                     clr.l      -[A7]
00000654  3F2C 0110                move.w     -[A7], [A4 + 0x110]
00000658  2F3C 464F 4E54           move.l     -[A7], 0x464F4E54 /* 'FONT' */
0000065E  3F2E FDDE                move.w     -[A7], [A6 - 0x222]
00000662  4EBA F9FA                jsr        [PC - 0x606 /* 0000005E */]
00000666  2D5F FFF8                move.l     [A6 - 0x8], [A7]+
0000066A  7003                     moveq.l    D0, 0x03
0000066C  B047                     cmp.w      D0, D7
0000066E  57C0                     seq        D0
00000670  4A00                     tst.b      D0
00000672  660A                     bne        +0xC /* 0000067E */
00000674  7204                     moveq.l    D1, 0x04
00000676  B247                     cmp.w      D1, D7
00000678  57C1                     seq        D1
0000067A  8001                     or.b       D0, D1
0000067C  670E                     beq        +0x10 /* 0000068C */
label0000067E:
0000067E  2F3C 464F 4E54           move.l     -[A7], 0x464F4E54 /* 'FONT' */
00000684  486E FFF0                pea.l      [A6 - 0x10]
00000688  4EBA FA48                jsr        [PC - 0x5B8 /* 000000D2 */]
label0000068C:
0000068C  7008                     moveq.l    D0, 0x08
0000068E  B047                     cmp.w      D0, D7
00000690  663C                     bne        +0x3E /* 000006CE */
00000692  4267                     clr.w      -[A7]
00000694  3F2C 0110                move.w     -[A7], [A4 + 0x110]
00000698  486E FDDC                pea.l      [A6 - 0x224]
0000069C  486E FDD9                pea.l      [A6 - 0x227]
000006A0  4EBA 0C38                jsr        [PC + 0xC38 /* 000012DA */]
000006A4  101F                     move.b     D0, [A7]+
000006A6  6726                     beq        +0x28 /* 000006CE */
000006A8  2F2C 0104                move.l     -[A7], [A4 + 0x104]
000006AC  A873                     syscall    SetPort
000006AE  42A7                     clr.l      -[A7]
000006B0  2F2E FFF0                move.l     -[A7], [A6 - 0x10]
000006B4  2F2E FFE6                move.l     -[A7], [A6 - 0x1A]
000006B8  2F06                     move.l     -[A7], D6
000006BA  4EBA F9D6                jsr        [PC - 0x62A /* 00000092 */]
000006BE  2D57 FFF4                move.l     [A6 - 0xC], [A7]
000006C2  3F2E FDDC                move.w     -[A7], [A6 - 0x224]
000006C6  487A 0340                pea.l      [PC + 0x340 /* 00000A08, value 0xB46, cstring "" */]
000006CA  A9A9                     syscall    SetResInfo
000006CC  7A01                     moveq.l    D5, 0x01
label000006CE:
000006CE  7003                     moveq.l    D0, 0x03
000006D0  B047                     cmp.w      D0, D7
000006D2  660E                     bne        +0x10 /* 000006E2 */
000006D4  3F2C 0110                move.w     -[A7], [A4 + 0x110]
000006D8  2F2E FFF0                move.l     -[A7], [A6 - 0x10]
000006DC  4EBA FAB4                jsr        [PC - 0x54C /* 00000192 */]
000006E0  7A01                     moveq.l    D5, 0x01
label000006E2:
000006E2  7003                     moveq.l    D0, 0x03
000006E4  B047                     cmp.w      D0, D7
000006E6  57C0                     seq        D0
000006E8  4A00                     tst.b      D0
000006EA  660A                     bne        +0xC /* 000006F6 */
000006EC  7204                     moveq.l    D1, 0x04
000006EE  B247                     cmp.w      D1, D7
000006F0  57C1                     seq        D1
000006F2  8001                     or.b       D0, D1
000006F4  6714                     beq        +0x16 /* 0000070A */
label000006F6:
000006F6  4AAE FFF8                tst.l      [A6 - 0x8]
000006FA  670E                     beq        +0x10 /* 0000070A */
000006FC  2F3C 464F 4E54           move.l     -[A7], 0x464F4E54 /* 'FONT' */
00000702  486E FFF8                pea.l      [A6 - 0x8]
00000706  4EBA F9CA                jsr        [PC - 0x636 /* 000000D2 */]
label0000070A:
0000070A  202E FFF8                move.l     D0, [A6 - 0x8]
0000070E  B0AE FFF0                cmp.l      D0, [A6 - 0x10]
00000712  57C0                     seq        D0
00000714  4400                     neg.b      D0
00000716  1D40 FDDB                move.b     [A6 - 0x225], D0
0000071A  7006                     moveq.l    D0, 0x06
0000071C  B047                     cmp.w      D0, D7
0000071E  660E                     bne        +0x10 /* 0000072E */
00000720  3F2C 0110                move.w     -[A7], [A4 + 0x110]
00000724  2F2E FFF0                move.l     -[A7], [A6 - 0x10]
00000728  4EBA FA68                jsr        [PC - 0x598 /* 00000192 */]
0000072C  7A01                     moveq.l    D5, 0x01
label0000072E:
0000072E  102E FDDB                move.b     D0, [A6 - 0x225]
00000732  6600 0084                bne        +0x86 /* 000007B8 */
00000736  7006                     moveq.l    D0, 0x06
00000738  B047                     cmp.w      D0, D7
0000073A  57C0                     seq        D0
0000073C  4A00                     tst.b      D0
0000073E  660A                     bne        +0xC /* 0000074A */
00000740  7203                     moveq.l    D1, 0x03
00000742  B247                     cmp.w      D1, D7
00000744  57C1                     seq        D1
00000746  8001                     or.b       D0, D1
00000748  6768                     beq        +0x6A /* 000007B2 */
label0000074A:
0000074A  4267                     clr.w      -[A7]
0000074C  A99B                     syscall    SetResLoad
0000074E  426E FFEC                clr.w      [A6 - 0x14]
00000752  302E FDDE                move.w     D0, [A6 - 0x222]
00000756  5240                     addq.w     D0, 1
00000758  3D40 FDD6                move.w     [A6 - 0x22A], D0
0000075C  302E FDDE                move.w     D0, [A6 - 0x222]
00000760  D07C 007F                add.w      D0, 0x7F
00000764  3D40 FDD4                move.w     [A6 - 0x22C], D0
00000768  3D6E FDD6 FFEE           move.w     [A6 - 0x12], [A6 - 0x22A]
0000076E  6024                     bra        +0x26 /* 00000794 */
label00000770:
00000770  42A7                     clr.l      -[A7]
00000772  3F2C 0110                move.w     -[A7], [A4 + 0x110]
00000776  2F3C 464F 4E54           move.l     -[A7], 0x464F4E54 /* 'FONT' */
0000077C  3F2E FFEE                move.w     -[A7], [A6 - 0x12]
00000780  4EBA F8DC                jsr        [PC - 0x724 /* 0000005E */]
00000784  4A9F                     tst.l      [A7]+
00000786  6706                     beq        +0x8 /* 0000078E */
00000788  526E FFEC                addq.w     [A6 - 0x14], 1
0000078C  6010                     bra        +0x12 /* 0000079E */
label0000078E:
0000078E  526E FFEE                addq.w     [A6 - 0x12], 1
00000792  690A                     bvs        +0xC /* 0000079E */
label00000794:
00000794  302E FFEE                move.w     D0, [A6 - 0x12]
00000798  B06E FDD4                cmp.w      D0, [A6 - 0x22C]
0000079C  6FD2                     ble        -0x2C /* 00000770 */
label0000079E:
0000079E  4A6E FFEC                tst.w      [A6 - 0x14]
000007A2  660E                     bne        +0x10 /* 000007B2 */
000007A4  3F2C 0110                move.w     -[A7], [A4 + 0x110]
000007A8  2F2E FFF8                move.l     -[A7], [A6 - 0x8]
000007AC  4EBA F9E4                jsr        [PC - 0x61C /* 00000192 */]
000007B0  7A01                     moveq.l    D5, 0x01
label000007B2:
000007B2  1F3C 0001                move.b     -[A7], 0x1
000007B6  A99B                     syscall    SetResLoad
label000007B8:
000007B8  4267                     clr.w      -[A7]
000007BA  1F3C 0001                move.b     -[A7], 0x1
000007BE  1F3C 0001                move.b     -[A7], 0x1
000007C2  486E FFE6                pea.l      [A6 - 0x1A]
000007C6  2F2C 0124                move.l     -[A7], [A4 + 0x124]
000007CA  3F3C 0048                move.w     -[A7], 0x48 /* 'H' */
000007CE  A9E7                     syscall    Pack0/ListManager
000007D0  101F                     move.b     D0, [A7]+
000007D2  6600 FE06                bne        -0x1F8 /* 000005DA */
000007D6  6000 0214                bra        +0x216 /* 000009EC */
000007DA  6000 0210                bra        +0x212 /* 000009EC */
label000007DE:
000007DE  0C44 0080                cmpi.w     D4, 0x80
000007E2  57C0                     seq        D0
000007E4  4A00                     tst.b      D0
000007E6  6700 01B6                beq        +0x1B8 /* 0000099E */
000007EA  7201                     moveq.l    D1, 0x01
000007EC  B247                     cmp.w      D1, D7
000007EE  57C1                     seq        D1
000007F0  C001                     and.b      D0, D1
000007F2  6700 01AA                beq        +0x1AC /* 0000099E */
000007F6  4267                     clr.w      -[A7]
000007F8  1F3C 0003                move.b     -[A7], 0x3
000007FC  487A 020C                pea.l      [PC + 0x20C /* 00000A0A, value 0xB466F6E, pstring "Font Alerts" */]
00000800  3F3C 0004                move.w     -[A7], 0x4
00000804  4EBA F900                jsr        [PC - 0x700 /* 00000106 */]
00000808  101F                     move.b     D0, [A7]+
0000080A  6700 01E0                beq        +0x1E2 /* 000009EC */
0000080E  7000                     moveq.l    D0, 0x00
00000810  2D40 FFE6                move.l     [A6 - 0x1A], D0
label00000814:
00000814  4267                     clr.w      -[A7]
00000816  1F3C 0001                move.b     -[A7], 0x1
0000081A  486E FFE6                pea.l      [A6 - 0x1A]
0000081E  2F2C 0124                move.l     -[A7], [A4 + 0x124]
00000822  3F3C 003C                move.w     -[A7], 0x3C /* '<' */
00000826  A9E7                     syscall    Pack0/ListManager
00000828  101F                     move.b     D0, [A7]+
0000082A  6712                     beq        +0x14 /* 0000083E */
0000082C  4267                     clr.w      -[A7]
0000082E  2F2E FFE6                move.l     -[A7], [A6 - 0x1A]
00000832  2F2C 0124                move.l     -[A7], [A4 + 0x124]
00000836  3F3C 005C                move.w     -[A7], 0x5C /* '\\' */
0000083A  A9E7                     syscall    Pack0/ListManager
0000083C  60D6                     bra        -0x28 /* 00000814 */
label0000083E:
0000083E  426E FDDC                clr.w      [A6 - 0x224]
00000842  4267                     clr.w      -[A7]
00000844  3F2C 0110                move.w     -[A7], [A4 + 0x110]
00000848  486E FDDC                pea.l      [A6 - 0x224]
0000084C  486E FDD9                pea.l      [A6 - 0x227]
00000850  4EBA 0A88                jsr        [PC + 0xA88 /* 000012DA */]
00000854  101F                     move.b     D0, [A7]+
00000856  6700 0194                beq        +0x196 /* 000009EC */
0000085A  4267                     clr.w      -[A7]
0000085C  2F2C 0124                move.l     -[A7], [A4 + 0x124]
00000860  3F3C 002C                move.w     -[A7], 0x2C /* ',' */
00000864  A9E7                     syscall    Pack0/ListManager
00000866  42A7                     clr.l      -[A7]
00000868  3F2C 0110                move.w     -[A7], [A4 + 0x110]
0000086C  2F2C 011C                move.l     -[A7], [A4 + 0x11C]
00000870  2F3C 464F 4E54           move.l     -[A7], 0x464F4E54 /* 'FONT' */
00000876  4EBA F922                jsr        [PC - 0x6DE /* 0000019A */]
0000087A  265F                     movea.l    A3, [A7]+
0000087C  2053                     movea.l    A0, [A3]
0000087E  20BC 9000 0020           move.l     [A0], 0x90000020
00000884  2053                     movea.l    A0, [A3]
00000886  217C 0020 0004 0004      move.l     [A0 + 0x4], 0x200004
0000088E  2053                     movea.l    A0, [A3]
00000890  7000                     moveq.l    D0, 0x00
00000892  2140 0008                move.l     [A0 + 0x8], D0
00000896  2053                     movea.l    A0, [A3]
00000898  217C 0004 0004 000C      move.l     [A0 + 0xC], 0x40004
000008A0  2053                     movea.l    A0, [A3]
000008A2  217C 000C 0002 0010      move.l     [A0 + 0x10], 0xC0002
000008AA  2053                     movea.l    A0, [A3]
000008AC  217C 0002 0000 0014      move.l     [A0 + 0x14], 0x20000
000008B4  2053                     movea.l    A0, [A3]
000008B6  217C 0001 FFFF 0018      move.l     [A0 + 0x18], 0x1FFFF
000008BE  2053                     movea.l    A0, [A3]
000008C0  217C 9999 9999 001C      move.l     [A0 + 0x1C], 0x99999999
000008C8  2053                     movea.l    A0, [A3]
000008CA  217C FFFF 0000 0020      move.l     [A0 + 0x20], 0xFFFF0000
000008D2  2053                     movea.l    A0, [A3]
000008D4  7004                     moveq.l    D0, 0x04
000008D6  2140 0024                move.l     [A0 + 0x24], D0
000008DA  2053                     movea.l    A0, [A3]
000008DC  217C 0001 0005 0028      move.l     [A0 + 0x28], 0x10005
000008E4  1F3C 0001                move.b     -[A7], 0x1
000008E8  2F2C 0124                move.l     -[A7], [A4 + 0x124]
000008EC  3F3C 002C                move.w     -[A7], 0x2C /* ',' */
000008F0  A9E7                     syscall    Pack0/ListManager
000008F2  2F0B                     move.l     -[A7], A3
000008F4  3F2E FDDC                move.w     -[A7], [A6 - 0x224]
000008F8  487A 010E                pea.l      [PC + 0x10E /* 00000A08, value 0xB46, cstring "" */]
000008FC  A9A9                     syscall    SetResInfo
000008FE  2F0B                     move.l     -[A7], A3
00000900  205F                     movea.l    A0, [A7]+
00000902  A04A                     syscall    HNoPurge
00000904  2F06                     move.l     -[A7], D6
00000906  4EBA 01BA                jsr        [PC + 0x1BA /* 00000AC2 */]
0000090A  2F06                     move.l     -[A7], D6
0000090C  205F                     movea.l    A0, [A7]+
0000090E  A029                     syscall    HLock
00000910  3F2C 0110                move.w     -[A7], [A4 + 0x110]
00000914  A998                     syscall    UseResFile
00000916  302E FDDC                move.w     D0, [A6 - 0x224]
0000091A  48C0                     ext.l      D0
0000091C  81FC 0080                divs.w     D0, 0x80
00000920  3F00                     move.w     -[A7], D0
00000922  486E FDE2                pea.l      [A6 - 0x21E]
00000926  A8FF                     syscall    GetFName/GetFontName
00000928  4EBA F730                jsr        [PC - 0x8D0 /* 0000005A */]
0000092C  3D6E FDDC FDE0           move.w     [A6 - 0x220], [A6 - 0x224]
00000932  7000                     moveq.l    D0, 0x00
00000934  2D40 FFE6                move.l     [A6 - 0x1A], D0
00000938  4240                     clr.w      D0
0000093A  102E FDE2                move.b     D0, [A6 - 0x21E]
0000093E  5440                     addq.w     D0, 2
00000940  5240                     addq.w     D0, 1
00000942  3D40 FFEA                move.w     [A6 - 0x16], D0
00000946  4267                     clr.w      -[A7]
00000948  486E FDE0                pea.l      [A6 - 0x220]
0000094C  3F2E FFEA                move.w     -[A7], [A6 - 0x16]
00000950  487A FA32                pea.l      [PC - 0x5CE /* 00000384, value 0x4E56FFFA */]
00000954  486E FFE6                pea.l      [A6 - 0x1A]
00000958  2F2C 0124                move.l     -[A7], [A4 + 0x124]
0000095C  3F3C 0054                move.w     -[A7], 0x54 /* 'T' */
00000960  A9E7                     syscall    Pack0/ListManager
00000962  101F                     move.b     D0, [A7]+
00000964  671C                     beq        +0x1E /* 00000982 */
00000966  1F3C 0001                move.b     -[A7], 0x1
0000096A  2F2E FFE6                move.l     -[A7], [A6 - 0x1A]
0000096E  2F2C 0124                move.l     -[A7], [A4 + 0x124]
00000972  3F3C 005C                move.w     -[A7], 0x5C /* '\\' */
00000976  A9E7                     syscall    Pack0/ListManager
00000978  2F2C 0124                move.l     -[A7], [A4 + 0x124]
0000097C  3F3C 0010                move.w     -[A7], 0x10
00000980  A9E7                     syscall    Pack0/ListManager
label00000982:
00000982  206C 0104                movea.l    A0, [A4 + 0x104]
00000986  2F28 0018                move.l     -[A7], [A0 + 0x18]
0000098A  2F2C 0124                move.l     -[A7], [A4 + 0x124]
0000098E  3F3C 0064                move.w     -[A7], 0x64 /* 'd' */
00000992  A9E7                     syscall    Pack0/ListManager
00000994  2F0B                     move.l     -[A7], A3
00000996  2F06                     move.l     -[A7], D6
00000998  4EBA F718                jsr        [PC - 0x8E8 /* 000000B2 */]
0000099C  604E                     bra        +0x50 /* 000009EC */
label0000099E:
0000099E  3F04                     move.w     -[A7], D4
000009A0  3F07                     move.w     -[A7], D7
000009A2  2F06                     move.l     -[A7], D6
000009A4  4EBA F724                jsr        [PC - 0x8DC /* 000000CA */]
000009A8  7002                     moveq.l    D0, 0x02
000009AA  B044                     cmp.w      D0, D4
000009AC  57C0                     seq        D0
000009AE  4A00                     tst.b      D0
000009B0  670C                     beq        +0xE /* 000009BE */
000009B2  7204                     moveq.l    D1, 0x04
000009B4  B247                     cmp.w      D1, D7
000009B6  57C1                     seq        D1
000009B8  C001                     and.b      D0, D1
000009BA  6702                     beq        +0x4 /* 000009BE */
000009BC  603E                     bra        +0x40 /* 000009FC */
label000009BE:
000009BE  0C44 0080                cmpi.w     D4, 0x80
000009C2  57C0                     seq        D0
000009C4  4A00                     tst.b      D0
000009C6  670C                     beq        +0xE /* 000009D4 */
000009C8  7206                     moveq.l    D1, 0x06
000009CA  B247                     cmp.w      D1, D7
000009CC  57C1                     seq        D1
000009CE  C001                     and.b      D0, D1
000009D0  6702                     beq        +0x4 /* 000009D4 */
000009D2  7A01                     moveq.l    D5, 0x01
label000009D4:
000009D4  0C44 0082                cmpi.w     D4, 0x82
000009D8  57C0                     seq        D0
000009DA  4A00                     tst.b      D0
000009DC  670E                     beq        +0x10 /* 000009EC */
000009DE  7204                     moveq.l    D1, 0x04
000009E0  B22C 012A                cmp.b      D1, [A4 + 0x12A]
000009E4  57C1                     seq        D1
000009E6  C001                     and.b      D0, D1
000009E8  6702                     beq        +0x4 /* 000009EC */
000009EA  7A01                     moveq.l    D5, 0x01
label000009EC:
000009EC  1005                     move.b     D0, D5
000009EE  6706                     beq        +0x8 /* 000009F6 */
000009F0  2F06                     move.l     -[A7], D6
000009F2  4EBA 00CE                jsr        [PC + 0xCE /* 00000AC2 */]
label000009F6:
000009F6  2F06                     move.l     -[A7], D6
000009F8  205F                     movea.l    A0, [A7]+
000009FA  A02A                     syscall    HUnlock
label000009FC:
000009FC  4CDF 18F0                movem.l    D4,D5,D6,D7,A3,A4, [A7]+
00000A00  4E5E                     unlink     A6
00000A02  205F                     movea.l    A0, [A7]+
00000A04  504F                     addq.w     A7, 8
00000A06  4ED0                     jmp        [A0]
00000A08  0000 0B46                ori.b      D0, 0x46 /* 'F' */
00000A0C  6F6E                     ble        +0x70 /* 00000A7C */
00000A0E  7420                     moveq.l    D2, 0x20
00000A10  416C 6572                chk.w      D0, [A4 + 0x6572]
00000A14  7473                     moveq.l    D2, 0x73
fn00000A16:
00000A16  4E56 FEFC                link       A6, -0x0104
00000A1A  7000                     moveq.l    D0, 0x00
00000A1C  2D40 0012                move.l     [A6 + 0x12], D0
00000A20  3D7C 00FF FEFC           move.w     [A6 - 0x104], 0xFF
00000A26  486E FEFE                pea.l      [A6 - 0x102]
00000A2A  486E FEFC                pea.l      [A6 - 0x104]
00000A2E  2F2E 000C                move.l     -[A7], [A6 + 0xC]
00000A32  2F2E 0008                move.l     -[A7], [A6 + 0x8]
00000A36  3F3C 0038                move.w     -[A7], 0x38 /* '8' */
00000A3A  A9E7                     syscall    Pack0/ListManager
00000A3C  4A6E FEFC                tst.w      [A6 - 0x104]
00000A40  6F18                     ble        +0x1A /* 00000A5A */
00000A42  42A7                     clr.l      -[A7]
00000A44  3F2E 0010                move.w     -[A7], [A6 + 0x10]
00000A48  2F3C 464F 4E54           move.l     -[A7], 0x464F4E54 /* 'FONT' */
00000A4E  3F2E FEFE                move.w     -[A7], [A6 - 0x102]
00000A52  4EBA F60A                jsr        [PC - 0x9F6 /* 0000005E */]
00000A56  2D5F 0012                move.l     [A6 + 0x12], [A7]+
label00000A5A:
00000A5A  4E5E                     unlink     A6
00000A5C  205F                     movea.l    A0, [A7]+
00000A5E  DEFC 000A                add.w      A7, 0xA /* '\n' */
00000A62  4ED0                     jmp        [A0]
fn00000A64:
00000A64  4E56 FFFE                link       A6, -0x0002
00000A68  48E7 0118                movem.l    -[A7], D7,A3,A4
00000A6C  266E 0008                movea.l    A3, [A6 + 0x8]
00000A70  286E 000C                movea.l    A4, [A6 + 0xC]
00000A74  7E01                     moveq.l    D7, 0x01
label00000A76:
00000A76  4240                     clr.w      D0
00000A78  1014                     move.b     D0, [A4]
00000A7A  B047                     cmp.w      D0, D7
label00000A7C:
00000A7C  5EC0                     sgt        D0
00000A7E  4241                     clr.w      D1
00000A80  1213                     move.b     D1, [A3]
00000A82  B247                     cmp.w      D1, D7
00000A84  5EC1                     sgt        D1
00000A86  C001                     and.b      D0, D1
00000A88  4241                     clr.w      D1
00000A8A  1234 7000                move.b     D1, [A4 + D7.w]
00000A8E  4242                     clr.w      D2
00000A90  1433 7000                move.b     D2, [A3 + D7.w]
00000A94  B441                     cmp.w      D2, D1
00000A96  57C1                     seq        D1
00000A98  C001                     and.b      D0, D1
00000A9A  6704                     beq        +0x6 /* 00000AA0 */
00000A9C  5247                     addq.w     D7, 1
00000A9E  60D6                     bra        -0x28 /* 00000A76 */
label00000AA0:
00000AA0  4240                     clr.w      D0
00000AA2  1034 7000                move.b     D0, [A4 + D7.w]
00000AA6  4241                     clr.w      D1
00000AA8  1233 7000                move.b     D1, [A3 + D7.w]
00000AAC  B240                     cmp.w      D1, D0
00000AAE  5EC0                     sgt        D0
00000AB0  4400                     neg.b      D0
00000AB2  1D40 0010                move.b     [A6 + 0x10], D0
00000AB6  4CDF 1880                movem.l    D7,A3,A4, [A7]+
00000ABA  4E5E                     unlink     A6
00000ABC  205F                     movea.l    A0, [A7]+
00000ABE  504F                     addq.w     A7, 8
00000AC0  4ED0                     jmp        [A0]
fn00000AC2:
00000AC2  4E56 FADA                link       A6, -0x0526
00000AC6  48E7 0F08                movem.l    -[A7], D4,D5,D6,D7,A4
00000ACA  2F2E 0008                move.l     -[A7], [A6 + 0x8]
00000ACE  4EBA F57E                jsr        [PC - 0xA82 /* 0000004E */]
00000AD2  2F2E 0008                move.l     -[A7], [A6 + 0x8]
00000AD6  205F                     movea.l    A0, [A7]+
00000AD8  A029                     syscall    HLock
00000ADA  206E 0008                movea.l    A0, [A6 + 0x8]
00000ADE  2850                     movea.l    A4, [A0]
00000AE0  2F2C 0104                move.l     -[A7], [A4 + 0x104]
00000AE4  A873                     syscall    SetPort
00000AE6  4267                     clr.w      -[A7]
00000AE8  2F2C 0124                move.l     -[A7], [A4 + 0x124]
00000AEC  3F3C 002C                move.w     -[A7], 0x2C /* ',' */
00000AF0  A9E7                     syscall    Pack0/ListManager
00000AF2  42A7                     clr.l      -[A7]
00000AF4  2F2C 0124                move.l     -[A7], [A4 + 0x124]
00000AF8  3F3C 0024                move.w     -[A7], 0x24 /* '$' */
00000AFC  A9E7                     syscall    Pack0/ListManager
00000AFE  4267                     clr.w      -[A7]
00000B00  3F2C 0110                move.w     -[A7], [A4 + 0x110]
00000B04  2F3C 464F 4E54           move.l     -[A7], 0x464F4E54 /* 'FONT' */
00000B0A  4EBA F54A                jsr        [PC - 0xAB6 /* 00000056 */]
00000B0E  395F 0128                move.w     [A4 + 0x128], [A7]+
00000B12  3D6C 0128 FADA           move.w     [A6 - 0x526], [A4 + 0x128]
00000B18  3A2E FADA                move.w     D5, [A6 - 0x526]
00000B1C  6000 018C                bra        +0x18E /* 00000CAA */
label00000B20:
00000B20  4267                     clr.w      -[A7]
00000B22  A99B                     syscall    SetResLoad
00000B24  42A7                     clr.l      -[A7]
00000B26  3F2C 0110                move.w     -[A7], [A4 + 0x110]
00000B2A  2F3C 464F 4E54           move.l     -[A7], 0x464F4E54 /* 'FONT' */
00000B30  3F05                     move.w     -[A7], D5
00000B32  4EBA F51E                jsr        [PC - 0xAE2 /* 00000052 */]
00000B36  2D57 FAE4                move.l     [A6 - 0x51C], [A7]
00000B3A  486E FFFC                pea.l      [A6 - 0x4]
00000B3E  486E FADC                pea.l      [A6 - 0x524]
00000B42  486E FCE8                pea.l      [A6 - 0x318]
00000B46  A9A8                     syscall    GetResInfo
00000B48  3D6E FFFC FDE8           move.w     [A6 - 0x218], [A6 - 0x4]
00000B4E  302E FFFC                move.w     D0, [A6 - 0x4]
00000B52  48C0                     ext.l      D0
00000B54  C0BC 0000 FFFF           and.l      D0, 0xFFFF
00000B5A  EE88                     lsr        D0, 7
00000B5C  3800                     move.w     D4, D0
00000B5E  42A7                     clr.l      -[A7]
00000B60  707F                     moveq.l    D0, 0x7F
00000B62  2F00                     move.l     -[A7], D0
00000B64  302E FFFC                move.w     D0, [A6 - 0x4]
00000B68  48C0                     ext.l      D0
00000B6A  2F00                     move.l     -[A7], D0
00000B6C  A858                     syscall    BitAnd
00000B6E  201F                     move.l     D0, [A7]+
00000B70  3D40 FFF0                move.w     [A6 - 0x10], D0
00000B74  4247                     clr.w      D7
00000B76  206C 0124                movea.l    A0, [A4 + 0x124]
00000B7A  2050                     movea.l    A0, [A0]
00000B7C  3C28 004C                move.w     D6, [A0 + 0x4C]
00000B80  426E FAE2                clr.w      [A6 - 0x51E]
00000B84  3F2C 0110                move.w     -[A7], [A4 + 0x110]
00000B88  A998                     syscall    UseResFile
00000B8A  3F04                     move.w     -[A7], D4
00000B8C  486E FAE8                pea.l      [A6 - 0x518]
00000B90  A8FF                     syscall    GetFName/GetFontName
00000B92  4EBA F4C6                jsr        [PC - 0xB3A /* 0000005A */]
00000B96  41EE FDEA                lea.l      A0, [A6 - 0x216]
00000B9A  43EE FAE8                lea.l      A1, [A6 - 0x518]
00000B9E  707F                     moveq.l    D0, 0x7F
label00000BA0:
00000BA0  30D9                     move.w     [A0]+, [A1]+
00000BA2  51C8 FFFC                dbf        D0, -0x6 /* 00000BA0 */
00000BA6  486E FAE8                pea.l      [A6 - 0x518]
00000BAA  4267                     clr.w      -[A7]
00000BAC  4EBA 0B1E                jsr        [PC + 0xB1E /* 000016CC */]
label00000BB0:
00000BB0  3006                     move.w     D0, D6
00000BB2  9047                     sub.w      D0, D7
00000BB4  6700 00B2                beq        +0xB4 /* 00000C68 */
00000BB8  3006                     move.w     D0, D6
00000BBA  9047                     sub.w      D0, D7
00000BBC  48C0                     ext.l      D0
00000BBE  81FC 0002                divs.w     D0, 0x2
00000BC2  D047                     add.w      D0, D7
00000BC4  3D40 FAE0                move.w     [A6 - 0x520], D0
00000BC8  3D7C 0102 FFF4           move.w     [A6 - 0xC], 0x102
00000BCE  486E FEEA                pea.l      [A6 - 0x116]
00000BD2  486E FFF4                pea.l      [A6 - 0xC]
00000BD6  2F2E FAE0                move.l     -[A7], [A6 - 0x520]
00000BDA  2F2C 0124                move.l     -[A7], [A4 + 0x124]
00000BDE  3F3C 0038                move.w     -[A7], 0x38 /* '8' */
00000BE2  A9E7                     syscall    Pack0/ListManager
00000BE4  302E FEEA                move.w     D0, [A6 - 0x116]
00000BE8  48C0                     ext.l      D0
00000BEA  81FC 0080                divs.w     D0, 0x80
00000BEE  3D40 FFEC                move.w     [A6 - 0x14], D0
00000BF2  42A7                     clr.l      -[A7]
00000BF4  707F                     moveq.l    D0, 0x7F
00000BF6  2F00                     move.l     -[A7], D0
00000BF8  302E FEEA                move.w     D0, [A6 - 0x116]
00000BFC  48C0                     ext.l      D0
00000BFE  2F00                     move.l     -[A7], D0
00000C00  A858                     syscall    BitAnd
00000C02  201F                     move.l     D0, [A7]+
00000C04  3D40 FFEE                move.w     [A6 - 0x12], D0
00000C08  B86E FFEC                cmp.w      D4, [A6 - 0x14]
00000C0C  673E                     beq        +0x40 /* 00000C4C */
00000C0E  41EE FBE8                lea.l      A0, [A6 - 0x418]
00000C12  43EE FEEC                lea.l      A1, [A6 - 0x114]
00000C16  707F                     moveq.l    D0, 0x7F
label00000C18:
00000C18  30D9                     move.w     [A0]+, [A1]+
00000C1A  51C8 FFFC                dbf        D0, -0x6 /* 00000C18 */
00000C1E  486E FBE8                pea.l      [A6 - 0x418]
00000C22  4267                     clr.w      -[A7]
00000C24  4EBA 0AA6                jsr        [PC + 0xAA6 /* 000016CC */]
00000C28  4267                     clr.w      -[A7]
00000C2A  486E FBE8                pea.l      [A6 - 0x418]
00000C2E  486E FAE8                pea.l      [A6 - 0x518]
00000C32  4EBA FE30                jsr        [PC - 0x1D0 /* 00000A64 */]
00000C36  101F                     move.b     D0, [A7]+
00000C38  670A                     beq        +0xC /* 00000C44 */
00000C3A  3E2E FAE0                move.w     D7, [A6 - 0x520]
00000C3E  5247                     addq.w     D7, 1
00000C40  6000 FF6E                bra        -0x90 /* 00000BB0 */
label00000C44:
00000C44  3C2E FAE0                move.w     D6, [A6 - 0x520]
00000C48  6000 FF66                bra        -0x98 /* 00000BB0 */
label00000C4C:
00000C4C  302E FFEE                move.w     D0, [A6 - 0x12]
00000C50  B06E FFF0                cmp.w      D0, [A6 - 0x10]
00000C54  6C0A                     bge        +0xC /* 00000C60 */
00000C56  3E2E FAE0                move.w     D7, [A6 - 0x520]
00000C5A  5247                     addq.w     D7, 1
00000C5C  6000 FF52                bra        -0xAC /* 00000BB0 */
label00000C60:
00000C60  3C2E FAE0                move.w     D6, [A6 - 0x520]
00000C64  6000 FF4A                bra        -0xB4 /* 00000BB0 */
label00000C68:
00000C68  3D46 FAE0                move.w     [A6 - 0x520], D6
00000C6C  2F3C 0001 0000           move.l     -[A7], 0x10000
00000C72  3F2E FAE0                move.w     -[A7], [A6 - 0x520]
00000C76  2F2C 0124                move.l     -[A7], [A4 + 0x124]
00000C7A  3F3C 0008                move.w     -[A7], 0x8
00000C7E  A9E7                     syscall    Pack0/ListManager
00000C80  3D5F FAE0                move.w     [A6 - 0x520], [A7]+
00000C84  4240                     clr.w      D0
00000C86  102E FDEA                move.b     D0, [A6 - 0x216]
00000C8A  5440                     addq.w     D0, 2
00000C8C  5240                     addq.w     D0, 1
00000C8E  3D40 FFF4                move.w     [A6 - 0xC], D0
00000C92  486E FDE8                pea.l      [A6 - 0x218]
00000C96  3F2E FFF4                move.w     -[A7], [A6 - 0xC]
00000C9A  2F2E FAE0                move.l     -[A7], [A6 - 0x520]
00000C9E  2F2C 0124                move.l     -[A7], [A4 + 0x124]
00000CA2  3F3C 0058                move.w     -[A7], 0x58 /* 'X' */
00000CA6  A9E7                     syscall    Pack0/ListManager
00000CA8  5345                     subq.w     D5, 1
label00000CAA:
00000CAA  7001                     moveq.l    D0, 0x01
00000CAC  B045                     cmp.w      D0, D5
00000CAE  6F00 FE70                ble        -0x18E /* 00000B20 */
00000CB2  1F3C 0001                move.b     -[A7], 0x1
00000CB6  A99B                     syscall    SetResLoad
00000CB8  1F3C 0001                move.b     -[A7], 0x1
00000CBC  2F2C 0124                move.l     -[A7], [A4 + 0x124]
00000CC0  3F3C 002C                move.w     -[A7], 0x2C /* ',' */
00000CC4  A9E7                     syscall    Pack0/ListManager
00000CC6  206C 0104                movea.l    A0, [A4 + 0x104]
00000CCA  4868 0010                pea.l      [A0 + 0x10]
00000CCE  A928                     syscall    InvalRect
00000CD0  206C 0124                movea.l    A0, [A4 + 0x124]
00000CD4  2050                     movea.l    A0, [A0]
00000CD6  226C 0124                movea.l    A1, [A4 + 0x124]
00000CDA  2251                     movea.l    A1, [A1]
00000CDC  3028 0018                move.w     D0, [A0 + 0x18]
00000CE0  B069 004C                cmp.w      D0, [A1 + 0x4C]
00000CE4  6F0A                     ble        +0xC /* 00000CF0 */
00000CE6  206C 0124                movea.l    A0, [A4 + 0x124]
00000CEA  2050                     movea.l    A0, [A0]
00000CEC  2F08                     move.l     -[A7], A0
00000CEE  A8A3                     syscall    EraseRect
label00000CF0:
00000CF0  7004                     moveq.l    D0, 0x04
00000CF2  B02C 012A                cmp.b      D0, [A4 + 0x12A]
00000CF6  6712                     beq        +0x14 /* 00000D0A */
00000CF8  4267                     clr.w      -[A7]
00000CFA  2F2C 0118                move.l     -[A7], [A4 + 0x118]
00000CFE  2F2C 0124                move.l     -[A7], [A4 + 0x124]
00000D02  4EBA F412                jsr        [PC - 0xBEE /* 00000116 */]
00000D06  3D5F FFFE                move.w     [A6 - 0x2], [A7]+
label00000D0A:
00000D0A  2F2E 0008                move.l     -[A7], [A6 + 0x8]
00000D0E  205F                     movea.l    A0, [A7]+
00000D10  A02A                     syscall    HUnlock
00000D12  4CDF 10F0                movem.l    D4,D5,D6,D7,A4, [A7]+
00000D16  4E5E                     unlink     A6
00000D18  2E9F                     move.l     [A7], [A7]+
00000D1A  4E75                     rts
00000D1C  4E56 FFEE                link       A6, -0x0012
00000D20  48E7 0018                movem.l    -[A7], A3,A4
00000D24  2F2E 000A                move.l     -[A7], [A6 + 0xA]
00000D28  3F2E 0008                move.w     -[A7], [A6 + 0x8]
00000D2C  486E FFFA                pea.l      [A6 - 0x6]
00000D30  486E FFF6                pea.l      [A6 - 0xA]
00000D34  486E FFEE                pea.l      [A6 - 0x12]
00000D38  A98D                     syscall    GetDialogItem/GetDItem
00000D3A  486E FFEE                pea.l      [A6 - 0x12]
00000D3E  A8A1                     syscall    FrameRect
00000D40  286E 000A                movea.l    A4, [A6 + 0xA]
00000D44  42A7                     clr.l      -[A7]
00000D46  A8D8                     syscall    NewRgn
00000D48  265F                     movea.l    A3, [A7]+
00000D4A  2F0B                     move.l     -[A7], A3
00000D4C  486C 0010                pea.l      [A4 + 0x10]
00000D50  A8DF                     syscall    RectRgn
00000D52  2F0B                     move.l     -[A7], A3
00000D54  2F2C 0098                move.l     -[A7], [A4 + 0x98]
00000D58  3F3C 0064                move.w     -[A7], 0x64 /* 'd' */
00000D5C  A9E7                     syscall    Pack0/ListManager
00000D5E  2F0B                     move.l     -[A7], A3
00000D60  A8D9                     syscall    DisposRgn/DisposeRgn
00000D62  4CDF 1800                movem.l    A3,A4, [A7]+
00000D66  4E5E                     unlink     A6
00000D68  205F                     movea.l    A0, [A7]+
00000D6A  5C4F                     addq.w     A7, 6
00000D6C  4ED0                     jmp        [A0]
00000D6E  4E56 FFFC                link       A6, -0x0004
00000D72  48E7 0718                movem.l    -[A7], D5,D6,D7,A3,A4
00000D76  266E 0008                movea.l    A3, [A6 + 0x8]
00000D7A  286E 000C                movea.l    A4, [A6 + 0xC]
00000D7E  2A2E 0010                move.l     D5, [A6 + 0x10]
00000D82  4207                     clr.b      D7
00000D84  3014                     move.w     D0, [A4]
00000D86  5740                     subq.w     D0, 3
00000D88  6706                     beq        +0x8 /* 00000D90 */
00000D8A  5740                     subq.w     D0, 3
00000D8C  6766                     beq        +0x68 /* 00000DF4 */
00000D8E  6074                     bra        +0x76 /* 00000E04 */
label00000D90:
00000D90  203C 0000 00FF           move.l     D0, 0xFF
00000D96  C0AC 0002                and.l      D0, [A4 + 0x2]
00000D9A  3C00                     move.w     D6, D0
00000D9C  6B18                     bmi        +0x1A /* 00000DB6 */
00000D9E  B07C 000F                cmp.w      D0, 0xF
00000DA2  6E12                     bgt        +0x14 /* 00000DB6 */
00000DA4  41FA 007E                lea.l      A0, [PC + 0x7E /* 00000E24, value 0x4E56FFFE */]
00000DA8  3200                     move.w     D1, D0
00000DAA  E649                     lsr        D1.w, 3
00000DAC  4441                     neg.w      D1
00000DAE  0130 10FF                btst       [A0 + D1.w - 0x1], D0
00000DB2  0A3C 0004                xori.b     ccr, 4
label00000DB6:
00000DB6  6608                     bne        +0xA /* 00000DC0 */
00000DB8  7E01                     moveq.l    D7, 0x01
00000DBA  36BC 0001                move.w     [A3], 0x1
00000DBE  6044                     bra        +0x46 /* 00000E04 */
label00000DC0:
00000DC0  7000                     moveq.l    D0, 0x00
00000DC2  302C 000E                move.w     D0, [A4 + 0xE]
00000DC6  C0BC 0000 0100           and.l      D0, 0x100
00000DCC  0C80 0000 0100           cmpi.l     D0, 0x100
00000DD2  57C0                     seq        D0
00000DD4  4A00                     tst.b      D0
00000DD6  670A                     beq        +0xC /* 00000DE2 */
00000DD8  722E                     moveq.l    D1, 0x2E
00000DDA  B246                     cmp.w      D1, D6
00000DDC  57C1                     seq        D1
00000DDE  C001                     and.b      D0, D1
00000DE0  660A                     bne        +0xC /* 00000DEC */
label00000DE2:
00000DE2  721B                     moveq.l    D1, 0x1B
00000DE4  B246                     cmp.w      D1, D6
00000DE6  57C1                     seq        D1
00000DE8  8001                     or.b       D0, D1
00000DEA  6718                     beq        +0x1A /* 00000E04 */
label00000DEC:
00000DEC  36BC 0002                move.w     [A3], 0x2
00000DF0  7E01                     moveq.l    D7, 0x01
00000DF2  6010                     bra        +0x12 /* 00000E04 */
label00000DF4:
00000DF4  BAAC 0002                cmp.l      D5, [A4 + 0x2]
00000DF8  660A                     bne        +0xC /* 00000E04 */
00000DFA  2F05                     move.l     -[A7], D5
00000DFC  3F3C 0001                move.w     -[A7], 0x1
00000E00  4EBA F324                jsr        [PC - 0xCDC /* 00000126 */]
label00000E04:
00000E04  1007                     move.b     D0, D7
00000E06  6708                     beq        +0xA /* 00000E10 */
00000E08  2F05                     move.l     -[A7], D5
00000E0A  3F13                     move.w     -[A7], [A3]
00000E0C  4EBA F31C                jsr        [PC - 0xCE4 /* 0000012A */]
label00000E10:
00000E10  1D47 0014                move.b     [A6 + 0x14], D7
00000E14  4CDF 18E0                movem.l    D5,D6,D7,A3,A4, [A7]+
00000E18  4E5E                     unlink     A6
00000E1A  205F                     movea.l    A0, [A7]+
00000E1C  DEFC 000C                add.w      A7, 0xC
00000E20  4ED0                     jmp        [A0]
00000E22  2008                     move.l     D0, A0
fn00000E24:
00000E24  4E56 FFFE                link       A6, -0x0002
00000E28  48E7 0108                movem.l    -[A7], D7,A4
00000E2C  286E 0008                movea.l    A4, [A6 + 0x8]
00000E30  7E01                     moveq.l    D7, 0x01
00000E32  4267                     clr.w      -[A7]
00000E34  2F2E 000C                move.l     -[A7], [A6 + 0xC]
00000E38  487A 02F4                pea.l      [PC + 0x2F4 /* 0000112E, value 0x7436869, pstring "Chicago" */]
00000E3C  4267                     clr.w      -[A7]
00000E3E  1F3C 0001                move.b     -[A7], 0x1
00000E42  4EBA 0848                jsr        [PC + 0x848 /* 0000168C */]
00000E46  101F                     move.b     D0, [A7]+
00000E48  6706                     beq        +0x8 /* 00000E50 */
00000E4A  4254                     clr.w      [A4]
00000E4C  6000 023A                bra        +0x23C /* 00001088 */
label00000E50:
00000E50  4267                     clr.w      -[A7]
00000E52  2F2E 000C                move.l     -[A7], [A6 + 0xC]
00000E56  487A 02CC                pea.l      [PC + 0x2CC /* 00001124, value 0x84E6577, pstring "New York" */]
00000E5A  4267                     clr.w      -[A7]
00000E5C  1F3C 0001                move.b     -[A7], 0x1
00000E60  4EBA 082A                jsr        [PC + 0x82A /* 0000168C */]
00000E64  101F                     move.b     D0, [A7]+
00000E66  6708                     beq        +0xA /* 00000E70 */
00000E68  38BC 0002                move.w     [A4], 0x2
00000E6C  6000 021A                bra        +0x21C /* 00001088 */
label00000E70:
00000E70  4267                     clr.w      -[A7]
00000E72  2F2E 000C                move.l     -[A7], [A6 + 0xC]
00000E76  487A 02A4                pea.l      [PC + 0x2A4 /* 0000111C, value 0x647656E, pstring "Geneva" */]
00000E7A  4267                     clr.w      -[A7]
00000E7C  1F3C 0001                move.b     -[A7], 0x1
00000E80  4EBA 080A                jsr        [PC + 0x80A /* 0000168C */]
00000E84  101F                     move.b     D0, [A7]+
00000E86  6708                     beq        +0xA /* 00000E90 */
00000E88  38BC 0003                move.w     [A4], 0x3
00000E8C  6000 01FA                bra        +0x1FC /* 00001088 */
label00000E90:
00000E90  4267                     clr.w      -[A7]
00000E92  2F2E 000C                move.l     -[A7], [A6 + 0xC]
00000E96  487A 027C                pea.l      [PC + 0x27C /* 00001114, value 0x64D6F6E, pstring "Monaco" */]
00000E9A  4267                     clr.w      -[A7]
00000E9C  1F3C 0001                move.b     -[A7], 0x1
00000EA0  4EBA 07EA                jsr        [PC + 0x7EA /* 0000168C */]
00000EA4  101F                     move.b     D0, [A7]+
00000EA6  6708                     beq        +0xA /* 00000EB0 */
00000EA8  38BC 0004                move.w     [A4], 0x4
00000EAC  6000 01DA                bra        +0x1DC /* 00001088 */
label00000EB0:
00000EB0  4267                     clr.w      -[A7]
00000EB2  2F2E 000C                move.l     -[A7], [A6 + 0xC]
00000EB6  487A 0254                pea.l      [PC + 0x254 /* 0000110C, value 0x656656E, pstring "Venice" */]
00000EBA  4267                     clr.w      -[A7]
00000EBC  1F3C 0001                move.b     -[A7], 0x1
00000EC0  4EBA 07CA                jsr        [PC + 0x7CA /* 0000168C */]
00000EC4  101F                     move.b     D0, [A7]+
00000EC6  6708                     beq        +0xA /* 00000ED0 */
00000EC8  38BC 0005                move.w     [A4], 0x5
00000ECC  6000 01BA                bra        +0x1BC /* 00001088 */
label00000ED0:
00000ED0  4267                     clr.w      -[A7]
00000ED2  2F2E 000C                move.l     -[A7], [A6 + 0xC]
00000ED6  487A 022C                pea.l      [PC + 0x22C /* 00001104, value 0x64C6F6E, pstring "London" */]
00000EDA  4267                     clr.w      -[A7]
00000EDC  1F3C 0001                move.b     -[A7], 0x1
00000EE0  4EBA 07AA                jsr        [PC + 0x7AA /* 0000168C */]
00000EE4  101F                     move.b     D0, [A7]+
00000EE6  6708                     beq        +0xA /* 00000EF0 */
00000EE8  38BC 0006                move.w     [A4], 0x6
00000EEC  6000 019A                bra        +0x19C /* 00001088 */
label00000EF0:
00000EF0  4267                     clr.w      -[A7]
00000EF2  2F2E 000C                move.l     -[A7], [A6 + 0xC]
00000EF6  487A 0204                pea.l      [PC + 0x204 /* 000010FC, value 0x6417468, pstring "Athens" */]
00000EFA  4267                     clr.w      -[A7]
00000EFC  1F3C 0001                move.b     -[A7], 0x1
00000F00  4EBA 078A                jsr        [PC + 0x78A /* 0000168C */]
00000F04  101F                     move.b     D0, [A7]+
00000F06  6708                     beq        +0xA /* 00000F10 */
00000F08  38BC 0007                move.w     [A4], 0x7
00000F0C  6000 017A                bra        +0x17C /* 00001088 */
label00000F10:
00000F10  4267                     clr.w      -[A7]
00000F12  2F2E 000C                move.l     -[A7], [A6 + 0xC]
00000F16  487A 01D6                pea.l      [PC + 0x1D6 /* 000010EE, value 0xD53616E '\rSan', pstring "San Francisco" */]
00000F1A  4267                     clr.w      -[A7]
00000F1C  1F3C 0001                move.b     -[A7], 0x1
00000F20  4EBA 076A                jsr        [PC + 0x76A /* 0000168C */]
00000F24  101F                     move.b     D0, [A7]+
00000F26  6708                     beq        +0xA /* 00000F30 */
00000F28  38BC 0008                move.w     [A4], 0x8
00000F2C  6000 015A                bra        +0x15C /* 00001088 */
label00000F30:
00000F30  4267                     clr.w      -[A7]
00000F32  2F2E 000C                move.l     -[A7], [A6 + 0xC]
00000F36  487A 01AE                pea.l      [PC + 0x1AE /* 000010E6, value 0x7546F72, pstring "Toronto" */]
00000F3A  4267                     clr.w      -[A7]
00000F3C  1F3C 0001                move.b     -[A7], 0x1
00000F40  4EBA 074A                jsr        [PC + 0x74A /* 0000168C */]
00000F44  101F                     move.b     D0, [A7]+
00000F46  6708                     beq        +0xA /* 00000F50 */
00000F48  38BC 0009                move.w     [A4], 0x9 /* '\t' */
00000F4C  6000 013A                bra        +0x13C /* 00001088 */
label00000F50:
00000F50  4267                     clr.w      -[A7]
00000F52  2F2E 000C                move.l     -[A7], [A6 + 0xC]
00000F56  487A 0188                pea.l      [PC + 0x188 /* 000010E0, value 0x5436169, pstring "Cairo" */]
00000F5A  4267                     clr.w      -[A7]
00000F5C  1F3C 0001                move.b     -[A7], 0x1
00000F60  4EBA 072A                jsr        [PC + 0x72A /* 0000168C */]
00000F64  101F                     move.b     D0, [A7]+
00000F66  6708                     beq        +0xA /* 00000F70 */
00000F68  38BC 000B                move.w     [A4], 0xB
00000F6C  6000 011A                bra        +0x11C /* 00001088 */
label00000F70:
00000F70  4267                     clr.w      -[A7]
00000F72  2F2E 000C                move.l     -[A7], [A6 + 0xC]
00000F76  487A 015C                pea.l      [PC + 0x15C /* 000010D4, value 0xB4C6F73, pstring "Los Angeles" */]
00000F7A  4267                     clr.w      -[A7]
00000F7C  1F3C 0001                move.b     -[A7], 0x1
00000F80  4EBA 070A                jsr        [PC + 0x70A /* 0000168C */]
00000F84  101F                     move.b     D0, [A7]+
00000F86  6708                     beq        +0xA /* 00000F90 */
00000F88  38BC 000C                move.w     [A4], 0xC
00000F8C  6000 00FA                bra        +0xFC /* 00001088 */
label00000F90:
00000F90  4267                     clr.w      -[A7]
00000F92  2F2E 000C                move.l     -[A7], [A6 + 0xC]
00000F96  487A 0136                pea.l      [PC + 0x136 /* 000010CE, value 0x554696D, pstring "Times" */]
00000F9A  4267                     clr.w      -[A7]
00000F9C  1F3C 0001                move.b     -[A7], 0x1
00000FA0  4EBA 06EA                jsr        [PC + 0x6EA /* 0000168C */]
00000FA4  101F                     move.b     D0, [A7]+
00000FA6  6708                     beq        +0xA /* 00000FB0 */
00000FA8  38BC 0014                move.w     [A4], 0x14
00000FAC  6000 00DA                bra        +0xDC /* 00001088 */
label00000FB0:
00000FB0  4267                     clr.w      -[A7]
00000FB2  2F2E 000C                move.l     -[A7], [A6 + 0xC]
00000FB6  487A 010C                pea.l      [PC + 0x10C /* 000010C4, value 0x948656C '\tHel', pstring "Helvetica" */]
00000FBA  4267                     clr.w      -[A7]
00000FBC  1F3C 0001                move.b     -[A7], 0x1
00000FC0  4EBA 06CA                jsr        [PC + 0x6CA /* 0000168C */]
00000FC4  101F                     move.b     D0, [A7]+
00000FC6  6708                     beq        +0xA /* 00000FD0 */
00000FC8  38BC 0015                move.w     [A4], 0x15
00000FCC  6000 00BA                bra        +0xBC /* 00001088 */
label00000FD0:
00000FD0  4267                     clr.w      -[A7]
00000FD2  2F2E 000C                move.l     -[A7], [A6 + 0xC]
00000FD6  487A 00E4                pea.l      [PC + 0xE4 /* 000010BC, value 0x7436F75, pstring "Courier" */]
00000FDA  4267                     clr.w      -[A7]
00000FDC  1F3C 0001                move.b     -[A7], 0x1
00000FE0  4EBA 06AA                jsr        [PC + 0x6AA /* 0000168C */]
00000FE4  101F                     move.b     D0, [A7]+
00000FE6  6708                     beq        +0xA /* 00000FF0 */
00000FE8  38BC 0016                move.w     [A4], 0x16
00000FEC  6000 009A                bra        +0x9C /* 00001088 */
label00000FF0:
00000FF0  4267                     clr.w      -[A7]
00000FF2  2F2E 000C                move.l     -[A7], [A6 + 0xC]
00000FF6  487A 00BC                pea.l      [PC + 0xBC /* 000010B4, value 0x653796D, pstring "Symbol" */]
00000FFA  4267                     clr.w      -[A7]
00000FFC  1F3C 0001                move.b     -[A7], 0x1
00001000  4EBA 068A                jsr        [PC + 0x68A /* 0000168C */]
00001004  101F                     move.b     D0, [A7]+
00001006  6706                     beq        +0x8 /* 0000100E */
00001008  38BC 0017                move.w     [A4], 0x17
0000100C  607A                     bra        +0x7C /* 00001088 */
label0000100E:
0000100E  4267                     clr.w      -[A7]
00001010  2F2E 000C                move.l     -[A7], [A6 + 0xC]
00001014  487A 0096                pea.l      [PC + 0x96 /* 000010AC, value 0x64D6F62, pstring "Mobile" */]
00001018  4267                     clr.w      -[A7]
0000101A  1F3C 0001                move.b     -[A7], 0x1
0000101E  4EBA 066C                jsr        [PC + 0x66C /* 0000168C */]
00001022  101F                     move.b     D0, [A7]+
00001024  6706                     beq        +0x8 /* 0000102C */
00001026  38BC 0018                move.w     [A4], 0x18
0000102A  605C                     bra        +0x5E /* 00001088 */
label0000102C:
0000102C  4267                     clr.w      -[A7]
0000102E  A99B                     syscall    SetResLoad
00001030  38BC 0019                move.w     [A4], 0x19
label00001034:
00001034  0C54 0100                cmpi.w     [A4], 0x100
00001038  5DC0                     slt        D0
0000103A  4A00                     tst.b      D0
0000103C  6728                     beq        +0x2A /* 00001066 */
0000103E  2F00                     move.l     -[A7], D0
00001040  42A7                     clr.l      -[A7]
00001042  3F2E 0010                move.w     -[A7], [A6 + 0x10]
00001046  2F3C 464F 4E54           move.l     -[A7], 0x464F4E54 /* 'FONT' */
0000104C  3214                     move.w     D1, [A4]
0000104E  EF41                     asl        D1.w, 7
00001050  3F01                     move.w     -[A7], D1
00001052  4EBA F00A                jsr        [PC - 0xFF6 /* 0000005E */]
00001056  221F                     move.l     D1, [A7]+
00001058  201F                     move.l     D0, [A7]+
0000105A  4A81                     tst.l      D1
0000105C  56C1                     sne        D1
0000105E  C001                     and.b      D0, D1
00001060  6704                     beq        +0x6 /* 00001066 */
00001062  5254                     addq.w     [A4], 1
00001064  60CE                     bra        -0x30 /* 00001034 */
label00001066:
00001066  1F3C 0001                move.b     -[A7], 0x1
0000106A  A99B                     syscall    SetResLoad
0000106C  0C54 0100                cmpi.w     [A4], 0x100
00001070  6616                     bne        +0x18 /* 00001088 */
00001072  4267                     clr.w      -[A7]
00001074  1F3C 0001                move.b     -[A7], 0x1
00001078  487A 0026                pea.l      [PC + 0x26 /* 000010A0, value 0xB466F6E, pstring "Font Alerts" */]
0000107C  3F3C 0001                move.w     -[A7], 0x1
00001080  4EBA F084                jsr        [PC - 0xF7C /* 00000106 */]
00001084  101F                     move.b     D0, [A7]+
00001086  4207                     clr.b      D7
label00001088:
00001088  3014                     move.w     D0, [A4]
0000108A  EF40                     asl        D0.w, 7
0000108C  3880                     move.w     [A4], D0
0000108E  1D47 0012                move.b     [A6 + 0x12], D7
00001092  4CDF 1080                movem.l    D7,A4, [A7]+
00001096  4E5E                     unlink     A6
00001098  205F                     movea.l    A0, [A7]+
0000109A  DEFC 000A                add.w      A7, 0xA /* '\n' */
0000109E  4ED0                     jmp        [A0]
000010A0  0B46                     bchg       D6, D5
000010A2  6F6E                     ble        +0x70 /* 00001112 */
000010A4  7420                     moveq.l    D2, 0x20
000010A6  416C 6572                chk.w      D0, [A4 + 0x6572]
000010AA  7473                     moveq.l    D2, 0x73
000010AC  064D 6F62                addi.w     A5, 0x6F62 /* 'ob' */
000010B0  696C                     bvs        +0x6E /* 0000111E */
000010B2  6500 0653                bcs        +0x655 /* 00001707 */
000010B6  796D                     moveq.l    D4, 0x6D
000010B8  626F                     bhi        +0x71 /* 00001129 */
000010BA  6C00 0743                bge        +0x745 /* 000017FF */
000010BE  6F75                     ble        +0x77 /* 00001135 */
000010C0  7269                     moveq.l    D1, 0x69
000010C2  6572                     bcs        +0x74 /* 00001136 */
000010C4  0948                     bchg       A0, D4
000010C6  656C                     bcs        +0x6E /* 00001134 */
000010C8  7665                     moveq.l    D3, 0x65
000010CA  7469                     moveq.l    D2, 0x69
000010CC  6361                     bls        +0x63 /* 0000112F */
000010CE  0554                     bchg       [A4], D2
000010D0  696D                     bvs        +0x6F /* 0000113F */
000010D2  6573                     bcs        +0x75 /* 00001147 */
000010D4  0B4C                     bchg       A4, D5
000010D6  6F73                     ble        +0x75 /* 0000114B */
000010D8  2041                     movea.l    A0, D1
000010DA  6E67                     bgt        +0x69 /* 00001143 */
000010DC  656C                     bcs        +0x6E /* 0000114A */
000010DE  6573                     bcs        +0x75 /* 00001153 */
000010E0  0543                     bchg       D3, D2
000010E2  6169                     bsr        +0x6B /* 0000114D */
000010E4  726F                     moveq.l    D1, 0x6F
000010E6  0754                     bchg       [A4], D3
000010E8  6F72                     ble        +0x74 /* 0000115C */
000010EA  6F6E                     ble        +0x70 /* 0000115A */
000010EC  746F                     moveq.l    D2, 0x6F
000010EE  0D53                     bchg       [A3], D6
000010F0  616E                     bsr        +0x70 /* 00001160 */
000010F2  2046                     movea.l    A0, D6
000010F4  7261                     moveq.l    D1, 0x61
000010F6  6E63                     bgt        +0x65 /* 0000115B */
000010F8  6973                     bvs        +0x75 /* 0000116D */
000010FA  636F                     bls        +0x71 /* 0000116B */
000010FC  0641 7468                addi.w     D1, 0x7468 /* 'th' */
00001100  656E                     bcs        +0x70 /* 00001170 */
00001102  7300                     moveq.l    D1, 0x00
00001104  064C 6F6E                addi.w     A4, 0x6F6E /* 'on' */
00001108  646F                     bcc        +0x71 /* 00001179 */
0000110A  6E00 0656                bgt        +0x658 /* 00001762 */
0000110E  656E                     bcs        +0x70 /* 0000117E */
00001110  6963                     bvs        +0x65 /* 00001175 */
label00001112:
00001112  6500 064D                bcs        +0x64F /* 00001761 */
00001116  6F6E                     ble        +0x70 /* 00001186 */
00001118  6163                     bsr        +0x65 /* 0000117D */
0000111A  6F00 0647                ble        +0x649 /* 00001763 */
label0000111E:
0000111E  656E                     bcs        +0x70 /* 0000118E */
00001120  6576                     bcs        +0x78 /* 00001198 */
00001122  6100 084E                bsr        +0x850 /* 00001972 */
00001126  6577                     bcs        +0x79 /* 0000119F */
00001128  2059                     movea.l    A0, [A1]+
0000112A  6F72                     ble        +0x74 /* 0000119E */
0000112C  6B00 0743                bmi        +0x745 /* 00001871 */
00001130  6869                     bvc        +0x6B /* 0000119B */
00001132  6361                     bls        +0x63 /* 00001195 */
label00001134:
00001134  676F                     beq        +0x71 /* 000011A5 */
fn00001136:
00001136  4E56 FDE2                link       A6, -0x021E
0000113A  48E7 0F08                movem.l    -[A7], D4,D5,D6,D7,A4
0000113E  286E 0008                movea.l    A4, [A6 + 0x8]
00001142  4267                     clr.w      -[A7]
00001144  2F0C                     move.l     -[A7], A4
00001146  3F3C 002C                move.w     -[A7], 0x2C /* ',' */
label0000114A:
0000114A  A9E7                     syscall    Pack0/ListManager
0000114C  4267                     clr.w      -[A7]
0000114E  2F3C 464F 4E44           move.l     -[A7], 0x464F4E44 /* 'FOND' */
00001154  A99C                     syscall    CountResources
00001156  3D5F FFEE                move.w     [A6 - 0x12], [A7]+
label0000115A:
0000115A  4267                     clr.w      -[A7]
label0000115C:
0000115C  A99B                     syscall    SetResLoad
0000115E  426E FFFE                clr.w      [A6 - 0x2]
// begin alternate branch 00001160-00001162
fn00001160:
00001160  FFFE                     .invalid   <<F/7/7>>
// end alternate branch 00001160-00001162
fn00001160: // (misaligned)
00001162  7E01                     moveq.l    D7, 0x01
00001164  3D7C 0001 FDE4           move.w     [A6 - 0x21C], 0x1
0000116A  3D6E FFEE FDE2           move.w     [A6 - 0x21E], [A6 - 0x12]
label00001170:
00001170  382E FDE4                move.w     D4, [A6 - 0x21C]
00001174  6000 00C0                bra        +0xC2 /* 00001236 */
label00001178:
00001178  42A7                     clr.l      -[A7]
0000117A  2F3C 464F 4E44           move.l     -[A7], 0x464F4E44 /* 'FOND' */
// begin alternate branch 0000117E-00001180
label0000117E:
0000117E  4E44                     trap       4
// end alternate branch 0000117E-00001180
label0000117E: // (misaligned)
00001180  3F04                     move.w     -[A7], D4
00001182  A99D                     syscall    GetIndResource
00001184  2D57 FFEA                move.l     [A6 - 0x16], [A7]
// begin alternate branch 00001186-00001188
label00001186:
00001186  FFEA                     .invalid   <<F/7/7>>
// end alternate branch 00001186-00001188
label00001186: // (misaligned)
00001188  486E FFF2                pea.l      [A6 - 0xE]
0000118C  486E FFE6                pea.l      [A6 - 0x1A]
// begin alternate branch 0000118E-00001190
label0000118E:
0000118E  FFE6                     .invalid   <<F/7/7>>
// end alternate branch 0000118E-00001190
label0000118E: // (misaligned)
00001190  486E FDE6                pea.l      [A6 - 0x21A]
00001194  A9A8                     syscall    GetResInfo
00001196  4246                     clr.w      D6
label00001198:
00001198  2054                     movea.l    A0, [A4]
0000119A  3A28 004C                move.w     D5, [A0 + 0x4C]
label0000119E:
0000119E  3005                     move.w     D0, D5
000011A0  9046                     sub.w      D0, D6
000011A2  6758                     beq        +0x5A /* 000011FC */
000011A4  3005                     move.w     D0, D5
000011A6  9046                     sub.w      D0, D6
000011A8  48C0                     ext.l      D0
000011AA  81FC 0002                divs.w     D0, 0x2
000011AE  D046                     add.w      D0, D6
000011B0  3D40 FFFC                move.w     [A6 - 0x4], D0
000011B4  3D7C 00FF FFF8           move.w     [A6 - 0x8], 0xFF
000011BA  486E FEE7                pea.l      [A6 - 0x119]
000011BE  486E FFF8                pea.l      [A6 - 0x8]
000011C2  2F2E FFFC                move.l     -[A7], [A6 - 0x4]
000011C6  2F0C                     move.l     -[A7], A4
000011C8  3F3C 0038                move.w     -[A7], 0x38 /* '8' */
000011CC  A9E7                     syscall    Pack0/ListManager
000011CE  1D6E FFF9 FEE6           move.b     [A6 - 0x11A], [A6 - 0x7]
000011D4  4267                     clr.w      -[A7]
000011D6  486E FEE6                pea.l      [A6 - 0x11A]
000011DA  486E FDE6                pea.l      [A6 - 0x21A]
000011DE  42A7                     clr.l      -[A7]
000011E0  4EBA 0502                jsr        [PC + 0x502 /* 000016E4 */]
000011E4  3E1F                     move.w     D7, [A7]+
000011E6  6602                     bne        +0x4 /* 000011EA */
000011E8  6012                     bra        +0x14 /* 000011FC */
label000011EA:
000011EA  4A47                     tst.w      D7
000011EC  6C08                     bge        +0xA /* 000011F6 */
000011EE  3C2E FFFC                move.w     D6, [A6 - 0x4]
000011F2  5246                     addq.w     D6, 1
000011F4  60A8                     bra        -0x56 /* 0000119E */
label000011F6:
000011F6  3A2E FFFC                move.w     D5, [A6 - 0x4]
000011FA  60A2                     bra        -0x5C /* 0000119E */
label000011FC:
000011FC  4A47                     tst.w      D7
000011FE  6732                     beq        +0x34 /* 00001232 */
00001200  3D45 FFFC                move.w     [A6 - 0x4], D5
00001204  2F3C 0001 0000           move.l     -[A7], 0x10000
0000120A  3F2E FFFC                move.w     -[A7], [A6 - 0x4]
0000120E  2F0C                     move.l     -[A7], A4
00001210  3F3C 0008                move.w     -[A7], 0x8
00001214  A9E7                     syscall    Pack0/ListManager
00001216  3D5F FFFC                move.w     [A6 - 0x4], [A7]+
0000121A  486E FDE7                pea.l      [A6 - 0x219]
0000121E  4240                     clr.w      D0
00001220  102E FDE6                move.b     D0, [A6 - 0x21A]
00001224  3F00                     move.w     -[A7], D0
00001226  2F2E FFFC                move.l     -[A7], [A6 - 0x4]
0000122A  2F0C                     move.l     -[A7], A4
0000122C  3F3C 0058                move.w     -[A7], 0x58 /* 'X' */
00001230  A9E7                     syscall    Pack0/ListManager
label00001232:
00001232  5244                     addq.w     D4, 1
00001234  6908                     bvs        +0xA /* 0000123E */
label00001236:
00001236  B86E FDE2                cmp.w      D4, [A6 - 0x21E]
0000123A  6F00 FF3C                ble        -0xC2 /* 00001178 */
label0000123E:
0000123E  1F3C 0001                move.b     -[A7], 0x1
00001242  A99B                     syscall    SetResLoad
00001244  1F3C 0001                move.b     -[A7], 0x1
00001248  2F0C                     move.l     -[A7], A4
0000124A  3F3C 002C                move.w     -[A7], 0x2C /* ',' */
0000124E  A9E7                     syscall    Pack0/ListManager
00001250  4CDF 10F0                movem.l    D4,D5,D6,D7,A4, [A7]+
00001254  4E5E                     unlink     A6
00001256  2E9F                     move.l     [A7], [A7]+
00001258  4E75                     rts
fn0000125A:
0000125A  4E56 FFFC                link       A6, -0x0004
0000125E  2F0C                     move.l     -[A7], A4
00001260  286E 0008                movea.l    A4, [A6 + 0x8]
00001264  7000                     moveq.l    D0, 0x00
00001266  2D40 FFFC                move.l     [A6 - 0x4], D0
0000126A  4267                     clr.w      -[A7]
0000126C  1F3C 0001                move.b     -[A7], 0x1
00001270  486E FFFC                pea.l      [A6 - 0x4]
00001274  2F2C FFD2                move.l     -[A7], [A4 - 0x2E]
00001278  3F3C 003C                move.w     -[A7], 0x3C /* '<' */
0000127C  A9E7                     syscall    Pack0/ListManager
0000127E  101F                     move.b     D0, [A7]+
00001280  6744                     beq        +0x46 /* 000012C6 */
00001282  397C 00FF FFC2           move.w     [A4 - 0x3E], 0xFF
00001288  41EC FEC2                lea.l      A0, [A4 - 0x13E]
0000128C  2008                     move.l     D0, A0
0000128E  5280                     addq.l     D0, 1
00001290  2F00                     move.l     -[A7], D0
00001292  486C FFC2                pea.l      [A4 - 0x3E]
00001296  2F2E FFFC                move.l     -[A7], [A6 - 0x4]
0000129A  2F2C FFD2                move.l     -[A7], [A4 - 0x2E]
0000129E  3F3C 0038                move.w     -[A7], 0x38 /* '8' */
000012A2  A9E7                     syscall    Pack0/ListManager
000012A4  196C FFC3 FEC2           move.b     [A4 - 0x13E], [A4 - 0x3D]
000012AA  2F2C FFEA                move.l     -[A7], [A4 - 0x16]
000012AE  486C FEC2                pea.l      [A4 - 0x13E]
000012B2  A98F                     syscall    SetDialogItemText/SetIText
000012B4  2F2C FFFA                move.l     -[A7], [A4 - 0x6]
000012B8  2F3C 0000 0004           move.l     -[A7], 0x4
000012BE  3F3C 00FF                move.w     -[A7], 0xFF
000012C2  A97E                     syscall    SelectDialogItemText/SelIText
000012C4  600A                     bra        +0xC /* 000012D0 */
label000012C6:
000012C6  2F2C FFEA                move.l     -[A7], [A4 - 0x16]
000012CA  487A 000C                pea.l      [PC + 0xC /* 000012D8, value 0x4E56 'NV', cstring "" */]
000012CE  A98F                     syscall    SetDialogItemText/SetIText
label000012D0:
000012D0  285F                     movea.l    A4, [A7]+
000012D2  4E5E                     unlink     A6
000012D4  2E9F                     move.l     [A7], [A7]+
000012D6  4E75                     rts
000012D8  0000 4E56                ori.b      D0, 0x56 /* 'V' */
// begin alternate branch 000012DA-000012E2
fn000012DA:
000012DA  4E56 FEBE                link       A6, -0x0142
000012DE  48E7 0F18                movem.l    -[A7], D4,D5,D6,D7,A3,A4
// end alternate branch 000012DA-000012E2
fn000012DA: // (misaligned)
000012DC  FEBE 48E7                .extension 0xEBE <<F/2-3/7>> // unimplemented
000012E0  0F18                     btst       [A0]+, D7
000012E2  286E 000C                movea.l    A4, [A6 + 0xC]
000012E6  3C2E 0010                move.w     D6, [A6 + 0x10]
000012EA  3F3C FFFF                move.w     -[A7], 0xFFFF
000012EE  4EBA EE62                jsr        [PC - 0x119E /* 00000152 */]
000012F2  206E 0008                movea.l    A0, [A6 + 0x8]
000012F6  4210                     clr.b      [A0]
000012F8  42A7                     clr.l      -[A7]
000012FA  4EBA EEBA                jsr        [PC - 0x1146 /* 000001B6 */]
000012FE  2D5F FFFA                move.l     [A6 - 0x6], [A7]+
00001302  2F3C 444C 4F47           move.l     -[A7], 0x444C4F47 /* 'DLOG' */
00001308  3F3C 03EA                move.w     -[A7], 0x3EA
0000130C  4EBA EE78                jsr        [PC - 0x1188 /* 00000186 */]
00001310  42A7                     clr.l      -[A7]
00001312  3F3C 03EA                move.w     -[A7], 0x3EA
00001316  2F2E FFFA                move.l     -[A7], [A6 - 0x6]
0000131A  70FF                     moveq.l    D0, 0xFFFFFFFF
0000131C  2F00                     move.l     -[A7], D0
0000131E  A97C                     syscall    GetNewDialog
00001320  2D57 FFFA                move.l     [A6 - 0x6], [A7]
00001324  3F3C 0008                move.w     -[A7], 0x8
00001328  486E FFCC                pea.l      [A6 - 0x34]
0000132C  486E FFE6                pea.l      [A6 - 0x1A]
00001330  486E FFD6                pea.l      [A6 - 0x2A]
00001334  A98D                     syscall    GetDialogItem/GetDItem
00001336  2F2E FFFA                move.l     -[A7], [A6 - 0x6]
0000133A  3F3C 0008                move.w     -[A7], 0x8
0000133E  3F2E FFCC                move.w     -[A7], [A6 - 0x34]
00001342  487A F9D8                pea.l      [PC - 0x628 /* 00000D1C, value 0x4E56FFEE */]
00001346  486E FFD6                pea.l      [A6 - 0x2A]
0000134A  A98E                     syscall    SetDialogItem/SetDItem
0000134C  2F2E FFFA                move.l     -[A7], [A6 - 0x6]
00001350  A873                     syscall    SetPort
00001352  486E FFDE                pea.l      [A6 - 0x22]
00001356  42A7                     clr.l      -[A7]
00001358  2F3C 0000 0001           move.l     -[A7], 0x1
0000135E  A8A7                     syscall    SetRect
00001360  486E FFD6                pea.l      [A6 - 0x2A]
00001364  2F3C 0001 0001           move.l     -[A7], 0x10001
0000136A  A8A9                     syscall    InsetRect
0000136C  42A7                     clr.l      -[A7]
0000136E  486E FFD6                pea.l      [A6 - 0x2A]
00001372  486E FFDE                pea.l      [A6 - 0x22]
00001376  42A7                     clr.l      -[A7]
00001378  4267                     clr.w      -[A7]
0000137A  2F2E FFFA                move.l     -[A7], [A6 - 0x6]
0000137E  1F3C 0001                move.b     -[A7], 0x1
00001382  42A7                     clr.l      -[A7]
00001384  1F3C 0001                move.b     -[A7], 0x1
00001388  3F3C 0044                move.w     -[A7], 0x44 /* 'D' */
0000138C  A9E7                     syscall    Pack0/ListManager
0000138E  2D5F FFD2                move.l     [A6 - 0x2E], [A7]+
00001392  206E FFFA                movea.l    A0, [A6 - 0x6]
00001396  216E FFD2 0098           move.l     [A0 + 0x98], [A6 - 0x2E]
0000139C  206E FFD2                movea.l    A0, [A6 - 0x2E]
000013A0  2050                     movea.l    A0, [A0]
000013A2  117C 0080 0024           move.b     [A0 + 0x24], 0x80
000013A8  2F2E FFD2                move.l     -[A7], [A6 - 0x2E]
000013AC  4EBA FD88                jsr        [PC - 0x278 /* 00001136 */]
000013B0  206E FFFA                movea.l    A0, [A6 - 0x6]
000013B4  4868 0010                pea.l      [A0 + 0x10]
000013B8  A928                     syscall    InvalRect
000013BA  2F2E FFFA                move.l     -[A7], [A6 - 0x6]
000013BE  3F3C 0004                move.w     -[A7], 0x4
000013C2  486E FFCC                pea.l      [A6 - 0x34]
000013C6  486E FFEA                pea.l      [A6 - 0x16]
000013CA  486E FFD6                pea.l      [A6 - 0x2A]
000013CE  A98D                     syscall    GetDialogItem/GetDItem
000013D0  2F2E FFFA                move.l     -[A7], [A6 - 0x6]
000013D4  3F3C 0006                move.w     -[A7], 0x6
000013D8  486E FFCC                pea.l      [A6 - 0x34]
000013DC  486E FFEE                pea.l      [A6 - 0x12]
000013E0  486E FFD6                pea.l      [A6 - 0x2A]
000013E4  A98D                     syscall    GetDialogItem/GetDItem
000013E6  4A54                     tst.w      [A4]
000013E8  6700 00A2                beq        +0xA4 /* 0000148C */
000013EC  4267                     clr.w      -[A7]
000013EE  A99B                     syscall    SetResLoad
000013F0  42A7                     clr.l      -[A7]
000013F2  3F06                     move.w     -[A7], D6
000013F4  2F3C 464F 4E54           move.l     -[A7], 0x464F4E54 /* 'FONT' */
000013FA  42A7                     clr.l      -[A7]
000013FC  3014                     move.w     D0, [A4]
000013FE  48C0                     ext.l      D0
00001400  2F00                     move.l     -[A7], D0
00001402  7080                     moveq.l    D0, 0xFFFFFF80
00001404  2F00                     move.l     -[A7], D0
00001406  A858                     syscall    BitAnd
00001408  201F                     move.l     D0, [A7]+
0000140A  3F00                     move.w     -[A7], D0
0000140C  4EBA EC50                jsr        [PC - 0x13B0 /* 0000005E */]
00001410  265F                     movea.l    A3, [A7]+
00001412  1F3C 0001                move.b     -[A7], 0x1
00001416  A99B                     syscall    SetResLoad
00001418  200B                     move.l     D0, A3
0000141A  6770                     beq        +0x72 /* 0000148C */
0000141C  2F0B                     move.l     -[A7], A3
0000141E  486E FFCE                pea.l      [A6 - 0x32]
00001422  486E FFF6                pea.l      [A6 - 0xA]
00001426  486E FEC2                pea.l      [A6 - 0x13E]
0000142A  A9A8                     syscall    GetResInfo
0000142C  4267                     clr.w      -[A7]
0000142E  41EE FEC2                lea.l      A0, [A6 - 0x13E]
00001432  2008                     move.l     D0, A0
00001434  5280                     addq.l     D0, 1
00001436  2F00                     move.l     -[A7], D0
00001438  4240                     clr.w      D0
0000143A  102E FEC2                move.b     D0, [A6 - 0x13E]
0000143E  3F00                     move.w     -[A7], D0
00001440  42A7                     clr.l      -[A7]
00001442  486E FFC4                pea.l      [A6 - 0x3C]
00001446  2F2E FFD2                move.l     -[A7], [A6 - 0x2E]
0000144A  3F3C 0054                move.w     -[A7], 0x54 /* 'T' */
0000144E  A9E7                     syscall    Pack0/ListManager
00001450  101F                     move.b     D0, [A7]+
00001452  6738                     beq        +0x3A /* 0000148C */
00001454  1F3C 0001                move.b     -[A7], 0x1
00001458  2F2E FFC4                move.l     -[A7], [A6 - 0x3C]
0000145C  2F2E FFD2                move.l     -[A7], [A6 - 0x2E]
00001460  3F3C 005C                move.w     -[A7], 0x5C /* '\\' */
00001464  A9E7                     syscall    Pack0/ListManager
00001466  2F0E                     move.l     -[A7], A6
00001468  4EBA FDF0                jsr        [PC - 0x210 /* 0000125A */]
0000146C  42A7                     clr.l      -[A7]
0000146E  707F                     moveq.l    D0, 0x7F
00001470  2F00                     move.l     -[A7], D0
00001472  3014                     move.w     D0, [A4]
00001474  48C0                     ext.l      D0
00001476  2F00                     move.l     -[A7], D0
00001478  A858                     syscall    BitAnd
0000147A  486E FEC2                pea.l      [A6 - 0x13E]
0000147E  4EBA 02BA                jsr        [PC + 0x2BA /* 0000173A */]
00001482  2F2E FFEE                move.l     -[A7], [A6 - 0x12]
00001486  486E FEC2                pea.l      [A6 - 0x13E]
0000148A  A98F                     syscall    SetDialogItemText/SetIText
label0000148C:
0000148C  1F3C 0001                move.b     -[A7], 0x1
00001490  2F2E FFD2                move.l     -[A7], [A6 - 0x2E]
00001494  4267                     clr.w      -[A7]
00001496  A9E7                     syscall    Pack0/ListManager
00001498  4207                     clr.b      D7
label0000149A:
0000149A  487A F8D2                pea.l      [PC - 0x72E /* 00000D6E, value 0x4E56FFFC */]
0000149E  486E FFCA                pea.l      [A6 - 0x36]
000014A2  A991                     syscall    ModalDialog
000014A4  302E FFCA                move.w     D0, [A6 - 0x36]
000014A8  5340                     subq.w     D0, 1
000014AA  6710                     beq        +0x12 /* 000014BC */
000014AC  5340                     subq.w     D0, 1
000014AE  6700 0190                beq        +0x192 /* 00001640 */
000014B2  5B40                     subq.w     D0, 5
000014B4  670C                     beq        +0xE /* 000014C2 */
000014B6  5340                     subq.w     D0, 1
000014B8  6708                     beq        +0xA /* 000014C2 */
000014BA  602E                     bra        +0x30 /* 000014EA */
label000014BC:
000014BC  7E01                     moveq.l    D7, 0x01
000014BE  602A                     bra        +0x2C /* 000014EA */
000014C0  6028                     bra        +0x2A /* 000014EA */
label000014C2:
000014C2  486E FFC4                pea.l      [A6 - 0x3C]
000014C6  A972                     syscall    GetMouse
000014C8  4267                     clr.w      -[A7]
000014CA  2F2E FFC4                move.l     -[A7], [A6 - 0x3C]
000014CE  4267                     clr.w      -[A7]
000014D0  2F2E FFD2                move.l     -[A7], [A6 - 0x2E]
000014D4  3F3C 0018                move.w     -[A7], 0x18
000014D8  A9E7                     syscall    Pack0/ListManager
000014DA  1A1F                     move.b     D5, [A7]+
000014DC  7008                     moveq.l    D0, 0x08
000014DE  B06E FFCA                cmp.w      D0, [A6 - 0x36]
000014E2  6606                     bne        +0x8 /* 000014EA */
000014E4  2F0E                     move.l     -[A7], A6
000014E6  4EBA FD72                jsr        [PC - 0x28E /* 0000125A */]
label000014EA:
000014EA  1007                     move.b     D0, D7
000014EC  6700 014C                beq        +0x14E /* 0000163A */
000014F0  2F2E FFEE                move.l     -[A7], [A6 - 0x12]
000014F4  486E FEC2                pea.l      [A6 - 0x13E]
000014F8  A990                     syscall    GetDialogItemText/GetIText
000014FA  486E FEC2                pea.l      [A6 - 0x13E]
000014FE  486E FEBE                pea.l      [A6 - 0x142]
00001502  4EBA 0222                jsr        [PC + 0x222 /* 00001726 */]
00001506  4AAE FEBE                tst.l      [A6 - 0x142]
0000150A  6E06                     bgt        +0x8 /* 00001512 */
0000150C  7000                     moveq.l    D0, 0x00
0000150E  2D40 FEBE                move.l     [A6 - 0x142], D0
label00001512:
00001512  4267                     clr.w      -[A7]
00001514  2F2E FEBE                move.l     -[A7], [A6 - 0x142]
00001518  A86B                     syscall    LoWord
0000151A  389F                     move.w     [A4], [A7]+
0000151C  2F2E FFEA                move.l     -[A7], [A6 - 0x16]
00001520  486E FEC2                pea.l      [A6 - 0x13E]
00001524  A990                     syscall    GetDialogItemText/GetIText
00001526  4240                     clr.w      D0
00001528  102E FEC2                move.b     D0, [A6 - 0x13E]
0000152C  4A40                     tst.w      D0
0000152E  5EC0                     sgt        D0
00001530  4A54                     tst.w      [A4]
00001532  5EC1                     sgt        D1
00001534  C001                     and.b      D0, D1
00001536  4400                     neg.b      D0
00001538  1E00                     move.b     D7, D0
0000153A  6700 00EA                beq        +0xEC /* 00001626 */
0000153E  7000                     moveq.l    D0, 0x00
00001540  2D40 FFC4                move.l     [A6 - 0x3C], D0
00001544  4267                     clr.w      -[A7]
00001546  41EE FEC2                lea.l      A0, [A6 - 0x13E]
0000154A  2008                     move.l     D0, A0
0000154C  5280                     addq.l     D0, 1
0000154E  2F00                     move.l     -[A7], D0
00001550  4240                     clr.w      D0
00001552  102E FEC2                move.b     D0, [A6 - 0x13E]
00001556  3F00                     move.w     -[A7], D0
00001558  42A7                     clr.l      -[A7]
0000155A  486E FFC4                pea.l      [A6 - 0x3C]
0000155E  2F2E FFD2                move.l     -[A7], [A6 - 0x2E]
00001562  3F3C 0054                move.w     -[A7], 0x54 /* 'T' */
00001566  A9E7                     syscall    Pack0/ListManager
00001568  101F                     move.b     D0, [A7]+
0000156A  6756                     beq        +0x58 /* 000015C2 */
0000156C  486E FEC2                pea.l      [A6 - 0x13E]
00001570  486E FFD0                pea.l      [A6 - 0x30]
00001574  A900                     syscall    GetFNum
00001576  4267                     clr.w      -[A7]
00001578  A99B                     syscall    SetResLoad
0000157A  42A7                     clr.l      -[A7]
0000157C  3F06                     move.w     -[A7], D6
0000157E  2F3C 464F 4E54           move.l     -[A7], 0x464F4E54 /* 'FONT' */
00001584  302E FFD0                move.w     D0, [A6 - 0x30]
00001588  EF40                     asl        D0.w, 7
0000158A  3214                     move.w     D1, [A4]
0000158C  D240                     add.w      D1, D0
0000158E  3F01                     move.w     -[A7], D1
00001590  4EBA EACC                jsr        [PC - 0x1534 /* 0000005E */]
00001594  265F                     movea.l    A3, [A7]+
00001596  1F3C 0001                move.b     -[A7], 0x1
0000159A  A99B                     syscall    SetResLoad
0000159C  200B                     move.l     D0, A3
0000159E  6716                     beq        +0x18 /* 000015B6 */
000015A0  4267                     clr.w      -[A7]
000015A2  1F3C 0001                move.b     -[A7], 0x1
000015A6  487A 00CE                pea.l      [PC + 0xCE /* 00001676, value 0xB466F6E, pstring "Font Alerts" */]
000015AA  3F3C 0002                move.w     -[A7], 0x2
000015AE  4EBA EB56                jsr        [PC - 0x14AA /* 00000106 */]
000015B2  101F                     move.b     D0, [A7]+
000015B4  4207                     clr.b      D7
label000015B6:
000015B6  302E FFD0                move.w     D0, [A6 - 0x30]
000015BA  EF40                     asl        D0.w, 7
000015BC  3D40 FFD0                move.w     [A6 - 0x30], D0
000015C0  6012                     bra        +0x14 /* 000015D4 */
label000015C2:
000015C2  4267                     clr.w      -[A7]
000015C4  3F06                     move.w     -[A7], D6
000015C6  486E FEC2                pea.l      [A6 - 0x13E]
000015CA  486E FFD0                pea.l      [A6 - 0x30]
000015CE  4EBA F854                jsr        [PC - 0x7AC /* 00000E24 */]
000015D2  1E1F                     move.b     D7, [A7]+
label000015D4:
000015D4  1007                     move.b     D0, D7
000015D6  6762                     beq        +0x64 /* 0000163A */
000015D8  42A7                     clr.l      -[A7]
000015DA  3F06                     move.w     -[A7], D6
000015DC  2F3C 464F 4E54           move.l     -[A7], 0x464F4E54 /* 'FONT' */
000015E2  3F2E FFD0                move.w     -[A7], [A6 - 0x30]
000015E6  4EBA EA76                jsr        [PC - 0x158A /* 0000005E */]
000015EA  4A9F                     tst.l      [A7]+
000015EC  6630                     bne        +0x32 /* 0000161E */
000015EE  42A7                     clr.l      -[A7]
000015F0  42A7                     clr.l      -[A7]
000015F2  4EBA 008E                jsr        [PC + 0x8E /* 00001682 */]
000015F6  2D5F FFE6                move.l     [A6 - 0x1A], [A7]+
000015FA  4267                     clr.w      -[A7]
000015FC  3F06                     move.w     -[A7], D6
000015FE  2F2E FFE6                move.l     -[A7], [A6 - 0x1A]
00001602  2F3C 464F 4E54           move.l     -[A7], 0x464F4E54 /* 'FONT' */
00001608  3F2E FFD0                move.w     -[A7], [A6 - 0x30]
0000160C  486E FEC2                pea.l      [A6 - 0x13E]
00001610  4EBA EB84                jsr        [PC - 0x147C /* 00000196 */]
00001614  181F                     move.b     D4, [A7]+
00001616  206E 0008                movea.l    A0, [A6 + 0x8]
0000161A  10BC 0001                move.b     [A0], 0x1
label0000161E:
0000161E  302E FFD0                move.w     D0, [A6 - 0x30]
00001622  D154                     add.w      [A4], D0
00001624  6014                     bra        +0x16 /* 0000163A */
label00001626:
00001626  4267                     clr.w      -[A7]
00001628  1F3C 0001                move.b     -[A7], 0x1
0000162C  487A 0048                pea.l      [PC + 0x48 /* 00001676, value 0xB466F6E, pstring "Font Alerts" */]
00001630  3F3C 0003                move.w     -[A7], 0x3
00001634  4EBA EAD0                jsr        [PC - 0x1530 /* 00000106 */]
00001638  101F                     move.b     D0, [A7]+
label0000163A:
0000163A  1007                     move.b     D0, D7
0000163C  6700 FE5C                beq        -0x1A2 /* 0000149A */
label00001640:
00001640  1D47 0012                move.b     [A6 + 0x12], D7
00001644  2F2E FFD2                move.l     -[A7], [A6 - 0x2E]
00001648  3F3C 0028                move.w     -[A7], 0x28 /* '(' */
0000164C  A9E7                     syscall    Pack0/ListManager
0000164E  2F2E FFFA                move.l     -[A7], [A6 - 0x6]
00001652  A982                     syscall    CloseDialog
00001654  206E FFFA                movea.l    A0, [A6 - 0x6]
00001658  2F28 009C                move.l     -[A7], [A0 + 0x9C]
0000165C  205F                     movea.l    A0, [A7]+
0000165E  A023                     syscall    DisposHandle/DisposeHandle
00001660  2F2E FFFA                move.l     -[A7], [A6 - 0x6]
00001664  4EBA EAAC                jsr        [PC - 0x1554 /* 00000112 */]
00001668  4CDF 18F0                movem.l    D4,D5,D6,D7,A3,A4, [A7]+
0000166C  4E5E                     unlink     A6
0000166E  205F                     movea.l    A0, [A7]+
00001670  DEFC 000A                add.w      A7, 0xA /* '\n' */
00001674  4ED0                     jmp        [A0]
00001676  0B46                     bchg       D6, D5
00001678  6F6E                     ble        +0x70 /* 000016E8 */
0000167A  7420                     moveq.l    D2, 0x20
0000167C  416C 6572                chk.w      D0, [A4 + 0x6572]
00001680  7473                     moveq.l    D2, 0x73
fn00001682:
00001682  225F                     movea.l    A1, [A7]+
00001684  201F                     move.l     D0, [A7]+
00001686  A122                     syscall    NewHandle, flags=1
00001688  2E88                     move.l     [A7], A0
0000168A  4ED1                     jmp        [A1]
fn0000168C:
0000168C  206F 000C                movea.l    A0, [A7 + 0xC]
00001690  226F 0008                movea.l    A1, [A7 + 0x8]
00001694  7000                     moveq.l    D0, 0x00
00001696  1018                     move.b     D0, [A0]+
00001698  4840                     swap.w     D0
0000169A  1019                     move.b     D0, [A1]+
0000169C  4A2F 0004                tst.b      [A7 + 0x4]
000016A0  670E                     beq        +0x10 /* 000016B0 */
000016A2  4A2F 0006                tst.b      [A7 + 0x6]
000016A6  6704                     beq        +0x6 /* 000016AC */
000016A8  A43C                     syscall    CmpString, flags=4
000016AA  6010                     bra        +0x12 /* 000016BC */
label000016AC:
000016AC  A03C                     syscall    CmpString
000016AE  600C                     bra        +0xE /* 000016BC */
label000016B0:
000016B0  4A2F 0006                tst.b      [A7 + 0x6]
000016B4  6704                     beq        +0x6 /* 000016BA */
000016B6  A63C                     syscall    CmpString, flags=6
000016B8  6002                     bra        +0x4 /* 000016BC */
label000016BA:
000016BA  A23C                     syscall    CmpString, flags=2
label000016BC:
000016BC  0A00 0001                xori.b     D0, 0x1
000016C0  1F40 0010                move.b     [A7 + 0x10], D0
000016C4  205F                     movea.l    A0, [A7]+
000016C6  4FEF 000C                lea.l      A7, [A7 + 0xC]
000016CA  4ED0                     jmp        [A0]
fn000016CC:
000016CC  225F                     movea.l    A1, [A7]+
000016CE  121F                     move.b     D1, [A7]+
000016D0  205F                     movea.l    A0, [A7]+
000016D2  7000                     moveq.l    D0, 0x00
000016D4  1018                     move.b     D0, [A0]+
000016D6  2F09                     move.l     -[A7], A1
000016D8  4A01                     tst.b      D1
000016DA  6704                     beq        +0x6 /* 000016E0 */
000016DC  A054                     syscall    UprString/UprText
000016DE  6002                     bra        +0x4 /* 000016E2 */
label000016E0:
000016E0  A254                     syscall    UprString/UprText, flags=2
label000016E2:
000016E2  4E75                     rts
fn000016E4:
000016E4  4E56 0000                link       A6, 0
label000016E8:
000016E8  206E 0010                movea.l    A0, [A6 + 0x10]
000016EC  226E 000C                movea.l    A1, [A6 + 0xC]
000016F0  7000                     moveq.l    D0, 0x00
000016F2  1018                     move.b     D0, [A0]+
000016F4  4840                     swap.w     D0
000016F6  1019                     move.b     D0, [A1]+
000016F8  4A2E 0008                tst.b      [A6 + 0x8]
000016FC  670E                     beq        +0x10 /* 0000170C */
000016FE  4A2E 000A                tst.b      [A6 + 0xA]
00001702  6704                     beq        +0x6 /* 00001708 */
00001704  A450                     syscall    RelString/CompareString, flags=4
00001706  6010                     bra        +0x12 /* 00001718 */
label00001708:
00001708  A050                     syscall    RelString/CompareString
0000170A  600C                     bra        +0xE /* 00001718 */
label0000170C:
0000170C  4A2E 000A                tst.b      [A6 + 0xA]
00001710  6704                     beq        +0x6 /* 00001716 */
00001712  A650                     syscall    RelString/CompareString, flags=6
00001714  6002                     bra        +0x4 /* 00001718 */
label00001716:
00001716  A250                     syscall    RelString/CompareString, flags=2
label00001718:
00001718  3D40 0014                move.w     [A6 + 0x14], D0
0000171C  4E5E                     unlink     A6
0000171E  205F                     movea.l    A0, [A7]+
00001720  4FEF 000C                lea.l      A7, [A7 + 0xC]
00001724  4ED0                     jmp        [A0]
fn00001726:
00001726  206F 0008                movea.l    A0, [A7 + 0x8]
0000172A  3F3C 0001                move.w     -[A7], 0x1
0000172E  A9EE                     syscall    Pack7/DecStr68K
00001730  206F 0004                movea.l    A0, [A7 + 0x4]
00001734  2080                     move.l     [A0], D0
00001736  4EFA 000E                jmp        [PC + 0xE /* 00001746 */]
fn0000173A:
0000173A  206F 0004                movea.l    A0, [A7 + 0x4]
0000173E  202F 0008                move.l     D0, [A7 + 0x8]
00001742  4267                     clr.w      -[A7]
00001744  A9EE                     syscall    Pack7/DecStr68K
label00001746:
00001746  205F                     movea.l    A0, [A7]+
00001748  504F                     addq.w     A7, 8
0000174A  4ED0                     jmp        [A0]
