# near model CODE resource
# jump table entries: 3656-3663 (8 of them)
fn00000000:
00000000  4E56 0000                link       A6, 0
00000004  2F0C                     move.l     -[A7], A4
00000006  286E 0010                movea.l    A4, [A6 + 0x10]
0000000A  3F2E 000A                move.w     -[A7], [A6 + 0xA]
0000000E  3F2E 000E                move.w     -[A7], [A6 + 0xE]
00000012  2F0C                     move.l     -[A7], A4
00000014  4EAD 028A                jsr        [A5 + 0x28A /* export_77, CODE:1 @ 00005CFC */]
00000018  2F0C                     move.l     -[A7], A4
0000001A  4EAD 04D2                jsr        [A5 + 0x4D2 /* export_150, CODE:3 @ 00002488 */]
0000001E  286E FFFC                movea.l    A4, [A6 - 0x4]
00000022  4E5E                     unlink     A6
00000024  4E75                     rts
fn00000026:
00000026  4E56 0000                link       A6, 0
0000002A  2F0C                     move.l     -[A7], A4
0000002C  286E 0008                movea.l    A4, [A6 + 0x8]
00000030  200C                     move.l     D0, A4
00000032  6610                     bne        +0x12 /* 00000044 */
00000034  4878 0138                push.l     0x138
00000038  4EAD 040A                jsr        [A5 + 0x40A /* export_125, CODE:3 @ 0000093E */]
0000003C  2840                     movea.l    A4, D0
0000003E  200C                     move.l     D0, A4
00000040  584F                     addq.w     A7, 4
00000042  6734                     beq        +0x36 /* 00000078 */
label00000044:
00000044  2F0C                     move.l     -[A7], A4
00000046  4EAD 04C2                jsr        [A5 + 0x4C2 /* export_148, CODE:3 @ 00002350 */]
0000004A  2840                     movea.l    A4, D0
0000004C  296D F9CC 0024           move.l     [A4 + 0x24], [A5 - 0x634]
00000052  422C 0028                clr.b      [A4 + 0x28]
00000056  7000                     moveq.l    D0, 0x00
00000058  2940 002A                move.l     [A4 + 0x2A], D0
0000005C  70FF                     moveq.l    D0, 0xFFFFFFFF
0000005E  2F00                     move.l     -[A7], D0
00000060  204C                     movea.l    A0, A4
00000062  226C 0024                movea.l    A1, [A4 + 0x24]
00000066  D0E9 0010                add.w      A0, [A1 + 0x10]
0000006A  2F08                     move.l     -[A7], A0
0000006C  2049                     movea.l    A0, A1
0000006E  2268 0014                movea.l    A1, [A0 + 0x14]
00000072  4E91                     jsr        [A1]
00000074  4FEF 000C                lea.l      A7, [A7 + 0xC]
label00000078:
00000078  200C                     move.l     D0, A4
0000007A  286E FFFC                movea.l    A4, [A6 - 0x4]
0000007E  4E5E                     unlink     A6
00000080  4E75                     rts
export_457:
00000082  4E56 FFFE                link       A6, -0x0002
00000086  2F0C                     move.l     -[A7], A4
00000088  286E 0008                movea.l    A4, [A6 + 0x8]
0000008C  200C                     move.l     D0, A4
0000008E  6768                     beq        +0x6A /* 000000F8 */
00000090  296D F9CC 0024           move.l     [A4 + 0x24], [A5 - 0x634]
00000096  4AAC 002A                tst.l      [A4 + 0x2A]
0000009A  673A                     beq        +0x3C /* 000000D6 */
0000009C  204C                     movea.l    A0, A4
0000009E  226C 0024                movea.l    A1, [A4 + 0x24]
000000A2  D0E9 0028                add.w      A0, [A1 + 0x28]
000000A6  2F08                     move.l     -[A7], A0
000000A8  2049                     movea.l    A0, A1
000000AA  2268 002C                movea.l    A1, [A0 + 0x2C]
000000AE  4E91                     jsr        [A1]
000000B0  2F2C 002A                move.l     -[A7], [A4 + 0x2A]
000000B4  A873                     syscall    SetPort
000000B6  70FF                     moveq.l    D0, 0xFFFFFFFF
000000B8  3F00                     move.w     -[A7], D0
000000BA  4EAD 0182                jsr        [A5 + 0x182 /* export_44, CODE:1 @ 00003B34 */]
000000BE  486D 0192                pea.l      [A5 + 0x192 /* export_46, CODE:1 @ 00003D52 */]
000000C2  486E FFFE                pea.l      [A6 - 0x2]
000000C6  A991                     syscall    ModalDialog
000000C8  2F2C 002A                move.l     -[A7], [A4 + 0x2A]
000000CC  A983                     syscall    DisposeDialog
000000CE  2F2C 002E                move.l     -[A7], [A4 + 0x2E]
000000D2  A873                     syscall    SetPort
000000D4  584F                     addq.w     A7, 4
label000000D6:
000000D6  200C                     move.l     D0, A4
000000D8  671E                     beq        +0x20 /* 000000F8 */
000000DA  7000                     moveq.l    D0, 0x00
000000DC  2F00                     move.l     -[A7], D0
000000DE  2F0C                     move.l     -[A7], A4
000000E0  4EAD 04CA                jsr        [A5 + 0x4CA /* export_149, CODE:3 @ 00002416 */]
000000E4  202E 000C                move.l     D0, [A6 + 0xC]
000000E8  0800 0000                btst.b     D0, 0x0
000000EC  504F                     addq.w     A7, 8
000000EE  6708                     beq        +0xA /* 000000F8 */
000000F0  2F0C                     move.l     -[A7], A4
000000F2  4EAD 0402                jsr        [A5 + 0x402 /* export_124, CODE:3 @ 00000914 */]
000000F6  584F                     addq.w     A7, 4
label000000F8:
000000F8  286E FFFA                movea.l    A4, [A6 - 0x6]
000000FC  4E5E                     unlink     A6
000000FE  4E75                     rts
export_458:
00000100  4E56 FEEC                link       A6, -0x0114
00000104  48E7 1718                movem.l    -[A7], D3,D5,D6,D7,A3,A4
00000108  2A2E 000C                move.l     D5, [A6 + 0xC]
0000010C  286E 0008                movea.l    A4, [A6 + 0x8]
00000110  7600                     moveq.l    D3, 0x00
00000112  4AAC 0004                tst.l      [A4 + 0x4]
00000116  660A                     bne        +0xC /* 00000122 */
00000118  302C 0002                move.w     D0, [A4 + 0x2]
0000011C  48C0                     ext.l      D0
0000011E  6602                     bne        +0x4 /* 00000122 */
00000120  7601                     moveq.l    D3, 0x01
label00000122:
00000122  4A03                     tst.b      D3
00000124  671A                     beq        +0x1C /* 00000140 */
00000126  204C                     movea.l    A0, A4
00000128  226C 0024                movea.l    A1, [A4 + 0x24]
0000012C  D0E9 0008                add.w      A0, [A1 + 0x8]
00000130  2F08                     move.l     -[A7], A0
00000132  2049                     movea.l    A0, A1
00000134  2268 000C                movea.l    A1, [A0 + 0xC]
00000138  4E91                     jsr        [A1]
0000013A  4A80                     tst.l      D0
0000013C  584F                     addq.w     A7, 4
0000013E  6002                     bra        +0x4 /* 00000142 */
label00000140:
00000140  7000                     moveq.l    D0, 0x00
label00000142:
00000142  72FF                     moveq.l    D1, 0xFFFFFFFF
00000144  B280                     cmp.l      D1, D0
00000146  6606                     bne        +0x8 /* 0000014E */
00000148  70FF                     moveq.l    D0, 0xFFFFFFFF
0000014A  6000 00E0                bra        +0xE2 /* 0000022C */
label0000014E:
0000014E  4AAC 0014                tst.l      [A4 + 0x14]
00000152  6710                     beq        +0x12 /* 00000164 */
00000154  202C 0014                move.l     D0, [A4 + 0x14]
00000158  B0AC 0018                cmp.l      D0, [A4 + 0x18]
0000015C  6406                     bcc        +0x8 /* 00000164 */
0000015E  70FF                     moveq.l    D0, 0xFFFFFFFF
00000160  6000 00CA                bra        +0xCC /* 0000022C */
label00000164:
00000164  7000                     moveq.l    D0, 0x00
00000166  2D40 FFF0                move.l     [A6 - 0x10], D0
0000016A  2D40 FFF4                move.l     [A6 - 0xC], D0
0000016E  2640                     movea.l    A3, D0
00000170  296E FFF0 001C           move.l     [A4 + 0x1C], [A6 - 0x10]
00000176  296E FFF4 0014           move.l     [A4 + 0x14], [A6 - 0xC]
0000017C  294B 0018                move.l     [A4 + 0x18], A3
00000180  4AAC 000C                tst.l      [A4 + 0xC]
00000184  6616                     bne        +0x18 /* 0000019C */
00000186  266C 0004                movea.l    A3, [A4 + 0x4]
0000018A  2D4B FFF8                move.l     [A6 - 0x8], A3
0000018E  294B 000C                move.l     [A4 + 0xC], A3
00000192  296E FFF8 0008           move.l     [A4 + 0x8], [A6 - 0x8]
00000198  294B 0010                move.l     [A4 + 0x10], A3
label0000019C:
0000019C  3C2C 000E                move.w     D6, [A4 + 0xE]
000001A0  9C6C 000A                sub.w      D6, [A4 + 0xA]
000001A4  70FF                     moveq.l    D0, 0xFFFFFFFF
000001A6  B085                     cmp.l      D0, D5
000001A8  6708                     beq        +0xA /* 000001B2 */
000001AA  206C 000C                movea.l    A0, [A4 + 0xC]
000001AE  1085                     move.b     [A0], D5
000001B0  5246                     addq.w     D6, 1
label000001B2:
000001B2  4A2C 0028                tst.b      [A4 + 0x28]
000001B6  674A                     beq        +0x4C /* 00000202 */
000001B8  4A46                     tst.w      D6
000001BA  6F46                     ble        +0x48 /* 00000202 */
000001BC  486E FFEC                pea.l      [A6 - 0x14]
000001C0  A874                     syscall    GetPort
000001C2  2F2C 002A                move.l     -[A7], [A4 + 0x2A]
000001C6  A873                     syscall    SetPort
000001C8  4247                     clr.w      D7
000001CA  6012                     bra        +0x14 /* 000001DE */
label000001CC:
000001CC  266C 0008                movea.l    A3, [A4 + 0x8]
000001D0  D6C7                     add.w      A3, D7
000001D2  41EE FEEC                lea.l      A0, [A6 - 0x114]
000001D6  1193 7000                move.b     [A0 + D7.w], [A3]
000001DA  3007                     move.w     D0, D7
000001DC  5247                     addq.w     D7, 1
label000001DE:
000001DE  BC47                     cmp.w      D6, D7
000001E0  6F06                     ble        +0x8 /* 000001E8 */
000001E2  0C47 00FF                cmpi.w     D7, 0xFF
000001E6  6DE4                     blt        -0x1A /* 000001CC */
label000001E8:
000001E8  41EE FEEC                lea.l      A0, [A6 - 0x114]
000001EC  4230 7000                clr.b      [A0 + D7.w]
000001F0  486E FEEC                pea.l      [A6 - 0x114]
000001F4  2F0C                     move.l     -[A7], A4
000001F6  4EBA 02F8                jsr        [PC + 0x2F8 /* 000004F0 */]
000001FA  2F2E FFEC                move.l     -[A7], [A6 - 0x14]
000001FE  A873                     syscall    SetPort
00000200  504F                     addq.w     A7, 8
label00000202:
00000202  2D6C 0004 FFFC           move.l     [A6 - 0x4], [A4 + 0x4]
00000208  202C 0020                move.l     D0, [A4 + 0x20]
0000020C  D0AC 0004                add.l      D0, [A4 + 0x4]
00000210  2640                     movea.l    A3, D0
00000212  534B                     subq.w     A3, 1
00000214  296E FFFC 000C           move.l     [A4 + 0xC], [A6 - 0x4]
0000021A  296E FFFC 0008           move.l     [A4 + 0x8], [A6 - 0x4]
00000220  294B 0010                move.l     [A4 + 0x10], A3
00000224  203C 0000 00FF           move.l     D0, 0xFF
0000022A  C085                     and.l      D0, D5
label0000022C:
0000022C  4CEE 18E8 FED4           movem.l    D3,D5,D6,D7,A3,A4, [A6 - 0x12C]
00000232  4E5E                     unlink     A6
00000234  4E75                     rts
export_459:
00000236  4E56 0000                link       A6, 0
0000023A  7000                     moveq.l    D0, 0x00
0000023C  4E5E                     unlink     A6
0000023E  4E75                     rts
export_460:
00000240  4E56 FFEC                link       A6, -0x0014
00000244  48E7 1118                movem.l    -[A7], D3,D7,A3,A4
00000248  2E2E 0010                move.l     D7, [A6 + 0x10]
0000024C  286E 0008                movea.l    A4, [A6 + 0x8]
00000250  4AAC 0004                tst.l      [A4 + 0x4]
00000254  6706                     beq        +0x8 /* 0000025C */
00000256  7000                     moveq.l    D0, 0x00
00000258  6000 00E4                bra        +0xE6 /* 0000033E */
label0000025C:
0000025C  4AAE 000C                tst.l      [A6 + 0xC]
00000260  6758                     beq        +0x5A /* 000002BA */
00000262  0C87 0000 0100           cmpi.l     D7, 0x100
00000268  6F50                     ble        +0x52 /* 000002BA */
0000026A  266E 000C                movea.l    A3, [A6 + 0xC]
0000026E  2007                     move.l     D0, D7
00000270  D0AE 000C                add.l      D0, [A6 + 0xC]
00000274  2D40 FFEC                move.l     [A6 - 0x14], D0
00000278  7600                     moveq.l    D3, 0x00
0000027A  4A54                     tst.w      [A4]
0000027C  6708                     beq        +0xA /* 00000286 */
0000027E  4AAC 0004                tst.l      [A4 + 0x4]
00000282  6702                     beq        +0x4 /* 00000286 */
00000284  7601                     moveq.l    D3, 0x01
label00000286:
00000286  4A03                     tst.b      D3
00000288  670E                     beq        +0x10 /* 00000298 */
0000028A  2F2C 0004                move.l     -[A7], [A4 + 0x4]
0000028E  4EAD 0402                jsr        [A5 + 0x402 /* export_124, CODE:3 @ 00000914 */]
00000292  7000                     moveq.l    D0, 0x00
00000294  584F                     addq.w     A7, 4
00000296  6002                     bra        +0x4 /* 0000029A */
label00000298:
00000298  7000                     moveq.l    D0, 0x00
label0000029A:
0000029A  294B 0004                move.l     [A4 + 0x4], A3
0000029E  B7EE FFEC                cmpa.l     A3, [A6 - 0x14]
000002A2  55C3                     scs        D3
000002A4  4403                     neg.b      D3
000002A6  6708                     beq        +0xA /* 000002B0 */
000002A8  202E FFEC                move.l     D0, [A6 - 0x14]
000002AC  908B                     sub.l      D0, A3
000002AE  6002                     bra        +0x4 /* 000002B2 */
label000002B0:
000002B0  7000                     moveq.l    D0, 0x00
label000002B2:
000002B2  2940 0020                move.l     [A4 + 0x20], D0
000002B6  4254                     clr.w      [A4]
000002B8  6050                     bra        +0x52 /* 0000030A */
label000002BA:
000002BA  47EC 0038                lea.l      A3, [A4 + 0x38]
000002BE  41EC 0038                lea.l      A0, [A4 + 0x38]
000002C2  41E8 0100                lea.l      A0, [A0 + 0x100]
000002C6  2D48 FFF0                move.l     [A6 - 0x10], A0
000002CA  7600                     moveq.l    D3, 0x00
000002CC  4A54                     tst.w      [A4]
000002CE  6708                     beq        +0xA /* 000002D8 */
000002D0  4AAC 0004                tst.l      [A4 + 0x4]
000002D4  6702                     beq        +0x4 /* 000002D8 */
000002D6  7601                     moveq.l    D3, 0x01
label000002D8:
000002D8  4A03                     tst.b      D3
000002DA  670E                     beq        +0x10 /* 000002EA */
000002DC  2F2C 0004                move.l     -[A7], [A4 + 0x4]
000002E0  4EAD 0402                jsr        [A5 + 0x402 /* export_124, CODE:3 @ 00000914 */]
000002E4  7000                     moveq.l    D0, 0x00
000002E6  584F                     addq.w     A7, 4
000002E8  6002                     bra        +0x4 /* 000002EC */
label000002EA:
000002EA  7000                     moveq.l    D0, 0x00
label000002EC:
000002EC  294B 0004                move.l     [A4 + 0x4], A3
000002F0  B7EE FFF0                cmpa.l     A3, [A6 - 0x10]
000002F4  55C3                     scs        D3
000002F6  4403                     neg.b      D3
000002F8  6708                     beq        +0xA /* 00000302 */
000002FA  202E FFF0                move.l     D0, [A6 - 0x10]
000002FE  908B                     sub.l      D0, A3
00000300  6002                     bra        +0x4 /* 00000304 */
label00000302:
00000302  7000                     moveq.l    D0, 0x00
label00000304:
00000304  2940 0020                move.l     [A4 + 0x20], D0
00000308  4254                     clr.w      [A4]
label0000030A:
0000030A  7000                     moveq.l    D0, 0x00
0000030C  2D40 FFF4                move.l     [A6 - 0xC], D0
00000310  2640                     movea.l    A3, D0
00000312  296E FFF4 000C           move.l     [A4 + 0xC], [A6 - 0xC]
00000318  296E FFF4 0008           move.l     [A4 + 0x8], [A6 - 0xC]
0000031E  294B 0010                move.l     [A4 + 0x10], A3
00000322  2D40 FFF8                move.l     [A6 - 0x8], D0
00000326  2D40 FFFC                move.l     [A6 - 0x4], D0
0000032A  2640                     movea.l    A3, D0
0000032C  296E FFF8 001C           move.l     [A4 + 0x1C], [A6 - 0x8]
00000332  296E FFFC 0014           move.l     [A4 + 0x14], [A6 - 0x4]
00000338  294B 0018                move.l     [A4 + 0x18], A3
0000033C  200C                     move.l     D0, A4
label0000033E:
0000033E  4CEE 1888 FFDC           movem.l    D3,D7,A3,A4, [A6 - 0x24]
00000344  4E5E                     unlink     A6
00000346  4E75                     rts
export_461:
00000348  4E56 0000                link       A6, 0
0000034C  2F0C                     move.l     -[A7], A4
0000034E  286E 0008                movea.l    A4, [A6 + 0x8]
00000352  4AAC 000C                tst.l      [A4 + 0xC]
00000356  6726                     beq        +0x28 /* 0000037E */
00000358  202C 000C                move.l     D0, [A4 + 0xC]
0000035C  B0AC 0008                cmp.l      D0, [A4 + 0x8]
00000360  631C                     bls        +0x1E /* 0000037E */
00000362  70FF                     moveq.l    D0, 0xFFFFFFFF
00000364  2F00                     move.l     -[A7], D0
00000366  204C                     movea.l    A0, A4
00000368  226C 0024                movea.l    A1, [A4 + 0x24]
0000036C  D0E9 0010                add.w      A0, [A1 + 0x10]
00000370  2F08                     move.l     -[A7], A0
00000372  2049                     movea.l    A0, A1
00000374  2268 0014                movea.l    A1, [A0 + 0x14]
00000378  4E91                     jsr        [A1]
0000037A  504F                     addq.w     A7, 8
0000037C  6002                     bra        +0x4 /* 00000380 */
label0000037E:
0000037E  7000                     moveq.l    D0, 0x00
label00000380:
00000380  286E FFFC                movea.l    A4, [A6 - 0x4]
00000384  4E5E                     unlink     A6
00000386  4E75                     rts
fn00000388:
00000388  4E56 FFE2                link       A6, -0x001E
0000038C  48E7 0308                movem.l    -[A7], D6,D7,A4
00000390  286E 0008                movea.l    A4, [A6 + 0x8]
00000394  196E 000F 0028           move.b     [A4 + 0x28], [A6 + 0xF]
0000039A  6700 012E                beq        +0x130 /* 000004CA */
0000039E  4AAC 002A                tst.l      [A4 + 0x2A]
000003A2  6600 0126                bne        +0x128 /* 000004CA */
000003A6  486C 002E                pea.l      [A4 + 0x2E]
000003AA  A874                     syscall    GetPort
000003AC  2F3C 444C 4F47           move.l     -[A7], 0x444C4F47 /* 'DLOG' */
000003B2  3F3C 00A1                move.w     -[A7], 0xA1
000003B6  4EAD 01A2                jsr        [A5 + 0x1A2 /* export_48, CODE:1 @ 0000434E */]
000003BA  598F                     subq.l     A7, 4
000003BC  3F3C 00A1                move.w     -[A7], 0xA1
000003C0  7000                     moveq.l    D0, 0x00
000003C2  2F00                     move.l     -[A7], D0
000003C4  72FF                     moveq.l    D1, 0xFFFFFFFF
000003C6  2F01                     move.l     -[A7], D1
000003C8  A97C                     syscall    GetNewDialog
000003CA  295F 002A                move.l     [A4 + 0x2A], [A7]+
000003CE  6700 00F0                beq        +0xF2 /* 000004C0 */
000003D2  2F2C 002A                move.l     -[A7], [A4 + 0x2A]
000003D6  A873                     syscall    SetPort
000003D8  206C 002A                movea.l    A0, [A4 + 0x2A]
000003DC  2248                     movea.l    A1, A0
000003DE  3E28 0014                move.w     D7, [A0 + 0x14]
000003E2  9E69 0010                sub.w      D7, [A1 + 0x10]
000003E6  206C 002A                movea.l    A0, [A4 + 0x2A]
000003EA  3D68 0012 FFE8           move.w     [A6 - 0x18], [A0 + 0x12]
000003F0  206C 002A                movea.l    A0, [A4 + 0x2A]
000003F4  3D68 0010 FFE6           move.w     [A6 - 0x1A], [A0 + 0x10]
000003FA  486E FFE6                pea.l      [A6 - 0x1A]
000003FE  A870                     syscall    LocalToGlobal
00000400  302E FFE6                move.w     D0, [A6 - 0x1A]
00000404  48C0                     ext.l      D0
00000406  3207                     move.w     D1, D7
00000408  48C1                     ext.l      D1
0000040A  D281                     add.l      D1, D1
0000040C  2D40 FFE2                move.l     [A6 - 0x1E], D0
00000410  2001                     move.l     D0, D1
00000412  7203                     moveq.l    D1, 0x03
00000414  4EAD 076A                jsr        [A5 + 0x76A /* export_233, CODE:3 @ 0000372A */]
00000418  222E FFE2                move.l     D1, [A6 - 0x1E]
0000041C  D081                     add.l      D0, D1
0000041E  D080                     add.l      D0, D0
00000420  3C00                     move.w     D6, D0
00000422  9047                     sub.w      D0, D7
00000424  3D40 FFE6                move.w     [A6 - 0x1A], D0
00000428  2F2C 002A                move.l     -[A7], [A4 + 0x2A]
0000042C  2F2E FFE6                move.l     -[A7], [A6 - 0x1A]
00000430  7000                     moveq.l    D0, 0x00
00000432  1F00                     move.b     -[A7], D0
00000434  A91B                     syscall    MoveWindow
00000436  2F2C 002A                move.l     -[A7], [A4 + 0x2A]
0000043A  A915                     syscall    ShowWindow
0000043C  2F2C 002A                move.l     -[A7], [A4 + 0x2A]
00000440  A91F                     syscall    SelectWindow
00000442  2F2C 002A                move.l     -[A7], [A4 + 0x2A]
00000446  A981                     syscall    DrawDialog
00000448  2F2C 002A                move.l     -[A7], [A4 + 0x2A]
0000044C  7001                     moveq.l    D0, 0x01
0000044E  3F00                     move.w     -[A7], D0
00000450  4EAD 030A                jsr        [A5 + 0x30A /* export_93, CODE:2 @ 00000000 */]
00000454  7004                     moveq.l    D0, 0x04
00000456  3F00                     move.w     -[A7], D0
00000458  A887                     syscall    TextFont
0000045A  7009                     moveq.l    D0, 0x09
0000045C  3F00                     move.w     -[A7], D0
0000045E  A88A                     syscall    TextSize
00000460  486E FFEA                pea.l      [A6 - 0x16]
00000464  A88B                     syscall    GetFontInfo
00000466  302E FFEA                move.w     D0, [A6 - 0x16]
0000046A  48C0                     ext.l      D0
0000046C  322E FFEC                move.w     D1, [A6 - 0x14]
00000470  48C1                     ext.l      D1
00000472  D280                     add.l      D1, D0
00000474  302E FFF0                move.w     D0, [A6 - 0x10]
00000478  D041                     add.w      D0, D1
0000047A  3940 0036                move.w     [A4 + 0x36], D0
0000047E  2F2C 002A                move.l     -[A7], [A4 + 0x2A]
00000482  7002                     moveq.l    D0, 0x02
00000484  3F00                     move.w     -[A7], D0
00000486  486E FFF2                pea.l      [A6 - 0xE]
0000048A  486E FFF4                pea.l      [A6 - 0xC]
0000048E  486E FFF8                pea.l      [A6 - 0x8]
00000492  A98D                     syscall    GetDialogItem/GetDItem
00000494  486E FFF8                pea.l      [A6 - 0x8]
00000498  A8A1                     syscall    FrameRect
0000049A  302E FFFC                move.w     D0, [A6 - 0x4]
0000049E  48C0                     ext.l      D0
000004A0  322E FFF8                move.w     D1, [A6 - 0x8]
000004A4  48C1                     ext.l      D1
000004A6  9081                     sub.l      D0, D1
000004A8  322C 0036                move.w     D1, [A4 + 0x36]
000004AC  48C1                     ext.l      D1
000004AE  4EAD 076A                jsr        [A5 + 0x76A /* export_233, CODE:3 @ 0000372A */]
000004B2  5340                     subq.w     D0, 1
000004B4  3940 0034                move.w     [A4 + 0x34], D0
000004B8  397C 0001 0032           move.w     [A4 + 0x32], 0x1
000004BE  600A                     bra        +0xC /* 000004CA */
label000004C0:
000004C0  422C 0028                clr.b      [A4 + 0x28]
000004C4  487A 000E                pea.l      [PC + 0xE /* 000004D4, value 0x1A457272, pstring "Error: GetNewDialog failed" */]
000004C8  ABFF                     syscall    DebugStr
label000004CA:
000004CA  4CEE 10C0 FFD6           movem.l    D6,D7,A4, [A6 - 0x2A]
000004D0  4E5E                     unlink     A6
000004D2  4E75                     rts
000004D4  1A45                     movea.b    A5, D5
000004D6  7272                     moveq.l    D1, 0x72
000004D8  6F72                     ble        +0x74 /* 0000054C */
000004DA  3A20                     move.w     D5, -[A0]
000004DC  4765                     chk.w      D3, -[A5]
000004DE  744E                     moveq.l    D2, 0x4E
000004E0  6577                     bcs        +0x79 /* 00000559 */
000004E2  4469 616C                neg.w      [A1 + 0x616C]
000004E6  6F67                     ble        +0x69 /* 0000054F */
000004E8  2066                     movea.l    A0, -[A6]
000004EA  6169                     bsr        +0x6B /* 00000555 */
000004EC  6C65                     bge        +0x67 /* 00000553 */
000004EE  6400 4E56                bcc        +0x4E58 /* 00005346 */
// begin alternate branch 000004F0-000004F4
fn000004F0:
000004F0  4E56 FFF2                link       A6, -0x000E
// end alternate branch 000004F0-000004F4
fn000004F0: // (misaligned)
000004F2  FFF2                     .invalid   <<F/7/7>>
000004F4  48E7 0118                movem.l    -[A7], D7,A3,A4
000004F8  286E 0008                movea.l    A4, [A6 + 0x8]
000004FC  302C 0032                move.w     D0, [A4 + 0x32]
00000500  B06C 0034                cmp.w      D0, [A4 + 0x34]
00000504  6F52                     ble        +0x54 /* 00000558 */
00000506  598F                     subq.l     A7, 4
00000508  A8D8                     syscall    NewRgn
0000050A  265F                     movea.l    A3, [A7]+
0000050C  2F2C 002A                move.l     -[A7], [A4 + 0x2A]
00000510  7002                     moveq.l    D0, 0x02
00000512  3F00                     move.w     -[A7], D0
00000514  486E FFFA                pea.l      [A6 - 0x6]
00000518  486E FFFC                pea.l      [A6 - 0x4]
0000051C  486E FFF2                pea.l      [A6 - 0xE]
00000520  A98D                     syscall    GetDialogItem/GetDItem
00000522  486E FFF2                pea.l      [A6 - 0xE]
00000526  7005                     moveq.l    D0, 0x05
00000528  3F00                     move.w     -[A7], D0
0000052A  3F00                     move.w     -[A7], D0
0000052C  A8A9                     syscall    InsetRect
0000052E  586E FFF6                addq.w     [A6 - 0xA], 4
00000532  4247                     clr.w      D7
00000534  6014                     bra        +0x16 /* 0000054A */
label00000536:
00000536  486E FFF2                pea.l      [A6 - 0xE]
0000053A  7000                     moveq.l    D0, 0x00
0000053C  3F00                     move.w     -[A7], D0
0000053E  72FF                     moveq.l    D1, 0xFFFFFFFF
00000540  3F01                     move.w     -[A7], D1
00000542  2F0B                     move.l     -[A7], A3
00000544  A8EF                     syscall    ScrollRect
00000546  3007                     move.w     D0, D7
00000548  5247                     addq.w     D7, 1
label0000054A:
0000054A  BE6C 0036                cmp.w      D7, [A4 + 0x36]
// begin alternate branch 0000054C-00000562
label0000054C:
0000054C  0036 6DE6 2F0B A8D9 536C ori.b      [[A6 + <<invalid base displacement size>> + D2 * 8] - 0x5726AC94], 0xE6
00000556  0032 598F 2F2E 000C 4EAD ori.b      [[A2 + 0xC] + D2 * 8 + 0x4EAD], 0x8F
label00000558: // (misaligned)
00000560  075A                     bchg       [A2]+, D3
// end alternate branch 0000054C-00000562
label0000054C: // (misaligned)
0000054E  6DE6                     blt        -0x18 /* 00000536 */
00000550  2F0B                     move.l     -[A7], A3
00000552  A8D9                     syscall    DisposRgn/DisposeRgn
00000554  536C 0032                subq.w     [A4 + 0x32], 1
label00000558:
00000558  598F                     subq.l     A7, 4
0000055A  2F2E 000C                move.l     -[A7], [A6 + 0xC]
0000055E  4EAD 075A                jsr        [A5 + 0x75A /* export_231, CODE:3 @ 000036AA */]
00000562  2F2C 002A                move.l     -[A7], [A4 + 0x2A]
00000566  7002                     moveq.l    D0, 0x02
00000568  3F00                     move.w     -[A7], D0
0000056A  486E FFFA                pea.l      [A6 - 0x6]
0000056E  486E FFFC                pea.l      [A6 - 0x4]
00000572  486E FFF2                pea.l      [A6 - 0xE]
00000576  A98D                     syscall    GetDialogItem/GetDItem
00000578  486E FFF2                pea.l      [A6 - 0xE]
0000057C  A8A1                     syscall    FrameRect
0000057E  302E FFF4                move.w     D0, [A6 - 0xC]
00000582  5A40                     addq.w     D0, 5
00000584  3F00                     move.w     -[A7], D0
00000586  302E FFF2                move.w     D0, [A6 - 0xE]
0000058A  5640                     addq.w     D0, 3
0000058C  322C 0032                move.w     D1, [A4 + 0x32]
00000590  526C 0032                addq.w     [A4 + 0x32], 1
00000594  C3EC 0036                muls.w     D1, [A4 + 0x36]
00000598  D240                     add.w      D1, D0
0000059A  3F01                     move.w     -[A7], D1
0000059C  A893                     syscall    MoveTo
0000059E  2F2E 000C                move.l     -[A7], [A6 + 0xC]
000005A2  A884                     syscall    DrawString
000005A4  584F                     addq.w     A7, 4
000005A6  4CEE 1880 FFE6           movem.l    D7,A3,A4, [A6 - 0x1A]
000005AC  4E5E                     unlink     A6
000005AE  4E75                     rts
fn000005B0:
000005B0  4E56 0000                link       A6, 0
000005B4  2F0C                     move.l     -[A7], A4
000005B6  286E 0008                movea.l    A4, [A6 + 0x8]
000005BA  200C                     move.l     D0, A4
000005BC  6610                     bne        +0x12 /* 000005CE */
000005BE  4878 029C                push.l     0x29C
000005C2  4EAD 040A                jsr        [A5 + 0x40A /* export_125, CODE:3 @ 0000093E */]
000005C6  2840                     movea.l    A4, D0
000005C8  200C                     move.l     D0, A4
000005CA  584F                     addq.w     A7, 4
000005CC  672A                     beq        +0x2C /* 000005F8 */
label000005CE:
000005CE  2F0C                     move.l     -[A7], A4
000005D0  4EBA 0130                jsr        [PC + 0x130 /* 00000702 */]
000005D4  422C 0123                clr.b      [A4 + 0x123]
000005D8  7000                     moveq.l    D0, 0x00
000005DA  2F00                     move.l     -[A7], D0
000005DC  4EBA FA48                jsr        [PC - 0x5B8 /* 00000026 */]
000005E0  2940 0124                move.l     [A4 + 0x124], D0
000005E4  2F00                     move.l     -[A7], D0
000005E6  7000                     moveq.l    D0, 0x00
000005E8  2F00                     move.l     -[A7], D0
000005EA  2F00                     move.l     -[A7], D0
000005EC  4EAD 0442                jsr        [A5 + 0x442 /* export_132, CODE:3 @ 0000159E */]
000005F0  2940 0006                move.l     [A4 + 0x6], D0
000005F4  4FEF 0014                lea.l      A7, [A7 + 0x14]
label000005F8:
000005F8  200C                     move.l     D0, A4
000005FA  286E FFFC                movea.l    A4, [A6 - 0x4]
000005FE  4E5E                     unlink     A6
00000600  4E75                     rts
fn00000602:
00000602  4E56 FEF8                link       A6, -0x0108
00000606  48E7 0018                movem.l    -[A7], A3,A4
0000060A  286E 0008                movea.l    A4, [A6 + 0x8]
0000060E  200C                     move.l     D0, A4
00000610  6700 00E6                beq        +0xE8 /* 000006F8 */
00000614  2F0C                     move.l     -[A7], A4
00000616  4EBA 09B2                jsr        [PC + 0x9B2 /* 00000FCA */]
0000061A  47ED 046A                lea.l      A3, [A5 + 0x46A /* export_137, CODE:3 @ 00001CBE */]
0000061E  2F2C 0006                move.l     -[A7], [A4 + 0x6]
00000622  4E93                     jsr        [A3]
00000624  2F0C                     move.l     -[A7], A4
00000626  4EBA 03BE                jsr        [PC + 0x3BE /* 000009E6 */]
0000062A  486E FEF8                pea.l      [A6 - 0x108]
0000062E  4878 00A3                push.l     0xA3
00000632  7003                     moveq.l    D0, 0x03
00000634  2F00                     move.l     -[A7], D0
00000636  4EBA F9C8                jsr        [PC - 0x638 /* 00000000 */]
0000063A  4FEF 000C                lea.l      A7, [A7 + 0xC]
0000063E  2F00                     move.l     -[A7], D0
00000640  2F2C 0006                move.l     -[A7], [A4 + 0x6]
00000644  4EAD 0412                jsr        [A5 + 0x412 /* export_126, CODE:3 @ 00000B58 */]
00000648  2D40 FFF8                move.l     [A6 - 0x8], D0
0000064C  47ED 046A                lea.l      A3, [A5 + 0x46A /* export_137, CODE:3 @ 00001CBE */]
00000650  2F2E FFF8                move.l     -[A7], [A6 - 0x8]
00000654  4E93                     jsr        [A3]
00000656  486E FEF8                pea.l      [A6 - 0x108]
0000065A  4878 00A3                push.l     0xA3
0000065E  7004                     moveq.l    D0, 0x04
00000660  2F00                     move.l     -[A7], D0
00000662  4EBA F99C                jsr        [PC - 0x664 /* 00000000 */]
00000666  4FEF 000C                lea.l      A7, [A7 + 0xC]
0000066A  2F00                     move.l     -[A7], D0
0000066C  2F2C 0006                move.l     -[A7], [A4 + 0x6]
00000670  4EAD 0412                jsr        [A5 + 0x412 /* export_126, CODE:3 @ 00000B58 */]
00000674  2D40 FFFC                move.l     [A6 - 0x4], D0
00000678  47ED 046A                lea.l      A3, [A5 + 0x46A /* export_137, CODE:3 @ 00001CBE */]
0000067C  2F2E FFFC                move.l     -[A7], [A6 - 0x4]
00000680  4E93                     jsr        [A3]
00000682  4AAC 0006                tst.l      [A4 + 0x6]
00000686  6724                     beq        +0x26 /* 000006AC */
00000688  7003                     moveq.l    D0, 0x03
0000068A  2F00                     move.l     -[A7], D0
0000068C  206C 0006                movea.l    A0, [A4 + 0x6]
00000690  2248                     movea.l    A1, A0
00000692  2251                     movea.l    A1, [A1]
00000694  D0E9 0008                add.w      A0, [A1 + 0x8]
00000698  2F08                     move.l     -[A7], A0
0000069A  206C 0006                movea.l    A0, [A4 + 0x6]
0000069E  2050                     movea.l    A0, [A0]
000006A0  2268 000C                movea.l    A1, [A0 + 0xC]
000006A4  4E91                     jsr        [A1]
000006A6  7000                     moveq.l    D0, 0x00
000006A8  504F                     addq.w     A7, 8
000006AA  6002                     bra        +0x4 /* 000006AE */
label000006AC:
000006AC  7000                     moveq.l    D0, 0x00
label000006AE:
000006AE  4AAC 0124                tst.l      [A4 + 0x124]
000006B2  6728                     beq        +0x2A /* 000006DC */
000006B4  7003                     moveq.l    D0, 0x03
000006B6  2F00                     move.l     -[A7], D0
000006B8  206C 0124                movea.l    A0, [A4 + 0x124]
000006BC  2248                     movea.l    A1, A0
000006BE  2269 0024                movea.l    A1, [A1 + 0x24]
000006C2  D0E9 0058                add.w      A0, [A1 + 0x58]
000006C6  2F08                     move.l     -[A7], A0
000006C8  206C 0124                movea.l    A0, [A4 + 0x124]
000006CC  2068 0024                movea.l    A0, [A0 + 0x24]
000006D0  2268 005C                movea.l    A1, [A0 + 0x5C]
000006D4  4E91                     jsr        [A1]
000006D6  7000                     moveq.l    D0, 0x00
000006D8  504F                     addq.w     A7, 8
000006DA  6002                     bra        +0x4 /* 000006DE */
label000006DC:
000006DC  7000                     moveq.l    D0, 0x00
label000006DE:
000006DE  200C                     move.l     D0, A4
000006E0  4FEF 0024                lea.l      A7, [A7 + 0x24]
000006E4  6712                     beq        +0x14 /* 000006F8 */
000006E6  202E 000C                move.l     D0, [A6 + 0xC]
000006EA  0800 0000                btst.b     D0, 0x0
000006EE  6708                     beq        +0xA /* 000006F8 */
000006F0  2F0C                     move.l     -[A7], A4
000006F2  4EAD 0402                jsr        [A5 + 0x402 /* export_124, CODE:3 @ 00000914 */]
000006F6  584F                     addq.w     A7, 4
label000006F8:
000006F8  4CEE 1800 FEF0           movem.l    A3,A4, [A6 - 0x110]
000006FE  4E5E                     unlink     A6
00000700  4E75                     rts
fn00000702:
00000702  4E56 0000                link       A6, 0
00000706  2F0C                     move.l     -[A7], A4
00000708  286E 0008                movea.l    A4, [A6 + 0x8]
0000070C  4254                     clr.w      [A4]
0000070E  422C 0005                clr.b      [A4 + 0x5]
00000712  426C 0130                clr.w      [A4 + 0x130]
00000716  42AC 010C                clr.l      [A4 + 0x10C]
0000071A  7000                     moveq.l    D0, 0x00
0000071C  2940 0110                move.l     [A4 + 0x110], D0
00000720  2940 0114                move.l     [A4 + 0x114], D0
00000724  2940 0118                move.l     [A4 + 0x118], D0
00000728  2940 025E                move.l     [A4 + 0x25E], D0
0000072C  426C 0120                clr.w      [A4 + 0x120]
00000730  2940 011C                move.l     [A4 + 0x11C], D0
00000734  397C FFFF 0256           move.w     [A4 + 0x256], 0xFFFF
0000073A  397C FFFF 0250           move.w     [A4 + 0x250], 0xFFFF
00000740  2940 025A                move.l     [A4 + 0x25A], D0
00000744  2940 028E                move.l     [A4 + 0x28E], D0
00000748  2940 028A                move.l     [A4 + 0x28A], D0
0000074C  2940 0286                move.l     [A4 + 0x286], D0
00000750  2940 0282                move.l     [A4 + 0x282], D0
00000754  2940 027E                move.l     [A4 + 0x27E], D0
00000758  2940 027A                move.l     [A4 + 0x27A], D0
0000075C  2940 0276                move.l     [A4 + 0x276], D0
00000760  2940 0272                move.l     [A4 + 0x272], D0
00000764  2940 026E                move.l     [A4 + 0x26E], D0
00000768  2940 0262                move.l     [A4 + 0x262], D0
0000076C  721C                     moveq.l    D1, 0x1C
0000076E  2941 0266                move.l     [A4 + 0x266], D1
00000772  2401                     move.l     D2, D1
00000774  D4AC 0262                add.l      D2, [A4 + 0x262]
00000778  2942 026A                move.l     [A4 + 0x26A], D2
0000077C  422C 0004                clr.b      [A4 + 0x4]
00000780  422C 0242                clr.b      [A4 + 0x242]
00000784  422C 0234                clr.b      [A4 + 0x234]
00000788  422C 0003                clr.b      [A4 + 0x3]
0000078C  422C 0233                clr.b      [A4 + 0x233]
00000790  422C 029A                clr.b      [A4 + 0x29A]
00000794  422C 0243                clr.b      [A4 + 0x243]
00000798  426C 0240                clr.w      [A4 + 0x240]
0000079C  422C 023A                clr.b      [A4 + 0x23A]
000007A0  422C 0235                clr.b      [A4 + 0x235]
000007A4  422C 0232                clr.b      [A4 + 0x232]
000007A8  422C 0122                clr.b      [A4 + 0x122]
000007AC  422C 0002                clr.b      [A4 + 0x2]
000007B0  2940 0236                move.l     [A4 + 0x236], D0
000007B4  2940 023C                move.l     [A4 + 0x23C], D0
000007B8  2940 0244                move.l     [A4 + 0x244], D0
000007BC  2940 024C                move.l     [A4 + 0x24C], D0
000007C0  2940 0252                move.l     [A4 + 0x252], D0
000007C4  2940 0292                move.l     [A4 + 0x292], D0
000007C8  2940 0296                move.l     [A4 + 0x296], D0
000007CC  2940 0128                move.l     [A4 + 0x128], D0
000007D0  286E FFFC                movea.l    A4, [A6 - 0x4]
000007D4  4E5E                     unlink     A6
000007D6  4E75                     rts
fn000007D8:
000007D8  4E56 FEF4                link       A6, -0x010C
000007DC  48E7 0718                movem.l    -[A7], D5,D6,D7,A3,A4
000007E0  3C2E 0012                move.w     D6, [A6 + 0x12]
000007E4  3E2E 000E                move.w     D7, [A6 + 0xE]
000007E8  286E 0008                movea.l    A4, [A6 + 0x8]
000007EC  558F                     subq.l     A7, 2
000007EE  A994                     syscall    CurResFile
000007F0  3A1F                     move.w     D5, [A7]+
000007F2  4EAD 0222                jsr        [A5 + 0x222 /* export_64, CODE:1 @ 0000588C */]
000007F6  7000                     moveq.l    D0, 0x00
000007F8  102C 0005                move.b     D0, [A4 + 0x5]
000007FC  B046                     cmp.w      D0, D6
000007FE  6D0E                     blt        +0x10 /* 0000080E */
00000800  7000                     moveq.l    D0, 0x00
00000802  102C 0005                move.b     D0, [A4 + 0x5]
00000806  B046                     cmp.w      D0, D6
00000808  6F38                     ble        +0x3A /* 00000842 */
0000080A  4A47                     tst.w      D7
0000080C  6734                     beq        +0x36 /* 00000842 */
label0000080E:
0000080E  486E FF00                pea.l      [A6 - 0x100]
00000812  4878 00A2                push.l     0xA2
00000816  48C6                     ext.l      D6
00000818  2F06                     move.l     -[A7], D6
0000081A  4EBA F7E4                jsr        [PC - 0x81C /* 00000000 */]
0000081E  4FEF 000C                lea.l      A7, [A7 + 0xC]
00000822  2F00                     move.l     -[A7], D0
00000824  2F2C 0006                move.l     -[A7], [A4 + 0x6]
00000828  4EAD 0412                jsr        [A5 + 0x412 /* export_126, CODE:3 @ 00000B58 */]
0000082C  2D40 FEFC                move.l     [A6 - 0x104], D0
00000830  47ED 046A                lea.l      A3, [A5 + 0x46A /* export_137, CODE:3 @ 00001CBE */]
00000834  2F2E FEFC                move.l     -[A7], [A6 - 0x104]
00000838  4E93                     jsr        [A3]
0000083A  1946 0005                move.b     [A4 + 0x5], D6
0000083E  4FEF 000C                lea.l      A7, [A7 + 0xC]
label00000842:
00000842  4A47                     tst.w      D7
00000844  6700 0176                beq        +0x178 /* 000009BC */
00000848  0C47 07D0                cmpi.w     D7, 0x7D0
0000084C  6F3A                     ble        +0x3C /* 00000888 */
0000084E  486E FF00                pea.l      [A6 - 0x100]
00000852  4878 00A4                push.l     0xA4
00000856  3007                     move.w     D0, D7
00000858  907C 07D0                sub.w      D0, 0x7D0
0000085C  48C0                     ext.l      D0
0000085E  2F00                     move.l     -[A7], D0
00000860  4EBA F79E                jsr        [PC - 0x862 /* 00000000 */]
00000864  4FEF 000C                lea.l      A7, [A7 + 0xC]
00000868  2F00                     move.l     -[A7], D0
0000086A  2F2C 0006                move.l     -[A7], [A4 + 0x6]
0000086E  4EAD 0412                jsr        [A5 + 0x412 /* export_126, CODE:3 @ 00000B58 */]
00000872  2D40 FEF8                move.l     [A6 - 0x108], D0
00000876  47ED 046A                lea.l      A3, [A5 + 0x46A /* export_137, CODE:3 @ 00001CBE */]
0000087A  2F2E FEF8                move.l     -[A7], [A6 - 0x108]
0000087E  4E93                     jsr        [A3]
00000880  4FEF 000C                lea.l      A7, [A7 + 0xC]
00000884  6000 0136                bra        +0x138 /* 000009BC */
label00000888:
00000888  4A6C 0250                tst.w      [A4 + 0x250]
0000088C  6D00 0096                blt        +0x98 /* 00000924 */
00000890  302C 0250                move.w     D0, [A4 + 0x250]
00000894  48C0                     ext.l      D0
00000896  206C 024C                movea.l    A0, [A4 + 0x24C]
0000089A  E780                     asl        D0, 3
0000089C  2F30 0802                move.l     -[A7], [A0 + D0 + 0x2]
000008A0  486E FF00                pea.l      [A6 - 0x100]
000008A4  4EAD 0D8A                jsr        [A5 + 0xD8A /* export_429, CODE:16 @ 00000686 */]
000008A8  487A 013A                pea.l      [PC + 0x13A /* 000009E4, value 0x27004E56 '\'\0NV', cstring "\'" */]
000008AC  486E FF00                pea.l      [A6 - 0x100]
000008B0  4EAD 04D2                jsr        [A5 + 0x4D2 /* export_150, CODE:3 @ 00002488 */]
000008B4  588F                     addq.l     A7, 4
000008B6  2F00                     move.l     -[A7], D0
000008B8  487A 0118                pea.l      [PC + 0x118 /* 000009D2, value 0x20202020 '    ', cstring "        type = \'" */]
000008BC  2F2C 0006                move.l     -[A7], [A4 + 0x6]
000008C0  4EAD 0412                jsr        [A5 + 0x412 /* export_126, CODE:3 @ 00000B58 */]
000008C4  508F                     addq.l     A7, 8
000008C6  2F00                     move.l     -[A7], D0
000008C8  4EAD 0412                jsr        [A5 + 0x412 /* export_126, CODE:3 @ 00000B58 */]
000008CC  508F                     addq.l     A7, 8
000008CE  2F00                     move.l     -[A7], D0
000008D0  4EAD 0412                jsr        [A5 + 0x412 /* export_126, CODE:3 @ 00000B58 */]
000008D4  4A6C 0256                tst.w      [A4 + 0x256]
000008D8  504F                     addq.w     A7, 8
000008DA  6D3C                     blt        +0x3E /* 00000918 */
000008DC  487A 00EC                pea.l      [PC + 0xEC /* 000009CA, value 0x2C204944 ', ID', cstring ", ID = " */]
000008E0  2F2C 0006                move.l     -[A7], [A4 + 0x6]
000008E4  4EAD 0412                jsr        [A5 + 0x412 /* export_126, CODE:3 @ 00000B58 */]
000008E8  2640                     movea.l    A3, D0
000008EA  302C 0256                move.w     D0, [A4 + 0x256]
000008EE  48C0                     ext.l      D0
000008F0  206C 0252                movea.l    A0, [A4 + 0x252]
000008F4  2200                     move.l     D1, D0
000008F6  C0FC 000C                mulu.w     D0, 0xC
000008FA  4841                     swap.w     D1
000008FC  C2FC 000C                mulu.w     D1, 0xC
00000900  4841                     swap.w     D1
00000902  4241                     clr.w      D1
00000904  D081                     add.l      D0, D1
00000906  3030 0800                move.w     D0, [A0 + D0]
0000090A  48C0                     ext.l      D0
0000090C  2F00                     move.l     -[A7], D0
0000090E  2F0B                     move.l     -[A7], A3
00000910  4EAD 0422                jsr        [A5 + 0x422 /* export_128, CODE:3 @ 000012FE */]
00000914  4FEF 0010                lea.l      A7, [A7 + 0x10]
label00000918:
00000918  47ED 046A                lea.l      A3, [A5 + 0x46A /* export_137, CODE:3 @ 00001CBE */]
0000091C  2F2C 0006                move.l     -[A7], [A4 + 0x6]
00000920  4E93                     jsr        [A3]
00000922  584F                     addq.w     A7, 4
label00000924:
00000924  486E FF00                pea.l      [A6 - 0x100]
00000928  4878 00A3                push.l     0xA3
0000092C  7002                     moveq.l    D0, 0x02
0000092E  2F00                     move.l     -[A7], D0
00000930  4EBA F6CE                jsr        [PC - 0x932 /* 00000000 */]
00000934  4FEF 000C                lea.l      A7, [A7 + 0xC]
00000938  2F00                     move.l     -[A7], D0
0000093A  2F2C 0006                move.l     -[A7], [A4 + 0x6]
0000093E  4EAD 0412                jsr        [A5 + 0x412 /* export_126, CODE:3 @ 00000B58 */]
00000942  0C47 03E8                cmpi.w     D7, 0x3E8
00000946  504F                     addq.w     A7, 8
00000948  6F38                     ble        +0x3A /* 00000982 */
0000094A  486E FF00                pea.l      [A6 - 0x100]
0000094E  4878 00A1                push.l     0xA1
00000952  3007                     move.w     D0, D7
00000954  907C 03E8                sub.w      D0, 0x3E8
00000958  48C0                     ext.l      D0
0000095A  2F00                     move.l     -[A7], D0
0000095C  4EBA F6A2                jsr        [PC - 0x95E /* 00000000 */]
00000960  4FEF 000C                lea.l      A7, [A7 + 0xC]
00000964  2F00                     move.l     -[A7], D0
00000966  2F2C 0006                move.l     -[A7], [A4 + 0x6]
0000096A  4EAD 0412                jsr        [A5 + 0x412 /* export_126, CODE:3 @ 00000B58 */]
0000096E  2D40 FEF4                move.l     [A6 - 0x10C], D0
00000972  47ED 046A                lea.l      A3, [A5 + 0x46A /* export_137, CODE:3 @ 00001CBE */]
00000976  2F2E FEF4                move.l     -[A7], [A6 - 0x10C]
0000097A  4E93                     jsr        [A3]
0000097C  4FEF 000C                lea.l      A7, [A7 + 0xC]
00000980  6030                     bra        +0x32 /* 000009B2 */
label00000982:
00000982  3F07                     move.w     -[A7], D7
00000984  486E FF00                pea.l      [A6 - 0x100]
00000988  4EAD 00EA                jsr        [A5 + 0xEA /* export_25, CODE:1 @ 00002E4A */]
0000098C  486E FF00                pea.l      [A6 - 0x100]
00000990  4EAD 04D2                jsr        [A5 + 0x4D2 /* export_150, CODE:3 @ 00002488 */]
00000994  588F                     addq.l     A7, 4
00000996  2F00                     move.l     -[A7], D0
00000998  2F2C 0006                move.l     -[A7], [A4 + 0x6]
0000099C  4EAD 0412                jsr        [A5 + 0x412 /* export_126, CODE:3 @ 00000B58 */]
000009A0  2D40 FEF4                move.l     [A6 - 0x10C], D0
000009A4  47ED 046A                lea.l      A3, [A5 + 0x46A /* export_137, CODE:3 @ 00001CBE */]
000009A8  2F2E FEF4                move.l     -[A7], [A6 - 0x10C]
000009AC  4E93                     jsr        [A3]
000009AE  4FEF 000C                lea.l      A7, [A7 + 0xC]
label000009B2:
000009B2  3F05                     move.w     -[A7], D5
000009B4  A998                     syscall    UseResFile
000009B6  3F07                     move.w     -[A7], D7
000009B8  4EAD 02EA                jsr        [A5 + 0x2EA /* export_89, CODE:1 @ 00006522 */]
label000009BC:
000009BC  3F05                     move.w     -[A7], D5
000009BE  A998                     syscall    UseResFile
000009C0  4CEE 18E0 FEE0           movem.l    D5,D6,D7,A3,A4, [A6 - 0x120]
000009C6  4E5E                     unlink     A6
000009C8  4E75                     rts
000009CA  2C20                     move.l     D6, -[A0]
000009CC  4944                     chk.w      D4, D4
000009CE  203D                     move.l     D0, <<invalid special address>>
000009D0  2000                     move.l     D0, D0
000009D2  2020                     move.l     D0, -[A0]
000009D4  2020                     move.l     D0, -[A0]
000009D6  2020                     move.l     D0, -[A0]
000009D8  2020                     move.l     D0, -[A0]
000009DA  7479                     moveq.l    D2, 0x79
000009DC  7065                     moveq.l    D0, 0x65
000009DE  203D                     move.l     D0, <<invalid special address>>
000009E0  2027                     move.l     D0, -[A7]
000009E2  0000 2700                ori.b      D0, 0x0
fn000009E6:
000009E6  4E56 FEFC                link       A6, -0x0104
000009EA  48E7 0018                movem.l    -[A7], A3,A4
000009EE  47EE FEFC                lea.l      A3, [A6 - 0x104]
000009F2  286E 0008                movea.l    A4, [A6 + 0x8]
000009F6  41EE FFFC                lea.l      A0, [A6 - 0x4]
000009FA  20B8 020C                move.l     [A0], [0x0000020C /* Time */]
000009FE  2F2E FFFC                move.l     -[A7], [A6 - 0x4]
00000A02  7000                     moveq.l    D0, 0x00
00000A04  1F00                     move.b     -[A7], D0
00000A06  2F0B                     move.l     -[A7], A3
00000A08  4267                     clr.w      -[A7]
00000A0A  A9ED                     syscall    Pack6
00000A0C  2F0B                     move.l     -[A7], A3
00000A0E  4EAD 04D2                jsr        [A5 + 0x4D2 /* export_150, CODE:3 @ 00002488 */]
00000A12  588F                     addq.l     A7, 4
00000A14  2F00                     move.l     -[A7], D0
00000A16  2F2C 0006                move.l     -[A7], [A4 + 0x6]
00000A1A  4EAD 0412                jsr        [A5 + 0x412 /* export_126, CODE:3 @ 00000B58 */]
00000A1E  2F2E FFFC                move.l     -[A7], [A6 - 0x4]
00000A22  7001                     moveq.l    D0, 0x01
00000A24  1F00                     move.b     -[A7], D0
00000A26  2F0B                     move.l     -[A7], A3
00000A28  3F3C 0002                move.w     -[A7], 0x2
00000A2C  A9ED                     syscall    Pack6
00000A2E  487A 0036                pea.l      [PC + 0x36 /* 00000A66, value 0x203A2020 ' :  ', cstring " :   " */]
00000A32  2F0B                     move.l     -[A7], A3
00000A34  4EAD 04D2                jsr        [A5 + 0x4D2 /* export_150, CODE:3 @ 00002488 */]
00000A38  588F                     addq.l     A7, 4
00000A3A  2F00                     move.l     -[A7], D0
00000A3C  487A 0024                pea.l      [PC + 0x24 /* 00000A62, value 0x20200000 '  \0\0', cstring "  " */]
00000A40  2F2C 0006                move.l     -[A7], [A4 + 0x6]
00000A44  4EAD 0412                jsr        [A5 + 0x412 /* export_126, CODE:3 @ 00000B58 */]
00000A48  508F                     addq.l     A7, 8
00000A4A  2F00                     move.l     -[A7], D0
00000A4C  4EAD 0412                jsr        [A5 + 0x412 /* export_126, CODE:3 @ 00000B58 */]
00000A50  508F                     addq.l     A7, 8
00000A52  2F00                     move.l     -[A7], D0
00000A54  4EAD 0412                jsr        [A5 + 0x412 /* export_126, CODE:3 @ 00000B58 */]
00000A58  4CEE 1800 FEF4           movem.l    A3,A4, [A6 - 0x10C]
00000A5E  4E5E                     unlink     A6
00000A60  4E75                     rts
00000A62  2020                     move.l     D0, -[A0]
00000A64  0000 203A                ori.b      D0, 0x3A /* ':' */
00000A68  2020                     move.l     D0, -[A0]
00000A6A  2000                     move.l     D0, D0
fn00000A6C:
00000A6C  4E56 FEFC                link       A6, -0x0104
00000A70  48E7 0118                movem.l    -[A7], D7,A3,A4
00000A74  1E2E 000F                move.b     D7, [A6 + 0xF]
00000A78  286E 0008                movea.l    A4, [A6 + 0x8]
00000A7C  4A07                     tst.b      D7
00000A7E  675C                     beq        +0x5E /* 00000ADC */
00000A80  4A2C 0123                tst.b      [A4 + 0x123]
00000A84  6656                     bne        +0x58 /* 00000ADC */
00000A86  7000                     moveq.l    D0, 0x00
00000A88  1007                     move.b     D0, D7
00000A8A  2F00                     move.l     -[A7], D0
00000A8C  2F2C 0124                move.l     -[A7], [A4 + 0x124]
00000A90  4EBA F8F6                jsr        [PC - 0x70A /* 00000388 */]
00000A94  2F0C                     move.l     -[A7], A4
00000A96  4EBA FF4E                jsr        [PC - 0xB2 /* 000009E6 */]
00000A9A  486D 046A                pea.l      [A5 + 0x46A /* export_137, CODE:3 @ 00001CBE */]
00000A9E  486E FF00                pea.l      [A6 - 0x100]
00000AA2  4878 00A3                push.l     0xA3
00000AA6  7001                     moveq.l    D0, 0x01
00000AA8  2F00                     move.l     -[A7], D0
00000AAA  4EBA F554                jsr        [PC - 0xAAC /* 00000000 */]
00000AAE  4FEF 000C                lea.l      A7, [A7 + 0xC]
00000AB2  2F00                     move.l     -[A7], D0
00000AB4  2F2C 0006                move.l     -[A7], [A4 + 0x6]
00000AB8  4EAD 0412                jsr        [A5 + 0x412 /* export_126, CODE:3 @ 00000B58 */]
00000ABC  2D40 FEFC                move.l     [A6 - 0x104], D0
00000AC0  47ED 046A                lea.l      A3, [A5 + 0x46A /* export_137, CODE:3 @ 00001CBE */]
00000AC4  2F2E FEFC                move.l     -[A7], [A6 - 0x104]
00000AC8  4E93                     jsr        [A3]
00000ACA  4FEF 000C                lea.l      A7, [A7 + 0xC]
00000ACE  2F00                     move.l     -[A7], D0
00000AD0  4EBA 24DA                jsr        [PC + 0x24DA /* 00002FAC */]
00000AD4  1947 0123                move.b     [A4 + 0x123], D7
00000AD8  4FEF 0014                lea.l      A7, [A7 + 0x14]
label00000ADC:
00000ADC  4CEE 1880 FEF0           movem.l    D7,A3,A4, [A6 - 0x110]
00000AE2  4E5E                     unlink     A6
00000AE4  4E75                     rts
fn00000AE6:
00000AE6  4E56 FFEC                link       A6, -0x0014
00000AEA  48E7 1118                movem.l    -[A7], D3,D7,A3,A4
00000AEE  47EE FFEC                lea.l      A3, [A6 - 0x14]
00000AF2  286E 0008                movea.l    A4, [A6 + 0x8]
00000AF6  486E FFFD                pea.l      [A6 - 0x3]
00000AFA  486E FFFE                pea.l      [A6 - 0x2]
00000AFE  486E FFFF                pea.l      [A6 - 0x1]
00000B02  4EAD 0112                jsr        [A5 + 0x112 /* export_30, CODE:1 @ 0000321E */]
00000B06  2F0B                     move.l     -[A7], A3
00000B08  A976                     syscall    GetKeys
00000B0A  7601                     moveq.l    D3, 0x01
00000B0C  4A2E FFFF                tst.b      [A6 - 0x1]
00000B10  660E                     bne        +0x10 /* 00000B20 */
00000B12  7004                     moveq.l    D0, 0x04
00000B14  C0AB 0004                and.l      D0, [A3 + 0x4]
00000B18  7204                     moveq.l    D1, 0x04
00000B1A  B280                     cmp.l      D1, D0
00000B1C  6702                     beq        +0x4 /* 00000B20 */
00000B1E  7600                     moveq.l    D3, 0x00
label00000B20:
00000B20  1E03                     move.b     D7, D3
00000B22  4A2C 0004                tst.b      [A4 + 0x4]
00000B26  660E                     bne        +0x10 /* 00000B36 */
00000B28  7000                     moveq.l    D0, 0x00
00000B2A  1007                     move.b     D0, D7
00000B2C  2F00                     move.l     -[A7], D0
00000B2E  2F0C                     move.l     -[A7], A4
00000B30  4EBA FF3A                jsr        [PC - 0xC6 /* 00000A6C */]
00000B34  504F                     addq.w     A7, 8
label00000B36:
00000B36  4CEE 1888 FFDC           movem.l    D3,D7,A3,A4, [A6 - 0x24]
00000B3C  4E5E                     unlink     A6
00000B3E  4E75                     rts
fn00000B40:
00000B40  4E56 FEF2                link       A6, -0x010E
00000B44  48E7 0118                movem.l    -[A7], D7,A3,A4
00000B48  47EE FF00                lea.l      A3, [A6 - 0x100]
00000B4C  1E2E 000F                move.b     D7, [A6 + 0xF]
00000B50  286E 0008                movea.l    A4, [A6 + 0x8]
00000B54  486C 012C                pea.l      [A4 + 0x12C]
00000B58  A874                     syscall    GetPort
00000B5A  7000                     moveq.l    D0, 0x00
00000B5C  1007                     move.b     D0, D7
00000B5E  5240                     addq.w     D0, 1
00000B60  3F00                     move.w     -[A7], D0
00000B62  3F3C 00A5                move.w     -[A7], 0xA5
00000B66  2F0B                     move.l     -[A7], A3
00000B68  4EAD 028A                jsr        [A5 + 0x28A /* export_77, CODE:1 @ 00005CFC */]
00000B6C  2F0B                     move.l     -[A7], A3
00000B6E  486C 000A                pea.l      [A4 + 0xA]
00000B72  487A 00DA                pea.l      [PC + 0xDA /* 00000C4E, value 0x4E56 'NV', cstring "" */]
00000B76  487A 00D4                pea.l      [PC + 0xD4 /* 00000C4C, value 0x0, cstring "" */]
00000B7A  A98B                     syscall    ParamText
00000B7C  2F3C 444C 4F47           move.l     -[A7], 0x444C4F47 /* 'DLOG' */
00000B82  3F3C 00A5                move.w     -[A7], 0xA5
00000B86  4EAD 01A2                jsr        [A5 + 0x1A2 /* export_48, CODE:1 @ 0000434E */]
00000B8A  598F                     subq.l     A7, 4
00000B8C  3F3C 00A5                move.w     -[A7], 0xA5
00000B90  7000                     moveq.l    D0, 0x00
00000B92  2F00                     move.l     -[A7], D0
00000B94  72FF                     moveq.l    D1, 0xFFFFFFFF
00000B96  2F01                     move.l     -[A7], D1
00000B98  A97C                     syscall    GetNewDialog
00000B9A  295F 0128                move.l     [A4 + 0x128], [A7]+
00000B9E  6700 009E                beq        +0xA0 /* 00000C3E */
00000BA2  2F2C 0128                move.l     -[A7], [A4 + 0x128]
00000BA6  A873                     syscall    SetPort
00000BA8  2F2C 0128                move.l     -[A7], [A4 + 0x128]
00000BAC  7004                     moveq.l    D0, 0x04
00000BAE  3F00                     move.w     -[A7], D0
00000BB0  486E FEF2                pea.l      [A6 - 0x10E]
00000BB4  486E FEF4                pea.l      [A6 - 0x10C]
00000BB8  486E FEF8                pea.l      [A6 - 0x108]
00000BBC  A98D                     syscall    GetDialogItem/GetDItem
00000BBE  558F                     subq.l     A7, 2
00000BC0  7000                     moveq.l    D0, 0x00
00000BC2  1F00                     move.b     -[A7], D0
00000BC4  4EAD 01DA                jsr        [A5 + 0x1DA /* export_55, CODE:1 @ 00004986 */]
00000BC8  4A1F                     tst.b      [A7]+
00000BCA  6714                     beq        +0x16 /* 00000BE0 */
00000BCC  598F                     subq.l     A7, 4
00000BCE  7000                     moveq.l    D0, 0x00
00000BD0  1007                     move.b     D0, D7
00000BD2  D07C 00A5                add.w      D0, 0xA5
00000BD6  3F00                     move.w     -[A7], D0
00000BD8  AA1E                     syscall    GetCIcon
00000BDA  2D5F FEF4                move.l     [A6 - 0x10C], [A7]+
00000BDE  6012                     bra        +0x14 /* 00000BF2 */
label00000BE0:
00000BE0  598F                     subq.l     A7, 4
00000BE2  7000                     moveq.l    D0, 0x00
00000BE4  1007                     move.b     D0, D7
00000BE6  D07C 00A5                add.w      D0, 0xA5
00000BEA  3F00                     move.w     -[A7], D0
00000BEC  A9BB                     syscall    GetIcon
00000BEE  2D5F FEF4                move.l     [A6 - 0x10C], [A7]+
label00000BF2:
00000BF2  4AAE FEF4                tst.l      [A6 - 0x10C]
00000BF6  6716                     beq        +0x18 /* 00000C0E */
00000BF8  2F2C 0128                move.l     -[A7], [A4 + 0x128]
00000BFC  7004                     moveq.l    D0, 0x04
00000BFE  3F00                     move.w     -[A7], D0
00000C00  3F2E FEF2                move.w     -[A7], [A6 - 0x10E]
00000C04  2F2E FEF4                move.l     -[A7], [A6 - 0x10C]
00000C08  486E FEF8                pea.l      [A6 - 0x108]
00000C0C  A98E                     syscall    SetDialogItem/SetDItem
label00000C0E:
00000C0E  2F2C 0128                move.l     -[A7], [A4 + 0x128]
00000C12  A981                     syscall    DrawDialog
00000C14  2F2C 0128                move.l     -[A7], [A4 + 0x128]
00000C18  7002                     moveq.l    D0, 0x02
00000C1A  3F00                     move.w     -[A7], D0
00000C1C  486E FEF2                pea.l      [A6 - 0x10E]
00000C20  486E FEF4                pea.l      [A6 - 0x10C]
00000C24  486E FEF8                pea.l      [A6 - 0x108]
00000C28  A98D                     syscall    GetDialogItem/GetDItem
00000C2A  486E FEF8                pea.l      [A6 - 0x108]
00000C2E  A8A1                     syscall    FrameRect
00000C30  70FF                     moveq.l    D0, 0xFFFFFFFF
00000C32  3F00                     move.w     -[A7], D0
00000C34  4EAD 0182                jsr        [A5 + 0x182 /* export_44, CODE:1 @ 00003B34 */]
00000C38  2F2C 012C                move.l     -[A7], [A4 + 0x12C]
00000C3C  A873                     syscall    SetPort
label00000C3E:
00000C3E  426C 0130                clr.w      [A4 + 0x130]
00000C42  4CEE 1880 FEE6           movem.l    D7,A3,A4, [A6 - 0x11A]
00000C48  4E5E                     unlink     A6
00000C4A  4E75                     rts
00000C4C  0000 0000                ori.b      D0, 0x0
fn00000C50:
00000C50  4E56 FFDC                link       A6, -0x0024
00000C54  48E7 0708                movem.l    -[A7], D5,D6,D7,A4
00000C58  2A2E 000C                move.l     D5, [A6 + 0xC]
00000C5C  286E 0008                movea.l    A4, [A6 + 0x8]
00000C60  4AAC 0128                tst.l      [A4 + 0x128]
00000C64  6700 013C                beq        +0x13E /* 00000DA2 */
00000C68  302C 0130                move.w     D0, [A4 + 0x130]
00000C6C  48C0                     ext.l      D0
00000C6E  B085                     cmp.l      D0, D5
00000C70  6700 0130                beq        +0x132 /* 00000DA2 */
00000C74  7064                     moveq.l    D0, 0x64
00000C76  B085                     cmp.l      D0, D5
00000C78  6D00 0128                blt        +0x12A /* 00000DA2 */
00000C7C  2F2C 0128                move.l     -[A7], [A4 + 0x128]
00000C80  A873                     syscall    SetPort
00000C82  2F2C 0128                move.l     -[A7], [A4 + 0x128]
00000C86  7002                     moveq.l    D0, 0x02
00000C88  3F00                     move.w     -[A7], D0
00000C8A  486E FFDE                pea.l      [A6 - 0x22]
00000C8E  486E FFE0                pea.l      [A6 - 0x20]
00000C92  486E FFE4                pea.l      [A6 - 0x1C]
00000C96  A98D                     syscall    GetDialogItem/GetDItem
00000C98  486E FFE4                pea.l      [A6 - 0x1C]
00000C9C  7001                     moveq.l    D0, 0x01
00000C9E  3F00                     move.w     -[A7], D0
00000CA0  3F00                     move.w     -[A7], D0
00000CA2  A8A9                     syscall    InsetRect
00000CA4  3C2E FFEA                move.w     D6, [A6 - 0x16]
00000CA8  9C6E FFE6                sub.w      D6, [A6 - 0x1A]
00000CAC  48C6                     ext.l      D6
00000CAE  2006                     move.l     D0, D6
00000CB0  2205                     move.l     D1, D5
00000CB2  4EAD 0762                jsr        [A5 + 0x762 /* export_232, CODE:3 @ 00003704 */]
00000CB6  7264                     moveq.l    D1, 0x64
00000CB8  4EAD 076A                jsr        [A5 + 0x76A /* export_233, CODE:3 @ 0000372A */]
00000CBC  3E00                     move.w     D7, D0
00000CBE  D06E FFE6                add.w      D0, [A6 - 0x1A]
00000CC2  3D40 FFEA                move.w     [A6 - 0x16], D0
00000CC6  486E FFE4                pea.l      [A6 - 0x1C]
00000CCA  486D FC2C                pea.l      [A5 - 0x3D4]
00000CCE  A8A5                     syscall    FillRect
00000CD0  2F2C 012C                move.l     -[A7], [A4 + 0x12C]
00000CD4  A873                     syscall    SetPort
00000CD6  3945 0130                move.w     [A4 + 0x130], D5
00000CDA  558F                     subq.l     A7, 2
00000CDC  7002                     moveq.l    D0, 0x02
00000CDE  3F00                     move.w     -[A7], D0
00000CE0  486E FFF0                pea.l      [A6 - 0x10]
00000CE4  A970                     syscall    GetNextEvent
00000CE6  4A1F                     tst.b      [A7]+
00000CE8  6700 00B8                beq        +0xBA /* 00000DA2 */
00000CEC  558F                     subq.l     A7, 2
00000CEE  486E FFF0                pea.l      [A6 - 0x10]
00000CF2  A97F                     syscall    IsDialogEvent
00000CF4  4A1F                     tst.b      [A7]+
00000CF6  6700 00AA                beq        +0xAC /* 00000DA2 */
00000CFA  558F                     subq.l     A7, 2
00000CFC  486E FFF0                pea.l      [A6 - 0x10]
00000D00  486C 0128                pea.l      [A4 + 0x128]
00000D04  486E FFDC                pea.l      [A6 - 0x24]
00000D08  A980                     syscall    DialogSelect
00000D0A  4A1F                     tst.b      [A7]+
00000D0C  6700 0094                beq        +0x96 /* 00000DA2 */
00000D10  7001                     moveq.l    D0, 0x01
00000D12  B06E FFDC                cmp.w      D0, [A6 - 0x24]
00000D16  6600 008A                bne        +0x8C /* 00000DA2 */
00000D1A  2F2C 0128                move.l     -[A7], [A4 + 0x128]
00000D1E  A873                     syscall    SetPort
00000D20  2F2C 0128                move.l     -[A7], [A4 + 0x128]
00000D24  7001                     moveq.l    D0, 0x01
00000D26  3F00                     move.w     -[A7], D0
00000D28  4EAD 031A                jsr        [A5 + 0x31A /* export_95, CODE:2 @ 00000138 */]
00000D2C  2F2C 0128                move.l     -[A7], [A4 + 0x128]
00000D30  7002                     moveq.l    D0, 0x02
00000D32  3F00                     move.w     -[A7], D0
00000D34  486E FFDE                pea.l      [A6 - 0x22]
00000D38  486E FFE0                pea.l      [A6 - 0x20]
00000D3C  486E FFE4                pea.l      [A6 - 0x1C]
00000D40  A98D                     syscall    GetDialogItem/GetDItem
00000D42  486E FFE4                pea.l      [A6 - 0x1C]
00000D46  7001                     moveq.l    D0, 0x01
00000D48  3F00                     move.w     -[A7], D0
00000D4A  3F00                     move.w     -[A7], D0
00000D4C  A8A9                     syscall    InsetRect
00000D4E  3C2E FFEA                move.w     D6, [A6 - 0x16]
00000D52  9C6E FFE6                sub.w      D6, [A6 - 0x1A]
00000D56  3006                     move.w     D0, D6
00000D58  9047                     sub.w      D0, D7
00000D5A  3E00                     move.w     D7, D0
00000D5C  6024                     bra        +0x26 /* 00000D82 */
label00000D5E:
00000D5E  302E FFEA                move.w     D0, [A6 - 0x16]
00000D62  9047                     sub.w      D0, D7
00000D64  3D40 FFE6                move.w     [A6 - 0x1A], D0
00000D68  486E FFE4                pea.l      [A6 - 0x1C]
00000D6C  486D FC4C                pea.l      [A5 - 0x3B4]
00000D70  A8A5                     syscall    FillRect
00000D72  307C 0001                movea.w    A0, 0x1
00000D76  43EE FFEC                lea.l      A1, [A6 - 0x14]
00000D7A  A03B                     syscall    Delay
00000D7C  2280                     move.l     [A1], D0
00000D7E  3007                     move.w     D0, D7
00000D80  5247                     addq.w     D7, 1
label00000D82:
00000D82  BC47                     cmp.w      D6, D7
00000D84  6CD8                     bge        -0x26 /* 00000D5E */
00000D86  2F2C 012C                move.l     -[A7], [A4 + 0x12C]
00000D8A  A873                     syscall    SetPort
00000D8C  7000                     moveq.l    D0, 0x00
00000D8E  102C 0005                move.b     D0, [A4 + 0x5]
00000D92  2F00                     move.l     -[A7], D0
00000D94  4878 0400                push.l     0x400
00000D98  2F0C                     move.l     -[A7], A4
00000D9A  4EBA FA3C                jsr        [PC - 0x5C4 /* 000007D8 */]
00000D9E  4FEF 000C                lea.l      A7, [A7 + 0xC]
label00000DA2:
00000DA2  4CEE 10E0 FFCC           movem.l    D5,D6,D7,A4, [A6 - 0x34]
00000DA8  4E5E                     unlink     A6
00000DAA  4E75                     rts
fn00000DAC:
00000DAC  4E56 0000                link       A6, 0
00000DB0  2F0C                     move.l     -[A7], A4
00000DB2  286E 0008                movea.l    A4, [A6 + 0x8]
00000DB6  4AAC 0128                tst.l      [A4 + 0x128]
00000DBA  6712                     beq        +0x14 /* 00000DCE */
00000DBC  2F2C 0128                move.l     -[A7], [A4 + 0x128]
00000DC0  A983                     syscall    DisposeDialog
00000DC2  7000                     moveq.l    D0, 0x00
00000DC4  2940 0128                move.l     [A4 + 0x128], D0
00000DC8  2F2C 012C                move.l     -[A7], [A4 + 0x12C]
00000DCC  A873                     syscall    SetPort
label00000DCE:
00000DCE  286E FFFC                movea.l    A4, [A6 - 0x4]
00000DD2  4E5E                     unlink     A6
00000DD4  4E75                     rts
fn00000DD6:
00000DD6  4E56 FFCA                link       A6, -0x0036
00000DDA  48E7 1318                movem.l    -[A7], D3,D6,D7,A3,A4
00000DDE  3C2E 0012                move.w     D6, [A6 + 0x12]
00000DE2  286E 0008                movea.l    A4, [A6 + 0x8]
00000DE6  2D7C 0000 0100 FFCA      move.l     [A6 - 0x36], 0x100
00000DEE  558F                     subq.l     A7, 2
00000DF0  4EAD 02DA                jsr        [A5 + 0x2DA /* export_87, CODE:1 @ 00006448 */]
00000DF4  389F                     move.w     [A4], [A7]+
00000DF6  6600 0192                bne        +0x194 /* 00000F8A */
00000DFA  2F0C                     move.l     -[A7], A4
00000DFC  4EBA FCE8                jsr        [PC - 0x318 /* 00000AE6 */]
00000E00  47EE FFCE                lea.l      A3, [A6 - 0x32]
00000E04  584F                     addq.w     A7, 4
00000E06  6004                     bra        +0x6 /* 00000E0C */
label00000E08:
00000E08  4213                     clr.b      [A3]
00000E0A  524B                     addq.w     A3, 1
label00000E0C:
00000E0C  41EE FFCE                lea.l      A0, [A6 - 0x32]
00000E10  41E8 0032                lea.l      A0, [A0 + 0x32]
00000E14  B1CB                     cmpa.l     A0, A3
00000E16  62F0                     bhi        -0xE /* 00000E08 */
00000E18  7000                     moveq.l    D0, 0x00
00000E1A  2D40 FFDA                move.l     [A6 - 0x26], D0
00000E1E  2D6E 000C FFE0           move.l     [A6 - 0x20], [A6 + 0xC]
00000E24  3D46 FFE4                move.w     [A6 - 0x1C], D6
00000E28  422E FFE8                clr.b      [A6 - 0x18]
00000E2C  1D7C 0003 FFE9           move.b     [A6 - 0x17], 0x3
00000E32  2D40 FFEA                move.l     [A6 - 0x16], D0
00000E36  41EE FFCE                lea.l      A0, [A6 - 0x32]
00000E3A  A00A                     syscall    OpenRF/PBHOpenRF/HOpenRF
00000E3C  3E00                     move.w     D7, D0
00000E3E  6638                     bne        +0x3A /* 00000E78 */
00000E40  396E FFE6 0120           move.w     [A4 + 0x120], [A6 - 0x1A]
00000E46  558F                     subq.l     A7, 2
00000E48  3F2C 0120                move.w     -[A7], [A4 + 0x120]
00000E4C  486C 011C                pea.l      [A4 + 0x11C]
00000E50  4EAD 05EA                jsr        [A5 + 0x5EA /* export_185, CODE:3 @ 0000286A */]
00000E54  3E1F                     move.w     D7, [A7]+
00000E56  6610                     bne        +0x12 /* 00000E68 */
00000E58  558F                     subq.l     A7, 2
00000E5A  3F2C 0120                move.w     -[A7], [A4 + 0x120]
00000E5E  2F2C 011C                move.l     -[A7], [A4 + 0x11C]
00000E62  4EAD 05F2                jsr        [A5 + 0x5F2 /* export_186, CODE:3 @ 0000288C */]
00000E66  3E1F                     move.w     D7, [A7]+
label00000E68:
00000E68  4A47                     tst.w      D7
00000E6A  670C                     beq        +0xE /* 00000E78 */
00000E6C  558F                     subq.l     A7, 2
00000E6E  3F2C 0120                move.w     -[A7], [A4 + 0x120]
00000E72  4EAD 0582                jsr        [A5 + 0x582 /* export_172, CODE:3 @ 0000264C */]
00000E76  544F                     addq.w     A7, 2
label00000E78:
00000E78  4A47                     tst.w      D7
00000E7A  6724                     beq        +0x26 /* 00000EA0 */
00000E7C  1D7C 0001 FFE9           move.b     [A6 - 0x17], 0x1
00000E82  197C 0001 0003           move.b     [A4 + 0x3], 0x1
00000E88  7001                     moveq.l    D0, 0x01
00000E8A  2F00                     move.l     -[A7], D0
00000E8C  41EE FFCE                lea.l      A0, [A6 - 0x32]
00000E90  A00A                     syscall    OpenRF/PBHOpenRF/HOpenRF
00000E92  48C0                     ext.l      D0
00000E94  2F00                     move.l     -[A7], D0
00000E96  2F0C                     move.l     -[A7], A4
00000E98  4EBA F93E                jsr        [PC - 0x6C2 /* 000007D8 */]
00000E9C  4FEF 000C                lea.l      A7, [A7 + 0xC]
label00000EA0:
00000EA0  396E FFE6 0120           move.w     [A4 + 0x120], [A6 - 0x1A]
00000EA6  4878 0100                push.l     0x100
00000EAA  2F2E 000C                move.l     -[A7], [A6 + 0xC]
00000EAE  486C 000A                pea.l      [A4 + 0xA]
00000EB2  4EAD 03FA                jsr        [A5 + 0x3FA /* export_123, CODE:3 @ 000008B2 */]
00000EB6  3946 010A                move.w     [A4 + 0x10A], D6
00000EBA  197C 0001 0122           move.b     [A4 + 0x122], 0x1
00000EC0  7003                     moveq.l    D0, 0x03
00000EC2  2F00                     move.l     -[A7], D0
00000EC4  558F                     subq.l     A7, 2
00000EC6  3F2C 0120                move.w     -[A7], [A4 + 0x120]
00000ECA  486C 011C                pea.l      [A4 + 0x11C]
00000ECE  4EAD 05EA                jsr        [A5 + 0x5EA /* export_185, CODE:3 @ 0000286A */]
00000ED2  301F                     move.w     D0, [A7]+
00000ED4  48C0                     ext.l      D0
00000ED6  2F00                     move.l     -[A7], D0
00000ED8  2F0C                     move.l     -[A7], A4
00000EDA  4EBA F8FC                jsr        [PC - 0x704 /* 000007D8 */]
00000EDE  4AAC 011C                tst.l      [A4 + 0x11C]
00000EE2  4FEF 0018                lea.l      A7, [A7 + 0x18]
00000EE6  6608                     bne        +0xA /* 00000EF0 */
00000EE8  3F3C 03EC                move.w     -[A7], 0x3EC
00000EEC  4EAD 02EA                jsr        [A5 + 0x2EA /* export_89, CODE:1 @ 00006522 */]
label00000EF0:
00000EF0  202C 011C                move.l     D0, [A4 + 0x11C]
00000EF4  B0AE FFCA                cmp.l      D0, [A6 - 0x36]
00000EF8  6C12                     bge        +0x14 /* 00000F0C */
00000EFA  7003                     moveq.l    D0, 0x03
00000EFC  2F00                     move.l     -[A7], D0
00000EFE  72D9                     moveq.l    D1, 0xFFFFFFD9
00000F00  2F01                     move.l     -[A7], D1
00000F02  2F0C                     move.l     -[A7], A4
00000F04  4EBA F8D2                jsr        [PC - 0x72E /* 000007D8 */]
00000F08  4FEF 000C                lea.l      A7, [A7 + 0xC]
label00000F0C:
00000F0C  7003                     moveq.l    D0, 0x03
00000F0E  2F00                     move.l     -[A7], D0
00000F10  558F                     subq.l     A7, 2
00000F12  3F2C 0120                move.w     -[A7], [A4 + 0x120]
00000F16  7001                     moveq.l    D0, 0x01
00000F18  3F00                     move.w     -[A7], D0
00000F1A  7200                     moveq.l    D1, 0x00
00000F1C  2F01                     move.l     -[A7], D1
00000F1E  4EAD 05FA                jsr        [A5 + 0x5FA /* export_187, CODE:3 @ 000028AC */]
00000F22  301F                     move.w     D0, [A7]+
00000F24  48C0                     ext.l      D0
00000F26  2F00                     move.l     -[A7], D0
00000F28  2F0C                     move.l     -[A7], A4
00000F2A  4EBA F8AC                jsr        [PC - 0x754 /* 000007D8 */]
00000F2E  7003                     moveq.l    D0, 0x03
00000F30  2F00                     move.l     -[A7], D0
00000F32  558F                     subq.l     A7, 2
00000F34  3F2C 0120                move.w     -[A7], [A4 + 0x120]
00000F38  486E FFCA                pea.l      [A6 - 0x36]
00000F3C  486C 0132                pea.l      [A4 + 0x132]
00000F40  4EAD 058A                jsr        [A5 + 0x58A /* export_173, CODE:3 @ 00002666 */]
00000F44  301F                     move.w     D0, [A7]+
00000F46  48C0                     ext.l      D0
00000F48  2F00                     move.l     -[A7], D0
00000F4A  2F0C                     move.l     -[A7], A4
00000F4C  4EBA F88A                jsr        [PC - 0x776 /* 000007D8 */]
00000F50  197C 0001 0232           move.b     [A4 + 0x232], 0x1
00000F56  41EC 0142                lea.l      A0, [A4 + 0x142]
00000F5A  2948 0236                move.l     [A4 + 0x236], A0
00000F5E  0C90 20B7 A185           cmpi.l     [A0], 0x20B7A185
00000F64  57C3                     seq        D3
00000F66  4403                     neg.b      D3
00000F68  1943 023A                move.b     [A4 + 0x23A], D3
00000F6C  4FEF 0018                lea.l      A7, [A7 + 0x18]
00000F70  6712                     beq        +0x14 /* 00000F84 */
00000F72  7003                     moveq.l    D0, 0x03
00000F74  2F00                     move.l     -[A7], D0
00000F76  4878 07D2                push.l     0x7D2
00000F7A  2F0C                     move.l     -[A7], A4
00000F7C  4EBA F85A                jsr        [PC - 0x7A6 /* 000007D8 */]
00000F80  4FEF 000C                lea.l      A7, [A7 + 0xC]
label00000F84:
00000F84  4EAD 02E2                jsr        [A5 + 0x2E2 /* export_88, CODE:1 @ 000064EE */]
00000F88  602C                     bra        +0x2E /* 00000FB6 */
label00000F8A:
00000F8A  197C 0001 0002           move.b     [A4 + 0x2], 0x1
00000F90  0C54 03EC                cmpi.w     [A4], 0x3EC
00000F94  6720                     beq        +0x22 /* 00000FB6 */
00000F96  70CF                     moveq.l    D0, 0xFFFFFFCF
00000F98  B054                     cmp.w      D0, [A4]
00000F9A  671A                     beq        +0x1C /* 00000FB6 */
00000F9C  4A2C 0004                tst.b      [A4 + 0x4]
00000FA0  6614                     bne        +0x16 /* 00000FB6 */
00000FA2  558F                     subq.l     A7, 2
00000FA4  7001                     moveq.l    D0, 0x01
00000FA6  1F00                     move.b     -[A7], D0
00000FA8  2F2D F9D0                move.l     -[A7], [A5 - 0x630]
00000FAC  7206                     moveq.l    D1, 0x06
00000FAE  3F01                     move.w     -[A7], D1
00000FB0  4EAD 00DA                jsr        [A5 + 0xDA /* export_23, CODE:1 @ 00002ACA */]
00000FB4  544F                     addq.w     A7, 2
label00000FB6:
00000FB6  4A2C 0002                tst.b      [A4 + 0x2]
00000FBA  57C3                     seq        D3
00000FBC  4403                     neg.b      D3
00000FBE  1003                     move.b     D0, D3
00000FC0  4CEE 18C8 FFB6           movem.l    D3,D6,D7,A3,A4, [A6 - 0x4A]
00000FC6  4E5E                     unlink     A6
00000FC8  4E75                     rts
fn00000FCA:
00000FCA  4E56 0000                link       A6, 0
00000FCE  2F0C                     move.l     -[A7], A4
00000FD0  286E 0008                movea.l    A4, [A6 + 0x8]
00000FD4  558F                     subq.l     A7, 2
00000FD6  4EAD 02DA                jsr        [A5 + 0x2DA /* export_87, CODE:1 @ 00006448 */]
00000FDA  389F                     move.w     [A4], [A7]+
00000FDC  664C                     bne        +0x4E /* 0000102A */
00000FDE  4AAC 023C                tst.l      [A4 + 0x23C]
00000FE2  670C                     beq        +0xE /* 00000FF0 */
00000FE4  206C 023C                movea.l    A0, [A4 + 0x23C]
00000FE8  A023                     syscall    DisposHandle/DisposeHandle
00000FEA  7000                     moveq.l    D0, 0x00
00000FEC  2940 023C                move.l     [A4 + 0x23C], D0
label00000FF0:
00000FF0  4AAC 0292                tst.l      [A4 + 0x292]
00000FF4  670C                     beq        +0xE /* 00001002 */
00000FF6  206C 0292                movea.l    A0, [A4 + 0x292]
00000FFA  A01F                     syscall    DisposPtr/DisposePtr
00000FFC  7000                     moveq.l    D0, 0x00
00000FFE  2940 0292                move.l     [A4 + 0x292], D0
label00001002:
00001002  4A2C 0122                tst.b      [A4 + 0x122]
00001006  671E                     beq        +0x20 /* 00001026 */
00001008  7002                     moveq.l    D0, 0x02
0000100A  2F00                     move.l     -[A7], D0
0000100C  558F                     subq.l     A7, 2
0000100E  3F2C 0120                move.w     -[A7], [A4 + 0x120]
00001012  4EAD 0582                jsr        [A5 + 0x582 /* export_172, CODE:3 @ 0000264C */]
00001016  301F                     move.w     D0, [A7]+
00001018  48C0                     ext.l      D0
0000101A  2F00                     move.l     -[A7], D0
0000101C  2F0C                     move.l     -[A7], A4
0000101E  4EBA F7B8                jsr        [PC - 0x848 /* 000007D8 */]
00001022  4FEF 000C                lea.l      A7, [A7 + 0xC]
label00001026:
00001026  4EAD 02E2                jsr        [A5 + 0x2E2 /* export_88, CODE:1 @ 000064EE */]
label0000102A:
0000102A  2F0C                     move.l     -[A7], A4
0000102C  4EBA F6D4                jsr        [PC - 0x92C /* 00000702 */]
00001030  584F                     addq.w     A7, 4
00001032  286E FFFC                movea.l    A4, [A6 - 0x4]
00001036  4E5E                     unlink     A6
00001038  4E75                     rts
fn0000103A:
0000103A  4E56 0000                link       A6, 0
0000103E  2F0C                     move.l     -[A7], A4
00001040  286E 0008                movea.l    A4, [A6 + 0x8]
00001044  558F                     subq.l     A7, 2
00001046  4EAD 02DA                jsr        [A5 + 0x2DA /* export_87, CODE:1 @ 00006448 */]
0000104A  389F                     move.w     [A4], [A7]+
0000104C  6600 00BC                bne        +0xBE /* 0000110A */
00001050  4A2C 0232                tst.b      [A4 + 0x232]
00001054  6612                     bne        +0x14 /* 00001068 */
00001056  7006                     moveq.l    D0, 0x06
00001058  2F00                     move.l     -[A7], D0
0000105A  4878 03E9                push.l     0x3E9
0000105E  2F0C                     move.l     -[A7], A4
00001060  4EBA F776                jsr        [PC - 0x88A /* 000007D8 */]
00001064  4FEF 000C                lea.l      A7, [A7 + 0xC]
label00001068:
00001068  4A2C 0234                tst.b      [A4 + 0x234]
0000106C  6600 0098                bne        +0x9A /* 00001106 */
00001070  197C 0001 0234           move.b     [A4 + 0x234], 0x1
00001076  4A2C 023A                tst.b      [A4 + 0x23A]
0000107A  661C                     bne        +0x1E /* 00001098 */
0000107C  0CAC 0000 0100 0132      cmpi.l     [A4 + 0x132], 0x100
00001084  6712                     beq        +0x14 /* 00001098 */
00001086  7006                     moveq.l    D0, 0x06
00001088  2F00                     move.l     -[A7], D0
0000108A  4878 03EA                push.l     0x3EA
0000108E  2F0C                     move.l     -[A7], A4
00001090  4EBA F746                jsr        [PC - 0x8BA /* 000007D8 */]
00001094  4FEF 000C                lea.l      A7, [A7 + 0xC]
label00001098:
00001098  4A2C 023A                tst.b      [A4 + 0x23A]
0000109C  6622                     bne        +0x24 /* 000010C0 */
0000109E  202C 013A                move.l     D0, [A4 + 0x13A]
000010A2  D0BC 0000 0100           add.l      D0, 0x100
000010A8  B0AC 0136                cmp.l      D0, [A4 + 0x136]
000010AC  6712                     beq        +0x14 /* 000010C0 */
000010AE  7006                     moveq.l    D0, 0x06
000010B0  2F00                     move.l     -[A7], D0
000010B2  4878 03EB                push.l     0x3EB
000010B6  2F0C                     move.l     -[A7], A4
000010B8  4EBA F71E                jsr        [PC - 0x8E2 /* 000007D8 */]
000010BC  4FEF 000C                lea.l      A7, [A7 + 0xC]
label000010C0:
000010C0  202C 013E                move.l     D0, [A4 + 0x13E]
000010C4  D0AC 013A                add.l      D0, [A4 + 0x13A]
000010C8  D0BC 0000 0100           add.l      D0, 0x100
000010CE  B0AC 011C                cmp.l      D0, [A4 + 0x11C]
000010D2  6712                     beq        +0x14 /* 000010E6 */
000010D4  7006                     moveq.l    D0, 0x06
000010D6  2F00                     move.l     -[A7], D0
000010D8  4878 03EF                push.l     0x3EF
000010DC  2F0C                     move.l     -[A7], A4
000010DE  4EBA F6F8                jsr        [PC - 0x908 /* 000007D8 */]
000010E2  4FEF 000C                lea.l      A7, [A7 + 0xC]
label000010E6:
000010E6  4A54                     tst.w      [A4]
000010E8  661C                     bne        +0x1E /* 00001106 */
000010EA  197C 0001 0233           move.b     [A4 + 0x233], 0x1
000010F0  7006                     moveq.l    D0, 0x06
000010F2  2F00                     move.l     -[A7], D0
000010F4  4878 07D1                push.l     0x7D1
000010F8  2F0C                     move.l     -[A7], A4
000010FA  4EBA F6DC                jsr        [PC - 0x924 /* 000007D8 */]
000010FE  422C 0005                clr.b      [A4 + 0x5]
00001102  4FEF 000C                lea.l      A7, [A7 + 0xC]
label00001106:
00001106  4EAD 02E2                jsr        [A5 + 0x2E2 /* export_88, CODE:1 @ 000064EE */]
label0000110A:
0000110A  102C 0233                move.b     D0, [A4 + 0x233]
0000110E  286E FFFC                movea.l    A4, [A6 - 0x4]
00001112  4E5E                     unlink     A6
00001114  4E75                     rts
fn00001116:
00001116  4E56 FFFA                link       A6, -0x0006
0000111A  48E7 1108                movem.l    -[A7], D3,D7,A4
0000111E  286E 0008                movea.l    A4, [A6 + 0x8]
00001122  1D7C 0001 FFFF           move.b     [A6 - 0x1], 0x1
00001128  4247                     clr.w      D7
0000112A  41EE FFFF                lea.l      A0, [A6 - 0x1]
0000112E  2008                     move.l     D0, A0
00001130  6600 014E                bne        +0x150 /* 00001280 */
00001134  6000 014A                bra        +0x14C /* 00001280 */
label00001138:
00001138  558F                     subq.l     A7, 2
0000113A  4EAD 02DA                jsr        [A5 + 0x2DA /* export_87, CODE:1 @ 00006448 */]
0000113E  389F                     move.w     [A4], [A7]+
00001140  6600 0132                bne        +0x134 /* 00001274 */
00001144  422E FFFF                clr.b      [A6 - 0x1]
00001148  4A2C 0232                tst.b      [A4 + 0x232]
0000114C  6612                     bne        +0x14 /* 00001160 */
0000114E  7004                     moveq.l    D0, 0x04
00001150  2F00                     move.l     -[A7], D0
00001152  4878 03E9                push.l     0x3E9
00001156  2F0C                     move.l     -[A7], A4
00001158  4EBA F67E                jsr        [PC - 0x982 /* 000007D8 */]
0000115C  4FEF 000C                lea.l      A7, [A7 + 0xC]
label00001160:
00001160  202C 0136                move.l     D0, [A4 + 0x136]
00001164  B0AC 011C                cmp.l      D0, [A4 + 0x11C]
00001168  6336                     bls        +0x38 /* 000011A0 */
0000116A  4A2C 023A                tst.b      [A4 + 0x23A]
0000116E  661E                     bne        +0x20 /* 0000118E */
00001170  202C 013A                move.l     D0, [A4 + 0x13A]
00001174  D0AC 0132                add.l      D0, [A4 + 0x132]
00001178  2940 0136                move.l     [A4 + 0x136], D0
0000117C  B0AC 011C                cmp.l      D0, [A4 + 0x11C]
00001180  640C                     bcc        +0xE /* 0000118E */
00001182  4AAC 0136                tst.l      [A4 + 0x136]
00001186  6306                     bls        +0x8 /* 0000118E */
00001188  1D7C 0001 FFFF           move.b     [A6 - 0x1], 0x1
label0000118E:
0000118E  7004                     moveq.l    D0, 0x04
00001190  2F00                     move.l     -[A7], D0
00001192  4878 03F7                push.l     0x3F7
00001196  2F0C                     move.l     -[A7], A4
00001198  4EBA F63E                jsr        [PC - 0x9C2 /* 000007D8 */]
0000119C  4FEF 000C                lea.l      A7, [A7 + 0xC]
label000011A0:
000011A0  7004                     moveq.l    D0, 0x04
000011A2  2F00                     move.l     -[A7], D0
000011A4  558F                     subq.l     A7, 2
000011A6  3F2C 0120                move.w     -[A7], [A4 + 0x120]
000011AA  7001                     moveq.l    D0, 0x01
000011AC  3F00                     move.w     -[A7], D0
000011AE  2F2C 0136                move.l     -[A7], [A4 + 0x136]
000011B2  4EAD 05FA                jsr        [A5 + 0x5FA /* export_187, CODE:3 @ 000028AC */]
000011B6  301F                     move.w     D0, [A7]+
000011B8  48C0                     ext.l      D0
000011BA  2F00                     move.l     -[A7], D0
000011BC  2F0C                     move.l     -[A7], A4
000011BE  4EBA F618                jsr        [PC - 0x9E8 /* 000007D8 */]
000011C2  202C 013E                move.l     D0, [A4 + 0x13E]
000011C6  D0AC 0136                add.l      D0, [A4 + 0x136]
000011CA  B0AC 011C                cmp.l      D0, [A4 + 0x11C]
000011CE  4FEF 000C                lea.l      A7, [A7 + 0xC]
000011D2  632C                     bls        +0x2E /* 00001200 */
000011D4  4A2C 023A                tst.b      [A4 + 0x23A]
000011D8  6614                     bne        +0x16 /* 000011EE */
000011DA  202C 011C                move.l     D0, [A4 + 0x11C]
000011DE  90AC 0136                sub.l      D0, [A4 + 0x136]
000011E2  2940 013E                move.l     [A4 + 0x13E], D0
000011E6  6306                     bls        +0x8 /* 000011EE */
000011E8  1D7C 0001 FFFF           move.b     [A6 - 0x1], 0x1
label000011EE:
000011EE  7004                     moveq.l    D0, 0x04
000011F0  2F00                     move.l     -[A7], D0
000011F2  4878 03ED                push.l     0x3ED
000011F6  2F0C                     move.l     -[A7], A4
000011F8  4EBA F5DE                jsr        [PC - 0xA22 /* 000007D8 */]
000011FC  4FEF 000C                lea.l      A7, [A7 + 0xC]
label00001200:
00001200  4AAC 023C                tst.l      [A4 + 0x23C]
00001204  6710                     beq        +0x12 /* 00001216 */
00001206  206C 023C                movea.l    A0, [A4 + 0x23C]
0000120A  A023                     syscall    DisposHandle/DisposeHandle
0000120C  7000                     moveq.l    D0, 0x00
0000120E  2940 023C                move.l     [A4 + 0x23C], D0
00001212  422C 0240                clr.b      [A4 + 0x240]
label00001216:
00001216  202C 013E                move.l     D0, [A4 + 0x13E]
0000121A  A122                     syscall    NewHandle, flags=1
0000121C  2948 023C                move.l     [A4 + 0x23C], A0
00001220  6612                     bne        +0x14 /* 00001234 */
00001222  7004                     moveq.l    D0, 0x04
00001224  2F00                     move.l     -[A7], D0
00001226  4878 03EE                push.l     0x3EE
0000122A  2F0C                     move.l     -[A7], A4
0000122C  4EBA F5AA                jsr        [PC - 0xA56 /* 000007D8 */]
00001230  4FEF 000C                lea.l      A7, [A7 + 0xC]
label00001234:
00001234  206C 023C                movea.l    A0, [A4 + 0x23C]
00001238  A029                     syscall    HLock
0000123A  2D6C 013E FFFA           move.l     [A6 - 0x6], [A4 + 0x13E]
00001240  7004                     moveq.l    D0, 0x04
00001242  2F00                     move.l     -[A7], D0
00001244  558F                     subq.l     A7, 2
00001246  3F2C 0120                move.w     -[A7], [A4 + 0x120]
0000124A  486E FFFA                pea.l      [A6 - 0x6]
0000124E  206C 023C                movea.l    A0, [A4 + 0x23C]
00001252  2F10                     move.l     -[A7], [A0]
00001254  4EAD 058A                jsr        [A5 + 0x58A /* export_173, CODE:3 @ 00002666 */]
00001258  301F                     move.w     D0, [A7]+
0000125A  48C0                     ext.l      D0
0000125C  2F00                     move.l     -[A7], D0
0000125E  2F0C                     move.l     -[A7], A4
00001260  4EBA F576                jsr        [PC - 0xA8A /* 000007D8 */]
00001264  197C 0001 0240           move.b     [A4 + 0x240], 0x1
0000126A  4EAD 02E2                jsr        [A5 + 0x2E2 /* export_88, CODE:1 @ 000064EE */]
0000126E  4FEF 000C                lea.l      A7, [A7 + 0xC]
00001272  600C                     bra        +0xE /* 00001280 */
label00001274:
00001274  4A2E FFFF                tst.b      [A6 - 0x1]
00001278  6706                     beq        +0x8 /* 00001280 */
0000127A  197C 0001 0235           move.b     [A4 + 0x235], 0x1
label00001280:
00001280  4A2E FFFF                tst.b      [A6 - 0x1]
00001284  670C                     beq        +0xE /* 00001292 */
00001286  3007                     move.w     D0, D7
00001288  5247                     addq.w     D7, 1
0000128A  0C40 0003                cmpi.w     D0, 0x3
0000128E  6D00 FEA8                blt        -0x156 /* 00001138 */
label00001292:
00001292  4A2E FFFF                tst.b      [A6 - 0x1]
00001296  6706                     beq        +0x8 /* 0000129E */
00001298  197C 0001 0002           move.b     [A4 + 0x2], 0x1
label0000129E:
0000129E  7600                     moveq.l    D3, 0x00
000012A0  4A54                     tst.w      [A4]
000012A2  6608                     bne        +0xA /* 000012AC */
000012A4  4A2C 0240                tst.b      [A4 + 0x240]
000012A8  6702                     beq        +0x4 /* 000012AC */
000012AA  7601                     moveq.l    D3, 0x01
label000012AC:
000012AC  1003                     move.b     D0, D3
000012AE  4CEE 1088 FFEE           movem.l    D3,D7,A4, [A6 - 0x12]
000012B4  4E5E                     unlink     A6
000012B6  4E75                     rts
fn000012B8:
000012B8  4E56 FFFC                link       A6, -0x0004
000012BC  48E7 1308                movem.l    -[A7], D3,D6,D7,A4
000012C0  286E 0008                movea.l    A4, [A6 + 0x8]
000012C4  558F                     subq.l     A7, 2
000012C6  4EAD 02DA                jsr        [A5 + 0x2DA /* export_87, CODE:1 @ 00006448 */]
000012CA  3C1F                     move.w     D6, [A7]+
000012CC  6600 01B2                bne        +0x1B4 /* 00001480 */
000012D0  302C 0256                move.w     D0, [A4 + 0x256]
000012D4  48C0                     ext.l      D0
000012D6  206C 0252                movea.l    A0, [A4 + 0x252]
000012DA  2200                     move.l     D1, D0
000012DC  C0FC 000C                mulu.w     D0, 0xC
000012E0  4841                     swap.w     D1
000012E2  C2FC 000C                mulu.w     D1, 0xC
000012E6  4841                     swap.w     D1
000012E8  4241                     clr.w      D1
000012EA  D081                     add.l      D0, D1
000012EC  2030 0804                move.l     D0, [A0 + D0 + 0x4]
000012F0  0280 00FF FFFF           andi.l     D0, 0xFFFFFF
000012F6  B0AC 013A                cmp.l      D0, [A4 + 0x13A]
000012FA  6312                     bls        +0x14 /* 0000130E */
000012FC  7008                     moveq.l    D0, 0x08
000012FE  2F00                     move.l     -[A7], D0
00001300  4878 03F5                push.l     0x3F5
00001304  2F0C                     move.l     -[A7], A4
00001306  4EBA F4D0                jsr        [PC - 0xB30 /* 000007D8 */]
0000130A  4FEF 000C                lea.l      A7, [A7 + 0xC]
label0000130E:
0000130E  4247                     clr.w      D7
00001310  6056                     bra        +0x58 /* 00001368 */
label00001312:
00001312  302C 0256                move.w     D0, [A4 + 0x256]
00001316  48C0                     ext.l      D0
00001318  206C 0252                movea.l    A0, [A4 + 0x252]
0000131C  2200                     move.l     D1, D0
0000131E  C0FC 000C                mulu.w     D0, 0xC
00001322  4841                     swap.w     D1
00001324  C2FC 000C                mulu.w     D1, 0xC
00001328  4841                     swap.w     D1
0000132A  4241                     clr.w      D1
0000132C  D081                     add.l      D0, D1
0000132E  48C7                     ext.l      D7
00001330  226C 0252                movea.l    A1, [A4 + 0x252]
00001334  2207                     move.l     D1, D7
00001336  2401                     move.l     D2, D1
00001338  C2FC 000C                mulu.w     D1, 0xC
0000133C  4842                     swap.w     D2
0000133E  C4FC 000C                mulu.w     D2, 0xC
00001342  4842                     swap.w     D2
00001344  4242                     clr.w      D2
00001346  D282                     add.l      D1, D2
00001348  3030 0800                move.w     D0, [A0 + D0]
0000134C  B071 1800                cmp.w      D0, [A1 + D1]
00001350  6612                     bne        +0x14 /* 00001364 */
00001352  7008                     moveq.l    D0, 0x08
00001354  2F00                     move.l     -[A7], D0
00001356  4878 03FF                push.l     0x3FF
0000135A  2F0C                     move.l     -[A7], A4
0000135C  4EBA F47A                jsr        [PC - 0xB86 /* 000007D8 */]
00001360  4FEF 000C                lea.l      A7, [A7 + 0xC]
label00001364:
00001364  3007                     move.w     D0, D7
00001366  5247                     addq.w     D7, 1
label00001368:
00001368  BE6C 0256                cmp.w      D7, [A4 + 0x256]
0000136C  6DA4                     blt        -0x5A /* 00001312 */
0000136E  302C 0256                move.w     D0, [A4 + 0x256]
00001372  48C0                     ext.l      D0
00001374  206C 0252                movea.l    A0, [A4 + 0x252]
00001378  2200                     move.l     D1, D0
0000137A  C0FC 000C                mulu.w     D0, 0xC
0000137E  4841                     swap.w     D1
00001380  C2FC 000C                mulu.w     D1, 0xC
00001384  4841                     swap.w     D1
00001386  4241                     clr.w      D1
00001388  D081                     add.l      D0, D1
0000138A  2030 0804                move.l     D0, [A0 + D0 + 0x4]
0000138E  0280 00FF FFFF           andi.l     D0, 0xFFFFFF
00001394  D0AC 0132                add.l      D0, [A4 + 0x132]
00001398  2D40 FFFC                move.l     [A6 - 0x4], D0
0000139C  7008                     moveq.l    D0, 0x08
0000139E  2F00                     move.l     -[A7], D0
000013A0  558F                     subq.l     A7, 2
000013A2  3F2C 0120                move.w     -[A7], [A4 + 0x120]
000013A6  7001                     moveq.l    D0, 0x01
000013A8  3F00                     move.w     -[A7], D0
000013AA  2F2E FFFC                move.l     -[A7], [A6 - 0x4]
000013AE  4EAD 05FA                jsr        [A5 + 0x5FA /* export_187, CODE:3 @ 000028AC */]
000013B2  301F                     move.w     D0, [A7]+
000013B4  48C0                     ext.l      D0
000013B6  2F00                     move.l     -[A7], D0
000013B8  2F0C                     move.l     -[A7], A4
000013BA  4EBA F41C                jsr        [PC - 0xBE4 /* 000007D8 */]
000013BE  4AAC 0292                tst.l      [A4 + 0x292]
000013C2  4FEF 000C                lea.l      A7, [A7 + 0xC]
000013C6  670C                     beq        +0xE /* 000013D4 */
000013C8  206C 0292                movea.l    A0, [A4 + 0x292]
000013CC  A01F                     syscall    DisposPtr/DisposePtr
000013CE  7000                     moveq.l    D0, 0x00
000013D0  2940 0292                move.l     [A4 + 0x292], D0
label000013D4:
000013D4  7006                     moveq.l    D0, 0x06
000013D6  A11E                     syscall    NewPtr, flags=1
000013D8  2948 0292                move.l     [A4 + 0x292], A0
000013DC  6612                     bne        +0x14 /* 000013F0 */
000013DE  7005                     moveq.l    D0, 0x05
000013E0  2F00                     move.l     -[A7], D0
000013E2  4878 03EE                push.l     0x3EE
000013E6  2F0C                     move.l     -[A7], A4
000013E8  4EBA F3EE                jsr        [PC - 0xC12 /* 000007D8 */]
000013EC  4FEF 000C                lea.l      A7, [A7 + 0xC]
label000013F0:
000013F0  7006                     moveq.l    D0, 0x06
000013F2  2D40 FFFC                move.l     [A6 - 0x4], D0
000013F6  7008                     moveq.l    D0, 0x08
000013F8  2F00                     move.l     -[A7], D0
000013FA  558F                     subq.l     A7, 2
000013FC  3F2C 0120                move.w     -[A7], [A4 + 0x120]
00001400  486E FFFC                pea.l      [A6 - 0x4]
00001404  2F2C 0292                move.l     -[A7], [A4 + 0x292]
00001408  4EAD 058A                jsr        [A5 + 0x58A /* export_173, CODE:3 @ 00002666 */]
0000140C  301F                     move.w     D0, [A7]+
0000140E  48C0                     ext.l      D0
00001410  2F00                     move.l     -[A7], D0
00001412  2F0C                     move.l     -[A7], A4
00001414  4EBA F3C2                jsr        [PC - 0xC3E /* 000007D8 */]
00001418  4A2C 023A                tst.b      [A4 + 0x23A]
0000141C  4FEF 000C                lea.l      A7, [A7 + 0xC]
00001420  664A                     bne        +0x4C /* 0000146C */
00001422  302C 0256                move.w     D0, [A4 + 0x256]
00001426  48C0                     ext.l      D0
00001428  206C 0252                movea.l    A0, [A4 + 0x252]
0000142C  2200                     move.l     D1, D0
0000142E  C0FC 000C                mulu.w     D0, 0xC
00001432  4841                     swap.w     D1
00001434  C2FC 000C                mulu.w     D1, 0xC
00001438  4841                     swap.w     D1
0000143A  4241                     clr.w      D1
0000143C  D081                     add.l      D0, D1
0000143E  2030 0804                move.l     D0, [A0 + D0 + 0x4]
00001442  0280 00FF FFFF           andi.l     D0, 0xFFFFFF
00001448  D0AC 0132                add.l      D0, [A4 + 0x132]
0000144C  206C 0292                movea.l    A0, [A4 + 0x292]
00001450  2210                     move.l     D1, [A0]
00001452  D280                     add.l      D1, D0
00001454  B2AC 0136                cmp.l      D1, [A4 + 0x136]
00001458  6312                     bls        +0x14 /* 0000146C */
0000145A  7008                     moveq.l    D0, 0x08
0000145C  2F00                     move.l     -[A7], D0
0000145E  4878 03F6                push.l     0x3F6
00001462  2F0C                     move.l     -[A7], A4
00001464  4EBA F372                jsr        [PC - 0xC8E /* 000007D8 */]
00001468  4FEF 000C                lea.l      A7, [A7 + 0xC]
label0000146C:
0000146C  52AC 0114                addq.l     [A4 + 0x114], 1
00001470  206C 0292                movea.l    A0, [A4 + 0x292]
00001474  2010                     move.l     D0, [A0]
00001476  D1AC 025E                add.l      [A4 + 0x25E], D0
0000147A  4EAD 02E2                jsr        [A5 + 0x2E2 /* export_88, CODE:1 @ 000064EE */]
0000147E  6002                     bra        +0x4 /* 00001482 */
label00001480:
00001480  3886                     move.w     [A4], D6
label00001482:
00001482  4A54                     tst.w      [A4]
00001484  57C3                     seq        D3
00001486  4403                     neg.b      D3
00001488  1003                     move.b     D0, D3
0000148A  4CEE 10C8 FFEC           movem.l    D3,D6,D7,A4, [A6 - 0x14]
00001490  4E5E                     unlink     A6
00001492  4E75                     rts
fn00001494:
00001494  4E56 0000                link       A6, 0
00001498  48E7 1108                movem.l    -[A7], D3,D7,A4
0000149C  286E 0008                movea.l    A4, [A6 + 0x8]
000014A0  558F                     subq.l     A7, 2
000014A2  4EAD 02DA                jsr        [A5 + 0x2DA /* export_87, CODE:1 @ 00006448 */]
000014A6  3E1F                     move.w     D7, [A7]+
000014A8  6672                     bne        +0x74 /* 0000151C */
000014AA  302C 0256                move.w     D0, [A4 + 0x256]
000014AE  48C0                     ext.l      D0
000014B0  206C 0252                movea.l    A0, [A4 + 0x252]
000014B4  2200                     move.l     D1, D0
000014B6  C0FC 000C                mulu.w     D0, 0xC
000014BA  4841                     swap.w     D1
000014BC  C2FC 000C                mulu.w     D1, 0xC
000014C0  4841                     swap.w     D1
000014C2  4241                     clr.w      D1
000014C4  D081                     add.l      D0, D1
000014C6  72FF                     moveq.l    D1, 0xFFFFFFFF
000014C8  B270 0802                cmp.w      D1, [A0 + D0 + 0x2]
000014CC  6748                     beq        +0x4A /* 00001516 */
000014CE  302C 0256                move.w     D0, [A4 + 0x256]
000014D2  48C0                     ext.l      D0
000014D4  206C 0252                movea.l    A0, [A4 + 0x252]
000014D8  2200                     move.l     D1, D0
000014DA  C0FC 000C                mulu.w     D0, 0xC
000014DE  4841                     swap.w     D1
000014E0  C2FC 000C                mulu.w     D1, 0xC
000014E4  4841                     swap.w     D1
000014E6  4241                     clr.w      D1
000014E8  D081                     add.l      D0, D1
000014EA  226C 0244                movea.l    A1, [A4 + 0x244]
000014EE  7200                     moveq.l    D1, 0x00
000014F0  3229 001A                move.w     D1, [A1 + 0x1A]
000014F4  242C 013E                move.l     D2, [A4 + 0x13E]
000014F8  9481                     sub.l      D2, D1
000014FA  3030 0802                move.w     D0, [A0 + D0 + 0x2]
000014FE  48C0                     ext.l      D0
00001500  B480                     cmp.l      D2, D0
00001502  6412                     bcc        +0x14 /* 00001516 */
00001504  7008                     moveq.l    D0, 0x08
00001506  2F00                     move.l     -[A7], D0
00001508  4878 03F1                push.l     0x3F1
0000150C  2F0C                     move.l     -[A7], A4
0000150E  4EBA F2C8                jsr        [PC - 0xD38 /* 000007D8 */]
00001512  4FEF 000C                lea.l      A7, [A7 + 0xC]
label00001516:
00001516  4EAD 02E2                jsr        [A5 + 0x2E2 /* export_88, CODE:1 @ 000064EE */]
0000151A  6002                     bra        +0x4 /* 0000151E */
label0000151C:
0000151C  3887                     move.w     [A4], D7
label0000151E:
0000151E  4A54                     tst.w      [A4]
00001520  57C3                     seq        D3
00001522  4403                     neg.b      D3
00001524  1003                     move.b     D0, D3
00001526  4CEE 1088 FFF4           movem.l    D3,D7,A4, [A6 - 0xC]
0000152C  4E5E                     unlink     A6
0000152E  4E75                     rts
fn00001530:
00001530  4E56 0000                link       A6, 0
00001534  48E7 1308                movem.l    -[A7], D3,D6,D7,A4
00001538  286E 0008                movea.l    A4, [A6 + 0x8]
0000153C  558F                     subq.l     A7, 2
0000153E  4EAD 02DA                jsr        [A5 + 0x2DA /* export_87, CODE:1 @ 00006448 */]
00001542  3C1F                     move.w     D6, [A7]+
00001544  6600 0228                bne        +0x22A /* 0000176E */
00001548  426C 0256                clr.w      [A4 + 0x256]
0000154C  302C 0250                move.w     D0, [A4 + 0x250]
00001550  48C0                     ext.l      D0
00001552  206C 024C                movea.l    A0, [A4 + 0x24C]
00001556  E780                     asl        D0, 3
00001558  3030 0806                move.w     D0, [A0 + D0 + 0x6]
0000155C  48C0                     ext.l      D0
0000155E  5280                     addq.l     D0, 1
00001560  D1AC 0110                add.l      [A4 + 0x110], D0
00001564  302C 0250                move.w     D0, [A4 + 0x250]
00001568  48C0                     ext.l      D0
0000156A  206C 024C                movea.l    A0, [A4 + 0x24C]
0000156E  E780                     asl        D0, 3
00001570  3030 0806                move.w     D0, [A0 + D0 + 0x6]
00001574  48C0                     ext.l      D0
00001576  5280                     addq.l     D0, 1
00001578  2200                     move.l     D1, D0
0000157A  C0FC 000C                mulu.w     D0, 0xC
0000157E  4841                     swap.w     D1
00001580  C2FC 000C                mulu.w     D1, 0xC
00001584  4841                     swap.w     D1
00001586  4241                     clr.w      D1
00001588  D081                     add.l      D0, D1
0000158A  222C 0286                move.l     D1, [A4 + 0x286]
0000158E  92AC 025A                sub.l      D1, [A4 + 0x25A]
00001592  B280                     cmp.l      D1, D0
00001594  6C12                     bge        +0x14 /* 000015A8 */
00001596  7007                     moveq.l    D0, 0x07
00001598  2F00                     move.l     -[A7], D0
0000159A  4878 03F3                push.l     0x3F3
0000159E  2F0C                     move.l     -[A7], A4
000015A0  4EBA F236                jsr        [PC - 0xDCA /* 000007D8 */]
000015A4  4FEF 000C                lea.l      A7, [A7 + 0xC]
label000015A8:
000015A8  302C 0250                move.w     D0, [A4 + 0x250]
000015AC  48C0                     ext.l      D0
000015AE  206C 024C                movea.l    A0, [A4 + 0x24C]
000015B2  E780                     asl        D0, 3
000015B4  3030 0806                move.w     D0, [A0 + D0 + 0x6]
000015B8  5240                     addq.w     D0, 1
000015BA  D16C 0258                add.w      [A4 + 0x258], D0
000015BE  302C 0250                move.w     D0, [A4 + 0x250]
000015C2  48C0                     ext.l      D0
000015C4  206C 024C                movea.l    A0, [A4 + 0x24C]
000015C8  E780                     asl        D0, 3
000015CA  7200                     moveq.l    D1, 0x00
000015CC  3230 0808                move.w     D1, [A0 + D0 + 0x8]
000015D0  B2AC 0286                cmp.l      D1, [A4 + 0x286]
000015D4  6F12                     ble        +0x14 /* 000015E8 */
000015D6  7007                     moveq.l    D0, 0x07
000015D8  2F00                     move.l     -[A7], D0
000015DA  4878 03F4                push.l     0x3F4
000015DE  2F0C                     move.l     -[A7], A4
000015E0  4EBA F1F6                jsr        [PC - 0xE0A /* 000007D8 */]
000015E4  4FEF 000C                lea.l      A7, [A7 + 0xC]
label000015E8:
000015E8  302C 0250                move.w     D0, [A4 + 0x250]
000015EC  48C0                     ext.l      D0
000015EE  206C 024C                movea.l    A0, [A4 + 0x24C]
000015F2  E780                     asl        D0, 3
000015F4  7200                     moveq.l    D1, 0x00
000015F6  3230 0808                move.w     D1, [A0 + D0 + 0x8]
000015FA  B2AC 025A                cmp.l      D1, [A4 + 0x25A]
000015FE  6F50                     ble        +0x52 /* 00001650 */
00001600  302C 0250                move.w     D0, [A4 + 0x250]
00001604  48C0                     ext.l      D0
00001606  206C 024C                movea.l    A0, [A4 + 0x24C]
0000160A  E780                     asl        D0, 3
0000160C  7200                     moveq.l    D1, 0x00
0000160E  3230 0808                move.w     D1, [A0 + D0 + 0x8]
00001612  302C 0250                move.w     D0, [A4 + 0x250]
00001616  48C0                     ext.l      D0
00001618  206C 024C                movea.l    A0, [A4 + 0x24C]
0000161C  E780                     asl        D0, 3
0000161E  3030 0806                move.w     D0, [A0 + D0 + 0x6]
00001622  48C0                     ext.l      D0
00001624  5280                     addq.l     D0, 1
00001626  2400                     move.l     D2, D0
00001628  C0FC 000C                mulu.w     D0, 0xC
0000162C  4842                     swap.w     D2
0000162E  C4FC 000C                mulu.w     D2, 0xC
00001632  4842                     swap.w     D2
00001634  4242                     clr.w      D2
00001636  D082                     add.l      D0, D2
00001638  D081                     add.l      D0, D1
0000163A  2940 025A                move.l     [A4 + 0x25A], D0
0000163E  7007                     moveq.l    D0, 0x07
00001640  2F00                     move.l     -[A7], D0
00001642  4878 03F8                push.l     0x3F8
00001646  2F0C                     move.l     -[A7], A4
00001648  4EBA F18E                jsr        [PC - 0xE72 /* 000007D8 */]
0000164C  4FEF 000C                lea.l      A7, [A7 + 0xC]
label00001650:
00001650  302C 0250                move.w     D0, [A4 + 0x250]
00001654  48C0                     ext.l      D0
00001656  206C 024C                movea.l    A0, [A4 + 0x24C]
0000165A  E780                     asl        D0, 3
0000165C  7200                     moveq.l    D1, 0x00
0000165E  3230 0808                move.w     D1, [A0 + D0 + 0x8]
00001662  B2AC 025A                cmp.l      D1, [A4 + 0x25A]
00001666  6C50                     bge        +0x52 /* 000016B8 */
00001668  302C 0250                move.w     D0, [A4 + 0x250]
0000166C  48C0                     ext.l      D0
0000166E  206C 024C                movea.l    A0, [A4 + 0x24C]
00001672  E780                     asl        D0, 3
00001674  7200                     moveq.l    D1, 0x00
00001676  3230 0808                move.w     D1, [A0 + D0 + 0x8]
0000167A  302C 0250                move.w     D0, [A4 + 0x250]
0000167E  48C0                     ext.l      D0
00001680  206C 024C                movea.l    A0, [A4 + 0x24C]
00001684  E780                     asl        D0, 3
00001686  3030 0806                move.w     D0, [A0 + D0 + 0x6]
0000168A  48C0                     ext.l      D0
0000168C  5280                     addq.l     D0, 1
0000168E  2400                     move.l     D2, D0
00001690  C0FC 000C                mulu.w     D0, 0xC
00001694  4842                     swap.w     D2
00001696  C4FC 000C                mulu.w     D2, 0xC
0000169A  4842                     swap.w     D2
0000169C  4242                     clr.w      D2
0000169E  D082                     add.l      D0, D2
000016A0  D081                     add.l      D0, D1
000016A2  2940 025A                move.l     [A4 + 0x25A], D0
000016A6  7007                     moveq.l    D0, 0x07
000016A8  2F00                     move.l     -[A7], D0
000016AA  4878 03F9                push.l     0x3F9
000016AE  2F0C                     move.l     -[A7], A4
000016B0  4EBA F126                jsr        [PC - 0xEDA /* 000007D8 */]
000016B4  4FEF 000C                lea.l      A7, [A7 + 0xC]
label000016B8:
000016B8  302C 0250                move.w     D0, [A4 + 0x250]
000016BC  48C0                     ext.l      D0
000016BE  206C 024C                movea.l    A0, [A4 + 0x24C]
000016C2  E780                     asl        D0, 3
000016C4  7200                     moveq.l    D1, 0x00
000016C6  3230 0808                move.w     D1, [A0 + D0 + 0x8]
000016CA  D2AC 024C                add.l      D1, [A4 + 0x24C]
000016CE  2941 0252                move.l     [A4 + 0x252], D1
000016D2  426C 0256                clr.w      [A4 + 0x256]
000016D6  6012                     bra        +0x14 /* 000016EA */
label000016D8:
000016D8  2F0C                     move.l     -[A7], A4
000016DA  4EBA FBDC                jsr        [PC - 0x424 /* 000012B8 */]
000016DE  2F0C                     move.l     -[A7], A4
000016E0  4EBA FDB2                jsr        [PC - 0x24E /* 00001494 */]
000016E4  504F                     addq.w     A7, 8
000016E6  526C 0256                addq.w     [A4 + 0x256], 1
label000016EA:
000016EA  302C 0250                move.w     D0, [A4 + 0x250]
000016EE  48C0                     ext.l      D0
000016F0  206C 024C                movea.l    A0, [A4 + 0x24C]
000016F4  E780                     asl        D0, 3
000016F6  322C 0256                move.w     D1, [A4 + 0x256]
000016FA  B270 0806                cmp.w      D1, [A0 + D0 + 0x6]
000016FE  6FD8                     ble        -0x26 /* 000016D8 */
00001700  302C 0250                move.w     D0, [A4 + 0x250]
00001704  48C0                     ext.l      D0
00001706  206C 024C                movea.l    A0, [A4 + 0x24C]
0000170A  E780                     asl        D0, 3
0000170C  3030 0806                move.w     D0, [A0 + D0 + 0x6]
00001710  48C0                     ext.l      D0
00001712  5280                     addq.l     D0, 1
00001714  2200                     move.l     D1, D0
00001716  C0FC 000C                mulu.w     D0, 0xC
0000171A  4841                     swap.w     D1
0000171C  C2FC 000C                mulu.w     D1, 0xC
00001720  4841                     swap.w     D1
00001722  4241                     clr.w      D1
00001724  D081                     add.l      D0, D1
00001726  D1AC 025A                add.l      [A4 + 0x25A], D0
0000172A  4247                     clr.w      D7
0000172C  6034                     bra        +0x36 /* 00001762 */
label0000172E:
0000172E  302C 0250                move.w     D0, [A4 + 0x250]
00001732  48C0                     ext.l      D0
00001734  206C 024C                movea.l    A0, [A4 + 0x24C]
00001738  E780                     asl        D0, 3
0000173A  48C7                     ext.l      D7
0000173C  2248                     movea.l    A1, A0
0000173E  2207                     move.l     D1, D7
00001740  E781                     asl        D1, 3
00001742  2030 0802                move.l     D0, [A0 + D0 + 0x2]
00001746  B0B1 1802                cmp.l      D0, [A1 + D1 + 0x2]
0000174A  6612                     bne        +0x14 /* 0000175E */
0000174C  7007                     moveq.l    D0, 0x07
0000174E  2F00                     move.l     -[A7], D0
00001750  4878 03FE                push.l     0x3FE
00001754  2F0C                     move.l     -[A7], A4
00001756  4EBA F080                jsr        [PC - 0xF80 /* 000007D8 */]
0000175A  4FEF 000C                lea.l      A7, [A7 + 0xC]
label0000175E:
0000175E  3007                     move.w     D0, D7
00001760  5247                     addq.w     D7, 1
label00001762:
00001762  BE6C 0250                cmp.w      D7, [A4 + 0x250]
00001766  6DC6                     blt        -0x38 /* 0000172E */
00001768  4EAD 02E2                jsr        [A5 + 0x2E2 /* export_88, CODE:1 @ 000064EE */]
0000176C  6014                     bra        +0x16 /* 00001782 */
label0000176E:
0000176E  3886                     move.w     [A4], D6
00001770  302C 0250                move.w     D0, [A4 + 0x250]
00001774  48C0                     ext.l      D0
00001776  206C 024C                movea.l    A0, [A4 + 0x24C]
0000177A  E780                     asl        D0, 3
0000177C  31AC 0256 0806           move.w     [A0 + D0 + 0x6], [A4 + 0x256]
label00001782:
00001782  397C FFFF 0256           move.w     [A4 + 0x256], 0xFFFF
00001788  4A54                     tst.w      [A4]
0000178A  57C3                     seq        D3
0000178C  4403                     neg.b      D3
0000178E  1003                     move.b     D0, D3
00001790  4CEE 10C8 FFF0           movem.l    D3,D6,D7,A4, [A6 - 0x10]
00001796  4E5E                     unlink     A6
00001798  4E75                     rts
fn0000179A:
0000179A  4E56 0000                link       A6, 0
0000179E  2F0C                     move.l     -[A7], A4
000017A0  286E 0008                movea.l    A4, [A6 + 0x8]
000017A4  558F                     subq.l     A7, 2
000017A6  4EAD 02DA                jsr        [A5 + 0x2DA /* export_87, CODE:1 @ 00006448 */]
000017AA  389F                     move.w     [A4], [A7]+
000017AC  6600 01F8                bne        +0x1FA /* 000019A6 */
000017B0  4A2C 0240                tst.b      [A4 + 0x240]
000017B4  6614                     bne        +0x16 /* 000017CA */
000017B6  2F0C                     move.l     -[A7], A4
000017B8  4EBA F95C                jsr        [PC - 0x6A4 /* 00001116 */]
000017BC  4A00                     tst.b      D0
000017BE  584F                     addq.w     A7, 4
000017C0  6608                     bne        +0xA /* 000017CA */
000017C2  3F3C 0BB8                move.w     -[A7], 0xBB8
000017C6  4EAD 02EA                jsr        [A5 + 0x2EA /* export_89, CODE:1 @ 00006522 */]
label000017CA:
000017CA  4A2C 0242                tst.b      [A4 + 0x242]
000017CE  6600 01D2                bne        +0x1D4 /* 000019A2 */
000017D2  197C 0001 0242           move.b     [A4 + 0x242], 0x1
000017D8  7007                     moveq.l    D0, 0x07
000017DA  2F00                     move.l     -[A7], D0
000017DC  7200                     moveq.l    D1, 0x00
000017DE  2F01                     move.l     -[A7], D1
000017E0  2F0C                     move.l     -[A7], A4
000017E2  4EBA EFF4                jsr        [PC - 0x100C /* 000007D8 */]
000017E6  206C 023C                movea.l    A0, [A4 + 0x23C]
000017EA  2050                     movea.l    A0, [A0]
000017EC  2948 0244                move.l     [A4 + 0x244], A0
000017F0  7000                     moveq.l    D0, 0x00
000017F2  3028 0018                move.w     D0, [A0 + 0x18]
000017F6  2940 026E                move.l     [A4 + 0x26E], D0
000017FA  7000                     moveq.l    D0, 0x00
000017FC  3028 001A                move.w     D0, [A0 + 0x1A]
00001800  2940 0286                move.l     [A4 + 0x286], D0
00001804  202C 011C                move.l     D0, [A4 + 0x11C]
00001808  2940 028A                move.l     [A4 + 0x28A], D0
0000180C  90AC 0286                sub.l      D0, [A4 + 0x286]
00001810  2940 028E                move.l     [A4 + 0x28E], D0
00001814  202C 026E                move.l     D0, [A4 + 0x26E]
00001818  B0AC 026A                cmp.l      D0, [A4 + 0x26A]
0000181C  4FEF 000C                lea.l      A7, [A7 + 0xC]
00001820  6712                     beq        +0x14 /* 00001834 */
00001822  7007                     moveq.l    D0, 0x07
00001824  2F00                     move.l     -[A7], D0
00001826  4878 03F0                push.l     0x3F0
0000182A  2F0C                     move.l     -[A7], A4
0000182C  4EBA EFAA                jsr        [PC - 0x1056 /* 000007D8 */]
00001830  4FEF 000C                lea.l      A7, [A7 + 0xC]
label00001834:
00001834  4AAC 028E                tst.l      [A4 + 0x28E]
00001838  6F1C                     ble        +0x1E /* 00001856 */
0000183A  202C 0286                move.l     D0, [A4 + 0x286]
0000183E  B0AC 028A                cmp.l      D0, [A4 + 0x28A]
00001842  6D12                     blt        +0x14 /* 00001856 */
00001844  7007                     moveq.l    D0, 0x07
00001846  2F00                     move.l     -[A7], D0
00001848  4878 03F1                push.l     0x3F1
0000184C  2F0C                     move.l     -[A7], A4
0000184E  4EBA EF88                jsr        [PC - 0x1078 /* 000007D8 */]
00001852  4FEF 000C                lea.l      A7, [A7 + 0xC]
label00001856:
00001856  206C 023C                movea.l    A0, [A4 + 0x23C]
0000185A  202C 026E                move.l     D0, [A4 + 0x26E]
0000185E  D090                     add.l      D0, [A0]
00001860  2940 024C                move.l     [A4 + 0x24C], D0
00001864  202C 0286                move.l     D0, [A4 + 0x286]
00001868  D090                     add.l      D0, [A0]
0000186A  2940 0248                move.l     [A4 + 0x248], D0
0000186E  206C 024C                movea.l    A0, [A4 + 0x24C]
00001872  3010                     move.w     D0, [A0]
00001874  48C0                     ext.l      D0
00001876  5280                     addq.l     D0, 1
00001878  E780                     asl        D0, 3
0000187A  5480                     addq.l     D0, 2
0000187C  2940 0272                move.l     [A4 + 0x272], D0
00001880  D0AC 026E                add.l      D0, [A4 + 0x26E]
00001884  2940 0276                move.l     [A4 + 0x276], D0
00001888  2940 027A                move.l     [A4 + 0x27A], D0
0000188C  202C 0272                move.l     D0, [A4 + 0x272]
00001890  B0AC 0286                cmp.l      D0, [A4 + 0x286]
00001894  6F12                     ble        +0x14 /* 000018A8 */
00001896  7007                     moveq.l    D0, 0x07
00001898  2F00                     move.l     -[A7], D0
0000189A  4878 03F2                push.l     0x3F2
0000189E  2F0C                     move.l     -[A7], A4
000018A0  4EBA EF36                jsr        [PC - 0x10CA /* 000007D8 */]
000018A4  4FEF 000C                lea.l      A7, [A7 + 0xC]
label000018A8:
000018A8  202C 027A                move.l     D0, [A4 + 0x27A]
000018AC  90AC 026E                sub.l      D0, [A4 + 0x26E]
000018B0  2940 025A                move.l     [A4 + 0x25A], D0
000018B4  426C 0258                clr.w      [A4 + 0x258]
000018B8  426C 0250                clr.w      [A4 + 0x250]
000018BC  602C                     bra        +0x2E /* 000018EA */
label000018BE:
000018BE  2F0C                     move.l     -[A7], A4
000018C0  4EBA FC6E                jsr        [PC - 0x392 /* 00001530 */]
000018C4  206C 024C                movea.l    A0, [A4 + 0x24C]
000018C8  4A50                     tst.w      [A0]
000018CA  584F                     addq.w     A7, 4
000018CC  6718                     beq        +0x1A /* 000018E6 */
000018CE  7064                     moveq.l    D0, 0x64
000018D0  C1EC 0250                muls.w     D0, [A4 + 0x250]
000018D4  3210                     move.w     D1, [A0]
000018D6  48C1                     ext.l      D1
000018D8  4EAD 076A                jsr        [A5 + 0x76A /* export_233, CODE:3 @ 0000372A */]
000018DC  2F00                     move.l     -[A7], D0
000018DE  2F0C                     move.l     -[A7], A4
000018E0  4EBA F36E                jsr        [PC - 0xC92 /* 00000C50 */]
000018E4  504F                     addq.w     A7, 8
label000018E6:
000018E6  526C 0250                addq.w     [A4 + 0x250], 1
label000018EA:
000018EA  206C 024C                movea.l    A0, [A4 + 0x24C]
000018EE  302C 0250                move.w     D0, [A4 + 0x250]
000018F2  B050                     cmp.w      D0, [A0]
000018F4  6FC8                     ble        -0x36 /* 000018BE */
000018F6  397C FFFF 0250           move.w     [A4 + 0x250], 0xFFFF
000018FC  700C                     moveq.l    D0, 0x0C
000018FE  C1EC 0258                muls.w     D0, [A4 + 0x258]
00001902  2940 027E                move.l     [A4 + 0x27E], D0
00001906  D0AC 027A                add.l      D0, [A4 + 0x27A]
0000190A  2940 0282                move.l     [A4 + 0x282], D0
0000190E  90AC 026E                sub.l      D0, [A4 + 0x26E]
00001912  B0AC 025A                cmp.l      D0, [A4 + 0x25A]
00001916  6C12                     bge        +0x14 /* 0000192A */
00001918  7007                     moveq.l    D0, 0x07
0000191A  2F00                     move.l     -[A7], D0
0000191C  4878 03FB                push.l     0x3FB
00001920  2F0C                     move.l     -[A7], A4
00001922  4EBA EEB4                jsr        [PC - 0x114C /* 000007D8 */]
00001926  4FEF 000C                lea.l      A7, [A7 + 0xC]
label0000192A:
0000192A  202C 0282                move.l     D0, [A4 + 0x282]
0000192E  90AC 026E                sub.l      D0, [A4 + 0x26E]
00001932  B0AC 025A                cmp.l      D0, [A4 + 0x25A]
00001936  6F12                     ble        +0x14 /* 0000194A */
00001938  7007                     moveq.l    D0, 0x07
0000193A  2F00                     move.l     -[A7], D0
0000193C  4878 03FC                push.l     0x3FC
00001940  2F0C                     move.l     -[A7], A4
00001942  4EBA EE94                jsr        [PC - 0x116C /* 000007D8 */]
00001946  4FEF 000C                lea.l      A7, [A7 + 0xC]
label0000194A:
0000194A  202C 0282                move.l     D0, [A4 + 0x282]
0000194E  B0AC 0286                cmp.l      D0, [A4 + 0x286]
00001952  6F12                     ble        +0x14 /* 00001966 */
00001954  7007                     moveq.l    D0, 0x07
00001956  2F00                     move.l     -[A7], D0
00001958  4878 03FD                push.l     0x3FD
0000195C  2F0C                     move.l     -[A7], A4
0000195E  4EBA EE78                jsr        [PC - 0x1188 /* 000007D8 */]
00001962  4FEF 000C                lea.l      A7, [A7 + 0xC]
label00001966:
00001966  202C 0282                move.l     D0, [A4 + 0x282]
0000196A  B0AC 0286                cmp.l      D0, [A4 + 0x286]
0000196E  6C12                     bge        +0x14 /* 00001982 */
00001970  7007                     moveq.l    D0, 0x07
00001972  2F00                     move.l     -[A7], D0
00001974  4878 03FA                push.l     0x3FA
00001978  2F0C                     move.l     -[A7], A4
0000197A  4EBA EE5C                jsr        [PC - 0x11A4 /* 000007D8 */]
0000197E  4FEF 000C                lea.l      A7, [A7 + 0xC]
label00001982:
00001982  4A54                     tst.w      [A4]
00001984  661C                     bne        +0x1E /* 000019A2 */
00001986  197C 0001 0241           move.b     [A4 + 0x241], 0x1
0000198C  7007                     moveq.l    D0, 0x07
0000198E  2F00                     move.l     -[A7], D0
00001990  4878 07D1                push.l     0x7D1
00001994  2F0C                     move.l     -[A7], A4
00001996  4EBA EE40                jsr        [PC - 0x11C0 /* 000007D8 */]
0000199A  422C 0005                clr.b      [A4 + 0x5]
0000199E  4FEF 000C                lea.l      A7, [A7 + 0xC]
label000019A2:
000019A2  4EAD 02E2                jsr        [A5 + 0x2E2 /* export_88, CODE:1 @ 000064EE */]
label000019A6:
000019A6  102C 0241                move.b     D0, [A4 + 0x241]
000019AA  286E FFFC                movea.l    A4, [A6 - 0x4]
000019AE  4E5E                     unlink     A6
000019B0  4E75                     rts
fn000019B2:
000019B2  4E56 0000                link       A6, 0
000019B6  48E7 0108                movem.l    -[A7], D7,A4
000019BA  286E 0008                movea.l    A4, [A6 + 0x8]
000019BE  4247                     clr.w      D7
000019C0  4A2C 0240                tst.b      [A4 + 0x240]
000019C4  6706                     beq        +0x8 /* 000019CC */
000019C6  206C 024C                movea.l    A0, [A4 + 0x24C]
000019CA  3E10                     move.w     D7, [A0]
label000019CC:
000019CC  3007                     move.w     D0, D7
000019CE  4CEE 1080 FFF8           movem.l    D7,A4, [A6 - 0x8]
000019D4  4E5E                     unlink     A6
000019D6  4E75                     rts
fn000019D8:
000019D8  4E56 0000                link       A6, 0
000019DC  48E7 0108                movem.l    -[A7], D7,A4
000019E0  286E 0008                movea.l    A4, [A6 + 0x8]
000019E4  4247                     clr.w      D7
000019E6  4A2C 0240                tst.b      [A4 + 0x240]
000019EA  6726                     beq        +0x28 /* 00001A12 */
000019EC  396E 000E 0250           move.w     [A4 + 0x250], [A6 + 0xE]
000019F2  206C 024C                movea.l    A0, [A4 + 0x24C]
000019F6  302C 0250                move.w     D0, [A4 + 0x250]
000019FA  B050                     cmp.w      D0, [A0]
000019FC  6E0E                     bgt        +0x10 /* 00001A0C */
000019FE  302C 0250                move.w     D0, [A4 + 0x250]
00001A02  48C0                     ext.l      D0
00001A04  E780                     asl        D0, 3
00001A06  3E30 0806                move.w     D7, [A0 + D0 + 0x6]
00001A0A  6006                     bra        +0x8 /* 00001A12 */
label00001A0C:
00001A0C  397C FFFF 0250           move.w     [A4 + 0x250], 0xFFFF
label00001A12:
00001A12  3007                     move.w     D0, D7
00001A14  4CEE 1080 FFF8           movem.l    D7,A4, [A6 - 0x8]
00001A1A  4E5E                     unlink     A6
00001A1C  4E75                     rts
fn00001A1E:
00001A1E  4E56 0000                link       A6, 0
00001A22  48E7 0308                movem.l    -[A7], D6,D7,A4
00001A26  3C2E 0012                move.w     D6, [A6 + 0x12]
00001A2A  3E2E 000E                move.w     D7, [A6 + 0xE]
00001A2E  286E 0008                movea.l    A4, [A6 + 0x8]
00001A32  4A6C 010C                tst.w      [A4 + 0x10C]
00001A36  660A                     bne        +0xC /* 00001A42 */
00001A38  3007                     move.w     D0, D7
00001A3A  5240                     addq.w     D0, 1
00001A3C  3940 010C                move.w     [A4 + 0x10C], D0
00001A40  6016                     bra        +0x18 /* 00001A58 */
label00001A42:
00001A42  48C7                     ext.l      D7
00001A44  2007                     move.l     D0, D7
00001A46  5280                     addq.l     D0, 1
00001A48  322C 010C                move.w     D1, [A4 + 0x10C]
00001A4C  48C1                     ext.l      D1
00001A4E  B081                     cmp.l      D0, D1
00001A50  6706                     beq        +0x8 /* 00001A58 */
00001A52  397C FFFF 010C           move.w     [A4 + 0x10C], 0xFFFF
label00001A58:
00001A58  4A6C 010E                tst.w      [A4 + 0x10E]
00001A5C  6606                     bne        +0x8 /* 00001A64 */
00001A5E  3946 010E                move.w     [A4 + 0x10E], D6
00001A62  6028                     bra        +0x2A /* 00001A8C */
label00001A64:
00001A64  BC6C 010E                cmp.w      D6, [A4 + 0x10E]
00001A68  6722                     beq        +0x24 /* 00001A8C */
00001A6A  48C7                     ext.l      D7
00001A6C  2007                     move.l     D0, D7
00001A6E  5280                     addq.l     D0, 1
00001A70  322C 010C                move.w     D1, [A4 + 0x10C]
00001A74  48C1                     ext.l      D1
00001A76  B081                     cmp.l      D0, D1
00001A78  6612                     bne        +0x14 /* 00001A8C */
00001A7A  4A6C 010E                tst.w      [A4 + 0x10E]
00001A7E  6C06                     bge        +0x8 /* 00001A86 */
00001A80  536C 010E                subq.w     [A4 + 0x10E], 1
00001A84  6006                     bra        +0x8 /* 00001A8C */
label00001A86:
00001A86  397C FFFE 010E           move.w     [A4 + 0x10E], 0xFFFE
label00001A8C:
00001A8C  4CEE 10C0 FFF4           movem.l    D6,D7,A4, [A6 - 0xC]
00001A92  4E5E                     unlink     A6
00001A94  4E75                     rts
fn00001A96:
00001A96  4E56 FFFC                link       A6, -0x0004
00001A9A  48E7 0318                movem.l    -[A7], D6,D7,A3,A4
00001A9E  3C2E 0012                move.w     D6, [A6 + 0x12]
00001AA2  3E2E 000E                move.w     D7, [A6 + 0xE]
00001AA6  286E 0008                movea.l    A4, [A6 + 0x8]
00001AAA  7000                     moveq.l    D0, 0x00
00001AAC  2640                     movea.l    A3, D0
00001AAE  2D40 FFFC                move.l     [A6 - 0x4], D0
00001AB2  4A2C 0240                tst.b      [A4 + 0x240]
00001AB6  6700 00F4                beq        +0xF6 /* 00001BAC */
00001ABA  3947 0250                move.w     [A4 + 0x250], D7
00001ABE  3946 0256                move.w     [A4 + 0x256], D6
00001AC2  206C 024C                movea.l    A0, [A4 + 0x24C]
00001AC6  302C 0250                move.w     D0, [A4 + 0x250]
00001ACA  B050                     cmp.w      D0, [A0]
00001ACC  6E00 00D8                bgt        +0xDA /* 00001BA6 */
00001AD0  302C 0250                move.w     D0, [A4 + 0x250]
00001AD4  48C0                     ext.l      D0
00001AD6  E780                     asl        D0, 3
00001AD8  322C 0256                move.w     D1, [A4 + 0x256]
00001ADC  B270 0806                cmp.w      D1, [A0 + D0 + 0x6]
00001AE0  6E00 00BC                bgt        +0xBE /* 00001B9E */
00001AE4  302C 0250                move.w     D0, [A4 + 0x250]
00001AE8  48C0                     ext.l      D0
00001AEA  206C 024C                movea.l    A0, [A4 + 0x24C]
00001AEE  E780                     asl        D0, 3
00001AF0  7200                     moveq.l    D1, 0x00
00001AF2  3230 0808                move.w     D1, [A0 + D0 + 0x8]
00001AF6  D2AC 024C                add.l      D1, [A4 + 0x24C]
00001AFA  2941 0252                move.l     [A4 + 0x252], D1
00001AFE  4254                     clr.w      [A4]
00001B00  2F0C                     move.l     -[A7], A4
00001B02  4EBA F7B4                jsr        [PC - 0x84C /* 000012B8 */]
00001B06  4A00                     tst.b      D0
00001B08  584F                     addq.w     A7, 4
00001B0A  677E                     beq        +0x80 /* 00001B8A */
00001B0C  206C 0292                movea.l    A0, [A4 + 0x292]
00001B10  2010                     move.l     D0, [A0]
00001B12  A122                     syscall    NewHandle, flags=1
00001B14  2948 0296                move.l     [A4 + 0x296], A0
00001B18  6700 0092                beq        +0x94 /* 00001BAC */
00001B1C  A029                     syscall    HLock
00001B1E  302C 0256                move.w     D0, [A4 + 0x256]
00001B22  48C0                     ext.l      D0
00001B24  206C 0252                movea.l    A0, [A4 + 0x252]
00001B28  2200                     move.l     D1, D0
00001B2A  C0FC 000C                mulu.w     D0, 0xC
00001B2E  4841                     swap.w     D1
00001B30  C2FC 000C                mulu.w     D1, 0xC
00001B34  4841                     swap.w     D1
00001B36  4241                     clr.w      D1
00001B38  D081                     add.l      D0, D1
00001B3A  2030 0804                move.l     D0, [A0 + D0 + 0x4]
00001B3E  0280 00FF FFFF           andi.l     D0, 0xFFFFFF
00001B44  D0AC 0132                add.l      D0, [A4 + 0x132]
00001B48  5880                     addq.l     D0, 4
00001B4A  2D40 FFFC                move.l     [A6 - 0x4], D0
00001B4E  558F                     subq.l     A7, 2
00001B50  3F2C 0120                move.w     -[A7], [A4 + 0x120]
00001B54  7001                     moveq.l    D0, 0x01
00001B56  3F00                     move.w     -[A7], D0
00001B58  2F2E FFFC                move.l     -[A7], [A6 - 0x4]
00001B5C  4EAD 05FA                jsr        [A5 + 0x5FA /* export_187, CODE:3 @ 000028AC */]
00001B60  206C 0292                movea.l    A0, [A4 + 0x292]
00001B64  2D50 FFFC                move.l     [A6 - 0x4], [A0]
00001B68  558F                     subq.l     A7, 2
00001B6A  3F2C 0120                move.w     -[A7], [A4 + 0x120]
00001B6E  486E FFFC                pea.l      [A6 - 0x4]
00001B72  206C 0296                movea.l    A0, [A4 + 0x296]
00001B76  2F10                     move.l     -[A7], [A0]
00001B78  4EAD 058A                jsr        [A5 + 0x58A /* export_173, CODE:3 @ 00002666 */]
00001B7C  206C 0296                movea.l    A0, [A4 + 0x296]
00001B80  A02A                     syscall    HUnlock
00001B82  266C 0296                movea.l    A3, [A4 + 0x296]
00001B86  584F                     addq.w     A7, 4
00001B88  6022                     bra        +0x24 /* 00001BAC */
label00001B8A:
00001B8A  48C6                     ext.l      D6
00001B8C  2F06                     move.l     -[A7], D6
00001B8E  48C7                     ext.l      D7
00001B90  2F07                     move.l     -[A7], D7
00001B92  2F0C                     move.l     -[A7], A4
00001B94  4EBA FE88                jsr        [PC - 0x178 /* 00001A1E */]
00001B98  4FEF 000C                lea.l      A7, [A7 + 0xC]
00001B9C  600E                     bra        +0x10 /* 00001BAC */
label00001B9E:
00001B9E  397C FFFF 0256           move.w     [A4 + 0x256], 0xFFFF
00001BA4  6006                     bra        +0x8 /* 00001BAC */
label00001BA6:
00001BA6  397C FFFF 0250           move.w     [A4 + 0x250], 0xFFFF
label00001BAC:
00001BAC  200B                     move.l     D0, A3
00001BAE  4CEE 18C0 FFEC           movem.l    D6,D7,A3,A4, [A6 - 0x14]
00001BB4  4E5E                     unlink     A6
00001BB6  4E75                     rts
fn00001BB8:
00001BB8  4E56 0000                link       A6, 0
00001BBC  48E7 0118                movem.l    -[A7], D7,A3,A4
00001BC0  286E 0008                movea.l    A4, [A6 + 0x8]
00001BC4  7E00                     moveq.l    D7, 0x00
00001BC6  206E 001C                movea.l    A0, [A6 + 0x1C]
00001BCA  4250                     clr.w      [A0]
00001BCC  206E 0020                movea.l    A0, [A6 + 0x20]
00001BD0  4210                     clr.b      [A0]
00001BD2  4A2C 0240                tst.b      [A4 + 0x240]
00001BD6  6700 015C                beq        +0x15E /* 00001D34 */
00001BDA  396E 000E 0250           move.w     [A4 + 0x250], [A6 + 0xE]
00001BE0  396E 0012 0256           move.w     [A4 + 0x256], [A6 + 0x12]
00001BE6  206C 024C                movea.l    A0, [A4 + 0x24C]
00001BEA  302C 0250                move.w     D0, [A4 + 0x250]
00001BEE  B050                     cmp.w      D0, [A0]
00001BF0  6E00 013C                bgt        +0x13E /* 00001D2E */
00001BF4  302C 0250                move.w     D0, [A4 + 0x250]
00001BF8  48C0                     ext.l      D0
00001BFA  E780                     asl        D0, 3
00001BFC  322C 0256                move.w     D1, [A4 + 0x256]
00001C00  B270 0806                cmp.w      D1, [A0 + D0 + 0x6]
00001C04  6E00 0120                bgt        +0x122 /* 00001D26 */
00001C08  302C 0250                move.w     D0, [A4 + 0x250]
00001C0C  48C0                     ext.l      D0
00001C0E  206C 024C                movea.l    A0, [A4 + 0x24C]
00001C12  E780                     asl        D0, 3
00001C14  7200                     moveq.l    D1, 0x00
00001C16  3230 0808                move.w     D1, [A0 + D0 + 0x8]
00001C1A  D2AC 024C                add.l      D1, [A4 + 0x24C]
00001C1E  2941 0252                move.l     [A4 + 0x252], D1
00001C22  302C 0256                move.w     D0, [A4 + 0x256]
00001C26  48C0                     ext.l      D0
00001C28  206C 0252                movea.l    A0, [A4 + 0x252]
00001C2C  2200                     move.l     D1, D0
00001C2E  C0FC 000C                mulu.w     D0, 0xC
00001C32  4841                     swap.w     D1
00001C34  C2FC 000C                mulu.w     D1, 0xC
00001C38  4841                     swap.w     D1
00001C3A  4241                     clr.w      D1
00001C3C  D081                     add.l      D0, D1
00001C3E  72FF                     moveq.l    D1, 0xFFFFFFFF
00001C40  B270 0802                cmp.w      D1, [A0 + D0 + 0x2]
00001C44  677E                     beq        +0x80 /* 00001CC4 */
00001C46  302C 0256                move.w     D0, [A4 + 0x256]
00001C4A  48C0                     ext.l      D0
00001C4C  206C 0252                movea.l    A0, [A4 + 0x252]
00001C50  2200                     move.l     D1, D0
00001C52  C0FC 000C                mulu.w     D0, 0xC
00001C56  4841                     swap.w     D1
00001C58  C2FC 000C                mulu.w     D1, 0xC
00001C5C  4841                     swap.w     D1
00001C5E  4241                     clr.w      D1
00001C60  D081                     add.l      D0, D1
00001C62  226C 0244                movea.l    A1, [A4 + 0x244]
00001C66  7200                     moveq.l    D1, 0x00
00001C68  3229 001A                move.w     D1, [A1 + 0x1A]
00001C6C  242C 013E                move.l     D2, [A4 + 0x13E]
00001C70  9481                     sub.l      D2, D1
00001C72  3030 0802                move.w     D0, [A0 + D0 + 0x2]
00001C76  48C0                     ext.l      D0
00001C78  B480                     cmp.l      D2, D0
00001C7A  6548                     bcs        +0x4A /* 00001CC4 */
00001C7C  266C 0248                movea.l    A3, [A4 + 0x248]
00001C80  302C 0256                move.w     D0, [A4 + 0x256]
00001C84  48C0                     ext.l      D0
00001C86  206C 0252                movea.l    A0, [A4 + 0x252]
00001C8A  2200                     move.l     D1, D0
00001C8C  C0FC 000C                mulu.w     D0, 0xC
00001C90  4841                     swap.w     D1
00001C92  C2FC 000C                mulu.w     D1, 0xC
00001C96  4841                     swap.w     D1
00001C98  4241                     clr.w      D1
00001C9A  D081                     add.l      D0, D1
00001C9C  D6F0 0802                add.w      A3, [A0 + D0 + 0x2]
00001CA0  7000                     moveq.l    D0, 0x00
00001CA2  1013                     move.b     D0, [A3]
00001CA4  0C40 0100                cmpi.w     D0, 0x100
00001CA8  641A                     bcc        +0x1C /* 00001CC4 */
00001CAA  4247                     clr.w      D7
00001CAC  600E                     bra        +0x10 /* 00001CBC */
label00001CAE:
00001CAE  206E 0020                movea.l    A0, [A6 + 0x20]
00001CB2  11B3 7000 7000           move.b     [A0 + D7.w], [A3 + D7.w]
00001CB8  3007                     move.w     D0, D7
00001CBA  5247                     addq.w     D7, 1
label00001CBC:
00001CBC  7000                     moveq.l    D0, 0x00
00001CBE  1013                     move.b     D0, [A3]
00001CC0  B047                     cmp.w      D0, D7
00001CC2  6CEA                     bge        -0x14 /* 00001CAE */
label00001CC4:
00001CC4  302C 0256                move.w     D0, [A4 + 0x256]
00001CC8  48C0                     ext.l      D0
00001CCA  206C 0252                movea.l    A0, [A4 + 0x252]
00001CCE  2200                     move.l     D1, D0
00001CD0  C0FC 000C                mulu.w     D0, 0xC
00001CD4  4841                     swap.w     D1
00001CD6  C2FC 000C                mulu.w     D1, 0xC
00001CDA  4841                     swap.w     D1
00001CDC  4241                     clr.w      D1
00001CDE  D081                     add.l      D0, D1
00001CE0  7200                     moveq.l    D1, 0x00
00001CE2  1230 0804                move.b     D1, [A0 + D0 + 0x4]
00001CE6  206E 001C                movea.l    A0, [A6 + 0x1C]
00001CEA  3081                     move.w     [A0], D1
00001CEC  302C 0250                move.w     D0, [A4 + 0x250]
00001CF0  48C0                     ext.l      D0
00001CF2  206C 024C                movea.l    A0, [A4 + 0x24C]
00001CF6  E780                     asl        D0, 3
00001CF8  226E 0014                movea.l    A1, [A6 + 0x14]
00001CFC  22B0 0802                move.l     [A1], [A0 + D0 + 0x2]
00001D00  302C 0256                move.w     D0, [A4 + 0x256]
00001D04  48C0                     ext.l      D0
00001D06  206C 0252                movea.l    A0, [A4 + 0x252]
00001D0A  2200                     move.l     D1, D0
00001D0C  C0FC 000C                mulu.w     D0, 0xC
00001D10  4841                     swap.w     D1
00001D12  C2FC 000C                mulu.w     D1, 0xC
00001D16  4841                     swap.w     D1
00001D18  4241                     clr.w      D1
00001D1A  D081                     add.l      D0, D1
00001D1C  226E 0018                movea.l    A1, [A6 + 0x18]
00001D20  32B0 0800                move.w     [A1], [A0 + D0]
00001D24  600E                     bra        +0x10 /* 00001D34 */
label00001D26:
00001D26  397C FFFF 0256           move.w     [A4 + 0x256], 0xFFFF
00001D2C  6006                     bra        +0x8 /* 00001D34 */
label00001D2E:
00001D2E  397C FFFF 0250           move.w     [A4 + 0x250], 0xFFFF
label00001D34:
00001D34  4CEE 1880 FFF4           movem.l    D7,A3,A4, [A6 - 0xC]
00001D3A  4E5E                     unlink     A6
00001D3C  4E75                     rts
fn00001D3E:
00001D3E  4E56 0000                link       A6, 0
00001D42  48E7 0108                movem.l    -[A7], D7,A4
00001D46  286E 0008                movea.l    A4, [A6 + 0x8]
00001D4A  4247                     clr.w      D7
00001D4C  4A2C 0240                tst.b      [A4 + 0x240]
00001D50  6708                     beq        +0xA /* 00001D5A */
00001D52  206C 0244                movea.l    A0, [A4 + 0x244]
00001D56  3E28 0016                move.w     D7, [A0 + 0x16]
label00001D5A:
00001D5A  3007                     move.w     D0, D7
00001D5C  4CEE 1080 FFF8           movem.l    D7,A4, [A6 - 0x8]
00001D62  4E5E                     unlink     A6
00001D64  4E75                     rts
fn00001D66:
00001D66  4E56 FBC4                link       A6, -0x043C
00001D6A  48E7 0F18                movem.l    -[A7], D4,D5,D6,D7,A3,A4
00001D6E  286E 0008                movea.l    A4, [A6 + 0x8]
00001D72  7801                     moveq.l    D4, 0x01
00001D74  42AE FBDC                clr.l      [A6 - 0x424]
00001D78  42AE FBE0                clr.l      [A6 - 0x420]
00001D7C  7000                     moveq.l    D0, 0x00
00001D7E  2D40 FBE4                move.l     [A6 - 0x41C], D0
00001D82  2640                     movea.l    A3, D0
00001D84  7001                     moveq.l    D0, 0x01
00001D86  2F00                     move.l     -[A7], D0
00001D88  2F0C                     move.l     -[A7], A4
00001D8A  4EBA EDB4                jsr        [PC - 0x124C /* 00000B40 */]
00001D8E  4A6C 010A                tst.w      [A4 + 0x10A]
00001D92  504F                     addq.w     A7, 8
00001D94  671E                     beq        +0x20 /* 00001DB4 */
00001D96  558F                     subq.l     A7, 2
00001D98  486E FBE8                pea.l      [A6 - 0x418]
00001D9C  486E FBDC                pea.l      [A6 - 0x424]
00001DA0  4EAD 05A2                jsr        [A5 + 0x5A2 /* export_176, CODE:3 @ 000026E4 */]
00001DA4  558F                     subq.l     A7, 2
00001DA6  7000                     moveq.l    D0, 0x00
00001DA8  2F00                     move.l     -[A7], D0
00001DAA  3F2C 010A                move.w     -[A7], [A4 + 0x10A]
00001DAE  4EAD 05AA                jsr        [A5 + 0x5AA /* export_177, CODE:3 @ 00002706 */]
00001DB2  584F                     addq.w     A7, 4
label00001DB4:
00001DB4  558F                     subq.l     A7, 2
00001DB6  4EAD 02DA                jsr        [A5 + 0x2DA /* export_87, CODE:1 @ 00006448 */]
00001DBA  389F                     move.w     [A4], [A7]+
00001DBC  6600 054E                bne        +0x550 /* 0000230C */
00001DC0  42AC 010C                clr.l      [A4 + 0x10C]
00001DC4  4878 0100                push.l     0x100
00001DC8  486C 000A                pea.l      [A4 + 0xA]
00001DCC  486E FCE8                pea.l      [A6 - 0x318]
00001DD0  4EAD 03FA                jsr        [A5 + 0x3FA /* export_123, CODE:3 @ 000008B2 */]
00001DD4  7000                     moveq.l    D0, 0x00
00001DD6  102E FCE8                move.b     D0, [A6 - 0x318]
00001DDA  0C00 0015                cmpi.b     D0, 0x15
00001DDE  4FEF 000C                lea.l      A7, [A7 + 0xC]
00001DE2  630C                     bls        +0xE /* 00001DF0 */
00001DE4  1D7C 0015 FCE8           move.b     [A6 - 0x318], 0x15
00001DEA  1D7C 00C9 FCFD           move.b     [A6 - 0x303], 0xC9
label00001DF0:
00001DF0  487A 0650                pea.l      [PC + 0x650 /* 00002442, value 0x20286461 ' (da', cstring " (damaged)" */]
00001DF4  486E FCE8                pea.l      [A6 - 0x318]
00001DF8  4EAD 04D2                jsr        [A5 + 0x4D2 /* export_150, CODE:3 @ 00002488 */]
00001DFC  588F                     addq.l     A7, 4
00001DFE  2F00                     move.l     -[A7], D0
00001E00  4EAD 03F2                jsr        [A5 + 0x3F2 /* export_122, CODE:3 @ 0000085E */]
00001E04  508F                     addq.l     A7, 8
00001E06  2F00                     move.l     -[A7], D0
00001E08  4EAD 04DA                jsr        [A5 + 0x4DA /* export_151, CODE:3 @ 000024AC */]
00001E0C  700B                     moveq.l    D0, 0x0B
00001E0E  2F00                     move.l     -[A7], D0
00001E10  558F                     subq.l     A7, 2
00001E12  486C 000A                pea.l      [A4 + 0xA]
00001E16  7000                     moveq.l    D0, 0x00
00001E18  3F00                     move.w     -[A7], D0
00001E1A  486E FCE8                pea.l      [A6 - 0x318]
00001E1E  4EAD 05D2                jsr        [A5 + 0x5D2 /* export_182, CODE:3 @ 000027DE */]
00001E22  301F                     move.w     D0, [A7]+
00001E24  48C0                     ext.l      D0
00001E26  2F00                     move.l     -[A7], D0
00001E28  2F0C                     move.l     -[A7], A4
00001E2A  4EBA E9AC                jsr        [PC - 0x1654 /* 000007D8 */]
00001E2E  4878 0100                push.l     0x100
00001E32  486C 000A                pea.l      [A4 + 0xA]
00001E36  486E FEE8                pea.l      [A6 - 0x118]
00001E3A  4EAD 03FA                jsr        [A5 + 0x3FA /* export_123, CODE:3 @ 000008B2 */]
00001E3E  1D7C 0040 FEE9           move.b     [A6 - 0x117], 0x40 /* '@' */
00001E44  486E FEE8                pea.l      [A6 - 0x118]
00001E48  A9B1                     syscall    CreateResFile
00001E4A  700C                     moveq.l    D0, 0x0C
00001E4C  2F00                     move.l     -[A7], D0
00001E4E  558F                     subq.l     A7, 2
00001E50  A9AF                     syscall    ResError
00001E52  301F                     move.w     D0, [A7]+
00001E54  48C0                     ext.l      D0
00001E56  2F00                     move.l     -[A7], D0
00001E58  2F0C                     move.l     -[A7], A4
00001E5A  4EBA E97C                jsr        [PC - 0x1684 /* 000007D8 */]
00001E5E  700B                     moveq.l    D0, 0x0B
00001E60  2F00                     move.l     -[A7], D0
00001E62  558F                     subq.l     A7, 2
00001E64  486E FEE8                pea.l      [A6 - 0x118]
00001E68  7000                     moveq.l    D0, 0x00
00001E6A  3F00                     move.w     -[A7], D0
00001E6C  486C 000A                pea.l      [A4 + 0xA]
00001E70  4EAD 05D2                jsr        [A5 + 0x5D2 /* export_182, CODE:3 @ 000027DE */]
00001E74  301F                     move.w     D0, [A7]+
00001E76  48C0                     ext.l      D0
00001E78  2F00                     move.l     -[A7], D0
00001E7A  2F0C                     move.l     -[A7], A4
00001E7C  4EBA E95A                jsr        [PC - 0x16A6 /* 000007D8 */]
00001E80  558F                     subq.l     A7, 2
00001E82  486E FCE8                pea.l      [A6 - 0x318]
00001E86  7000                     moveq.l    D0, 0x00
00001E88  3F00                     move.w     -[A7], D0
00001E8A  486E FBE0                pea.l      [A6 - 0x420]
00001E8E  4EAD 057A                jsr        [A5 + 0x57A /* export_171, CODE:3 @ 0000260C */]
00001E92  4A5F                     tst.w      [A7]+
00001E94  4FEF 0034                lea.l      A7, [A7 + 0x34]
00001E98  6676                     bne        +0x78 /* 00001F10 */
00001E9A  558F                     subq.l     A7, 2
00001E9C  3F2E FBE0                move.w     -[A7], [A6 - 0x420]
00001EA0  486E FBE4                pea.l      [A6 - 0x41C]
00001EA4  4EAD 05EA                jsr        [A5 + 0x5EA /* export_185, CODE:3 @ 0000286A */]
00001EA8  4AAE FBE4                tst.l      [A6 - 0x41C]
00001EAC  544F                     addq.w     A7, 2
00001EAE  660E                     bne        +0x10 /* 00001EBE */
00001EB0  558F                     subq.l     A7, 2
00001EB2  3F2E FBE0                move.w     -[A7], [A6 - 0x420]
00001EB6  4EAD 0582                jsr        [A5 + 0x582 /* export_172, CODE:3 @ 0000264C */]
00001EBA  544F                     addq.w     A7, 2
00001EBC  6052                     bra        +0x54 /* 00001F10 */
label00001EBE:
00001EBE  558F                     subq.l     A7, 2
00001EC0  486C 000A                pea.l      [A4 + 0xA]
00001EC4  7000                     moveq.l    D0, 0x00
00001EC6  3F00                     move.w     -[A7], D0
00001EC8  2F3C 3F3F 3F3F           move.l     -[A7], 0x3F3F3F3F /* '????' */
00001ECE  2F3C 3F3F 3F3F           move.l     -[A7], 0x3F3F3F3F /* '????' */
00001ED4  4EAD 05BA                jsr        [A5 + 0x5BA /* export_179, CODE:3 @ 00002746 */]
00001ED8  558F                     subq.l     A7, 2
00001EDA  486C 000A                pea.l      [A4 + 0xA]
00001EDE  7000                     moveq.l    D0, 0x00
00001EE0  3F00                     move.w     -[A7], D0
00001EE2  486E FBE2                pea.l      [A6 - 0x41E]
00001EE6  4EAD 057A                jsr        [A5 + 0x57A /* export_171, CODE:3 @ 0000260C */]
00001EEA  558F                     subq.l     A7, 2
00001EEC  3F2E FBE2                move.w     -[A7], [A6 - 0x41E]
00001EF0  486E FBE4                pea.l      [A6 - 0x41C]
00001EF4  4EAD 05E2                jsr        [A5 + 0x5E2 /* export_184, CODE:3 @ 00002844 */]
00001EF8  4A5F                     tst.w      [A7]+
00001EFA  584F                     addq.w     A7, 4
00001EFC  6712                     beq        +0x14 /* 00001F10 */
00001EFE  700C                     moveq.l    D0, 0x0C
00001F00  2F00                     move.l     -[A7], D0
00001F02  72DE                     moveq.l    D1, 0xFFFFFFDE
00001F04  2F01                     move.l     -[A7], D1
00001F06  2F0C                     move.l     -[A7], A4
00001F08  4EBA E8CE                jsr        [PC - 0x1732 /* 000007D8 */]
00001F0C  4FEF 000C                lea.l      A7, [A7 + 0xC]
label00001F10:
00001F10  558F                     subq.l     A7, 2
00001F12  486C 000A                pea.l      [A4 + 0xA]
00001F16  7000                     moveq.l    D0, 0x00
00001F18  3F00                     move.w     -[A7], D0
00001F1A  486E FBDE                pea.l      [A6 - 0x422]
00001F1E  4EAD 05CA                jsr        [A5 + 0x5CA /* export_181, CODE:3 @ 000027A8 */]
00001F22  4A5F                     tst.w      [A7]+
00001F24  663A                     bne        +0x3C /* 00001F60 */
00001F26  558F                     subq.l     A7, 2
00001F28  3F2E FBDE                move.w     -[A7], [A6 - 0x422]
00001F2C  486C 011C                pea.l      [A4 + 0x11C]
00001F30  4EAD 05E2                jsr        [A5 + 0x5E2 /* export_184, CODE:3 @ 00002844 */]
00001F34  4A5F                     tst.w      [A7]+
00001F36  671C                     beq        +0x1E /* 00001F54 */
00001F38  558F                     subq.l     A7, 2
00001F3A  3F2E FBDE                move.w     -[A7], [A6 - 0x422]
00001F3E  4EAD 0582                jsr        [A5 + 0x582 /* export_172, CODE:3 @ 0000264C */]
00001F42  700C                     moveq.l    D0, 0x0C
00001F44  2F00                     move.l     -[A7], D0
00001F46  72DE                     moveq.l    D1, 0xFFFFFFDE
00001F48  2F01                     move.l     -[A7], D1
00001F4A  2F0C                     move.l     -[A7], A4
00001F4C  4EBA E88A                jsr        [PC - 0x1776 /* 000007D8 */]
00001F50  4FEF 000E                lea.l      A7, [A7 + 0xE]
label00001F54:
00001F54  558F                     subq.l     A7, 2
00001F56  3F2E FBDE                move.w     -[A7], [A6 - 0x422]
00001F5A  4EAD 0582                jsr        [A5 + 0x582 /* export_172, CODE:3 @ 0000264C */]
00001F5E  544F                     addq.w     A7, 2
label00001F60:
00001F60  558F                     subq.l     A7, 2
00001F62  486C 000A                pea.l      [A4 + 0xA]
00001F66  A997                     syscall    OpenResFile
00001F68  3D5F FBDE                move.w     [A6 - 0x422], [A7]+
00001F6C  7001                     moveq.l    D0, 0x01
00001F6E  2F00                     move.l     -[A7], D0
00001F70  558F                     subq.l     A7, 2
00001F72  A9AF                     syscall    ResError
00001F74  301F                     move.w     D0, [A7]+
00001F76  48C0                     ext.l      D0
00001F78  2F00                     move.l     -[A7], D0
00001F7A  2F0C                     move.l     -[A7], A4
00001F7C  4EBA E85A                jsr        [PC - 0x17A6 /* 000007D8 */]
00001F80  4246                     clr.w      D6
00001F82  4FEF 000C                lea.l      A7, [A7 + 0xC]
00001F86  6000 0146                bra        +0x148 /* 000020CE */
label00001F8A:
00001F8A  4247                     clr.w      D7
00001F8C  6000 012A                bra        +0x12C /* 000020B8 */
label00001F90:
00001F90  48C7                     ext.l      D7
00001F92  2F07                     move.l     -[A7], D7
00001F94  48C6                     ext.l      D6
00001F96  2F06                     move.l     -[A7], D6
00001F98  2F0C                     move.l     -[A7], A4
00001F9A  4EBA FAFA                jsr        [PC - 0x506 /* 00001A96 */]
00001F9E  2640                     movea.l    A3, D0
00001FA0  200B                     move.l     D0, A3
00001FA2  4FEF 000C                lea.l      A7, [A7 + 0xC]
00001FA6  6700 010C                beq        +0x10E /* 000020B4 */
00001FAA  558F                     subq.l     A7, 2
00001FAC  4EAD 02DA                jsr        [A5 + 0x2DA /* export_87, CODE:1 @ 00006448 */]
00001FB0  3A1F                     move.w     D5, [A7]+
00001FB2  6600 00D2                bne        +0xD4 /* 00002086 */
00001FB6  486E FDE8                pea.l      [A6 - 0x218]
00001FBA  486E FFEE                pea.l      [A6 - 0x12]
00001FBE  486E FFEC                pea.l      [A6 - 0x14]
00001FC2  486E FFE8                pea.l      [A6 - 0x18]
00001FC6  48C7                     ext.l      D7
00001FC8  2F07                     move.l     -[A7], D7
00001FCA  48C6                     ext.l      D6
00001FCC  2F06                     move.l     -[A7], D6
00001FCE  2F0C                     move.l     -[A7], A4
00001FD0  4EBA FBE6                jsr        [PC - 0x41A /* 00001BB8 */]
00001FD4  2F0B                     move.l     -[A7], A3
00001FD6  2F2E FFE8                move.l     -[A7], [A6 - 0x18]
00001FDA  3F2E FFEC                move.w     -[A7], [A6 - 0x14]
00001FDE  486E FDE8                pea.l      [A6 - 0x218]
00001FE2  A9AB                     syscall    AddResource
00001FE4  700D                     moveq.l    D0, 0x0D
00001FE6  2F00                     move.l     -[A7], D0
00001FE8  558F                     subq.l     A7, 2
00001FEA  A9AF                     syscall    ResError
00001FEC  301F                     move.w     D0, [A7]+
00001FEE  48C0                     ext.l      D0
00001FF0  2F00                     move.l     -[A7], D0
00001FF2  2F0C                     move.l     -[A7], A4
00001FF4  4EBA E7E2                jsr        [PC - 0x181E /* 000007D8 */]
00001FF8  2F0B                     move.l     -[A7], A3
00001FFA  A9B0                     syscall    WriteResource
00001FFC  700D                     moveq.l    D0, 0x0D
00001FFE  2F00                     move.l     -[A7], D0
00002000  558F                     subq.l     A7, 2
00002002  A9AF                     syscall    ResError
00002004  301F                     move.w     D0, [A7]+
00002006  48C0                     ext.l      D0
00002008  2F00                     move.l     -[A7], D0
0000200A  2F0C                     move.l     -[A7], A4
0000200C  4EBA E7CA                jsr        [PC - 0x1836 /* 000007D8 */]
00002010  2F0B                     move.l     -[A7], A3
00002012  3F2E FFEE                move.w     -[A7], [A6 - 0x12]
00002016  A9A7                     syscall    SetResAttrs
00002018  700D                     moveq.l    D0, 0x0D
0000201A  2F00                     move.l     -[A7], D0
0000201C  558F                     subq.l     A7, 2
0000201E  A9AF                     syscall    ResError
00002020  301F                     move.w     D0, [A7]+
00002022  48C0                     ext.l      D0
00002024  2F00                     move.l     -[A7], D0
00002026  2F0C                     move.l     -[A7], A4
00002028  4EBA E7AE                jsr        [PC - 0x1852 /* 000007D8 */]
0000202C  2F0B                     move.l     -[A7], A3
0000202E  A9A3                     syscall    ReleaseResource
00002030  7000                     moveq.l    D0, 0x00
00002032  2640                     movea.l    A3, D0
00002034  700D                     moveq.l    D0, 0x0D
00002036  2F00                     move.l     -[A7], D0
00002038  558F                     subq.l     A7, 2
0000203A  A9AF                     syscall    ResError
0000203C  301F                     move.w     D0, [A7]+
0000203E  48C0                     ext.l      D0
00002040  2F00                     move.l     -[A7], D0
00002042  2F0C                     move.l     -[A7], A4
00002044  4EBA E792                jsr        [PC - 0x186E /* 000007D8 */]
00002048  52AC 0118                addq.l     [A4 + 0x118], 1
0000204C  4AAC 0114                tst.l      [A4 + 0x114]
00002050  4FEF 004C                lea.l      A7, [A7 + 0x4C]
00002054  672A                     beq        +0x2C /* 00002080 */
00002056  222C 0118                move.l     D1, [A4 + 0x118]
0000205A  2001                     move.l     D0, D1
0000205C  C2FC 00C8                mulu.w     D1, 0xC8
00002060  4840                     swap.w     D0
00002062  C0FC 00C8                mulu.w     D0, 0xC8
00002066  4840                     swap.w     D0
00002068  4240                     clr.w      D0
0000206A  D280                     add.l      D1, D0
0000206C  2001                     move.l     D0, D1
0000206E  222C 0114                move.l     D1, [A4 + 0x114]
00002072  4EAD 076A                jsr        [A5 + 0x76A /* export_233, CODE:3 @ 0000372A */]
00002076  2F00                     move.l     -[A7], D0
00002078  2F0C                     move.l     -[A7], A4
0000207A  4EBA EBD4                jsr        [PC - 0x142C /* 00000C50 */]
0000207E  504F                     addq.w     A7, 8
label00002080:
00002080  4EAD 02E2                jsr        [A5 + 0x2E2 /* export_88, CODE:1 @ 000064EE */]
00002084  602E                     bra        +0x30 /* 000020B4 */
label00002086:
00002086  3885                     move.w     [A4], D5
00002088  48C7                     ext.l      D7
0000208A  2F07                     move.l     -[A7], D7
0000208C  48C6                     ext.l      D6
0000208E  2F06                     move.l     -[A7], D6
00002090  2F0C                     move.l     -[A7], A4
00002092  4EBA F98A                jsr        [PC - 0x676 /* 00001A1E */]
00002096  200B                     move.l     D0, A3
00002098  4FEF 000C                lea.l      A7, [A7 + 0xC]
0000209C  6708                     beq        +0xA /* 000020A6 */
0000209E  204B                     movea.l    A0, A3
000020A0  A023                     syscall    DisposHandle/DisposeHandle
000020A2  7000                     moveq.l    D0, 0x00
000020A4  2640                     movea.l    A3, D0
label000020A6:
000020A6  0C54 0400                cmpi.w     [A4], 0x400
000020AA  6608                     bne        +0xA /* 000020B4 */
000020AC  3F3C 0400                move.w     -[A7], 0x400
000020B0  4EAD 02EA                jsr        [A5 + 0x2EA /* export_89, CODE:1 @ 00006522 */]
label000020B4:
000020B4  3007                     move.w     D0, D7
000020B6  5247                     addq.w     D7, 1
label000020B8:
000020B8  48C6                     ext.l      D6
000020BA  2F06                     move.l     -[A7], D6
000020BC  2F0C                     move.l     -[A7], A4
000020BE  4EBA F918                jsr        [PC - 0x6E8 /* 000019D8 */]
000020C2  B047                     cmp.w      D0, D7
000020C4  504F                     addq.w     A7, 8
000020C6  6C00 FEC8                bge        -0x136 /* 00001F90 */
000020CA  3006                     move.w     D0, D6
000020CC  5246                     addq.w     D6, 1
label000020CE:
000020CE  2F0C                     move.l     -[A7], A4
000020D0  4EBA F8E0                jsr        [PC - 0x720 /* 000019B2 */]
000020D4  B046                     cmp.w      D0, D6
000020D6  584F                     addq.w     A7, 4
000020D8  6C00 FEB0                bge        -0x14E /* 00001F8A */
000020DC  202C 0114                move.l     D0, [A4 + 0x114]
000020E0  7202                     moveq.l    D1, 0x02
000020E2  4EAD 076A                jsr        [A5 + 0x76A /* export_233, CODE:3 @ 0000372A */]
000020E6  B0AC 0118                cmp.l      D0, [A4 + 0x118]
000020EA  6F76                     ble        +0x78 /* 00002162 */
000020EC  487A 0322                pea.l      [PC + 0x322 /* 00002410, value 0x20202020 '    ', pstring "   ### Could not repair all unda" */]
000020F0  2F2C 0006                move.l     -[A7], [A4 + 0x6]
000020F4  4EAD 0412                jsr        [A5 + 0x412 /* export_126, CODE:3 @ 00000B58 */]
000020F8  2D40 FBD0                move.l     [A6 - 0x430], D0
000020FC  47ED 046A                lea.l      A3, [A5 + 0x46A /* export_137, CODE:3 @ 00001CBE */]
00002100  2F2E FBD0                move.l     -[A7], [A6 - 0x430]
00002104  4E93                     jsr        [A3]
00002106  2F2C 0118                move.l     -[A7], [A4 + 0x118]
0000210A  487A 02EC                pea.l      [PC + 0x2EC /* 000023F8, value 0x20202020 '    ', cstring "        recoverCount = " */]
0000210E  2F2C 0006                move.l     -[A7], [A4 + 0x6]
00002112  4EAD 0412                jsr        [A5 + 0x412 /* export_126, CODE:3 @ 00000B58 */]
00002116  508F                     addq.l     A7, 8
00002118  2F00                     move.l     -[A7], D0
0000211A  4EAD 041A                jsr        [A5 + 0x41A /* export_127, CODE:3 @ 00001152 */]
0000211E  2D40 FBD4                move.l     [A6 - 0x42C], D0
00002122  47ED 046A                lea.l      A3, [A5 + 0x46A /* export_137, CODE:3 @ 00001CBE */]
00002126  2F2E FBD4                move.l     -[A7], [A6 - 0x42C]
0000212A  4E93                     jsr        [A3]
0000212C  202C 0114                move.l     D0, [A4 + 0x114]
00002130  7202                     moveq.l    D1, 0x02
00002132  4EAD 076A                jsr        [A5 + 0x76A /* export_233, CODE:3 @ 0000372A */]
00002136  2F00                     move.l     -[A7], D0
00002138  487A 02A6                pea.l      [PC + 0x2A6 /* 000023E0, value 0x20202020 '    ', cstring "        goodCount    = " */]
0000213C  2F2C 0006                move.l     -[A7], [A4 + 0x6]
00002140  4EAD 0412                jsr        [A5 + 0x412 /* export_126, CODE:3 @ 00000B58 */]
00002144  508F                     addq.l     A7, 8
00002146  2F00                     move.l     -[A7], D0
00002148  4EAD 041A                jsr        [A5 + 0x41A /* export_127, CODE:3 @ 00001152 */]
0000214C  2D40 FBD8                move.l     [A6 - 0x428], D0
00002150  47ED 046A                lea.l      A3, [A5 + 0x46A /* export_137, CODE:3 @ 00001CBE */]
00002154  2F2E FBD8                move.l     -[A7], [A6 - 0x428]
00002158  4E93                     jsr        [A3]
0000215A  4FEF 0024                lea.l      A7, [A7 + 0x24]
0000215E  6000 0084                bra        +0x86 /* 000021E4 */
label00002162:
00002162  202C 0114                move.l     D0, [A4 + 0x114]
00002166  7202                     moveq.l    D1, 0x02
00002168  4EAD 076A                jsr        [A5 + 0x76A /* export_233, CODE:3 @ 0000372A */]
0000216C  B0AC 0118                cmp.l      D0, [A4 + 0x118]
00002170  6C72                     bge        +0x74 /* 000021E4 */
00002172  487A 0246                pea.l      [PC + 0x246 /* 000023BA, value 0x20202020 '    ', pstring "   ### Too many resources repair" */]
00002176  2F2C 0006                move.l     -[A7], [A4 + 0x6]
0000217A  4EAD 0412                jsr        [A5 + 0x412 /* export_126, CODE:3 @ 00000B58 */]
0000217E  2D40 FBC4                move.l     [A6 - 0x43C], D0
00002182  47ED 046A                lea.l      A3, [A5 + 0x46A /* export_137, CODE:3 @ 00001CBE */]
00002186  2F2E FBC4                move.l     -[A7], [A6 - 0x43C]
0000218A  4E93                     jsr        [A3]
0000218C  2F2C 0118                move.l     -[A7], [A4 + 0x118]
00002190  487A 0210                pea.l      [PC + 0x210 /* 000023A2, value 0x20202020 '    ', cstring "        recoverCount = " */]
00002194  2F2C 0006                move.l     -[A7], [A4 + 0x6]
00002198  4EAD 0412                jsr        [A5 + 0x412 /* export_126, CODE:3 @ 00000B58 */]
0000219C  508F                     addq.l     A7, 8
0000219E  2F00                     move.l     -[A7], D0
000021A0  4EAD 041A                jsr        [A5 + 0x41A /* export_127, CODE:3 @ 00001152 */]
000021A4  2D40 FBC8                move.l     [A6 - 0x438], D0
000021A8  47ED 046A                lea.l      A3, [A5 + 0x46A /* export_137, CODE:3 @ 00001CBE */]
000021AC  2F2E FBC8                move.l     -[A7], [A6 - 0x438]
000021B0  4E93                     jsr        [A3]
000021B2  202C 0114                move.l     D0, [A4 + 0x114]
000021B6  7202                     moveq.l    D1, 0x02
000021B8  4EAD 076A                jsr        [A5 + 0x76A /* export_233, CODE:3 @ 0000372A */]
000021BC  2F00                     move.l     -[A7], D0
000021BE  487A 01CA                pea.l      [PC + 0x1CA /* 0000238A, value 0x20202020 '    ', cstring "        goodCount    = " */]
000021C2  2F2C 0006                move.l     -[A7], [A4 + 0x6]
000021C6  4EAD 0412                jsr        [A5 + 0x412 /* export_126, CODE:3 @ 00000B58 */]
000021CA  508F                     addq.l     A7, 8
000021CC  2F00                     move.l     -[A7], D0
000021CE  4EAD 041A                jsr        [A5 + 0x41A /* export_127, CODE:3 @ 00001152 */]
000021D2  2D40 FBCC                move.l     [A6 - 0x434], D0
000021D6  47ED 046A                lea.l      A3, [A5 + 0x46A /* export_137, CODE:3 @ 00001CBE */]
000021DA  2F2E FBCC                move.l     -[A7], [A6 - 0x434]
000021DE  4E93                     jsr        [A3]
000021E0  4FEF 0024                lea.l      A7, [A7 + 0x24]
label000021E4:
000021E4  2F0C                     move.l     -[A7], A4
000021E6  4EBA FB56                jsr        [PC - 0x4AA /* 00001D3E */]
000021EA  3C00                     move.w     D6, D0
000021EC  3F2E FBDE                move.w     -[A7], [A6 - 0x422]
000021F0  7020                     moveq.l    D0, 0x20
000021F2  8046                     or.w       D0, D6
000021F4  7240                     moveq.l    D1, 0x40
000021F6  8240                     or.w       D1, D0
000021F8  3F01                     move.w     -[A7], D1
000021FA  A9F7                     syscall    SetResFileAttrs
000021FC  3F2E FBDE                move.w     -[A7], [A6 - 0x422]
00002200  A999                     syscall    UpdateResFile
00002202  7009                     moveq.l    D0, 0x09
00002204  2F00                     move.l     -[A7], D0
00002206  558F                     subq.l     A7, 2
00002208  A9AF                     syscall    ResError
0000220A  301F                     move.w     D0, [A7]+
0000220C  48C0                     ext.l      D0
0000220E  2F00                     move.l     -[A7], D0
00002210  2F0C                     move.l     -[A7], A4
00002212  4EBA E5C4                jsr        [PC - 0x1A3C /* 000007D8 */]
00002216  422C 0005                clr.b      [A4 + 0x5]
0000221A  3F2E FBDE                move.w     -[A7], [A6 - 0x422]
0000221E  A99A                     syscall    CloseResFile
00002220  4EAD 0222                jsr        [A5 + 0x222 /* export_64, CODE:1 @ 0000588C */]
00002224  7002                     moveq.l    D0, 0x02
00002226  2F00                     move.l     -[A7], D0
00002228  558F                     subq.l     A7, 2
0000222A  A9AF                     syscall    ResError
0000222C  301F                     move.w     D0, [A7]+
0000222E  48C0                     ext.l      D0
00002230  2F00                     move.l     -[A7], D0
00002232  2F0C                     move.l     -[A7], A4
00002234  4EBA E5A2                jsr        [PC - 0x1A5E /* 000007D8 */]
00002238  558F                     subq.l     A7, 2
0000223A  486E FCE8                pea.l      [A6 - 0x318]
0000223E  3F2C 010A                move.w     -[A7], [A4 + 0x10A]
00002242  486E FFF0                pea.l      [A6 - 0x10]
00002246  4EAD 059A                jsr        [A5 + 0x59A /* export_175, CODE:3 @ 000026AE */]
0000224A  066E 0014 FFFA           addi.w     [A6 - 0x6], 0x14
00002250  066E 0014 FFFC           addi.w     [A6 - 0x4], 0x14
00002256  558F                     subq.l     A7, 2
00002258  486C 000A                pea.l      [A4 + 0xA]
0000225C  3F2C 010A                move.w     -[A7], [A4 + 0x10A]
00002260  486E FFF0                pea.l      [A6 - 0x10]
00002264  4EAD 05DA                jsr        [A5 + 0x5DA /* export_183, CODE:3 @ 0000280A */]
00002268  4AAE FBE4                tst.l      [A6 - 0x41C]
0000226C  4FEF 0020                lea.l      A7, [A7 + 0x20]
00002270  6F7E                     ble        +0x80 /* 000022F0 */
00002272  558F                     subq.l     A7, 2
00002274  3F2E FBE0                move.w     -[A7], [A6 - 0x420]
00002278  7001                     moveq.l    D0, 0x01
0000227A  3F00                     move.w     -[A7], D0
0000227C  7200                     moveq.l    D1, 0x00
0000227E  2F01                     move.l     -[A7], D1
00002280  4EAD 05FA                jsr        [A5 + 0x5FA /* export_187, CODE:3 @ 000028AC */]
00002284  558F                     subq.l     A7, 2
00002286  3F2E FBE2                move.w     -[A7], [A6 - 0x41E]
0000228A  7001                     moveq.l    D0, 0x01
0000228C  3F00                     move.w     -[A7], D0
0000228E  7200                     moveq.l    D1, 0x00
00002290  2F01                     move.l     -[A7], D1
00002292  4EAD 05FA                jsr        [A5 + 0x5FA /* export_187, CODE:3 @ 000028AC */]
00002296  41EE FBD4                lea.l      A0, [A6 - 0x42C]
0000229A  2248                     movea.l    A1, A0
0000229C  A11D                     syscall    MaxMem, flags=1
0000229E  2288                     move.l     [A1], A0
000022A0  2D40 FBD8                move.l     [A6 - 0x428], D0
000022A4  A11E                     syscall    NewPtr, flags=1
000022A6  2648                     movea.l    A3, A0
000022A8  200B                     move.l     D0, A3
000022AA  584F                     addq.w     A7, 4
000022AC  6742                     beq        +0x44 /* 000022F0 */
label000022AE:
000022AE  558F                     subq.l     A7, 2
000022B0  3F2E FBE0                move.w     -[A7], [A6 - 0x420]
000022B4  486E FBD8                pea.l      [A6 - 0x428]
000022B8  2F0B                     move.l     -[A7], A3
000022BA  4EAD 058A                jsr        [A5 + 0x58A /* export_173, CODE:3 @ 00002666 */]
000022BE  3A1F                     move.w     D5, [A7]+
000022C0  558F                     subq.l     A7, 2
000022C2  3F2E FBE2                move.w     -[A7], [A6 - 0x41E]
000022C6  486E FBD8                pea.l      [A6 - 0x428]
000022CA  2F0B                     move.l     -[A7], A3
000022CC  4EAD 0592                jsr        [A5 + 0x592 /* export_174, CODE:3 @ 0000266A */]
000022D0  544F                     addq.w     A7, 2
000022D2  4A45                     tst.w      D5
000022D4  66D8                     bne        -0x26 /* 000022AE */
000022D6  204B                     movea.l    A0, A3
000022D8  A01F                     syscall    DisposPtr/DisposePtr
000022DA  558F                     subq.l     A7, 2
000022DC  3F2E FBE0                move.w     -[A7], [A6 - 0x420]
000022E0  4EAD 0582                jsr        [A5 + 0x582 /* export_172, CODE:3 @ 0000264C */]
000022E4  558F                     subq.l     A7, 2
000022E6  3F2E FBE2                move.w     -[A7], [A6 - 0x41E]
000022EA  4EAD 0582                jsr        [A5 + 0x582 /* export_172, CODE:3 @ 0000264C */]
000022EE  584F                     addq.w     A7, 4
label000022F0:
000022F0  700A                     moveq.l    D0, 0x0A
000022F2  2F00                     move.l     -[A7], D0
000022F4  4878 07D1                push.l     0x7D1
000022F8  2F0C                     move.l     -[A7], A4
000022FA  4EBA E4DC                jsr        [PC - 0x1B24 /* 000007D8 */]
000022FE  422C 0005                clr.b      [A4 + 0x5]
00002302  4EAD 02E2                jsr        [A5 + 0x2E2 /* export_88, CODE:1 @ 000064EE */]
00002306  4FEF 000C                lea.l      A7, [A7 + 0xC]
0000230A  6054                     bra        +0x56 /* 00002360 */
label0000230C:
0000230C  4204                     clr.b      D4
0000230E  4A6E FBE2                tst.w      [A6 - 0x41E]
00002312  670C                     beq        +0xE /* 00002320 */
00002314  558F                     subq.l     A7, 2
00002316  3F2E FBE2                move.w     -[A7], [A6 - 0x41E]
0000231A  4EAD 0582                jsr        [A5 + 0x582 /* export_172, CODE:3 @ 0000264C */]
0000231E  544F                     addq.w     A7, 2
label00002320:
00002320  4A6E FBE0                tst.w      [A6 - 0x420]
00002324  670C                     beq        +0xE /* 00002332 */
00002326  558F                     subq.l     A7, 2
00002328  3F2E FBE0                move.w     -[A7], [A6 - 0x420]
0000232C  4EAD 0582                jsr        [A5 + 0x582 /* export_172, CODE:3 @ 0000264C */]
00002330  544F                     addq.w     A7, 2
label00002332:
00002332  4A6E FBDE                tst.w      [A6 - 0x422]
00002336  6706                     beq        +0x8 /* 0000233E */
00002338  3F2E FBDE                move.w     -[A7], [A6 - 0x422]
0000233C  A99A                     syscall    CloseResFile
label0000233E:
0000233E  558F                     subq.l     A7, 2
00002340  486C 000A                pea.l      [A4 + 0xA]
00002344  7000                     moveq.l    D0, 0x00
00002346  3F00                     move.w     -[A7], D0
00002348  4EAD 05C2                jsr        [A5 + 0x5C2 /* export_180, CODE:3 @ 00002784 */]
0000234C  558F                     subq.l     A7, 2
0000234E  486E FCE8                pea.l      [A6 - 0x318]
00002352  7000                     moveq.l    D0, 0x00
00002354  3F00                     move.w     -[A7], D0
00002356  486C 000A                pea.l      [A4 + 0xA]
0000235A  4EAD 05D2                jsr        [A5 + 0x5D2 /* export_182, CODE:3 @ 000027DE */]
0000235E  584F                     addq.w     A7, 4
label00002360:
00002360  4A6E FBDC                tst.w      [A6 - 0x424]
00002364  6710                     beq        +0x12 /* 00002376 */
00002366  558F                     subq.l     A7, 2
00002368  7000                     moveq.l    D0, 0x00
0000236A  2F00                     move.l     -[A7], D0
0000236C  3F2E FBDC                move.w     -[A7], [A6 - 0x424]
00002370  4EAD 05AA                jsr        [A5 + 0x5AA /* export_177, CODE:3 @ 00002706 */]
00002374  544F                     addq.w     A7, 2
label00002376:
00002376  2F0C                     move.l     -[A7], A4
00002378  4EBA EA32                jsr        [PC - 0x15CE /* 00000DAC */]
0000237C  1004                     move.b     D0, D4
0000237E  584F                     addq.w     A7, 4
00002380  4CEE 18F0 FBAC           movem.l    D4,D5,D6,D7,A3,A4, [A6 - 0x454]
00002386  4E5E                     unlink     A6
00002388  4E75                     rts
0000238A  2020 2020 2020 2020      dc.b       "        "
00002392  676F                     beq        +0x71 /* 00002403 */
00002394  6F64                     ble        +0x66 /* 000023FA */
00002396  436F 756E                chk.w      D1, [A7 + 0x756E]
0000239A  7420                     moveq.l    D2, 0x20
0000239C  2020                     move.l     D0, -[A0]
0000239E  203D                     move.l     D0, <<invalid special address>>
000023A0  2000                     move.l     D0, D0
000023A2  2020                     move.l     D0, -[A0]
000023A4  2020                     move.l     D0, -[A0]
000023A6  2020                     move.l     D0, -[A0]
000023A8  2020                     move.l     D0, -[A0]
000023AA  7265                     moveq.l    D1, 0x65
000023AC  636F                     bls        +0x71 /* 0000241D */
000023AE  7665                     moveq.l    D3, 0x65
000023B0  7243                     moveq.l    D1, 0x43
000023B2  6F75                     ble        +0x77 /* 00002429 */
000023B4  6E74                     bgt        +0x76 /* 0000242A */
000023B6  203D                     move.l     D0, <<invalid special address>>
000023B8  2000                     move.l     D0, D0
000023BA  2020                     move.l     D0, -[A0]
000023BC  2020                     move.l     D0, -[A0]
000023BE  2323                     move.l     -[A1], -[A3]
000023C0  2320                     move.l     -[A1], -[A0]
000023C2  546F 6F20                addq.w     [A7 + 0x6F20], 2
000023C6  6D61                     blt        +0x63 /* 00002429 */
000023C8  6E79                     bgt        +0x7B /* 00002443 */
000023CA  2072 6573 6F75 7263 6... movea.l    A0, [[A2 + 0x6F757263] + 0x65732072]
000023D6  6570                     bcs        +0x72 /* 00002448 */
000023D8  6169                     bsr        +0x6B /* 00002443 */
000023DA  7265                     moveq.l    D1, 0x65
000023DC  643A                     bcc        +0x3C /* 00002418 */
000023DE  0000 2020                ori.b      D0, 0x20 /* ' ' */
000023E2  2020                     move.l     D0, -[A0]
000023E4  2020                     move.l     D0, -[A0]
000023E6  2020                     move.l     D0, -[A0]
000023E8  676F                     beq        +0x71 /* 00002459 */
000023EA  6F64                     ble        +0x66 /* 00002450 */
000023EC  436F 756E                chk.w      D1, [A7 + 0x756E]
000023F0  7420                     moveq.l    D2, 0x20
000023F2  2020                     move.l     D0, -[A0]
000023F4  203D                     move.l     D0, <<invalid special address>>
000023F6  2000                     move.l     D0, D0
000023F8  2020                     move.l     D0, -[A0]
label000023FA:
000023FA  2020                     move.l     D0, -[A0]
000023FC  2020                     move.l     D0, -[A0]
000023FE  2020                     move.l     D0, -[A0]
00002400  7265                     moveq.l    D1, 0x65
00002402  636F                     bls        +0x71 /* 00002473 */
00002404  7665                     moveq.l    D3, 0x65
00002406  7243                     moveq.l    D1, 0x43
00002408  6F75                     ble        +0x77 /* 0000247F */
0000240A  6E74                     bgt        +0x76 /* 00002480 */
0000240C  203D                     move.l     D0, <<invalid special address>>
0000240E  2000                     move.l     D0, D0
00002410  2020                     move.l     D0, -[A0]
00002412  2020                     move.l     D0, -[A0]
00002414  2323                     move.l     -[A1], -[A3]
00002416  2320                     move.l     -[A1], -[A0]
label00002418:
00002418  436F 756C                chk.w      D1, [A7 + 0x756C]
0000241C  6420                     bcc        +0x22 /* 0000243E */
0000241E  6E6F                     bgt        +0x71 /* 0000248F */
00002420  7420                     moveq.l    D2, 0x20
00002422  7265                     moveq.l    D1, 0x65
00002424  7061                     moveq.l    D0, 0x61
00002426  6972                     bvs        +0x74 /* 0000249A */
00002428  2061                     movea.l    A0, -[A1]
label0000242A:
0000242A  6C6C                     bge        +0x6E /* 00002498 */
0000242C  2075 6E64                movea.l    A0, [A5 + D6 * 8 + 0x64]
00002430  616D                     bsr        +0x6F /* 0000249F */
00002432  6167                     bsr        +0x69 /* 0000249B */
00002434  6564                     bcs        +0x66 /* 0000249A */
00002436  2072 6573 6F75 7263 6... movea.l    A0, [[A2 + 0x6F757263] + 0x65733A00]
// begin alternate branch 0000243E-00002442
label0000243E:
0000243E  6573                     bcs        +0x75 /* 000024B3 */
00002440  3A00                     move.w     D5, D0
// end alternate branch 0000243E-00002442
label0000243E: // (misaligned)
00002442  2028 6461                move.l     D0, [A0 + 0x6461]
00002446  6D61                     blt        +0x63 /* 000024A9 */
label00002448:
00002448  6765                     beq        +0x67 /* 000024AF */
0000244A  6429                     bcc        +0x2B /* 00002475 */
0000244C  0000 4E56                ori.b      D0, 0x56 /* 'V' */
// begin alternate branch 0000244E-00002456
fn0000244E:
0000244E  4E56 FEFE                link       A6, -0x0102
label00002450: // (misaligned)
00002452  48E7 0318                movem.l    -[A7], D6,D7,A3,A4
// end alternate branch 0000244E-00002456
fn0000244E: // (misaligned)
label00002450:
00002450  FEFE 48E7                .extension 0xEFE <<F/2-3/7>> // unimplemented
00002454  0318                     btst       [A0]+, D1
00002456  47EE FF00                lea.l      A3, [A6 - 0x100]
0000245A  286E 0008                movea.l    A4, [A6 + 0x8]
0000245E  426E FEFE                clr.w      [A6 - 0x102]
00002462  4247                     clr.w      D7
00002464  4246                     clr.w      D6
00002466  558F                     subq.l     A7, 2
00002468  4EAD 02DA                jsr        [A5 + 0x2DA /* export_87, CODE:1 @ 00006448 */]
0000246C  389F                     move.w     [A4], [A7]+
0000246E  6600 00D0                bne        +0xD2 /* 00002540 */
00002472  2F0C                     move.l     -[A7], A4
00002474  4EBA EB54                jsr        [PC - 0x14AC /* 00000FCA */]
00002478  4A6C 010A                tst.w      [A4 + 0x10A]
0000247C  584F                     addq.w     A7, 4
0000247E  671C                     beq        +0x1E /* 0000249C */
label00002480:
00002480  558F                     subq.l     A7, 2
00002482  2F0B                     move.l     -[A7], A3
00002484  486E FEFE                pea.l      [A6 - 0x102]
00002488  4EAD 05A2                jsr        [A5 + 0x5A2 /* export_176, CODE:3 @ 000026E4 */]
0000248C  558F                     subq.l     A7, 2
0000248E  7000                     moveq.l    D0, 0x00
00002490  2F00                     move.l     -[A7], D0
00002492  3F2C 010A                move.w     -[A7], [A4 + 0x10A]
00002496  4EAD 05AA                jsr        [A5 + 0x5AA /* export_177, CODE:3 @ 00002706 */]
// begin alternate branch 00002498-0000249C
label00002498:
00002498  05AA 584F                bclr       [A2 + 0x584F], D2
// end alternate branch 00002498-0000249C
label00002498: // (misaligned)
label0000249A:
0000249A  584F                     addq.w     A7, 4
label0000249C:
0000249C  422C 0005                clr.b      [A4 + 0x5]
000024A0  558F                     subq.l     A7, 2
000024A2  486C 000A                pea.l      [A4 + 0xA]
000024A6  A997                     syscall    OpenResFile
000024A8  3E1F                     move.w     D7, [A7]+
000024AA  7001                     moveq.l    D0, 0x01
000024AC  2F00                     move.l     -[A7], D0
000024AE  558F                     subq.l     A7, 2
000024B0  A9AF                     syscall    ResError
000024B2  301F                     move.w     D0, [A7]+
000024B4  48C0                     ext.l      D0
000024B6  2F00                     move.l     -[A7], D0
000024B8  2F0C                     move.l     -[A7], A4
000024BA  4EBA E31C                jsr        [PC - 0x1CE4 /* 000007D8 */]
000024BE  558F                     subq.l     A7, 2
000024C0  3F07                     move.w     -[A7], D7
000024C2  A9F6                     syscall    GetResFileAttrs
000024C4  3C1F                     move.w     D6, [A7]+
000024C6  3F07                     move.w     -[A7], D7
000024C8  7020                     moveq.l    D0, 0x20
000024CA  8046                     or.w       D0, D6
000024CC  7240                     moveq.l    D1, 0x40
000024CE  8240                     or.w       D1, D0
000024D0  3F01                     move.w     -[A7], D1
000024D2  A9F7                     syscall    SetResFileAttrs
000024D4  3F07                     move.w     -[A7], D7
000024D6  A999                     syscall    UpdateResFile
000024D8  7009                     moveq.l    D0, 0x09
000024DA  2F00                     move.l     -[A7], D0
000024DC  558F                     subq.l     A7, 2
000024DE  A9AF                     syscall    ResError
000024E0  301F                     move.w     D0, [A7]+
000024E2  48C0                     ext.l      D0
000024E4  2F00                     move.l     -[A7], D0
000024E6  2F0C                     move.l     -[A7], A4
000024E8  4EBA E2EE                jsr        [PC - 0x1D12 /* 000007D8 */]
000024EC  422C 0005                clr.b      [A4 + 0x5]
000024F0  3F07                     move.w     -[A7], D7
000024F2  A99A                     syscall    CloseResFile
000024F4  7002                     moveq.l    D0, 0x02
000024F6  2F00                     move.l     -[A7], D0
000024F8  558F                     subq.l     A7, 2
000024FA  A9AF                     syscall    ResError
000024FC  301F                     move.w     D0, [A7]+
000024FE  48C0                     ext.l      D0
00002500  2F00                     move.l     -[A7], D0
00002502  2F0C                     move.l     -[A7], A4
00002504  4EBA E2D2                jsr        [PC - 0x1D2E /* 000007D8 */]
00002508  4A6E FEFE                tst.w      [A6 - 0x102]
0000250C  4FEF 0024                lea.l      A7, [A7 + 0x24]
00002510  6710                     beq        +0x12 /* 00002522 */
00002512  558F                     subq.l     A7, 2
00002514  7000                     moveq.l    D0, 0x00
00002516  2F00                     move.l     -[A7], D0
00002518  3F2E FEFE                move.w     -[A7], [A6 - 0x102]
0000251C  4EAD 05AA                jsr        [A5 + 0x5AA /* export_177, CODE:3 @ 00002706 */]
00002520  544F                     addq.w     A7, 2
label00002522:
00002522  302C 010A                move.w     D0, [A4 + 0x10A]
00002526  48C0                     ext.l      D0
00002528  2F00                     move.l     -[A7], D0
0000252A  486C 000A                pea.l      [A4 + 0xA]
0000252E  2F0C                     move.l     -[A7], A4
00002530  4EBA E8A4                jsr        [PC - 0x175C /* 00000DD6 */]
00002534  422C 0005                clr.b      [A4 + 0x5]
00002538  4EAD 02E2                jsr        [A5 + 0x2E2 /* export_88, CODE:1 @ 000064EE */]
0000253C  4FEF 000C                lea.l      A7, [A7 + 0xC]
label00002540:
00002540  4CEE 18C0 FEEE           movem.l    D6,D7,A3,A4, [A6 - 0x112]
00002546  4E5E                     unlink     A6
00002548  4E75                     rts
fn0000254A:
0000254A  4E56 0000                link       A6, 0
0000254E  48E7 1008                movem.l    -[A7], D3,A4
00002552  286E 0008                movea.l    A4, [A6 + 0x8]
00002556  7600                     moveq.l    D3, 0x00
00002558  4A2C 0241                tst.b      [A4 + 0x241]
0000255C  670E                     beq        +0x10 /* 0000256C */
0000255E  4A2C 0233                tst.b      [A4 + 0x233]
00002562  6608                     bne        +0xA /* 0000256C */
00002564  4A2C 0235                tst.b      [A4 + 0x235]
00002568  6602                     bne        +0x4 /* 0000256C */
0000256A  7601                     moveq.l    D3, 0x01
label0000256C:
0000256C  1003                     move.b     D0, D3
0000256E  4CEE 1008 FFF8           movem.l    D3,A4, [A6 - 0x8]
00002574  4E5E                     unlink     A6
00002576  4E75                     rts
fn00002578:
00002578  4E56 FFEC                link       A6, -0x0014
0000257C  48E7 0108                movem.l    -[A7], D7,A4
00002580  3E2E 0008                move.w     D7, [A6 + 0x8]
00002584  486E FFEC                pea.l      [A6 - 0x14]
00002588  A874                     syscall    GetPort
0000258A  70FF                     moveq.l    D0, 0xFFFFFFFF
0000258C  3F00                     move.w     -[A7], D0
0000258E  4EAD 0182                jsr        [A5 + 0x182 /* export_44, CODE:1 @ 00003B34 */]
00002592  2F3C 444C 4F47           move.l     -[A7], 0x444C4F47 /* 'DLOG' */
00002598  3F07                     move.w     -[A7], D7
0000259A  4EAD 01A2                jsr        [A5 + 0x1A2 /* export_48, CODE:1 @ 0000434E */]
0000259E  598F                     subq.l     A7, 4
000025A0  3F07                     move.w     -[A7], D7
000025A2  7000                     moveq.l    D0, 0x00
000025A4  2F00                     move.l     -[A7], D0
000025A6  72FF                     moveq.l    D1, 0xFFFFFFFF
000025A8  2F01                     move.l     -[A7], D1
000025AA  A97C                     syscall    GetNewDialog
000025AC  2857                     movea.l    A4, [A7]
000025AE  A873                     syscall    SetPort
000025B0  2F0C                     move.l     -[A7], A4
000025B2  A981                     syscall    DrawDialog
000025B4  2F0C                     move.l     -[A7], A4
000025B6  7001                     moveq.l    D0, 0x01
000025B8  3F00                     move.w     -[A7], D0
000025BA  4EAD 030A                jsr        [A5 + 0x30A /* export_93, CODE:2 @ 00000000 */]
000025BE  0C47 00A3                cmpi.w     D7, 0xA3
000025C2  6706                     beq        +0x8 /* 000025CA */
000025C4  0C47 00A4                cmpi.w     D7, 0xA4
000025C8  664A                     bne        +0x4C /* 00002614 */
label000025CA:
000025CA  700F                     moveq.l    D0, 0x0F
000025CC  3F00                     move.w     -[A7], D0
000025CE  A89C                     syscall    PenMode
000025D0  486D FC3C                pea.l      [A5 - 0x3C4]
000025D4  A89D                     syscall    PenPat
000025D6  2F0C                     move.l     -[A7], A4
000025D8  7002                     moveq.l    D0, 0x02
000025DA  3F00                     move.w     -[A7], D0
000025DC  486E FFF2                pea.l      [A6 - 0xE]
000025E0  486E FFF4                pea.l      [A6 - 0xC]
000025E4  486E FFF8                pea.l      [A6 - 0x8]
000025E8  A98D                     syscall    GetDialogItem/GetDItem
000025EA  486E FFF8                pea.l      [A6 - 0x8]
000025EE  A8A2                     syscall    PaintRect
000025F0  A89E                     syscall    PenNormal
000025F2  486E FFF8                pea.l      [A6 - 0x8]
000025F6  3F3C 01F4                move.w     -[A7], 0x1F4
000025FA  7000                     moveq.l    D0, 0x00
000025FC  3F00                     move.w     -[A7], D0
000025FE  A8A8                     syscall    OffsetRect
00002600  2F0C                     move.l     -[A7], A4
00002602  7002                     moveq.l    D0, 0x02
00002604  3F00                     move.w     -[A7], D0
00002606  3F2E FFF2                move.w     -[A7], [A6 - 0xE]
0000260A  2F2E FFF4                move.l     -[A7], [A6 - 0xC]
0000260E  486E FFF8                pea.l      [A6 - 0x8]
00002612  A98E                     syscall    SetDialogItem/SetDItem
label00002614:
00002614  701E                     moveq.l    D0, 0x1E
00002616  3F00                     move.w     -[A7], D0
00002618  A9C8                     syscall    SysBeep
label0000261A:
0000261A  486D 0192                pea.l      [A5 + 0x192 /* export_46, CODE:1 @ 00003D52 */]
0000261E  486E FFF0                pea.l      [A6 - 0x10]
00002622  A991                     syscall    ModalDialog
00002624  7001                     moveq.l    D0, 0x01
00002626  B06E FFF0                cmp.w      D0, [A6 - 0x10]
0000262A  6710                     beq        +0x12 /* 0000263C */
0000262C  7002                     moveq.l    D0, 0x02
0000262E  B06E FFF0                cmp.w      D0, [A6 - 0x10]
00002632  6708                     beq        +0xA /* 0000263C */
00002634  7003                     moveq.l    D0, 0x03
00002636  B06E FFF0                cmp.w      D0, [A6 - 0x10]
0000263A  66DE                     bne        -0x20 /* 0000261A */
label0000263C:
0000263C  7001                     moveq.l    D0, 0x01
0000263E  B06E FFF0                cmp.w      D0, [A6 - 0x10]
00002642  660A                     bne        +0xC /* 0000264E */
00002644  206E 000A                movea.l    A0, [A6 + 0xA]
00002648  10BC 0001                move.b     [A0], 0x1
0000264C  6010                     bra        +0x12 /* 0000265E */
label0000264E:
0000264E  7003                     moveq.l    D0, 0x03
00002650  B06E FFF0                cmp.w      D0, [A6 - 0x10]
00002654  6608                     bne        +0xA /* 0000265E */
00002656  206E 000E                movea.l    A0, [A6 + 0xE]
0000265A  10BC 0001                move.b     [A0], 0x1
label0000265E:
0000265E  2F0C                     move.l     -[A7], A4
00002660  A983                     syscall    DisposeDialog
00002662  2F2E FFEC                move.l     -[A7], [A6 - 0x14]
00002666  A873                     syscall    SetPort
00002668  4CEE 1080 FFE4           movem.l    D7,A4, [A6 - 0x1C]
0000266E  4E5E                     unlink     A6
00002670  205F                     movea.l    A0, [A7]+
00002672  4FEF 000A                lea.l      A7, [A7 + 0xA]
00002676  4ED0                     jmp        [A0]
fn00002678:
00002678  4E56 FCF4                link       A6, -0x030C
0000267C  48E7 1F18                movem.l    -[A7], D3,D4,D5,D6,D7,A3,A4
00002680  47EE FCFC                lea.l      A3, [A6 - 0x304]
00002684  286E 000A                movea.l    A4, [A6 + 0xA]
00002688  7E01                     moveq.l    D7, 0x01
0000268A  7A01                     moveq.l    D5, 0x01
0000268C  7C01                     moveq.l    D6, 0x01
0000268E  1D7C 0001 FFFC           move.b     [A6 - 0x4], 0x1
00002694  422E FFFD                clr.b      [A6 - 0x3]
00002698  4204                     clr.b      D4
0000269A  426E FFFE                clr.w      [A6 - 0x2]
0000269E  4A2E 0008                tst.b      [A6 + 0x8]
000026A2  670E                     beq        +0x10 /* 000026B2 */
000026A4  7000                     moveq.l    D0, 0x00
000026A6  2F00                     move.l     -[A7], D0
000026A8  2F0C                     move.l     -[A7], A4
000026AA  4EBA E494                jsr        [PC - 0x1B6C /* 00000B40 */]
000026AE  504F                     addq.w     A7, 8
000026B0  6008                     bra        +0xA /* 000026BA */
label000026B2:
000026B2  7004                     moveq.l    D0, 0x04
000026B4  3F00                     move.w     -[A7], D0
000026B6  4EAD 0182                jsr        [A5 + 0x182 /* export_44, CODE:1 @ 00003B34 */]
label000026BA:
000026BA  2F0C                     move.l     -[A7], A4
000026BC  4EBA E428                jsr        [PC - 0x1BD8 /* 00000AE6 */]
000026C0  2F0C                     move.l     -[A7], A4
000026C2  4EBA E976                jsr        [PC - 0x168A /* 0000103A */]
000026C6  1A00                     move.b     D5, D0
000026C8  2F0C                     move.l     -[A7], A4
000026CA  4EBA F0CE                jsr        [PC - 0xF32 /* 0000179A */]
000026CE  1C00                     move.b     D6, D0
000026D0  2F0C                     move.l     -[A7], A4
000026D2  4EBA E6D8                jsr        [PC - 0x1928 /* 00000DAC */]
000026D6  7600                     moveq.l    D3, 0x00
000026D8  4A05                     tst.b      D5
000026DA  4FEF 0010                lea.l      A7, [A7 + 0x10]
000026DE  6706                     beq        +0x8 /* 000026E6 */
000026E0  4A06                     tst.b      D6
000026E2  6702                     beq        +0x4 /* 000026E6 */
000026E4  7601                     moveq.l    D3, 0x01
label000026E6:
000026E6  1E03                     move.b     D7, D3
000026E8  1D47 FFFC                move.b     [A6 - 0x4], D7
000026EC  2F0C                     move.l     -[A7], A4
000026EE  4EBA FE5A                jsr        [PC - 0x1A6 /* 0000254A */]
000026F2  1800                     move.b     D4, D0
000026F4  584F                     addq.w     A7, 4
000026F6  6740                     beq        +0x42 /* 00002738 */
000026F8  4A2C 0003                tst.b      [A4 + 0x3]
000026FC  664C                     bne        +0x4E /* 0000274A */
000026FE  7004                     moveq.l    D0, 0x04
00002700  3F00                     move.w     -[A7], D0
00002702  4EAD 0182                jsr        [A5 + 0x182 /* export_44, CODE:1 @ 00003B34 */]
00002706  2F0C                     move.l     -[A7], A4
00002708  4EBA FD44                jsr        [PC - 0x2BC /* 0000244E */]
0000270C  2F0C                     move.l     -[A7], A4
0000270E  4EBA E92A                jsr        [PC - 0x16D6 /* 0000103A */]
00002712  1A00                     move.b     D5, D0
00002714  2F0C                     move.l     -[A7], A4
00002716  4EBA F082                jsr        [PC - 0xF7E /* 0000179A */]
0000271A  1C00                     move.b     D6, D0
0000271C  7600                     moveq.l    D3, 0x00
0000271E  4A05                     tst.b      D5
00002720  4FEF 000C                lea.l      A7, [A7 + 0xC]
00002724  6706                     beq        +0x8 /* 0000272C */
00002726  4A06                     tst.b      D6
00002728  6702                     beq        +0x4 /* 0000272C */
0000272A  7601                     moveq.l    D3, 0x01
label0000272C:
0000272C  1E03                     move.b     D7, D3
0000272E  70FF                     moveq.l    D0, 0xFFFFFFFF
00002730  3F00                     move.w     -[A7], D0
00002732  4EAD 0182                jsr        [A5 + 0x182 /* export_44, CODE:1 @ 00003B34 */]
00002736  6012                     bra        +0x14 /* 0000274A */
label00002738:
00002738  7600                     moveq.l    D3, 0x00
0000273A  4A07                     tst.b      D7
0000273C  6608                     bne        +0xA /* 00002746 */
0000273E  4AAC 0114                tst.l      [A4 + 0x114]
00002742  6602                     bne        +0x4 /* 00002746 */
00002744  7601                     moveq.l    D3, 0x01
label00002746:
00002746  1D43 FFFD                move.b     [A6 - 0x3], D3
label0000274A:
0000274A  4A2C 0002                tst.b      [A4 + 0x2]
0000274E  6606                     bne        +0x8 /* 00002756 */
00002750  4A2E FFFD                tst.b      [A6 - 0x3]
00002754  6718                     beq        +0x1A /* 0000276E */
label00002756:
00002756  558F                     subq.l     A7, 2
00002758  7001                     moveq.l    D0, 0x01
0000275A  1F00                     move.b     -[A7], D0
0000275C  2F2D F9D0                move.l     -[A7], [A5 - 0x630]
00002760  7206                     moveq.l    D1, 0x06
00002762  3F01                     move.w     -[A7], D1
00002764  4EAD 00DA                jsr        [A5 + 0xDA /* export_23, CODE:1 @ 00002ACA */]
00002768  544F                     addq.w     A7, 2
0000276A  6000 0284                bra        +0x286 /* 000029F0 */
label0000276E:
0000276E  4A07                     tst.b      D7
00002770  6650                     bne        +0x52 /* 000027C2 */
00002772  4A2E 0008                tst.b      [A6 + 0x8]
00002776  673A                     beq        +0x3C /* 000027B2 */
00002778  0C54 0400                cmpi.w     [A4], 0x400
0000277C  660C                     bne        +0xE /* 0000278A */
0000277E  1D7C 0001 FFFF           move.b     [A6 - 0x1], 0x1
00002784  422E FFFE                clr.b      [A6 - 0x2]
00002788  6028                     bra        +0x2A /* 000027B2 */
label0000278A:
0000278A  4A2C 0003                tst.b      [A4 + 0x3]
0000278E  6712                     beq        +0x14 /* 000027A2 */
00002790  486E FFFE                pea.l      [A6 - 0x2]
00002794  486E FFFF                pea.l      [A6 - 0x1]
00002798  3F3C 00A4                move.w     -[A7], 0xA4
0000279C  4EBA FDDA                jsr        [PC - 0x226 /* 00002578 */]
000027A0  6010                     bra        +0x12 /* 000027B2 */
label000027A2:
000027A2  486E FFFE                pea.l      [A6 - 0x2]
000027A6  486E FFFF                pea.l      [A6 - 0x1]
000027AA  3F3C 00A2                move.w     -[A7], 0xA2
000027AE  4EBA FDC8                jsr        [PC - 0x238 /* 00002578 */]
label000027B2:
000027B2  4A2E FFFF                tst.b      [A6 - 0x1]
000027B6  660A                     bne        +0xC /* 000027C2 */
000027B8  2F0C                     move.l     -[A7], A4
000027BA  4EBA F5AA                jsr        [PC - 0xA56 /* 00001D66 */]
000027BE  1E00                     move.b     D7, D0
000027C0  584F                     addq.w     A7, 4
label000027C2:
000027C2  70FF                     moveq.l    D0, 0xFFFFFFFF
000027C4  3F00                     move.w     -[A7], D0
000027C6  4EAD 0182                jsr        [A5 + 0x182 /* export_44, CODE:1 @ 00003B34 */]
000027CA  4A07                     tst.b      D7
000027CC  6700 019A                beq        +0x19C /* 00002968 */
000027D0  4A2E FFFC                tst.b      [A6 - 0x4]
000027D4  6718                     beq        +0x1A /* 000027EE */
000027D6  558F                     subq.l     A7, 2
000027D8  7002                     moveq.l    D0, 0x02
000027DA  1F00                     move.b     -[A7], D0
000027DC  2F2D F9D0                move.l     -[A7], [A5 - 0x630]
000027E0  7201                     moveq.l    D1, 0x01
000027E2  3F01                     move.w     -[A7], D1
000027E4  4EAD 00DA                jsr        [A5 + 0xDA /* export_23, CODE:1 @ 00002ACA */]
000027E8  544F                     addq.w     A7, 2
000027EA  6000 0204                bra        +0x206 /* 000029F0 */
label000027EE:
000027EE  4A04                     tst.b      D4
000027F0  6718                     beq        +0x1A /* 0000280A */
000027F2  558F                     subq.l     A7, 2
000027F4  7002                     moveq.l    D0, 0x02
000027F6  1F00                     move.b     -[A7], D0
000027F8  2F2D F9D0                move.l     -[A7], [A5 - 0x630]
000027FC  720A                     moveq.l    D1, 0x0A
000027FE  3F01                     move.w     -[A7], D1
00002800  4EAD 00DA                jsr        [A5 + 0xDA /* export_23, CODE:1 @ 00002ACA */]
00002804  544F                     addq.w     A7, 2
00002806  6000 01E8                bra        +0x1EA /* 000029F0 */
label0000280A:
0000280A  4A6C 010C                tst.w      [A4 + 0x10C]
0000280E  662A                     bne        +0x2C /* 0000283A */
00002810  487A 01F8                pea.l      [PC + 0x1F8 /* 00002A0A, value 0x4E56 'NV', cstring "" */]
00002814  487A 01F2                pea.l      [PC + 0x1F2 /* 00002A08, value 0x0, cstring "" */]
00002818  487A 01EC                pea.l      [PC + 0x1EC /* 00002A06, value 0x0, cstring "" */]
0000281C  486C 000A                pea.l      [A4 + 0xA]
00002820  A98B                     syscall    ParamText
00002822  558F                     subq.l     A7, 2
00002824  7002                     moveq.l    D0, 0x02
00002826  1F00                     move.b     -[A7], D0
00002828  2F2D F9D0                move.l     -[A7], [A5 - 0x630]
0000282C  7205                     moveq.l    D1, 0x05
0000282E  3F01                     move.w     -[A7], D1
00002830  4EAD 00DA                jsr        [A5 + 0xDA /* export_23, CODE:1 @ 00002ACA */]
00002834  544F                     addq.w     A7, 2
00002836  6000 01B8                bra        +0x1BA /* 000029F0 */
label0000283A:
0000283A  4A6C 010C                tst.w      [A4 + 0x10C]
0000283E  6C44                     bge        +0x46 /* 00002884 */
00002840  202C 0110                move.l     D0, [A4 + 0x110]
00002844  90AC 0118                sub.l      D0, [A4 + 0x118]
00002848  2F00                     move.l     -[A7], D0
0000284A  2F0B                     move.l     -[A7], A3
0000284C  4EAD 074A                jsr        [A5 + 0x74A /* export_229, CODE:3 @ 0000367E */]
00002850  2F2C 0110                move.l     -[A7], [A4 + 0x110]
00002854  486E FEFC                pea.l      [A6 - 0x104]
00002858  4EAD 074A                jsr        [A5 + 0x74A /* export_229, CODE:3 @ 0000367E */]
0000285C  2F0B                     move.l     -[A7], A3
0000285E  486E FEFC                pea.l      [A6 - 0x104]
00002862  487A 01A0                pea.l      [PC + 0x1A0 /* 00002A04, value 0x0, cstring "" */]
00002866  486C 000A                pea.l      [A4 + 0xA]
0000286A  A98B                     syscall    ParamText
0000286C  558F                     subq.l     A7, 2
0000286E  7002                     moveq.l    D0, 0x02
00002870  1F00                     move.b     -[A7], D0
00002872  2F2D F9D0                move.l     -[A7], [A5 - 0x630]
00002876  7202                     moveq.l    D1, 0x02
00002878  3F01                     move.w     -[A7], D1
0000287A  4EAD 00DA                jsr        [A5 + 0xDA /* export_23, CODE:1 @ 00002ACA */]
0000287E  544F                     addq.w     A7, 2
00002880  6000 016E                bra        +0x170 /* 000029F0 */
label00002884:
00002884  4A6C 010E                tst.w      [A4 + 0x10E]
00002888  6C74                     bge        +0x76 /* 000028FE */
0000288A  2F0B                     move.l     -[A7], A3
0000288C  486E FCFA                pea.l      [A6 - 0x306]
00002890  486E FCF8                pea.l      [A6 - 0x308]
00002894  486E FCF4                pea.l      [A6 - 0x30C]
00002898  7000                     moveq.l    D0, 0x00
0000289A  2F00                     move.l     -[A7], D0
0000289C  322C 010C                move.w     D1, [A4 + 0x10C]
000028A0  5341                     subq.w     D1, 1
000028A2  48C1                     ext.l      D1
000028A4  2F01                     move.l     -[A7], D1
000028A6  2F0C                     move.l     -[A7], A4
000028A8  4EBA F30E                jsr        [PC - 0xCF2 /* 00001BB8 */]
000028AC  302C 010E                move.w     D0, [A4 + 0x10E]
000028B0  48C0                     ext.l      D0
000028B2  4480                     neg.l      D0
000028B4  2F00                     move.l     -[A7], D0
000028B6  2F0B                     move.l     -[A7], A3
000028B8  4EAD 074A                jsr        [A5 + 0x74A /* export_229, CODE:3 @ 0000367E */]
000028BC  2F2C 0110                move.l     -[A7], [A4 + 0x110]
000028C0  486E FEFC                pea.l      [A6 - 0x104]
000028C4  4EAD 074A                jsr        [A5 + 0x74A /* export_229, CODE:3 @ 0000367E */]
000028C8  2F2E FCF4                move.l     -[A7], [A6 - 0x30C]
000028CC  486E FDFC                pea.l      [A6 - 0x204]
000028D0  4EAD 0D8A                jsr        [A5 + 0xD8A /* export_429, CODE:16 @ 00000686 */]
000028D4  2F0B                     move.l     -[A7], A3
000028D6  486E FEFC                pea.l      [A6 - 0x104]
000028DA  486E FDFC                pea.l      [A6 - 0x204]
000028DE  486C 000A                pea.l      [A4 + 0xA]
000028E2  A98B                     syscall    ParamText
000028E4  558F                     subq.l     A7, 2
000028E6  7002                     moveq.l    D0, 0x02
000028E8  1F00                     move.b     -[A7], D0
000028EA  2F2D F9D0                move.l     -[A7], [A5 - 0x630]
000028EE  7203                     moveq.l    D1, 0x03
000028F0  3F01                     move.w     -[A7], D1
000028F2  4EAD 00DA                jsr        [A5 + 0xDA /* export_23, CODE:1 @ 00002ACA */]
000028F6  4FEF 001E                lea.l      A7, [A7 + 0x1E]
000028FA  6000 00F4                bra        +0xF6 /* 000029F0 */
label000028FE:
000028FE  2F0B                     move.l     -[A7], A3
00002900  486E FCFA                pea.l      [A6 - 0x306]
00002904  486E FCF8                pea.l      [A6 - 0x308]
00002908  486E FCF4                pea.l      [A6 - 0x30C]
0000290C  302C 010E                move.w     D0, [A4 + 0x10E]
00002910  48C0                     ext.l      D0
00002912  2F00                     move.l     -[A7], D0
00002914  302C 010C                move.w     D0, [A4 + 0x10C]
00002918  5340                     subq.w     D0, 1
0000291A  48C0                     ext.l      D0
0000291C  2F00                     move.l     -[A7], D0
0000291E  2F0C                     move.l     -[A7], A4
00002920  4EBA F296                jsr        [PC - 0xD6A /* 00001BB8 */]
00002924  302E FCF8                move.w     D0, [A6 - 0x308]
00002928  48C0                     ext.l      D0
0000292A  2F00                     move.l     -[A7], D0
0000292C  2F0B                     move.l     -[A7], A3
0000292E  4EAD 074A                jsr        [A5 + 0x74A /* export_229, CODE:3 @ 0000367E */]
00002932  2F2E FCF4                move.l     -[A7], [A6 - 0x30C]
00002936  486E FDFC                pea.l      [A6 - 0x204]
0000293A  4EAD 0D8A                jsr        [A5 + 0xD8A /* export_429, CODE:16 @ 00000686 */]
0000293E  487A 00C2                pea.l      [PC + 0xC2 /* 00002A02, value 0x0, cstring "" */]
00002942  2F0B                     move.l     -[A7], A3
00002944  486E FDFC                pea.l      [A6 - 0x204]
00002948  486C 000A                pea.l      [A4 + 0xA]
0000294C  A98B                     syscall    ParamText
0000294E  558F                     subq.l     A7, 2
00002950  7002                     moveq.l    D0, 0x02
00002952  1F00                     move.b     -[A7], D0
00002954  2F2D F9D0                move.l     -[A7], [A5 - 0x630]
00002958  7204                     moveq.l    D1, 0x04
0000295A  3F01                     move.w     -[A7], D1
0000295C  4EAD 00DA                jsr        [A5 + 0xDA /* export_23, CODE:1 @ 00002ACA */]
00002960  4FEF 001E                lea.l      A7, [A7 + 0x1E]
00002964  6000 008A                bra        +0x8C /* 000029F0 */
label00002968:
00002968  4A2E FFFF                tst.b      [A6 - 0x1]
0000296C  6600 0082                bne        +0x84 /* 000029F0 */
00002970  70DE                     moveq.l    D0, 0xFFFFFFDE
00002972  B054                     cmp.w      D0, [A4]
00002974  6616                     bne        +0x18 /* 0000298C */
00002976  558F                     subq.l     A7, 2
00002978  7001                     moveq.l    D0, 0x01
0000297A  1F00                     move.b     -[A7], D0
0000297C  2F2D F9D0                move.l     -[A7], [A5 - 0x630]
00002980  720B                     moveq.l    D1, 0x0B
00002982  3F01                     move.w     -[A7], D1
00002984  4EAD 00DA                jsr        [A5 + 0xDA /* export_23, CODE:1 @ 00002ACA */]
00002988  544F                     addq.w     A7, 2
0000298A  6064                     bra        +0x66 /* 000029F0 */
label0000298C:
0000298C  70CA                     moveq.l    D0, 0xFFFFFFCA
0000298E  B054                     cmp.w      D0, [A4]
00002990  6718                     beq        +0x1A /* 000029AA */
00002992  70D4                     moveq.l    D0, 0xFFFFFFD4
00002994  B054                     cmp.w      D0, [A4]
00002996  6712                     beq        +0x14 /* 000029AA */
00002998  70D2                     moveq.l    D0, 0xFFFFFFD2
0000299A  B054                     cmp.w      D0, [A4]
0000299C  670C                     beq        +0xE /* 000029AA */
0000299E  70C3                     moveq.l    D0, 0xFFFFFFC3
000029A0  B054                     cmp.w      D0, [A4]
000029A2  6706                     beq        +0x8 /* 000029AA */
000029A4  70D3                     moveq.l    D0, 0xFFFFFFD3
000029A6  B054                     cmp.w      D0, [A4]
000029A8  6616                     bne        +0x18 /* 000029C0 */
label000029AA:
000029AA  558F                     subq.l     A7, 2
000029AC  7001                     moveq.l    D0, 0x01
000029AE  1F00                     move.b     -[A7], D0
000029B0  2F2D F9D0                move.l     -[A7], [A5 - 0x630]
000029B4  720C                     moveq.l    D1, 0x0C
000029B6  3F01                     move.w     -[A7], D1
000029B8  4EAD 00DA                jsr        [A5 + 0xDA /* export_23, CODE:1 @ 00002ACA */]
000029BC  544F                     addq.w     A7, 2
000029BE  6030                     bra        +0x32 /* 000029F0 */
label000029C0:
000029C0  0C54 0400                cmpi.w     [A4], 0x400
000029C4  6616                     bne        +0x18 /* 000029DC */
000029C6  558F                     subq.l     A7, 2
000029C8  7001                     moveq.l    D0, 0x01
000029CA  1F00                     move.b     -[A7], D0
000029CC  2F2D F9D0                move.l     -[A7], [A5 - 0x630]
000029D0  720E                     moveq.l    D1, 0x0E
000029D2  3F01                     move.w     -[A7], D1
000029D4  4EAD 00DA                jsr        [A5 + 0xDA /* export_23, CODE:1 @ 00002ACA */]
000029D8  544F                     addq.w     A7, 2
000029DA  6014                     bra        +0x16 /* 000029F0 */
label000029DC:
000029DC  558F                     subq.l     A7, 2
000029DE  7001                     moveq.l    D0, 0x01
000029E0  1F00                     move.b     -[A7], D0
000029E2  2F2D F9D0                move.l     -[A7], [A5 - 0x630]
000029E6  7209                     moveq.l    D1, 0x09
000029E8  3F01                     move.w     -[A7], D1
000029EA  4EAD 00DA                jsr        [A5 + 0xDA /* export_23, CODE:1 @ 00002ACA */]
000029EE  544F                     addq.w     A7, 2
label000029F0:
000029F0  1D47 000E                move.b     [A6 + 0xE], D7
000029F4  4CEE 18F8 FCD8           movem.l    D3,D4,D5,D6,D7,A3,A4, [A6 - 0x328]
000029FA  4E5E                     unlink     A6
000029FC  205F                     movea.l    A0, [A7]+
000029FE  5C4F                     addq.w     A7, 6
00002A00  4ED0                     jmp        [A0]
00002A02  0000 0000                ori.b      D0, 0x0
00002A06  0000 0000                ori.b      D0, 0x0
00002A0A  0000 4E56                ori.b      D0, 0x56 /* 'V' */
// begin alternate branch 00002A0C-00002A10
export_462:
00002A0C  4E56 FFFA                link       A6, -0x0006
// end alternate branch 00002A0C-00002A10
export_462: // at 00002A0C (misaligned)
00002A0E  FFFA                     .invalid   <<F/7/7>>
00002A10  48E7 1718                movem.l    -[A7], D3,D5,D6,D7,A3,A4
00002A14  7E01                     moveq.l    D7, 0x01
00002A16  7C01                     moveq.l    D6, 0x01
00002A18  7A01                     moveq.l    D5, 0x01
00002A1A  7000                     moveq.l    D0, 0x00
00002A1C  2D40 FFFA                move.l     [A6 - 0x6], D0
00002A20  426E FFFE                clr.w      [A6 - 0x2]
00002A24  41EE FFFA                lea.l      A0, [A6 - 0x6]
00002A28  2208                     move.l     D1, A0
00002A2A  558F                     subq.l     A7, 2
00002A2C  4EAD 02DA                jsr        [A5 + 0x2DA /* export_87, CODE:1 @ 00006448 */]
00002A30  4A5F                     tst.w      [A7]+
00002A32  6600 01AA                bne        +0x1AC /* 00002BDE */
00002A36  7000                     moveq.l    D0, 0x00
00002A38  2F00                     move.l     -[A7], D0
00002A3A  4EBA DB74                jsr        [PC - 0x248C /* 000005B0 */]
00002A3E  2D40 FFFA                move.l     [A6 - 0x6], D0
00002A42  2F00                     move.l     -[A7], D0
00002A44  4EAD 02CA                jsr        [A5 + 0x2CA /* export_85, CODE:1 @ 0000639A */]
00002A48  7000                     moveq.l    D0, 0x00
00002A4A  2F00                     move.l     -[A7], D0
00002A4C  2F2E 000A                move.l     -[A7], [A6 + 0xA]
00002A50  2F2E FFFA                move.l     -[A7], [A6 - 0x6]
00002A54  4EBA E380                jsr        [PC - 0x1C80 /* 00000DD6 */]
00002A58  1E00                     move.b     D7, D0
00002A5A  4FEF 0010                lea.l      A7, [A7 + 0x10]
00002A5E  6700 015E                beq        +0x160 /* 00002BBE */
00002A62  7004                     moveq.l    D0, 0x04
00002A64  3F00                     move.w     -[A7], D0
00002A66  4EAD 0182                jsr        [A5 + 0x182 /* export_44, CODE:1 @ 00003B34 */]
00002A6A  2F2E FFFA                move.l     -[A7], [A6 - 0x6]
00002A6E  4EBA E5CA                jsr        [PC - 0x1A36 /* 0000103A */]
00002A72  1C00                     move.b     D6, D0
00002A74  584F                     addq.w     A7, 4
00002A76  6708                     beq        +0xA /* 00002A80 */
00002A78  4A2E 0008                tst.b      [A6 + 0x8]
00002A7C  6700 00A4                beq        +0xA6 /* 00002B22 */
label00002A80:
00002A80  206E FFFA                movea.l    A0, [A6 - 0x6]
00002A84  0CA8 0007 D000 011C      cmpi.l     [A0 + 0x11C], 0x7D000
00002A8C  6F0E                     ble        +0x10 /* 00002A9C */
00002A8E  7000                     moveq.l    D0, 0x00
00002A90  2F00                     move.l     -[A7], D0
00002A92  2F2E FFFA                move.l     -[A7], [A6 - 0x6]
00002A96  4EBA E0A8                jsr        [PC - 0x1F58 /* 00000B40 */]
00002A9A  504F                     addq.w     A7, 8
label00002A9C:
00002A9C  2F2E FFFA                move.l     -[A7], [A6 - 0x6]
00002AA0  4EBA ECF8                jsr        [PC - 0x1308 /* 0000179A */]
00002AA4  1A00                     move.b     D5, D0
00002AA6  2F2E FFFA                move.l     -[A7], [A6 - 0x6]
00002AAA  4EBA E300                jsr        [PC - 0x1D00 /* 00000DAC */]
00002AAE  2F2E FFFA                move.l     -[A7], [A6 - 0x6]
00002AB2  4EBA FA96                jsr        [PC - 0x56A /* 0000254A */]
00002AB6  4A00                     tst.b      D0
00002AB8  4FEF 000C                lea.l      A7, [A7 + 0xC]
00002ABC  6764                     beq        +0x66 /* 00002B22 */
00002ABE  206E FFFA                movea.l    A0, [A6 - 0x6]
00002AC2  4A28 0003                tst.b      [A0 + 0x3]
00002AC6  665A                     bne        +0x5C /* 00002B22 */
00002AC8  7004                     moveq.l    D0, 0x04
00002ACA  3F00                     move.w     -[A7], D0
00002ACC  4EAD 0182                jsr        [A5 + 0x182 /* export_44, CODE:1 @ 00003B34 */]
00002AD0  2F2E FFFA                move.l     -[A7], [A6 - 0x6]
00002AD4  4EBA F978                jsr        [PC - 0x688 /* 0000244E */]
00002AD8  2F2E FFFA                move.l     -[A7], [A6 - 0x6]
00002ADC  4EBA E55C                jsr        [PC - 0x1AA4 /* 0000103A */]
00002AE0  1C00                     move.b     D6, D0
00002AE2  2F2E FFFA                move.l     -[A7], [A6 - 0x6]
00002AE6  4EBA ECB2                jsr        [PC - 0x134E /* 0000179A */]
00002AEA  1A00                     move.b     D5, D0
00002AEC  7600                     moveq.l    D3, 0x00
00002AEE  4A06                     tst.b      D6
00002AF0  4FEF 000C                lea.l      A7, [A7 + 0xC]
00002AF4  6706                     beq        +0x8 /* 00002AFC */
00002AF6  4A05                     tst.b      D5
00002AF8  6702                     beq        +0x4 /* 00002AFC */
00002AFA  7601                     moveq.l    D3, 0x01
label00002AFC:
00002AFC  1E03                     move.b     D7, D3
00002AFE  70FF                     moveq.l    D0, 0xFFFFFFFF
00002B00  3F00                     move.w     -[A7], D0
00002B02  4EAD 0182                jsr        [A5 + 0x182 /* export_44, CODE:1 @ 00003B34 */]
00002B06  4A06                     tst.b      D6
00002B08  6718                     beq        +0x1A /* 00002B22 */
00002B0A  4A05                     tst.b      D5
00002B0C  6714                     beq        +0x16 /* 00002B22 */
00002B0E  558F                     subq.l     A7, 2
00002B10  7002                     moveq.l    D0, 0x02
00002B12  1F00                     move.b     -[A7], D0
00002B14  2F2D F9D0                move.l     -[A7], [A5 - 0x630]
00002B18  720A                     moveq.l    D1, 0x0A
00002B1A  3F01                     move.w     -[A7], D1
00002B1C  4EAD 00DA                jsr        [A5 + 0xDA /* export_23, CODE:1 @ 00002ACA */]
00002B20  544F                     addq.w     A7, 2
label00002B22:
00002B22  7600                     moveq.l    D3, 0x00
00002B24  4A06                     tst.b      D6
00002B26  6706                     beq        +0x8 /* 00002B2E */
00002B28  4A05                     tst.b      D5
00002B2A  6702                     beq        +0x4 /* 00002B2E */
00002B2C  7601                     moveq.l    D3, 0x01
label00002B2E:
00002B2E  1E03                     move.b     D7, D3
00002B30  6600 0098                bne        +0x9A /* 00002BCA */
00002B34  206E FFFA                movea.l    A0, [A6 - 0x6]
00002B38  4A28 0002                tst.b      [A0 + 0x2]
00002B3C  6606                     bne        +0x8 /* 00002B44 */
00002B3E  4AA8 0114                tst.l      [A0 + 0x114]
00002B42  6616                     bne        +0x18 /* 00002B5A */
label00002B44:
00002B44  558F                     subq.l     A7, 2
00002B46  7001                     moveq.l    D0, 0x01
00002B48  1F00                     move.b     -[A7], D0
00002B4A  2F2D F9D0                move.l     -[A7], [A5 - 0x630]
00002B4E  7206                     moveq.l    D1, 0x06
00002B50  3F01                     move.w     -[A7], D1
00002B52  4EAD 00DA                jsr        [A5 + 0xDA /* export_23, CODE:1 @ 00002ACA */]
00002B56  544F                     addq.w     A7, 2
00002B58  6070                     bra        +0x72 /* 00002BCA */
label00002B5A:
00002B5A  206E FFFA                movea.l    A0, [A6 - 0x6]
00002B5E  0C50 0400                cmpi.w     [A0], 0x400
00002B62  660C                     bne        +0xE /* 00002B70 */
00002B64  1D7C 0001 FFFF           move.b     [A6 - 0x1], 0x1
00002B6A  422E FFFE                clr.b      [A6 - 0x2]
00002B6E  602C                     bra        +0x2E /* 00002B9C */
label00002B70:
00002B70  206E FFFA                movea.l    A0, [A6 - 0x6]
00002B74  4A28 0003                tst.b      [A0 + 0x3]
00002B78  6712                     beq        +0x14 /* 00002B8C */
00002B7A  486E FFFE                pea.l      [A6 - 0x2]
00002B7E  486E FFFF                pea.l      [A6 - 0x1]
00002B82  3F3C 00A3                move.w     -[A7], 0xA3
00002B86  4EBA F9F0                jsr        [PC - 0x610 /* 00002578 */]
00002B8A  6010                     bra        +0x12 /* 00002B9C */
label00002B8C:
00002B8C  486E FFFE                pea.l      [A6 - 0x2]
00002B90  486E FFFF                pea.l      [A6 - 0x1]
00002B94  3F3C 00A0                move.w     -[A7], 0xA0
00002B98  4EBA F9DE                jsr        [PC - 0x622 /* 00002578 */]
label00002B9C:
00002B9C  4A2E FFFE                tst.b      [A6 - 0x2]
00002BA0  6704                     beq        +0x6 /* 00002BA6 */
00002BA2  7E01                     moveq.l    D7, 0x01
00002BA4  6024                     bra        +0x26 /* 00002BCA */
label00002BA6:
00002BA6  4A2E FFFF                tst.b      [A6 - 0x1]
00002BAA  661E                     bne        +0x20 /* 00002BCA */
00002BAC  558F                     subq.l     A7, 2
00002BAE  2F2E FFFA                move.l     -[A7], [A6 - 0x6]
00002BB2  7000                     moveq.l    D0, 0x00
00002BB4  1F00                     move.b     -[A7], D0
00002BB6  4EBA FAC0                jsr        [PC - 0x540 /* 00002678 */]
00002BBA  1E1F                     move.b     D7, [A7]+
00002BBC  600C                     bra        +0xE /* 00002BCA */
label00002BBE:
00002BBE  206E FFFA                movea.l    A0, [A6 - 0x6]
00002BC2  70CF                     moveq.l    D0, 0xFFFFFFCF
00002BC4  B050                     cmp.w      D0, [A0]
00002BC6  6602                     bne        +0x4 /* 00002BCA */
00002BC8  7E01                     moveq.l    D7, 0x01
label00002BCA:
00002BCA  7003                     moveq.l    D0, 0x03
00002BCC  2F00                     move.l     -[A7], D0
00002BCE  2F2E FFFA                move.l     -[A7], [A6 - 0x6]
00002BD2  4EBA DA2E                jsr        [PC - 0x25D2 /* 00000602 */]
00002BD6  4EAD 02E2                jsr        [A5 + 0x2E2 /* export_88, CODE:1 @ 000064EE */]
00002BDA  504F                     addq.w     A7, 8
00002BDC  604E                     bra        +0x50 /* 00002C2C */
label00002BDE:
00002BDE  70FF                     moveq.l    D0, 0xFFFFFFFF
00002BE0  3F00                     move.w     -[A7], D0
00002BE2  4EAD 0182                jsr        [A5 + 0x182 /* export_44, CODE:1 @ 00003B34 */]
00002BE6  4AAE FFFA                tst.l      [A6 - 0x6]
00002BEA  672C                     beq        +0x2E /* 00002C18 */
00002BEC  487A 0058                pea.l      [PC + 0x58 /* 00002C46, value 0x20202323 '  ##', pstring " ### Failure not caught by signa" */]
00002BF0  206E FFFA                movea.l    A0, [A6 - 0x6]
00002BF4  2F28 0006                move.l     -[A7], [A0 + 0x6]
00002BF8  4EAD 0412                jsr        [A5 + 0x412 /* export_126, CODE:3 @ 00000B58 */]
00002BFC  2640                     movea.l    A3, D0
00002BFE  49ED 046A                lea.l      A4, [A5 + 0x46A /* export_137, CODE:3 @ 00001CBE */]
00002C02  2F0B                     move.l     -[A7], A3
00002C04  4E94                     jsr        [A4]
00002C06  7003                     moveq.l    D0, 0x03
00002C08  2F00                     move.l     -[A7], D0
00002C0A  2F2E FFFA                move.l     -[A7], [A6 - 0x6]
00002C0E  4EBA D9F2                jsr        [PC - 0x260E /* 00000602 */]
00002C12  4FEF 0014                lea.l      A7, [A7 + 0x14]
00002C16  6014                     bra        +0x16 /* 00002C2C */
label00002C18:
00002C18  558F                     subq.l     A7, 2
00002C1A  7001                     moveq.l    D0, 0x01
00002C1C  1F00                     move.b     -[A7], D0
00002C1E  2F2D F9D0                move.l     -[A7], [A5 - 0x630]
00002C22  7207                     moveq.l    D1, 0x07
00002C24  3F01                     move.w     -[A7], D1
00002C26  4EAD 00DA                jsr        [A5 + 0xDA /* export_23, CODE:1 @ 00002ACA */]
00002C2A  544F                     addq.w     A7, 2
label00002C2C:
00002C2C  7004                     moveq.l    D0, 0x04
00002C2E  3F00                     move.w     -[A7], D0
00002C30  4EAD 0182                jsr        [A5 + 0x182 /* export_44, CODE:1 @ 00003B34 */]
00002C34  1D47 000E                move.b     [A6 + 0xE], D7
00002C38  4CEE 18E8 FFE2           movem.l    D3,D5,D6,D7,A3,A4, [A6 - 0x1E]
00002C3E  4E5E                     unlink     A6
00002C40  205F                     movea.l    A0, [A7]+
00002C42  5C4F                     addq.w     A7, 6
00002C44  4ED0                     jmp        [A0]
00002C46  2020                     move.l     D0, -[A0]
00002C48  2323                     move.l     -[A1], -[A3]
00002C4A  2320                     move.l     -[A1], -[A0]
00002C4C  4661                     not.w      -[A1]
00002C4E  696C                     bvs        +0x6E /* 00002CBC */
00002C50  7572                     moveq.l    D2, 0x72
00002C52  6520                     bcs        +0x22 /* 00002C74 */
00002C54  6E6F                     bgt        +0x71 /* 00002CC5 */
00002C56  7420                     moveq.l    D2, 0x20
00002C58  6361                     bls        +0x63 /* 00002CBB */
00002C5A  7567                     moveq.l    D2, 0x67
00002C5C  6874                     bvc        +0x76 /* 00002CD2 */
00002C5E  2062                     movea.l    A0, -[A2]
00002C60  7920                     moveq.l    D4, 0x20
00002C62  7369                     moveq.l    D1, 0x69
00002C64  676E                     beq        +0x70 /* 00002CD4 */
00002C66  616C                     bsr        +0x6E /* 00002CD4 */
00002C68  2068 616E                movea.l    A0, [A0 + 0x616E]
00002C6C  646C                     bcc        +0x6E /* 00002CDA */
00002C6E  6572                     bcs        +0x74 /* 00002CE2 */
00002C70  2E00                     move.l     D7, D0
fn00002C72:
00002C72  4E56 FFF6                link       A6, -0x000A
// begin alternate branch 00002C74-00002C76
label00002C74:
00002C74  FFF6                     .invalid   <<F/7/7>>
// end alternate branch 00002C74-00002C76
label00002C74: // (misaligned)
00002C76  2F07                     move.l     -[A7], D7
00002C78  558F                     subq.l     A7, 2
00002C7A  3F2E 000E                move.w     -[A7], [A6 + 0xE]
00002C7E  486E FFF6                pea.l      [A6 - 0xA]
00002C82  486E FFF8                pea.l      [A6 - 0x8]
00002C86  486E FFFC                pea.l      [A6 - 0x4]
00002C8A  4EAD 06BA                jsr        [A5 + 0x6BA /* export_211, CODE:3 @ 00002E9A */]
00002C8E  3E1F                     move.w     D7, [A7]+
00002C90  6704                     beq        +0x6 /* 00002C96 */
00002C92  7000                     moveq.l    D0, 0x00
00002C94  601E                     bra        +0x20 /* 00002CB4 */
label00002C96:
00002C96  2F00                     move.l     -[A7], D0
00002C98  598F                     subq.l     A7, 4
00002C9A  3F2E FFF6                move.w     -[A7], [A6 - 0xA]
00002C9E  2F2E FFF8                move.l     -[A7], [A6 - 0x8]
00002CA2  2F2E 0008                move.l     -[A7], [A6 + 0x8]
00002CA6  4EAD 005A                jsr        [A5 + 0x5A /* export_7, CODE:1 @ 00000286 */]
00002CAA  221F                     move.l     D1, [A7]+
00002CAC  201F                     move.l     D0, [A7]+
00002CAE  4A81                     tst.l      D1
00002CB0  56C0                     sne        D0
00002CB2  4400                     neg.b      D0
label00002CB4:
00002CB4  2E2E FFF2                move.l     D7, [A6 - 0xE]
00002CB8  4E5E                     unlink     A6
00002CBA  4E75                     rts
export_463:
label00002CBC:
00002CBC  4E56 FFF8                link       A6, -0x0008
00002CC0  48E7 0018                movem.l    -[A7], A3,A4
00002CC4  7000                     moveq.l    D0, 0x00
00002CC6  2D40 FFF8                move.l     [A6 - 0x8], D0
00002CCA  41EE FFF8                lea.l      A0, [A6 - 0x8]
00002CCE  2208                     move.l     D1, A0
00002CD0  558F                     subq.l     A7, 2
label00002CD2:
00002CD2  4EAD 02DA                jsr        [A5 + 0x2DA /* export_87, CODE:1 @ 00006448 */]
// begin alternate branch 00002CD4-00002CD6
fn00002CD4:
00002CD4  02DA                     .incomplete
// end alternate branch 00002CD4-00002CD6
fn00002CD4: // (misaligned)
00002CD6  4A5F                     tst.w      [A7]+
00002CD8  6600 0102                bne        +0x104 /* 00002DDC */
// begin alternate branch 00002CDA-00002CDC
label00002CDA:
00002CDA  0102                     btst       D2, D0
// end alternate branch 00002CDA-00002CDC
label00002CDA: // (misaligned)
00002CDC  558F                     subq.l     A7, 2
00002CDE  2F3C 616C 6973           move.l     -[A7], 0x616C6973 /* 'alis' */
// begin alternate branch 00002CE2-00002CE4
label00002CE2:
00002CE2  6973                     bvs        +0x75 /* 00002D57 */
// end alternate branch 00002CE2-00002CE4
label00002CE2: // (misaligned)
00002CE4  486E FFFC                pea.l      [A6 - 0x4]
00002CE8  4EAD 0732                jsr        [A5 + 0x732 /* export_226, CODE:3 @ 0000344C */]
00002CEC  4A5F                     tst.w      [A7]+
00002CEE  660E                     bne        +0x10 /* 00002CFE */
00002CF0  7001                     moveq.l    D0, 0x01
00002CF2  C0AE FFFC                and.l      D0, [A6 - 0x4]
00002CF6  6706                     beq        +0x8 /* 00002CFE */
00002CF8  4EAD 02FA                jsr        [A5 + 0x2FA /* export_91, CODE:1 @ 00006C16 */]
00002CFC  6010                     bra        +0x12 /* 00002D0E */
label00002CFE:
00002CFE  3F3C F060                move.w     -[A7], 0xF060
00002D02  7000                     moveq.l    D0, 0x00
00002D04  2F00                     move.l     -[A7], D0
00002D06  7201                     moveq.l    D1, 0x01
00002D08  3F01                     move.w     -[A7], D1
00002D0A  4EAD 0062                jsr        [A5 + 0x62 /* export_8, CODE:1 @ 0000071A */]
label00002D0E:
00002D0E  4A2D F7D8                tst.b      [A5 - 0x828]
00002D12  6700 00C2                beq        +0xC4 /* 00002DD6 */
00002D16  302D F7DE                move.w     D0, [A5 - 0x822]
00002D1A  48C0                     ext.l      D0
00002D1C  2F00                     move.l     -[A7], D0
00002D1E  486D F7E2                pea.l      [A5 - 0x81E]
00002D22  4EBA FF4E                jsr        [PC - 0xB2 /* 00002C72 */]
00002D26  4A00                     tst.b      D0
00002D28  504F                     addq.w     A7, 8
00002D2A  6718                     beq        +0x1A /* 00002D44 */
00002D2C  558F                     subq.l     A7, 2
00002D2E  7001                     moveq.l    D0, 0x01
00002D30  1F00                     move.b     -[A7], D0
00002D32  2F2D F9D0                move.l     -[A7], [A5 - 0x630]
00002D36  720F                     moveq.l    D1, 0x0F
00002D38  3F01                     move.w     -[A7], D1
00002D3A  4EAD 00DA                jsr        [A5 + 0xDA /* export_23, CODE:1 @ 00002ACA */]
00002D3E  544F                     addq.w     A7, 2
00002D40  6000 0094                bra        +0x96 /* 00002DD6 */
label00002D44:
00002D44  7000                     moveq.l    D0, 0x00
00002D46  2F00                     move.l     -[A7], D0
00002D48  4EBA D866                jsr        [PC - 0x279A /* 000005B0 */]
00002D4C  2D40 FFF8                move.l     [A6 - 0x8], D0
00002D50  2F00                     move.l     -[A7], D0
00002D52  4EAD 02CA                jsr        [A5 + 0x2CA /* export_85, CODE:1 @ 0000639A */]
00002D56  302D F7DE                move.w     D0, [A5 - 0x822]
00002D5A  48C0                     ext.l      D0
00002D5C  2F00                     move.l     -[A7], D0
00002D5E  486D F7E2                pea.l      [A5 - 0x81E]
00002D62  2F2E FFF8                move.l     -[A7], [A6 - 0x8]
00002D66  4EBA E06E                jsr        [PC - 0x1F92 /* 00000DD6 */]
00002D6A  4A00                     tst.b      D0
00002D6C  4FEF 0010                lea.l      A7, [A7 + 0x10]
00002D70  6712                     beq        +0x14 /* 00002D84 */
00002D72  558F                     subq.l     A7, 2
00002D74  2F2E FFF8                move.l     -[A7], [A6 - 0x8]
00002D78  7001                     moveq.l    D0, 0x01
00002D7A  1F00                     move.b     -[A7], D0
00002D7C  4EBA F8FA                jsr        [PC - 0x706 /* 00002678 */]
00002D80  544F                     addq.w     A7, 2
00002D82  603C                     bra        +0x3E /* 00002DC0 */
label00002D84:
00002D84  206E FFF8                movea.l    A0, [A6 - 0x8]
00002D88  0C50 03EC                cmpi.w     [A0], 0x3EC
00002D8C  6614                     bne        +0x16 /* 00002DA2 */
00002D8E  558F                     subq.l     A7, 2
00002D90  7001                     moveq.l    D0, 0x01
00002D92  1F00                     move.b     -[A7], D0
00002D94  2F2D F9D0                move.l     -[A7], [A5 - 0x630]
00002D98  7208                     moveq.l    D1, 0x08
00002D9A  3F01                     move.w     -[A7], D1
00002D9C  4EAD 00DA                jsr        [A5 + 0xDA /* export_23, CODE:1 @ 00002ACA */]
00002DA0  544F                     addq.w     A7, 2
label00002DA2:
00002DA2  206E FFF8                movea.l    A0, [A6 - 0x8]
00002DA6  70CF                     moveq.l    D0, 0xFFFFFFCF
00002DA8  B050                     cmp.w      D0, [A0]
00002DAA  6614                     bne        +0x16 /* 00002DC0 */
00002DAC  558F                     subq.l     A7, 2
00002DAE  7001                     moveq.l    D0, 0x01
00002DB0  1F00                     move.b     -[A7], D0
00002DB2  2F2D F9D0                move.l     -[A7], [A5 - 0x630]
00002DB6  720D                     moveq.l    D1, 0x0D
00002DB8  3F01                     move.w     -[A7], D1
00002DBA  4EAD 00DA                jsr        [A5 + 0xDA /* export_23, CODE:1 @ 00002ACA */]
00002DBE  544F                     addq.w     A7, 2
label00002DC0:
00002DC0  7003                     moveq.l    D0, 0x03
00002DC2  2F00                     move.l     -[A7], D0
00002DC4  2F2E FFF8                move.l     -[A7], [A6 - 0x8]
00002DC8  4EBA D838                jsr        [PC - 0x27C8 /* 00000602 */]
00002DCC  3F2D F7DE                move.w     -[A7], [A5 - 0x822]
00002DD0  4EAD 018A                jsr        [A5 + 0x18A /* export_45, CODE:1 @ 00003BAA */]
00002DD4  504F                     addq.w     A7, 8
label00002DD6:
00002DD6  4EAD 02E2                jsr        [A5 + 0x2E2 /* export_88, CODE:1 @ 000064EE */]
00002DDA  604E                     bra        +0x50 /* 00002E2A */
label00002DDC:
00002DDC  70FF                     moveq.l    D0, 0xFFFFFFFF
00002DDE  3F00                     move.w     -[A7], D0
00002DE0  4EAD 0182                jsr        [A5 + 0x182 /* export_44, CODE:1 @ 00003B34 */]
00002DE4  4AAE FFF8                tst.l      [A6 - 0x8]
00002DE8  672C                     beq        +0x2E /* 00002E16 */
00002DEA  487A 0050                pea.l      [PC + 0x50 /* 00002E3C, value 0x20202323 '  ##', pstring " ### Failure not caught by signa" */]
00002DEE  206E FFF8                movea.l    A0, [A6 - 0x8]
00002DF2  2F28 0006                move.l     -[A7], [A0 + 0x6]
00002DF6  4EAD 0412                jsr        [A5 + 0x412 /* export_126, CODE:3 @ 00000B58 */]
00002DFA  2640                     movea.l    A3, D0
00002DFC  49ED 046A                lea.l      A4, [A5 + 0x46A /* export_137, CODE:3 @ 00001CBE */]
00002E00  2F0B                     move.l     -[A7], A3
00002E02  4E94                     jsr        [A4]
00002E04  7003                     moveq.l    D0, 0x03
00002E06  2F00                     move.l     -[A7], D0
00002E08  2F2E FFF8                move.l     -[A7], [A6 - 0x8]
00002E0C  4EBA D7F4                jsr        [PC - 0x280C /* 00000602 */]
00002E10  4FEF 0014                lea.l      A7, [A7 + 0x14]
00002E14  6014                     bra        +0x16 /* 00002E2A */
label00002E16:
00002E16  558F                     subq.l     A7, 2
00002E18  7001                     moveq.l    D0, 0x01
00002E1A  1F00                     move.b     -[A7], D0
00002E1C  2F2D F9D0                move.l     -[A7], [A5 - 0x630]
00002E20  7207                     moveq.l    D1, 0x07
00002E22  3F01                     move.w     -[A7], D1
00002E24  4EAD 00DA                jsr        [A5 + 0xDA /* export_23, CODE:1 @ 00002ACA */]
00002E28  544F                     addq.w     A7, 2
label00002E2A:
00002E2A  70FF                     moveq.l    D0, 0xFFFFFFFF
00002E2C  3F00                     move.w     -[A7], D0
00002E2E  4EAD 0182                jsr        [A5 + 0x182 /* export_44, CODE:1 @ 00003B34 */]
00002E32  4CEE 1800 FFF0           movem.l    A3,A4, [A6 - 0x10]
00002E38  4E5E                     unlink     A6
00002E3A  4E75                     rts
00002E3C  2020                     move.l     D0, -[A0]
00002E3E  2323                     move.l     -[A1], -[A3]
00002E40  2320                     move.l     -[A1], -[A0]
00002E42  4661                     not.w      -[A1]
00002E44  696C                     bvs        +0x6E /* 00002EB2 */
00002E46  7572                     moveq.l    D2, 0x72
00002E48  6520                     bcs        +0x22 /* 00002E6A */
00002E4A  6E6F                     bgt        +0x71 /* 00002EBB */
00002E4C  7420                     moveq.l    D2, 0x20
00002E4E  6361                     bls        +0x63 /* 00002EB1 */
00002E50  7567                     moveq.l    D2, 0x67
00002E52  6874                     bvc        +0x76 /* 00002EC8 */
00002E54  2062                     movea.l    A0, -[A2]
00002E56  7920                     moveq.l    D4, 0x20
00002E58  7369                     moveq.l    D1, 0x69
00002E5A  676E                     beq        +0x70 /* 00002ECA */
00002E5C  616C                     bsr        +0x6E /* 00002ECA */
00002E5E  2068 616E                movea.l    A0, [A0 + 0x616E]
00002E62  646C                     bcc        +0x6E /* 00002ED0 */
00002E64  6572                     bcs        +0x74 /* 00002ED8 */
00002E66  2E00                     move.l     D7, D0
export_464:
00002E68  4E56 FFFC                link       A6, -0x0004
// begin alternate branch 00002E6A-00002E6C
label00002E6A:
00002E6A  FFFC                     .invalid   <<F/7/7>>
// end alternate branch 00002E6A-00002E6C
label00002E6A: // (misaligned)
00002E6C  48E7 1F18                movem.l    -[A7], D3,D4,D5,D6,D7,A3,A4
00002E70  7C01                     moveq.l    D6, 0x01
00002E72  7E01                     moveq.l    D7, 0x01
00002E74  7A01                     moveq.l    D5, 0x01
00002E76  7000                     moveq.l    D0, 0x00
00002E78  2D40 FFFC                move.l     [A6 - 0x4], D0
00002E7C  4204                     clr.b      D4
00002E7E  4204                     clr.b      D4
00002E80  41EE FFFC                lea.l      A0, [A6 - 0x4]
00002E84  2208                     move.l     D1, A0
00002E86  558F                     subq.l     A7, 2
00002E88  4EAD 02DA                jsr        [A5 + 0x2DA /* export_87, CODE:1 @ 00006448 */]
00002E8C  4A5F                     tst.w      [A7]+
00002E8E  6600 009E                bne        +0xA0 /* 00002F2E */
00002E92  7000                     moveq.l    D0, 0x00
00002E94  2F00                     move.l     -[A7], D0
00002E96  4EBA D718                jsr        [PC - 0x28E8 /* 000005B0 */]
00002E9A  2D40 FFFC                move.l     [A6 - 0x4], D0
00002E9E  2F00                     move.l     -[A7], D0
00002EA0  4EAD 02CA                jsr        [A5 + 0x2CA /* export_85, CODE:1 @ 0000639A */]
00002EA4  206E FFFC                movea.l    A0, [A6 - 0x4]
00002EA8  117C 0001 0004           move.b     [A0 + 0x4], 0x1
00002EAE  7000                     moveq.l    D0, 0x00
00002EB0  2F00                     move.l     -[A7], D0
label00002EB2:
00002EB2  2F2E 000A                move.l     -[A7], [A6 + 0xA]
00002EB6  2F2E FFFC                move.l     -[A7], [A6 - 0x4]
00002EBA  4EBA DF1A                jsr        [PC - 0x20E6 /* 00000DD6 */]
00002EBE  1C00                     move.b     D6, D0
00002EC0  4FEF 0010                lea.l      A7, [A7 + 0x10]
00002EC4  6748                     beq        +0x4A /* 00002F0E */
00002EC6  7004                     moveq.l    D0, 0x04
label00002EC8:
00002EC8  3F00                     move.w     -[A7], D0
fn00002ECA:
00002ECA  4EAD 0182                jsr        [A5 + 0x182 /* export_44, CODE:1 @ 00003B34 */]
00002ECE  2F2E FFFC                move.l     -[A7], [A6 - 0x4]
// begin alternate branch 00002ED0-00002ED2
label00002ED0:
00002ED0  FFFC                     .invalid   <<F/7/7>>
// end alternate branch 00002ED0-00002ED2
label00002ED0: // (misaligned)
00002ED2  4EBA E166                jsr        [PC - 0x1E9A /* 0000103A */]
00002ED6  1E00                     move.b     D7, D0
label00002ED8:
00002ED8  584F                     addq.w     A7, 4
00002EDA  6706                     beq        +0x8 /* 00002EE2 */
00002EDC  4A2E 0008                tst.b      [A6 + 0x8]
00002EE0  671C                     beq        +0x1E /* 00002EFE */
label00002EE2:
00002EE2  2F2E FFFC                move.l     -[A7], [A6 - 0x4]
00002EE6  4EBA E8B2                jsr        [PC - 0x174E /* 0000179A */]
00002EEA  1A00                     move.b     D5, D0
00002EEC  2F2E FFFC                move.l     -[A7], [A6 - 0x4]
00002EF0  4EBA F658                jsr        [PC - 0x9A8 /* 0000254A */]
00002EF4  4A00                     tst.b      D0
00002EF6  504F                     addq.w     A7, 8
00002EF8  6704                     beq        +0x6 /* 00002EFE */
00002EFA  7E01                     moveq.l    D7, 0x01
00002EFC  1A07                     move.b     D5, D7
label00002EFE:
00002EFE  7600                     moveq.l    D3, 0x00
00002F00  4A07                     tst.b      D7
00002F02  6706                     beq        +0x8 /* 00002F0A */
00002F04  4A05                     tst.b      D5
00002F06  6702                     beq        +0x4 /* 00002F0A */
00002F08  7601                     moveq.l    D3, 0x01
label00002F0A:
00002F0A  1C03                     move.b     D6, D3
00002F0C  600C                     bra        +0xE /* 00002F1A */
label00002F0E:
00002F0E  206E FFFC                movea.l    A0, [A6 - 0x4]
00002F12  70CF                     moveq.l    D0, 0xFFFFFFCF
00002F14  B050                     cmp.w      D0, [A0]
00002F16  6602                     bne        +0x4 /* 00002F1A */
00002F18  7C01                     moveq.l    D6, 0x01
label00002F1A:
00002F1A  7003                     moveq.l    D0, 0x03
00002F1C  2F00                     move.l     -[A7], D0
00002F1E  2F2E FFFC                move.l     -[A7], [A6 - 0x4]
00002F22  4EBA D6DE                jsr        [PC - 0x2922 /* 00000602 */]
00002F26  4EAD 02E2                jsr        [A5 + 0x2E2 /* export_88, CODE:1 @ 000064EE */]
00002F2A  504F                     addq.w     A7, 8
00002F2C  6038                     bra        +0x3A /* 00002F66 */
label00002F2E:
00002F2E  70FF                     moveq.l    D0, 0xFFFFFFFF
00002F30  3F00                     move.w     -[A7], D0
00002F32  4EAD 0182                jsr        [A5 + 0x182 /* export_44, CODE:1 @ 00003B34 */]
00002F36  4AAE FFFC                tst.l      [A6 - 0x4]
00002F3A  672A                     beq        +0x2C /* 00002F66 */
00002F3C  487A 0042                pea.l      [PC + 0x42 /* 00002F80, value 0x20202323 '  ##', pstring " ### Failure not caught by signa" */]
00002F40  206E FFFC                movea.l    A0, [A6 - 0x4]
00002F44  2F28 0006                move.l     -[A7], [A0 + 0x6]
00002F48  4EAD 0412                jsr        [A5 + 0x412 /* export_126, CODE:3 @ 00000B58 */]
00002F4C  2640                     movea.l    A3, D0
00002F4E  49ED 046A                lea.l      A4, [A5 + 0x46A /* export_137, CODE:3 @ 00001CBE */]
00002F52  2F0B                     move.l     -[A7], A3
00002F54  4E94                     jsr        [A4]
00002F56  7003                     moveq.l    D0, 0x03
00002F58  2F00                     move.l     -[A7], D0
00002F5A  2F2E FFFC                move.l     -[A7], [A6 - 0x4]
00002F5E  4EBA D6A2                jsr        [PC - 0x295E /* 00000602 */]
00002F62  4FEF 0014                lea.l      A7, [A7 + 0x14]
label00002F66:
00002F66  70FF                     moveq.l    D0, 0xFFFFFFFF
00002F68  3F00                     move.w     -[A7], D0
00002F6A  4EAD 0182                jsr        [A5 + 0x182 /* export_44, CODE:1 @ 00003B34 */]
00002F6E  1D46 000E                move.b     [A6 + 0xE], D6
00002F72  4CEE 18F8 FFE0           movem.l    D3,D4,D5,D6,D7,A3,A4, [A6 - 0x20]
00002F78  4E5E                     unlink     A6
00002F7A  205F                     movea.l    A0, [A7]+
00002F7C  5C4F                     addq.w     A7, 6
00002F7E  4ED0                     jmp        [A0]
00002F80  2020                     move.l     D0, -[A0]
00002F82  2323                     move.l     -[A1], -[A3]
00002F84  2320                     move.l     -[A1], -[A0]
00002F86  4661                     not.w      -[A1]
00002F88  696C                     bvs        +0x6E /* 00002FF6 */
00002F8A  7572                     moveq.l    D2, 0x72
00002F8C  6520                     bcs        +0x22 /* 00002FAE */
00002F8E  6E6F                     bgt        +0x71 /* 00002FFF */
00002F90  7420                     moveq.l    D2, 0x20
00002F92  6361                     bls        +0x63 /* 00002FF5 */
00002F94  7567                     moveq.l    D2, 0x67
00002F96  6874                     bvc        +0x76 /* 0000300C */
00002F98  2062                     movea.l    A0, -[A2]
00002F9A  7920                     moveq.l    D4, 0x20
00002F9C  7369                     moveq.l    D1, 0x69
00002F9E  676E                     beq        +0x70 /* 0000300E */
00002FA0  616C                     bsr        +0x6E /* 0000300E */
00002FA2  2068 616E                movea.l    A0, [A0 + 0x616E]
00002FA6  646C                     bcc        +0x6E /* 00003014 */
00002FA8  6572                     bcs        +0x74 /* 0000301C */
00002FAA  2E00                     move.l     D7, D0
fn00002FAC:
00002FAC  4E56 0000                link       A6, 0
// begin alternate branch 00002FAE-00002FBA
label00002FAE:
00002FAE  0000 2F2E                ori.b      D0, 0x2E /* '.' */
00002FB2  0008 206E                ori.b      A0, 0x6E /* 'n' */
00002FB6  000C 4E90                ori.b      A4, 0x90
// end alternate branch 00002FAE-00002FBA
label00002FAE: // (misaligned)
00002FB0  2F2E 0008                move.l     -[A7], [A6 + 0x8]
00002FB4  206E 000C                movea.l    A0, [A6 + 0xC]
00002FB8  4E90                     jsr        [A0]
00002FBA  4E5E                     unlink     A6
00002FBC  4E75                     rts
