# near model CODE resource
# jump table entries: 2736-2754 (19 of them)
export_342:
00000000  4E56 0000                link       A6, 0
00000004  4E5E                     unlink     A6
00000006  4E75                     rts
fn00000008:
00000008  4E56 0000                link       A6, 0
0000000C  4E5E                     unlink     A6
0000000E  4E75                     rts
fn00000010:
00000010  4E56 0000                link       A6, 0
00000014  48E7 0108                movem.l    -[A7], D7,A4
00000018  286E 0008                movea.l    A4, [A6 + 0x8]
0000001C  200C                     move.l     D0, A4
0000001E  6718                     beq        +0x1A /* 00000038 */
00000020  598F                     subq.l     A7, 4
00000022  2F0C                     move.l     -[A7], A4
00000024  4EAD 050A                jsr        [A5 + 0x50A /* export_157, CODE:3 @ 00002510 */]
00000028  2E1F                     move.l     D7, [A7]+
0000002A  4A78 0220                tst.w      [0x00000220 /* MemErr */]
0000002E  6604                     bne        +0x6 /* 00000034 */
00000030  7001                     moveq.l    D0, 0x01
00000032  6006                     bra        +0x8 /* 0000003A */
label00000034:
00000034  4EBA FFD2                jsr        [PC - 0x2E /* 00000008 */]
label00000038:
00000038  7000                     moveq.l    D0, 0x00
label0000003A:
0000003A  4CEE 1080 FFF8           movem.l    D7,A4, [A6 - 0x8]
00000040  4E5E                     unlink     A6
00000042  4E75                     rts
export_343:
fn00000044:
00000044  4E56 0000                link       A6, 0
00000048  2F0C                     move.l     -[A7], A4
0000004A  286E 0008                movea.l    A4, [A6 + 0x8]
0000004E  2F0C                     move.l     -[A7], A4
00000050  4EBA FFBE                jsr        [PC - 0x42 /* 00000010 */]
00000054  4A00                     tst.b      D0
00000056  584F                     addq.w     A7, 4
00000058  6704                     beq        +0x6 /* 0000005E */
0000005A  204C                     movea.l    A0, A4
0000005C  A023                     syscall    DisposHandle/DisposeHandle
label0000005E:
0000005E  286E FFFC                movea.l    A4, [A6 - 0x4]
00000062  4E5E                     unlink     A6
00000064  4E75                     rts
fn00000066:
00000066  4E56 0000                link       A6, 0
0000006A  2F0C                     move.l     -[A7], A4
0000006C  598F                     subq.l     A7, 4
0000006E  558F                     subq.l     A7, 2
00000070  3EB8 0900                move.w     [A7], [0x00000900 /* CurApRefNum */]
00000074  2F3C 5354 5223           move.l     -[A7], 0x53545223 /* 'STR#' */
0000007A  206E 0008                movea.l    A0, [A6 + 0x8]
0000007E  2F08                     move.l     -[A7], A0
00000080  4EAD 08DA                jsr        [A5 + 0x8DA /* export_279, CODE:4 @ 000003CE */]
00000084  285F                     movea.l    A4, [A7]+
00000086  200C                     move.l     D0, A4
00000088  6710                     beq        +0x12 /* 0000009A */
0000008A  4A2E 000F                tst.b      [A6 + 0xF]
0000008E  6706                     beq        +0x8 /* 00000096 */
00000090  204C                     movea.l    A0, A4
00000092  A049                     syscall    HPurge
00000094  6004                     bra        +0x6 /* 0000009A */
label00000096:
00000096  204C                     movea.l    A0, A4
00000098  A04A                     syscall    HNoPurge
label0000009A:
0000009A  286E FFFC                movea.l    A4, [A6 - 0x4]
0000009E  4E5E                     unlink     A6
000000A0  4E75                     rts
fn000000A2:
000000A2  4E56 0000                link       A6, 0
000000A6  48E7 0308                movem.l    -[A7], D6,D7,A4
000000AA  1C2E 000F                move.b     D6, [A6 + 0xF]
000000AE  3E2E 000A                move.w     D7, [A6 + 0xA]
000000B2  0C47 0001                cmpi.w     D7, 0x1
000000B6  6618                     bne        +0x1A /* 000000D0 */
000000B8  598F                     subq.l     A7, 4
000000BA  558F                     subq.l     A7, 2
000000BC  3EB8 0900                move.w     [A7], [0x00000900 /* CurApRefNum */]
000000C0  2F3C 5041 434B           move.l     -[A7], 0x5041434B /* 'PACK' */
000000C6  3F07                     move.w     -[A7], D7
000000C8  4EAD 08CA                jsr        [A5 + 0x8CA /* export_277, CODE:4 @ 00000338 */]
000000CC  285F                     movea.l    A4, [A7]+
000000CE  600E                     bra        +0x10 /* 000000DE */
label000000D0:
000000D0  598F                     subq.l     A7, 4
000000D2  2F3C 5041 434B           move.l     -[A7], 0x5041434B /* 'PACK' */
000000D8  3F07                     move.w     -[A7], D7
000000DA  A9A0                     syscall    GetResource
000000DC  285F                     movea.l    A4, [A7]+
label000000DE:
000000DE  200C                     move.l     D0, A4
000000E0  671A                     beq        +0x1C /* 000000FC */
000000E2  4A94                     tst.l      [A4]
000000E4  6716                     beq        +0x18 /* 000000FC */
000000E6  4A06                     tst.b      D6
000000E8  6706                     beq        +0x8 /* 000000F0 */
000000EA  204C                     movea.l    A0, A4
000000EC  A049                     syscall    HPurge
000000EE  6014                     bra        +0x16 /* 00000104 */
label000000F0:
000000F0  2F0C                     move.l     -[A7], A4
000000F2  4EAD 0232                jsr        [A5 + 0x232 /* export_66, CODE:1 @ 00005914 */]
000000F6  204C                     movea.l    A0, A4
000000F8  A04A                     syscall    HNoPurge
000000FA  6008                     bra        +0xA /* 00000104 */
label000000FC:
000000FC  4A06                     tst.b      D6
000000FE  6604                     bne        +0x6 /* 00000104 */
00000100  7094                     moveq.l    D0, 0xFFFFFF94
00000102  6002                     bra        +0x4 /* 00000106 */
label00000104:
00000104  7000                     moveq.l    D0, 0x00
label00000106:
00000106  4CEE 10C0 FFF4           movem.l    D6,D7,A4, [A6 - 0xC]
0000010C  4E5E                     unlink     A6
0000010E  4E75                     rts
fn00000110:
00000110  4E56 0000                link       A6, 0
00000114  48E7 0108                movem.l    -[A7], D7,A4
00000118  1E2E 000F                move.b     D7, [A6 + 0xF]
0000011C  598F                     subq.l     A7, 4
0000011E  558F                     subq.l     A7, 2
00000120  3EB8 0900                move.w     [A7], [0x00000900 /* CurApRefNum */]
00000124  2F3C 434F 4445           move.l     -[A7], 0x434F4445 /* 'CODE' */
0000012A  2F2E 0008                move.l     -[A7], [A6 + 0x8]
0000012E  4EAD 08DA                jsr        [A5 + 0x8DA /* export_279, CODE:4 @ 000003CE */]
00000132  285F                     movea.l    A4, [A7]+
00000134  200C                     move.l     D0, A4
00000136  671A                     beq        +0x1C /* 00000152 */
00000138  4A94                     tst.l      [A4]
0000013A  6716                     beq        +0x18 /* 00000152 */
0000013C  4A07                     tst.b      D7
0000013E  6706                     beq        +0x8 /* 00000146 */
00000140  204C                     movea.l    A0, A4
00000142  A049                     syscall    HPurge
00000144  6014                     bra        +0x16 /* 0000015A */
label00000146:
00000146  2F0C                     move.l     -[A7], A4
00000148  4EAD 0232                jsr        [A5 + 0x232 /* export_66, CODE:1 @ 00005914 */]
0000014C  204C                     movea.l    A0, A4
0000014E  A04A                     syscall    HNoPurge
00000150  6008                     bra        +0xA /* 0000015A */
label00000152:
00000152  4A07                     tst.b      D7
00000154  6604                     bne        +0x6 /* 0000015A */
00000156  7094                     moveq.l    D0, 0xFFFFFF94
00000158  6002                     bra        +0x4 /* 0000015C */
label0000015A:
0000015A  7000                     moveq.l    D0, 0x00
label0000015C:
0000015C  4CEE 1080 FFF8           movem.l    D7,A4, [A6 - 0x8]
00000162  4E5E                     unlink     A6
00000164  4E75                     rts
fn00000166:
00000166  4E56 0000                link       A6, 0
0000016A  48E7 0300                movem.l    -[A7], D6,D7
0000016E  1C2E 000F                move.b     D6, [A6 + 0xF]
00000172  6706                     beq        +0x8 /* 0000017A */
00000174  7000                     moveq.l    D0, 0x00
00000176  1F00                     move.b     -[A7], D0
00000178  A99B                     syscall    SetResLoad
label0000017A:
0000017A  7000                     moveq.l    D0, 0x00
0000017C  1006                     move.b     D0, D6
0000017E  2F00                     move.l     -[A7], D0
00000180  487A 0074                pea.l      [PC + 0x74 /* 000001F6, value 0xC426974, pstring "BitTool Undo" */]
00000184  4EBA FEE0                jsr        [PC - 0x120 /* 00000066 */]
00000188  7000                     moveq.l    D0, 0x00
0000018A  1006                     move.b     D0, D6
0000018C  2F00                     move.l     -[A7], D0
0000018E  7001                     moveq.l    D0, 0x01
00000190  2F00                     move.l     -[A7], D0
00000192  4EBA FF0E                jsr        [PC - 0xF2 /* 000000A2 */]
00000196  3E00                     move.w     D7, D0
00000198  4FEF 0010                lea.l      A7, [A7 + 0x10]
0000019C  6612                     bne        +0x14 /* 000001B0 */
0000019E  7000                     moveq.l    D0, 0x00
000001A0  1006                     move.b     D0, D6
000001A2  2F00                     move.l     -[A7], D0
000001A4  7000                     moveq.l    D0, 0x00
000001A6  2F00                     move.l     -[A7], D0
000001A8  4EBA FEF8                jsr        [PC - 0x108 /* 000000A2 */]
000001AC  3E00                     move.w     D7, D0
000001AE  504F                     addq.w     A7, 8
label000001B0:
000001B0  4A47                     tst.w      D7
000001B2  6622                     bne        +0x24 /* 000001D6 */
000001B4  4A2E 000B                tst.b      [A6 + 0xB]
000001B8  6708                     beq        +0xA /* 000001C2 */
000001BA  7000                     moveq.l    D0, 0x00
000001BC  1006                     move.b     D0, D6
000001BE  4A80                     tst.l      D0
000001C0  6002                     bra        +0x4 /* 000001C4 */
label000001C2:
000001C2  7001                     moveq.l    D0, 0x01
label000001C4:
000001C4  7200                     moveq.l    D1, 0x00
000001C6  1200                     move.b     D1, D0
000001C8  2F01                     move.l     -[A7], D1
000001CA  487A 001C                pea.l      [PC + 0x1C /* 000001E8, value 0xC426974, pstring "BitToolColor" */]
000001CE  4EBA FF40                jsr        [PC - 0xC0 /* 00000110 */]
000001D2  3E00                     move.w     D7, D0
000001D4  504F                     addq.w     A7, 8
label000001D6:
000001D6  7001                     moveq.l    D0, 0x01
000001D8  1F00                     move.b     -[A7], D0
000001DA  A99B                     syscall    SetResLoad
000001DC  3007                     move.w     D0, D7
000001DE  4CEE 00C0 FFF8           movem.l    D6,D7, [A6 - 0x8]
000001E4  4E5E                     unlink     A6
000001E6  4E75                     rts
000001E8  0C42 6974                cmpi.w     D2, 0x6974 /* 'it' */
000001EC  546F 6F6C                addq.w     [A7 + 0x6F6C], 2
000001F0  436F 6C6F                chk.w      D1, [A7 + 0x6C6F]
000001F4  7200                     moveq.l    D1, 0x00
000001F6  0C42 6974                cmpi.w     D2, 0x6974 /* 'it' */
000001FA  546F 6F6C                addq.w     [A7 + 0x6F6C], 2
000001FE  2055                     movea.l    A0, [A5]
00000200  6E64                     bgt        +0x66 /* 00000266 */
00000202  6F00 4E56                ble        +0x4E58 /* 0000505A */
// begin alternate branch 00000204-0000020C
fn00000204:
00000204  4E56 0000                link       A6, 0
00000208  48E7 0718                movem.l    -[A7], D5,D6,D7,A3,A4
// end alternate branch 00000204-0000020C
fn00000204: // (misaligned)
00000206  0000 48E7                ori.b      D0, 0xE7
0000020A  0718                     btst       [A0]+, D3
0000020C  598F                     subq.l     A7, 4
0000020E  558F                     subq.l     A7, 2
00000210  3EB8 0900                move.w     [A7], [0x00000900 /* CurApRefNum */]
00000214  2F3C 5052 4546           move.l     -[A7], 0x50524546 /* 'PREF' */
0000021A  3F3C 0C1C                move.w     -[A7], 0xC1C
0000021E  4EAD 08CA                jsr        [A5 + 0x8CA /* export_277, CODE:4 @ 00000338 */]
00000222  2657                     movea.l    A3, [A7]
00000224  A992                     syscall    DetachResource
00000226  558F                     subq.l     A7, 2
00000228  A9AF                     syscall    ResError
0000022A  3C1F                     move.w     D6, [A7]+
0000022C  666C                     bne        +0x6E /* 0000029A */
0000022E  4EAD 0222                jsr        [A5 + 0x222 /* export_64, CODE:1 @ 0000588C */]
00000232  598F                     subq.l     A7, 4
00000234  558F                     subq.l     A7, 2
00000236  A994                     syscall    CurResFile
00000238  2F3C 5052 4546           move.l     -[A7], 0x50524546 /* 'PREF' */
0000023E  3F3C 0C1C                move.w     -[A7], 0xC1C
00000242  4EAD 08CA                jsr        [A5 + 0x8CA /* export_277, CODE:4 @ 00000338 */]
00000246  285F                     movea.l    A4, [A7]+
00000248  200C                     move.l     D0, A4
0000024A  6744                     beq        +0x46 /* 00000290 */
0000024C  598F                     subq.l     A7, 4
0000024E  2F0B                     move.l     -[A7], A3
00000250  4EAD 050A                jsr        [A5 + 0x50A /* export_157, CODE:3 @ 00002510 */]
00000254  201F                     move.l     D0, [A7]+
00000256  3A00                     move.w     D5, D0
00000258  598F                     subq.l     A7, 4
0000025A  2F0C                     move.l     -[A7], A4
0000025C  4EAD 050A                jsr        [A5 + 0x50A /* export_157, CODE:3 @ 00002510 */]
00000260  201F                     move.l     D0, [A7]+
00000262  3E00                     move.w     D7, D0
00000264  BA47                     cmp.w      D5, D7
label00000266:
00000266  6C02                     bge        +0x4 /* 0000026A */
00000268  3E05                     move.w     D7, D5
label0000026A:
0000026A  2054                     movea.l    A0, [A4]
0000026C  7002                     moveq.l    D0, 0x02
0000026E  B050                     cmp.w      D0, [A0]
00000270  6F0A                     ble        +0xC /* 0000027C */
00000272  2253                     movea.l    A1, [A3]
00000274  1368 0002 0002           move.b     [A1 + 0x2], [A0 + 0x2]
0000027A  6010                     bra        +0x12 /* 0000028C */
label0000027C:
0000027C  2054                     movea.l    A0, [A4]
0000027E  5488                     addq.l     A0, 2
00000280  2253                     movea.l    A1, [A3]
00000282  5489                     addq.l     A1, 2
00000284  48C7                     ext.l      D7
00000286  2007                     move.l     D0, D7
00000288  5580                     subq.l     D0, 2
0000028A  A02E                     syscall    BlockMove/BlockMoveData
label0000028C:
0000028C  2F0C                     move.l     -[A7], A4
0000028E  A9A3                     syscall    ReleaseResource
label00000290:
00000290  206E 0008                movea.l    A0, [A6 + 0x8]
00000294  2050                     movea.l    A0, [A0]
00000296  214B 005C                move.l     [A0 + 0x5C], A3
label0000029A:
0000029A  3006                     move.w     D0, D6
0000029C  4CEE 18E0 FFEC           movem.l    D5,D6,D7,A3,A4, [A6 - 0x14]
000002A2  4E5E                     unlink     A6
000002A4  4E75                     rts
fn000002A6:
000002A6  4E56 FFF4                link       A6, -0x000C
000002AA  2F0C                     move.l     -[A7], A4
000002AC  486E FFF8                pea.l      [A6 - 0x8]
000002B0  7000                     moveq.l    D0, 0x00
000002B2  3F00                     move.w     -[A7], D0
000002B4  3F00                     move.w     -[A7], D0
000002B6  720A                     moveq.l    D1, 0x0A
000002B8  3F01                     move.w     -[A7], D1
000002BA  3F01                     move.w     -[A7], D1
000002BC  A8A7                     syscall    SetRect
000002BE  598F                     subq.l     A7, 4
000002C0  7000                     moveq.l    D0, 0x00
000002C2  2F00                     move.l     -[A7], D0
000002C4  486E FFF8                pea.l      [A6 - 0x8]
000002C8  487A 004A                pea.l      [PC + 0x4A /* 00000314, value 0x4E56 'NV', cstring "" */]
000002CC  7200                     moveq.l    D1, 0x00
000002CE  1F01                     move.b     -[A7], D1
000002D0  7000                     moveq.l    D0, 0x00
000002D2  3F00                     move.w     -[A7], D0
000002D4  70FF                     moveq.l    D0, 0xFFFFFFFF
000002D6  2F00                     move.l     -[A7], D0
000002D8  1F01                     move.b     -[A7], D1
000002DA  7000                     moveq.l    D0, 0x00
000002DC  2F00                     move.l     -[A7], D0
000002DE  A913                     syscall    NewWindow
000002E0  285F                     movea.l    A4, [A7]+
000002E2  200C                     move.l     D0, A4
000002E4  6726                     beq        +0x28 /* 0000030C */
000002E6  486E FFF4                pea.l      [A6 - 0xC]
000002EA  A874                     syscall    GetPort
000002EC  2F0C                     move.l     -[A7], A4
000002EE  A873                     syscall    SetPort
000002F0  7009                     moveq.l    D0, 0x09
000002F2  3F00                     move.w     -[A7], D0
000002F4  A88A                     syscall    TextSize
000002F6  206E 0008                movea.l    A0, [A6 + 0x8]
000002FA  2050                     movea.l    A0, [A0]
000002FC  4868 00B8                pea.l      [A0 + 0xB8]
00000300  A88B                     syscall    GetFontInfo
00000302  2F2E FFF4                move.l     -[A7], [A6 - 0xC]
00000306  A873                     syscall    SetPort
00000308  2F0C                     move.l     -[A7], A4
0000030A  A914                     syscall    DisposeWindow
label0000030C:
0000030C  286E FFF0                movea.l    A4, [A6 - 0x10]
00000310  4E5E                     unlink     A6
00000312  4E75                     rts
00000314  0000 4E56                ori.b      D0, 0x56 /* 'V' */
// begin alternate branch 00000316-0000031E
export_344:
00000316  4E56 0000                link       A6, 0
0000031A  48E7 0718                movem.l    -[A7], D5,D6,D7,A3,A4
// end alternate branch 00000316-0000031E
export_344: // at 00000316 (misaligned)
00000318  0000 48E7                ori.b      D0, 0xE7
0000031C  0718                     btst       [A0]+, D3
0000031E  266E 0008                movea.l    A3, [A6 + 0x8]
00000322  3A2E 000C                move.w     D5, [A6 + 0xC]
00000326  7000                     moveq.l    D0, 0x00
00000328  2680                     move.l     [A3], D0
0000032A  203C 0000 00D6           move.l     D0, 0xD6
00000330  A322                     syscall    NewHandleClear, flags=3
00000332  2688                     move.l     [A3], A0
00000334  3C38 0220                move.w     D6, [0x00000220 /* MemErr */]
00000338  6708                     beq        +0xA /* 00000342 */
0000033A  3D46 000E                move.w     [A6 + 0xE], D6
0000033E  6000 009A                bra        +0x9C /* 000003DA */
label00000342:
00000342  2053                     movea.l    A0, [A3]
00000344  2050                     movea.l    A0, [A0]
00000346  317C 0001 0072           move.w     [A0 + 0x72], 0x1
0000034C  3005                     move.w     D0, D5
0000034E  48C0                     ext.l      D0
00000350  E580                     asl        D0, 2
00000352  5480                     addq.l     D0, 2
00000354  A322                     syscall    NewHandleClear, flags=3
00000356  2848                     movea.l    A4, A0
00000358  3C38 0220                move.w     D6, [0x00000220 /* MemErr */]
0000035C  670A                     beq        +0xC /* 00000368 */
0000035E  2053                     movea.l    A0, [A3]
00000360  A023                     syscall    DisposHandle/DisposeHandle
00000362  3D46 000E                move.w     [A6 + 0xE], D6
00000366  6072                     bra        +0x74 /* 000003DA */
label00000368:
00000368  2053                     movea.l    A0, [A3]
0000036A  2050                     movea.l    A0, [A0]
0000036C  214C 0004                move.l     [A0 + 0x4], A4
00000370  3005                     move.w     D0, D5
00000372  5340                     subq.w     D0, 1
00000374  2054                     movea.l    A0, [A4]
00000376  3080                     move.w     [A0], D0
00000378  4247                     clr.w      D7
0000037A  6016                     bra        +0x18 /* 00000392 */
label0000037C:
0000037C  7066                     moveq.l    D0, 0x66
0000037E  A322                     syscall    NewHandleClear, flags=3
00000380  48C7                     ext.l      D7
00000382  2254                     movea.l    A1, [A4]
00000384  2007                     move.l     D0, D7
00000386  E580                     asl        D0, 2
00000388  2388 0802                move.l     [A1 + D0 + 0x2], A0
0000038C  3C38 0220                move.w     D6, [0x00000220 /* MemErr */]
00000390  5247                     addq.w     D7, 1
label00000392:
00000392  BA47                     cmp.w      D5, D7
00000394  6F04                     ble        +0x6 /* 0000039A */
00000396  4A46                     tst.w      D6
00000398  67E2                     beq        -0x1C /* 0000037C */
label0000039A:
0000039A  4A46                     tst.w      D6
0000039C  671E                     beq        +0x20 /* 000003BC */
0000039E  6010                     bra        +0x12 /* 000003B0 */
label000003A0:
000003A0  5347                     subq.w     D7, 1
000003A2  3007                     move.w     D0, D7
000003A4  48C0                     ext.l      D0
000003A6  2054                     movea.l    A0, [A4]
000003A8  E580                     asl        D0, 2
000003AA  2070 0802                movea.l    A0, [A0 + D0 + 0x2]
000003AE  A023                     syscall    DisposHandle/DisposeHandle
label000003B0:
000003B0  4A47                     tst.w      D7
000003B2  6EEC                     bgt        -0x12 /* 000003A0 */
000003B4  204C                     movea.l    A0, A4
000003B6  A023                     syscall    DisposHandle/DisposeHandle
000003B8  2053                     movea.l    A0, [A3]
000003BA  A023                     syscall    DisposHandle/DisposeHandle
label000003BC:
000003BC  4A46                     tst.w      D6
000003BE  660A                     bne        +0xC /* 000003CA */
000003C0  2F13                     move.l     -[A7], [A3]
000003C2  4EBA FE40                jsr        [PC - 0x1C0 /* 00000204 */]
000003C6  3C00                     move.w     D6, D0
000003C8  584F                     addq.w     A7, 4
label000003CA:
000003CA  4A46                     tst.w      D6
000003CC  6608                     bne        +0xA /* 000003D6 */
000003CE  2F13                     move.l     -[A7], [A3]
000003D0  4EBA FED4                jsr        [PC - 0x12C /* 000002A6 */]
000003D4  584F                     addq.w     A7, 4
label000003D6:
000003D6  3D46 000E                move.w     [A6 + 0xE], D6
label000003DA:
000003DA  4CEE 18E0 FFEC           movem.l    D5,D6,D7,A3,A4, [A6 - 0x14]
000003E0  4E5E                     unlink     A6
000003E2  205F                     movea.l    A0, [A7]+
000003E4  5C4F                     addq.w     A7, 6
000003E6  4ED0                     jmp        [A0]
fn000003E8:
000003E8  4E56 0000                link       A6, 0
000003EC  2F0C                     move.l     -[A7], A4
000003EE  286E 000C                movea.l    A4, [A6 + 0xC]
000003F2  200C                     move.l     D0, A4
000003F4  671E                     beq        +0x20 /* 00000414 */
000003F6  206E 0010                movea.l    A0, [A6 + 0x10]
000003FA  2050                     movea.l    A0, [A0]
000003FC  4A28 0062                tst.b      [A0 + 0x62]
00000400  6706                     beq        +0x8 /* 00000408 */
00000402  3F2E 000A                move.w     -[A7], [A6 + 0xA]
00000406  A936                     syscall    DeleteMenu
label00000408:
00000408  204C                     movea.l    A0, A4
0000040A  A023                     syscall    DisposHandle/DisposeHandle
0000040C  7000                     moveq.l    D0, 0x00
0000040E  1F00                     move.b     -[A7], D0
00000410  4EAD 003A                jsr        [A5 + 0x3A /* export_3, CODE:1 @ 00000054 */]
label00000414:
00000414  286E FFFC                movea.l    A4, [A6 - 0x4]
00000418  4E5E                     unlink     A6
0000041A  4E75                     rts
export_345:
0000041C  4E56 FFF8                link       A6, -0x0008
00000420  48E7 0318                movem.l    -[A7], D6,D7,A3,A4
00000424  286E 0008                movea.l    A4, [A6 + 0x8]
00000428  7000                     moveq.l    D0, 0x00
0000042A  2F00                     move.l     -[A7], D0
0000042C  2F00                     move.l     -[A7], D0
0000042E  4EBA FD36                jsr        [PC - 0x2CA /* 00000166 */]
00000432  3C00                     move.w     D6, D0
00000434  2054                     movea.l    A0, [A4]
00000436  4AA8 0004                tst.l      [A0 + 0x4]
0000043A  504F                     addq.w     A7, 8
0000043C  6758                     beq        +0x5A /* 00000496 */
0000043E  2D68 0004 FFFC           move.l     [A6 - 0x4], [A0 + 0x4]
00000444  4247                     clr.w      D7
00000446  603C                     bra        +0x3E /* 00000484 */
label00000448:
00000448  48C7                     ext.l      D7
0000044A  206E FFFC                movea.l    A0, [A6 - 0x4]
0000044E  2050                     movea.l    A0, [A0]
00000450  2007                     move.l     D0, D7
00000452  E580                     asl        D0, 2
00000454  2670 0802                movea.l    A3, [A0 + D0 + 0x2]
00000458  200B                     move.l     D0, A3
0000045A  6726                     beq        +0x28 /* 00000482 */
0000045C  2053                     movea.l    A0, [A3]
0000045E  2D68 003E FFF8           move.l     [A6 - 0x8], [A0 + 0x3E]
00000464  670C                     beq        +0xE /* 00000472 */
00000466  4A46                     tst.w      D6
00000468  6608                     bne        +0xA /* 00000472 */
0000046A  2F2E FFF8                move.l     -[A7], [A6 - 0x8]
0000046E  4EAD 0852                jsr        [A5 + 0x852 /* export_262, CODE:3 @ 00003C78 */]
label00000472:
00000472  2053                     movea.l    A0, [A3]
00000474  2F28 005C                move.l     -[A7], [A0 + 0x5C]
00000478  4EBA FBCA                jsr        [PC - 0x436 /* 00000044 */]
0000047C  204B                     movea.l    A0, A3
0000047E  A023                     syscall    DisposHandle/DisposeHandle
00000480  584F                     addq.w     A7, 4
label00000482:
00000482  5247                     addq.w     D7, 1
label00000484:
00000484  206E FFFC                movea.l    A0, [A6 - 0x4]
00000488  2050                     movea.l    A0, [A0]
0000048A  BE50                     cmp.w      D7, [A0]
0000048C  6FBA                     ble        -0x44 /* 00000448 */
0000048E  2054                     movea.l    A0, [A4]
00000490  2068 0004                movea.l    A0, [A0 + 0x4]
00000494  A023                     syscall    DisposHandle/DisposeHandle
label00000496:
00000496  2054                     movea.l    A0, [A4]
00000498  4AA8 00CA                tst.l      [A0 + 0xCA]
0000049C  672C                     beq        +0x2E /* 000004CA */
0000049E  2068 00CA                movea.l    A0, [A0 + 0xCA]
000004A2  2050                     movea.l    A0, [A0]
000004A4  2F28 0104                move.l     -[A7], [A0 + 0x104]
000004A8  A92D                     syscall    CloseWindow
000004AA  2054                     movea.l    A0, [A4]
000004AC  2068 00CA                movea.l    A0, [A0 + 0xCA]
000004B0  2050                     movea.l    A0, [A0]
000004B2  2F28 0104                move.l     -[A7], [A0 + 0x104]
000004B6  4EAD 0122                jsr        [A5 + 0x122 /* export_32, CODE:1 @ 000032AC */]
000004BA  2054                     movea.l    A0, [A4]
000004BC  2068 00CA                movea.l    A0, [A0 + 0xCA]
000004C0  A023                     syscall    DisposHandle/DisposeHandle
000004C2  2054                     movea.l    A0, [A4]
000004C4  7000                     moveq.l    D0, 0x00
000004C6  2140 00CA                move.l     [A0 + 0xCA], D0
label000004CA:
000004CA  2054                     movea.l    A0, [A4]
000004CC  4AA8 00C6                tst.l      [A0 + 0xC6]
000004D0  672C                     beq        +0x2E /* 000004FE */
000004D2  2068 00C6                movea.l    A0, [A0 + 0xC6]
000004D6  2050                     movea.l    A0, [A0]
000004D8  2F28 0104                move.l     -[A7], [A0 + 0x104]
000004DC  A92D                     syscall    CloseWindow
000004DE  2054                     movea.l    A0, [A4]
000004E0  2068 00C6                movea.l    A0, [A0 + 0xC6]
000004E4  2050                     movea.l    A0, [A0]
000004E6  2F28 0104                move.l     -[A7], [A0 + 0x104]
000004EA  4EAD 0122                jsr        [A5 + 0x122 /* export_32, CODE:1 @ 000032AC */]
000004EE  2054                     movea.l    A0, [A4]
000004F0  2068 00C6                movea.l    A0, [A0 + 0xC6]
000004F4  A023                     syscall    DisposHandle/DisposeHandle
000004F6  2054                     movea.l    A0, [A4]
000004F8  7000                     moveq.l    D0, 0x00
000004FA  2140 00C6                move.l     [A0 + 0xC6], D0
label000004FE:
000004FE  2054                     movea.l    A0, [A4]
00000500  4AA8 006C                tst.l      [A0 + 0x6C]
00000504  6748                     beq        +0x4A /* 0000054E */
00000506  4247                     clr.w      D7
00000508  602E                     bra        +0x30 /* 00000538 */
label0000050A:
0000050A  48C7                     ext.l      D7
0000050C  2054                     movea.l    A0, [A4]
0000050E  2068 006C                movea.l    A0, [A0 + 0x6C]
00000512  2050                     movea.l    A0, [A0]
00000514  2007                     move.l     D0, D7
00000516  E580                     asl        D0, 2
00000518  2670 0800                movea.l    A3, [A0 + D0]
0000051C  200B                     move.l     D0, A3
0000051E  6716                     beq        +0x18 /* 00000536 */
00000520  0C47 0006                cmpi.w     D7, 0x6
00000524  670C                     beq        +0xE /* 00000532 */
00000526  2053                     movea.l    A0, [A3]
00000528  2F28 000C                move.l     -[A7], [A0 + 0xC]
0000052C  4EBA FB16                jsr        [PC - 0x4EA /* 00000044 */]
00000530  584F                     addq.w     A7, 4
label00000532:
00000532  204B                     movea.l    A0, A3
00000534  A023                     syscall    DisposHandle/DisposeHandle
label00000536:
00000536  5247                     addq.w     D7, 1
label00000538:
00000538  48C7                     ext.l      D7
0000053A  2054                     movea.l    A0, [A4]
0000053C  3028 006A                move.w     D0, [A0 + 0x6A]
00000540  48C0                     ext.l      D0
00000542  5C80                     addq.l     D0, 6
00000544  B087                     cmp.l      D0, D7
00000546  6CC2                     bge        -0x3C /* 0000050A */
00000548  2068 006C                movea.l    A0, [A0 + 0x6C]
0000054C  A023                     syscall    DisposHandle/DisposeHandle
label0000054E:
0000054E  2054                     movea.l    A0, [A4]
00000550  2F28 0074                move.l     -[A7], [A0 + 0x74]
00000554  4EBA FAEE                jsr        [PC - 0x512 /* 00000044 */]
00000558  2054                     movea.l    A0, [A4]
0000055A  4AA8 009C                tst.l      [A0 + 0x9C]
0000055E  584F                     addq.w     A7, 4
00000560  6716                     beq        +0x18 /* 00000578 */
00000562  4A46                     tst.w      D6
00000564  660A                     bne        +0xC /* 00000570 */
00000566  2F28 009C                move.l     -[A7], [A0 + 0x9C]
0000056A  3F3C 0028                move.w     -[A7], 0x28 /* '(' */
0000056E  A9E7                     syscall    Pack0/ListManager
label00000570:
00000570  2054                     movea.l    A0, [A4]
00000572  2068 00A0                movea.l    A0, [A0 + 0xA0]
00000576  A023                     syscall    DisposHandle/DisposeHandle
label00000578:
00000578  2054                     movea.l    A0, [A4]
0000057A  4AA8 0084                tst.l      [A0 + 0x84]
0000057E  6708                     beq        +0xA /* 00000588 */
00000580  2F0C                     move.l     -[A7], A4
00000582  4EBA 0922                jsr        [PC + 0x922 /* 00000EA6 */]
00000586  584F                     addq.w     A7, 4
label00000588:
00000588  2054                     movea.l    A0, [A4]
0000058A  2F28 008A                move.l     -[A7], [A0 + 0x8A]
0000058E  4EBA FAB4                jsr        [PC - 0x54C /* 00000044 */]
00000592  2F0C                     move.l     -[A7], A4
00000594  2054                     movea.l    A0, [A4]
00000596  2F28 0090                move.l     -[A7], [A0 + 0x90]
0000059A  4878 0C1C                push.l     0xC1C
0000059E  4EBA FE48                jsr        [PC - 0x1B8 /* 000003E8 */]
000005A2  2F0C                     move.l     -[A7], A4
000005A4  2054                     movea.l    A0, [A4]
000005A6  2F28 0094                move.l     -[A7], [A0 + 0x94]
000005AA  4878 0C20                push.l     0xC20
000005AE  4EBA FE38                jsr        [PC - 0x1C8 /* 000003E8 */]
000005B2  2F0C                     move.l     -[A7], A4
000005B4  2054                     movea.l    A0, [A4]
000005B6  2F28 0098                move.l     -[A7], [A0 + 0x98]
000005BA  4878 0C21                push.l     0xC21
000005BE  4EBA FE28                jsr        [PC - 0x1D8 /* 000003E8 */]
000005C2  2054                     movea.l    A0, [A4]
000005C4  2F28 005C                move.l     -[A7], [A0 + 0x5C]
000005C8  4EBA FA7A                jsr        [PC - 0x586 /* 00000044 */]
000005CC  2054                     movea.l    A0, [A4]
000005CE  2F28 0008                move.l     -[A7], [A0 + 0x8]
000005D2  4EBA FA70                jsr        [PC - 0x590 /* 00000044 */]
000005D6  2054                     movea.l    A0, [A4]
000005D8  2F28 000C                move.l     -[A7], [A0 + 0xC]
000005DC  4EBA FA66                jsr        [PC - 0x59A /* 00000044 */]
000005E0  7001                     moveq.l    D0, 0x01
000005E2  2F00                     move.l     -[A7], D0
000005E4  2054                     movea.l    A0, [A4]
000005E6  7200                     moveq.l    D1, 0x00
000005E8  1228 0060                move.b     D1, [A0 + 0x60]
000005EC  2F01                     move.l     -[A7], D1
000005EE  4EBA FB76                jsr        [PC - 0x48A /* 00000166 */]
000005F2  70FF                     moveq.l    D0, 0xFFFFFFFF
000005F4  3F00                     move.w     -[A7], D0
000005F6  4EAD 0182                jsr        [A5 + 0x182 /* export_44, CODE:1 @ 00003B34 */]
000005FA  2054                     movea.l    A0, [A4]
000005FC  4AA8 00D2                tst.l      [A0 + 0xD2]
00000600  4FEF 003C                lea.l      A7, [A7 + 0x3C]
00000604  672E                     beq        +0x30 /* 00000634 */
00000606  4AA8 00CE                tst.l      [A0 + 0xCE]
0000060A  6728                     beq        +0x2A /* 00000634 */
0000060C  4A6D F7C6                tst.w      [A5 - 0x83A]
00000610  661A                     bne        +0x1C /* 0000062C */
00000612  0C6D 0700 F7CC           cmpi.w     [A5 - 0x834], 0x700
00000618  6C12                     bge        +0x14 /* 0000062C */
0000061A  7000                     moveq.l    D0, 0x00
0000061C  2F00                     move.l     -[A7], D0
0000061E  2F38 09EE                move.l     -[A7], [0x000009EE /* GrayRgn */]
00000622  A90C                     syscall    PaintOne
00000624  2054                     movea.l    A0, [A4]
00000626  2F28 00C2                move.l     -[A7], [A0 + 0xC2]
0000062A  A873                     syscall    SetPort
label0000062C:
0000062C  2054                     movea.l    A0, [A4]
0000062E  2F28 00D2                move.l     -[A7], [A0 + 0xD2]
00000632  AA93                     syscall    DisposePalette
label00000634:
00000634  204C                     movea.l    A0, A4
00000636  A023                     syscall    DisposHandle/DisposeHandle
00000638  4CEE 18C0 FFE8           movem.l    D6,D7,A3,A4, [A6 - 0x18]
0000063E  4E5E                     unlink     A6
00000640  2E9F                     move.l     [A7], [A7]+
00000642  4E75                     rts
fn00000644:
00000644  4E56 0000                link       A6, 0
00000648  2F0C                     move.l     -[A7], A4
0000064A  286E 0008                movea.l    A4, [A6 + 0x8]
0000064E  2F0C                     move.l     -[A7], A4
00000650  7000                     moveq.l    D0, 0x00
00000652  3F00                     move.w     -[A7], D0
00000654  3F00                     move.w     -[A7], D0
00000656  3F2E 0016                move.w     -[A7], [A6 + 0x16]
0000065A  3F2E 001A                move.w     -[A7], [A6 + 0x1A]
0000065E  A8A7                     syscall    SetRect
00000660  2F0C                     move.l     -[A7], A4
00000662  3F2E 000E                move.w     -[A7], [A6 + 0xE]
00000666  3F2E 0012                move.w     -[A7], [A6 + 0x12]
0000066A  A8A8                     syscall    OffsetRect
0000066C  286E FFFC                movea.l    A4, [A6 - 0x4]
00000670  4E5E                     unlink     A6
00000672  4E75                     rts
fn00000674:
00000674  4E56 FFFC                link       A6, -0x0004
00000678  48E7 1300                movem.l    -[A7], D3,D6,D7
0000067C  302E 000E                move.w     D0, [A6 + 0xE]
00000680  48C0                     ext.l      D0
00000682  322E 000A                move.w     D1, [A6 + 0xA]
00000686  48C1                     ext.l      D1
00000688  2C00                     move.l     D6, D0
0000068A  9C81                     sub.l      D6, D1
0000068C  302E 000C                move.w     D0, [A6 + 0xC]
00000690  48C0                     ext.l      D0
00000692  322E 0008                move.w     D1, [A6 + 0x8]
00000696  48C1                     ext.l      D1
00000698  2E00                     move.l     D7, D0
0000069A  9E81                     sub.l      D7, D1
0000069C  0C46 0020                cmpi.w     D6, 0x20 /* ' ' */
000006A0  5EC3                     sgt        D3
000006A2  4403                     neg.b      D3
000006A4  2D43 FFFC                move.l     [A6 - 0x4], D3
000006A8  0C47 0020                cmpi.w     D7, 0x20 /* ' ' */
000006AC  5EC3                     sgt        D3
000006AE  4403                     neg.b      D3
000006B0  202E FFFC                move.l     D0, [A6 - 0x4]
000006B4  8600                     or.b       D3, D0
000006B6  4A03                     tst.b      D3
000006B8  6704                     beq        +0x6 /* 000006BE */
000006BA  7004                     moveq.l    D0, 0x04
000006BC  6002                     bra        +0x4 /* 000006C0 */
label000006BE:
000006BE  7008                     moveq.l    D0, 0x08
label000006C0:
000006C0  4CEE 00C8 FFF0           movem.l    D3,D6,D7, [A6 - 0x10]
000006C6  4E5E                     unlink     A6
000006C8  4E75                     rts
fn000006CA:
000006CA  4E56 0000                link       A6, 0
000006CE  48E7 0700                movem.l    -[A7], D5,D6,D7
000006D2  302E 000E                move.w     D0, [A6 + 0xE]
000006D6  48C0                     ext.l      D0
000006D8  322E 000A                move.w     D1, [A6 + 0xA]
000006DC  48C1                     ext.l      D1
000006DE  2A00                     move.l     D5, D0
000006E0  9A81                     sub.l      D5, D1
000006E2  302E 000C                move.w     D0, [A6 + 0xC]
000006E6  48C0                     ext.l      D0
000006E8  322E 0008                move.w     D1, [A6 + 0x8]
000006EC  48C1                     ext.l      D1
000006EE  2C00                     move.l     D6, D0
000006F0  9C81                     sub.l      D6, D1
000006F2  41EE 0010                lea.l      A0, [A6 + 0x10]
000006F6  2F20                     move.l     -[A7], -[A0]
000006F8  2F20                     move.l     -[A7], -[A0]
000006FA  4EBA FF78                jsr        [PC - 0x88 /* 00000674 */]
000006FE  3E00                     move.w     D7, D0
00000700  C1C6                     muls.w     D0, D6
00000702  5680                     addq.l     D0, 3
00000704  2F00                     move.l     -[A7], D0
00000706  3007                     move.w     D0, D7
00000708  C1C5                     muls.w     D0, D5
0000070A  5680                     addq.l     D0, 3
0000070C  2F00                     move.l     -[A7], D0
0000070E  7008                     moveq.l    D0, 0x08
00000710  2F00                     move.l     -[A7], D0
00000712  723B                     moveq.l    D1, 0x3B
00000714  2F01                     move.l     -[A7], D1
00000716  2F2E 0010                move.l     -[A7], [A6 + 0x10]
0000071A  4EBA FF28                jsr        [PC - 0xD8 /* 00000644 */]
0000071E  4CEE 00E0 FFF4           movem.l    D5,D6,D7, [A6 - 0xC]
00000724  4E5E                     unlink     A6
00000726  4E75                     rts
fn00000728:
00000728  4E56 0000                link       A6, 0
0000072C  48E7 0300                movem.l    -[A7], D6,D7
00000730  302E 000E                move.w     D0, [A6 + 0xE]
00000734  48C0                     ext.l      D0
00000736  322E 000A                move.w     D1, [A6 + 0xA]
0000073A  48C1                     ext.l      D1
0000073C  2C00                     move.l     D6, D0
0000073E  9C81                     sub.l      D6, D1
00000740  302E 000C                move.w     D0, [A6 + 0xC]
00000744  48C0                     ext.l      D0
00000746  322E 0008                move.w     D1, [A6 + 0x8]
0000074A  48C1                     ext.l      D1
0000074C  2E00                     move.l     D7, D0
0000074E  9E81                     sub.l      D7, D1
00000750  2F2E 0010                move.l     -[A7], [A6 + 0x10]
00000754  7000                     moveq.l    D0, 0x00
00000756  3F00                     move.w     -[A7], D0
00000758  3F00                     move.w     -[A7], D0
0000075A  3206                     move.w     D1, D6
0000075C  5841                     addq.w     D1, 4
0000075E  3F01                     move.w     -[A7], D1
00000760  3207                     move.w     D1, D7
00000762  5841                     addq.w     D1, 4
00000764  3F01                     move.w     -[A7], D1
00000766  A8A7                     syscall    SetRect
00000768  4CEE 00C0 FFF8           movem.l    D6,D7, [A6 - 0x8]
0000076E  4E5E                     unlink     A6
00000770  4E75                     rts
fn00000772:
00000772  4E56 FF00                link       A6, -0x0100
00000776  2F0C                     move.l     -[A7], A4
00000778  49EE FF00                lea.l      A4, [A6 - 0x100]
0000077C  3F2E 000A                move.w     -[A7], [A6 + 0xA]
00000780  2F2E 000C                move.l     -[A7], [A6 + 0xC]
00000784  2F0C                     move.l     -[A7], A4
00000786  4EAD 0282                jsr        [A5 + 0x282 /* export_76, CODE:1 @ 00005CDA */]
0000078A  598F                     subq.l     A7, 4
0000078C  2F0C                     move.l     -[A7], A4
0000078E  A906                     syscall    NewString
00000790  201F                     move.l     D0, [A7]+
00000792  286E FEFC                movea.l    A4, [A6 - 0x104]
00000796  4E5E                     unlink     A6
00000798  4E75                     rts
fn0000079A:
0000079A  4E56 0000                link       A6, 0
0000079E  48E7 0018                movem.l    -[A7], A3,A4
000007A2  266E 000C                movea.l    A3, [A6 + 0xC]
000007A6  2053                     movea.l    A0, [A3]
000007A8  4AA8 005C                tst.l      [A0 + 0x5C]
000007AC  6636                     bne        +0x38 /* 000007E4 */
000007AE  206E 0010                movea.l    A0, [A6 + 0x10]
000007B2  2050                     movea.l    A0, [A0]
000007B4  4AA8 000C                tst.l      [A0 + 0xC]
000007B8  672A                     beq        +0x2C /* 000007E4 */
000007BA  206E 0010                movea.l    A0, [A6 + 0x10]
000007BE  2050                     movea.l    A0, [A0]
000007C0  2868 000C                movea.l    A4, [A0 + 0xC]
000007C4  204C                     movea.l    A0, A4
000007C6  A029                     syscall    HLock
000007C8  2F14                     move.l     -[A7], [A4]
000007CA  302E 000A                move.w     D0, [A6 + 0xA]
000007CE  48C0                     ext.l      D0
000007D0  5280                     addq.l     D0, 1
000007D2  2F00                     move.l     -[A7], D0
000007D4  4EBA FF9C                jsr        [PC - 0x64 /* 00000772 */]
000007D8  2053                     movea.l    A0, [A3]
000007DA  2140 005C                move.l     [A0 + 0x5C], D0
000007DE  204C                     movea.l    A0, A4
000007E0  A02A                     syscall    HUnlock
000007E2  504F                     addq.w     A7, 8
label000007E4:
000007E4  4CEE 1800 FFF8           movem.l    A3,A4, [A6 - 0x8]
000007EA  4E5E                     unlink     A6
000007EC  4E75                     rts
export_346:
000007EE  4E56 FFEA                link       A6, -0x0016
000007F2  48E7 0F18                movem.l    -[A7], D4,D5,D6,D7,A3,A4
000007F6  4246                     clr.w      D6
000007F8  206E 0008                movea.l    A0, [A6 + 0x8]
000007FC  A029                     syscall    HLock
000007FE  206E 0008                movea.l    A0, [A6 + 0x8]
00000802  2650                     movea.l    A3, [A0]
00000804  4878 0094                push.l     0x94
00000808  702B                     moveq.l    D0, 0x2B
0000080A  2F00                     move.l     -[A7], D0
0000080C  7208                     moveq.l    D1, 0x08
0000080E  2F01                     move.l     -[A7], D1
00000810  2F01                     move.l     -[A7], D1
00000812  486B 001C                pea.l      [A3 + 0x1C]
00000816  4EBA FE2C                jsr        [PC - 0x1D4 /* 00000644 */]
0000081A  7012                     moveq.l    D0, 0x12
0000081C  2F00                     move.l     -[A7], D0
0000081E  722B                     moveq.l    D1, 0x2B
00000820  2F01                     move.l     -[A7], D1
00000822  4878 00A4                push.l     0xA4
00000826  7008                     moveq.l    D0, 0x08
00000828  2F00                     move.l     -[A7], D0
0000082A  486B 0034                pea.l      [A3 + 0x34]
0000082E  4EBA FE14                jsr        [PC - 0x1EC /* 00000644 */]
00000832  7014                     moveq.l    D0, 0x14
00000834  2F00                     move.l     -[A7], D0
00000836  721E                     moveq.l    D1, 0x1E
00000838  2F01                     move.l     -[A7], D1
0000083A  4878 00CB                push.l     0xCB
0000083E  7015                     moveq.l    D0, 0x15
00000840  2F00                     move.l     -[A7], D0
00000842  486B 002C                pea.l      [A3 + 0x2C]
00000846  4EBA FDFC                jsr        [PC - 0x204 /* 00000644 */]
0000084A  7014                     moveq.l    D0, 0x14
0000084C  2F00                     move.l     -[A7], D0
0000084E  721E                     moveq.l    D1, 0x1E
00000850  2F01                     move.l     -[A7], D1
00000852  4878 00BE                push.l     0xBE
00000856  7008                     moveq.l    D0, 0x08
00000858  2F00                     move.l     -[A7], D0
0000085A  486B 0024                pea.l      [A3 + 0x24]
0000085E  4EBA FDE4                jsr        [PC - 0x21C /* 00000644 */]
00000862  206B 0004                movea.l    A0, [A3 + 0x4]
00000866  A029                     syscall    HLock
00000868  206B 0004                movea.l    A0, [A3 + 0x4]
0000086C  2D50 FFF6                move.l     [A6 - 0xA], [A0]
00000870  486B 003C                pea.l      [A3 + 0x3C]
00000874  7000                     moveq.l    D0, 0x00
00000876  3F00                     move.w     -[A7], D0
00000878  3F00                     move.w     -[A7], D0
0000087A  3F00                     move.w     -[A7], D0
0000087C  3F00                     move.w     -[A7], D0
0000087E  A8A7                     syscall    SetRect
00000880  4247                     clr.w      D7
00000882  4FEF 0050                lea.l      A7, [A7 + 0x50]
00000886  6056                     bra        +0x58 /* 000008DE */
label00000888:
00000888  48C7                     ext.l      D7
0000088A  206E FFF6                movea.l    A0, [A6 - 0xA]
0000088E  2007                     move.l     D0, D7
00000890  E580                     asl        D0, 2
00000892  2870 0802                movea.l    A4, [A0 + D0 + 0x2]
00000896  200C                     move.l     D0, A4
00000898  6742                     beq        +0x44 /* 000008DC */
0000089A  2054                     movea.l    A0, [A4]
0000089C  4868 0054                pea.l      [A0 + 0x54]
000008A0  41E8 0010                lea.l      A0, [A0 + 0x10]
000008A4  2F20                     move.l     -[A7], -[A0]
000008A6  2F20                     move.l     -[A7], -[A0]
000008A8  4EBA FE20                jsr        [PC - 0x1E0 /* 000006CA */]
000008AC  558F                     subq.l     A7, 2
000008AE  486B 003C                pea.l      [A3 + 0x3C]
000008B2  A8AE                     syscall    EmptyRect
000008B4  4A1F                     tst.b      [A7]+
000008B6  4FEF 000C                lea.l      A7, [A7 + 0xC]
000008BA  6710                     beq        +0x12 /* 000008CC */
000008BC  2054                     movea.l    A0, [A4]
000008BE  43EB 003C                lea.l      A1, [A3 + 0x3C]
000008C2  41E8 0054                lea.l      A0, [A0 + 0x54]
000008C6  22D8                     move.l     [A1]+, [A0]+
000008C8  22D8                     move.l     [A1]+, [A0]+
000008CA  6010                     bra        +0x12 /* 000008DC */
label000008CC:
000008CC  486B 003C                pea.l      [A3 + 0x3C]
000008D0  2054                     movea.l    A0, [A4]
000008D2  4868 0054                pea.l      [A0 + 0x54]
000008D6  486B 003C                pea.l      [A3 + 0x3C]
000008DA  A8AB                     syscall    UnionRect
label000008DC:
000008DC  5247                     addq.w     D7, 1
label000008DE:
000008DE  206E FFF6                movea.l    A0, [A6 - 0xA]
000008E2  BE50                     cmp.w      D7, [A0]
000008E4  6FA2                     ble        -0x5C /* 00000888 */
000008E6  486E FFFC                pea.l      [A6 - 0x4]
000008EA  A874                     syscall    GetPort
000008EC  206E FFFC                movea.l    A0, [A6 - 0x4]
000008F0  3D68 004A FFFA           move.w     [A6 - 0x6], [A0 + 0x4A]
000008F6  7009                     moveq.l    D0, 0x09
000008F8  3F00                     move.w     -[A7], D0
000008FA  A88A                     syscall    TextSize
000008FC  4247                     clr.w      D7
000008FE  6000 00FA                bra        +0xFC /* 000009FA */
label00000902:
00000902  48C7                     ext.l      D7
00000904  206E FFF6                movea.l    A0, [A6 - 0xA]
00000908  2007                     move.l     D0, D7
0000090A  E580                     asl        D0, 2
0000090C  2870 0802                movea.l    A4, [A0 + D0 + 0x2]
00000910  200C                     move.l     D0, A4
00000912  6700 00E4                beq        +0xE6 /* 000009F8 */
00000916  2F2E 0008                move.l     -[A7], [A6 + 0x8]
0000091A  2F0C                     move.l     -[A7], A4
0000091C  48C7                     ext.l      D7
0000091E  2F07                     move.l     -[A7], D7
00000920  4EBA FE78                jsr        [PC - 0x188 /* 0000079A */]
00000924  2054                     movea.l    A0, [A4]
00000926  4AA8 005C                tst.l      [A0 + 0x5C]
0000092A  4FEF 000C                lea.l      A7, [A7 + 0xC]
0000092E  6700 00C8                beq        +0xCA /* 000009F8 */
00000932  558F                     subq.l     A7, 2
00000934  2054                     movea.l    A0, [A4]
00000936  2068 005C                movea.l    A0, [A0 + 0x5C]
0000093A  2F10                     move.l     -[A7], [A0]
0000093C  A88C                     syscall    StringWidth
0000093E  301F                     move.w     D0, [A7]+
00000940  48C0                     ext.l      D0
00000942  2D40 FFEA                move.l     [A6 - 0x16], D0
00000946  558F                     subq.l     A7, 2
00000948  7020                     moveq.l    D0, 0x20
0000094A  3F00                     move.w     -[A7], D0
0000094C  A88D                     syscall    CharWidth
0000094E  301F                     move.w     D0, [A7]+
00000950  48C0                     ext.l      D0
00000952  D080                     add.l      D0, D0
00000954  222E FFEA                move.l     D1, [A6 - 0x16]
00000958  2A00                     move.l     D5, D0
0000095A  DA81                     add.l      D5, D1
0000095C  558F                     subq.l     A7, 2
0000095E  2054                     movea.l    A0, [A4]
00000960  4868 0044                pea.l      [A0 + 0x44]
00000964  A8AE                     syscall    EmptyRect
00000966  4A1F                     tst.b      [A7]+
00000968  6718                     beq        +0x1A /* 00000982 */
0000096A  486E FFEE                pea.l      [A6 - 0x12]
0000096E  2054                     movea.l    A0, [A4]
00000970  41E8 0010                lea.l      A0, [A0 + 0x10]
00000974  2F20                     move.l     -[A7], -[A0]
00000976  2F20                     move.l     -[A7], -[A0]
00000978  4EBA FDAE                jsr        [PC - 0x252 /* 00000728 */]
0000097C  4FEF 000C                lea.l      A7, [A7 + 0xC]
00000980  6012                     bra        +0x14 /* 00000994 */
label00000982:
00000982  2054                     movea.l    A0, [A4]
00000984  43EE FFEE                lea.l      A1, [A6 - 0x12]
00000988  41E8 0044                lea.l      A0, [A0 + 0x44]
0000098C  22D8                     move.l     [A1]+, [A0]+
0000098E  22D8                     move.l     [A1]+, [A0]+
00000990  586E FFF4                addq.w     [A6 - 0xC], 4
label00000994:
00000994  2054                     movea.l    A0, [A4]
00000996  4AA8 0044                tst.l      [A0 + 0x44]
0000099A  663A                     bne        +0x3C /* 000009D6 */
0000099C  4868 004C                pea.l      [A0 + 0x4C]
000009A0  7000                     moveq.l    D0, 0x00
000009A2  3F00                     move.w     -[A7], D0
000009A4  3F00                     move.w     -[A7], D0
000009A6  3F05                     move.w     -[A7], D5
000009A8  322B 00BA                move.w     D1, [A3 + 0xBA]
000009AC  D26B 00B8                add.w      D1, [A3 + 0xB8]
000009B0  3F01                     move.w     -[A7], D1
000009B2  A8A7                     syscall    SetRect
000009B4  2054                     movea.l    A0, [A4]
000009B6  4868 004C                pea.l      [A0 + 0x4C]
000009BA  302E FFF4                move.w     D0, [A6 - 0xC]
000009BE  48C0                     ext.l      D0
000009C0  322E FFF0                move.w     D1, [A6 - 0x10]
000009C4  48C1                     ext.l      D1
000009C6  9081                     sub.l      D0, D1
000009C8  48C5                     ext.l      D5
000009CA  9085                     sub.l      D0, D5
000009CC  E280                     asr        D0, 1
000009CE  3F00                     move.w     -[A7], D0
000009D0  7002                     moveq.l    D0, 0x02
000009D2  3F00                     move.w     -[A7], D0
000009D4  A8A8                     syscall    OffsetRect
label000009D6:
000009D6  48C5                     ext.l      D5
000009D8  2005                     move.l     D0, D5
000009DA  5080                     addq.l     D0, 8
000009DC  322E FFF4                move.w     D1, [A6 - 0xC]
000009E0  48C1                     ext.l      D1
000009E2  342E FFF0                move.w     D2, [A6 - 0x10]
000009E6  48C2                     ext.l      D2
000009E8  9282                     sub.l      D1, D2
000009EA  7414                     moveq.l    D2, 0x14
000009EC  D282                     add.l      D1, D2
000009EE  3800                     move.w     D4, D0
000009F0  9841                     sub.w      D4, D1
000009F2  BC44                     cmp.w      D6, D4
000009F4  6C02                     bge        +0x4 /* 000009F8 */
000009F6  3C04                     move.w     D6, D4
label000009F8:
000009F8  5247                     addq.w     D7, 1
label000009FA:
000009FA  206E FFF6                movea.l    A0, [A6 - 0xA]
000009FE  BE50                     cmp.w      D7, [A0]
00000A00  6F00 FF00                ble        -0xFE /* 00000902 */
00000A04  3F2E FFFA                move.w     -[A7], [A6 - 0x6]
00000A08  A88A                     syscall    TextSize
00000A0A  7809                     moveq.l    D4, 0x09
00000A0C  4247                     clr.w      D7
00000A0E  6000 00BC                bra        +0xBE /* 00000ACC */
label00000A12:
00000A12  48C7                     ext.l      D7
00000A14  206E FFF6                movea.l    A0, [A6 - 0xA]
00000A18  2007                     move.l     D0, D7
00000A1A  E580                     asl        D0, 2
00000A1C  2870 0802                movea.l    A4, [A0 + D0 + 0x2]
00000A20  200C                     move.l     D0, A4
00000A22  6700 00A6                beq        +0xA8 /* 00000ACA */
00000A26  2054                     movea.l    A0, [A4]
00000A28  4AA8 0044                tst.l      [A0 + 0x44]
00000A2C  667E                     bne        +0x80 /* 00000AAC */
00000A2E  BE6E 000C                cmp.w      D7, [A6 + 0xC]
00000A32  6708                     beq        +0xA /* 00000A3C */
00000A34  70FF                     moveq.l    D0, 0xFFFFFFFF
00000A36  B06E 000C                cmp.w      D0, [A6 + 0xC]
00000A3A  6632                     bne        +0x34 /* 00000A6E */
label00000A3C:
00000A3C  558F                     subq.l     A7, 2
00000A3E  2054                     movea.l    A0, [A4]
00000A40  4868 0044                pea.l      [A0 + 0x44]
00000A44  A8AE                     syscall    EmptyRect
00000A46  4A1F                     tst.b      [A7]+
00000A48  6718                     beq        +0x1A /* 00000A62 */
00000A4A  2054                     movea.l    A0, [A4]
00000A4C  4868 0044                pea.l      [A0 + 0x44]
00000A50  41E8 0010                lea.l      A0, [A0 + 0x10]
00000A54  2F20                     move.l     -[A7], -[A0]
00000A56  2F20                     move.l     -[A7], -[A0]
00000A58  4EBA FCCE                jsr        [PC - 0x332 /* 00000728 */]
00000A5C  4FEF 000C                lea.l      A7, [A7 + 0xC]
00000A60  600C                     bra        +0xE /* 00000A6E */
label00000A62:
00000A62  2054                     movea.l    A0, [A4]
00000A64  5868 0048                addq.w     [A0 + 0x48], 4
00000A68  2054                     movea.l    A0, [A4]
00000A6A  5868 004A                addq.w     [A0 + 0x4A], 4
label00000A6E:
00000A6E  2054                     movea.l    A0, [A4]
00000A70  4868 0044                pea.l      [A0 + 0x44]
00000A74  302B 0042                move.w     D0, [A3 + 0x42]
00000A78  48C0                     ext.l      D0
00000A7A  5080                     addq.l     D0, 8
00000A7C  48C6                     ext.l      D6
00000A7E  2206                     move.l     D1, D6
00000A80  5281                     addq.l     D1, 1
00000A82  E281                     asr        D1, 1
00000A84  D240                     add.w      D1, D0
00000A86  3F01                     move.w     -[A7], D1
00000A88  3F04                     move.w     -[A7], D4
00000A8A  A8A8                     syscall    OffsetRect
00000A8C  2054                     movea.l    A0, [A4]
00000A8E  4868 004C                pea.l      [A0 + 0x4C]
00000A92  302B 0042                move.w     D0, [A3 + 0x42]
00000A96  48C0                     ext.l      D0
00000A98  5080                     addq.l     D0, 8
00000A9A  48C6                     ext.l      D6
00000A9C  2206                     move.l     D1, D6
00000A9E  5281                     addq.l     D1, 1
00000AA0  E281                     asr        D1, 1
00000AA2  D240                     add.w      D1, D0
00000AA4  3F01                     move.w     -[A7], D1
00000AA6  3F28 0048                move.w     -[A7], [A0 + 0x48]
00000AAA  A8A8                     syscall    OffsetRect
label00000AAC:
00000AAC  2054                     movea.l    A0, [A4]
00000AAE  3028 0048                move.w     D0, [A0 + 0x48]
00000AB2  48C0                     ext.l      D0
00000AB4  322B 00B8                move.w     D1, [A3 + 0xB8]
00000AB8  48C1                     ext.l      D1
00000ABA  342B 00BA                move.w     D2, [A3 + 0xBA]
00000ABE  48C2                     ext.l      D2
00000AC0  D481                     add.l      D2, D1
00000AC2  5482                     addq.l     D2, 2
00000AC4  D480                     add.l      D2, D0
00000AC6  3802                     move.w     D4, D2
00000AC8  5044                     addq.w     D4, 8
label00000ACA:
00000ACA  5247                     addq.w     D7, 1
label00000ACC:
00000ACC  206E FFF6                movea.l    A0, [A6 - 0xA]
00000AD0  BE50                     cmp.w      D7, [A0]
00000AD2  6F00 FF3E                ble        -0xC0 /* 00000A12 */
00000AD6  206B 0004                movea.l    A0, [A3 + 0x4]
00000ADA  A02A                     syscall    HUnlock
00000ADC  206E 0008                movea.l    A0, [A6 + 0x8]
00000AE0  A02A                     syscall    HUnlock
00000AE2  4CEE 18F0 FFD2           movem.l    D4,D5,D6,D7,A3,A4, [A6 - 0x2E]
00000AE8  4E5E                     unlink     A6
00000AEA  205F                     movea.l    A0, [A7]+
00000AEC  5C4F                     addq.w     A7, 6
00000AEE  4ED0                     jmp        [A0]
fn00000AF0:
00000AF0  4E56 0000                link       A6, 0
00000AF4  2F03                     move.l     -[A7], D3
00000AF6  206E 0008                movea.l    A0, [A6 + 0x8]
00000AFA  2050                     movea.l    A0, [A0]
00000AFC  2068 0044                movea.l    A0, [A0 + 0x44]
00000B00  2050                     movea.l    A0, [A0]
00000B02  3028 0006                move.w     D0, [A0 + 0x6]
00000B06  48C0                     ext.l      D0
00000B08  323C 8000                move.w     D1, 0x8000
00000B0C  C240                     and.w      D1, D0
00000B0E  7000                     moveq.l    D0, 0x00
00000B10  3001                     move.w     D0, D1
00000B12  4A80                     tst.l      D0
00000B14  56C3                     sne        D3
00000B16  4403                     neg.b      D3
00000B18  1003                     move.b     D0, D3
00000B1A  262E FFFC                move.l     D3, [A6 - 0x4]
00000B1E  4E5E                     unlink     A6
00000B20  4E75                     rts
fn00000B22:
00000B22  4E56 0000                link       A6, 0
00000B26  48E7 1018                movem.l    -[A7], D3,A3,A4
00000B2A  286E 0008                movea.l    A4, [A6 + 0x8]
00000B2E  2054                     movea.l    A0, [A4]
00000B30  2668 0044                movea.l    A3, [A0 + 0x44]
00000B34  204B                     movea.l    A0, A3
00000B36  2050                     movea.l    A0, [A0]
00000B38  4A68 003C                tst.w      [A0 + 0x3C]
00000B3C  57C3                     seq        D3
00000B3E  4403                     neg.b      D3
00000B40  1003                     move.b     D0, D3
00000B42  4CEE 1808 FFF4           movem.l    D3,A3,A4, [A6 - 0xC]
00000B48  4E5E                     unlink     A6
00000B4A  4E75                     rts
fn00000B4C:
00000B4C  4E56 FFEE                link       A6, -0x0012
00000B50  48E7 1718                movem.l    -[A7], D3,D5,D6,D7,A3,A4
00000B54  286E 0008                movea.l    A4, [A6 + 0x8]
00000B58  2054                     movea.l    A0, [A4]
00000B5A  3028 0002                move.w     D0, [A0 + 0x2]
00000B5E  48C0                     ext.l      D0
00000B60  2068 0004                movea.l    A0, [A0 + 0x4]
00000B64  2050                     movea.l    A0, [A0]
00000B66  E580                     asl        D0, 2
00000B68  2670 0802                movea.l    A3, [A0 + D0 + 0x2]
00000B6C  2054                     movea.l    A0, [A4]
00000B6E  2068 00C2                movea.l    A0, [A0 + 0xC2]
00000B72  2668 0098                movea.l    A3, [A0 + 0x98]
00000B76  2053                     movea.l    A0, [A3]
00000B78  3228 0112                move.w     D1, [A0 + 0x112]
00000B7C  48C1                     ext.l      D1
00000B7E  D281                     add.l      D1, D1
00000B80  2001                     move.l     D0, D1
00000B82  E589                     lsl        D1, 2
00000B84  D280                     add.l      D1, D0
00000B86  3E01                     move.w     D7, D1
00000B88  598F                     subq.l     A7, 4
00000B8A  558F                     subq.l     A7, 2
00000B8C  3EB8 0900                move.w     [A7], [0x00000900 /* CurApRefNum */]
00000B90  2F3C 544F 4F4C           move.l     -[A7], 0x544F4F4C /* 'TOOL' */
00000B96  3F07                     move.w     -[A7], D7
00000B98  4EAD 08CA                jsr        [A5 + 0x8CA /* export_277, CODE:4 @ 00000338 */]
00000B9C  2054                     movea.l    A0, [A4]
00000B9E  215F 00A0                move.l     [A0 + 0xA0], [A7]+
00000BA2  558F                     subq.l     A7, 2
00000BA4  A9AF                     syscall    ResError
00000BA6  4A5F                     tst.w      [A7]+
00000BA8  671C                     beq        +0x1E /* 00000BC6 */
00000BAA  598F                     subq.l     A7, 4
00000BAC  558F                     subq.l     A7, 2
00000BAE  3EB8 0900                move.w     [A7], [0x00000900 /* CurApRefNum */]
00000BB2  2F3C 544F 4F4C           move.l     -[A7], 0x544F4F4C /* 'TOOL' */
00000BB8  3F3C 0C1C                move.w     -[A7], 0xC1C
00000BBC  4EAD 08CA                jsr        [A5 + 0x8CA /* export_277, CODE:4 @ 00000338 */]
00000BC0  2054                     movea.l    A0, [A4]
00000BC2  215F 00A0                move.l     [A0 + 0xA0], [A7]+
label00000BC6:
00000BC6  2054                     movea.l    A0, [A4]
00000BC8  2F28 00A0                move.l     -[A7], [A0 + 0xA0]
00000BCC  A992                     syscall    DetachResource
00000BCE  2054                     movea.l    A0, [A4]
00000BD0  2668 00A0                movea.l    A3, [A0 + 0xA0]
00000BD4  2053                     movea.l    A0, [A3]
00000BD6  2D48 FFFC                move.l     [A6 - 0x4], A0
00000BDA  3E10                     move.w     D7, [A0]
00000BDC  3A28 0002                move.w     D5, [A0 + 0x2]
00000BE0  486E FFF0                pea.l      [A6 - 0x10]
00000BE4  7000                     moveq.l    D0, 0x00
00000BE6  3F00                     move.w     -[A7], D0
00000BE8  3F00                     move.w     -[A7], D0
00000BEA  3F07                     move.w     -[A7], D7
00000BEC  3F05                     move.w     -[A7], D5
00000BEE  A8A7                     syscall    SetRect
00000BF0  3D7C 0015 FFF8           move.w     [A6 - 0x8], 0x15
00000BF6  3D7C 0015 FFFA           move.w     [A6 - 0x6], 0x15
00000BFC  598F                     subq.l     A7, 4
00000BFE  2054                     movea.l    A0, [A4]
00000C00  4868 001C                pea.l      [A0 + 0x1C]
00000C04  486E FFF0                pea.l      [A6 - 0x10]
00000C08  2F2E FFF8                move.l     -[A7], [A6 - 0x8]
00000C0C  3F3C 046D                move.w     -[A7], 0x46D
00000C10  2F28 00C2                move.l     -[A7], [A0 + 0xC2]
00000C14  7000                     moveq.l    D0, 0x00
00000C16  1F00                     move.b     -[A7], D0
00000C18  1F00                     move.b     -[A7], D0
00000C1A  1F00                     move.b     -[A7], D0
00000C1C  1F00                     move.b     -[A7], D0
00000C1E  3F3C 0044                move.w     -[A7], 0x44 /* 'D' */
00000C22  A9E7                     syscall    Pack0/ListManager
00000C24  2054                     movea.l    A0, [A4]
00000C26  215F 009C                move.l     [A0 + 0x9C], [A7]+
00000C2A  2054                     movea.l    A0, [A4]
00000C2C  30B8 0220                move.w     [A0], [0x00000220 /* MemErr */]
00000C30  2054                     movea.l    A0, [A4]
00000C32  4A50                     tst.w      [A0]
00000C34  6600 0084                bne        +0x86 /* 00000CBA */
00000C38  2068 009C                movea.l    A0, [A0 + 0x9C]
00000C3C  2050                     movea.l    A0, [A0]
00000C3E  117C FF82 0024           move.b     [A0 + 0x24], 0x82
00000C44  426E FFF8                clr.w      [A6 - 0x8]
00000C48  6052                     bra        +0x54 /* 00000C9C */
label00000C4A:
00000C4A  426E FFFA                clr.w      [A6 - 0x6]
00000C4E  6042                     bra        +0x44 /* 00000C92 */
label00000C50:
00000C50  302E FFFA                move.w     D0, [A6 - 0x6]
00000C54  48C0                     ext.l      D0
00000C56  3207                     move.w     D1, D7
00000C58  C3EE FFF8                muls.w     D1, [A6 - 0x8]
00000C5C  D280                     add.l      D1, D0
00000C5E  2053                     movea.l    A0, [A3]
00000C60  D281                     add.l      D1, D1
00000C62  3D70 1804 FFEE           move.w     [A6 - 0x12], [A0 + D1 + 0x4]
00000C68  57C3                     seq        D3
00000C6A  4403                     neg.b      D3
00000C6C  6704                     beq        +0x6 /* 00000C72 */
00000C6E  7000                     moveq.l    D0, 0x00
00000C70  6002                     bra        +0x4 /* 00000C74 */
label00000C72:
00000C72  7002                     moveq.l    D0, 0x02
label00000C74:
00000C74  4880                     ext.w      D0
00000C76  3C00                     move.w     D6, D0
00000C78  486E FFEE                pea.l      [A6 - 0x12]
00000C7C  3F06                     move.w     -[A7], D6
00000C7E  2F2E FFF8                move.l     -[A7], [A6 - 0x8]
00000C82  2054                     movea.l    A0, [A4]
00000C84  2F28 009C                move.l     -[A7], [A0 + 0x9C]
00000C88  3F3C 0058                move.w     -[A7], 0x58 /* 'X' */
00000C8C  A9E7                     syscall    Pack0/ListManager
00000C8E  526E FFFA                addq.w     [A6 - 0x6], 1
label00000C92:
00000C92  BE6E FFFA                cmp.w      D7, [A6 - 0x6]
00000C96  6EB8                     bgt        -0x46 /* 00000C50 */
00000C98  526E FFF8                addq.w     [A6 - 0x8], 1
label00000C9C:
00000C9C  BA6E FFF8                cmp.w      D5, [A6 - 0x8]
00000CA0  6EA8                     bgt        -0x56 /* 00000C4A */
00000CA2  7001                     moveq.l    D0, 0x01
00000CA4  1F00                     move.b     -[A7], D0
00000CA6  2054                     movea.l    A0, [A4]
00000CA8  2F28 009C                move.l     -[A7], [A0 + 0x9C]
00000CAC  3F3C 002C                move.w     -[A7], 0x2C /* ',' */
00000CB0  A9E7                     syscall    Pack0/ListManager
00000CB2  2054                     movea.l    A0, [A4]
00000CB4  317C 014E 00A4           move.w     [A0 + 0xA4], 0x14E
label00000CBA:
00000CBA  4CEE 18E8 FFD6           movem.l    D3,D5,D6,D7,A3,A4, [A6 - 0x2A]
00000CC0  4E5E                     unlink     A6
00000CC2  4E75                     rts
fn00000CC4:
00000CC4  4E56 FFF8                link       A6, -0x0008
00000CC8  48E7 0308                movem.l    -[A7], D6,D7,A4
00000CCC  286E 0008                movea.l    A4, [A6 + 0x8]
00000CD0  2054                     movea.l    A0, [A4]
00000CD2  2068 00A0                movea.l    A0, [A0 + 0xA0]
00000CD6  2050                     movea.l    A0, [A0]
00000CD8  3E10                     move.w     D7, [A0]
00000CDA  2054                     movea.l    A0, [A4]
00000CDC  2068 00A0                movea.l    A0, [A0 + 0xA0]
00000CE0  2050                     movea.l    A0, [A0]
00000CE2  3C28 0002                move.w     D6, [A0 + 0x2]
00000CE6  426E FFFC                clr.w      [A6 - 0x4]
00000CEA  6044                     bra        +0x46 /* 00000D30 */
label00000CEC:
00000CEC  426E FFFE                clr.w      [A6 - 0x2]
00000CF0  6034                     bra        +0x36 /* 00000D26 */
label00000CF2:
00000CF2  3D7C 0002 FFFA           move.w     [A6 - 0x6], 0x2
00000CF8  486E FFF8                pea.l      [A6 - 0x8]
00000CFC  486E FFFA                pea.l      [A6 - 0x6]
00000D00  2F2E FFFC                move.l     -[A7], [A6 - 0x4]
00000D04  2054                     movea.l    A0, [A4]
00000D06  2F28 009C                move.l     -[A7], [A0 + 0x9C]
00000D0A  3F3C 0038                move.w     -[A7], 0x38 /* '8' */
00000D0E  A9E7                     syscall    Pack0/ListManager
00000D10  2054                     movea.l    A0, [A4]
00000D12  3028 00A4                move.w     D0, [A0 + 0xA4]
00000D16  B06E FFF8                cmp.w      D0, [A6 - 0x8]
00000D1A  6606                     bne        +0x8 /* 00000D22 */
00000D1C  202E FFFC                move.l     D0, [A6 - 0x4]
00000D20  6018                     bra        +0x1A /* 00000D3A */
label00000D22:
00000D22  526E FFFE                addq.w     [A6 - 0x2], 1
label00000D26:
00000D26  BE6E FFFE                cmp.w      D7, [A6 - 0x2]
00000D2A  6EC6                     bgt        -0x38 /* 00000CF2 */
00000D2C  526E FFFC                addq.w     [A6 - 0x4], 1
label00000D30:
00000D30  BC6E FFFC                cmp.w      D6, [A6 - 0x4]
00000D34  6EB6                     bgt        -0x48 /* 00000CEC */
00000D36  202E FFFC                move.l     D0, [A6 - 0x4]
label00000D3A:
00000D3A  4CEE 10C0 FFEC           movem.l    D6,D7,A4, [A6 - 0x14]
00000D40  4E5E                     unlink     A6
00000D42  4E75                     rts
fn00000D44:
00000D44  4E56 FFFC                link       A6, -0x0004
00000D48  3D7C 0002 FFFE           move.w     [A6 - 0x2], 0x2
00000D4E  486E FFFC                pea.l      [A6 - 0x4]
00000D52  486E FFFE                pea.l      [A6 - 0x2]
00000D56  2F2E 000C                move.l     -[A7], [A6 + 0xC]
00000D5A  206E 0008                movea.l    A0, [A6 + 0x8]
00000D5E  2050                     movea.l    A0, [A0]
00000D60  2F28 009C                move.l     -[A7], [A0 + 0x9C]
00000D64  3F3C 0038                move.w     -[A7], 0x38 /* '8' */
00000D68  A9E7                     syscall    Pack0/ListManager
00000D6A  302E FFFC                move.w     D0, [A6 - 0x4]
00000D6E  4E5E                     unlink     A6
00000D70  4E75                     rts
fn00000D72:
00000D72  4E56 0000                link       A6, 0
00000D76  2F0C                     move.l     -[A7], A4
00000D78  286E 0008                movea.l    A4, [A6 + 0x8]
00000D7C  7000                     moveq.l    D0, 0x00
00000D7E  1F00                     move.b     -[A7], D0
00000D80  2F0C                     move.l     -[A7], A4
00000D82  4EBA FF40                jsr        [PC - 0xC0 /* 00000CC4 */]
00000D86  588F                     addq.l     A7, 4
00000D88  2F00                     move.l     -[A7], D0
00000D8A  2054                     movea.l    A0, [A4]
00000D8C  2F28 009C                move.l     -[A7], [A0 + 0x9C]
00000D90  3F3C 005C                move.w     -[A7], 0x5C /* '\\' */
00000D94  A9E7                     syscall    Pack0/ListManager
00000D96  2054                     movea.l    A0, [A4]
00000D98  316E 000E 00A4           move.w     [A0 + 0xA4], [A6 + 0xE]
00000D9E  7001                     moveq.l    D0, 0x01
00000DA0  1F00                     move.b     -[A7], D0
00000DA2  2F0C                     move.l     -[A7], A4
00000DA4  4EBA FF1E                jsr        [PC - 0xE2 /* 00000CC4 */]
00000DA8  588F                     addq.l     A7, 4
00000DAA  2F00                     move.l     -[A7], D0
00000DAC  2054                     movea.l    A0, [A4]
00000DAE  2F28 009C                move.l     -[A7], [A0 + 0x9C]
00000DB2  3F3C 005C                move.w     -[A7], 0x5C /* '\\' */
00000DB6  A9E7                     syscall    Pack0/ListManager
00000DB8  286E FFFC                movea.l    A4, [A6 - 0x4]
00000DBC  4E5E                     unlink     A6
00000DBE  4E75                     rts
fn00000DC0:
00000DC0  4E56 FFFA                link       A6, -0x0006
00000DC4  48E7 1F18                movem.l    -[A7], D3,D4,D5,D6,D7,A3,A4
00000DC8  1C2E 000B                move.b     D6, [A6 + 0xB]
00000DCC  286E 000C                movea.l    A4, [A6 + 0xC]
00000DD0  2054                     movea.l    A0, [A4]
00000DD2  2668 00A0                movea.l    A3, [A0 + 0xA0]
00000DD6  2053                     movea.l    A0, [A3]
00000DD8  3E10                     move.w     D7, [A0]
00000DDA  3828 0002                move.w     D4, [A0 + 0x2]
00000DDE  426E FFFC                clr.w      [A6 - 0x4]
00000DE2  6000 00B0                bra        +0xB2 /* 00000E94 */
label00000DE6:
00000DE6  426E FFFE                clr.w      [A6 - 0x2]
00000DEA  6000 009C                bra        +0x9E /* 00000E88 */
label00000DEE:
00000DEE  302E FFFE                move.w     D0, [A6 - 0x2]
00000DF2  48C0                     ext.l      D0
00000DF4  3207                     move.w     D1, D7
00000DF6  C3EE FFFC                muls.w     D1, [A6 - 0x4]
00000DFA  D280                     add.l      D1, D0
00000DFC  2053                     movea.l    A0, [A3]
00000DFE  D281                     add.l      D1, D1
00000E00  3D70 1804 FFFA           move.w     [A6 - 0x6], [A0 + D1 + 0x4]
00000E06  0C6E 014F FFFA           cmpi.w     [A6 - 0x6], 0x14F
00000E0C  6676                     bne        +0x78 /* 00000E84 */
00000E0E  4A06                     tst.b      D6
00000E10  6604                     bne        +0x6 /* 00000E16 */
00000E12  426E FFFA                clr.w      [A6 - 0x6]
label00000E16:
00000E16  2F2E FFFC                move.l     -[A7], [A6 - 0x4]
00000E1A  2F0C                     move.l     -[A7], A4
00000E1C  4EBA FF26                jsr        [PC - 0xDA /* 00000D44 */]
00000E20  7200                     moveq.l    D1, 0x00
00000E22  3200                     move.w     D1, D0
00000E24  302E FFFA                move.w     D0, [A6 - 0x6]
00000E28  48C0                     ext.l      D0
00000E2A  B081                     cmp.l      D0, D1
00000E2C  504F                     addq.w     A7, 8
00000E2E  6754                     beq        +0x56 /* 00000E84 */
00000E30  4A06                     tst.b      D6
00000E32  6626                     bne        +0x28 /* 00000E5A */
00000E34  558F                     subq.l     A7, 2
00000E36  7000                     moveq.l    D0, 0x00
00000E38  1F00                     move.b     -[A7], D0
00000E3A  486E FFFC                pea.l      [A6 - 0x4]
00000E3E  2054                     movea.l    A0, [A4]
00000E40  2F28 009C                move.l     -[A7], [A0 + 0x9C]
00000E44  3F3C 003C                move.w     -[A7], 0x3C /* '<' */
00000E48  A9E7                     syscall    Pack0/ListManager
00000E4A  4A1F                     tst.b      [A7]+
00000E4C  670C                     beq        +0xE /* 00000E5A */
00000E4E  4878 014E                push.l     0x14E
00000E52  2F0C                     move.l     -[A7], A4
00000E54  4EBA FF1C                jsr        [PC - 0xE4 /* 00000D72 */]
00000E58  504F                     addq.w     A7, 8
label00000E5A:
00000E5A  4A6E FFFA                tst.w      [A6 - 0x6]
00000E5E  57C3                     seq        D3
00000E60  4403                     neg.b      D3
00000E62  6704                     beq        +0x6 /* 00000E68 */
00000E64  7000                     moveq.l    D0, 0x00
00000E66  6002                     bra        +0x4 /* 00000E6A */
label00000E68:
00000E68  7002                     moveq.l    D0, 0x02
label00000E6A:
00000E6A  4880                     ext.w      D0
00000E6C  3A00                     move.w     D5, D0
00000E6E  486E FFFA                pea.l      [A6 - 0x6]
00000E72  3F05                     move.w     -[A7], D5
00000E74  2F2E FFFC                move.l     -[A7], [A6 - 0x4]
00000E78  2054                     movea.l    A0, [A4]
00000E7A  2F28 009C                move.l     -[A7], [A0 + 0x9C]
00000E7E  3F3C 0058                move.w     -[A7], 0x58 /* 'X' */
00000E82  A9E7                     syscall    Pack0/ListManager
label00000E84:
00000E84  526E FFFE                addq.w     [A6 - 0x2], 1
label00000E88:
00000E88  BE6E FFFE                cmp.w      D7, [A6 - 0x2]
00000E8C  6E00 FF60                bgt        -0x9E /* 00000DEE */
00000E90  526E FFFC                addq.w     [A6 - 0x4], 1
label00000E94:
00000E94  B86E FFFC                cmp.w      D4, [A6 - 0x4]
00000E98  6E00 FF4C                bgt        -0xB2 /* 00000DE6 */
00000E9C  4CEE 18F8 FFDE           movem.l    D3,D4,D5,D6,D7,A3,A4, [A6 - 0x22]
00000EA2  4E5E                     unlink     A6
00000EA4  4E75                     rts
fn00000EA6:
00000EA6  4E56 0000                link       A6, 0
00000EAA  48E7 0118                movem.l    -[A7], D7,A3,A4
00000EAE  206E 0008                movea.l    A0, [A6 + 0x8]
00000EB2  2050                     movea.l    A0, [A0]
00000EB4  2668 0084                movea.l    A3, [A0 + 0x84]
00000EB8  200B                     move.l     D0, A3
00000EBA  6726                     beq        +0x28 /* 00000EE2 */
00000EBC  4247                     clr.w      D7
00000EBE  6018                     bra        +0x1A /* 00000ED8 */
label00000EC0:
00000EC0  48C7                     ext.l      D7
00000EC2  2053                     movea.l    A0, [A3]
00000EC4  2007                     move.l     D0, D7
00000EC6  E580                     asl        D0, 2
00000EC8  2870 0802                movea.l    A4, [A0 + D0 + 0x2]
00000ECC  200C                     move.l     D0, A4
00000ECE  6704                     beq        +0x6 /* 00000ED4 */
00000ED0  2F0C                     move.l     -[A7], A4
00000ED2  AA08                     syscall    DisposePixPat/DisposPixPat
label00000ED4:
00000ED4  3007                     move.w     D0, D7
00000ED6  5247                     addq.w     D7, 1
label00000ED8:
00000ED8  2053                     movea.l    A0, [A3]
00000EDA  BE50                     cmp.w      D7, [A0]
00000EDC  6DE2                     blt        -0x1C /* 00000EC0 */
00000EDE  204B                     movea.l    A0, A3
00000EE0  A023                     syscall    DisposHandle/DisposeHandle
label00000EE2:
00000EE2  4CEE 1880 FFF4           movem.l    D7,A3,A4, [A6 - 0xC]
00000EE8  4E5E                     unlink     A6
00000EEA  4E75                     rts
fn00000EEC:
00000EEC  4E56 FEFA                link       A6, -0x0106
00000EF0  48E7 0318                movem.l    -[A7], D6,D7,A3,A4
00000EF4  598F                     subq.l     A7, 4
00000EF6  2F3C 5041 5423           move.l     -[A7], 0x50415423 /* 'PAT#' */
00000EFC  487A 00AE                pea.l      [PC + 0xAE /* 00000FAC, value 0xD46696C '\rFil', pstring "Fill Patterns" */]
00000F00  A9A1                     syscall    GetNamedResource
00000F02  265F                     movea.l    A3, [A7]+
00000F04  206E 0008                movea.l    A0, [A6 + 0x8]
00000F08  2050                     movea.l    A0, [A0]
00000F0A  30B8 0220                move.w     [A0], [0x00000220 /* MemErr */]
00000F0E  6600 0092                bne        +0x94 /* 00000FA2 */
00000F12  204B                     movea.l    A0, A3
00000F14  A04A                     syscall    HNoPurge
00000F16  2F0B                     move.l     -[A7], A3
00000F18  486E FEFA                pea.l      [A6 - 0x106]
00000F1C  486E FEFC                pea.l      [A6 - 0x104]
00000F20  486E FF00                pea.l      [A6 - 0x100]
00000F24  A9A8                     syscall    GetResInfo
00000F26  558F                     subq.l     A7, 2
00000F28  2F0B                     move.l     -[A7], A3
00000F2A  A9A4                     syscall    HomeResFile
00000F2C  3E1F                     move.w     D7, [A7]+
00000F2E  2053                     movea.l    A0, [A3]
00000F30  3C10                     move.w     D6, [A0]
00000F32  0C46 0040                cmpi.w     D6, 0x40 /* '@' */
00000F36  6F02                     ble        +0x4 /* 00000F3A */
00000F38  7C40                     moveq.l    D6, 0x40
label00000F3A:
00000F3A  3006                     move.w     D0, D6
00000F3C  48C0                     ext.l      D0
00000F3E  E780                     asl        D0, 3
00000F40  5880                     addq.l     D0, 4
00000F42  A322                     syscall    NewHandleClear, flags=3
00000F44  2848                     movea.l    A4, A0
00000F46  206E 0008                movea.l    A0, [A6 + 0x8]
00000F4A  2050                     movea.l    A0, [A0]
00000F4C  30B8 0220                move.w     [A0], [0x00000220 /* MemErr */]
00000F50  6650                     bne        +0x52 /* 00000FA2 */
00000F52  204C                     movea.l    A0, A4
00000F54  A029                     syscall    HLock
00000F56  2054                     movea.l    A0, [A4]
00000F58  3086                     move.w     [A0], D6
00000F5A  3F07                     move.w     -[A7], D7
00000F5C  A998                     syscall    UseResFile
00000F5E  4247                     clr.w      D7
00000F60  601C                     bra        +0x1E /* 00000F7E */
label00000F62:
00000F62  48C7                     ext.l      D7
00000F64  2054                     movea.l    A0, [A4]
00000F66  2007                     move.l     D0, D7
00000F68  E780                     asl        D0, 3
00000F6A  4870 0802                pea.l      [A0 + D0 + 0x2]
00000F6E  3F2E FEFA                move.w     -[A7], [A6 - 0x106]
00000F72  3007                     move.w     D0, D7
00000F74  5240                     addq.w     D0, 1
00000F76  3F00                     move.w     -[A7], D0
00000F78  4EAD 0722                jsr        [A5 + 0x722 /* export_224, CODE:3 @ 000032A4 */]
00000F7C  5247                     addq.w     D7, 1
label00000F7E:
00000F7E  BC47                     cmp.w      D6, D7
00000F80  6EE0                     bgt        -0x1E /* 00000F62 */
00000F82  4EAD 0222                jsr        [A5 + 0x222 /* export_64, CODE:1 @ 0000588C */]
00000F86  204C                     movea.l    A0, A4
00000F88  A02A                     syscall    HUnlock
00000F8A  206E 0008                movea.l    A0, [A6 + 0x8]
00000F8E  2050                     movea.l    A0, [A0]
00000F90  4268 008E                clr.w      [A0 + 0x8E]
00000F94  206E 0008                movea.l    A0, [A6 + 0x8]
00000F98  2050                     movea.l    A0, [A0]
00000F9A  214C 008A                move.l     [A0 + 0x8A], A4
00000F9E  204B                     movea.l    A0, A3
00000FA0  A049                     syscall    HPurge
label00000FA2:
00000FA2  4CEE 18C0 FEEA           movem.l    D6,D7,A3,A4, [A6 - 0x116]
00000FA8  4E5E                     unlink     A6
00000FAA  4E75                     rts
00000FAC  0D46                     bchg       D6, D6
00000FAE  696C                     bvs        +0x6E /* 0000101C */
00000FB0  6C20                     bge        +0x22 /* 00000FD2 */
00000FB2  5061                     addq.w     -[A1], 8
00000FB4  7474                     moveq.l    D2, 0x74
00000FB6  6572                     bcs        +0x74 /* 0000102A */
00000FB8  6E73                     bgt        +0x75 /* 0000102D */
00000FBA  0000 4E56                ori.b      D0, 0x56 /* 'V' */
// begin alternate branch 00000FBC-00000FC0
fn00000FBC:
00000FBC  4E56 FFD4                link       A6, -0x002C
// end alternate branch 00000FBC-00000FC0
fn00000FBC: // (misaligned)
00000FBE  FFD4                     .invalid   <<F/7/7>>
00000FC0  48E7 1338                movem.l    -[A7], D3,D6,D7,A2,A3,A4
00000FC4  266E 0008                movea.l    A3, [A6 + 0x8]
00000FC8  286E 000C                movea.l    A4, [A6 + 0xC]
00000FCC  2053                     movea.l    A0, [A3]
00000FCE  2068 005C                movea.l    A0, [A0 + 0x5C]
label00000FD2:
00000FD2  2050                     movea.l    A0, [A0]
00000FD4  1E28 0002                move.b     D7, [A0 + 0x2]
00000FD8  2054                     movea.l    A0, [A4]
00000FDA  3028 0006                move.w     D0, [A0 + 0x6]
00000FDE  48C0                     ext.l      D0
00000FE0  323C 8000                move.w     D1, 0x8000
00000FE4  C240                     and.w      D1, D0
00000FE6  7000                     moveq.l    D0, 0x00
00000FE8  3001                     move.w     D0, D1
00000FEA  4A80                     tst.l      D0
00000FEC  56C3                     sne        D3
00000FEE  4403                     neg.b      D3
00000FF0  1C03                     move.b     D6, D3
00000FF2  660E                     bne        +0x10 /* 00001002 */
00000FF4  7000                     moveq.l    D0, 0x00
00000FF6  2140 002C                move.l     [A0 + 0x2C], D0
00000FFA  2054                     movea.l    A0, [A4]
00000FFC  317C 0001 0022           move.w     [A0 + 0x22], 0x1
label00001002:
00001002  2054                     movea.l    A0, [A4]
00001004  41E8 0010                lea.l      A0, [A0 + 0x10]
00001008  2F20                     move.l     -[A7], -[A0]
0000100A  2F20                     move.l     -[A7], -[A0]
0000100C  4EBA F666                jsr        [PC - 0x99A /* 00000674 */]
00001010  2054                     movea.l    A0, [A4]
00001012  3140 0042                move.w     [A0 + 0x42], D0
00001016  2054                     movea.l    A0, [A4]
00001018  43EE FFF4                lea.l      A1, [A6 - 0xC]
label0000101C:
0000101C  5088                     addq.l     A0, 8
0000101E  22D8                     move.l     [A1]+, [A0]+
00001020  22D8                     move.l     [A1]+, [A0]+
00001022  598F                     subq.l     A7, 4
00001024  2054                     movea.l    A0, [A4]
00001026  2F28 0034                move.l     -[A7], [A0 + 0x34]
label0000102A:
0000102A  2F28 002C                move.l     -[A7], [A0 + 0x2C]
0000102E  3028 0038                move.w     D0, [A0 + 0x38]
00001032  48C0                     ext.l      D0
00001034  2F00                     move.l     -[A7], D0
00001036  3F28 0006                move.w     -[A7], [A0 + 0x6]
0000103A  3F28 0022                move.w     -[A7], [A0 + 0x22]
0000103E  486E FFF4                pea.l      [A6 - 0xC]
00001042  4EAD 082A                jsr        [A5 + 0x82A /* export_257, CODE:3 @ 00003C8A */]
00001046  2D5F FFFC                move.l     [A6 - 0x4], [A7]+
0000104A  504F                     addq.w     A7, 8
0000104C  6606                     bne        +0x8 /* 00001054 */
0000104E  7094                     moveq.l    D0, 0xFFFFFF94
00001050  6000 018A                bra        +0x18C /* 000011DC */
label00001054:
00001054  2054                     movea.l    A0, [A4]
00001056  216E FFFC 003E           move.l     [A0 + 0x3E], [A6 - 0x4]
0000105C  2054                     movea.l    A0, [A4]
0000105E  2068 003E                movea.l    A0, [A0 + 0x3E]
00001062  2050                     movea.l    A0, [A0]
00001064  317C 0002 00B4           move.w     [A0 + 0xB4], 0x2
0000106A  2054                     movea.l    A0, [A4]
0000106C  2068 003E                movea.l    A0, [A0 + 0x3E]
00001070  2050                     movea.l    A0, [A0]
00001072  317C 0002 00B6           move.w     [A0 + 0xB6], 0x2
00001078  2054                     movea.l    A0, [A4]
0000107A  43EE FFEC                lea.l      A1, [A6 - 0x14]
0000107E  41E8 0054                lea.l      A0, [A0 + 0x54]
00001082  22D8                     move.l     [A1]+, [A0]+
00001084  22D8                     move.l     [A1]+, [A0]+
00001086  486E FFEC                pea.l      [A6 - 0x14]
0000108A  7001                     moveq.l    D0, 0x01
0000108C  3F00                     move.w     -[A7], D0
0000108E  3F00                     move.w     -[A7], D0
00001090  A8A9                     syscall    InsetRect
00001092  4A07                     tst.b      D7
00001094  660C                     bne        +0xE /* 000010A2 */
00001096  486E FFEC                pea.l      [A6 - 0x14]
0000109A  7001                     moveq.l    D0, 0x01
0000109C  3F00                     move.w     -[A7], D0
0000109E  3F00                     move.w     -[A7], D0
000010A0  A8A9                     syscall    InsetRect
label000010A2:
000010A2  486E FFE8                pea.l      [A6 - 0x18]
000010A6  7000                     moveq.l    D0, 0x00
000010A8  1007                     move.b     D0, D7
000010AA  3F00                     move.w     -[A7], D0
000010AC  7000                     moveq.l    D0, 0x00
000010AE  1007                     move.b     D0, D7
000010B0  3F00                     move.w     -[A7], D0
000010B2  A880                     syscall    SetPt
000010B4  486E FFE4                pea.l      [A6 - 0x1C]
000010B8  2054                     movea.l    A0, [A4]
000010BA  7000                     moveq.l    D0, 0x00
000010BC  1007                     move.b     D0, D7
000010BE  3228 0042                move.w     D1, [A0 + 0x42]
000010C2  9240                     sub.w      D1, D0
000010C4  3F01                     move.w     -[A7], D1
000010C6  2054                     movea.l    A0, [A4]
000010C8  7000                     moveq.l    D0, 0x00
000010CA  1007                     move.b     D0, D7
000010CC  3228 0042                move.w     D1, [A0 + 0x42]
000010D0  9240                     sub.w      D1, D0
000010D2  3F01                     move.w     -[A7], D1
000010D4  A880                     syscall    SetPt
000010D6  486E FFF4                pea.l      [A6 - 0xC]
000010DA  486E FFEC                pea.l      [A6 - 0x14]
000010DE  2F2E FFE4                move.l     -[A7], [A6 - 0x1C]
000010E2  2F2E FFE8                move.l     -[A7], [A6 - 0x18]
000010E6  2054                     movea.l    A0, [A4]
000010E8  2F28 003E                move.l     -[A7], [A0 + 0x3E]
000010EC  4EAD 07D2                jsr        [A5 + 0x7D2 /* export_246, CODE:3 @ 00003CA0 */]
000010F0  2054                     movea.l    A0, [A4]
000010F2  2068 003E                movea.l    A0, [A0 + 0x3E]
000010F6  2050                     movea.l    A0, [A0]
000010F8  3E28 00A8                move.w     D7, [A0 + 0xA8]
000010FC  6718                     beq        +0x1A /* 00001116 */
000010FE  2054                     movea.l    A0, [A4]
00001100  2F28 003E                move.l     -[A7], [A0 + 0x3E]
00001104  4EAD 0852                jsr        [A5 + 0x852 /* export_262, CODE:3 @ 00003C78 */]
00001108  2054                     movea.l    A0, [A4]
0000110A  7000                     moveq.l    D0, 0x00
0000110C  2140 003E                move.l     [A0 + 0x3E], D0
00001110  3007                     move.w     D0, D7
00001112  6000 00C8                bra        +0xCA /* 000011DC */
label00001116:
00001116  4A06                     tst.b      D6
00001118  6700 008A                beq        +0x8C /* 000011A4 */
0000111C  2053                     movea.l    A0, [A3]
0000111E  2D68 0084 FFD4           move.l     [A6 - 0x2C], [A0 + 0x84]
00001124  2053                     movea.l    A0, [A3]
00001126  3028 0088                move.w     D0, [A0 + 0x88]
0000112A  48C0                     ext.l      D0
0000112C  206E FFD4                movea.l    A0, [A6 - 0x2C]
00001130  2050                     movea.l    A0, [A0]
00001132  E580                     asl        D0, 2
00001134  2254                     movea.l    A1, [A4]
00001136  2269 003E                movea.l    A1, [A1 + 0x3E]
0000113A  2251                     movea.l    A1, [A1]
0000113C  2370 0802 001C           move.l     [A1 + 0x1C], [A0 + D0 + 0x2]
00001142  2054                     movea.l    A0, [A4]
00001144  2D48 FFDC                move.l     [A6 - 0x24], A0
00001148  2068 003E                movea.l    A0, [A0 + 0x3E]
0000114C  2D50 FFD8                move.l     [A6 - 0x28], [A0]
00001150  2053                     movea.l    A0, [A3]
00001152  2068 006C                movea.l    A0, [A0 + 0x6C]
00001156  2050                     movea.l    A0, [A0]
00001158  2D48 FFE0                move.l     [A6 - 0x20], A0
0000115C  206E FFDC                movea.l    A0, [A6 - 0x24]
00001160  3028 003C                move.w     D0, [A0 + 0x3C]
00001164  48C0                     ext.l      D0
00001166  206E FFE0                movea.l    A0, [A6 - 0x20]
0000116A  E580                     asl        D0, 2
0000116C  2070 0800                movea.l    A0, [A0 + D0]
00001170  2050                     movea.l    A0, [A0]
00001172  226E FFD8                movea.l    A1, [A6 - 0x28]
00001176  45E9 0024                lea.l      A2, [A1 + 0x24]
0000117A  24D8                     move.l     [A2]+, [A0]+
0000117C  34D8                     move.w     [A2]+, [A0]+
0000117E  206E FFDC                movea.l    A0, [A6 - 0x24]
00001182  3028 003C                move.w     D0, [A0 + 0x3C]
00001186  48C0                     ext.l      D0
00001188  206E FFE0                movea.l    A0, [A6 - 0x20]
0000118C  E580                     asl        D0, 2
0000118E  2070 0800                movea.l    A0, [A0 + D0]
00001192  2050                     movea.l    A0, [A0]
00001194  226E FFD8                movea.l    A1, [A6 - 0x28]
00001198  43E9 002A                lea.l      A1, [A1 + 0x2A]
0000119C  5C88                     addq.l     A0, 6
0000119E  22D8                     move.l     [A1]+, [A0]+
000011A0  32D8                     move.w     [A1]+, [A0]+
000011A2  6036                     bra        +0x38 /* 000011DA */
label000011A4:
000011A4  2053                     movea.l    A0, [A3]
000011A6  2D68 008A FFDC           move.l     [A6 - 0x24], [A0 + 0x8A]
000011AC  2053                     movea.l    A0, [A3]
000011AE  3028 008E                move.w     D0, [A0 + 0x8E]
000011B2  48C0                     ext.l      D0
000011B4  206E FFDC                movea.l    A0, [A6 - 0x24]
000011B8  2050                     movea.l    A0, [A0]
000011BA  E780                     asl        D0, 3
000011BC  41F0 0802                lea.l      A0, [A0 + D0 + 0x2]
000011C0  2D48 FFE0                move.l     [A6 - 0x20], A0
000011C4  2054                     movea.l    A0, [A4]
000011C6  2068 003E                movea.l    A0, [A0 + 0x3E]
000011CA  2050                     movea.l    A0, [A0]
000011CC  47E8 003C                lea.l      A3, [A0 + 0x3C]
000011D0  206E FFE0                movea.l    A0, [A6 - 0x20]
000011D4  224B                     movea.l    A1, A3
000011D6  7008                     moveq.l    D0, 0x08
000011D8  A02E                     syscall    BlockMove/BlockMoveData
label000011DA:
000011DA  7000                     moveq.l    D0, 0x00
label000011DC:
000011DC  4CEE 1CC8 FFBC           movem.l    D3,D6,D7,A2,A3,A4, [A6 - 0x44]
000011E2  4E5E                     unlink     A6
000011E4  4E75                     rts
fn000011E6:
000011E6  4E56 0000                link       A6, 0
000011EA  48E7 0018                movem.l    -[A7], A3,A4
000011EE  266E 000C                movea.l    A3, [A6 + 0xC]
000011F2  302E 000A                move.w     D0, [A6 + 0xA]
000011F6  48C0                     ext.l      D0
000011F8  2053                     movea.l    A0, [A3]
000011FA  2068 0004                movea.l    A0, [A0 + 0x4]
000011FE  2050                     movea.l    A0, [A0]
00001200  E580                     asl        D0, 2
00001202  2870 0802                movea.l    A4, [A0 + D0 + 0x2]
00001206  200C                     move.l     D0, A4
00001208  6712                     beq        +0x14 /* 0000121C */
0000120A  2F0C                     move.l     -[A7], A4
0000120C  2F0B                     move.l     -[A7], A3
0000120E  4EBA FDAC                jsr        [PC - 0x254 /* 00000FBC */]
00001212  2053                     movea.l    A0, [A3]
00001214  3080                     move.w     [A0], D0
00001216  2054                     movea.l    A0, [A4]
00001218  4210                     clr.b      [A0]
0000121A  504F                     addq.w     A7, 8
label0000121C:
0000121C  4CEE 1800 FFF8           movem.l    A3,A4, [A6 - 0x8]
00001222  4E5E                     unlink     A6
00001224  4E75                     rts
fn00001226:
00001226  4E56 FFF8                link       A6, -0x0008
0000122A  48E7 0118                movem.l    -[A7], D7,A3,A4
0000122E  266E 000C                movea.l    A3, [A6 + 0xC]
00001232  286E 0008                movea.l    A4, [A6 + 0x8]
00001236  200C                     move.l     D0, A4
00001238  677E                     beq        +0x80 /* 000012B8 */
0000123A  2054                     movea.l    A0, [A4]
0000123C  3028 0006                move.w     D0, [A0 + 0x6]
00001240  48C0                     ext.l      D0
00001242  323C 8000                move.w     D1, 0x8000
00001246  C240                     and.w      D1, D0
00001248  676E                     beq        +0x70 /* 000012B8 */
0000124A  4A28 003B                tst.b      [A0 + 0x3B]
0000124E  6728                     beq        +0x2A /* 00001278 */
00001250  3028 0022                move.w     D0, [A0 + 0x22]
00001254  48C0                     ext.l      D0
00001256  2F00                     move.l     -[A7], D0
00001258  4EAD 0B8A                jsr        [A5 + 0xB8A /* export_365, CODE:10 @ 000003EA */]
0000125C  3E00                     move.w     D7, D0
0000125E  0C47 0004                cmpi.w     D7, 0x4
00001262  584F                     addq.w     A7, 4
00001264  660A                     bne        +0xC /* 00001270 */
00001266  2F0B                     move.l     -[A7], A3
00001268  4EAD 0B7A                jsr        [A5 + 0xB7A /* export_363, CODE:10 @ 0000008E */]
0000126C  3E00                     move.w     D7, D0
0000126E  584F                     addq.w     A7, 4
label00001270:
00001270  2054                     movea.l    A0, [A4]
00001272  3147 003C                move.w     [A0 + 0x3C], D7
00001276  6040                     bra        +0x42 /* 000012B8 */
label00001278:
00001278  2053                     movea.l    A0, [A3]
0000127A  2068 006C                movea.l    A0, [A0 + 0x6C]
0000127E  2050                     movea.l    A0, [A0]
00001280  2D68 0018 FFF8           move.l     [A6 - 0x8], [A0 + 0x18]
00001286  2054                     movea.l    A0, [A4]
00001288  2D68 002C FFFC           move.l     [A6 - 0x4], [A0 + 0x2C]
0000128E  2F0B                     move.l     -[A7], A3
00001290  4EAD 0B72                jsr        [A5 + 0xB72 /* export_362, CODE:10 @ 00000008 */]
00001294  2054                     movea.l    A0, [A4]
00001296  3140 003C                move.w     [A0 + 0x3C], D0
0000129A  2F2E FFFC                move.l     -[A7], [A6 - 0x4]
0000129E  7000                     moveq.l    D0, 0x00
000012A0  2F00                     move.l     -[A7], D0
000012A2  7206                     moveq.l    D1, 0x06
000012A4  2F01                     move.l     -[A7], D1
000012A6  2053                     movea.l    A0, [A3]
000012A8  2F28 006C                move.l     -[A7], [A0 + 0x6C]
000012AC  4EAD 0B9A                jsr        [A5 + 0xB9A /* export_367, CODE:10 @ 00000516 */]
000012B0  2053                     movea.l    A0, [A3]
000012B2  3080                     move.w     [A0], D0
000012B4  4FEF 0014                lea.l      A7, [A7 + 0x14]
label000012B8:
000012B8  4CEE 1880 FFEC           movem.l    D7,A3,A4, [A6 - 0x14]
000012BE  4E5E                     unlink     A6
000012C0  4E75                     rts
fn000012C2:
000012C2  4E56 0000                link       A6, 0
000012C6  48E7 1738                movem.l    -[A7], D3,D5,D6,D7,A2,A3,A4
000012CA  3C2E 000A                move.w     D6, [A6 + 0xA]
000012CE  286E 000C                movea.l    A4, [A6 + 0xC]
000012D2  48C6                     ext.l      D6
000012D4  2054                     movea.l    A0, [A4]
000012D6  2068 0004                movea.l    A0, [A0 + 0x4]
000012DA  2050                     movea.l    A0, [A0]
000012DC  2006                     move.l     D0, D6
000012DE  E580                     asl        D0, 2
000012E0  2670 0802                movea.l    A3, [A0 + D0 + 0x2]
000012E4  2053                     movea.l    A0, [A3]
000012E6  3E28 003C                move.w     D7, [A0 + 0x3C]
000012EA  2054                     movea.l    A0, [A4]
000012EC  BE68 0068                cmp.w      D7, [A0 + 0x68]
000012F0  57C3                     seq        D3
000012F2  4403                     neg.b      D3
000012F4  1A03                     move.b     D5, D3
000012F6  3147 0068                move.w     [A0 + 0x68], D7
000012FA  2054                     movea.l    A0, [A4]
000012FC  3146 0002                move.w     [A0 + 0x2], D6
00001300  2054                     movea.l    A0, [A4]
00001302  214B 0044                move.l     [A0 + 0x44], A3
00001306  2053                     movea.l    A0, [A3]
00001308  2254                     movea.l    A1, [A4]
0000130A  2368 003E 0048           move.l     [A1 + 0x48], [A0 + 0x3E]
00001310  2054                     movea.l    A0, [A4]
00001312  4A28 0060                tst.b      [A0 + 0x60]
00001316  676E                     beq        +0x70 /* 00001386 */
00001318  48C7                     ext.l      D7
0000131A  2068 006C                movea.l    A0, [A0 + 0x6C]
0000131E  2050                     movea.l    A0, [A0]
00001320  2007                     move.l     D0, D7
00001322  E580                     asl        D0, 2
00001324  2254                     movea.l    A1, [A4]
00001326  2370 0800 004C           move.l     [A1 + 0x4C], [A0 + D0]
0000132C  2053                     movea.l    A0, [A3]
0000132E  4A28 003B                tst.b      [A0 + 0x3B]
00001332  660E                     bne        +0x10 /* 00001342 */
00001334  4A05                     tst.b      D5
00001336  670A                     beq        +0xC /* 00001342 */
00001338  2F0C                     move.l     -[A7], A4
0000133A  4EAD 0BFA                jsr        [A5 + 0xBFA /* export_379, CODE:10 @ 00001F4E */]
0000133E  584F                     addq.w     A7, 4
00001340  6044                     bra        +0x46 /* 00001386 */
label00001342:
00001342  2654                     movea.l    A3, [A4]
00001344  206B 004C                movea.l    A0, [A3 + 0x4C]
00001348  2050                     movea.l    A0, [A0]
0000134A  226B 0048                movea.l    A1, [A3 + 0x48]
0000134E  2251                     movea.l    A1, [A1]
00001350  45E9 0024                lea.l      A2, [A1 + 0x24]
00001354  24D8                     move.l     [A2]+, [A0]+
00001356  34D8                     move.w     [A2]+, [A0]+
00001358  43E9 0024                lea.l      A1, [A1 + 0x24]
0000135C  41EB 0050                lea.l      A0, [A3 + 0x50]
00001360  20D9                     move.l     [A0]+, [A1]+
00001362  30D9                     move.w     [A0]+, [A1]+
00001364  206B 004C                movea.l    A0, [A3 + 0x4C]
00001368  2050                     movea.l    A0, [A0]
0000136A  226B 0048                movea.l    A1, [A3 + 0x48]
0000136E  2251                     movea.l    A1, [A1]
00001370  5C88                     addq.l     A0, 6
00001372  45E9 002A                lea.l      A2, [A1 + 0x2A]
00001376  24D8                     move.l     [A2]+, [A0]+
00001378  34D8                     move.w     [A2]+, [A0]+
0000137A  41EB 0056                lea.l      A0, [A3 + 0x56]
0000137E  43E9 002A                lea.l      A1, [A1 + 0x2A]
00001382  20D9                     move.l     [A0]+, [A1]+
00001384  30D9                     move.w     [A0]+, [A1]+
label00001386:
00001386  4CEE 1CE8 FFE4           movem.l    D3,D5,D6,D7,A2,A3,A4, [A6 - 0x1C]
0000138C  4E5E                     unlink     A6
0000138E  4E75                     rts
fn00001390:
00001390  4E56 FFF8                link       A6, -0x0008
00001394  2F0C                     move.l     -[A7], A4
00001396  286E 0008                movea.l    A4, [A6 + 0x8]
0000139A  200C                     move.l     D0, A4
0000139C  6714                     beq        +0x16 /* 000013B2 */
0000139E  2054                     movea.l    A0, [A4]
000013A0  43EE FFF8                lea.l      A1, [A6 - 0x8]
000013A4  41E8 0044                lea.l      A0, [A0 + 0x44]
000013A8  22D8                     move.l     [A1]+, [A0]+
000013AA  22D8                     move.l     [A1]+, [A0]+
000013AC  486E FFF8                pea.l      [A6 - 0x8]
000013B0  A928                     syscall    InvalRect
label000013B2:
000013B2  286E FFF4                movea.l    A4, [A6 - 0xC]
000013B6  4E5E                     unlink     A6
000013B8  4E75                     rts
fn000013BA:
000013BA  4E56 FFF0                link       A6, -0x0010
000013BE  2F0C                     move.l     -[A7], A4
000013C0  206E 0008                movea.l    A0, [A6 + 0x8]
000013C4  2050                     movea.l    A0, [A0]
000013C6  2868 0044                movea.l    A4, [A0 + 0x44]
000013CA  200C                     move.l     D0, A4
000013CC  6728                     beq        +0x2A /* 000013F6 */
000013CE  2054                     movea.l    A0, [A4]
000013D0  43EE FFF0                lea.l      A1, [A6 - 0x10]
000013D4  41E8 0044                lea.l      A0, [A0 + 0x44]
000013D8  22D8                     move.l     [A1]+, [A0]+
000013DA  22D8                     move.l     [A1]+, [A0]+
000013DC  2054                     movea.l    A0, [A4]
000013DE  43EE FFF8                lea.l      A1, [A6 - 0x8]
000013E2  41E8 004C                lea.l      A0, [A0 + 0x4C]
000013E6  22D8                     move.l     [A1]+, [A0]+
000013E8  22D8                     move.l     [A1]+, [A0]+
000013EA  486E FFF0                pea.l      [A6 - 0x10]
000013EE  A928                     syscall    InvalRect
000013F0  486E FFF8                pea.l      [A6 - 0x8]
000013F4  A928                     syscall    InvalRect
label000013F6:
000013F6  286E FFEC                movea.l    A4, [A6 - 0x14]
000013FA  4E5E                     unlink     A6
000013FC  4E75                     rts
fn000013FE:
000013FE  4E56 0000                link       A6, 0
00001402  48E7 0118                movem.l    -[A7], D7,A3,A4
00001406  266E 0008                movea.l    A3, [A6 + 0x8]
0000140A  206E 000C                movea.l    A0, [A6 + 0xC]
0000140E  4210                     clr.b      [A0]
00001410  4247                     clr.w      D7
00001412  6032                     bra        +0x34 /* 00001446 */
label00001414:
00001414  48C7                     ext.l      D7
00001416  2053                     movea.l    A0, [A3]
00001418  2068 0004                movea.l    A0, [A0 + 0x4]
0000141C  2050                     movea.l    A0, [A0]
0000141E  2007                     move.l     D0, D7
00001420  E580                     asl        D0, 2
00001422  2870 0802                movea.l    A4, [A0 + D0 + 0x2]
00001426  200C                     move.l     D0, A4
00001428  671A                     beq        +0x1C /* 00001444 */
0000142A  2054                     movea.l    A0, [A4]
0000142C  3028 0006                move.w     D0, [A0 + 0x6]
00001430  48C0                     ext.l      D0
00001432  323C 8000                move.w     D1, 0x8000
00001436  C240                     and.w      D1, D0
00001438  670A                     beq        +0xC /* 00001444 */
0000143A  206E 000C                movea.l    A0, [A6 + 0xC]
0000143E  10BC 0001                move.b     [A0], 0x1
00001442  600E                     bra        +0x10 /* 00001452 */
label00001444:
00001444  5247                     addq.w     D7, 1
label00001446:
00001446  2053                     movea.l    A0, [A3]
00001448  2068 0004                movea.l    A0, [A0 + 0x4]
0000144C  2050                     movea.l    A0, [A0]
0000144E  BE50                     cmp.w      D7, [A0]
00001450  6FC2                     ble        -0x3C /* 00001414 */
label00001452:
00001452  206E 000C                movea.l    A0, [A6 + 0xC]
00001456  4A10                     tst.b      [A0]
00001458  6718                     beq        +0x1A /* 00001472 */
0000145A  558F                     subq.l     A7, 2
0000145C  7001                     moveq.l    D0, 0x01
0000145E  1F00                     move.b     -[A7], D0
00001460  4EAD 01DA                jsr        [A5 + 0x1DA /* export_55, CODE:1 @ 00004986 */]
00001464  4A1F                     tst.b      [A7]+
00001466  660A                     bne        +0xC /* 00001472 */
00001468  2053                     movea.l    A0, [A3]
0000146A  30BC FFFF                move.w     [A0], 0xFFFF
0000146E  7000                     moveq.l    D0, 0x00
00001470  6002                     bra        +0x4 /* 00001474 */
label00001472:
00001472  7001                     moveq.l    D0, 0x01
label00001474:
00001474  4CEE 1880 FFF4           movem.l    D7,A3,A4, [A6 - 0xC]
0000147A  4E5E                     unlink     A6
0000147C  4E75                     rts
export_347:
fn0000147E:
0000147E  4E56 0000                link       A6, 0
00001482  48E7 0018                movem.l    -[A7], A3,A4
00001486  206E 0008                movea.l    A0, [A6 + 0x8]
0000148A  2050                     movea.l    A0, [A0]
0000148C  2868 0044                movea.l    A4, [A0 + 0x44]
00001490  200C                     move.l     D0, A4
00001492  676C                     beq        +0x6E /* 00001500 */
00001494  2054                     movea.l    A0, [A4]
00001496  4AA8 003E                tst.l      [A0 + 0x3E]
0000149A  671A                     beq        +0x1C /* 000014B6 */
0000149C  2F28 003E                move.l     -[A7], [A0 + 0x3E]
000014A0  4EAD 0852                jsr        [A5 + 0x852 /* export_262, CODE:3 @ 00003C78 */]
000014A4  206E 0008                movea.l    A0, [A6 + 0x8]
000014A8  2050                     movea.l    A0, [A0]
000014AA  7000                     moveq.l    D0, 0x00
000014AC  2140 0048                move.l     [A0 + 0x48], D0
000014B0  2054                     movea.l    A0, [A4]
000014B2  2140 003E                move.l     [A0 + 0x3E], D0
label000014B6:
000014B6  2054                     movea.l    A0, [A4]
000014B8  3028 0006                move.w     D0, [A0 + 0x6]
000014BC  48C0                     ext.l      D0
000014BE  323C 8000                move.w     D1, 0x8000
000014C2  C240                     and.w      D1, D0
000014C4  673A                     beq        +0x3C /* 00001500 */
000014C6  7000                     moveq.l    D0, 0x00
000014C8  1028 003B                move.b     D0, [A0 + 0x3B]
000014CC  4A80                     tst.l      D0
000014CE  6630                     bne        +0x32 /* 00001500 */
000014D0  206E 0008                movea.l    A0, [A6 + 0x8]
000014D4  2050                     movea.l    A0, [A0]
000014D6  2068 006C                movea.l    A0, [A0 + 0x6C]
000014DA  2050                     movea.l    A0, [A0]
000014DC  2668 0018                movea.l    A3, [A0 + 0x18]
000014E0  2053                     movea.l    A0, [A3]
000014E2  4AA8 000C                tst.l      [A0 + 0xC]
000014E6  6718                     beq        +0x1A /* 00001500 */
000014E8  2254                     movea.l    A1, [A4]
000014EA  2028 000C                move.l     D0, [A0 + 0xC]
000014EE  B0A9 002C                cmp.l      D0, [A1 + 0x2C]
000014F2  6608                     bne        +0xA /* 000014FC */
000014F4  7000                     moveq.l    D0, 0x00
000014F6  2140 000C                move.l     [A0 + 0xC], D0
000014FA  6004                     bra        +0x6 /* 00001500 */
label000014FC:
000014FC  4EBA EB0A                jsr        [PC - 0x14F6 /* 00000008 */]
label00001500:
00001500  4CEE 1800 FFF8           movem.l    A3,A4, [A6 - 0x8]
00001506  4E5E                     unlink     A6
00001508  2E9F                     move.l     [A7], [A7]+
0000150A  4E75                     rts
fn0000150C:
0000150C  4E56 0000                link       A6, 0
00001510  2F0C                     move.l     -[A7], A4
00001512  598F                     subq.l     A7, 4
00001514  3F2E 000A                move.w     -[A7], [A6 + 0xA]
00001518  A9BF                     syscall    GetRMenu
0000151A  285F                     movea.l    A4, [A7]+
0000151C  200C                     move.l     D0, A4
0000151E  6704                     beq        +0x6 /* 00001524 */
00001520  2F0C                     move.l     -[A7], A4
00001522  A992                     syscall    DetachResource
label00001524:
00001524  200C                     move.l     D0, A4
00001526  286E FFFC                movea.l    A4, [A6 - 0x4]
0000152A  4E5E                     unlink     A6
0000152C  4E75                     rts
export_348:
0000152E  4E56 FFFA                link       A6, -0x0006
00001532  48E7 1F18                movem.l    -[A7], D3,D4,D5,D6,D7,A3,A4
00001536  3E2E 000C                move.w     D7, [A6 + 0xC]
0000153A  286E 0008                movea.l    A4, [A6 + 0x8]
0000153E  48C7                     ext.l      D7
00001540  2054                     movea.l    A0, [A4]
00001542  2068 0004                movea.l    A0, [A0 + 0x4]
00001546  2050                     movea.l    A0, [A0]
00001548  2007                     move.l     D0, D7
0000154A  E580                     asl        D0, 2
0000154C  2670 0802                movea.l    A3, [A0 + D0 + 0x2]
00001550  2054                     movea.l    A0, [A4]
00001552  3D68 0002 FFFE           move.w     [A6 - 0x2], [A0 + 0x2]
00001558  4204                     clr.b      D4
0000155A  7AFF                     moveq.l    D5, 0xFFFFFFFF
0000155C  204C                     movea.l    A0, A4
0000155E  A029                     syscall    HLock
00001560  2054                     movea.l    A0, [A4]
00001562  4268 00C0                clr.w      [A0 + 0xC0]
00001566  2054                     movea.l    A0, [A4]
00001568  4868 0060                pea.l      [A0 + 0x60]
0000156C  2F0C                     move.l     -[A7], A4
0000156E  4EBA FE8E                jsr        [PC - 0x172 /* 000013FE */]
00001572  4A00                     tst.b      D0
00001574  504F                     addq.w     A7, 8
00001576  660E                     bne        +0x10 /* 00001586 */
00001578  204C                     movea.l    A0, A4
0000157A  A02A                     syscall    HUnlock
0000157C  2054                     movea.l    A0, [A4]
0000157E  3D50 000E                move.w     [A6 + 0xE], [A0]
00001582  6000 0324                bra        +0x326 /* 000018A8 */
label00001586:
00001586  7000                     moveq.l    D0, 0x00
00001588  2F00                     move.l     -[A7], D0
0000158A  2054                     movea.l    A0, [A4]
0000158C  7200                     moveq.l    D1, 0x00
0000158E  1228 0060                move.b     D1, [A0 + 0x60]
00001592  2F01                     move.l     -[A7], D1
00001594  4EBA EBD0                jsr        [PC - 0x1430 /* 00000166 */]
00001598  3C00                     move.w     D6, D0
0000159A  2054                     movea.l    A0, [A4]
0000159C  3086                     move.w     [A0], D6
0000159E  504F                     addq.w     A7, 8
000015A0  670C                     beq        +0xE /* 000015AE */
000015A2  204C                     movea.l    A0, A4
000015A4  A02A                     syscall    HUnlock
000015A6  3D46 000E                move.w     [A6 + 0xE], D6
000015AA  6000 02FC                bra        +0x2FE /* 000018A8 */
label000015AE:
000015AE  2054                     movea.l    A0, [A4]
000015B0  4AA8 0044                tst.l      [A0 + 0x44]
000015B4  6728                     beq        +0x2A /* 000015DE */
000015B6  2D48 FFFA                move.l     [A6 - 0x6], A0
000015BA  7601                     moveq.l    D3, 0x01
000015BC  2068 0044                movea.l    A0, [A0 + 0x44]
000015C0  2050                     movea.l    A0, [A0]
000015C2  4A68 003C                tst.w      [A0 + 0x3C]
000015C6  670C                     beq        +0xE /* 000015D4 */
000015C8  206E FFFA                movea.l    A0, [A6 - 0x6]
000015CC  4A28 0070                tst.b      [A0 + 0x70]
000015D0  6602                     bne        +0x4 /* 000015D4 */
000015D2  7600                     moveq.l    D3, 0x00
label000015D4:
000015D4  1803                     move.b     D4, D3
000015D6  206E FFFA                movea.l    A0, [A6 - 0x6]
000015DA  3A28 0068                move.w     D5, [A0 + 0x68]
label000015DE:
000015DE  2054                     movea.l    A0, [A4]
000015E0  4AA8 0090                tst.l      [A0 + 0x90]
000015E4  663A                     bne        +0x3C /* 00001620 */
000015E6  4878 0C1C                push.l     0xC1C
000015EA  4EBA FF20                jsr        [PC - 0xE0 /* 0000150C */]
000015EE  2D40 FFFA                move.l     [A6 - 0x6], D0
000015F2  584F                     addq.w     A7, 4
000015F4  672A                     beq        +0x2C /* 00001620 */
000015F6  2F2E FFFA                move.l     -[A7], [A6 - 0x6]
000015FA  700A                     moveq.l    D0, 0x0A
000015FC  3F00                     move.w     -[A7], D0
000015FE  2054                     movea.l    A0, [A4]
00001600  2068 005C                movea.l    A0, [A0 + 0x5C]
00001604  2050                     movea.l    A0, [A0]
00001606  4A28 0002                tst.b      [A0 + 0x2]
0000160A  6704                     beq        +0x6 /* 00001610 */
0000160C  7212                     moveq.l    D1, 0x12
0000160E  6002                     bra        +0x4 /* 00001612 */
label00001610:
00001610  7200                     moveq.l    D1, 0x00
label00001612:
00001612  4881                     ext.w      D1
00001614  3F01                     move.w     -[A7], D1
00001616  A944                     syscall    SetItmMark
00001618  2054                     movea.l    A0, [A4]
0000161A  216E FFFA 0090           move.l     [A0 + 0x90], [A6 - 0x6]
label00001620:
00001620  2054                     movea.l    A0, [A4]
00001622  4A28 0060                tst.b      [A0 + 0x60]
00001626  6762                     beq        +0x64 /* 0000168A */
00001628  4A28 0064                tst.b      [A0 + 0x64]
0000162C  6718                     beq        +0x1A /* 00001646 */
0000162E  4AA8 0098                tst.l      [A0 + 0x98]
00001632  662A                     bne        +0x2C /* 0000165E */
00001634  4878 0C21                push.l     0xC21
00001638  4EBA FED2                jsr        [PC - 0x12E /* 0000150C */]
0000163C  2054                     movea.l    A0, [A4]
0000163E  2140 0098                move.l     [A0 + 0x98], D0
00001642  584F                     addq.w     A7, 4
00001644  6018                     bra        +0x1A /* 0000165E */
label00001646:
00001646  2054                     movea.l    A0, [A4]
00001648  4AA8 0094                tst.l      [A0 + 0x94]
0000164C  6610                     bne        +0x12 /* 0000165E */
0000164E  4878 0C20                push.l     0xC20
00001652  4EBA FEB8                jsr        [PC - 0x148 /* 0000150C */]
00001656  2054                     movea.l    A0, [A4]
00001658  2140 0094                move.l     [A0 + 0x94], D0
0000165C  584F                     addq.w     A7, 4
label0000165E:
0000165E  2F0C                     move.l     -[A7], A4
00001660  4EAD 0BA2                jsr        [A5 + 0xBA2 /* export_368, CODE:10 @ 000007B8 */]
00001664  2F0C                     move.l     -[A7], A4
00001666  4EAD 0BAA                jsr        [A5 + 0xBAA /* export_369, CODE:10 @ 00000868 */]
0000166A  2054                     movea.l    A0, [A4]
0000166C  4A50                     tst.w      [A0]
0000166E  504F                     addq.w     A7, 8
00001670  670E                     beq        +0x10 /* 00001680 */
00001672  204C                     movea.l    A0, A4
00001674  A02A                     syscall    HUnlock
00001676  2054                     movea.l    A0, [A4]
00001678  3D50 000E                move.w     [A6 + 0xE], [A0]
0000167C  6000 022A                bra        +0x22C /* 000018A8 */
label00001680:
00001680  2F0C                     move.l     -[A7], A4
00001682  2F0B                     move.l     -[A7], A3
00001684  4EBA FBA0                jsr        [PC - 0x460 /* 00001226 */]
00001688  504F                     addq.w     A7, 8
label0000168A:
0000168A  2054                     movea.l    A0, [A4]
0000168C  4AA8 009C                tst.l      [A0 + 0x9C]
00001690  661C                     bne        +0x1E /* 000016AE */
00001692  2F0C                     move.l     -[A7], A4
00001694  4EBA F4B6                jsr        [PC - 0xB4A /* 00000B4C */]
00001698  2054                     movea.l    A0, [A4]
0000169A  4A50                     tst.w      [A0]
0000169C  584F                     addq.w     A7, 4
0000169E  670E                     beq        +0x10 /* 000016AE */
000016A0  204C                     movea.l    A0, A4
000016A2  A02A                     syscall    HUnlock
000016A4  2054                     movea.l    A0, [A4]
000016A6  3D50 000E                move.w     [A6 + 0xE], [A0]
000016AA  6000 01FC                bra        +0x1FE /* 000018A8 */
label000016AE:
000016AE  2054                     movea.l    A0, [A4]
000016B0  4A28 0060                tst.b      [A0 + 0x60]
000016B4  6722                     beq        +0x24 /* 000016D8 */
000016B6  4AA8 0084                tst.l      [A0 + 0x84]
000016BA  661C                     bne        +0x1E /* 000016D8 */
000016BC  2F0C                     move.l     -[A7], A4
000016BE  4EAD 0B82                jsr        [A5 + 0xB82 /* export_364, CODE:10 @ 000002EA */]
000016C2  2054                     movea.l    A0, [A4]
000016C4  4A50                     tst.w      [A0]
000016C6  584F                     addq.w     A7, 4
000016C8  670E                     beq        +0x10 /* 000016D8 */
000016CA  204C                     movea.l    A0, A4
000016CC  A02A                     syscall    HUnlock
000016CE  2054                     movea.l    A0, [A4]
000016D0  3D50 000E                move.w     [A6 + 0xE], [A0]
000016D4  6000 01D2                bra        +0x1D4 /* 000018A8 */
label000016D8:
000016D8  2054                     movea.l    A0, [A4]
000016DA  4AA8 008A                tst.l      [A0 + 0x8A]
000016DE  661C                     bne        +0x1E /* 000016FC */
000016E0  2F0C                     move.l     -[A7], A4
000016E2  4EBA F808                jsr        [PC - 0x7F8 /* 00000EEC */]
000016E6  2054                     movea.l    A0, [A4]
000016E8  4A50                     tst.w      [A0]
000016EA  584F                     addq.w     A7, 4
000016EC  670E                     beq        +0x10 /* 000016FC */
000016EE  204C                     movea.l    A0, A4
000016F0  A02A                     syscall    HUnlock
000016F2  2054                     movea.l    A0, [A4]
000016F4  3D50 000E                move.w     [A6 + 0xE], [A0]
000016F8  6000 01AE                bra        +0x1B0 /* 000018A8 */
label000016FC:
000016FC  2054                     movea.l    A0, [A4]
000016FE  317C 0001 0072           move.w     [A0 + 0x72], 0x1
00001704  2F0C                     move.l     -[A7], A4
00001706  48C7                     ext.l      D7
00001708  2F07                     move.l     -[A7], D7
0000170A  4EBA FADA                jsr        [PC - 0x526 /* 000011E6 */]
0000170E  2054                     movea.l    A0, [A4]
00001710  4A50                     tst.w      [A0]
00001712  504F                     addq.w     A7, 8
00001714  670E                     beq        +0x10 /* 00001724 */
00001716  204C                     movea.l    A0, A4
00001718  A02A                     syscall    HUnlock
0000171A  2054                     movea.l    A0, [A4]
0000171C  3D50 000E                move.w     [A6 + 0xE], [A0]
00001720  6000 0186                bra        +0x188 /* 000018A8 */
label00001724:
00001724  BE6E FFFE                cmp.w      D7, [A6 - 0x2]
00001728  672A                     beq        +0x2C /* 00001754 */
0000172A  2054                     movea.l    A0, [A4]
0000172C  4AA8 0044                tst.l      [A0 + 0x44]
00001730  6722                     beq        +0x24 /* 00001754 */
00001732  2F28 0044                move.l     -[A7], [A0 + 0x44]
00001736  4EBA FC58                jsr        [PC - 0x3A8 /* 00001390 */]
0000173A  2054                     movea.l    A0, [A4]
0000173C  2F28 0044                move.l     -[A7], [A0 + 0x44]
00001740  4EBA 0960                jsr        [PC + 0x960 /* 000020A2 */]
00001744  2F0B                     move.l     -[A7], A3
00001746  4EBA FC48                jsr        [PC - 0x3B8 /* 00001390 */]
0000174A  2F0B                     move.l     -[A7], A3
0000174C  4EBA 0954                jsr        [PC + 0x954 /* 000020A2 */]
00001750  4FEF 0010                lea.l      A7, [A7 + 0x10]
label00001754:
00001754  2F0C                     move.l     -[A7], A4
00001756  48C7                     ext.l      D7
00001758  2F07                     move.l     -[A7], D7
0000175A  4EBA FB66                jsr        [PC - 0x49A /* 000012C2 */]
0000175E  2F0C                     move.l     -[A7], A4
00001760  2054                     movea.l    A0, [A4]
00001762  4A68 0068                tst.w      [A0 + 0x68]
00001766  56C3                     sne        D3
00001768  4403                     neg.b      D3
0000176A  4883                     ext.w      D3
0000176C  48C3                     ext.l      D3
0000176E  2F03                     move.l     -[A7], D3
00001770  4EBA F64E                jsr        [PC - 0x9B2 /* 00000DC0 */]
00001774  2054                     movea.l    A0, [A4]
00001776  214B 0044                move.l     [A0 + 0x44], A3
0000177A  2053                     movea.l    A0, [A3]
0000177C  2254                     movea.l    A1, [A4]
0000177E  2368 003E 0048           move.l     [A1 + 0x48], [A0 + 0x3E]
00001784  7001                     moveq.l    D0, 0x01
00001786  1F00                     move.b     -[A7], D0
00001788  2054                     movea.l    A0, [A4]
0000178A  2F28 0048                move.l     -[A7], [A0 + 0x48]
0000178E  4EAD 0882                jsr        [A5 + 0x882 /* export_268, CODE:3 @ 00003C64 */]
00001792  2054                     movea.l    A0, [A4]
00001794  4868 003C                pea.l      [A0 + 0x3C]
00001798  A928                     syscall    InvalRect
0000179A  2054                     movea.l    A0, [A4]
0000179C  41E8 002C                lea.l      A0, [A0 + 0x2C]
000017A0  2F20                     move.l     -[A7], -[A0]
000017A2  2F20                     move.l     -[A7], -[A0]
000017A4  4EBA 020C                jsr        [PC + 0x20C /* 000019B2 */]
000017A8  2054                     movea.l    A0, [A4]
000017AA  41E8 0034                lea.l      A0, [A0 + 0x34]
000017AE  2F20                     move.l     -[A7], -[A0]
000017B0  2F20                     move.l     -[A7], -[A0]
000017B2  4EBA 01FE                jsr        [PC + 0x1FE /* 000019B2 */]
000017B6  2054                     movea.l    A0, [A4]
000017B8  41E8 003C                lea.l      A0, [A0 + 0x3C]
000017BC  2F20                     move.l     -[A7], -[A0]
000017BE  2F20                     move.l     -[A7], -[A0]
000017C0  4EBA 01F0                jsr        [PC + 0x1F0 /* 000019B2 */]
000017C4  2054                     movea.l    A0, [A4]
000017C6  4A28 0060                tst.b      [A0 + 0x60]
000017CA  4FEF 0028                lea.l      A7, [A7 + 0x28]
000017CE  6700 0082                beq        +0x84 /* 00001852 */
000017D2  2068 006C                movea.l    A0, [A0 + 0x6C]
000017D6  2D48 FFFA                move.l     [A6 - 0x6], A0
000017DA  2050                     movea.l    A0, [A0]
000017DC  4AA8 0018                tst.l      [A0 + 0x18]
000017E0  6756                     beq        +0x58 /* 00001838 */
000017E2  2F0C                     move.l     -[A7], A4
000017E4  206E FFFA                movea.l    A0, [A6 - 0x6]
000017E8  2050                     movea.l    A0, [A0]
000017EA  2068 0018                movea.l    A0, [A0 + 0x18]
000017EE  2050                     movea.l    A0, [A0]
000017F0  2F28 000C                move.l     -[A7], [A0 + 0xC]
000017F4  2054                     movea.l    A0, [A4]
000017F6  3028 0068                move.w     D0, [A0 + 0x68]
000017FA  48C0                     ext.l      D0
000017FC  206E FFFA                movea.l    A0, [A6 - 0x6]
00001800  2050                     movea.l    A0, [A0]
00001802  E580                     asl        D0, 2
00001804  2070 0800                movea.l    A0, [A0 + D0]
00001808  2050                     movea.l    A0, [A0]
0000180A  2F28 000C                move.l     -[A7], [A0 + 0xC]
0000180E  4EAD 0BB2                jsr        [A5 + 0xBB2 /* export_370, CODE:10 @ 00000A2A */]
00001812  4A6D F7C6                tst.w      [A5 - 0x83A]
00001816  4FEF 000C                lea.l      A7, [A7 + 0xC]
0000181A  6624                     bne        +0x26 /* 00001840 */
0000181C  0C6D 0700 F7CC           cmpi.w     [A5 - 0x834], 0x700
00001822  6C1C                     bge        +0x1E /* 00001840 */
00001824  7000                     moveq.l    D0, 0x00
00001826  2F00                     move.l     -[A7], D0
00001828  2F38 09EE                move.l     -[A7], [0x000009EE /* GrayRgn */]
0000182C  A90C                     syscall    PaintOne
0000182E  2054                     movea.l    A0, [A4]
00001830  2F28 00C2                move.l     -[A7], [A0 + 0xC2]
00001834  A873                     syscall    SetPort
00001836  6008                     bra        +0xA /* 00001840 */
label00001838:
00001838  2F0C                     move.l     -[A7], A4
0000183A  4EAD 0BBA                jsr        [A5 + 0xBBA /* export_371, CODE:10 @ 00000ECA */]
0000183E  584F                     addq.w     A7, 4
label00001840:
00001840  2054                     movea.l    A0, [A4]
00001842  2F28 00C2                move.l     -[A7], [A0 + 0xC2]
00001846  4EAD 0BCA                jsr        [A5 + 0xBCA /* export_373, CODE:10 @ 00000FD2 */]
0000184A  2054                     movea.l    A0, [A4]
0000184C  3140 0066                move.w     [A0 + 0x66], D0
00001850  584F                     addq.w     A7, 4
label00001852:
00001852  7601                     moveq.l    D3, 0x01
00001854  2053                     movea.l    A0, [A3]
00001856  4A68 003C                tst.w      [A0 + 0x3C]
0000185A  670A                     beq        +0xC /* 00001866 */
0000185C  2054                     movea.l    A0, [A4]
0000185E  4A28 0070                tst.b      [A0 + 0x70]
00001862  6602                     bne        +0x4 /* 00001866 */
00001864  7600                     moveq.l    D3, 0x00
label00001866:
00001866  1E03                     move.b     D7, D3
00001868  B807                     cmp.b      D4, D7
0000186A  671A                     beq        +0x1C /* 00001886 */
0000186C  4A07                     tst.b      D7
0000186E  57C3                     seq        D3
00001870  4403                     neg.b      D3
00001872  4883                     ext.w      D3
00001874  48C3                     ext.l      D3
00001876  2F03                     move.l     -[A7], D3
00001878  7001                     moveq.l    D0, 0x01
0000187A  2F00                     move.l     -[A7], D0
0000187C  2F0C                     move.l     -[A7], A4
0000187E  4EBA 0FD4                jsr        [PC + 0xFD4 /* 00002854 */]
00001882  4FEF 000C                lea.l      A7, [A7 + 0xC]
label00001886:
00001886  2054                     movea.l    A0, [A4]
00001888  BA68 0068                cmp.w      D5, [A0 + 0x68]
0000188C  6608                     bne        +0xA /* 00001896 */
0000188E  7006                     moveq.l    D0, 0x06
00001890  B068 0068                cmp.w      D0, [A0 + 0x68]
00001894  6608                     bne        +0xA /* 0000189E */
label00001896:
00001896  2F0C                     move.l     -[A7], A4
00001898  4EBA 0F00                jsr        [PC + 0xF00 /* 0000279A */]
0000189C  584F                     addq.w     A7, 4
label0000189E:
0000189E  204C                     movea.l    A0, A4
000018A0  A02A                     syscall    HUnlock
000018A2  2054                     movea.l    A0, [A4]
000018A4  3D50 000E                move.w     [A6 + 0xE], [A0]
label000018A8:
000018A8  4CEE 18F8 FFDE           movem.l    D3,D4,D5,D6,D7,A3,A4, [A6 - 0x22]
000018AE  4E5E                     unlink     A6
000018B0  205F                     movea.l    A0, [A7]+
000018B2  5C4F                     addq.w     A7, 6
000018B4  4ED0                     jmp        [A0]
fn000018B6:
000018B6  4E56 0000                link       A6, 0
000018BA  48E7 0118                movem.l    -[A7], D7,A3,A4
000018BE  286E 0008                movea.l    A4, [A6 + 0x8]
000018C2  2054                     movea.l    A0, [A4]
000018C4  4A28 0060                tst.b      [A0 + 0x60]
000018C8  6762                     beq        +0x64 /* 0000192C */
000018CA  2F28 00C2                move.l     -[A7], [A0 + 0xC2]
000018CE  4EAD 0BCA                jsr        [A5 + 0xBCA /* export_373, CODE:10 @ 00000FD2 */]
000018D2  3E00                     move.w     D7, D0
000018D4  2054                     movea.l    A0, [A4]
000018D6  BE68 0066                cmp.w      D7, [A0 + 0x66]
000018DA  584F                     addq.w     A7, 4
000018DC  674E                     beq        +0x50 /* 0000192C */
000018DE  2668 006C                movea.l    A3, [A0 + 0x6C]
000018E2  200B                     move.l     D0, A3
000018E4  6746                     beq        +0x48 /* 0000192C */
000018E6  4228 0065                clr.b      [A0 + 0x65]
000018EA  2053                     movea.l    A0, [A3]
000018EC  4AA8 0018                tst.l      [A0 + 0x18]
000018F0  672C                     beq        +0x2E /* 0000191E */
000018F2  2F0C                     move.l     -[A7], A4
000018F4  2068 0018                movea.l    A0, [A0 + 0x18]
000018F8  2050                     movea.l    A0, [A0]
000018FA  2F28 000C                move.l     -[A7], [A0 + 0xC]
000018FE  2054                     movea.l    A0, [A4]
00001900  3028 0068                move.w     D0, [A0 + 0x68]
00001904  48C0                     ext.l      D0
00001906  2053                     movea.l    A0, [A3]
00001908  E580                     asl        D0, 2
0000190A  2070 0800                movea.l    A0, [A0 + D0]
0000190E  2050                     movea.l    A0, [A0]
00001910  2F28 000C                move.l     -[A7], [A0 + 0xC]
00001914  4EAD 0BB2                jsr        [A5 + 0xBB2 /* export_370, CODE:10 @ 00000A2A */]
00001918  4FEF 000C                lea.l      A7, [A7 + 0xC]
0000191C  6008                     bra        +0xA /* 00001926 */
label0000191E:
0000191E  2F0C                     move.l     -[A7], A4
00001920  4EAD 0BBA                jsr        [A5 + 0xBBA /* export_371, CODE:10 @ 00000ECA */]
00001924  584F                     addq.w     A7, 4
label00001926:
00001926  2054                     movea.l    A0, [A4]
00001928  3147 0066                move.w     [A0 + 0x66], D7
label0000192C:
0000192C  4CEE 1880 FFF4           movem.l    D7,A3,A4, [A6 - 0xC]
00001932  4E5E                     unlink     A6
00001934  4E75                     rts
fn00001936:
00001936  4E56 0000                link       A6, 0
0000193A  48E7 0118                movem.l    -[A7], D7,A3,A4
0000193E  286E 0008                movea.l    A4, [A6 + 0x8]
00001942  2054                     movea.l    A0, [A4]
00001944  4A28 0060                tst.b      [A0 + 0x60]
00001948  6742                     beq        +0x44 /* 0000198C */
0000194A  598F                     subq.l     A7, 4
0000194C  2054                     movea.l    A0, [A4]
0000194E  2F28 00C2                move.l     -[A7], [A0 + 0xC2]
00001952  AA96                     syscall    GetPalette
00001954  265F                     movea.l    A3, [A7]+
00001956  200B                     move.l     D0, A3
00001958  6732                     beq        +0x34 /* 0000198C */
0000195A  2054                     movea.l    A0, [A4]
0000195C  2F28 00C2                move.l     -[A7], [A0 + 0xC2]
00001960  4EAD 0BC2                jsr        [A5 + 0xBC2 /* export_372, CODE:10 @ 00000F98 */]
00001964  2040                     movea.l    A0, D0
00001966  2050                     movea.l    A0, [A0]
00001968  7010                     moveq.l    D0, 0x10
0000196A  B068 001E                cmp.w      D0, [A0 + 0x1E]
0000196E  584F                     addq.w     A7, 4
00001970  671A                     beq        +0x1C /* 0000198C */
00001972  2054                     movea.l    A0, [A4]
00001974  2F28 00C2                move.l     -[A7], [A0 + 0xC2]
00001978  4EAD 0BCA                jsr        [A5 + 0xBCA /* export_373, CODE:10 @ 00000FD2 */]
0000197C  3E00                     move.w     D7, D0
0000197E  7001                     moveq.l    D0, 0x01
00001980  EFA8                     lsl        D0, D7
00001982  2053                     movea.l    A0, [A3]
00001984  3210                     move.w     D1, [A0]
00001986  48C1                     ext.l      D1
00001988  B280                     cmp.l      D1, D0
0000198A  584F                     addq.w     A7, 4
label0000198C:
0000198C  4CEE 1880 FFF4           movem.l    D7,A3,A4, [A6 - 0xC]
00001992  4E5E                     unlink     A6
00001994  4E75                     rts
fn00001996:
00001996  4E56 0000                link       A6, 0
0000199A  526E 0012                addq.w     [A6 + 0x12], 1
0000199E  526E 0010                addq.w     [A6 + 0x10], 1
000019A2  206E 0008                movea.l    A0, [A6 + 0x8]
000019A6  43EE 000C                lea.l      A1, [A6 + 0xC]
000019AA  20D9                     move.l     [A0]+, [A1]+
000019AC  20D9                     move.l     [A0]+, [A1]+
000019AE  4E5E                     unlink     A6
000019B0  4E75                     rts
fn000019B2:
000019B2  4E56 0000                link       A6, 0
000019B6  41EE 0010                lea.l      A0, [A6 + 0x10]
000019BA  2F20                     move.l     -[A7], -[A0]
000019BC  2F20                     move.l     -[A7], -[A0]
000019BE  486E 0008                pea.l      [A6 + 0x8]
000019C2  4EBA FFD2                jsr        [PC - 0x2E /* 00001996 */]
000019C6  486E 0008                pea.l      [A6 + 0x8]
000019CA  A928                     syscall    InvalRect
000019CC  4E5E                     unlink     A6
000019CE  4E75                     rts
fn000019D0:
000019D0  4E56 FFEE                link       A6, -0x0012
000019D4  2F0C                     move.l     -[A7], A4
000019D6  598F                     subq.l     A7, 4
000019D8  4EAD 021A                jsr        [A5 + 0x21A /* export_63, CODE:1 @ 0000586C */]
000019DC  285F                     movea.l    A4, [A7]+
000019DE  486E FFEE                pea.l      [A6 - 0x12]
000019E2  A898                     syscall    GetPenState
000019E4  A89E                     syscall    PenNormal
000019E6  4A2E 0013                tst.b      [A6 + 0x13]
000019EA  6708                     beq        +0xA /* 000019F4 */
000019EC  41EC 006E                lea.l      A0, [A4 + 0x6E]
000019F0  2008                     move.l     D0, A0
000019F2  6006                     bra        +0x8 /* 000019FA */
label000019F4:
000019F4  41EC 0076                lea.l      A0, [A4 + 0x76]
000019F8  2008                     move.l     D0, A0
label000019FA:
000019FA  2F00                     move.l     -[A7], D0
000019FC  A89D                     syscall    PenPat
000019FE  7001                     moveq.l    D0, 0x01
00001A00  3F00                     move.w     -[A7], D0
00001A02  3F00                     move.w     -[A7], D0
00001A04  A89B                     syscall    PenSize
00001A06  3F2E 000E                move.w     -[A7], [A6 + 0xE]
00001A0A  302E 0008                move.w     D0, [A6 + 0x8]
00001A0E  5440                     addq.w     D0, 2
00001A10  3F00                     move.w     -[A7], D0
00001A12  A893                     syscall    MoveTo
00001A14  2F2E 000C                move.l     -[A7], [A6 + 0xC]
00001A18  A891                     syscall    LineTo
00001A1A  302E 000A                move.w     D0, [A6 + 0xA]
00001A1E  5440                     addq.w     D0, 2
00001A20  3F00                     move.w     -[A7], D0
00001A22  3F2E 000C                move.w     -[A7], [A6 + 0xC]
00001A26  A893                     syscall    MoveTo
00001A28  2F2E 000C                move.l     -[A7], [A6 + 0xC]
00001A2C  A891                     syscall    LineTo
00001A2E  486E FFEE                pea.l      [A6 - 0x12]
00001A32  A899                     syscall    SetPenState
00001A34  286E FFEA                movea.l    A4, [A6 - 0x16]
00001A38  4E5E                     unlink     A6
00001A3A  4E75                     rts
fn00001A3C:
00001A3C  4E56 FFEE                link       A6, -0x0012
00001A40  2F0C                     move.l     -[A7], A4
00001A42  598F                     subq.l     A7, 4
00001A44  4EAD 021A                jsr        [A5 + 0x21A /* export_63, CODE:1 @ 0000586C */]
00001A48  285F                     movea.l    A4, [A7]+
00001A4A  486E 0008                pea.l      [A6 + 0x8]
00001A4E  A8A1                     syscall    FrameRect
00001A50  486E FFEE                pea.l      [A6 - 0x12]
00001A54  A898                     syscall    GetPenState
00001A56  486C 0076                pea.l      [A4 + 0x76]
00001A5A  A89D                     syscall    PenPat
00001A5C  486E 0008                pea.l      [A6 + 0x8]
00001A60  7001                     moveq.l    D0, 0x01
00001A62  3F00                     move.w     -[A7], D0
00001A64  3F00                     move.w     -[A7], D0
00001A66  A8A9                     syscall    InsetRect
00001A68  486E 0008                pea.l      [A6 + 0x8]
00001A6C  A8A1                     syscall    FrameRect
00001A6E  486E FFEE                pea.l      [A6 - 0x12]
00001A72  A899                     syscall    SetPenState
00001A74  286E FFEA                movea.l    A4, [A6 - 0x16]
00001A78  4E5E                     unlink     A6
00001A7A  4E75                     rts
export_349:
fn00001A7C:
00001A7C  4E56 FFE6                link       A6, -0x001A
00001A80  48E7 1018                movem.l    -[A7], D3,A3,A4
00001A84  286E 0008                movea.l    A4, [A6 + 0x8]
00001A88  2054                     movea.l    A0, [A4]
00001A8A  2668 0044                movea.l    A3, [A0 + 0x44]
00001A8E  43EE FFF0                lea.l      A1, [A6 - 0x10]
00001A92  41E8 0024                lea.l      A0, [A0 + 0x24]
00001A96  22D8                     move.l     [A1]+, [A0]+
00001A98  22D8                     move.l     [A1]+, [A0]+
00001A9A  2054                     movea.l    A0, [A4]
00001A9C  43EE FFF8                lea.l      A1, [A6 - 0x8]
00001AA0  41E8 002C                lea.l      A0, [A0 + 0x2C]
00001AA4  22D8                     move.l     [A1]+, [A0]+
00001AA6  22D8                     move.l     [A1]+, [A0]+
00001AA8  2053                     movea.l    A0, [A3]
00001AAA  4A68 003C                tst.w      [A0 + 0x3C]
00001AAE  6634                     bne        +0x36 /* 00001AE4 */
00001AB0  41EE 0000                lea.l      A0, [A6 + 0x0]
00001AB4  2F20                     move.l     -[A7], -[A0]
00001AB6  2F20                     move.l     -[A7], -[A0]
00001AB8  486E FFF8                pea.l      [A6 - 0x8]
00001ABC  4EBA FED8                jsr        [PC - 0x128 /* 00001996 */]
00001AC0  486E FFF8                pea.l      [A6 - 0x8]
00001AC4  A8A3                     syscall    EraseRect
00001AC6  41EE FFF8                lea.l      A0, [A6 - 0x8]
00001ACA  2F20                     move.l     -[A7], -[A0]
00001ACC  2F20                     move.l     -[A7], -[A0]
00001ACE  486E FFF0                pea.l      [A6 - 0x10]
00001AD2  4EBA FEC2                jsr        [PC - 0x13E /* 00001996 */]
00001AD6  486E FFF0                pea.l      [A6 - 0x10]
00001ADA  A8A3                     syscall    EraseRect
00001ADC  4FEF 0018                lea.l      A7, [A7 + 0x18]
00001AE0  6000 00F8                bra        +0xFA /* 00001BDA */
label00001AE4:
00001AE4  2F0C                     move.l     -[A7], A4
00001AE6  7000                     moveq.l    D0, 0x00
00001AE8  2F00                     move.l     -[A7], D0
00001AEA  2F00                     move.l     -[A7], D0
00001AEC  4EAD 0BD2                jsr        [A5 + 0xBD2 /* export_374, CODE:10 @ 00000FEA */]
00001AF0  2640                     movea.l    A3, D0
00001AF2  200B                     move.l     D0, A3
00001AF4  4FEF 000C                lea.l      A7, [A7 + 0xC]
00001AF8  6700 00E0                beq        +0xE2 /* 00001BDA */
00001AFC  2054                     movea.l    A0, [A4]
00001AFE  7000                     moveq.l    D0, 0x00
00001B00  1028 0062                move.b     D0, [A0 + 0x62]
00001B04  4A80                     tst.l      D0
00001B06  4A28 0063                tst.b      [A0 + 0x63]
00001B0A  57C3                     seq        D3
00001B0C  4403                     neg.b      D3
00001B0E  4883                     ext.w      D3
00001B10  C600                     and.b      D3, D0
00001B12  7000                     moveq.l    D0, 0x00
00001B14  1003                     move.b     D0, D3
00001B16  2F00                     move.l     -[A7], D0
00001B18  41EE 0000                lea.l      A0, [A6 + 0x0]
00001B1C  2F20                     move.l     -[A7], -[A0]
00001B1E  2F20                     move.l     -[A7], -[A0]
00001B20  4EBA FEAE                jsr        [PC - 0x152 /* 000019D0 */]
00001B24  2054                     movea.l    A0, [A4]
00001B26  7000                     moveq.l    D0, 0x00
00001B28  1028 0062                move.b     D0, [A0 + 0x62]
00001B2C  4A80                     tst.l      D0
00001B2E  4A28 0063                tst.b      [A0 + 0x63]
00001B32  57C3                     seq        D3
00001B34  4403                     neg.b      D3
00001B36  4883                     ext.w      D3
00001B38  C600                     and.b      D3, D0
00001B3A  7000                     moveq.l    D0, 0x00
00001B3C  1003                     move.b     D0, D3
00001B3E  2F00                     move.l     -[A7], D0
00001B40  41EE FFF8                lea.l      A0, [A6 - 0x8]
00001B44  2F20                     move.l     -[A7], -[A0]
00001B46  2F20                     move.l     -[A7], -[A0]
00001B48  4EBA FE86                jsr        [PC - 0x17A /* 000019D0 */]
00001B4C  486E FFEA                pea.l      [A6 - 0x16]
00001B50  AA19                     syscall    GetForeColor
00001B52  598F                     subq.l     A7, 4
00001B54  A8D8                     syscall    NewRgn
00001B56  2D5F FFE6                move.l     [A6 - 0x1A], [A7]+
00001B5A  4A78 0220                tst.w      [0x00000220 /* MemErr */]
00001B5E  4FEF 0018                lea.l      A7, [A7 + 0x18]
00001B62  6676                     bne        +0x78 /* 00001BDA */
00001B64  2F2E FFE6                move.l     -[A7], [A6 - 0x1A]
00001B68  A87A                     syscall    GetClip
00001B6A  2F0B                     move.l     -[A7], A3
00001B6C  A879                     syscall    SetClip
00001B6E  41EE 0000                lea.l      A0, [A6 + 0x0]
00001B72  2F20                     move.l     -[A7], -[A0]
00001B74  2F20                     move.l     -[A7], -[A0]
00001B76  4EBA FEC4                jsr        [PC - 0x13C /* 00001A3C */]
00001B7A  486E FFF8                pea.l      [A6 - 0x8]
00001B7E  7002                     moveq.l    D0, 0x02
00001B80  3F00                     move.w     -[A7], D0
00001B82  3F00                     move.w     -[A7], D0
00001B84  A8A9                     syscall    InsetRect
00001B86  2054                     movea.l    A0, [A4]
00001B88  4868 0056                pea.l      [A0 + 0x56]
00001B8C  AA14                     syscall    RGBForeColor
00001B8E  486E FFF8                pea.l      [A6 - 0x8]
00001B92  A8A2                     syscall    PaintRect
00001B94  2F2E FFE6                move.l     -[A7], [A6 - 0x1A]
00001B98  A879                     syscall    SetClip
00001B9A  2F0B                     move.l     -[A7], A3
00001B9C  A8D9                     syscall    DisposRgn/DisposeRgn
00001B9E  2F2E FFE6                move.l     -[A7], [A6 - 0x1A]
00001BA2  A8D9                     syscall    DisposRgn/DisposeRgn
00001BA4  486E FFEA                pea.l      [A6 - 0x16]
00001BA8  AA14                     syscall    RGBForeColor
00001BAA  41EE FFF8                lea.l      A0, [A6 - 0x8]
00001BAE  2F20                     move.l     -[A7], -[A0]
00001BB0  2F20                     move.l     -[A7], -[A0]
00001BB2  4EBA FE88                jsr        [PC - 0x178 /* 00001A3C */]
00001BB6  486E FFF0                pea.l      [A6 - 0x10]
00001BBA  7002                     moveq.l    D0, 0x02
00001BBC  3F00                     move.w     -[A7], D0
00001BBE  3F00                     move.w     -[A7], D0
00001BC0  A8A9                     syscall    InsetRect
00001BC2  2054                     movea.l    A0, [A4]
00001BC4  4868 0050                pea.l      [A0 + 0x50]
00001BC8  AA14                     syscall    RGBForeColor
00001BCA  486E FFF0                pea.l      [A6 - 0x10]
00001BCE  A8A2                     syscall    PaintRect
00001BD0  486E FFEA                pea.l      [A6 - 0x16]
00001BD4  AA14                     syscall    RGBForeColor
00001BD6  4FEF 0010                lea.l      A7, [A7 + 0x10]
label00001BDA:
00001BDA  4CEE 1808 FFDA           movem.l    D3,A3,A4, [A6 - 0x26]
00001BE0  4E5E                     unlink     A6
00001BE2  4E75                     rts
export_350:
fn00001BE4:
00001BE4  4E56 FFD8                link       A6, -0x0028
00001BE8  48E7 1118                movem.l    -[A7], D3,D7,A3,A4
00001BEC  286E 0008                movea.l    A4, [A6 + 0x8]
00001BF0  2054                     movea.l    A0, [A4]
00001BF2  43EE FFE8                lea.l      A1, [A6 - 0x18]
00001BF6  41E8 0034                lea.l      A0, [A0 + 0x34]
00001BFA  22D8                     move.l     [A1]+, [A0]+
00001BFC  22D8                     move.l     [A1]+, [A0]+
00001BFE  41EE FFF0                lea.l      A0, [A6 - 0x10]
00001C02  2F20                     move.l     -[A7], -[A0]
00001C04  2F20                     move.l     -[A7], -[A0]
00001C06  4EBA FE34                jsr        [PC - 0x1CC /* 00001A3C */]
00001C0A  2054                     movea.l    A0, [A4]
00001C0C  7000                     moveq.l    D0, 0x00
00001C0E  1028 0062                move.b     D0, [A0 + 0x62]
00001C12  4A80                     tst.l      D0
00001C14  4A28 0063                tst.b      [A0 + 0x63]
00001C18  57C3                     seq        D3
00001C1A  4403                     neg.b      D3
00001C1C  4883                     ext.w      D3
00001C1E  C600                     and.b      D3, D0
00001C20  7000                     moveq.l    D0, 0x00
00001C22  1003                     move.b     D0, D3
00001C24  2F00                     move.l     -[A7], D0
00001C26  41EE FFF0                lea.l      A0, [A6 - 0x10]
00001C2A  2F20                     move.l     -[A7], -[A0]
00001C2C  2F20                     move.l     -[A7], -[A0]
00001C2E  4EBA FDA0                jsr        [PC - 0x260 /* 000019D0 */]
00001C32  486E FFE8                pea.l      [A6 - 0x18]
00001C36  7002                     moveq.l    D0, 0x02
00001C38  3F00                     move.w     -[A7], D0
00001C3A  3F00                     move.w     -[A7], D0
00001C3C  A8A9                     syscall    InsetRect
00001C3E  486E FFF0                pea.l      [A6 - 0x10]
00001C42  A874                     syscall    GetPort
00001C44  206E FFF0                movea.l    A0, [A6 - 0x10]
00001C48  2D68 0010 FFF4           move.l     [A6 - 0xC], [A0 + 0x10]
00001C4E  302E FFF6                move.w     D0, [A6 - 0xA]
00001C52  906E FFEA                sub.w      D0, [A6 - 0x16]
00001C56  3F00                     move.w     -[A7], D0
00001C58  302E FFF4                move.w     D0, [A6 - 0xC]
00001C5C  906E FFE8                sub.w      D0, [A6 - 0x18]
00001C60  3F00                     move.w     -[A7], D0
00001C62  A878                     syscall    SetOrigin
00001C64  486E FFF8                pea.l      [A6 - 0x8]
00001C68  7000                     moveq.l    D0, 0x00
00001C6A  3F00                     move.w     -[A7], D0
00001C6C  3F00                     move.w     -[A7], D0
00001C6E  322E FFEE                move.w     D1, [A6 - 0x12]
00001C72  926E FFEA                sub.w      D1, [A6 - 0x16]
00001C76  3F01                     move.w     -[A7], D1
00001C78  322E FFEC                move.w     D1, [A6 - 0x14]
00001C7C  926E FFE8                sub.w      D1, [A6 - 0x18]
00001C80  3F01                     move.w     -[A7], D1
00001C82  A8A7                     syscall    SetRect
00001C84  2F0C                     move.l     -[A7], A4
00001C86  4EBA EE68                jsr        [PC - 0x1198 /* 00000AF0 */]
00001C8A  4A00                     tst.b      D0
00001C8C  4FEF 0018                lea.l      A7, [A7 + 0x18]
00001C90  6700 0126                beq        +0x128 /* 00001DB8 */
00001C94  2054                     movea.l    A0, [A4]
00001C96  3E28 0088                move.w     D7, [A0 + 0x88]
00001C9A  48C7                     ext.l      D7
00001C9C  2068 0084                movea.l    A0, [A0 + 0x84]
00001CA0  2050                     movea.l    A0, [A0]
00001CA2  2007                     move.l     D0, D7
00001CA4  E580                     asl        D0, 2
00001CA6  2670 0802                movea.l    A3, [A0 + D0 + 0x2]
00001CAA  2054                     movea.l    A0, [A4]
00001CAC  4A68 0068                tst.w      [A0 + 0x68]
00001CB0  6618                     bne        +0x1A /* 00001CCA */
00001CB2  204B                     movea.l    A0, A3
00001CB4  A029                     syscall    HLock
00001CB6  486E FFF8                pea.l      [A6 - 0x8]
00001CBA  2053                     movea.l    A0, [A3]
00001CBC  4868 0014                pea.l      [A0 + 0x14]
00001CC0  A8A5                     syscall    FillRect
00001CC2  204B                     movea.l    A0, A3
00001CC4  A02A                     syscall    HUnlock
00001CC6  6000 011A                bra        +0x11C /* 00001DE2 */
label00001CCA:
00001CCA  486E FFD8                pea.l      [A6 - 0x28]
00001CCE  AA19                     syscall    GetForeColor
00001CD0  486E FFDE                pea.l      [A6 - 0x22]
00001CD4  AA1A                     syscall    GetBackColor
00001CD6  2054                     movea.l    A0, [A4]
00001CD8  4868 0050                pea.l      [A0 + 0x50]
00001CDC  AA14                     syscall    RGBForeColor
00001CDE  2054                     movea.l    A0, [A4]
00001CE0  4868 0056                pea.l      [A0 + 0x56]
00001CE4  AA15                     syscall    RGBBackColor
00001CE6  48C7                     ext.l      D7
00001CE8  2054                     movea.l    A0, [A4]
00001CEA  2068 0084                movea.l    A0, [A0 + 0x84]
00001CEE  2050                     movea.l    A0, [A0]
00001CF0  2007                     move.l     D0, D7
00001CF2  E580                     asl        D0, 2
00001CF4  2670 0802                movea.l    A3, [A0 + D0 + 0x2]
00001CF8  2053                     movea.l    A0, [A3]
00001CFA  317C FFFF 000E           move.w     [A0 + 0xE], 0xFFFF
00001D00  2053                     movea.l    A0, [A3]
00001D02  2068 0002                movea.l    A0, [A0 + 0x2]
00001D06  2050                     movea.l    A0, [A0]
00001D08  7001                     moveq.l    D0, 0x01
00001D0A  B068 0020                cmp.w      D0, [A0 + 0x20]
00001D0E  6672                     bne        +0x74 /* 00001D82 */
00001D10  2053                     movea.l    A0, [A3]
00001D12  2068 0002                movea.l    A0, [A0 + 0x2]
00001D16  2050                     movea.l    A0, [A0]
00001D18  4AA8 002A                tst.l      [A0 + 0x2A]
00001D1C  6664                     bne        +0x66 /* 00001D82 */
00001D1E  7018                     moveq.l    D0, 0x18
00001D20  A322                     syscall    NewHandleClear, flags=3
00001D22  2D48 FFE4                move.l     [A6 - 0x1C], A0
00001D26  675A                     beq        +0x5C /* 00001D82 */
00001D28  598F                     subq.l     A7, 4
00001D2A  AA28                     syscall    GetCTSeed
00001D2C  206E FFE4                movea.l    A0, [A6 - 0x1C]
00001D30  2050                     movea.l    A0, [A0]
00001D32  209F                     move.l     [A0], [A7]+
00001D34  206E FFE4                movea.l    A0, [A6 - 0x1C]
00001D38  2050                     movea.l    A0, [A0]
00001D3A  317C 0001 0006           move.w     [A0 + 0x6], 0x1
00001D40  2054                     movea.l    A0, [A4]
00001D42  226E FFE4                movea.l    A1, [A6 - 0x1C]
00001D46  2251                     movea.l    A1, [A1]
00001D48  43E9 000A                lea.l      A1, [A1 + 0xA]
00001D4C  41E8 0056                lea.l      A0, [A0 + 0x56]
00001D50  22D8                     move.l     [A1]+, [A0]+
00001D52  32D8                     move.w     [A1]+, [A0]+
00001D54  206E FFE4                movea.l    A0, [A6 - 0x1C]
00001D58  2050                     movea.l    A0, [A0]
00001D5A  317C 0001 0010           move.w     [A0 + 0x10], 0x1
00001D60  2054                     movea.l    A0, [A4]
00001D62  226E FFE4                movea.l    A1, [A6 - 0x1C]
00001D66  2251                     movea.l    A1, [A1]
00001D68  43E9 0012                lea.l      A1, [A1 + 0x12]
00001D6C  41E8 0050                lea.l      A0, [A0 + 0x50]
00001D70  22D8                     move.l     [A1]+, [A0]+
00001D72  32D8                     move.w     [A1]+, [A0]+
00001D74  2053                     movea.l    A0, [A3]
00001D76  2068 0002                movea.l    A0, [A0 + 0x2]
00001D7A  2050                     movea.l    A0, [A0]
00001D7C  216E FFE4 002A           move.l     [A0 + 0x2A], [A6 - 0x1C]
label00001D82:
00001D82  486E FFF8                pea.l      [A6 - 0x8]
00001D86  2F0B                     move.l     -[A7], A3
00001D88  AA0E                     syscall    FillCRect
00001D8A  2053                     movea.l    A0, [A3]
00001D8C  2068 0002                movea.l    A0, [A0 + 0x2]
00001D90  2050                     movea.l    A0, [A0]
00001D92  2028 002A                move.l     D0, [A0 + 0x2A]
00001D96  B0AE FFE4                cmp.l      D0, [A6 - 0x1C]
00001D9A  660E                     bne        +0x10 /* 00001DAA */
00001D9C  2053                     movea.l    A0, [A3]
00001D9E  2068 0002                movea.l    A0, [A0 + 0x2]
00001DA2  2050                     movea.l    A0, [A0]
00001DA4  7000                     moveq.l    D0, 0x00
00001DA6  2140 002A                move.l     [A0 + 0x2A], D0
label00001DAA:
00001DAA  486E FFD8                pea.l      [A6 - 0x28]
00001DAE  AA14                     syscall    RGBForeColor
00001DB0  486E FFDE                pea.l      [A6 - 0x22]
00001DB4  AA15                     syscall    RGBBackColor
00001DB6  602A                     bra        +0x2C /* 00001DE2 */
label00001DB8:
00001DB8  2054                     movea.l    A0, [A4]
00001DBA  2068 008A                movea.l    A0, [A0 + 0x8A]
00001DBE  A029                     syscall    HLock
00001DC0  486E FFF8                pea.l      [A6 - 0x8]
00001DC4  2054                     movea.l    A0, [A4]
00001DC6  3028 008E                move.w     D0, [A0 + 0x8E]
00001DCA  48C0                     ext.l      D0
00001DCC  2068 008A                movea.l    A0, [A0 + 0x8A]
00001DD0  2050                     movea.l    A0, [A0]
00001DD2  E780                     asl        D0, 3
00001DD4  4870 0802                pea.l      [A0 + D0 + 0x2]
00001DD8  A8A5                     syscall    FillRect
00001DDA  2054                     movea.l    A0, [A4]
00001DDC  2068 008A                movea.l    A0, [A0 + 0x8A]
00001DE0  A029                     syscall    HLock
label00001DE2:
00001DE2  2F2E FFF4                move.l     -[A7], [A6 - 0xC]
00001DE6  A878                     syscall    SetOrigin
00001DE8  4CEE 1888 FFC8           movem.l    D3,D7,A3,A4, [A6 - 0x38]
00001DEE  4E5E                     unlink     A6
00001DF0  4E75                     rts
fn00001DF2:
00001DF2  4E56 FFF8                link       A6, -0x0008
00001DF6  48E7 0308                movem.l    -[A7], D6,D7,A4
00001DFA  286E 0008                movea.l    A4, [A6 + 0x8]
00001DFE  2054                     movea.l    A0, [A4]
00001E00  43EE FFF8                lea.l      A1, [A6 - 0x8]
00001E04  41E8 001C                lea.l      A0, [A0 + 0x1C]
00001E08  22D8                     move.l     [A1]+, [A0]+
00001E0A  22D8                     move.l     [A1]+, [A0]+
00001E0C  486E FFF8                pea.l      [A6 - 0x8]
00001E10  A8A1                     syscall    FrameRect
00001E12  7E01                     moveq.l    D7, 0x01
00001E14  6024                     bra        +0x26 /* 00001E3A */
label00001E16:
00001E16  302E FFFA                move.w     D0, [A6 - 0x6]
00001E1A  48C0                     ext.l      D0
00001E1C  7215                     moveq.l    D1, 0x15
00001E1E  C3C7                     muls.w     D1, D7
00001E20  2C01                     move.l     D6, D1
00001E22  DC80                     add.l      D6, D0
00001E24  3F06                     move.w     -[A7], D6
00001E26  3F2E FFF8                move.w     -[A7], [A6 - 0x8]
00001E2A  A893                     syscall    MoveTo
00001E2C  3F06                     move.w     -[A7], D6
00001E2E  302E FFFC                move.w     D0, [A6 - 0x4]
00001E32  5340                     subq.w     D0, 1
00001E34  3F00                     move.w     -[A7], D0
00001E36  A891                     syscall    LineTo
00001E38  5247                     addq.w     D7, 1
label00001E3A:
00001E3A  2054                     movea.l    A0, [A4]
00001E3C  2068 00A0                movea.l    A0, [A0 + 0xA0]
00001E40  2050                     movea.l    A0, [A0]
00001E42  BE50                     cmp.w      D7, [A0]
00001E44  6DD0                     blt        -0x2E /* 00001E16 */
00001E46  7E01                     moveq.l    D7, 0x01
00001E48  6024                     bra        +0x26 /* 00001E6E */
label00001E4A:
00001E4A  302E FFF8                move.w     D0, [A6 - 0x8]
00001E4E  48C0                     ext.l      D0
00001E50  7215                     moveq.l    D1, 0x15
00001E52  C3C7                     muls.w     D1, D7
00001E54  2C01                     move.l     D6, D1
00001E56  DC80                     add.l      D6, D0
00001E58  3F2E FFFA                move.w     -[A7], [A6 - 0x6]
00001E5C  3F06                     move.w     -[A7], D6
00001E5E  A893                     syscall    MoveTo
00001E60  302E FFFE                move.w     D0, [A6 - 0x2]
00001E64  5340                     subq.w     D0, 1
00001E66  3F00                     move.w     -[A7], D0
00001E68  3F06                     move.w     -[A7], D6
00001E6A  A891                     syscall    LineTo
00001E6C  5247                     addq.w     D7, 1
label00001E6E:
00001E6E  2054                     movea.l    A0, [A4]
00001E70  2068 00A0                movea.l    A0, [A0 + 0xA0]
00001E74  2050                     movea.l    A0, [A0]
00001E76  BE68 0002                cmp.w      D7, [A0 + 0x2]
00001E7A  6DCE                     blt        -0x30 /* 00001E4A */
00001E7C  4CEE 10C0 FFEC           movem.l    D6,D7,A4, [A6 - 0x14]
00001E82  4E5E                     unlink     A6
00001E84  4E75                     rts
fn00001E86:
00001E86  4E56 FFF8                link       A6, -0x0008
00001E8A  48E7 0018                movem.l    -[A7], A3,A4
00001E8E  598F                     subq.l     A7, 4
00001E90  A8D8                     syscall    NewRgn
00001E92  285F                     movea.l    A4, [A7]+
00001E94  598F                     subq.l     A7, 4
00001E96  A8D8                     syscall    NewRgn
00001E98  265F                     movea.l    A3, [A7]+
00001E9A  206E 0008                movea.l    A0, [A6 + 0x8]
00001E9E  2050                     movea.l    A0, [A0]
00001EA0  2068 0044                movea.l    A0, [A0 + 0x44]
00001EA4  2050                     movea.l    A0, [A0]
00001EA6  43EE FFF8                lea.l      A1, [A6 - 0x8]
00001EAA  41E8 0054                lea.l      A0, [A0 + 0x54]
00001EAE  22D8                     move.l     [A1]+, [A0]+
00001EB0  22D8                     move.l     [A1]+, [A0]+
00001EB2  2F0C                     move.l     -[A7], A4
00001EB4  206E 0008                movea.l    A0, [A6 + 0x8]
00001EB8  2050                     movea.l    A0, [A0]
00001EBA  4868 003C                pea.l      [A0 + 0x3C]
00001EBE  A8DF                     syscall    RectRgn
00001EC0  2F0B                     move.l     -[A7], A3
00001EC2  486E FFF8                pea.l      [A6 - 0x8]
00001EC6  A8DF                     syscall    RectRgn
00001EC8  2F0C                     move.l     -[A7], A4
00001ECA  2F0B                     move.l     -[A7], A3
00001ECC  2F0C                     move.l     -[A7], A4
00001ECE  A8E6                     syscall    DiffRgn
00001ED0  2F0C                     move.l     -[A7], A4
00001ED2  A8D4                     syscall    EraseRgn
00001ED4  2F0C                     move.l     -[A7], A4
00001ED6  A8D9                     syscall    DisposRgn/DisposeRgn
00001ED8  2F0B                     move.l     -[A7], A3
00001EDA  A8D9                     syscall    DisposRgn/DisposeRgn
00001EDC  4CEE 1800 FFF0           movem.l    A3,A4, [A6 - 0x10]
00001EE2  4E5E                     unlink     A6
00001EE4  4E75                     rts
fn00001EE6:
00001EE6  4E56 FFE6                link       A6, -0x001A
00001EEA  48E7 0118                movem.l    -[A7], D7,A3,A4
00001EEE  3E2E 000E                move.w     D7, [A6 + 0xE]
00001EF2  266E 0008                movea.l    A3, [A6 + 0x8]
00001EF6  598F                     subq.l     A7, 4
00001EF8  4EAD 021A                jsr        [A5 + 0x21A /* export_63, CODE:1 @ 0000586C */]
00001EFC  285F                     movea.l    A4, [A7]+
00001EFE  558F                     subq.l     A7, 2
00001F00  2053                     movea.l    A0, [A3]
00001F02  4868 0044                pea.l      [A0 + 0x44]
00001F06  A8AE                     syscall    EmptyRect
00001F08  4A1F                     tst.b      [A7]+
00001F0A  6600 0082                bne        +0x84 /* 00001F8E */
00001F0E  2053                     movea.l    A0, [A3]
00001F10  43EE FFE6                lea.l      A1, [A6 - 0x1A]
00001F14  41E8 0044                lea.l      A0, [A0 + 0x44]
00001F18  22D8                     move.l     [A1]+, [A0]+
00001F1A  22D8                     move.l     [A1]+, [A0]+
00001F1C  486E FFEE                pea.l      [A6 - 0x12]
00001F20  A898                     syscall    GetPenState
00001F22  7001                     moveq.l    D0, 0x01
00001F24  3F00                     move.w     -[A7], D0
00001F26  3F00                     move.w     -[A7], D0
00001F28  A89B                     syscall    PenSize
00001F2A  4A47                     tst.w      D7
00001F2C  6618                     bne        +0x1A /* 00001F46 */
00001F2E  2053                     movea.l    A0, [A3]
00001F30  4A28 0060                tst.b      [A0 + 0x60]
00001F34  6608                     bne        +0xA /* 00001F3E */
00001F36  486C 005E                pea.l      [A4 + 0x5E]
00001F3A  A89D                     syscall    PenPat
00001F3C  6014                     bra        +0x16 /* 00001F52 */
label00001F3E:
00001F3E  486C 0076                pea.l      [A4 + 0x76]
00001F42  A89D                     syscall    PenPat
00001F44  600C                     bra        +0xE /* 00001F52 */
label00001F46:
00001F46  0C47 0002                cmpi.w     D7, 0x2
00001F4A  6606                     bne        +0x8 /* 00001F52 */
00001F4C  486C 0076                pea.l      [A4 + 0x76]
00001F50  A89D                     syscall    PenPat
label00001F52:
00001F52  486E FFE6                pea.l      [A6 - 0x1A]
00001F56  A8A1                     syscall    FrameRect
00001F58  7001                     moveq.l    D0, 0x01
00001F5A  3F00                     move.w     -[A7], D0
00001F5C  3F00                     move.w     -[A7], D0
00001F5E  A89B                     syscall    PenSize
00001F60  486E FFE6                pea.l      [A6 - 0x1A]
00001F64  7001                     moveq.l    D0, 0x01
00001F66  3F00                     move.w     -[A7], D0
00001F68  3F00                     move.w     -[A7], D0
00001F6A  A8A9                     syscall    InsetRect
00001F6C  2053                     movea.l    A0, [A3]
00001F6E  4A28 0060                tst.b      [A0 + 0x60]
00001F72  6608                     bne        +0xA /* 00001F7C */
00001F74  486C 005E                pea.l      [A4 + 0x5E]
00001F78  A89D                     syscall    PenPat
00001F7A  6006                     bra        +0x8 /* 00001F82 */
label00001F7C:
00001F7C  486C 0076                pea.l      [A4 + 0x76]
00001F80  A89D                     syscall    PenPat
label00001F82:
00001F82  486E FFE6                pea.l      [A6 - 0x1A]
00001F86  A8A1                     syscall    FrameRect
00001F88  486E FFEE                pea.l      [A6 - 0x12]
00001F8C  A899                     syscall    SetPenState
label00001F8E:
00001F8E  4CEE 1880 FFDA           movem.l    D7,A3,A4, [A6 - 0x26]
00001F94  4E5E                     unlink     A6
00001F96  4E75                     rts
fn00001F98:
00001F98  4E56 FFE6                link       A6, -0x001A
00001F9C  48E7 0718                movem.l    -[A7], D5,D6,D7,A3,A4
00001FA0  266E 0008                movea.l    A3, [A6 + 0x8]
00001FA4  286E 000C                movea.l    A4, [A6 + 0xC]
00001FA8  2054                     movea.l    A0, [A4]
00001FAA  4AA8 005C                tst.l      [A0 + 0x5C]
00001FAE  6700 00E8                beq        +0xEA /* 00002098 */
00001FB2  598F                     subq.l     A7, 4
00001FB4  4EAD 021A                jsr        [A5 + 0x21A /* export_63, CODE:1 @ 0000586C */]
00001FB8  2D5F FFEC                move.l     [A6 - 0x14], [A7]+
00001FBC  2053                     movea.l    A0, [A3]
00001FBE  2068 00C2                movea.l    A0, [A0 + 0xC2]
00001FC2  3A28 004A                move.w     D5, [A0 + 0x4A]
00001FC6  2054                     movea.l    A0, [A4]
00001FC8  43EE FFF0                lea.l      A1, [A6 - 0x10]
00001FCC  41E8 0044                lea.l      A0, [A0 + 0x44]
00001FD0  22D8                     move.l     [A1]+, [A0]+
00001FD2  22D8                     move.l     [A1]+, [A0]+
00001FD4  2054                     movea.l    A0, [A4]
00001FD6  43EE FFF8                lea.l      A1, [A6 - 0x8]
00001FDA  41E8 004C                lea.l      A0, [A0 + 0x4C]
00001FDE  22D8                     move.l     [A1]+, [A0]+
00001FE0  22D8                     move.l     [A1]+, [A0]+
00001FE2  2054                     movea.l    A0, [A4]
00001FE4  2068 005C                movea.l    A0, [A0 + 0x5C]
00001FE8  A029                     syscall    HLock
00001FEA  486E FFF8                pea.l      [A6 - 0x8]
00001FEE  A8A3                     syscall    EraseRect
00001FF0  7009                     moveq.l    D0, 0x09
00001FF2  3F00                     move.w     -[A7], D0
00001FF4  A88A                     syscall    TextSize
00001FF6  3C2E FFF6                move.w     D6, [A6 - 0xA]
00001FFA  9C6E FFF2                sub.w      D6, [A6 - 0xE]
00001FFE  558F                     subq.l     A7, 2
00002000  2054                     movea.l    A0, [A4]
00002002  2068 005C                movea.l    A0, [A0 + 0x5C]
00002006  2F10                     move.l     -[A7], [A0]
00002008  A88C                     syscall    StringWidth
0000200A  3E1F                     move.w     D7, [A7]+
0000200C  302E FFF2                move.w     D0, [A6 - 0xE]
00002010  48C0                     ext.l      D0
00002012  48C6                     ext.l      D6
00002014  48C7                     ext.l      D7
00002016  2206                     move.l     D1, D6
00002018  9287                     sub.l      D1, D7
0000201A  E281                     asr        D1, 1
0000201C  D280                     add.l      D1, D0
0000201E  2D41 FFE6                move.l     [A6 - 0x1A], D1
00002022  558F                     subq.l     A7, 2
00002024  7020                     moveq.l    D0, 0x20
00002026  3F00                     move.w     -[A7], D0
00002028  A88D                     syscall    CharWidth
0000202A  202E FFE6                move.l     D0, [A6 - 0x1A]
0000202E  905F                     sub.w      D0, [A7]+
00002030  3F00                     move.w     -[A7], D0
00002032  302E FFF4                move.w     D0, [A6 - 0xC]
00002036  48C0                     ext.l      D0
00002038  5480                     addq.l     D0, 2
0000203A  2053                     movea.l    A0, [A3]
0000203C  3228 00B8                move.w     D1, [A0 + 0xB8]
00002040  D240                     add.w      D1, D0
00002042  3F01                     move.w     -[A7], D1
00002044  A893                     syscall    MoveTo
00002046  7020                     moveq.l    D0, 0x20
00002048  3F00                     move.w     -[A7], D0
0000204A  A883                     syscall    DrawChar
0000204C  2054                     movea.l    A0, [A4]
0000204E  2068 005C                movea.l    A0, [A0 + 0x5C]
00002052  2F10                     move.l     -[A7], [A0]
00002054  A884                     syscall    DrawString
00002056  7020                     moveq.l    D0, 0x20
00002058  3F00                     move.w     -[A7], D0
0000205A  A883                     syscall    DrawChar
0000205C  3F05                     move.w     -[A7], D5
0000205E  A88A                     syscall    TextSize
00002060  2053                     movea.l    A0, [A3]
00002062  4A28 0062                tst.b      [A0 + 0x62]
00002066  6728                     beq        +0x2A /* 00002090 */
00002068  4A28 0063                tst.b      [A0 + 0x63]
0000206C  6622                     bne        +0x24 /* 00002090 */
0000206E  B9E8 0044                cmpa.l     A4, [A0 + 0x44]
00002072  661C                     bne        +0x1E /* 00002090 */
00002074  1D78 0938 FFEB           move.b     [A6 - 0x15], [0x00000938 /* HiliteMode */]
0000207A  486E FFEB                pea.l      [A6 - 0x15]
0000207E  7000                     moveq.l    D0, 0x00
00002080  2F00                     move.l     -[A7], D0
00002082  A85F                     syscall    BitClr
00002084  11EE FFEB 0938           move.b     [0x00000938 /* HiliteMode */], [A6 - 0x15]
0000208A  486E FFF8                pea.l      [A6 - 0x8]
0000208E  A8A4                     syscall    InvertRect
label00002090:
00002090  2054                     movea.l    A0, [A4]
00002092  2068 005C                movea.l    A0, [A0 + 0x5C]
00002096  A02A                     syscall    HUnlock
label00002098:
00002098  4CEE 18E0 FFD2           movem.l    D5,D6,D7,A3,A4, [A6 - 0x2E]
0000209E  4E5E                     unlink     A6
000020A0  4E75                     rts
fn000020A2:
000020A2  4E56 FFF6                link       A6, -0x000A
000020A6  206E 0008                movea.l    A0, [A6 + 0x8]
000020AA  2050                     movea.l    A0, [A0]
000020AC  43EE FFF6                lea.l      A1, [A6 - 0xA]
000020B0  41E8 004C                lea.l      A0, [A0 + 0x4C]
000020B4  22D8                     move.l     [A1]+, [A0]+
000020B6  22D8                     move.l     [A1]+, [A0]+
000020B8  1D78 0938 FFFF           move.b     [A6 - 0x1], [0x00000938 /* HiliteMode */]
000020BE  486E FFFF                pea.l      [A6 - 0x1]
000020C2  7000                     moveq.l    D0, 0x00
000020C4  2F00                     move.l     -[A7], D0
000020C6  A85F                     syscall    BitClr
000020C8  11EE FFFF 0938           move.b     [0x00000938 /* HiliteMode */], [A6 - 0x1]
000020CE  486E FFF6                pea.l      [A6 - 0xA]
000020D2  A8A4                     syscall    InvertRect
000020D4  4E5E                     unlink     A6
000020D6  4E75                     rts
fn000020D8:
000020D8  4E56 FFF4                link       A6, -0x000C
000020DC  48E7 0318                movem.l    -[A7], D6,D7,A3,A4
000020E0  286E 0008                movea.l    A4, [A6 + 0x8]
000020E4  598F                     subq.l     A7, 4
000020E6  4EAD 021A                jsr        [A5 + 0x21A /* export_63, CODE:1 @ 0000586C */]
000020EA  2D5F FFFC                move.l     [A6 - 0x4], [A7]+
000020EE  4247                     clr.w      D7
000020F0  6000 00F2                bra        +0xF4 /* 000021E4 */
label000020F4:
000020F4  48C7                     ext.l      D7
000020F6  2054                     movea.l    A0, [A4]
000020F8  2068 0004                movea.l    A0, [A0 + 0x4]
000020FC  2050                     movea.l    A0, [A0]
000020FE  2007                     move.l     D0, D7
00002100  E580                     asl        D0, 2
00002102  2670 0802                movea.l    A3, [A0 + D0 + 0x2]
00002106  200B                     move.l     D0, A3
00002108  6700 00D8                beq        +0xDA /* 000021E2 */
0000210C  2053                     movea.l    A0, [A3]
0000210E  43EE FFF4                lea.l      A1, [A6 - 0xC]
00002112  41E8 0044                lea.l      A0, [A0 + 0x44]
00002116  22D8                     move.l     [A1]+, [A0]+
00002118  22D8                     move.l     [A1]+, [A0]+
0000211A  558F                     subq.l     A7, 2
0000211C  486E FFF4                pea.l      [A6 - 0xC]
00002120  A8AE                     syscall    EmptyRect
00002122  4A1F                     tst.b      [A7]+
00002124  6600 00BC                bne        +0xBE /* 000021E2 */
00002128  2054                     movea.l    A0, [A4]
0000212A  4A28 0062                tst.b      [A0 + 0x62]
0000212E  6604                     bne        +0x6 /* 00002134 */
00002130  4246                     clr.w      D6
00002132  601A                     bra        +0x1C /* 0000214E */
label00002134:
00002134  2054                     movea.l    A0, [A4]
00002136  BE68 0002                cmp.w      D7, [A0 + 0x2]
0000213A  6704                     beq        +0x6 /* 00002140 */
0000213C  4246                     clr.w      D6
0000213E  600E                     bra        +0x10 /* 0000214E */
label00002140:
00002140  2054                     movea.l    A0, [A4]
00002142  4A28 0063                tst.b      [A0 + 0x63]
00002146  6704                     beq        +0x6 /* 0000214C */
00002148  7C02                     moveq.l    D6, 0x02
0000214A  6002                     bra        +0x4 /* 0000214E */
label0000214C:
0000214C  7C01                     moveq.l    D6, 0x01
label0000214E:
0000214E  486E FFF4                pea.l      [A6 - 0xC]
00002152  70FF                     moveq.l    D0, 0xFFFFFFFF
00002154  3F00                     move.w     -[A7], D0
00002156  3F00                     move.w     -[A7], D0
00002158  A8A9                     syscall    InsetRect
0000215A  558F                     subq.l     A7, 2
0000215C  486E FFF4                pea.l      [A6 - 0xC]
00002160  2054                     movea.l    A0, [A4]
00002162  2068 00C2                movea.l    A0, [A0 + 0xC2]
00002166  2F28 0018                move.l     -[A7], [A0 + 0x18]
0000216A  A8E9                     syscall    RectInRgn
0000216C  4A1F                     tst.b      [A7]+
0000216E  6744                     beq        +0x46 /* 000021B4 */
00002170  486E FFF4                pea.l      [A6 - 0xC]
00002174  A8A1                     syscall    FrameRect
00002176  48C6                     ext.l      D6
00002178  2F06                     move.l     -[A7], D6
0000217A  2F0B                     move.l     -[A7], A3
0000217C  4EBA FD68                jsr        [PC - 0x298 /* 00001EE6 */]
00002180  486E FFF4                pea.l      [A6 - 0xC]
00002184  7003                     moveq.l    D0, 0x03
00002186  3F00                     move.w     -[A7], D0
00002188  3F00                     move.w     -[A7], D0
0000218A  A8A9                     syscall    InsetRect
0000218C  2053                     movea.l    A0, [A3]
0000218E  4A28 0060                tst.b      [A0 + 0x60]
00002192  504F                     addq.w     A7, 8
00002194  6710                     beq        +0x12 /* 000021A6 */
00002196  486E FFF4                pea.l      [A6 - 0xC]
0000219A  2F0B                     move.l     -[A7], A3
0000219C  2054                     movea.l    A0, [A4]
0000219E  2268 0010                movea.l    A1, [A0 + 0x10]
000021A2  4E91                     jsr        [A1]
000021A4  600E                     bra        +0x10 /* 000021B4 */
label000021A6:
000021A6  486E FFF4                pea.l      [A6 - 0xC]
000021AA  206E FFFC                movea.l    A0, [A6 - 0x4]
000021AE  4868 005E                pea.l      [A0 + 0x5E]
000021B2  A8A5                     syscall    FillRect
label000021B4:
000021B4  2053                     movea.l    A0, [A3]
000021B6  43EE FFF4                lea.l      A1, [A6 - 0xC]
000021BA  41E8 004C                lea.l      A0, [A0 + 0x4C]
000021BE  22D8                     move.l     [A1]+, [A0]+
000021C0  22D8                     move.l     [A1]+, [A0]+
000021C2  558F                     subq.l     A7, 2
000021C4  486E FFF4                pea.l      [A6 - 0xC]
000021C8  2054                     movea.l    A0, [A4]
000021CA  2068 00C2                movea.l    A0, [A0 + 0xC2]
000021CE  2F28 0018                move.l     -[A7], [A0 + 0x18]
000021D2  A8E9                     syscall    RectInRgn
000021D4  4A1F                     tst.b      [A7]+
000021D6  670A                     beq        +0xC /* 000021E2 */
000021D8  2F0B                     move.l     -[A7], A3
000021DA  2F0C                     move.l     -[A7], A4
000021DC  4EBA FDBA                jsr        [PC - 0x246 /* 00001F98 */]
000021E0  504F                     addq.w     A7, 8
label000021E2:
000021E2  5247                     addq.w     D7, 1
label000021E4:
000021E4  2054                     movea.l    A0, [A4]
000021E6  2068 0004                movea.l    A0, [A0 + 0x4]
000021EA  2050                     movea.l    A0, [A0]
000021EC  BE50                     cmp.w      D7, [A0]
000021EE  6F00 FF04                ble        -0xFA /* 000020F4 */
000021F2  4CEE 18C0 FFE4           movem.l    D6,D7,A3,A4, [A6 - 0x1C]
000021F8  4E5E                     unlink     A6
000021FA  4E75                     rts
export_351:
fn000021FC:
000021FC  4E56 0000                link       A6, 0
00002200  2F0C                     move.l     -[A7], A4
00002202  286E 0008                movea.l    A4, [A6 + 0x8]
00002206  204C                     movea.l    A0, A4
00002208  A029                     syscall    HLock
0000220A  2054                     movea.l    A0, [A4]
0000220C  10BC 0001                move.b     [A0], 0x1
00002210  2054                     movea.l    A0, [A4]
00002212  4868 0044                pea.l      [A0 + 0x44]
00002216  A928                     syscall    InvalRect
00002218  204C                     movea.l    A0, A4
0000221A  A02A                     syscall    HUnlock
0000221C  286E FFFC                movea.l    A4, [A6 - 0x4]
00002220  4E5E                     unlink     A6
00002222  4E75                     rts
fn00002224:
00002224  4E56 0000                link       A6, 0
00002228  48E7 0318                movem.l    -[A7], D6,D7,A3,A4
0000222C  3E2E 000A                move.w     D7, [A6 + 0xA]
00002230  286E 000C                movea.l    A4, [A6 + 0xC]
00002234  2054                     movea.l    A0, [A4]
00002236  BE68 00C0                cmp.w      D7, [A0 + 0xC0]
0000223A  6744                     beq        +0x46 /* 00002280 */
0000223C  0C47 FFFF                cmpi.w     D7, 0xFFFF
00002240  661E                     bne        +0x20 /* 00002260 */
00002242  2054                     movea.l    A0, [A4]
00002244  4AA8 0018                tst.l      [A0 + 0x18]
00002248  670C                     beq        +0xE /* 00002256 */
0000224A  2F28 0044                move.l     -[A7], [A0 + 0x44]
0000224E  2268 0018                movea.l    A1, [A0 + 0x18]
00002252  4E91                     jsr        [A1]
00002254  6024                     bra        +0x26 /* 0000227A */
label00002256:
00002256  70FF                     moveq.l    D0, 0xFFFFFFFF
00002258  3F00                     move.w     -[A7], D0
0000225A  4EAD 0182                jsr        [A5 + 0x182 /* export_44, CODE:1 @ 00003B34 */]
0000225E  601A                     bra        +0x1C /* 0000227A */
label00002260:
00002260  558F                     subq.l     A7, 2
00002262  A994                     syscall    CurResFile
00002264  3C1F                     move.w     D6, [A7]+
00002266  4EAD 0222                jsr        [A5 + 0x222 /* export_64, CODE:1 @ 0000588C */]
0000226A  598F                     subq.l     A7, 4
0000226C  3F07                     move.w     -[A7], D7
0000226E  A9B9                     syscall    GetCursor
00002270  265F                     movea.l    A3, [A7]+
00002272  200B                     move.l     D0, A3
00002274  6704                     beq        +0x6 /* 0000227A */
00002276  2F13                     move.l     -[A7], [A3]
00002278  A851                     syscall    SetCursor
label0000227A:
0000227A  2054                     movea.l    A0, [A4]
0000227C  3147 00C0                move.w     [A0 + 0xC0], D7
label00002280:
00002280  4CEE 18C0 FFF0           movem.l    D6,D7,A3,A4, [A6 - 0x10]
00002286  4E5E                     unlink     A6
00002288  4E75                     rts
fn0000228A:
0000228A  4E56 FFFC                link       A6, -0x0004
0000228E  48E7 0108                movem.l    -[A7], D7,A4
00002292  286E 0008                movea.l    A4, [A6 + 0x8]
00002296  4207                     clr.b      D7
00002298  2D6E 000C FFFC           move.l     [A6 - 0x4], [A6 + 0xC]
0000229E  486E FFFC                pea.l      [A6 - 0x4]
000022A2  A870                     syscall    LocalToGlobal
000022A4  2054                     movea.l    A0, [A4]
000022A6  4AA8 00C6                tst.l      [A0 + 0xC6]
000022AA  671A                     beq        +0x1C /* 000022C6 */
000022AC  558F                     subq.l     A7, 2
000022AE  2F2E FFFC                move.l     -[A7], [A6 - 0x4]
000022B2  2054                     movea.l    A0, [A4]
000022B4  2068 00C6                movea.l    A0, [A0 + 0xC6]
000022B8  2050                     movea.l    A0, [A0]
000022BA  2068 0104                movea.l    A0, [A0 + 0x104]
000022BE  2F28 0072                move.l     -[A7], [A0 + 0x72]
000022C2  A8E8                     syscall    PtInRgn
000022C4  1E1F                     move.b     D7, [A7]+
label000022C6:
000022C6  4A07                     tst.b      D7
000022C8  6622                     bne        +0x24 /* 000022EC */
000022CA  2054                     movea.l    A0, [A4]
000022CC  4AA8 00CA                tst.l      [A0 + 0xCA]
000022D0  671A                     beq        +0x1C /* 000022EC */
000022D2  558F                     subq.l     A7, 2
000022D4  2F2E FFFC                move.l     -[A7], [A6 - 0x4]
000022D8  2054                     movea.l    A0, [A4]
000022DA  2068 00CA                movea.l    A0, [A0 + 0xCA]
000022DE  2050                     movea.l    A0, [A0]
000022E0  2068 0104                movea.l    A0, [A0 + 0x104]
000022E4  2F28 0072                move.l     -[A7], [A0 + 0x72]
000022E8  A8E8                     syscall    PtInRgn
000022EA  1E1F                     move.b     D7, [A7]+
label000022EC:
000022EC  4A07                     tst.b      D7
000022EE  670C                     beq        +0xE /* 000022FC */
000022F0  2F0C                     move.l     -[A7], A4
000022F2  70FF                     moveq.l    D0, 0xFFFFFFFF
000022F4  2F00                     move.l     -[A7], D0
000022F6  4EBA FF2C                jsr        [PC - 0xD4 /* 00002224 */]
000022FA  504F                     addq.w     A7, 8
label000022FC:
000022FC  1007                     move.b     D0, D7
000022FE  4CEE 1080 FFF4           movem.l    D7,A4, [A6 - 0xC]
00002304  4E5E                     unlink     A6
00002306  4E75                     rts
fn00002308:
00002308  4E56 FFFC                link       A6, -0x0004
0000230C  48E7 1708                movem.l    -[A7], D3,D5,D6,D7,A4
00002310  286E 0008                movea.l    A4, [A6 + 0x8]
00002314  558F                     subq.l     A7, 2
00002316  A974                     syscall    Button
00002318  4A1F                     tst.b      [A7]+
0000231A  6600 012C                bne        +0x12E /* 00002448 */
0000231E  7EFF                     moveq.l    D7, 0xFFFFFFFF
00002320  558F                     subq.l     A7, 2
00002322  2F2E 000C                move.l     -[A7], [A6 + 0xC]
00002326  2054                     movea.l    A0, [A4]
00002328  2068 0048                movea.l    A0, [A0 + 0x48]
0000232C  2050                     movea.l    A0, [A0]
0000232E  4868 004C                pea.l      [A0 + 0x4C]
00002332  A8AD                     syscall    PtInRect
00002334  4A1F                     tst.b      [A7]+
00002336  6700 0104                beq        +0x106 /* 0000243C */
0000233A  42AE FFFC                clr.l      [A6 - 0x4]
0000233E  558F                     subq.l     A7, 2
00002340  7001                     moveq.l    D0, 0x01
00002342  1F00                     move.b     -[A7], D0
00002344  486E FFFC                pea.l      [A6 - 0x4]
00002348  2054                     movea.l    A0, [A4]
0000234A  2F28 009C                move.l     -[A7], [A0 + 0x9C]
0000234E  3F3C 003C                move.w     -[A7], 0x3C /* '<' */
00002352  A9E7                     syscall    Pack0/ListManager
00002354  4A1F                     tst.b      [A7]+
00002356  6700 00E4                beq        +0xE6 /* 0000243C */
0000235A  7600                     moveq.l    D3, 0x00
0000235C  303C 0800                move.w     D0, 0x800
00002360  C06E 0012                and.w      D0, [A6 + 0x12]
00002364  6712                     beq        +0x14 /* 00002378 */
00002366  2F03                     move.l     -[A7], D3
00002368  2F0C                     move.l     -[A7], A4
0000236A  4EBA E7B6                jsr        [PC - 0x184A /* 00000B22 */]
0000236E  588F                     addq.l     A7, 4
00002370  261F                     move.l     D3, [A7]+
00002372  4A00                     tst.b      D0
00002374  6602                     bne        +0x4 /* 00002378 */
00002376  7601                     moveq.l    D3, 0x01
label00002378:
00002378  1A03                     move.b     D5, D3
0000237A  2054                     movea.l    A0, [A4]
0000237C  3C28 00A4                move.w     D6, [A0 + 0xA4]
00002380  3006                     move.w     D0, D6
00002382  0440 014D                subi.w     D0, 0x14D
00002386  6500 00AA                bcs        +0xAC /* 00002432 */
0000238A  0C40 000D                cmpi.w     D0, 0xD /* '\r' */
0000238E  6200 00A2                bhi        +0xA4 /* 00002432 */
00002392  D040                     add.w      D0, D0
00002394  303B 0006                move.w     D0, [PC + D0.w + 0x6]
00002398  4EFB 0000                jmp        [PC + D0.w]
0000239C  003A 006C 006C           ori.b      [PC + 0x6C /* 0000240A, value 0x20 ' ', cstring " <" */], 0x6C /* 'l' */
000023A2  0082 0082 0082           ori.l      D2, 0x820082
000023A8  0082 003A 001E           ori.l      D2, 0x3A001E
000023AE  006C 0098 0082           ori.w      [A4 + 0x82], 0x98
000023B4  0082 0082 2054           ori.l      D2, 0x822054
000023BA  2068 0044                movea.l    A0, [A0 + 0x44]
000023BE  2050                     movea.l    A0, [A0]
000023C0  7008                     moveq.l    D0, 0x08
000023C2  B068 0042                cmp.w      D0, [A0 + 0x42]
000023C6  6606                     bne        +0x8 /* 000023CE */
000023C8  3E3C 0160                move.w     D7, 0x160
000023CC  606E                     bra        +0x70 /* 0000243C */
label000023CE:
000023CE  3E3C 0161                move.w     D7, 0x161
000023D2  6068                     bra        +0x6A /* 0000243C */
000023D4  558F                     subq.l     A7, 2
000023D6  2F2E 000C                move.l     -[A7], [A6 + 0xC]
000023DA  2054                     movea.l    A0, [A4]
000023DC  2F28 0048                move.l     -[A7], [A0 + 0x48]
000023E0  4EAD 07BA                jsr        [A5 + 0x7BA /* export_243, CODE:3 @ 00003CAE */]
000023E4  4A1F                     tst.b      [A7]+
000023E6  6706                     beq        +0x8 /* 000023EE */
000023E8  3E3C 0162                move.w     D7, 0x162
000023EC  604E                     bra        +0x50 /* 0000243C */
label000023EE:
000023EE  7000                     moveq.l    D0, 0x00
000023F0  3006                     move.w     D0, D6
000023F2  0C80 0000 0154           cmpi.l     D0, 0x154
000023F8  6606                     bne        +0x8 /* 00002400 */
000023FA  3E3C 015E                move.w     D7, 0x15E
000023FE  603C                     bra        +0x3E /* 0000243C */
label00002400:
00002400  3E3C 014D                move.w     D7, 0x14D
00002404  6036                     bra        +0x38 /* 0000243C */
00002406  4A05                     tst.b      D5
00002408  6708                     beq        +0xA /* 00002412 */
0000240A  203C 0000 014F           move.l     D0, 0x14F
00002410  6006                     bra        +0x8 /* 00002418 */
label00002412:
00002412  7000                     moveq.l    D0, 0x00
00002414  3006                     move.w     D0, D6
00002416  4A80                     tst.l      D0
label00002418:
00002418  3E00                     move.w     D7, D0
0000241A  6020                     bra        +0x22 /* 0000243C */
0000241C  4A05                     tst.b      D5
0000241E  6708                     beq        +0xA /* 00002428 */
00002420  203C 0000 014F           move.l     D0, 0x14F
00002426  6006                     bra        +0x8 /* 0000242E */
label00002428:
00002428  203C 0000 015F           move.l     D0, 0x15F
label0000242E:
0000242E  3E00                     move.w     D7, D0
00002430  600A                     bra        +0xC /* 0000243C */
label00002432:
00002432  7000                     moveq.l    D0, 0x00
00002434  3006                     move.w     D0, D6
00002436  4A80                     tst.l      D0
00002438  6702                     beq        +0x4 /* 0000243C */
0000243A  3E06                     move.w     D7, D6
label0000243C:
0000243C  2F0C                     move.l     -[A7], A4
0000243E  48C7                     ext.l      D7
00002440  2F07                     move.l     -[A7], D7
00002442  4EBA FDE0                jsr        [PC - 0x220 /* 00002224 */]
00002446  504F                     addq.w     A7, 8
label00002448:
00002448  4CEE 10E8 FFE8           movem.l    D3,D5,D6,D7,A4, [A6 - 0x18]
0000244E  4E5E                     unlink     A6
00002450  4E75                     rts
fn00002452:
00002452  4E56 0000                link       A6, 0
00002456  48E7 0018                movem.l    -[A7], A3,A4
0000245A  286E 0008                movea.l    A4, [A6 + 0x8]
0000245E  2054                     movea.l    A0, [A4]
00002460  2668 0044                movea.l    A3, [A0 + 0x44]
00002464  558F                     subq.l     A7, 2
00002466  A974                     syscall    Button
00002468  4A1F                     tst.b      [A7]+
0000246A  6636                     bne        +0x38 /* 000024A2 */
0000246C  2054                     movea.l    A0, [A4]
0000246E  2068 0004                movea.l    A0, [A0 + 0x4]
00002472  2050                     movea.l    A0, [A0]
00002474  4A50                     tst.w      [A0]
00002476  6F2A                     ble        +0x2C /* 000024A2 */
00002478  2053                     movea.l    A0, [A3]
0000247A  4A28 0060                tst.b      [A0 + 0x60]
0000247E  6722                     beq        +0x24 /* 000024A2 */
00002480  558F                     subq.l     A7, 2
00002482  2F2E 000C                move.l     -[A7], [A6 + 0xC]
00002486  2053                     movea.l    A0, [A3]
00002488  4868 0044                pea.l      [A0 + 0x44]
0000248C  A8AD                     syscall    PtInRect
0000248E  4A1F                     tst.b      [A7]+
00002490  6710                     beq        +0x12 /* 000024A2 */
00002492  2F0C                     move.l     -[A7], A4
00002494  4878 0162                push.l     0x162
00002498  4EBA FD8A                jsr        [PC - 0x276 /* 00002224 */]
0000249C  7001                     moveq.l    D0, 0x01
0000249E  504F                     addq.w     A7, 8
000024A0  6002                     bra        +0x4 /* 000024A4 */
label000024A2:
000024A2  7000                     moveq.l    D0, 0x00
label000024A4:
000024A4  4CEE 1800 FFF8           movem.l    A3,A4, [A6 - 0x8]
000024AA  4E5E                     unlink     A6
000024AC  4E75                     rts
fn000024AE:
000024AE  4E56 FFF0                link       A6, -0x0010
000024B2  48E7 0318                movem.l    -[A7], D6,D7,A3,A4
000024B6  266E 0008                movea.l    A3, [A6 + 0x8]
000024BA  286E 000C                movea.l    A4, [A6 + 0xC]
000024BE  2D6B 000A FFF8           move.l     [A6 - 0x8], [A3 + 0xA]
000024C4  486E FFF8                pea.l      [A6 - 0x8]
000024C8  A871                     syscall    GlobalToLocal
000024CA  558F                     subq.l     A7, 2
000024CC  2F2E FFF8                move.l     -[A7], [A6 - 0x8]
000024D0  3F2B 000E                move.w     -[A7], [A3 + 0xE]
000024D4  2054                     movea.l    A0, [A4]
000024D6  2F28 009C                move.l     -[A7], [A0 + 0x9C]
000024DA  3F3C 0018                move.w     -[A7], 0x18
000024DE  A9E7                     syscall    Pack0/ListManager
000024E0  1C1F                     move.b     D6, [A7]+
000024E2  42AE FFFC                clr.l      [A6 - 0x4]
000024E6  558F                     subq.l     A7, 2
000024E8  7001                     moveq.l    D0, 0x01
000024EA  1F00                     move.b     -[A7], D0
000024EC  486E FFFC                pea.l      [A6 - 0x4]
000024F0  2054                     movea.l    A0, [A4]
000024F2  2F28 009C                move.l     -[A7], [A0 + 0x9C]
000024F6  3F3C 003C                move.w     -[A7], 0x3C /* '<' */
000024FA  A9E7                     syscall    Pack0/ListManager
000024FC  4A1F                     tst.b      [A7]+
000024FE  6762                     beq        +0x64 /* 00002562 */
00002500  2F2E FFFC                move.l     -[A7], [A6 - 0x4]
00002504  2F0C                     move.l     -[A7], A4
00002506  4EBA E83C                jsr        [PC - 0x17C4 /* 00000D44 */]
0000250A  3E00                     move.w     D7, D0
0000250C  7000                     moveq.l    D0, 0x00
0000250E  3007                     move.w     D0, D7
00002510  0C80 0000 0155           cmpi.l     D0, 0x155
00002516  504F                     addq.w     A7, 8
00002518  661A                     bne        +0x1C /* 00002534 */
0000251A  2054                     movea.l    A0, [A4]
0000251C  7000                     moveq.l    D0, 0x00
0000251E  3028 00A4                move.w     D0, [A0 + 0xA4]
00002522  0C80 0000 0155           cmpi.l     D0, 0x155
00002528  670A                     beq        +0xC /* 00002534 */
0000252A  2054                     movea.l    A0, [A4]
0000252C  2248                     movea.l    A1, A0
0000252E  3368 00A4 00A6           move.w     [A1 + 0xA6], [A0 + 0xA4]
label00002534:
00002534  7000                     moveq.l    D0, 0x00
00002536  3007                     move.w     D0, D7
00002538  4A80                     tst.l      D0
0000253A  661E                     bne        +0x20 /* 0000255A */
0000253C  7001                     moveq.l    D0, 0x01
0000253E  1F00                     move.b     -[A7], D0
00002540  2F0C                     move.l     -[A7], A4
00002542  4EBA E780                jsr        [PC - 0x1880 /* 00000CC4 */]
00002546  588F                     addq.l     A7, 4
00002548  2F00                     move.l     -[A7], D0
0000254A  2054                     movea.l    A0, [A4]
0000254C  2F28 009C                move.l     -[A7], [A0 + 0x9C]
00002550  3F3C 005C                move.w     -[A7], 0x5C /* '\\' */
00002554  A9E7                     syscall    Pack0/ListManager
00002556  6000 0106                bra        +0x108 /* 0000265E */
label0000255A:
0000255A  2054                     movea.l    A0, [A4]
0000255C  3147 00A4                move.w     [A0 + 0xA4], D7
00002560  601E                     bra        +0x20 /* 00002580 */
label00002562:
00002562  7001                     moveq.l    D0, 0x01
00002564  1F00                     move.b     -[A7], D0
00002566  2F0C                     move.l     -[A7], A4
00002568  4EBA E75A                jsr        [PC - 0x18A6 /* 00000CC4 */]
0000256C  588F                     addq.l     A7, 4
0000256E  2F00                     move.l     -[A7], D0
00002570  2054                     movea.l    A0, [A4]
00002572  2F28 009C                move.l     -[A7], [A0 + 0x9C]
00002576  3F3C 005C                move.w     -[A7], 0x5C /* '\\' */
0000257A  A9E7                     syscall    Pack0/ListManager
0000257C  6000 00E0                bra        +0xE2 /* 0000265E */
label00002580:
00002580  558F                     subq.l     A7, 2
00002582  2054                     movea.l    A0, [A4]
00002584  2F28 0048                move.l     -[A7], [A0 + 0x48]
00002588  4EAD 07B2                jsr        [A5 + 0x7B2 /* export_242, CODE:3 @ 00003CB0 */]
0000258C  4A1F                     tst.b      [A7]+
0000258E  6712                     beq        +0x14 /* 000025A2 */
00002590  2054                     movea.l    A0, [A4]
00002592  2F28 0048                move.l     -[A7], [A0 + 0x48]
00002596  4EAD 07CA                jsr        [A5 + 0x7CA /* export_245, CODE:3 @ 00003CA8 */]
0000259A  2054                     movea.l    A0, [A4]
0000259C  317C 0008 0072           move.w     [A0 + 0x72], 0x8
label000025A2:
000025A2  4A06                     tst.b      D6
000025A4  6700 00B8                beq        +0xBA /* 0000265E */
000025A8  2054                     movea.l    A0, [A4]
000025AA  7000                     moveq.l    D0, 0x00
000025AC  3028 00A4                move.w     D0, [A0 + 0xA4]
000025B0  0C80 0000 0155           cmpi.l     D0, 0x155
000025B6  666C                     bne        +0x6E /* 00002624 */
000025B8  2054                     movea.l    A0, [A4]
000025BA  2068 0048                movea.l    A0, [A0 + 0x48]
000025BE  2050                     movea.l    A0, [A0]
000025C0  43EE FFF0                lea.l      A1, [A6 - 0x10]
000025C4  41E8 004C                lea.l      A0, [A0 + 0x4C]
000025C8  22D8                     move.l     [A1]+, [A0]+
000025CA  22D8                     move.l     [A1]+, [A0]+
000025CC  2054                     movea.l    A0, [A4]
000025CE  2F28 0048                move.l     -[A7], [A0 + 0x48]
000025D2  4EAD 07F2                jsr        [A5 + 0x7F2 /* export_250, CODE:3 @ 00003CA2 */]
000025D6  486E FFF0                pea.l      [A6 - 0x10]
000025DA  7000                     moveq.l    D0, 0x00
000025DC  3F00                     move.w     -[A7], D0
000025DE  2054                     movea.l    A0, [A4]
000025E0  2F28 0048                move.l     -[A7], [A0 + 0x48]
000025E4  4EAD 07FA                jsr        [A5 + 0x7FA /* export_251, CODE:3 @ 00003C9C */]
000025E8  2054                     movea.l    A0, [A4]
000025EA  2F28 0048                move.l     -[A7], [A0 + 0x48]
000025EE  4EAD 087A                jsr        [A5 + 0x87A /* export_267, CODE:3 @ 00003C6E */]
000025F2  2054                     movea.l    A0, [A4]
000025F4  2F28 0044                move.l     -[A7], [A0 + 0x44]
000025F8  4EBA FC02                jsr        [PC - 0x3FE /* 000021FC */]
000025FC  2054                     movea.l    A0, [A4]
000025FE  317C 000E 0072           move.w     [A0 + 0x72], 0xE
00002604  2054                     movea.l    A0, [A4]
00002606  7000                     moveq.l    D0, 0x00
00002608  3028 00A6                move.w     D0, [A0 + 0xA6]
0000260C  2F00                     move.l     -[A7], D0
0000260E  2F0C                     move.l     -[A7], A4
00002610  4EBA E760                jsr        [PC - 0x18A0 /* 00000D72 */]
00002614  2054                     movea.l    A0, [A4]
00002616  2F28 0048                move.l     -[A7], [A0 + 0x48]
0000261A  4EAD 07EA                jsr        [A5 + 0x7EA /* export_249, CODE:3 @ 00003CA4 */]
0000261E  4FEF 000C                lea.l      A7, [A7 + 0xC]
00002622  603A                     bra        +0x3C /* 0000265E */
label00002624:
00002624  2054                     movea.l    A0, [A4]
00002626  7000                     moveq.l    D0, 0x00
00002628  3028 00A4                move.w     D0, [A0 + 0xA4]
0000262C  0C80 0000 0154           cmpi.l     D0, 0x154
00002632  660E                     bne        +0x10 /* 00002642 */
00002634  2F0C                     move.l     -[A7], A4
00002636  7000                     moveq.l    D0, 0x00
00002638  2F00                     move.l     -[A7], D0
0000263A  4EBA 208C                jsr        [PC + 0x208C /* 000046C8 */]
0000263E  504F                     addq.w     A7, 8
00002640  601C                     bra        +0x1E /* 0000265E */
label00002642:
00002642  2054                     movea.l    A0, [A4]
00002644  7000                     moveq.l    D0, 0x00
00002646  3028 00A4                move.w     D0, [A0 + 0xA4]
0000264A  0C80 0000 014D           cmpi.l     D0, 0x14D
00002650  660C                     bne        +0xE /* 0000265E */
00002652  2F0C                     move.l     -[A7], A4
00002654  7002                     moveq.l    D0, 0x02
00002656  2F00                     move.l     -[A7], D0
00002658  4EBA 206E                jsr        [PC + 0x206E /* 000046C8 */]
0000265C  504F                     addq.w     A7, 8
label0000265E:
0000265E  4CEE 18C0 FFE0           movem.l    D6,D7,A3,A4, [A6 - 0x20]
00002664  4E5E                     unlink     A6
00002666  4E75                     rts
fn00002668:
00002668  4E56 FFF4                link       A6, -0x000C
0000266C  48E7 0018                movem.l    -[A7], A3,A4
00002670  286E 0008                movea.l    A4, [A6 + 0x8]
00002674  2F0C                     move.l     -[A7], A4
00002676  4EBA E478                jsr        [PC - 0x1B88 /* 00000AF0 */]
0000267A  4A00                     tst.b      D0
0000267C  584F                     addq.w     A7, 4
0000267E  6720                     beq        +0x22 /* 000026A0 */
00002680  2054                     movea.l    A0, [A4]
00002682  3028 0088                move.w     D0, [A0 + 0x88]
00002686  48C0                     ext.l      D0
00002688  2068 0084                movea.l    A0, [A0 + 0x84]
0000268C  2050                     movea.l    A0, [A0]
0000268E  E580                     asl        D0, 2
00002690  2254                     movea.l    A1, [A4]
00002692  2269 0048                movea.l    A1, [A1 + 0x48]
00002696  2251                     movea.l    A1, [A1]
00002698  2370 0802 001C           move.l     [A1 + 0x1C], [A0 + D0 + 0x2]
0000269E  603A                     bra        +0x3C /* 000026DA */
label000026A0:
000026A0  2054                     movea.l    A0, [A4]
000026A2  2D68 008A FFF4           move.l     [A6 - 0xC], [A0 + 0x8A]
000026A8  2654                     movea.l    A3, [A4]
000026AA  302B 008E                move.w     D0, [A3 + 0x8E]
000026AE  48C0                     ext.l      D0
000026B0  206E FFF4                movea.l    A0, [A6 - 0xC]
000026B4  2050                     movea.l    A0, [A0]
000026B6  E780                     asl        D0, 3
000026B8  41F0 0802                lea.l      A0, [A0 + D0 + 0x2]
000026BC  2D48 FFF8                move.l     [A6 - 0x8], A0
000026C0  206B 0048                movea.l    A0, [A3 + 0x48]
000026C4  2050                     movea.l    A0, [A0]
000026C6  41E8 003C                lea.l      A0, [A0 + 0x3C]
000026CA  2D48 FFFC                move.l     [A6 - 0x4], A0
000026CE  206E FFF8                movea.l    A0, [A6 - 0x8]
000026D2  226E FFFC                movea.l    A1, [A6 - 0x4]
000026D6  7008                     moveq.l    D0, 0x08
000026D8  A02E                     syscall    BlockMove/BlockMoveData
label000026DA:
000026DA  4CEE 1800 FFEC           movem.l    A3,A4, [A6 - 0x14]
000026E0  4E5E                     unlink     A6
000026E2  4E75                     rts
fn000026E4:
000026E4  4E56 0000                link       A6, 0
000026E8  48E7 0118                movem.l    -[A7], D7,A3,A4
000026EC  3E2E 000A                move.w     D7, [A6 + 0xA]
000026F0  286E 000C                movea.l    A4, [A6 + 0xC]
000026F4  2F0C                     move.l     -[A7], A4
000026F6  4EBA E3F8                jsr        [PC - 0x1C08 /* 00000AF0 */]
000026FA  4A00                     tst.b      D0
000026FC  584F                     addq.w     A7, 4
000026FE  673C                     beq        +0x3E /* 0000273C */
00002700  2054                     movea.l    A0, [A4]
00002702  BE68 0088                cmp.w      D7, [A0 + 0x88]
00002706  6748                     beq        +0x4A /* 00002750 */
00002708  2668 0048                movea.l    A3, [A0 + 0x48]
0000270C  3147 0088                move.w     [A0 + 0x88], D7
00002710  2F0C                     move.l     -[A7], A4
00002712  4EBA FF54                jsr        [PC - 0xAC /* 00002668 */]
00002716  2F0C                     move.l     -[A7], A4
00002718  700A                     moveq.l    D0, 0x0A
0000271A  2F00                     move.l     -[A7], D0
0000271C  7200                     moveq.l    D1, 0x00
0000271E  2F01                     move.l     -[A7], D1
00002720  2053                     movea.l    A0, [A3]
00002722  2068 001C                movea.l    A0, [A0 + 0x1C]
00002726  2050                     movea.l    A0, [A0]
00002728  2068 0002                movea.l    A0, [A0 + 0x2]
0000272C  2050                     movea.l    A0, [A0]
0000272E  2F28 002A                move.l     -[A7], [A0 + 0x2A]
00002732  4EAD 0BDA                jsr        [A5 + 0xBDA /* export_375, CODE:10 @ 000012C8 */]
00002736  4FEF 0014                lea.l      A7, [A7 + 0x14]
0000273A  6014                     bra        +0x16 /* 00002750 */
label0000273C:
0000273C  2054                     movea.l    A0, [A4]
0000273E  BE68 008E                cmp.w      D7, [A0 + 0x8E]
00002742  670C                     beq        +0xE /* 00002750 */
00002744  3147 008E                move.w     [A0 + 0x8E], D7
00002748  2F0C                     move.l     -[A7], A4
0000274A  4EBA FF1C                jsr        [PC - 0xE4 /* 00002668 */]
0000274E  584F                     addq.w     A7, 4
label00002750:
00002750  4CEE 1880 FFF4           movem.l    D7,A3,A4, [A6 - 0xC]
00002756  4E5E                     unlink     A6
00002758  4E75                     rts
export_352:
fn0000275A:
0000275A  4E56 0000                link       A6, 0
0000275E  2F0C                     move.l     -[A7], A4
00002760  286E 0008                movea.l    A4, [A6 + 0x8]
00002764  2054                     movea.l    A0, [A4]
00002766  4AA8 00CA                tst.l      [A0 + 0xCA]
0000276A  6726                     beq        +0x28 /* 00002792 */
0000276C  2068 00CA                movea.l    A0, [A0 + 0xCA]
00002770  2050                     movea.l    A0, [A0]
00002772  2F28 0104                move.l     -[A7], [A0 + 0x104]
00002776  A873                     syscall    SetPort
00002778  2054                     movea.l    A0, [A4]
0000277A  2068 00CA                movea.l    A0, [A0 + 0xCA]
0000277E  2050                     movea.l    A0, [A0]
00002780  2068 0104                movea.l    A0, [A0 + 0x104]
00002784  4868 0010                pea.l      [A0 + 0x10]
00002788  A928                     syscall    InvalRect
0000278A  2054                     movea.l    A0, [A4]
0000278C  2F28 00C2                move.l     -[A7], [A0 + 0xC2]
00002790  A873                     syscall    SetPort
label00002792:
00002792  286E FFFC                movea.l    A4, [A6 - 0x4]
00002796  4E5E                     unlink     A6
00002798  4E75                     rts
export_353:
fn0000279A:
0000279A  4E56 0000                link       A6, 0
0000279E  2F0C                     move.l     -[A7], A4
000027A0  286E 0008                movea.l    A4, [A6 + 0x8]
000027A4  2054                     movea.l    A0, [A4]
000027A6  4AA8 00C6                tst.l      [A0 + 0xC6]
000027AA  6726                     beq        +0x28 /* 000027D2 */
000027AC  2068 00C6                movea.l    A0, [A0 + 0xC6]
000027B0  2050                     movea.l    A0, [A0]
000027B2  2F28 0104                move.l     -[A7], [A0 + 0x104]
000027B6  A873                     syscall    SetPort
000027B8  2054                     movea.l    A0, [A4]
000027BA  2068 00C6                movea.l    A0, [A0 + 0xC6]
000027BE  2050                     movea.l    A0, [A0]
000027C0  2068 0104                movea.l    A0, [A0 + 0x104]
000027C4  4868 0010                pea.l      [A0 + 0x10]
000027C8  A928                     syscall    InvalRect
000027CA  2054                     movea.l    A0, [A4]
000027CC  2F28 00C2                move.l     -[A7], [A0 + 0xC2]
000027D0  A873                     syscall    SetPort
label000027D2:
000027D2  286E FFFC                movea.l    A4, [A6 - 0x4]
000027D6  4E5E                     unlink     A6
000027D8  4E75                     rts
export_354:
fn000027DA:
000027DA  4E56 FFF2                link       A6, -0x000E
000027DE  48E7 0018                movem.l    -[A7], A3,A4
000027E2  286E 0008                movea.l    A4, [A6 + 0x8]
000027E6  2054                     movea.l    A0, [A4]
000027E8  4AA8 00C6                tst.l      [A0 + 0xC6]
000027EC  675C                     beq        +0x5E /* 0000284A */
000027EE  43EE FFF2                lea.l      A1, [A6 - 0xE]
000027F2  41E8 0050                lea.l      A0, [A0 + 0x50]
000027F6  22D8                     move.l     [A1]+, [A0]+
000027F8  32D8                     move.w     [A1]+, [A0]+
000027FA  598F                     subq.l     A7, 4
000027FC  A8D8                     syscall    NewRgn
000027FE  265F                     movea.l    A3, [A7]+
00002800  2054                     movea.l    A0, [A4]
00002802  43EE FFF8                lea.l      A1, [A6 - 0x8]
00002806  41E8 0024                lea.l      A0, [A0 + 0x24]
0000280A  22D8                     move.l     [A1]+, [A0]+
0000280C  22D8                     move.l     [A1]+, [A0]+
0000280E  486E FFF8                pea.l      [A6 - 0x8]
00002812  7002                     moveq.l    D0, 0x02
00002814  3F00                     move.w     -[A7], D0
00002816  3F00                     move.w     -[A7], D0
00002818  A8A9                     syscall    InsetRect
0000281A  2F0B                     move.l     -[A7], A3
0000281C  486E FFF8                pea.l      [A6 - 0x8]
00002820  A8DF                     syscall    RectRgn
00002822  558F                     subq.l     A7, 2
00002824  2054                     movea.l    A0, [A4]
00002826  2F28 00C2                move.l     -[A7], [A0 + 0xC2]
0000282A  2F0B                     move.l     -[A7], A3
0000282C  2068 004C                movea.l    A0, [A0 + 0x4C]
00002830  2050                     movea.l    A0, [A0]
00002832  2F28 000C                move.l     -[A7], [A0 + 0xC]
00002836  486E FFF2                pea.l      [A6 - 0xE]
0000283A  2054                     movea.l    A0, [A4]
0000283C  2F28 00C6                move.l     -[A7], [A0 + 0xC6]
00002840  4EBA 2870                jsr        [PC + 0x2870 /* 000050B2 */]
00002844  2F0B                     move.l     -[A7], A3
00002846  A8D9                     syscall    DisposRgn/DisposeRgn
00002848  544F                     addq.w     A7, 2
label0000284A:
0000284A  4CEE 1800 FFEA           movem.l    A3,A4, [A6 - 0x16]
00002850  4E5E                     unlink     A6
00002852  4E75                     rts
export_355:
fn00002854:
00002854  4E56 0000                link       A6, 0
00002858  48E7 0118                movem.l    -[A7], D7,A3,A4
0000285C  1E2E 000F                move.b     D7, [A6 + 0xF]
00002860  266E 0008                movea.l    A3, [A6 + 0x8]
00002864  4A07                     tst.b      D7
00002866  6708                     beq        +0xA /* 00002870 */
00002868  2053                     movea.l    A0, [A3]
0000286A  2068 00C6                movea.l    A0, [A0 + 0xC6]
0000286E  6006                     bra        +0x8 /* 00002876 */
label00002870:
00002870  2053                     movea.l    A0, [A3]
00002872  2068 00CA                movea.l    A0, [A0 + 0xCA]
label00002876:
00002876  2848                     movea.l    A4, A0
00002878  200C                     move.l     D0, A4
0000287A  6700 0084                beq        +0x86 /* 00002900 */
0000287E  4A2E 0013                tst.b      [A6 + 0x13]
00002882  6648                     bne        +0x4A /* 000028CC */
00002884  2054                     movea.l    A0, [A4]
00002886  4A28 0109                tst.b      [A0 + 0x109]
0000288A  662C                     bne        +0x2E /* 000028B8 */
0000288C  2F28 0104                move.l     -[A7], [A0 + 0x104]
00002890  A92D                     syscall    CloseWindow
00002892  2054                     movea.l    A0, [A4]
00002894  2F28 0104                move.l     -[A7], [A0 + 0x104]
00002898  4EAD 0122                jsr        [A5 + 0x122 /* export_32, CODE:1 @ 000032AC */]
0000289C  204C                     movea.l    A0, A4
0000289E  A023                     syscall    DisposHandle/DisposeHandle
000028A0  4A07                     tst.b      D7
000028A2  670A                     beq        +0xC /* 000028AE */
000028A4  2053                     movea.l    A0, [A3]
000028A6  7000                     moveq.l    D0, 0x00
000028A8  2140 00C6                move.l     [A0 + 0xC6], D0
000028AC  6052                     bra        +0x54 /* 00002900 */
label000028AE:
000028AE  2053                     movea.l    A0, [A3]
000028B0  7000                     moveq.l    D0, 0x00
000028B2  2140 00CA                move.l     [A0 + 0xCA], D0
000028B6  6048                     bra        +0x4A /* 00002900 */
label000028B8:
000028B8  2054                     movea.l    A0, [A4]
000028BA  4228 0109                clr.b      [A0 + 0x109]
000028BE  2054                     movea.l    A0, [A4]
000028C0  2F28 0104                move.l     -[A7], [A0 + 0x104]
000028C4  7000                     moveq.l    D0, 0x00
000028C6  1F00                     move.b     -[A7], D0
000028C8  A908                     syscall    ShowHide
000028CA  6034                     bra        +0x36 /* 00002900 */
label000028CC:
000028CC  2054                     movea.l    A0, [A4]
000028CE  117C 0001 0109           move.b     [A0 + 0x109], 0x1
000028D4  2054                     movea.l    A0, [A4]
000028D6  2F28 0104                move.l     -[A7], [A0 + 0x104]
000028DA  7001                     moveq.l    D0, 0x01
000028DC  1F00                     move.b     -[A7], D0
000028DE  A908                     syscall    ShowHide
000028E0  2054                     movea.l    A0, [A4]
000028E2  2F28 0104                move.l     -[A7], [A0 + 0x104]
000028E6  A920                     syscall    BringToFront
000028E8  2054                     movea.l    A0, [A4]
000028EA  2F28 0104                move.l     -[A7], [A0 + 0x104]
000028EE  7001                     moveq.l    D0, 0x01
000028F0  1F00                     move.b     -[A7], D0
000028F2  A91C                     syscall    HiliteWindow
000028F4  2054                     movea.l    A0, [A4]
000028F6  2F28 0114                move.l     -[A7], [A0 + 0x114]
000028FA  7001                     moveq.l    D0, 0x01
000028FC  1F00                     move.b     -[A7], D0
000028FE  A91C                     syscall    HiliteWindow
label00002900:
00002900  4CEE 1880 FFF4           movem.l    D7,A3,A4, [A6 - 0xC]
00002906  4E5E                     unlink     A6
00002908  4E75                     rts
fn0000290A:
0000290A  4E56 FFF2                link       A6, -0x000E
0000290E  48E7 1F18                movem.l    -[A7], D3,D4,D5,D6,D7,A3,A4
00002912  286E 000C                movea.l    A4, [A6 + 0xC]
00002916  4206                     clr.b      D6
00002918  2054                     movea.l    A0, [A4]
0000291A  2668 0048                movea.l    A3, [A0 + 0x48]
0000291E  2D68 0044 FFFC           move.l     [A6 - 0x4], [A0 + 0x44]
00002924  2054                     movea.l    A0, [A4]
00002926  3A28 00A4                move.w     D5, [A0 + 0xA4]
0000292A  206E 0008                movea.l    A0, [A6 + 0x8]
0000292E  303C 0200                move.w     D0, 0x200
00002932  C068 000E                and.w      D0, [A0 + 0xE]
00002936  6704                     beq        +0x6 /* 0000293C */
00002938  7004                     moveq.l    D0, 0x04
0000293A  6002                     bra        +0x4 /* 0000293E */
label0000293C:
0000293C  7000                     moveq.l    D0, 0x00
label0000293E:
0000293E  3E00                     move.w     D7, D0
00002940  7600                     moveq.l    D3, 0x00
00002942  206E 0008                movea.l    A0, [A6 + 0x8]
00002946  303C 0800                move.w     D0, 0x800
0000294A  C068 000E                and.w      D0, [A0 + 0xE]
0000294E  6712                     beq        +0x14 /* 00002962 */
00002950  2F03                     move.l     -[A7], D3
00002952  2F0C                     move.l     -[A7], A4
00002954  4EBA E1CC                jsr        [PC - 0x1E34 /* 00000B22 */]
00002958  588F                     addq.l     A7, 4
0000295A  261F                     move.l     D3, [A7]+
0000295C  4A00                     tst.b      D0
0000295E  6602                     bne        +0x4 /* 00002962 */
00002960  7601                     moveq.l    D3, 0x01
label00002962:
00002962  1803                     move.b     D4, D3
00002964  206E 0008                movea.l    A0, [A6 + 0x8]
00002968  2D68 000A FFF8           move.l     [A6 - 0x8], [A0 + 0xA]
0000296E  486E FFF8                pea.l      [A6 - 0x8]
00002972  A871                     syscall    GlobalToLocal
00002974  4A04                     tst.b      D4
00002976  6728                     beq        +0x2A /* 000029A0 */
00002978  7000                     moveq.l    D0, 0x00
0000297A  3005                     move.w     D0, D5
0000297C  0C80 0000 014D           cmpi.l     D0, 0x14D
00002982  671C                     beq        +0x1E /* 000029A0 */
00002984  7000                     moveq.l    D0, 0x00
00002986  3005                     move.w     D0, D5
00002988  0C80 0000 0154           cmpi.l     D0, 0x154
0000298E  6710                     beq        +0x12 /* 000029A0 */
00002990  7000                     moveq.l    D0, 0x00
00002992  3005                     move.w     D0, D5
00002994  0C80 0000 0155           cmpi.l     D0, 0x155
0000299A  6704                     beq        +0x6 /* 000029A0 */
0000299C  3A3C 014F                move.w     D5, 0x14F
label000029A0:
000029A0  3005                     move.w     D0, D5
000029A2  0440 014D                subi.w     D0, 0x14D
000029A6  6500 0304                bcs        +0x306 /* 00002CAC */
000029AA  0C40 000D                cmpi.w     D0, 0xD /* '\r' */
000029AE  6200 02FC                bhi        +0x2FE /* 00002CAC */
000029B2  D040                     add.w      D0, D0
000029B4  303B 0006                move.w     D0, [PC + D0.w + 0x6]
000029B8  4EFB 0000                jmp        [PC + D0.w]
000029BC  009C 00FA 0146           ori.l      [A4]+, 0xFA0146
000029C2  0218 024A                andi.b     [A0]+, 0x4A /* 'J' */
000029C6  0264 0282                andi.w     -[A4], 0x282
000029CA  001E 00FA                ori.b      [A6]+, 0xFA
000029CE  0200 02F2                andi.b     D0, 0xF2
000029D2  029A 02B6 02D8           andi.l     [A2]+, 0x2B602D8
000029D8  558F                     subq.l     A7, 2
000029DA  2F2E FFF8                move.l     -[A7], [A6 - 0x8]
000029DE  2F0B                     move.l     -[A7], A3
000029E0  4EAD 07BA                jsr        [A5 + 0x7BA /* export_243, CODE:3 @ 00003CAE */]
000029E4  1C1F                     move.b     D6, [A7]+
000029E6  4247                     clr.w      D7
000029E8  4A06                     tst.b      D6
000029EA  6720                     beq        +0x22 /* 00002A0C */
000029EC  206E 0008                movea.l    A0, [A6 + 0x8]
000029F0  303C 0800                move.w     D0, 0x800
000029F4  C068 000E                and.w      D0, [A0 + 0xE]
000029F8  6704                     beq        +0x6 /* 000029FE */
000029FA  0047 0010                ori.w      D7, 0x10
label000029FE:
000029FE  2F0C                     move.l     -[A7], A4
00002A00  4878 0163                push.l     0x163
00002A04  4EBA F81E                jsr        [PC - 0x7E2 /* 00002224 */]
00002A08  504F                     addq.w     A7, 8
00002A0A  6022                     bra        +0x24 /* 00002A2E */
label00002A0C:
00002A0C  206E 0008                movea.l    A0, [A6 + 0x8]
00002A10  303C 0800                move.w     D0, 0x800
00002A14  C068 000E                and.w      D0, [A0 + 0xE]
00002A18  6702                     beq        +0x4 /* 00002A1C */
00002A1A  7E02                     moveq.l    D7, 0x02
label00002A1C:
00002A1C  206E 0008                movea.l    A0, [A6 + 0x8]
00002A20  303C 0200                move.w     D0, 0x200
00002A24  C068 000E                and.w      D0, [A0 + 0xE]
00002A28  6704                     beq        +0x6 /* 00002A2E */
00002A2A  0047 0004                ori.w      D7, 0x4
label00002A2E:
00002A2E  2F2E FFF8                move.l     -[A7], [A6 - 0x8]
00002A32  3F07                     move.w     -[A7], D7
00002A34  2F0B                     move.l     -[A7], A3
00002A36  4EAD 0802                jsr        [A5 + 0x802 /* export_252, CODE:3 @ 00003C9A */]
00002A3A  4A06                     tst.b      D6
00002A3C  670C                     beq        +0xE /* 00002A4A */
00002A3E  2054                     movea.l    A0, [A4]
00002A40  317C 0006 0072           move.w     [A0 + 0x72], 0x6
00002A46  6000 0264                bra        +0x266 /* 00002CAC */
label00002A4A:
00002A4A  2054                     movea.l    A0, [A4]
00002A4C  317C 0004 0072           move.w     [A0 + 0x72], 0x4
00002A52  6000 0258                bra        +0x25A /* 00002CAC */
00002A56  558F                     subq.l     A7, 2
00002A58  2F2E FFF8                move.l     -[A7], [A6 - 0x8]
00002A5C  2F0B                     move.l     -[A7], A3
00002A5E  4EAD 07BA                jsr        [A5 + 0x7BA /* export_243, CODE:3 @ 00003CAE */]
00002A62  1C1F                     move.b     D6, [A7]+
00002A64  7E01                     moveq.l    D7, 0x01
00002A66  4A06                     tst.b      D6
00002A68  6712                     beq        +0x14 /* 00002A7C */
00002A6A  206E 0008                movea.l    A0, [A6 + 0x8]
00002A6E  303C 0800                move.w     D0, 0x800
00002A72  C068 000E                and.w      D0, [A0 + 0xE]
00002A76  6704                     beq        +0x6 /* 00002A7C */
00002A78  0047 0010                ori.w      D7, 0x10
label00002A7C:
00002A7C  4A06                     tst.b      D6
00002A7E  670C                     beq        +0xE /* 00002A8C */
00002A80  2F0C                     move.l     -[A7], A4
00002A82  4878 0163                push.l     0x163
00002A86  4EBA F79C                jsr        [PC - 0x864 /* 00002224 */]
00002A8A  504F                     addq.w     A7, 8
label00002A8C:
00002A8C  2F2E FFF8                move.l     -[A7], [A6 - 0x8]
00002A90  3F07                     move.w     -[A7], D7
00002A92  2F0B                     move.l     -[A7], A3
00002A94  4EAD 0802                jsr        [A5 + 0x802 /* export_252, CODE:3 @ 00003C9A */]
00002A98  4A06                     tst.b      D6
00002A9A  670C                     beq        +0xE /* 00002AA8 */
00002A9C  2054                     movea.l    A0, [A4]
00002A9E  317C 0006 0072           move.w     [A0 + 0x72], 0x6
00002AA4  6000 0206                bra        +0x208 /* 00002CAC */
label00002AA8:
00002AA8  2054                     movea.l    A0, [A4]
00002AAA  317C 0004 0072           move.w     [A0 + 0x72], 0x4
00002AB0  6000 01FA                bra        +0x1FC /* 00002CAC */
00002AB4  206E 0008                movea.l    A0, [A6 + 0x8]
00002AB8  303C 0200                move.w     D0, 0x200
00002ABC  C068 000E                and.w      D0, [A0 + 0xE]
00002AC0  6704                     beq        +0x6 /* 00002AC6 */
00002AC2  7002                     moveq.l    D0, 0x02
00002AC4  6002                     bra        +0x4 /* 00002AC8 */
label00002AC6:
00002AC6  7000                     moveq.l    D0, 0x00
label00002AC8:
00002AC8  4880                     ext.w      D0
00002ACA  3E00                     move.w     D7, D0
00002ACC  7000                     moveq.l    D0, 0x00
00002ACE  3005                     move.w     D0, D5
00002AD0  0C80 0000 014E           cmpi.l     D0, 0x14E
00002AD6  660E                     bne        +0x10 /* 00002AE6 */
00002AD8  2F2E FFF8                move.l     -[A7], [A6 - 0x8]
00002ADC  3F07                     move.w     -[A7], D7
00002ADE  2F0B                     move.l     -[A7], A3
00002AE0  4EAD 0872                jsr        [A5 + 0x872 /* export_266, CODE:3 @ 00003C70 */]
00002AE4  600C                     bra        +0xE /* 00002AF2 */
label00002AE6:
00002AE6  2F2E FFF8                move.l     -[A7], [A6 - 0x8]
00002AEA  3F07                     move.w     -[A7], D7
00002AEC  2F0B                     move.l     -[A7], A3
00002AEE  4EAD 086A                jsr        [A5 + 0x86A /* export_265, CODE:3 @ 00003C72 */]
label00002AF2:
00002AF2  7C01                     moveq.l    D6, 0x01
00002AF4  2054                     movea.l    A0, [A4]
00002AF6  317C 0002 0072           move.w     [A0 + 0x72], 0x2
00002AFC  6000 01AE                bra        +0x1B0 /* 00002CAC */
00002B00  2054                     movea.l    A0, [A4]
00002B02  43EE FFF2                lea.l      A1, [A6 - 0xE]
00002B06  41E8 0050                lea.l      A0, [A0 + 0x50]
00002B0A  22D8                     move.l     [A1]+, [A0]+
00002B0C  32D8                     move.w     [A1]+, [A0]+
00002B0E  486E FFF2                pea.l      [A6 - 0xE]
00002B12  2F2E FFF8                move.l     -[A7], [A6 - 0x8]
00002B16  2F0C                     move.l     -[A7], A4
00002B18  4EAD 0C02                jsr        [A5 + 0xC02 /* export_380, CODE:10 @ 0000203E */]
00002B1C  4FEF 000C                lea.l      A7, [A7 + 0xC]
00002B20  6064                     bra        +0x66 /* 00002B86 */
label00002B22:
00002B22  486E FFF8                pea.l      [A6 - 0x8]
00002B26  A972                     syscall    GetMouse
00002B28  558F                     subq.l     A7, 2
00002B2A  2F2E FFF8                move.l     -[A7], [A6 - 0x8]
00002B2E  2053                     movea.l    A0, [A3]
00002B30  4868 004C                pea.l      [A0 + 0x4C]
00002B34  A8AD                     syscall    PtInRect
00002B36  4A1F                     tst.b      [A7]+
00002B38  6714                     beq        +0x16 /* 00002B4E */
00002B3A  486E FFF2                pea.l      [A6 - 0xE]
00002B3E  2F2E FFF8                move.l     -[A7], [A6 - 0x8]
00002B42  2F0C                     move.l     -[A7], A4
00002B44  4EAD 0C02                jsr        [A5 + 0xC02 /* export_380, CODE:10 @ 0000203E */]
00002B48  4FEF 000C                lea.l      A7, [A7 + 0xC]
00002B4C  6038                     bra        +0x3A /* 00002B86 */
label00002B4E:
00002B4E  41EE FFF2                lea.l      A0, [A6 - 0xE]
00002B52  2254                     movea.l    A1, [A4]
00002B54  43E9 0050                lea.l      A1, [A1 + 0x50]
00002B58  7002                     moveq.l    D0, 0x02
label00002B5A:
00002B5A  B149                     cmpm.w     [A0]+, [A1]+
00002B5C  56C8 FFFC                dbne       D0, -0x6 /* 00002B5A */
00002B60  6724                     beq        +0x26 /* 00002B86 */
00002B62  2F0C                     move.l     -[A7], A4
00002B64  4EBA EF16                jsr        [PC - 0x10EA /* 00001A7C */]
00002B68  2F0C                     move.l     -[A7], A4
00002B6A  4EBA F078                jsr        [PC - 0xF88 /* 00001BE4 */]
00002B6E  2F0C                     move.l     -[A7], A4
00002B70  4EBA FC68                jsr        [PC - 0x398 /* 000027DA */]
00002B74  2054                     movea.l    A0, [A4]
00002B76  43EE FFF2                lea.l      A1, [A6 - 0xE]
00002B7A  41E8 0050                lea.l      A0, [A0 + 0x50]
00002B7E  22D8                     move.l     [A1]+, [A0]+
00002B80  32D8                     move.w     [A1]+, [A0]+
00002B82  4FEF 000C                lea.l      A7, [A7 + 0xC]
label00002B86:
00002B86  558F                     subq.l     A7, 2
00002B88  A977                     syscall    WaitMouseUp
00002B8A  4A1F                     tst.b      [A7]+
00002B8C  6694                     bne        -0x6A /* 00002B22 */
00002B8E  41EE FFF2                lea.l      A0, [A6 - 0xE]
00002B92  2254                     movea.l    A1, [A4]
00002B94  43E9 0050                lea.l      A1, [A1 + 0x50]
00002B98  7002                     moveq.l    D0, 0x02
label00002B9A:
00002B9A  B149                     cmpm.w     [A0]+, [A1]+
00002B9C  56C8 FFFC                dbne       D0, -0x6 /* 00002B9A */
00002BA0  6700 010A                beq        +0x10C /* 00002CAC */
00002BA4  2F0C                     move.l     -[A7], A4
00002BA6  41EE FFF8                lea.l      A0, [A6 - 0x8]
00002BAA  2F20                     move.l     -[A7], -[A0]
00002BAC  3F20                     move.w     -[A7], -[A0]
00002BAE  4EAD 0BEA                jsr        [A5 + 0xBEA /* export_377, CODE:10 @ 00001D0E */]
00002BB2  4FEF 000A                lea.l      A7, [A7 + 0xA]
00002BB6  6000 00F4                bra        +0xF6 /* 00002CAC */
00002BBA  2F2E FFF8                move.l     -[A7], [A6 - 0x8]
00002BBE  2F0B                     move.l     -[A7], A3
00002BC0  4EAD 0782                jsr        [A5 + 0x782 /* export_236, CODE:3 @ 00003CBC */]
00002BC4  7C01                     moveq.l    D6, 0x01
00002BC6  2054                     movea.l    A0, [A4]
00002BC8  317C 0002 0072           move.w     [A0 + 0x72], 0x2
00002BCE  6000 00DC                bra        +0xDE /* 00002CAC */
00002BD2  206E 0008                movea.l    A0, [A6 + 0x8]
00002BD6  303C 0200                move.w     D0, 0x200
00002BDA  C068 000E                and.w      D0, [A0 + 0xE]
00002BDE  6704                     beq        +0x6 /* 00002BE4 */
00002BE0  7004                     moveq.l    D0, 0x04
00002BE2  6002                     bra        +0x4 /* 00002BE6 */
label00002BE4:
00002BE4  7000                     moveq.l    D0, 0x00
label00002BE6:
00002BE6  4880                     ext.w      D0
00002BE8  3E00                     move.w     D7, D0
00002BEA  2F2E FFF8                move.l     -[A7], [A6 - 0x8]
00002BEE  3F07                     move.w     -[A7], D7
00002BF0  2F0B                     move.l     -[A7], A3
00002BF2  4EAD 0832                jsr        [A5 + 0x832 /* export_258, CODE:3 @ 00003C86 */]
00002BF6  7C01                     moveq.l    D6, 0x01
00002BF8  2054                     movea.l    A0, [A4]
00002BFA  317C 0002 0072           move.w     [A0 + 0x72], 0x2
00002C00  6000 00AA                bra        +0xAC /* 00002CAC */
00002C04  2F2E FFF8                move.l     -[A7], [A6 - 0x8]
00002C08  3F07                     move.w     -[A7], D7
00002C0A  2F0B                     move.l     -[A7], A3
00002C0C  4EAD 080A                jsr        [A5 + 0x80A /* export_253, CODE:3 @ 00003C98 */]
00002C10  7C01                     moveq.l    D6, 0x01
00002C12  2054                     movea.l    A0, [A4]
00002C14  317C 0002 0072           move.w     [A0 + 0x72], 0x2
00002C1A  6000 0090                bra        +0x92 /* 00002CAC */
00002C1E  2F2E FFF8                move.l     -[A7], [A6 - 0x8]
00002C22  3F07                     move.w     -[A7], D7
00002C24  700A                     moveq.l    D0, 0x0A
00002C26  3F00                     move.w     -[A7], D0
00002C28  3F00                     move.w     -[A7], D0
00002C2A  2F0B                     move.l     -[A7], A3
00002C2C  4EAD 0812                jsr        [A5 + 0x812 /* export_254, CODE:3 @ 00003C96 */]
00002C30  7C01                     moveq.l    D6, 0x01
00002C32  2054                     movea.l    A0, [A4]
00002C34  317C 0002 0072           move.w     [A0 + 0x72], 0x2
00002C3A  6070                     bra        +0x72 /* 00002CAC */
00002C3C  2F2E FFF8                move.l     -[A7], [A6 - 0x8]
00002C40  3F07                     move.w     -[A7], D7
00002C42  2F0B                     move.l     -[A7], A3
00002C44  4EAD 0822                jsr        [A5 + 0x822 /* export_256, CODE:3 @ 00003C8E */]
00002C48  7C01                     moveq.l    D6, 0x01
00002C4A  2054                     movea.l    A0, [A4]
00002C4C  317C 0002 0072           move.w     [A0 + 0x72], 0x2
00002C52  6058                     bra        +0x5A /* 00002CAC */
00002C54  2F2E FFF8                move.l     -[A7], [A6 - 0x8]
00002C58  7002                     moveq.l    D0, 0x02
00002C5A  8047                     or.w       D0, D7
00002C5C  3F00                     move.w     -[A7], D0
00002C5E  2F0B                     move.l     -[A7], A3
00002C60  4EAD 080A                jsr        [A5 + 0x80A /* export_253, CODE:3 @ 00003C98 */]
00002C64  7C01                     moveq.l    D6, 0x01
00002C66  2054                     movea.l    A0, [A4]
00002C68  317C 0002 0072           move.w     [A0 + 0x72], 0x2
00002C6E  603C                     bra        +0x3E /* 00002CAC */
00002C70  2F2E FFF8                move.l     -[A7], [A6 - 0x8]
00002C74  7002                     moveq.l    D0, 0x02
00002C76  8047                     or.w       D0, D7
00002C78  3F00                     move.w     -[A7], D0
00002C7A  700A                     moveq.l    D0, 0x0A
00002C7C  3F00                     move.w     -[A7], D0
00002C7E  3F00                     move.w     -[A7], D0
00002C80  2F0B                     move.l     -[A7], A3
00002C82  4EAD 0812                jsr        [A5 + 0x812 /* export_254, CODE:3 @ 00003C96 */]
00002C86  7C01                     moveq.l    D6, 0x01
00002C88  2054                     movea.l    A0, [A4]
00002C8A  317C 0002 0072           move.w     [A0 + 0x72], 0x2
00002C90  601A                     bra        +0x1C /* 00002CAC */
00002C92  2F2E FFF8                move.l     -[A7], [A6 - 0x8]
00002C96  7002                     moveq.l    D0, 0x02
00002C98  8047                     or.w       D0, D7
00002C9A  3F00                     move.w     -[A7], D0
00002C9C  2F0B                     move.l     -[A7], A3
00002C9E  4EAD 0822                jsr        [A5 + 0x822 /* export_256, CODE:3 @ 00003C8E */]
00002CA2  7C01                     moveq.l    D6, 0x01
00002CA4  2054                     movea.l    A0, [A4]
00002CA6  317C 0002 0072           move.w     [A0 + 0x72], 0x2
label00002CAC:
00002CAC  2053                     movea.l    A0, [A3]
00002CAE  4A68 00A8                tst.w      [A0 + 0xA8]
00002CB2  6742                     beq        +0x44 /* 00002CF6 */
00002CB4  7000                     moveq.l    D0, 0x00
00002CB6  3005                     move.w     D0, D5
00002CB8  0C80 0000 0154           cmpi.l     D0, 0x154
00002CBE  670C                     beq        +0xE /* 00002CCC */
00002CC0  7000                     moveq.l    D0, 0x00
00002CC2  3005                     move.w     D0, D5
00002CC4  0C80 0000 014D           cmpi.l     D0, 0x14D
00002CCA  6604                     bne        +0x6 /* 00002CD0 */
label00002CCC:
00002CCC  7A04                     moveq.l    D5, 0x04
00002CCE  6002                     bra        +0x4 /* 00002CD2 */
label00002CD0:
00002CD0  7A05                     moveq.l    D5, 0x05
label00002CD2:
00002CD2  2053                     movea.l    A0, [A3]
00002CD4  3028 00A8                move.w     D0, [A0 + 0xA8]
00002CD8  48C0                     ext.l      D0
00002CDA  2F00                     move.l     -[A7], D0
00002CDC  48C5                     ext.l      D5
00002CDE  2F05                     move.l     -[A7], D5
00002CE0  4EBA 1872                jsr        [PC + 0x1872 /* 00004554 */]
00002CE4  2053                     movea.l    A0, [A3]
00002CE6  4268 00A8                clr.w      [A0 + 0xA8]
00002CEA  2054                     movea.l    A0, [A4]
00002CEC  317C 0001 0072           move.w     [A0 + 0x72], 0x1
00002CF2  504F                     addq.w     A7, 8
00002CF4  6010                     bra        +0x12 /* 00002D06 */
label00002CF6:
00002CF6  4A06                     tst.b      D6
00002CF8  670C                     beq        +0xE /* 00002D06 */
00002CFA  2054                     movea.l    A0, [A4]
00002CFC  2F28 0044                move.l     -[A7], [A0 + 0x44]
00002D00  4EBA F4FA                jsr        [PC - 0xB06 /* 000021FC */]
00002D04  584F                     addq.w     A7, 4
label00002D06:
00002D06  4CEE 18F8 FFD6           movem.l    D3,D4,D5,D6,D7,A3,A4, [A6 - 0x2A]
00002D0C  4E5E                     unlink     A6
00002D0E  4E75                     rts
fn00002D10:
00002D10  4E56 FFF0                link       A6, -0x0010
00002D14  48E7 1718                movem.l    -[A7], D3,D5,D6,D7,A3,A4
00002D18  3E2E 000E                move.w     D7, [A6 + 0xE]
00002D1C  286E 0008                movea.l    A4, [A6 + 0x8]
00002D20  48C7                     ext.l      D7
00002D22  2054                     movea.l    A0, [A4]
00002D24  2068 0004                movea.l    A0, [A0 + 0x4]
00002D28  2050                     movea.l    A0, [A0]
00002D2A  2007                     move.l     D0, D7
00002D2C  E580                     asl        D0, 2
00002D2E  2670 0802                movea.l    A3, [A0 + D0 + 0x2]
00002D32  7601                     moveq.l    D3, 0x01
00002D34  2054                     movea.l    A0, [A4]
00002D36  2068 0044                movea.l    A0, [A0 + 0x44]
00002D3A  2050                     movea.l    A0, [A0]
00002D3C  4A68 003C                tst.w      [A0 + 0x3C]
00002D40  670A                     beq        +0xC /* 00002D4C */
00002D42  2054                     movea.l    A0, [A4]
00002D44  4A28 0070                tst.b      [A0 + 0x70]
00002D48  6602                     bne        +0x4 /* 00002D4C */
00002D4A  7600                     moveq.l    D3, 0x00
label00002D4C:
00002D4C  1A03                     move.b     D5, D3
00002D4E  2054                     movea.l    A0, [A4]
00002D50  3C28 0068                move.w     D6, [A0 + 0x68]
00002D54  2F28 0048                move.l     -[A7], [A0 + 0x48]
00002D58  4EAD 07CA                jsr        [A5 + 0x7CA /* export_245, CODE:3 @ 00003CA8 */]
00002D5C  7000                     moveq.l    D0, 0x00
00002D5E  1F00                     move.b     -[A7], D0
00002D60  2054                     movea.l    A0, [A4]
00002D62  2F28 0048                move.l     -[A7], [A0 + 0x48]
00002D66  4EAD 0882                jsr        [A5 + 0x882 /* export_268, CODE:3 @ 00003C64 */]
00002D6A  7000                     moveq.l    D0, 0x00
00002D6C  2F00                     move.l     -[A7], D0
00002D6E  2054                     movea.l    A0, [A4]
00002D70  2F28 0044                move.l     -[A7], [A0 + 0x44]
00002D74  4EBA F170                jsr        [PC - 0xE90 /* 00001EE6 */]
00002D78  2054                     movea.l    A0, [A4]
00002D7A  2F28 0044                move.l     -[A7], [A0 + 0x44]
00002D7E  4EBA F322                jsr        [PC - 0xCDE /* 000020A2 */]
00002D82  2054                     movea.l    A0, [A4]
00002D84  317C 0001 0072           move.w     [A0 + 0x72], 0x1
00002D8A  2054                     movea.l    A0, [A4]
00002D8C  4A28 0060                tst.b      [A0 + 0x60]
00002D90  4FEF 000C                lea.l      A7, [A7 + 0xC]
00002D94  6720                     beq        +0x22 /* 00002DB6 */
00002D96  2D48 FFF0                move.l     [A6 - 0x10], A0
00002D9A  41E8 0050                lea.l      A0, [A0 + 0x50]
00002D9E  43EE FFF4                lea.l      A1, [A6 - 0xC]
00002DA2  22D8                     move.l     [A1]+, [A0]+
00002DA4  32D8                     move.w     [A1]+, [A0]+
00002DA6  206E FFF0                movea.l    A0, [A6 - 0x10]
00002DAA  43EE FFFA                lea.l      A1, [A6 - 0x6]
00002DAE  41E8 0056                lea.l      A0, [A0 + 0x56]
00002DB2  22D8                     move.l     [A1]+, [A0]+
00002DB4  32D8                     move.w     [A1]+, [A0]+
label00002DB6:
00002DB6  2F0C                     move.l     -[A7], A4
00002DB8  4EBA E6C4                jsr        [PC - 0x193C /* 0000147E */]
00002DBC  2054                     movea.l    A0, [A4]
00002DBE  4A28 0060                tst.b      [A0 + 0x60]
00002DC2  670A                     beq        +0xC /* 00002DCE */
00002DC4  2F0C                     move.l     -[A7], A4
00002DC6  2F0B                     move.l     -[A7], A3
00002DC8  4EBA E45C                jsr        [PC - 0x1BA4 /* 00001226 */]
00002DCC  504F                     addq.w     A7, 8
label00002DCE:
00002DCE  2F0C                     move.l     -[A7], A4
00002DD0  48C7                     ext.l      D7
00002DD2  2F07                     move.l     -[A7], D7
00002DD4  4EBA E410                jsr        [PC - 0x1BF0 /* 000011E6 */]
00002DD8  2F0C                     move.l     -[A7], A4
00002DDA  48C7                     ext.l      D7
00002DDC  2F07                     move.l     -[A7], D7
00002DDE  4EBA E4E2                jsr        [PC - 0x1B1E /* 000012C2 */]
00002DE2  7001                     moveq.l    D0, 0x01
00002DE4  1F00                     move.b     -[A7], D0
00002DE6  2054                     movea.l    A0, [A4]
00002DE8  2F28 0048                move.l     -[A7], [A0 + 0x48]
00002DEC  4EAD 0882                jsr        [A5 + 0x882 /* export_268, CODE:3 @ 00003C64 */]
00002DF0  2054                     movea.l    A0, [A4]
00002DF2  4868 003C                pea.l      [A0 + 0x3C]
00002DF6  A928                     syscall    InvalRect
00002DF8  2F0C                     move.l     -[A7], A4
00002DFA  4EBA F86C                jsr        [PC - 0x794 /* 00002668 */]
00002DFE  2F0C                     move.l     -[A7], A4
00002E00  4EBA DCEE                jsr        [PC - 0x2312 /* 00000AF0 */]
00002E04  4A00                     tst.b      D0
00002E06  4FEF 0018                lea.l      A7, [A7 + 0x18]
00002E0A  672A                     beq        +0x2C /* 00002E36 */
00002E0C  2F0C                     move.l     -[A7], A4
00002E0E  700A                     moveq.l    D0, 0x0A
00002E10  2F00                     move.l     -[A7], D0
00002E12  7200                     moveq.l    D1, 0x00
00002E14  2F01                     move.l     -[A7], D1
00002E16  2054                     movea.l    A0, [A4]
00002E18  2068 0048                movea.l    A0, [A0 + 0x48]
00002E1C  2050                     movea.l    A0, [A0]
00002E1E  2068 001C                movea.l    A0, [A0 + 0x1C]
00002E22  2050                     movea.l    A0, [A0]
00002E24  2068 0002                movea.l    A0, [A0 + 0x2]
00002E28  2050                     movea.l    A0, [A0]
00002E2A  2F28 002A                move.l     -[A7], [A0 + 0x2A]
00002E2E  4EAD 0BDA                jsr        [A5 + 0xBDA /* export_375, CODE:10 @ 000012C8 */]
00002E32  4FEF 0010                lea.l      A7, [A7 + 0x10]
label00002E36:
00002E36  2054                     movea.l    A0, [A4]
00002E38  41E8 002C                lea.l      A0, [A0 + 0x2C]
00002E3C  2F20                     move.l     -[A7], -[A0]
00002E3E  2F20                     move.l     -[A7], -[A0]
00002E40  4EBA EB70                jsr        [PC - 0x1490 /* 000019B2 */]
00002E44  2054                     movea.l    A0, [A4]
00002E46  41E8 0034                lea.l      A0, [A0 + 0x34]
00002E4A  2F20                     move.l     -[A7], -[A0]
00002E4C  2F20                     move.l     -[A7], -[A0]
00002E4E  4EBA EB62                jsr        [PC - 0x149E /* 000019B2 */]
00002E52  2054                     movea.l    A0, [A4]
00002E54  41E8 003C                lea.l      A0, [A0 + 0x3C]
00002E58  2F20                     move.l     -[A7], -[A0]
00002E5A  2F20                     move.l     -[A7], -[A0]
00002E5C  4EBA EB54                jsr        [PC - 0x14AC /* 000019B2 */]
00002E60  2F0C                     move.l     -[A7], A4
00002E62  2054                     movea.l    A0, [A4]
00002E64  4A68 0068                tst.w      [A0 + 0x68]
00002E68  56C3                     sne        D3
00002E6A  4403                     neg.b      D3
00002E6C  4883                     ext.w      D3
00002E6E  48C3                     ext.l      D3
00002E70  2F03                     move.l     -[A7], D3
00002E72  4EBA DF4C                jsr        [PC - 0x20B4 /* 00000DC0 */]
00002E76  7001                     moveq.l    D0, 0x01
00002E78  2F00                     move.l     -[A7], D0
00002E7A  2F0B                     move.l     -[A7], A3
00002E7C  4EBA F068                jsr        [PC - 0xF98 /* 00001EE6 */]
00002E80  2F0B                     move.l     -[A7], A3
00002E82  4EBA F21E                jsr        [PC - 0xDE2 /* 000020A2 */]
00002E86  2053                     movea.l    A0, [A3]
00002E88  4A28 003B                tst.b      [A0 + 0x3B]
00002E8C  4FEF 002C                lea.l      A7, [A7 + 0x2C]
00002E90  671E                     beq        +0x20 /* 00002EB0 */
00002E92  3E28 003C                move.w     D7, [A0 + 0x3C]
00002E96  0C47 0003                cmpi.w     D7, 0x3
00002E9A  670C                     beq        +0xE /* 00002EA8 */
00002E9C  0C47 0004                cmpi.w     D7, 0x4
00002EA0  6706                     beq        +0x8 /* 00002EA8 */
00002EA2  0C47 0005                cmpi.w     D7, 0x5
00002EA6  6608                     bne        +0xA /* 00002EB0 */
label00002EA8:
00002EA8  2F0C                     move.l     -[A7], A4
00002EAA  4EAD 0BBA                jsr        [A5 + 0xBBA /* export_371, CODE:10 @ 00000ECA */]
00002EAE  584F                     addq.w     A7, 4
label00002EB0:
00002EB0  7601                     moveq.l    D3, 0x01
00002EB2  2053                     movea.l    A0, [A3]
00002EB4  4A68 003C                tst.w      [A0 + 0x3C]
00002EB8  670A                     beq        +0xC /* 00002EC4 */
00002EBA  2054                     movea.l    A0, [A4]
00002EBC  4A28 0070                tst.b      [A0 + 0x70]
00002EC0  6602                     bne        +0x4 /* 00002EC4 */
00002EC2  7600                     moveq.l    D3, 0x00
label00002EC4:
00002EC4  1E03                     move.b     D7, D3
00002EC6  BA07                     cmp.b      D5, D7
00002EC8  671A                     beq        +0x1C /* 00002EE4 */
00002ECA  4A07                     tst.b      D7
00002ECC  57C3                     seq        D3
00002ECE  4403                     neg.b      D3
00002ED0  4883                     ext.w      D3
00002ED2  48C3                     ext.l      D3
00002ED4  2F03                     move.l     -[A7], D3
00002ED6  7001                     moveq.l    D0, 0x01
00002ED8  2F00                     move.l     -[A7], D0
00002EDA  2F0C                     move.l     -[A7], A4
00002EDC  4EBA F976                jsr        [PC - 0x68A /* 00002854 */]
00002EE0  4FEF 000C                lea.l      A7, [A7 + 0xC]
label00002EE4:
00002EE4  2054                     movea.l    A0, [A4]
00002EE6  BC68 0068                cmp.w      D6, [A0 + 0x68]
00002EEA  6738                     beq        +0x3A /* 00002F24 */
00002EEC  2F0C                     move.l     -[A7], A4
00002EEE  4EBA F8AA                jsr        [PC - 0x756 /* 0000279A */]
00002EF2  2054                     movea.l    A0, [A4]
00002EF4  41E8 0050                lea.l      A0, [A0 + 0x50]
00002EF8  43EE FFF4                lea.l      A1, [A6 - 0xC]
00002EFC  7002                     moveq.l    D0, 0x02
label00002EFE:
00002EFE  B149                     cmpm.w     [A0]+, [A1]+
00002F00  56C8 FFFC                dbne       D0, -0x6 /* 00002EFE */
00002F04  584F                     addq.w     A7, 4
00002F06  6614                     bne        +0x16 /* 00002F1C */
00002F08  2054                     movea.l    A0, [A4]
00002F0A  41E8 0056                lea.l      A0, [A0 + 0x56]
00002F0E  43EE FFFA                lea.l      A1, [A6 - 0x6]
00002F12  7002                     moveq.l    D0, 0x02
label00002F14:
00002F14  B149                     cmpm.w     [A0]+, [A1]+
00002F16  56C8 FFFC                dbne       D0, -0x6 /* 00002F14 */
00002F1A  6708                     beq        +0xA /* 00002F24 */
label00002F1C:
00002F1C  2F0C                     move.l     -[A7], A4
00002F1E  4EBA F83A                jsr        [PC - 0x7C6 /* 0000275A */]
00002F22  584F                     addq.w     A7, 4
label00002F24:
00002F24  4CEE 18E8 FFD8           movem.l    D3,D5,D6,D7,A3,A4, [A6 - 0x28]
00002F2A  4E5E                     unlink     A6
00002F2C  4E75                     rts
00002F2E  4E56 FFF4                link       A6, -0x000C
00002F32  48E7 0118                movem.l    -[A7], D7,A3,A4
00002F36  486E FFF8                pea.l      [A6 - 0x8]
00002F3A  A874                     syscall    GetPort
00002F3C  286E FFF8                movea.l    A4, [A6 - 0x8]
00002F40  266C 0098                movea.l    A3, [A4 + 0x98]
00002F44  486E FFFC                pea.l      [A6 - 0x4]
00002F48  A972                     syscall    GetMouse
00002F4A  41EE FFFC                lea.l      A0, [A6 - 0x4]
00002F4E  2253                     movea.l    A1, [A3]
00002F50  43E9 00AC                lea.l      A1, [A1 + 0xAC]
00002F54  7000                     moveq.l    D0, 0x00
label00002F56:
00002F56  B189                     cmpm.l     [A0]+, [A1]+
00002F58  56C8 FFFC                dbne       D0, -0x6 /* 00002F56 */
00002F5C  6700 00C4                beq        +0xC6 /* 00003022 */
00002F60  2053                     movea.l    A0, [A3]
00002F62  2D68 0004 FFF4           move.l     [A6 - 0xC], [A0 + 0x4]
00002F68  2053                     movea.l    A0, [A3]
00002F6A  70FF                     moveq.l    D0, 0xFFFFFFFF
00002F6C  B068 00AA                cmp.w      D0, [A0 + 0xAA]
00002F70  6744                     beq        +0x46 /* 00002FB6 */
00002F72  3028 00AA                move.w     D0, [A0 + 0xAA]
00002F76  48C0                     ext.l      D0
00002F78  206E FFF4                movea.l    A0, [A6 - 0xC]
00002F7C  2050                     movea.l    A0, [A0]
00002F7E  E580                     asl        D0, 2
00002F80  2870 0802                movea.l    A4, [A0 + D0 + 0x2]
00002F84  558F                     subq.l     A7, 2
00002F86  2F2E FFFC                move.l     -[A7], [A6 - 0x4]
00002F8A  2054                     movea.l    A0, [A4]
00002F8C  4868 0044                pea.l      [A0 + 0x44]
00002F90  A8AD                     syscall    PtInRect
00002F92  4A1F                     tst.b      [A7]+
00002F94  6620                     bne        +0x22 /* 00002FB6 */
00002F96  204C                     movea.l    A0, A4
00002F98  A029                     syscall    HLock
00002F9A  2054                     movea.l    A0, [A4]
00002F9C  4868 0044                pea.l      [A0 + 0x44]
00002FA0  A8A4                     syscall    InvertRect
00002FA2  2054                     movea.l    A0, [A4]
00002FA4  4868 004C                pea.l      [A0 + 0x4C]
00002FA8  A8A4                     syscall    InvertRect
00002FAA  204C                     movea.l    A0, A4
00002FAC  A02A                     syscall    HUnlock
00002FAE  2053                     movea.l    A0, [A3]
00002FB0  317C FFFF 00AA           move.w     [A0 + 0xAA], 0xFFFF
label00002FB6:
00002FB6  2053                     movea.l    A0, [A3]
00002FB8  70FF                     moveq.l    D0, 0xFFFFFFFF
00002FBA  B068 00AA                cmp.w      D0, [A0 + 0xAA]
00002FBE  665A                     bne        +0x5C /* 0000301A */
00002FC0  4247                     clr.w      D7
00002FC2  604C                     bra        +0x4E /* 00003010 */
label00002FC4:
00002FC4  48C7                     ext.l      D7
00002FC6  206E FFF4                movea.l    A0, [A6 - 0xC]
00002FCA  2050                     movea.l    A0, [A0]
00002FCC  2007                     move.l     D0, D7
00002FCE  E580                     asl        D0, 2
00002FD0  2870 0802                movea.l    A4, [A0 + D0 + 0x2]
00002FD4  558F                     subq.l     A7, 2
00002FD6  2F2E FFFC                move.l     -[A7], [A6 - 0x4]
00002FDA  2054                     movea.l    A0, [A4]
00002FDC  4868 0044                pea.l      [A0 + 0x44]
00002FE0  A8AD                     syscall    PtInRect
00002FE2  4A1F                     tst.b      [A7]+
00002FE4  6728                     beq        +0x2A /* 0000300E */
00002FE6  2053                     movea.l    A0, [A3]
00002FE8  BE68 00A8                cmp.w      D7, [A0 + 0xA8]
00002FEC  672C                     beq        +0x2E /* 0000301A */
00002FEE  204C                     movea.l    A0, A4
00002FF0  A029                     syscall    HLock
00002FF2  2054                     movea.l    A0, [A4]
00002FF4  4868 0044                pea.l      [A0 + 0x44]
00002FF8  A8A4                     syscall    InvertRect
00002FFA  2054                     movea.l    A0, [A4]
00002FFC  4868 004C                pea.l      [A0 + 0x4C]
00003000  A8A4                     syscall    InvertRect
00003002  204C                     movea.l    A0, A4
00003004  A02A                     syscall    HUnlock
00003006  2053                     movea.l    A0, [A3]
00003008  3147 00AA                move.w     [A0 + 0xAA], D7
0000300C  600C                     bra        +0xE /* 0000301A */
label0000300E:
0000300E  5247                     addq.w     D7, 1
label00003010:
00003010  206E FFF4                movea.l    A0, [A6 - 0xC]
00003014  2050                     movea.l    A0, [A0]
00003016  BE50                     cmp.w      D7, [A0]
00003018  6FAA                     ble        -0x54 /* 00002FC4 */
label0000301A:
0000301A  2053                     movea.l    A0, [A3]
0000301C  216E FFFC 00AC           move.l     [A0 + 0xAC], [A6 - 0x4]
label00003022:
00003022  4CEE 1880 FFE8           movem.l    D7,A3,A4, [A6 - 0x18]
00003028  4E5E                     unlink     A6
0000302A  4E75                     rts
fn0000302C:
0000302C  4E56 FFC8                link       A6, -0x0038
00003030  48E7 0318                movem.l    -[A7], D6,D7,A3,A4
00003034  286E 0008                movea.l    A4, [A6 + 0x8]
00003038  2054                     movea.l    A0, [A4]
0000303A  216E 000C 00AC           move.l     [A0 + 0xAC], [A6 + 0xC]
00003040  2054                     movea.l    A0, [A4]
00003042  316E 0016 00A8           move.w     [A0 + 0xA8], [A6 + 0x16]
00003048  2054                     movea.l    A0, [A4]
0000304A  2068 00C2                movea.l    A0, [A0 + 0xC2]
0000304E  2D48 FFD4                move.l     [A6 - 0x2C], A0
00003052  2C28 0098                move.l     D6, [A0 + 0x98]
00003056  214C 0098                move.l     [A0 + 0x98], A4
0000305A  598F                     subq.l     A7, 4
0000305C  A8D8                     syscall    NewRgn
0000305E  2D5F FFD8                move.l     [A6 - 0x28], [A7]+
00003062  2054                     movea.l    A0, [A4]
00003064  2068 0044                movea.l    A0, [A0 + 0x44]
00003068  2050                     movea.l    A0, [A0]
0000306A  43EE FFEC                lea.l      A1, [A6 - 0x14]
0000306E  41E8 0044                lea.l      A0, [A0 + 0x44]
00003072  22D8                     move.l     [A1]+, [A0]+
00003074  22D8                     move.l     [A1]+, [A0]+
00003076  486E FFEC                pea.l      [A6 - 0x14]
0000307A  7002                     moveq.l    D0, 0x02
0000307C  3F00                     move.w     -[A7], D0
0000307E  3F00                     move.w     -[A7], D0
00003080  A8A9                     syscall    InsetRect
00003082  486E FFEC                pea.l      [A6 - 0x14]
00003086  302E 0012                move.w     D0, [A6 + 0x12]
0000308A  906E 000E                sub.w      D0, [A6 + 0xE]
0000308E  3F00                     move.w     -[A7], D0
00003090  302E 0010                move.w     D0, [A6 + 0x10]
00003094  906E 000C                sub.w      D0, [A6 + 0xC]
00003098  3F00                     move.w     -[A7], D0
0000309A  A8A8                     syscall    OffsetRect
0000309C  2F2E FFD8                move.l     -[A7], [A6 - 0x28]
000030A0  486E FFEC                pea.l      [A6 - 0x14]
000030A4  A8DF                     syscall    RectRgn
000030A6  2054                     movea.l    A0, [A4]
000030A8  2068 0044                movea.l    A0, [A0 + 0x44]
000030AC  2050                     movea.l    A0, [A0]
000030AE  43EE FFF4                lea.l      A1, [A6 - 0xC]
000030B2  41E8 0044                lea.l      A0, [A0 + 0x44]
000030B6  22D8                     move.l     [A1]+, [A0]+
000030B8  22D8                     move.l     [A1]+, [A0]+
000030BA  486E FFFC                pea.l      [A6 - 0x4]
000030BE  302E FFFA                move.w     D0, [A6 - 0x6]
000030C2  906E FFF6                sub.w      D0, [A6 - 0xA]
000030C6  3F00                     move.w     -[A7], D0
000030C8  302E FFF8                move.w     D0, [A6 - 0x8]
000030CC  906E FFF4                sub.w      D0, [A6 - 0xC]
000030D0  3F00                     move.w     -[A7], D0
000030D2  A880                     syscall    SetPt
000030D4  4247                     clr.w      D7
000030D6  6000 00B8                bra        +0xBA /* 00003190 */
label000030DA:
000030DA  48C7                     ext.l      D7
000030DC  2054                     movea.l    A0, [A4]
000030DE  2068 0004                movea.l    A0, [A0 + 0x4]
000030E2  2050                     movea.l    A0, [A0]
000030E4  2007                     move.l     D0, D7
000030E6  E580                     asl        D0, 2
000030E8  2670 0802                movea.l    A3, [A0 + D0 + 0x2]
000030EC  2053                     movea.l    A0, [A3]
000030EE  43EE FFC8                lea.l      A1, [A6 - 0x38]
000030F2  41E8 0044                lea.l      A0, [A0 + 0x44]
000030F6  22D8                     move.l     [A1]+, [A0]+
000030F8  22D8                     move.l     [A1]+, [A0]+
000030FA  486E FFD0                pea.l      [A6 - 0x30]
000030FE  302E FFCE                move.w     D0, [A6 - 0x32]
00003102  906E FFCA                sub.w      D0, [A6 - 0x36]
00003106  3F00                     move.w     -[A7], D0
00003108  302E FFCC                move.w     D0, [A6 - 0x34]
0000310C  906E FFC8                sub.w      D0, [A6 - 0x38]
00003110  3F00                     move.w     -[A7], D0
00003112  A880                     syscall    SetPt
00003114  302E FFD2                move.w     D0, [A6 - 0x2E]
00003118  B06E FFFE                cmp.w      D0, [A6 - 0x2]
0000311C  6C22                     bge        +0x24 /* 00003140 */
0000311E  486E FFC8                pea.l      [A6 - 0x38]
00003122  302E FFFE                move.w     D0, [A6 - 0x2]
00003126  48C0                     ext.l      D0
00003128  322E FFD2                move.w     D1, [A6 - 0x2E]
0000312C  48C1                     ext.l      D1
0000312E  9081                     sub.l      D0, D1
00003130  7202                     moveq.l    D1, 0x02
00003132  4EAD 076A                jsr        [A5 + 0x76A /* export_233, CODE:3 @ 0000372A */]
00003136  4480                     neg.l      D0
00003138  3F00                     move.w     -[A7], D0
0000313A  7000                     moveq.l    D0, 0x00
0000313C  3F00                     move.w     -[A7], D0
0000313E  A8A9                     syscall    InsetRect
label00003140:
00003140  302E FFD0                move.w     D0, [A6 - 0x30]
00003144  B06E FFFC                cmp.w      D0, [A6 - 0x4]
00003148  6C24                     bge        +0x26 /* 0000316E */
0000314A  486E FFC8                pea.l      [A6 - 0x38]
0000314E  7000                     moveq.l    D0, 0x00
00003150  3F00                     move.w     -[A7], D0
00003152  322E FFFC                move.w     D1, [A6 - 0x4]
00003156  48C1                     ext.l      D1
00003158  342E FFD0                move.w     D2, [A6 - 0x30]
0000315C  48C2                     ext.l      D2
0000315E  9282                     sub.l      D1, D2
00003160  2001                     move.l     D0, D1
00003162  7202                     moveq.l    D1, 0x02
00003164  4EAD 076A                jsr        [A5 + 0x76A /* export_233, CODE:3 @ 0000372A */]
00003168  4480                     neg.l      D0
0000316A  3F00                     move.w     -[A7], D0
0000316C  A8A9                     syscall    InsetRect
label0000316E:
0000316E  4A47                     tst.w      D7
00003170  660E                     bne        +0x10 /* 00003180 */
00003172  41EE FFDC                lea.l      A0, [A6 - 0x24]
00003176  43EE FFC8                lea.l      A1, [A6 - 0x38]
0000317A  20D9                     move.l     [A0]+, [A1]+
0000317C  20D9                     move.l     [A0]+, [A1]+
0000317E  600E                     bra        +0x10 /* 0000318E */
label00003180:
00003180  486E FFDC                pea.l      [A6 - 0x24]
00003184  486E FFC8                pea.l      [A6 - 0x38]
00003188  486E FFDC                pea.l      [A6 - 0x24]
0000318C  A8AB                     syscall    UnionRect
label0000318E:
0000318E  5247                     addq.w     D7, 1
label00003190:
00003190  2054                     movea.l    A0, [A4]
00003192  2068 0004                movea.l    A0, [A0 + 0x4]
00003196  2050                     movea.l    A0, [A0]
00003198  BE50                     cmp.w      D7, [A0]
0000319A  6F00 FF3E                ble        -0xC0 /* 000030DA */
0000319E  486E FFDC                pea.l      [A6 - 0x24]
000031A2  302E 000E                move.w     D0, [A6 + 0xE]
000031A6  906E FFF6                sub.w      D0, [A6 - 0xA]
000031AA  3F00                     move.w     -[A7], D0
000031AC  302E 000C                move.w     D0, [A6 + 0xC]
000031B0  906E FFF4                sub.w      D0, [A6 - 0xC]
000031B4  3F00                     move.w     -[A7], D0
000031B6  A8A8                     syscall    OffsetRect
000031B8  302E FFFA                move.w     D0, [A6 - 0x6]
000031BC  48C0                     ext.l      D0
000031BE  322E FFF6                move.w     D1, [A6 - 0xA]
000031C2  48C1                     ext.l      D1
000031C4  9081                     sub.l      D0, D1
000031C6  5380                     subq.l     D0, 1
000031C8  322E FFE2                move.w     D1, [A6 - 0x1E]
000031CC  9240                     sub.w      D1, D0
000031CE  3D41 FFE2                move.w     [A6 - 0x1E], D1
000031D2  302E FFF8                move.w     D0, [A6 - 0x8]
000031D6  48C0                     ext.l      D0
000031D8  322E FFF4                move.w     D1, [A6 - 0xC]
000031DC  48C1                     ext.l      D1
000031DE  9081                     sub.l      D0, D1
000031E0  5380                     subq.l     D0, 1
000031E2  322E FFE0                move.w     D1, [A6 - 0x20]
000031E6  9240                     sub.w      D1, D0
000031E8  3D41 FFE0                move.w     [A6 - 0x20], D1
000031EC  2054                     movea.l    A0, [A4]
000031EE  2068 00C2                movea.l    A0, [A0 + 0xC2]
000031F2  43EE FFE4                lea.l      A1, [A6 - 0x1C]
000031F6  41E8 0010                lea.l      A0, [A0 + 0x10]
000031FA  22D8                     move.l     [A1]+, [A0]+
000031FC  22D8                     move.l     [A1]+, [A0]+
000031FE  598F                     subq.l     A7, 4
00003200  2F2E FFD8                move.l     -[A7], [A6 - 0x28]
00003204  2F2E 0010                move.l     -[A7], [A6 + 0x10]
00003208  486E FFDC                pea.l      [A6 - 0x24]
0000320C  486E FFE4                pea.l      [A6 - 0x1C]
00003210  7000                     moveq.l    D0, 0x00
00003212  3F00                     move.w     -[A7], D0
00003214  487A FD18                pea.l      [PC - 0x2E8 /* 00002F2E, value 0x4E56FFF4 */]
00003218  A905                     syscall    DragGrayRgn
0000321A  2E1F                     move.l     D7, [A7]+
0000321C  2F2E FFD8                move.l     -[A7], [A6 - 0x28]
00003220  A8D9                     syscall    DisposRgn/DisposeRgn
00003222  206E FFD4                movea.l    A0, [A6 - 0x2C]
00003226  2146 0098                move.l     [A0 + 0x98], D6
0000322A  4CEE 18C0 FFB8           movem.l    D6,D7,A3,A4, [A6 - 0x48]
00003230  4E5E                     unlink     A6
00003232  4E75                     rts
fn00003234:
00003234  4E56 FFF4                link       A6, -0x000C
00003238  48E7 0118                movem.l    -[A7], D7,A3,A4
0000323C  3E2E 000E                move.w     D7, [A6 + 0xE]
00003240  286E 0008                movea.l    A4, [A6 + 0x8]
00003244  2054                     movea.l    A0, [A4]
00003246  317C FFFF 00AA           move.w     [A0 + 0xAA], 0xFFFF
0000324C  6030                     bra        +0x32 /* 0000327E */
label0000324E:
0000324E  486E FFFC                pea.l      [A6 - 0x4]
00003252  A972                     syscall    GetMouse
00003254  41EE FFFC                lea.l      A0, [A6 - 0x4]
00003258  43EE 0010                lea.l      A1, [A6 + 0x10]
0000325C  7000                     moveq.l    D0, 0x00
label0000325E:
0000325E  B189                     cmpm.l     [A0]+, [A1]+
00003260  56C8 FFFC                dbne       D0, -0x6 /* 0000325E */
00003264  6718                     beq        +0x1A /* 0000327E */
00003266  48C7                     ext.l      D7
00003268  2F07                     move.l     -[A7], D7
0000326A  2F2E FFFC                move.l     -[A7], [A6 - 0x4]
0000326E  2F2E 0010                move.l     -[A7], [A6 + 0x10]
00003272  2F0C                     move.l     -[A7], A4
00003274  4EBA FDB6                jsr        [PC - 0x24A /* 0000302C */]
00003278  4FEF 0010                lea.l      A7, [A7 + 0x10]
0000327C  6008                     bra        +0xA /* 00003286 */
label0000327E:
0000327E  558F                     subq.l     A7, 2
00003280  A977                     syscall    WaitMouseUp
00003282  4A1F                     tst.b      [A7]+
00003284  66C8                     bne        -0x36 /* 0000324E */
label00003286:
00003286  2054                     movea.l    A0, [A4]
00003288  70FF                     moveq.l    D0, 0xFFFFFFFF
0000328A  B068 00AA                cmp.w      D0, [A0 + 0xAA]
0000328E  6700 0130                beq        +0x132 /* 000033C0 */
00003292  2D68 0004 FFF4           move.l     [A6 - 0xC], [A0 + 0x4]
00003298  2054                     movea.l    A0, [A4]
0000329A  3028 00AA                move.w     D0, [A0 + 0xAA]
0000329E  48C0                     ext.l      D0
000032A0  206E FFF4                movea.l    A0, [A6 - 0xC]
000032A4  2050                     movea.l    A0, [A0]
000032A6  E580                     asl        D0, 2
000032A8  2670 0802                movea.l    A3, [A0 + D0 + 0x2]
000032AC  2054                     movea.l    A0, [A4]
000032AE  3028 00A8                move.w     D0, [A0 + 0xA8]
000032B2  48C0                     ext.l      D0
000032B4  206E FFF4                movea.l    A0, [A6 - 0xC]
000032B8  2050                     movea.l    A0, [A0]
000032BA  E580                     asl        D0, 2
000032BC  2D70 0802 FFF8           move.l     [A6 - 0x8], [A0 + D0 + 0x2]
000032C2  2F0C                     move.l     -[A7], A4
000032C4  4878 0162                push.l     0x162
000032C8  4EBA EF5A                jsr        [PC - 0x10A6 /* 00002224 */]
000032CC  204B                     movea.l    A0, A3
000032CE  A029                     syscall    HLock
000032D0  2053                     movea.l    A0, [A3]
000032D2  4868 0044                pea.l      [A0 + 0x44]
000032D6  A8A4                     syscall    InvertRect
000032D8  2053                     movea.l    A0, [A3]
000032DA  4868 004C                pea.l      [A0 + 0x4C]
000032DE  A8A4                     syscall    InvertRect
000032E0  206E FFF8                movea.l    A0, [A6 - 0x8]
000032E4  2050                     movea.l    A0, [A0]
000032E6  2F28 003E                move.l     -[A7], [A0 + 0x3E]
000032EA  4EAD 07CA                jsr        [A5 + 0x7CA /* export_245, CODE:3 @ 00003CA8 */]
000032EE  2054                     movea.l    A0, [A4]
000032F0  3028 00AA                move.w     D0, [A0 + 0xAA]
000032F4  48C0                     ext.l      D0
000032F6  2F00                     move.l     -[A7], D0
000032F8  2F0C                     move.l     -[A7], A4
000032FA  4EBA FA14                jsr        [PC - 0x5EC /* 00002D10 */]
000032FE  206E FFF8                movea.l    A0, [A6 - 0x8]
00003302  A029                     syscall    HLock
00003304  206E FFF8                movea.l    A0, [A6 - 0x8]
00003308  2050                     movea.l    A0, [A0]
0000330A  2068 0034                movea.l    A0, [A0 + 0x34]
0000330E  A029                     syscall    HLock
00003310  598F                     subq.l     A7, 4
00003312  206E FFF8                movea.l    A0, [A6 - 0x8]
00003316  2050                     movea.l    A0, [A0]
00003318  2068 0034                movea.l    A0, [A0 + 0x34]
0000331C  2F10                     move.l     -[A7], [A0]
0000331E  4EAD 0752                jsr        [A5 + 0x752 /* export_230, CODE:3 @ 00003690 */]
00003322  206E FFF8                movea.l    A0, [A6 - 0x8]
00003326  2050                     movea.l    A0, [A0]
00003328  215F 0002                move.l     [A0 + 0x2], [A7]+
0000332C  2053                     movea.l    A0, [A3]
0000332E  2068 0034                movea.l    A0, [A0 + 0x34]
00003332  A029                     syscall    HLock
00003334  598F                     subq.l     A7, 4
00003336  2053                     movea.l    A0, [A3]
00003338  2068 0034                movea.l    A0, [A0 + 0x34]
0000333C  2F10                     move.l     -[A7], [A0]
0000333E  4EAD 0752                jsr        [A5 + 0x752 /* export_230, CODE:3 @ 00003690 */]
00003342  2053                     movea.l    A0, [A3]
00003344  215F 0002                move.l     [A0 + 0x2], [A7]+
00003348  2053                     movea.l    A0, [A3]
0000334A  2F28 003E                move.l     -[A7], [A0 + 0x3E]
0000334E  4EAD 07F2                jsr        [A5 + 0x7F2 /* export_250, CODE:3 @ 00003CA2 */]
00003352  2053                     movea.l    A0, [A3]
00003354  2068 003E                movea.l    A0, [A0 + 0x3E]
00003358  A029                     syscall    HLock
0000335A  2053                     movea.l    A0, [A3]
0000335C  2F28 003E                move.l     -[A7], [A0 + 0x3E]
00003360  4EAD 084A                jsr        [A5 + 0x84A /* export_261, CODE:3 @ 00003C7C */]
00003364  206E FFF8                movea.l    A0, [A6 - 0x8]
00003368  2F10                     move.l     -[A7], [A0]
0000336A  2F13                     move.l     -[A7], [A3]
0000336C  2054                     movea.l    A0, [A4]
0000336E  2268 0014                movea.l    A1, [A0 + 0x14]
00003372  4E91                     jsr        [A1]
00003374  2053                     movea.l    A0, [A3]
00003376  2F28 003E                move.l     -[A7], [A0 + 0x3E]
0000337A  4EAD 0842                jsr        [A5 + 0x842 /* export_260, CODE:3 @ 00003C7E */]
0000337E  2053                     movea.l    A0, [A3]
00003380  2068 003E                movea.l    A0, [A0 + 0x3E]
00003384  A02A                     syscall    HUnlock
00003386  2053                     movea.l    A0, [A3]
00003388  2F28 003E                move.l     -[A7], [A0 + 0x3E]
0000338C  4EAD 07EA                jsr        [A5 + 0x7EA /* export_249, CODE:3 @ 00003CA4 */]
00003390  2053                     movea.l    A0, [A3]
00003392  2068 0034                movea.l    A0, [A0 + 0x34]
00003396  A02A                     syscall    HUnlock
00003398  206E FFF8                movea.l    A0, [A6 - 0x8]
0000339C  2050                     movea.l    A0, [A0]
0000339E  2068 0034                movea.l    A0, [A0 + 0x34]
000033A2  A02A                     syscall    HUnlock
000033A4  206E FFF8                movea.l    A0, [A6 - 0x8]
000033A8  A02A                     syscall    HUnlock
000033AA  204B                     movea.l    A0, A3
000033AC  A02A                     syscall    HUnlock
000033AE  2F0B                     move.l     -[A7], A3
000033B0  4EBA EE4A                jsr        [PC - 0x11B6 /* 000021FC */]
000033B4  2054                     movea.l    A0, [A4]
000033B6  317C 0016 0072           move.w     [A0 + 0x72], 0x16
000033BC  4FEF 0014                lea.l      A7, [A7 + 0x14]
label000033C0:
000033C0  4CEE 1880 FFE8           movem.l    D7,A3,A4, [A6 - 0x18]
000033C6  4E5E                     unlink     A6
000033C8  4E75                     rts
fn000033CA:
000033CA  4E56 FFEE                link       A6, -0x0012
000033CE  48E7 1718                movem.l    -[A7], D3,D5,D6,D7,A3,A4
000033D2  266E 0008                movea.l    A3, [A6 + 0x8]
000033D6  286E 000C                movea.l    A4, [A6 + 0xC]
000033DA  2054                     movea.l    A0, [A4]
000033DC  2068 0044                movea.l    A0, [A0 + 0x44]
000033E0  2D48 FFFC                move.l     [A6 - 0x4], A0
000033E4  2050                     movea.l    A0, [A0]
000033E6  4A68 003C                tst.w      [A0 + 0x3C]
000033EA  56C3                     sne        D3
000033EC  4403                     neg.b      D3
000033EE  1E03                     move.b     D7, D3
000033F0  2D6B 000A FFF8           move.l     [A6 - 0x8], [A3 + 0xA]
000033F6  486E FFF8                pea.l      [A6 - 0x8]
000033FA  A871                     syscall    GlobalToLocal
000033FC  558F                     subq.l     A7, 2
000033FE  2F2E FFF8                move.l     -[A7], [A6 - 0x8]
00003402  2054                     movea.l    A0, [A4]
00003404  4868 001C                pea.l      [A0 + 0x1C]
00003408  A8AD                     syscall    PtInRect
0000340A  4A1F                     tst.b      [A7]+
0000340C  670E                     beq        +0x10 /* 0000341C */
0000340E  2F0C                     move.l     -[A7], A4
00003410  2F0B                     move.l     -[A7], A3
00003412  4EBA F09A                jsr        [PC - 0xF66 /* 000024AE */]
00003416  504F                     addq.w     A7, 8
00003418  6000 02F6                bra        +0x2F8 /* 00003710 */
label0000341C:
0000341C  4A07                     tst.b      D7
0000341E  6700 00C0                beq        +0xC2 /* 000034E0 */
00003422  558F                     subq.l     A7, 2
00003424  2F2E FFF8                move.l     -[A7], [A6 - 0x8]
00003428  2054                     movea.l    A0, [A4]
0000342A  4868 0024                pea.l      [A0 + 0x24]
0000342E  A8AD                     syscall    PtInRect
00003430  4A1F                     tst.b      [A7]+
00003432  6700 00AC                beq        +0xAE /* 000034E0 */
00003436  2054                     movea.l    A0, [A4]
00003438  43EE FFF2                lea.l      A1, [A6 - 0xE]
0000343C  41E8 0050                lea.l      A0, [A0 + 0x50]
00003440  22D8                     move.l     [A1]+, [A0]+
00003442  32D8                     move.w     [A1]+, [A0]+
00003444  303C 0100                move.w     D0, 0x100
00003448  C06B 000E                and.w      D0, [A3 + 0xE]
0000344C  7200                     moveq.l    D1, 0x00
0000344E  3200                     move.w     D1, D0
00003450  4A81                     tst.l      D1
00003452  56C3                     sne        D3
00003454  4403                     neg.b      D3
00003456  1A03                     move.b     D5, D3
00003458  2F0C                     move.l     -[A7], A4
0000345A  486E FFF2                pea.l      [A6 - 0xE]
0000345E  7000                     moveq.l    D0, 0x00
00003460  1005                     move.b     D0, D5
00003462  2F00                     move.l     -[A7], D0
00003464  7001                     moveq.l    D0, 0x01
00003466  2F00                     move.l     -[A7], D0
00003468  4EAD 0C0A                jsr        [A5 + 0xC0A /* export_381, CODE:10 @ 000020C4 */]
0000346C  4A00                     tst.b      D0
0000346E  4FEF 0010                lea.l      A7, [A7 + 0x10]
00003472  6700 029C                beq        +0x29E /* 00003710 */
00003476  7C01                     moveq.l    D6, 0x01
00003478  4A05                     tst.b      D5
0000347A  6748                     beq        +0x4A /* 000034C4 */
0000347C  2F0C                     move.l     -[A7], A4
0000347E  41EE FFF8                lea.l      A0, [A6 - 0x8]
00003482  2F20                     move.l     -[A7], -[A0]
00003484  3F20                     move.w     -[A7], -[A0]
00003486  2054                     movea.l    A0, [A4]
00003488  41E8 0056                lea.l      A0, [A0 + 0x56]
0000348C  2F20                     move.l     -[A7], -[A0]
0000348E  3F20                     move.w     -[A7], -[A0]
00003490  4EAD 0BE2                jsr        [A5 + 0xBE2 /* export_376, CODE:10 @ 00001618 */]
00003494  1C00                     move.b     D6, D0
00003496  4FEF 0010                lea.l      A7, [A7 + 0x10]
0000349A  6728                     beq        +0x2A /* 000034C4 */
0000349C  2054                     movea.l    A0, [A4]
0000349E  41E8 0050                lea.l      A0, [A0 + 0x50]
000034A2  2254                     movea.l    A1, [A4]
000034A4  43E9 0056                lea.l      A1, [A1 + 0x56]
000034A8  7002                     moveq.l    D0, 0x02
label000034AA:
000034AA  B149                     cmpm.w     [A0]+, [A1]+
000034AC  56C8 FFFC                dbne       D0, -0x6 /* 000034AA */
000034B0  6612                     bne        +0x14 /* 000034C4 */
000034B2  2F0C                     move.l     -[A7], A4
000034B4  41EE FFF8                lea.l      A0, [A6 - 0x8]
000034B8  2F20                     move.l     -[A7], -[A0]
000034BA  3F20                     move.w     -[A7], -[A0]
000034BC  4EAD 0BF2                jsr        [A5 + 0xBF2 /* export_378, CODE:10 @ 00001DD4 */]
000034C0  4FEF 000A                lea.l      A7, [A7 + 0xA]
label000034C4:
000034C4  4A06                     tst.b      D6
000034C6  6700 0248                beq        +0x24A /* 00003710 */
000034CA  2F0C                     move.l     -[A7], A4
000034CC  41EE FFF8                lea.l      A0, [A6 - 0x8]
000034D0  2F20                     move.l     -[A7], -[A0]
000034D2  3F20                     move.w     -[A7], -[A0]
000034D4  4EAD 0BEA                jsr        [A5 + 0xBEA /* export_377, CODE:10 @ 00001D0E */]
000034D8  4FEF 000A                lea.l      A7, [A7 + 0xA]
000034DC  6000 0232                bra        +0x234 /* 00003710 */
label000034E0:
000034E0  4A07                     tst.b      D7
000034E2  6700 00C0                beq        +0xC2 /* 000035A4 */
000034E6  558F                     subq.l     A7, 2
000034E8  2F2E FFF8                move.l     -[A7], [A6 - 0x8]
000034EC  2054                     movea.l    A0, [A4]
000034EE  4868 002C                pea.l      [A0 + 0x2C]
000034F2  A8AD                     syscall    PtInRect
000034F4  4A1F                     tst.b      [A7]+
000034F6  6700 00AC                beq        +0xAE /* 000035A4 */
000034FA  2054                     movea.l    A0, [A4]
000034FC  43EE FFF2                lea.l      A1, [A6 - 0xE]
00003500  41E8 0056                lea.l      A0, [A0 + 0x56]
00003504  22D8                     move.l     [A1]+, [A0]+
00003506  32D8                     move.w     [A1]+, [A0]+
00003508  303C 0100                move.w     D0, 0x100
0000350C  C06B 000E                and.w      D0, [A3 + 0xE]
00003510  7200                     moveq.l    D1, 0x00
00003512  3200                     move.w     D1, D0
00003514  4A81                     tst.l      D1
00003516  56C3                     sne        D3
00003518  4403                     neg.b      D3
0000351A  1E03                     move.b     D7, D3
0000351C  2F0C                     move.l     -[A7], A4
0000351E  486E FFF2                pea.l      [A6 - 0xE]
00003522  7000                     moveq.l    D0, 0x00
00003524  1007                     move.b     D0, D7
00003526  2F00                     move.l     -[A7], D0
00003528  7000                     moveq.l    D0, 0x00
0000352A  2F00                     move.l     -[A7], D0
0000352C  4EAD 0C0A                jsr        [A5 + 0xC0A /* export_381, CODE:10 @ 000020C4 */]
00003530  4A00                     tst.b      D0
00003532  4FEF 0010                lea.l      A7, [A7 + 0x10]
00003536  6700 01D8                beq        +0x1DA /* 00003710 */
0000353A  7C01                     moveq.l    D6, 0x01
0000353C  4A07                     tst.b      D7
0000353E  6748                     beq        +0x4A /* 00003588 */
00003540  2F0C                     move.l     -[A7], A4
00003542  41EE FFF8                lea.l      A0, [A6 - 0x8]
00003546  2F20                     move.l     -[A7], -[A0]
00003548  3F20                     move.w     -[A7], -[A0]
0000354A  2054                     movea.l    A0, [A4]
0000354C  41E8 005C                lea.l      A0, [A0 + 0x5C]
00003550  2F20                     move.l     -[A7], -[A0]
00003552  3F20                     move.w     -[A7], -[A0]
00003554  4EAD 0BE2                jsr        [A5 + 0xBE2 /* export_376, CODE:10 @ 00001618 */]
00003558  1C00                     move.b     D6, D0
0000355A  4FEF 0010                lea.l      A7, [A7 + 0x10]
0000355E  6728                     beq        +0x2A /* 00003588 */
00003560  2054                     movea.l    A0, [A4]
00003562  41E8 0050                lea.l      A0, [A0 + 0x50]
00003566  2254                     movea.l    A1, [A4]
00003568  43E9 0056                lea.l      A1, [A1 + 0x56]
0000356C  7002                     moveq.l    D0, 0x02
label0000356E:
0000356E  B149                     cmpm.w     [A0]+, [A1]+
00003570  56C8 FFFC                dbne       D0, -0x6 /* 0000356E */
00003574  6612                     bne        +0x14 /* 00003588 */
00003576  2F0C                     move.l     -[A7], A4
00003578  41EE FFF8                lea.l      A0, [A6 - 0x8]
0000357C  2F20                     move.l     -[A7], -[A0]
0000357E  3F20                     move.w     -[A7], -[A0]
00003580  4EAD 0BEA                jsr        [A5 + 0xBEA /* export_377, CODE:10 @ 00001D0E */]
00003584  4FEF 000A                lea.l      A7, [A7 + 0xA]
label00003588:
00003588  4A06                     tst.b      D6
0000358A  6700 0184                beq        +0x186 /* 00003710 */
0000358E  2F0C                     move.l     -[A7], A4
00003590  41EE FFF8                lea.l      A0, [A6 - 0x8]
00003594  2F20                     move.l     -[A7], -[A0]
00003596  3F20                     move.w     -[A7], -[A0]
00003598  4EAD 0BF2                jsr        [A5 + 0xBF2 /* export_378, CODE:10 @ 00001DD4 */]
0000359C  4FEF 000A                lea.l      A7, [A7 + 0xA]
000035A0  6000 016E                bra        +0x170 /* 00003710 */
label000035A4:
000035A4  558F                     subq.l     A7, 2
000035A6  2F2E FFF8                move.l     -[A7], [A6 - 0x8]
000035AA  2054                     movea.l    A0, [A4]
000035AC  4868 0034                pea.l      [A0 + 0x34]
000035B0  A8AD                     syscall    PtInRect
000035B2  4A1F                     tst.b      [A7]+
000035B4  6700 0090                beq        +0x92 /* 00003646 */
000035B8  2F0C                     move.l     -[A7], A4
000035BA  4EBA D534                jsr        [PC - 0x2ACC /* 00000AF0 */]
000035BE  4A00                     tst.b      D0
000035C0  584F                     addq.w     A7, 4
000035C2  673E                     beq        +0x40 /* 00003602 */
000035C4  2054                     movea.l    A0, [A4]
000035C6  3D68 0088 FFF6           move.w     [A6 - 0xA], [A0 + 0x88]
000035CC  558F                     subq.l     A7, 2
000035CE  2054                     movea.l    A0, [A4]
000035D0  2F28 00C2                move.l     -[A7], [A0 + 0xC2]
000035D4  4868 0034                pea.l      [A0 + 0x34]
000035D8  4868 0050                pea.l      [A0 + 0x50]
000035DC  4868 0056                pea.l      [A0 + 0x56]
000035E0  4A68 0068                tst.w      [A0 + 0x68]
000035E4  57C3                     seq        D3
000035E6  4403                     neg.b      D3
000035E8  1F03                     move.b     -[A7], D3
000035EA  2F28 0084                move.l     -[A7], [A0 + 0x84]
000035EE  486E FFF6                pea.l      [A6 - 0xA]
000035F2  4868 00CA                pea.l      [A0 + 0xCA]
000035F6  7001                     moveq.l    D0, 0x01
000035F8  1F00                     move.b     -[A7], D0
000035FA  4EBA 268C                jsr        [PC + 0x268C /* 00005C88 */]
000035FE  1C1F                     move.b     D6, [A7]+
00003600  602A                     bra        +0x2C /* 0000362C */
label00003602:
00003602  2054                     movea.l    A0, [A4]
00003604  3D68 008E FFF6           move.w     [A6 - 0xA], [A0 + 0x8E]
0000360A  558F                     subq.l     A7, 2
0000360C  2054                     movea.l    A0, [A4]
0000360E  2F28 00C2                move.l     -[A7], [A0 + 0xC2]
00003612  4868 0034                pea.l      [A0 + 0x34]
00003616  2F28 008A                move.l     -[A7], [A0 + 0x8A]
0000361A  486E FFF6                pea.l      [A6 - 0xA]
0000361E  4868 00CA                pea.l      [A0 + 0xCA]
00003622  7001                     moveq.l    D0, 0x01
00003624  1F00                     move.b     -[A7], D0
00003626  4EBA 2772                jsr        [PC + 0x2772 /* 00005D9A */]
0000362A  1C1F                     move.b     D6, [A7]+
label0000362C:
0000362C  4A06                     tst.b      D6
0000362E  6700 00E0                beq        +0xE2 /* 00003710 */
00003632  2F0C                     move.l     -[A7], A4
00003634  302E FFF6                move.w     D0, [A6 - 0xA]
00003638  48C0                     ext.l      D0
0000363A  2F00                     move.l     -[A7], D0
0000363C  4EBA F0A6                jsr        [PC - 0xF5A /* 000026E4 */]
00003640  504F                     addq.w     A7, 8
00003642  6000 00CC                bra        +0xCE /* 00003710 */
label00003646:
00003646  558F                     subq.l     A7, 2
00003648  2F2E FFF8                move.l     -[A7], [A6 - 0x8]
0000364C  2054                     movea.l    A0, [A4]
0000364E  2068 0048                movea.l    A0, [A0 + 0x48]
00003652  2050                     movea.l    A0, [A0]
00003654  4868 004C                pea.l      [A0 + 0x4C]
00003658  A8AD                     syscall    PtInRect
0000365A  4A1F                     tst.b      [A7]+
0000365C  670E                     beq        +0x10 /* 0000366C */
0000365E  2F0C                     move.l     -[A7], A4
00003660  2F0B                     move.l     -[A7], A3
00003662  4EBA F2A6                jsr        [PC - 0xD5A /* 0000290A */]
00003666  504F                     addq.w     A7, 8
00003668  6000 00A6                bra        +0xA8 /* 00003710 */
label0000366C:
0000366C  4247                     clr.w      D7
0000366E  6000 0092                bra        +0x94 /* 00003702 */
label00003672:
00003672  48C7                     ext.l      D7
00003674  2054                     movea.l    A0, [A4]
00003676  2068 0004                movea.l    A0, [A0 + 0x4]
0000367A  2050                     movea.l    A0, [A0]
0000367C  2007                     move.l     D0, D7
0000367E  E580                     asl        D0, 2
00003680  2670 0802                movea.l    A3, [A0 + D0 + 0x2]
00003684  558F                     subq.l     A7, 2
00003686  2F2E FFF8                move.l     -[A7], [A6 - 0x8]
0000368A  2053                     movea.l    A0, [A3]
0000368C  4868 0044                pea.l      [A0 + 0x44]
00003690  A8AD                     syscall    PtInRect
00003692  4A1F                     tst.b      [A7]+
00003694  676A                     beq        +0x6C /* 00003700 */
00003696  2054                     movea.l    A0, [A4]
00003698  BE68 0002                cmp.w      D7, [A0 + 0x2]
0000369C  670C                     beq        +0xE /* 000036AA */
0000369E  48C7                     ext.l      D7
000036A0  2F07                     move.l     -[A7], D7
000036A2  2F0C                     move.l     -[A7], A4
000036A4  4EBA F66A                jsr        [PC - 0x996 /* 00002D10 */]
000036A8  504F                     addq.w     A7, 8
label000036AA:
000036AA  2053                     movea.l    A0, [A3]
000036AC  4A28 0060                tst.b      [A0 + 0x60]
000036B0  675E                     beq        +0x60 /* 00003710 */
000036B2  7C01                     moveq.l    D6, 0x01
000036B4  2054                     movea.l    A0, [A4]
000036B6  0C68 0162 00C0           cmpi.w     [A0 + 0xC0], 0x162
000036BC  671E                     beq        +0x20 /* 000036DC */
000036BE  2F0C                     move.l     -[A7], A4
000036C0  4878 0162                push.l     0x162
000036C4  4EBA EB5E                jsr        [PC - 0x14A2 /* 00002224 */]
000036C8  307C 0004                movea.w    A0, 0x4
000036CC  43EE FFEE                lea.l      A1, [A6 - 0x12]
000036D0  A03B                     syscall    Delay
000036D2  2280                     move.l     [A1], D0
000036D4  558F                     subq.l     A7, 2
000036D6  A973                     syscall    StillDown
000036D8  1C1F                     move.b     D6, [A7]+
000036DA  504F                     addq.w     A7, 8
label000036DC:
000036DC  4A06                     tst.b      D6
000036DE  670C                     beq        +0xE /* 000036EC */
000036E0  2F0C                     move.l     -[A7], A4
000036E2  4878 0163                push.l     0x163
000036E6  4EBA EB3C                jsr        [PC - 0x14C4 /* 00002224 */]
000036EA  504F                     addq.w     A7, 8
label000036EC:
000036EC  2F2E FFF8                move.l     -[A7], [A6 - 0x8]
000036F0  48C7                     ext.l      D7
000036F2  2F07                     move.l     -[A7], D7
000036F4  2F0C                     move.l     -[A7], A4
000036F6  4EBA FB3C                jsr        [PC - 0x4C4 /* 00003234 */]
000036FA  4FEF 000C                lea.l      A7, [A7 + 0xC]
000036FE  6010                     bra        +0x12 /* 00003710 */
label00003700:
00003700  5247                     addq.w     D7, 1
label00003702:
00003702  2054                     movea.l    A0, [A4]
00003704  2068 0004                movea.l    A0, [A0 + 0x4]
00003708  2050                     movea.l    A0, [A0]
0000370A  BE50                     cmp.w      D7, [A0]
0000370C  6F00 FF64                ble        -0x9A /* 00003672 */
label00003710:
00003710  4CEE 18E8 FFD6           movem.l    D3,D5,D6,D7,A3,A4, [A6 - 0x2A]
00003716  4E5E                     unlink     A6
00003718  4E75                     rts
fn0000371A:
0000371A  4E56 FFEE                link       A6, -0x0012
0000371E  48E7 1718                movem.l    -[A7], D3,D5,D6,D7,A3,A4
00003722  266E 0008                movea.l    A3, [A6 + 0x8]
00003726  286E 000C                movea.l    A4, [A6 + 0xC]
0000372A  4207                     clr.b      D7
0000372C  4206                     clr.b      D6
0000372E  2054                     movea.l    A0, [A4]
00003730  4AA8 00CA                tst.l      [A0 + 0xCA]
00003734  6712                     beq        +0x14 /* 00003748 */
00003736  2068 00CA                movea.l    A0, [A0 + 0xCA]
0000373A  2050                     movea.l    A0, [A0]
0000373C  202E 0010                move.l     D0, [A6 + 0x10]
00003740  B0A8 0104                cmp.l      D0, [A0 + 0x104]
00003744  6602                     bne        +0x4 /* 00003748 */
00003746  7E01                     moveq.l    D7, 0x01
label00003748:
00003748  2054                     movea.l    A0, [A4]
0000374A  4AA8 00C6                tst.l      [A0 + 0xC6]
0000374E  6712                     beq        +0x14 /* 00003762 */
00003750  2068 00C6                movea.l    A0, [A0 + 0xC6]
00003754  2050                     movea.l    A0, [A0]
00003756  202E 0010                move.l     D0, [A6 + 0x10]
0000375A  B0A8 0104                cmp.l      D0, [A0 + 0x104]
0000375E  6602                     bne        +0x4 /* 00003762 */
00003760  7C01                     moveq.l    D6, 0x01
label00003762:
00003762  4A06                     tst.b      D6
00003764  6606                     bne        +0x8 /* 0000376C */
00003766  4A07                     tst.b      D7
00003768  6700 027C                beq        +0x27E /* 000039E6 */
label0000376C:
0000376C  3013                     move.w     D0, [A3]
0000376E  5340                     subq.w     D0, 1
00003770  670A                     beq        +0xC /* 0000377C */
00003772  5B40                     subq.w     D0, 5
00003774  6700 019E                beq        +0x1A0 /* 00003914 */
00003778  6000 026C                bra        +0x26E /* 000039E6 */
label0000377C:
0000377C  4A07                     tst.b      D7
0000377E  6700 0088                beq        +0x8A /* 00003808 */
00003782  2F0C                     move.l     -[A7], A4
00003784  4EBA D36A                jsr        [PC - 0x2C96 /* 00000AF0 */]
00003788  4A00                     tst.b      D0
0000378A  584F                     addq.w     A7, 4
0000378C  673A                     beq        +0x3C /* 000037C8 */
0000378E  2054                     movea.l    A0, [A4]
00003790  3D68 0088 FFFE           move.w     [A6 - 0x2], [A0 + 0x88]
00003796  558F                     subq.l     A7, 2
00003798  2054                     movea.l    A0, [A4]
0000379A  2F28 00C2                move.l     -[A7], [A0 + 0xC2]
0000379E  4868 0034                pea.l      [A0 + 0x34]
000037A2  4868 0050                pea.l      [A0 + 0x50]
000037A6  4868 0056                pea.l      [A0 + 0x56]
000037AA  4A68 0068                tst.w      [A0 + 0x68]
000037AE  57C3                     seq        D3
000037B0  4403                     neg.b      D3
000037B2  1F03                     move.b     -[A7], D3
000037B4  2F28 0084                move.l     -[A7], [A0 + 0x84]
000037B8  486E FFFE                pea.l      [A6 - 0x2]
000037BC  2F28 00CA                move.l     -[A7], [A0 + 0xCA]
000037C0  4EBA 1FB4                jsr        [PC + 0x1FB4 /* 00005776 */]
000037C4  1C1F                     move.b     D6, [A7]+
000037C6  6026                     bra        +0x28 /* 000037EE */
label000037C8:
000037C8  2054                     movea.l    A0, [A4]
000037CA  3D68 008E FFFE           move.w     [A6 - 0x2], [A0 + 0x8E]
000037D0  558F                     subq.l     A7, 2
000037D2  2054                     movea.l    A0, [A4]
000037D4  2F28 00C2                move.l     -[A7], [A0 + 0xC2]
000037D8  4868 0034                pea.l      [A0 + 0x34]
000037DC  2F28 008A                move.l     -[A7], [A0 + 0x8A]
000037E0  486E FFFE                pea.l      [A6 - 0x2]
000037E4  2F28 00CA                move.l     -[A7], [A0 + 0xCA]
000037E8  4EBA 1EB8                jsr        [PC + 0x1EB8 /* 000056A2 */]
000037EC  1C1F                     move.b     D6, [A7]+
label000037EE:
000037EE  4A06                     tst.b      D6
000037F0  6700 01F4                beq        +0x1F6 /* 000039E6 */
000037F4  2F0C                     move.l     -[A7], A4
000037F6  302E FFFE                move.w     D0, [A6 - 0x2]
000037FA  48C0                     ext.l      D0
000037FC  2F00                     move.l     -[A7], D0
000037FE  4EBA EEE4                jsr        [PC - 0x111C /* 000026E4 */]
00003802  504F                     addq.w     A7, 8
00003804  6000 01E0                bra        +0x1E2 /* 000039E6 */
label00003808:
00003808  2054                     movea.l    A0, [A4]
0000380A  43EE FFEE                lea.l      A1, [A6 - 0x12]
0000380E  41E8 0050                lea.l      A0, [A0 + 0x50]
00003812  22D8                     move.l     [A1]+, [A0]+
00003814  32D8                     move.w     [A1]+, [A0]+
00003816  2054                     movea.l    A0, [A4]
00003818  2D68 004C FFF4           move.l     [A6 - 0xC], [A0 + 0x4C]
0000381E  303C 0100                move.w     D0, 0x100
00003822  C06B 000E                and.w      D0, [A3 + 0xE]
00003826  7200                     moveq.l    D1, 0x00
00003828  3200                     move.w     D1, D0
0000382A  4A81                     tst.l      D1
0000382C  56C3                     sne        D3
0000382E  4403                     neg.b      D3
00003830  1A03                     move.b     D5, D3
00003832  4206                     clr.b      D6
00003834  598F                     subq.l     A7, 4
00003836  A8D8                     syscall    NewRgn
00003838  265F                     movea.l    A3, [A7]+
0000383A  2054                     movea.l    A0, [A4]
0000383C  43EE FFF8                lea.l      A1, [A6 - 0x8]
00003840  41E8 0024                lea.l      A0, [A0 + 0x24]
00003844  22D8                     move.l     [A1]+, [A0]+
00003846  22D8                     move.l     [A1]+, [A0]+
00003848  486E FFF8                pea.l      [A6 - 0x8]
0000384C  7002                     moveq.l    D0, 0x02
0000384E  3F00                     move.w     -[A7], D0
00003850  3F00                     move.w     -[A7], D0
00003852  A8A9                     syscall    InsetRect
00003854  4A05                     tst.b      D5
00003856  671C                     beq        +0x1E /* 00003874 */
00003858  302E FFFE                move.w     D0, [A6 - 0x2]
0000385C  48C0                     ext.l      D0
0000385E  322E FFFA                move.w     D1, [A6 - 0x6]
00003862  48C1                     ext.l      D1
00003864  9081                     sub.l      D0, D1
00003866  7202                     moveq.l    D1, 0x02
00003868  4EAD 076A                jsr        [A5 + 0x76A /* export_233, CODE:3 @ 0000372A */]
0000386C  D06E FFFA                add.w      D0, [A6 - 0x6]
00003870  3D40 FFFA                move.w     [A6 - 0x6], D0
label00003874:
00003874  2F0B                     move.l     -[A7], A3
00003876  486E FFF8                pea.l      [A6 - 0x8]
0000387A  A8DF                     syscall    RectRgn
0000387C  558F                     subq.l     A7, 2
0000387E  2054                     movea.l    A0, [A4]
00003880  2F28 00C2                move.l     -[A7], [A0 + 0xC2]
00003884  2F0B                     move.l     -[A7], A3
00003886  206E FFF4                movea.l    A0, [A6 - 0xC]
0000388A  2050                     movea.l    A0, [A0]
0000388C  2F28 000C                move.l     -[A7], [A0 + 0xC]
00003890  486E FFEE                pea.l      [A6 - 0x12]
00003894  2054                     movea.l    A0, [A4]
00003896  2F28 00C6                move.l     -[A7], [A0 + 0xC6]
0000389A  4EBA 168E                jsr        [PC + 0x168E /* 00004F2A */]
0000389E  1C1F                     move.b     D6, [A7]+
000038A0  2F0B                     move.l     -[A7], A3
000038A2  A8D9                     syscall    DisposRgn/DisposeRgn
000038A4  4A06                     tst.b      D6
000038A6  6700 013E                beq        +0x140 /* 000039E6 */
000038AA  7C01                     moveq.l    D6, 0x01
000038AC  4A05                     tst.b      D5
000038AE  6748                     beq        +0x4A /* 000038F8 */
000038B0  2F0C                     move.l     -[A7], A4
000038B2  41EE FFF4                lea.l      A0, [A6 - 0xC]
000038B6  2F20                     move.l     -[A7], -[A0]
000038B8  3F20                     move.w     -[A7], -[A0]
000038BA  2054                     movea.l    A0, [A4]
000038BC  41E8 0056                lea.l      A0, [A0 + 0x56]
000038C0  2F20                     move.l     -[A7], -[A0]
000038C2  3F20                     move.w     -[A7], -[A0]
000038C4  4EAD 0BE2                jsr        [A5 + 0xBE2 /* export_376, CODE:10 @ 00001618 */]
000038C8  1C00                     move.b     D6, D0
000038CA  4FEF 0010                lea.l      A7, [A7 + 0x10]
000038CE  6728                     beq        +0x2A /* 000038F8 */
000038D0  2054                     movea.l    A0, [A4]
000038D2  41E8 0050                lea.l      A0, [A0 + 0x50]
000038D6  2254                     movea.l    A1, [A4]
000038D8  43E9 0056                lea.l      A1, [A1 + 0x56]
000038DC  7002                     moveq.l    D0, 0x02
label000038DE:
000038DE  B149                     cmpm.w     [A0]+, [A1]+
000038E0  56C8 FFFC                dbne       D0, -0x6 /* 000038DE */
000038E4  6612                     bne        +0x14 /* 000038F8 */
000038E6  2F0C                     move.l     -[A7], A4
000038E8  41EE FFF4                lea.l      A0, [A6 - 0xC]
000038EC  2F20                     move.l     -[A7], -[A0]
000038EE  3F20                     move.w     -[A7], -[A0]
000038F0  4EAD 0BF2                jsr        [A5 + 0xBF2 /* export_378, CODE:10 @ 00001DD4 */]
000038F4  4FEF 000A                lea.l      A7, [A7 + 0xA]
label000038F8:
000038F8  4A06                     tst.b      D6
000038FA  6700 00EA                beq        +0xEC /* 000039E6 */
000038FE  2F0C                     move.l     -[A7], A4
00003900  41EE FFF4                lea.l      A0, [A6 - 0xC]
00003904  2F20                     move.l     -[A7], -[A0]
00003906  3F20                     move.w     -[A7], -[A0]
00003908  4EAD 0BEA                jsr        [A5 + 0xBEA /* export_377, CODE:10 @ 00001D0E */]
0000390C  4FEF 000A                lea.l      A7, [A7 + 0xA]
00003910  6000 00D4                bra        +0xD6 /* 000039E6 */
label00003914:
00003914  4A07                     tst.b      D7
00003916  6768                     beq        +0x6A /* 00003980 */
00003918  2F0C                     move.l     -[A7], A4
0000391A  4EBA D1D4                jsr        [PC - 0x2E2C /* 00000AF0 */]
0000391E  4A00                     tst.b      D0
00003920  584F                     addq.w     A7, 4
00003922  6738                     beq        +0x3A /* 0000395C */
00003924  2054                     movea.l    A0, [A4]
00003926  3D68 0088 FFFE           move.w     [A6 - 0x2], [A0 + 0x88]
0000392C  2054                     movea.l    A0, [A4]
0000392E  2F28 00C2                move.l     -[A7], [A0 + 0xC2]
00003932  4868 0034                pea.l      [A0 + 0x34]
00003936  4868 0050                pea.l      [A0 + 0x50]
0000393A  4868 0056                pea.l      [A0 + 0x56]
0000393E  4A68 0068                tst.w      [A0 + 0x68]
00003942  57C3                     seq        D3
00003944  4403                     neg.b      D3
00003946  1F03                     move.b     -[A7], D3
00003948  2F28 0084                move.l     -[A7], [A0 + 0x84]
0000394C  486E FFFE                pea.l      [A6 - 0x2]
00003950  2F28 00CA                move.l     -[A7], [A0 + 0xCA]
00003954  4EBA 2036                jsr        [PC + 0x2036 /* 0000598C */]
00003958  6000 008C                bra        +0x8E /* 000039E6 */
label0000395C:
0000395C  2054                     movea.l    A0, [A4]
0000395E  3D68 008E FFFE           move.w     [A6 - 0x2], [A0 + 0x8E]
00003964  2054                     movea.l    A0, [A4]
00003966  2F28 00C2                move.l     -[A7], [A0 + 0xC2]
0000396A  4868 0034                pea.l      [A0 + 0x34]
0000396E  2F28 008A                move.l     -[A7], [A0 + 0x8A]
00003972  486E FFFE                pea.l      [A6 - 0x2]
00003976  2F28 00CA                move.l     -[A7], [A0 + 0xCA]
0000397A  4EBA 1F5A                jsr        [PC + 0x1F5A /* 000058D6 */]
0000397E  6066                     bra        +0x68 /* 000039E6 */
label00003980:
00003980  2054                     movea.l    A0, [A4]
00003982  43EE FFEE                lea.l      A1, [A6 - 0x12]
00003986  41E8 0050                lea.l      A0, [A0 + 0x50]
0000398A  22D8                     move.l     [A1]+, [A0]+
0000398C  32D8                     move.w     [A1]+, [A0]+
0000398E  2054                     movea.l    A0, [A4]
00003990  2D68 004C FFF4           move.l     [A6 - 0xC], [A0 + 0x4C]
00003996  598F                     subq.l     A7, 4
00003998  A8D8                     syscall    NewRgn
0000399A  265F                     movea.l    A3, [A7]+
0000399C  2054                     movea.l    A0, [A4]
0000399E  43EE FFF8                lea.l      A1, [A6 - 0x8]
000039A2  41E8 0024                lea.l      A0, [A0 + 0x24]
000039A6  22D8                     move.l     [A1]+, [A0]+
000039A8  22D8                     move.l     [A1]+, [A0]+
000039AA  486E FFF8                pea.l      [A6 - 0x8]
000039AE  7002                     moveq.l    D0, 0x02
000039B0  3F00                     move.w     -[A7], D0
000039B2  3F00                     move.w     -[A7], D0
000039B4  A8A9                     syscall    InsetRect
000039B6  2F0B                     move.l     -[A7], A3
000039B8  486E FFF8                pea.l      [A6 - 0x8]
000039BC  A8DF                     syscall    RectRgn
000039BE  558F                     subq.l     A7, 2
000039C0  2054                     movea.l    A0, [A4]
000039C2  2F28 00C2                move.l     -[A7], [A0 + 0xC2]
000039C6  2F0B                     move.l     -[A7], A3
000039C8  206E FFF4                movea.l    A0, [A6 - 0xC]
000039CC  2050                     movea.l    A0, [A0]
000039CE  2F28 000C                move.l     -[A7], [A0 + 0xC]
000039D2  486E FFEE                pea.l      [A6 - 0x12]
000039D6  2054                     movea.l    A0, [A4]
000039D8  2F28 00C6                move.l     -[A7], [A0 + 0xC6]
000039DC  4EBA 163E                jsr        [PC + 0x163E /* 0000501C */]
000039E0  2F0B                     move.l     -[A7], A3
000039E2  A8D9                     syscall    DisposRgn/DisposeRgn
000039E4  544F                     addq.w     A7, 2
label000039E6:
000039E6  4CEE 18E8 FFD6           movem.l    D3,D5,D6,D7,A3,A4, [A6 - 0x2A]
000039EC  4E5E                     unlink     A6
000039EE  4E75                     rts
export_356:
000039F0  4E56 FFCC                link       A6, -0x0034
000039F4  48E7 1318                movem.l    -[A7], D3,D6,D7,A3,A4
000039F8  266E 0014                movea.l    A3, [A6 + 0x14]
000039FC  286E 0008                movea.l    A4, [A6 + 0x8]
00003A00  2054                     movea.l    A0, [A4]
00003A02  2D68 0048 FFF4           move.l     [A6 - 0xC], [A0 + 0x48]
00003A08  2054                     movea.l    A0, [A4]
00003A0A  2D68 0044 FFF8           move.l     [A6 - 0x8], [A0 + 0x44]
00003A10  2054                     movea.l    A0, [A4]
00003A12  2D68 00C2 FFFC           move.l     [A6 - 0x4], [A0 + 0xC2]
00003A18  4207                     clr.b      D7
00003A1A  2054                     movea.l    A0, [A4]
00003A1C  1C28 0062                move.b     D6, [A0 + 0x62]
00003A20  4A28 0062                tst.b      [A0 + 0x62]
00003A24  57C3                     seq        D3
00003A26  4403                     neg.b      D3
00003A28  4883                     ext.w      D3
00003A2A  48C3                     ext.l      D3
00003A2C  2F03                     move.l     -[A7], D3
00003A2E  7000                     moveq.l    D0, 0x00
00003A30  1028 0060                move.b     D0, [A0 + 0x60]
00003A34  2F00                     move.l     -[A7], D0
00003A36  4EBA C72E                jsr        [PC - 0x38D2 /* 00000166 */]
00003A3A  2054                     movea.l    A0, [A4]
00003A3C  3080                     move.w     [A0], D0
00003A3E  2054                     movea.l    A0, [A4]
00003A40  4A50                     tst.w      [A0]
00003A42  504F                     addq.w     A7, 8
00003A44  6708                     beq        +0xA /* 00003A4E */
00003A46  3D50 0018                move.w     [A6 + 0x18], [A0]
00003A4A  6000 05EA                bra        +0x5EC /* 00004036 */
label00003A4E:
00003A4E  204C                     movea.l    A0, A4
00003A50  A029                     syscall    HLock
00003A52  2054                     movea.l    A0, [A4]
00003A54  216E 0010 0010           move.l     [A0 + 0x10], [A6 + 0x10]
00003A5A  2054                     movea.l    A0, [A4]
00003A5C  216E 000C 0014           move.l     [A0 + 0x14], [A6 + 0xC]
00003A62  2D6B 000A FFE0           move.l     [A6 - 0x20], [A3 + 0xA]
00003A68  2F2E FFFC                move.l     -[A7], [A6 - 0x4]
00003A6C  A873                     syscall    SetPort
00003A6E  486E FFE0                pea.l      [A6 - 0x20]
00003A72  A871                     syscall    GlobalToLocal
00003A74  206E FFF8                movea.l    A0, [A6 - 0x8]
00003A78  2050                     movea.l    A0, [A0]
00003A7A  4210                     clr.b      [A0]
00003A7C  3013                     move.w     D0, [A3]
00003A7E  6B00 059A                bmi        +0x59C /* 0000401A */
00003A82  0C40 000C                cmpi.w     D0, 0xC
00003A86  6E00 0592                bgt        +0x594 /* 0000401A */
00003A8A  D040                     add.w      D0, D0
00003A8C  303B 0006                move.w     D0, [PC + D0.w + 0x6]
00003A90  4EFB 0000                jmp        [PC + D0.w]
00003A94  053A 0320                btst       [PC + 0x320 /* 00003DB6, value 0x0, cstring "" */], D2
00003A98  0364                     bchg       -[A4], D1
00003A9A  0380                     bclr       D0, D1
00003A9C  0588                     bclr       A0, D2
00003A9E  0588                     bclr       A0, D2
00003AA0  019E                     bclr       [A6]+, D0
00003AA2  0588                     bclr       A0, D2
00003AA4  001C 0588                ori.b      [A4]+, 0x88
00003AA8  0588                     bclr       A0, D2
00003AAA  0588                     bclr       A0, D2
00003AAC  040A 2054                subi.b     A2, 0x54 /* 'T' */
00003AB0  4A28 0062                tst.b      [A0 + 0x62]
00003AB4  6718                     beq        +0x1A /* 00003ACE */
00003AB6  7001                     moveq.l    D0, 0x01
00003AB8  C06B 000E                and.w      D0, [A3 + 0xE]
00003ABC  7200                     moveq.l    D1, 0x00
00003ABE  3200                     move.w     D1, D0
00003AC0  4A81                     tst.l      D1
00003AC2  660A                     bne        +0xC /* 00003ACE */
00003AC4  2F28 0044                move.l     -[A7], [A0 + 0x44]
00003AC8  4EBA E5D8                jsr        [PC - 0x1A28 /* 000020A2 */]
00003ACC  584F                     addq.w     A7, 4
label00003ACE:
00003ACE  7001                     moveq.l    D0, 0x01
00003AD0  C06B 000E                and.w      D0, [A3 + 0xE]
00003AD4  7200                     moveq.l    D1, 0x00
00003AD6  3200                     move.w     D1, D0
00003AD8  4A81                     tst.l      D1
00003ADA  56C3                     sne        D3
00003ADC  4403                     neg.b      D3
00003ADE  2054                     movea.l    A0, [A4]
00003AE0  1143 0062                move.b     [A0 + 0x62], D3
00003AE4  2054                     movea.l    A0, [A4]
00003AE6  4A28 0063                tst.b      [A0 + 0x63]
00003AEA  6618                     bne        +0x1A /* 00003B04 */
00003AEC  1F28 0062                move.b     -[A7], [A0 + 0x62]
00003AF0  2F2E FFF4                move.l     -[A7], [A6 - 0xC]
00003AF4  4EAD 0882                jsr        [A5 + 0x882 /* export_268, CODE:3 @ 00003C64 */]
00003AF8  206E FFF4                movea.l    A0, [A6 - 0xC]
00003AFC  2050                     movea.l    A0, [A0]
00003AFE  2254                     movea.l    A1, [A4]
00003B00  32A8 00A8                move.w     [A1], [A0 + 0xA8]
label00003B04:
00003B04  2054                     movea.l    A0, [A4]
00003B06  4A28 0062                tst.b      [A0 + 0x62]
00003B0A  6764                     beq        +0x66 /* 00003B70 */
00003B0C  4A28 0060                tst.b      [A0 + 0x60]
00003B10  6726                     beq        +0x28 /* 00003B38 */
00003B12  42AE FFCE                clr.l      [A6 - 0x32]
00003B16  426E FFCC                clr.w      [A6 - 0x34]
00003B1A  3D7C FFFF FFD6           move.w     [A6 - 0x2A], 0xFFFF
00003B20  3D7C FFFF FFD4           move.w     [A6 - 0x2C], 0xFFFF
00003B26  3D7C FFFF FFD2           move.w     [A6 - 0x2E], 0xFFFF
00003B2C  486E FFCC                pea.l      [A6 - 0x34]
00003B30  AA14                     syscall    RGBForeColor
00003B32  486E FFD2                pea.l      [A6 - 0x2E]
00003B36  AA15                     syscall    RGBBackColor
label00003B38:
00003B38  2054                     movea.l    A0, [A4]
00003B3A  2F28 0090                move.l     -[A7], [A0 + 0x90]
00003B3E  7000                     moveq.l    D0, 0x00
00003B40  3F00                     move.w     -[A7], D0
00003B42  A935                     syscall    InsertMenu
00003B44  2054                     movea.l    A0, [A4]
00003B46  4AA8 0094                tst.l      [A0 + 0x94]
00003B4A  670A                     beq        +0xC /* 00003B56 */
00003B4C  2F28 0094                move.l     -[A7], [A0 + 0x94]
00003B50  7000                     moveq.l    D0, 0x00
00003B52  3F00                     move.w     -[A7], D0
00003B54  A935                     syscall    InsertMenu
label00003B56:
00003B56  2054                     movea.l    A0, [A4]
00003B58  4AA8 0098                tst.l      [A0 + 0x98]
00003B5C  670A                     beq        +0xC /* 00003B68 */
00003B5E  2F28 0098                move.l     -[A7], [A0 + 0x98]
00003B62  7000                     moveq.l    D0, 0x00
00003B64  3F00                     move.w     -[A7], D0
00003B66  A935                     syscall    InsertMenu
label00003B68:
00003B68  2054                     movea.l    A0, [A4]
00003B6A  4268 00C0                clr.w      [A0 + 0xC0]
00003B6E  6044                     bra        +0x46 /* 00003BB4 */
label00003B70:
00003B70  4A06                     tst.b      D6
00003B72  6722                     beq        +0x24 /* 00003B96 */
00003B74  3F3C 0C1C                move.w     -[A7], 0xC1C
00003B78  A936                     syscall    DeleteMenu
00003B7A  2054                     movea.l    A0, [A4]
00003B7C  4AA8 0094                tst.l      [A0 + 0x94]
00003B80  6706                     beq        +0x8 /* 00003B88 */
00003B82  3F3C 0C20                move.w     -[A7], 0xC20
00003B86  A936                     syscall    DeleteMenu
label00003B88:
00003B88  2054                     movea.l    A0, [A4]
00003B8A  4AA8 0098                tst.l      [A0 + 0x98]
00003B8E  6706                     beq        +0x8 /* 00003B96 */
00003B90  3F3C 0C21                move.w     -[A7], 0xC21
00003B94  A936                     syscall    DeleteMenu
label00003B96:
00003B96  70FF                     moveq.l    D0, 0xFFFFFFFF
00003B98  3F00                     move.w     -[A7], D0
00003B9A  4EAD 0182                jsr        [A5 + 0x182 /* export_44, CODE:1 @ 00003B34 */]
00003B9E  7001                     moveq.l    D0, 0x01
00003BA0  2F00                     move.l     -[A7], D0
00003BA2  2054                     movea.l    A0, [A4]
00003BA4  7200                     moveq.l    D1, 0x00
00003BA6  1228 0060                move.b     D1, [A0 + 0x60]
00003BAA  2F01                     move.l     -[A7], D1
00003BAC  4EBA C5B8                jsr        [PC - 0x3A48 /* 00000166 */]
00003BB0  7E01                     moveq.l    D7, 0x01
00003BB2  504F                     addq.w     A7, 8
label00003BB4:
00003BB4  2F0C                     move.l     -[A7], A4
00003BB6  4EBA D802                jsr        [PC - 0x27FE /* 000013BA */]
00003BBA  2054                     movea.l    A0, [A4]
00003BBC  7000                     moveq.l    D0, 0x00
00003BBE  1028 0062                move.b     D0, [A0 + 0x62]
00003BC2  4A80                     tst.l      D0
00003BC4  4A28 0063                tst.b      [A0 + 0x63]
00003BC8  57C3                     seq        D3
00003BCA  4403                     neg.b      D3
00003BCC  4883                     ext.w      D3
00003BCE  C600                     and.b      D3, D0
00003BD0  1F03                     move.b     -[A7], D3
00003BD2  2F0C                     move.l     -[A7], A4
00003BD4  4EBA D0EE                jsr        [PC - 0x2F12 /* 00000CC4 */]
00003BD8  588F                     addq.l     A7, 4
00003BDA  2F00                     move.l     -[A7], D0
00003BDC  2054                     movea.l    A0, [A4]
00003BDE  2F28 009C                move.l     -[A7], [A0 + 0x9C]
00003BE2  3F3C 005C                move.w     -[A7], 0x5C /* '\\' */
00003BE6  A9E7                     syscall    Pack0/ListManager
00003BE8  2054                     movea.l    A0, [A4]
00003BEA  41E8 003C                lea.l      A0, [A0 + 0x3C]
00003BEE  2F20                     move.l     -[A7], -[A0]
00003BF0  2F20                     move.l     -[A7], -[A0]
00003BF2  4EBA DDBE                jsr        [PC - 0x2242 /* 000019B2 */]
00003BF6  2F0C                     move.l     -[A7], A4
00003BF8  4EBA CF28                jsr        [PC - 0x30D8 /* 00000B22 */]
00003BFC  4A00                     tst.b      D0
00003BFE  4FEF 0010                lea.l      A7, [A7 + 0x10]
00003C02  6620                     bne        +0x22 /* 00003C24 */
00003C04  2054                     movea.l    A0, [A4]
00003C06  41E8 002C                lea.l      A0, [A0 + 0x2C]
00003C0A  2F20                     move.l     -[A7], -[A0]
00003C0C  2F20                     move.l     -[A7], -[A0]
00003C0E  4EBA DDA2                jsr        [PC - 0x225E /* 000019B2 */]
00003C12  2054                     movea.l    A0, [A4]
00003C14  41E8 0034                lea.l      A0, [A0 + 0x34]
00003C18  2F20                     move.l     -[A7], -[A0]
00003C1A  2F20                     move.l     -[A7], -[A0]
00003C1C  4EBA DD94                jsr        [PC - 0x226C /* 000019B2 */]
00003C20  4FEF 0010                lea.l      A7, [A7 + 0x10]
label00003C24:
00003C24  7000                     moveq.l    D0, 0x00
00003C26  1F00                     move.b     -[A7], D0
00003C28  4EAD 003A                jsr        [A5 + 0x3A /* export_3, CODE:1 @ 00000054 */]
00003C2C  6000 03EC                bra        +0x3EE /* 0000401A */
00003C30  202B 0002                move.l     D0, [A3 + 0x2]
00003C34  B0AE FFFC                cmp.l      D0, [A6 - 0x4]
00003C38  6600 0164                bne        +0x166 /* 00003D9E */
00003C3C  2F0C                     move.l     -[A7], A4
00003C3E  4EBA DCF6                jsr        [PC - 0x230A /* 00001936 */]
00003C42  A89E                     syscall    PenNormal
00003C44  558F                     subq.l     A7, 2
00003C46  2054                     movea.l    A0, [A4]
00003C48  4868 001C                pea.l      [A0 + 0x1C]
00003C4C  206E FFFC                movea.l    A0, [A6 - 0x4]
00003C50  2F28 0018                move.l     -[A7], [A0 + 0x18]
00003C54  A8E9                     syscall    RectInRgn
00003C56  4A1F                     tst.b      [A7]+
00003C58  584F                     addq.w     A7, 4
00003C5A  671C                     beq        +0x1E /* 00003C78 */
00003C5C  2F0C                     move.l     -[A7], A4
00003C5E  4EBA E192                jsr        [PC - 0x1E6E /* 00001DF2 */]
00003C62  206E FFFC                movea.l    A0, [A6 - 0x4]
00003C66  2F28 0018                move.l     -[A7], [A0 + 0x18]
00003C6A  2054                     movea.l    A0, [A4]
00003C6C  2F28 009C                move.l     -[A7], [A0 + 0x9C]
00003C70  3F3C 0064                move.w     -[A7], 0x64 /* 'd' */
00003C74  A9E7                     syscall    Pack0/ListManager
00003C76  584F                     addq.w     A7, 4
label00003C78:
00003C78  2054                     movea.l    A0, [A4]
00003C7A  41E8 0034                lea.l      A0, [A0 + 0x34]
00003C7E  2F20                     move.l     -[A7], -[A0]
00003C80  2F20                     move.l     -[A7], -[A0]
00003C82  486E FFE4                pea.l      [A6 - 0x1C]
00003C86  4EBA DD0E                jsr        [PC - 0x22F2 /* 00001996 */]
00003C8A  2054                     movea.l    A0, [A4]
00003C8C  41E8 002C                lea.l      A0, [A0 + 0x2C]
00003C90  2F20                     move.l     -[A7], -[A0]
00003C92  2F20                     move.l     -[A7], -[A0]
00003C94  486E FFEC                pea.l      [A6 - 0x14]
00003C98  4EBA DCFC                jsr        [PC - 0x2304 /* 00001996 */]
00003C9C  558F                     subq.l     A7, 2
00003C9E  486E FFE4                pea.l      [A6 - 0x1C]
00003CA2  206E FFFC                movea.l    A0, [A6 - 0x4]
00003CA6  2F28 0018                move.l     -[A7], [A0 + 0x18]
00003CAA  A8E9                     syscall    RectInRgn
00003CAC  4A1F                     tst.b      [A7]+
00003CAE  4FEF 0018                lea.l      A7, [A7 + 0x18]
00003CB2  6614                     bne        +0x16 /* 00003CC8 */
00003CB4  558F                     subq.l     A7, 2
00003CB6  486E FFEC                pea.l      [A6 - 0x14]
00003CBA  206E FFFC                movea.l    A0, [A6 - 0x4]
00003CBE  2F28 0018                move.l     -[A7], [A0 + 0x18]
00003CC2  A8E9                     syscall    RectInRgn
00003CC4  4A1F                     tst.b      [A7]+
00003CC6  6708                     beq        +0xA /* 00003CD0 */
label00003CC8:
00003CC8  2F0C                     move.l     -[A7], A4
00003CCA  4EBA DDB0                jsr        [PC - 0x2250 /* 00001A7C */]
00003CCE  584F                     addq.w     A7, 4
label00003CD0:
00003CD0  2054                     movea.l    A0, [A4]
00003CD2  41E8 003C                lea.l      A0, [A0 + 0x3C]
00003CD6  2F20                     move.l     -[A7], -[A0]
00003CD8  2F20                     move.l     -[A7], -[A0]
00003CDA  486E FFE4                pea.l      [A6 - 0x1C]
00003CDE  4EBA DCB6                jsr        [PC - 0x234A /* 00001996 */]
00003CE2  558F                     subq.l     A7, 2
00003CE4  486E FFE4                pea.l      [A6 - 0x1C]
00003CE8  206E FFFC                movea.l    A0, [A6 - 0x4]
00003CEC  2F28 0018                move.l     -[A7], [A0 + 0x18]
00003CF0  A8E9                     syscall    RectInRgn
00003CF2  4A1F                     tst.b      [A7]+
00003CF4  4FEF 000C                lea.l      A7, [A7 + 0xC]
00003CF8  6708                     beq        +0xA /* 00003D02 */
00003CFA  2F0C                     move.l     -[A7], A4
00003CFC  4EBA DEE6                jsr        [PC - 0x211A /* 00001BE4 */]
00003D00  584F                     addq.w     A7, 4
label00003D02:
00003D02  2F0C                     move.l     -[A7], A4
00003D04  4EBA E3D2                jsr        [PC - 0x1C2E /* 000020D8 */]
00003D08  558F                     subq.l     A7, 2
00003D0A  206E FFF8                movea.l    A0, [A6 - 0x8]
00003D0E  2050                     movea.l    A0, [A0]
00003D10  4868 0054                pea.l      [A0 + 0x54]
00003D14  206E FFFC                movea.l    A0, [A6 - 0x4]
00003D18  2F28 0018                move.l     -[A7], [A0 + 0x18]
00003D1C  A8E9                     syscall    RectInRgn
00003D1E  4A1F                     tst.b      [A7]+
00003D20  584F                     addq.w     A7, 4
00003D22  6700 02F6                beq        +0x2F8 /* 0000401A */
00003D26  2F0C                     move.l     -[A7], A4
00003D28  4EBA E15C                jsr        [PC - 0x1EA4 /* 00001E86 */]
00003D2C  206E FFF8                movea.l    A0, [A6 - 0x8]
00003D30  2050                     movea.l    A0, [A0]
00003D32  41E8 005C                lea.l      A0, [A0 + 0x5C]
00003D36  2F20                     move.l     -[A7], -[A0]
00003D38  2F20                     move.l     -[A7], -[A0]
00003D3A  4EBA DD00                jsr        [PC - 0x2300 /* 00001A3C */]
00003D3E  2054                     movea.l    A0, [A4]
00003D40  4A28 0063                tst.b      [A0 + 0x63]
00003D44  4FEF 000C                lea.l      A7, [A7 + 0xC]
00003D48  670C                     beq        +0xE /* 00003D56 */
00003D4A  7001                     moveq.l    D0, 0x01
00003D4C  1F00                     move.b     -[A7], D0
00003D4E  2F2E FFF4                move.l     -[A7], [A6 - 0xC]
00003D52  4EAD 07C2                jsr        [A5 + 0x7C2 /* export_244, CODE:3 @ 00003CAC */]
label00003D56:
00003D56  206E FFFC                movea.l    A0, [A6 - 0x4]
00003D5A  4868 0010                pea.l      [A0 + 0x10]
00003D5E  2F2E FFF4                move.l     -[A7], [A6 - 0xC]
00003D62  4EAD 07DA                jsr        [A5 + 0x7DA /* export_247, CODE:3 @ 00003C9E */]
00003D66  2054                     movea.l    A0, [A4]
00003D68  4A28 0063                tst.b      [A0 + 0x63]
00003D6C  670C                     beq        +0xE /* 00003D7A */
00003D6E  7000                     moveq.l    D0, 0x00
00003D70  1F00                     move.b     -[A7], D0
00003D72  2F2E FFF4                move.l     -[A7], [A6 - 0xC]
00003D76  4EAD 07C2                jsr        [A5 + 0x7C2 /* export_244, CODE:3 @ 00003CAC */]
label00003D7A:
00003D7A  2054                     movea.l    A0, [A4]
00003D7C  4A28 0062                tst.b      [A0 + 0x62]
00003D80  660C                     bne        +0xE /* 00003D8E */
00003D82  7000                     moveq.l    D0, 0x00
00003D84  1F00                     move.b     -[A7], D0
00003D86  2F2E FFF4                move.l     -[A7], [A6 - 0xC]
00003D8A  4EAD 0882                jsr        [A5 + 0x882 /* export_268, CODE:3 @ 00003C64 */]
label00003D8E:
00003D8E  206E FFF4                movea.l    A0, [A6 - 0xC]
00003D92  2050                     movea.l    A0, [A0]
00003D94  2254                     movea.l    A1, [A4]
00003D96  32A8 00A8                move.w     [A1], [A0 + 0xA8]
00003D9A  6000 027E                bra        +0x280 /* 0000401A */
label00003D9E:
00003D9E  2F2B 0002                move.l     -[A7], [A3 + 0x2]
00003DA2  2F0C                     move.l     -[A7], A4
00003DA4  2F0B                     move.l     -[A7], A3
00003DA6  4EBA F972                jsr        [PC - 0x68E /* 0000371A */]
00003DAA  4FEF 000C                lea.l      A7, [A7 + 0xC]
00003DAE  6000 026A                bra        +0x26C /* 0000401A */
00003DB2  558F                     subq.l     A7, 2
00003DB4  2F2B 000A                move.l     -[A7], [A3 + 0xA]
00003DB8  486E FFDC                pea.l      [A6 - 0x24]
00003DBC  A92C                     syscall    FindWindow
00003DBE  202E FFDC                move.l     D0, [A6 - 0x24]
00003DC2  B0AE FFFC                cmp.l      D0, [A6 - 0x4]
00003DC6  544F                     addq.w     A7, 2
00003DC8  6618                     bne        +0x1A /* 00003DE2 */
00003DCA  2054                     movea.l    A0, [A4]
00003DCC  4A28 0063                tst.b      [A0 + 0x63]
00003DD0  6600 0248                bne        +0x24A /* 0000401A */
00003DD4  2F0C                     move.l     -[A7], A4
00003DD6  2F0B                     move.l     -[A7], A3
00003DD8  4EBA F5F0                jsr        [PC - 0xA10 /* 000033CA */]
00003DDC  504F                     addq.w     A7, 8
00003DDE  6000 023A                bra        +0x23C /* 0000401A */
label00003DE2:
00003DE2  2F2E FFDC                move.l     -[A7], [A6 - 0x24]
00003DE6  2F0C                     move.l     -[A7], A4
00003DE8  2F0B                     move.l     -[A7], A3
00003DEA  4EBA F92E                jsr        [PC - 0x6D2 /* 0000371A */]
00003DEE  4FEF 000C                lea.l      A7, [A7 + 0xC]
00003DF2  6000 0226                bra        +0x228 /* 0000401A */
00003DF6  2054                     movea.l    A0, [A4]
00003DF8  4A28 0063                tst.b      [A0 + 0x63]
00003DFC  6600 021C                bne        +0x21E /* 0000401A */
00003E00  216B 0006 00B0           move.l     [A0 + 0xB0], [A3 + 0x6]
00003E06  2054                     movea.l    A0, [A4]
00003E08  216E FFE0 00B4           move.l     [A0 + 0xB4], [A6 - 0x20]
00003E0E  6000 020A                bra        +0x20C /* 0000401A */
00003E12  2054                     movea.l    A0, [A4]
00003E14  4A28 0063                tst.b      [A0 + 0x63]
00003E18  6600 0200                bne        +0x202 /* 0000401A */
00003E1C  203C 0000 00FF           move.l     D0, 0xFF
00003E22  C0AB 0002                and.l      D0, [A3 + 0x2]
00003E26  5180                     subq.l     D0, 8
00003E28  6716                     beq        +0x18 /* 00003E40 */
00003E2A  0480 0000 0014           subi.l     D0, 0x14
00003E30  672A                     beq        +0x2C /* 00003E5C */
00003E32  5380                     subq.l     D0, 1
00003E34  6734                     beq        +0x36 /* 00003E6A */
00003E36  5380                     subq.l     D0, 1
00003E38  673E                     beq        +0x40 /* 00003E78 */
00003E3A  5380                     subq.l     D0, 1
00003E3C  6748                     beq        +0x4A /* 00003E86 */
00003E3E  6052                     bra        +0x54 /* 00003E92 */
label00003E40:
00003E40  558F                     subq.l     A7, 2
00003E42  2F2E FFF4                move.l     -[A7], [A6 - 0xC]
00003E46  4EAD 07B2                jsr        [A5 + 0x7B2 /* export_242, CODE:3 @ 00003CB0 */]
00003E4A  4A1F                     tst.b      [A7]+
00003E4C  6744                     beq        +0x46 /* 00003E92 */
00003E4E  2F0C                     move.l     -[A7], A4
00003E50  7006                     moveq.l    D0, 0x06
00003E52  2F00                     move.l     -[A7], D0
00003E54  4EBA 08C4                jsr        [PC + 0x8C4 /* 0000471A */]
00003E58  504F                     addq.w     A7, 8
00003E5A  6036                     bra        +0x38 /* 00003E92 */
label00003E5C:
00003E5C  2F0C                     move.l     -[A7], A4
00003E5E  7007                     moveq.l    D0, 0x07
00003E60  2F00                     move.l     -[A7], D0
00003E62  4EBA 0A9E                jsr        [PC + 0xA9E /* 00004902 */]
00003E66  504F                     addq.w     A7, 8
00003E68  6028                     bra        +0x2A /* 00003E92 */
label00003E6A:
00003E6A  2F0C                     move.l     -[A7], A4
00003E6C  7008                     moveq.l    D0, 0x08
00003E6E  2F00                     move.l     -[A7], D0
00003E70  4EBA 0A90                jsr        [PC + 0xA90 /* 00004902 */]
00003E74  504F                     addq.w     A7, 8
00003E76  601A                     bra        +0x1C /* 00003E92 */
label00003E78:
00003E78  2F0C                     move.l     -[A7], A4
00003E7A  7005                     moveq.l    D0, 0x05
00003E7C  2F00                     move.l     -[A7], D0
00003E7E  4EBA 0A82                jsr        [PC + 0xA82 /* 00004902 */]
00003E82  504F                     addq.w     A7, 8
00003E84  600C                     bra        +0xE /* 00003E92 */
label00003E86:
00003E86  2F0C                     move.l     -[A7], A4
00003E88  7006                     moveq.l    D0, 0x06
00003E8A  2F00                     move.l     -[A7], D0
00003E8C  4EBA 0A74                jsr        [PC + 0xA74 /* 00004902 */]
00003E90  504F                     addq.w     A7, 8
label00003E92:
00003E92  2054                     movea.l    A0, [A4]
00003E94  4268 00C0                clr.w      [A0 + 0xC0]
00003E98  6000 0180                bra        +0x182 /* 0000401A */
00003E9C  4AAB 0002                tst.l      [A3 + 0x2]
00003EA0  672E                     beq        +0x30 /* 00003ED0 */
00003EA2  2054                     movea.l    A0, [A4]
00003EA4  4A28 0063                tst.b      [A0 + 0x63]
00003EA8  6626                     bne        +0x28 /* 00003ED0 */
00003EAA  4A28 0062                tst.b      [A0 + 0x62]
00003EAE  674C                     beq        +0x4E /* 00003EFC */
00003EB0  7000                     moveq.l    D0, 0x00
00003EB2  1F00                     move.b     -[A7], D0
00003EB4  2F2E FFF4                move.l     -[A7], [A6 - 0xC]
00003EB8  4EAD 0882                jsr        [A5 + 0x882 /* export_268, CODE:3 @ 00003C64 */]
00003EBC  7000                     moveq.l    D0, 0x00
00003EBE  1F00                     move.b     -[A7], D0
00003EC0  2F2E FFF4                move.l     -[A7], [A6 - 0xC]
00003EC4  4EAD 07C2                jsr        [A5 + 0x7C2 /* export_244, CODE:3 @ 00003CAC */]
00003EC8  2054                     movea.l    A0, [A4]
00003ECA  4268 00C0                clr.w      [A0 + 0xC0]
00003ECE  602C                     bra        +0x2E /* 00003EFC */
label00003ED0:
00003ED0  4AAB 0002                tst.l      [A3 + 0x2]
00003ED4  6626                     bne        +0x28 /* 00003EFC */
00003ED6  2054                     movea.l    A0, [A4]
00003ED8  4A28 0063                tst.b      [A0 + 0x63]
00003EDC  671E                     beq        +0x20 /* 00003EFC */
00003EDE  4A28 0062                tst.b      [A0 + 0x62]
00003EE2  6718                     beq        +0x1A /* 00003EFC */
00003EE4  7001                     moveq.l    D0, 0x01
00003EE6  1F00                     move.b     -[A7], D0
00003EE8  2F2E FFF4                move.l     -[A7], [A6 - 0xC]
00003EEC  4EAD 0882                jsr        [A5 + 0x882 /* export_268, CODE:3 @ 00003C64 */]
00003EF0  7001                     moveq.l    D0, 0x01
00003EF2  1F00                     move.b     -[A7], D0
00003EF4  2F2E FFF4                move.l     -[A7], [A6 - 0xC]
00003EF8  4EAD 07C2                jsr        [A5 + 0x7C2 /* export_244, CODE:3 @ 00003CAC */]
label00003EFC:
00003EFC  2054                     movea.l    A0, [A4]
00003EFE  7000                     moveq.l    D0, 0x00
00003F00  1028 0063                move.b     D0, [A0 + 0x63]
00003F04  4A80                     tst.l      D0
00003F06  4AAB 0002                tst.l      [A3 + 0x2]
00003F0A  56C3                     sne        D3
00003F0C  4403                     neg.b      D3
00003F0E  4883                     ext.w      D3
00003F10  B640                     cmp.w      D3, D0
00003F12  6732                     beq        +0x34 /* 00003F46 */
00003F14  2068 0044                movea.l    A0, [A0 + 0x44]
00003F18  2050                     movea.l    A0, [A0]
00003F1A  43EE FFD8                lea.l      A1, [A6 - 0x28]
00003F1E  41E8 0044                lea.l      A0, [A0 + 0x44]
00003F22  22D8                     move.l     [A1]+, [A0]+
00003F24  22D8                     move.l     [A1]+, [A0]+
00003F26  4AAB 0002                tst.l      [A3 + 0x2]
00003F2A  56C3                     sne        D3
00003F2C  4403                     neg.b      D3
00003F2E  2054                     movea.l    A0, [A4]
00003F30  1143 0063                move.b     [A0 + 0x63], D3
00003F34  2054                     movea.l    A0, [A4]
00003F36  2F28 0044                move.l     -[A7], [A0 + 0x44]
00003F3A  4EBA E166                jsr        [PC - 0x1E9A /* 000020A2 */]
00003F3E  486E FFD8                pea.l      [A6 - 0x28]
00003F42  A928                     syscall    InvalRect
00003F44  584F                     addq.w     A7, 4
label00003F46:
00003F46  2054                     movea.l    A0, [A4]
00003F48  4A28 0063                tst.b      [A0 + 0x63]
00003F4C  57C3                     seq        D3
00003F4E  4403                     neg.b      D3
00003F50  1F03                     move.b     -[A7], D3
00003F52  2F0C                     move.l     -[A7], A4
00003F54  4EBA CD6E                jsr        [PC - 0x3292 /* 00000CC4 */]
00003F58  588F                     addq.l     A7, 4
00003F5A  2F00                     move.l     -[A7], D0
00003F5C  2054                     movea.l    A0, [A4]
00003F5E  2F28 009C                move.l     -[A7], [A0 + 0x9C]
00003F62  3F3C 005C                move.w     -[A7], 0x5C /* '\\' */
00003F66  A9E7                     syscall    Pack0/ListManager
00003F68  2054                     movea.l    A0, [A4]
00003F6A  41E8 002C                lea.l      A0, [A0 + 0x2C]
00003F6E  2F20                     move.l     -[A7], -[A0]
00003F70  2F20                     move.l     -[A7], -[A0]
00003F72  4EBA DA3E                jsr        [PC - 0x25C2 /* 000019B2 */]
00003F76  2054                     movea.l    A0, [A4]
00003F78  41E8 0034                lea.l      A0, [A0 + 0x34]
00003F7C  2F20                     move.l     -[A7], -[A0]
00003F7E  2F20                     move.l     -[A7], -[A0]
00003F80  4EBA DA30                jsr        [PC - 0x25D0 /* 000019B2 */]
00003F84  2054                     movea.l    A0, [A4]
00003F86  41E8 003C                lea.l      A0, [A0 + 0x3C]
00003F8A  2F20                     move.l     -[A7], -[A0]
00003F8C  2F20                     move.l     -[A7], -[A0]
00003F8E  4EBA DA22                jsr        [PC - 0x25DE /* 000019B2 */]
00003F92  2054                     movea.l    A0, [A4]
00003F94  4A28 0063                tst.b      [A0 + 0x63]
00003F98  57C3                     seq        D3
00003F9A  4403                     neg.b      D3
00003F9C  4883                     ext.w      D3
00003F9E  48C3                     ext.l      D3
00003FA0  2F03                     move.l     -[A7], D3
00003FA2  7001                     moveq.l    D0, 0x01
00003FA4  2F00                     move.l     -[A7], D0
00003FA6  2F0C                     move.l     -[A7], A4
00003FA8  4EBA E8AA                jsr        [PC - 0x1756 /* 00002854 */]
00003FAC  2054                     movea.l    A0, [A4]
00003FAE  4A28 0063                tst.b      [A0 + 0x63]
00003FB2  57C3                     seq        D3
00003FB4  4403                     neg.b      D3
00003FB6  4883                     ext.w      D3
00003FB8  48C3                     ext.l      D3
00003FBA  2F03                     move.l     -[A7], D3
00003FBC  7000                     moveq.l    D0, 0x00
00003FBE  2F00                     move.l     -[A7], D0
00003FC0  2F0C                     move.l     -[A7], A4
00003FC2  4EBA E890                jsr        [PC - 0x1770 /* 00002854 */]
00003FC6  4FEF 0030                lea.l      A7, [A7 + 0x30]
00003FCA  604E                     bra        +0x50 /* 0000401A */
00003FCC  2054                     movea.l    A0, [A4]
00003FCE  4A28 0063                tst.b      [A0 + 0x63]
00003FD2  663E                     bne        +0x40 /* 00004012 */
00003FD4  2F28 0048                move.l     -[A7], [A0 + 0x48]
00003FD8  4EAD 083A                jsr        [A5 + 0x83A /* export_259, CODE:3 @ 00003C82 */]
00003FDC  2F2E FFE0                move.l     -[A7], [A6 - 0x20]
00003FE0  2F0C                     move.l     -[A7], A4
00003FE2  4EBA E2A6                jsr        [PC - 0x1D5A /* 0000228A */]
00003FE6  4A00                     tst.b      D0
00003FE8  504F                     addq.w     A7, 8
00003FEA  6626                     bne        +0x28 /* 00004012 */
00003FEC  2F2E FFE0                move.l     -[A7], [A6 - 0x20]
00003FF0  2F0C                     move.l     -[A7], A4
00003FF2  4EBA E45E                jsr        [PC - 0x1BA2 /* 00002452 */]
00003FF6  4A00                     tst.b      D0
00003FF8  504F                     addq.w     A7, 8
00003FFA  6616                     bne        +0x18 /* 00004012 */
00003FFC  302B 000E                move.w     D0, [A3 + 0xE]
00004000  48C0                     ext.l      D0
00004002  2F00                     move.l     -[A7], D0
00004004  2F2E FFE0                move.l     -[A7], [A6 - 0x20]
00004008  2F0C                     move.l     -[A7], A4
0000400A  4EBA E2FC                jsr        [PC - 0x1D04 /* 00002308 */]
0000400E  4FEF 000C                lea.l      A7, [A7 + 0xC]
label00004012:
00004012  2F0C                     move.l     -[A7], A4
00004014  4EBA D8A0                jsr        [PC - 0x2760 /* 000018B6 */]
00004018  584F                     addq.w     A7, 4
label0000401A:
0000401A  4A53                     tst.w      [A3]
0000401C  670E                     beq        +0x10 /* 0000402C */
0000401E  7000                     moveq.l    D0, 0x00
00004020  1007                     move.b     D0, D7
00004022  2F00                     move.l     -[A7], D0
00004024  2F0C                     move.l     -[A7], A4
00004026  4EBA 04E6                jsr        [PC + 0x4E6 /* 0000450E */]
0000402A  504F                     addq.w     A7, 8
label0000402C:
0000402C  204C                     movea.l    A0, A4
0000402E  A02A                     syscall    HUnlock
00004030  2054                     movea.l    A0, [A4]
00004032  3D50 0018                move.w     [A6 + 0x18], [A0]
label00004036:
00004036  4CEE 18C8 FFB8           movem.l    D3,D6,D7,A3,A4, [A6 - 0x48]
0000403C  4E5E                     unlink     A6
0000403E  205F                     movea.l    A0, [A7]+
00004040  4FEF 0010                lea.l      A7, [A7 + 0x10]
00004044  4ED0                     jmp        [A0]
export_357:
fn00004046:
00004046  4E56 0000                link       A6, 0
0000404A  48E7 0118                movem.l    -[A7], D7,A3,A4
0000404E  266E 0008                movea.l    A3, [A6 + 0x8]
00004052  2053                     movea.l    A0, [A3]
00004054  2868 0048                movea.l    A4, [A0 + 0x48]
00004058  2F0C                     move.l     -[A7], A4
0000405A  4EAD 07E2                jsr        [A5 + 0x7E2 /* export_248, CODE:3 @ 00003CAA */]
0000405E  2054                     movea.l    A0, [A4]
00004060  4A68 00A8                tst.w      [A0 + 0xA8]
00004064  6730                     beq        +0x32 /* 00004096 */
00004066  2053                     movea.l    A0, [A3]
00004068  3028 0072                move.w     D0, [A0 + 0x72]
0000406C  0800 0000                btst.b     D0, 0x0
00004070  6704                     beq        +0x6 /* 00004076 */
00004072  7E02                     moveq.l    D7, 0x02
00004074  6002                     bra        +0x4 /* 00004078 */
label00004076:
00004076  7E03                     moveq.l    D7, 0x03
label00004078:
00004078  2054                     movea.l    A0, [A4]
0000407A  3028 00A8                move.w     D0, [A0 + 0xA8]
0000407E  48C0                     ext.l      D0
00004080  2F00                     move.l     -[A7], D0
00004082  48C7                     ext.l      D7
00004084  2F07                     move.l     -[A7], D7
00004086  4EBA 04CC                jsr        [PC + 0x4CC /* 00004554 */]
0000408A  2054                     movea.l    A0, [A4]
0000408C  4268 00A8                clr.w      [A0 + 0xA8]
00004090  7000                     moveq.l    D0, 0x00
00004092  504F                     addq.w     A7, 8
00004094  6042                     bra        +0x44 /* 000040D8 */
label00004096:
00004096  2053                     movea.l    A0, [A3]
00004098  0A68 0001 0072           xori.w     [A0 + 0x72], 0x1
0000409E  2053                     movea.l    A0, [A3]
000040A0  2F28 0044                move.l     -[A7], [A0 + 0x44]
000040A4  4EBA E156                jsr        [PC - 0x1EAA /* 000021FC */]
000040A8  558F                     subq.l     A7, 2
000040AA  2F0C                     move.l     -[A7], A4
000040AC  4EAD 07B2                jsr        [A5 + 0x7B2 /* export_242, CODE:3 @ 00003CB0 */]
000040B0  4A1F                     tst.b      [A7]+
000040B2  584F                     addq.w     A7, 4
000040B4  6720                     beq        +0x22 /* 000040D6 */
000040B6  2054                     movea.l    A0, [A4]
000040B8  4A28 01A3                tst.b      [A0 + 0x1A3]
000040BC  6708                     beq        +0xA /* 000040C6 */
000040BE  203C 0000 0154           move.l     D0, 0x154
000040C4  6006                     bra        +0x8 /* 000040CC */
label000040C6:
000040C6  203C 0000 014D           move.l     D0, 0x14D
label000040CC:
000040CC  2F00                     move.l     -[A7], D0
000040CE  2F0B                     move.l     -[A7], A3
000040D0  4EBA CCA0                jsr        [PC - 0x3360 /* 00000D72 */]
000040D4  504F                     addq.w     A7, 8
label000040D6:
000040D6  7001                     moveq.l    D0, 0x01
label000040D8:
000040D8  4CEE 1880 FFF4           movem.l    D7,A3,A4, [A6 - 0xC]
000040DE  4E5E                     unlink     A6
000040E0  4E75                     rts
fn000040E2:
000040E2  4E56 0000                link       A6, 0
000040E6  2F0C                     move.l     -[A7], A4
000040E8  286E 0008                movea.l    A4, [A6 + 0x8]
000040EC  2054                     movea.l    A0, [A4]
000040EE  303C 00FE                move.w     D0, 0xFE
000040F2  C068 0072                and.w      D0, [A0 + 0x72]
000040F6  5540                     subq.w     D0, 2
000040F8  6554                     bcs        +0x56 /* 0000414E */
000040FA  0C40 0018                cmpi.w     D0, 0x18
000040FE  624E                     bhi        +0x50 /* 0000414E */
00004100  D040                     add.w      D0, D0
00004102  303B 0006                move.w     D0, [PC + D0.w + 0x6]
00004106  4EFB 0000                jmp        [PC + D0.w]
0000410A  0034 0046 0034           ori.b      [A4 + D0.w + 0x34], 0x46 /* 'F' */
00004110  0046 0034                ori.w      D6, 0x34 /* '4' */
00004114  0046 0034                ori.w      D6, 0x34 /* '4' */
00004118  0046 0034                ori.w      D6, 0x34 /* '4' */
0000411C  0046 003E                ori.w      D6, 0x3E /* '>' */
00004120  0046 0034                ori.w      D6, 0x34 /* '4' */
00004124  0046 0034                ori.w      D6, 0x34 /* '4' */
00004128  0046 0034                ori.w      D6, 0x34 /* '4' */
0000412C  0046 0034                ori.w      D6, 0x34 /* '4' */
00004130  0046 0034                ori.w      D6, 0x34 /* '4' */
00004134  0046 003E                ori.w      D6, 0x3E /* '>' */
00004138  0046 003E                ori.w      D6, 0x3E /* '>' */
0000413C  2F0C                     move.l     -[A7], A4
0000413E  4EBA FF06                jsr        [PC - 0xFA /* 00004046 */]
00004142  584F                     addq.w     A7, 4
00004144  6008                     bra        +0xA /* 0000414E */
00004146  2F0C                     move.l     -[A7], A4
00004148  4EAD 0C12                jsr        [A5 + 0xC12 /* export_382, CODE:10 @ 00002216 */]
0000414C  584F                     addq.w     A7, 4
label0000414E:
0000414E  286E FFFC                movea.l    A4, [A6 - 0x4]
00004152  4E5E                     unlink     A6
00004154  4E75                     rts
fn00004156:
00004156  4E56 FFFC                link       A6, -0x0004
0000415A  2F03                     move.l     -[A7], D3
0000415C  598F                     subq.l     A7, 4
0000415E  7000                     moveq.l    D0, 0x00
00004160  2F00                     move.l     -[A7], D0
00004162  2F3C 5049 4354           move.l     -[A7], 0x50494354 /* 'PICT' */
00004168  486E FFFC                pea.l      [A6 - 0x4]
0000416C  A9FD                     syscall    GetScrap
0000416E  4A9F                     tst.l      [A7]+
00004170  5CC3                     sge        D3
00004172  4403                     neg.b      D3
00004174  1003                     move.b     D0, D3
00004176  262E FFF8                move.l     D3, [A6 - 0x8]
0000417A  4E5E                     unlink     A6
0000417C  4E75                     rts
fn0000417E:
0000417E  4E56 FF00                link       A6, -0x0100
00004182  48E7 1318                movem.l    -[A7], D3,D6,D7,A3,A4
00004186  266E 0008                movea.l    A3, [A6 + 0x8]
0000418A  49EE FF00                lea.l      A4, [A6 - 0x100]
0000418E  2053                     movea.l    A0, [A3]
00004190  4A28 0062                tst.b      [A0 + 0x62]
00004194  6706                     beq        +0x8 /* 0000419C */
00004196  3068 0072                movea.w    A0, [A0 + 0x72]
0000419A  6004                     bra        +0x6 /* 000041A0 */
label0000419C:
0000419C  307C 0001                movea.w    A0, 0x1
label000041A0:
000041A0  3C08                     move.w     D6, A0
000041A2  0C46 0001                cmpi.w     D6, 0x1
000041A6  57C3                     seq        D3
000041A8  4403                     neg.b      D3
000041AA  6708                     beq        +0xA /* 000041B4 */
000041AC  203C FFFF F979           move.l     D0, 0xFFFFF979
000041B2  6006                     bra        +0x8 /* 000041BA */
label000041B4:
000041B4  203C FFFF F97B           move.l     D0, 0xFFFFF97B
label000041BA:
000041BA  907C FF00                sub.w      D0, 0xFF00
000041BE  48C0                     ext.l      D0
000041C0  2E00                     move.l     D7, D0
000041C2  0C46 0064                cmpi.w     D6, 0x64 /* 'd' */
000041C6  6C0E                     bge        +0x10 /* 000041D6 */
000041C8  3F06                     move.w     -[A7], D6
000041CA  487A 00F4                pea.l      [PC + 0xF4 /* 000042C0, value 0xC426974, pstring "BitTool Undo" */]
000041CE  2F0C                     move.l     -[A7], A4
000041D0  4EAD 0282                jsr        [A5 + 0x282 /* export_76, CODE:1 @ 00005CDA */]
000041D4  602E                     bra        +0x30 /* 00004204 */
label000041D6:
000041D6  2053                     movea.l    A0, [A3]
000041D8  4AA8 0008                tst.l      [A0 + 0x8]
000041DC  6718                     beq        +0x1A /* 000041F6 */
000041DE  3006                     move.w     D0, D6
000041E0  907C 0063                sub.w      D0, 0x63 /* 'c' */
000041E4  3F00                     move.w     -[A7], D0
000041E6  2053                     movea.l    A0, [A3]
000041E8  2068 0008                movea.l    A0, [A0 + 0x8]
000041EC  2F10                     move.l     -[A7], [A0]
000041EE  2F0C                     move.l     -[A7], A4
000041F0  4EAD 0282                jsr        [A5 + 0x282 /* export_76, CODE:1 @ 00005CDA */]
000041F4  600E                     bra        +0x10 /* 00004204 */
label000041F6:
000041F6  7001                     moveq.l    D0, 0x01
000041F8  3F00                     move.w     -[A7], D0
000041FA  487A 00B6                pea.l      [PC + 0xB6 /* 000042B2, value 0xC426974, pstring "BitTool Undo" */]
000041FE  2F0C                     move.l     -[A7], A4
00004200  4EAD 0282                jsr        [A5 + 0x282 /* export_76, CODE:1 @ 00005CDA */]
label00004204:
00004204  598F                     subq.l     A7, 4
00004206  7003                     moveq.l    D0, 0x03
00004208  3F00                     move.w     -[A7], D0
0000420A  A949                     syscall    GetMenuHandle
0000420C  7001                     moveq.l    D0, 0x01
0000420E  3F00                     move.w     -[A7], D0
00004210  2F0C                     move.l     -[A7], A4
00004212  A947                     syscall    SetMenuItemText/SetItem
00004214  7001                     moveq.l    D0, 0x01
00004216  3F00                     move.w     -[A7], D0
00004218  487A 0084                pea.l      [PC + 0x84 /* 0000429E, value 0x11426974, pstring "BitTool Menu Text" */]
0000421C  2F0C                     move.l     -[A7], A4
0000421E  4EAD 0282                jsr        [A5 + 0x282 /* export_76, CODE:1 @ 00005CDA */]
00004222  2053                     movea.l    A0, [A3]
00004224  4A28 0062                tst.b      [A0 + 0x62]
00004228  673C                     beq        +0x3E /* 00004266 */
0000422A  4EBA FF2A                jsr        [PC - 0xD6 /* 00004156 */]
0000422E  4A00                     tst.b      D0
00004230  6710                     beq        +0x12 /* 00004242 */
00004232  7002                     moveq.l    D0, 0x02
00004234  3F00                     move.w     -[A7], D0
00004236  487A 0052                pea.l      [PC + 0x52 /* 0000428A, value 0x11426974, pstring "BitTool Menu Text" */]
0000423A  2F0C                     move.l     -[A7], A4
0000423C  4EAD 0282                jsr        [A5 + 0x282 /* export_76, CODE:1 @ 00005CDA */]
00004240  6006                     bra        +0x8 /* 00004248 */
label00004242:
00004242  0487 0000 0020           subi.l     D7, 0x20 /* ' ' */
label00004248:
00004248  558F                     subq.l     A7, 2
0000424A  2053                     movea.l    A0, [A3]
0000424C  2F28 0048                move.l     -[A7], [A0 + 0x48]
00004250  4EAD 07B2                jsr        [A5 + 0x7B2 /* export_242, CODE:3 @ 00003CB0 */]
00004254  4A1F                     tst.b      [A7]+
00004256  6708                     beq        +0xA /* 00004260 */
00004258  0687 0000 0100           addi.l     D7, 0x100
0000425E  6006                     bra        +0x8 /* 00004266 */
label00004260:
00004260  0487 0000 0018           subi.l     D7, 0x18
label00004266:
00004266  598F                     subq.l     A7, 4
00004268  7003                     moveq.l    D0, 0x03
0000426A  3F00                     move.w     -[A7], D0
0000426C  A949                     syscall    GetMenuHandle
0000426E  7005                     moveq.l    D0, 0x05
00004270  3F00                     move.w     -[A7], D0
00004272  2F0C                     move.l     -[A7], A4
00004274  A947                     syscall    SetMenuItemText/SetItem
00004276  7003                     moveq.l    D0, 0x03
00004278  3F00                     move.w     -[A7], D0
0000427A  2F07                     move.l     -[A7], D7
0000427C  4EAD 022A                jsr        [A5 + 0x22A /* export_65, CODE:1 @ 000058A8 */]
00004280  4CEE 18C8 FEEC           movem.l    D3,D6,D7,A3,A4, [A6 - 0x114]
00004286  4E5E                     unlink     A6
00004288  4E75                     rts
0000428A  1142 6974                move.b     [A0 + 0x6974], D2
0000428E  546F 6F6C                addq.w     [A7 + 0x6F6C], 2
00004292  204D                     movea.l    A0, A5
00004294  656E                     bcs        +0x70 /* 00004304 */
00004296  7520                     moveq.l    D2, 0x20
00004298  5465                     addq.w     -[A5], 2
0000429A  7874                     moveq.l    D4, 0x74
0000429C  0000 1142                ori.b      D0, 0x42 /* 'B' */
000042A0  6974                     bvs        +0x76 /* 00004316 */
000042A2  546F 6F6C                addq.w     [A7 + 0x6F6C], 2
000042A6  204D                     movea.l    A0, A5
000042A8  656E                     bcs        +0x70 /* 00004318 */
000042AA  7520                     moveq.l    D2, 0x20
000042AC  5465                     addq.w     -[A5], 2
000042AE  7874                     moveq.l    D4, 0x74
000042B0  0000 0C42                ori.b      D0, 0x42 /* 'B' */
000042B4  6974                     bvs        +0x76 /* 0000432A */
000042B6  546F 6F6C                addq.w     [A7 + 0x6F6C], 2
000042BA  2055                     movea.l    A0, [A5]
000042BC  6E64                     bgt        +0x66 /* 00004322 */
000042BE  6F00 0C42                ble        +0xC44 /* 00004F02 */
000042C2  6974                     bvs        +0x76 /* 00004338 */
000042C4  546F 6F6C                addq.w     [A7 + 0x6F6C], 2
000042C8  2055                     movea.l    A0, [A5]
000042CA  6E64                     bgt        +0x66 /* 00004330 */
000042CC  6F00 4E56                ble        +0x4E58 /* 00009124 */
// begin alternate branch 000042CE-000042D6
fn000042CE:
000042CE  4E56 0000                link       A6, 0
000042D2  48E7 0108                movem.l    -[A7], D7,A4
// end alternate branch 000042CE-000042D6
fn000042CE: // (misaligned)
000042D0  0000 48E7                ori.b      D0, 0xE7
000042D4  0108                     btst       A0, D0
000042D6  286E 0008                movea.l    A4, [A6 + 0x8]
000042DA  2054                     movea.l    A0, [A4]
000042DC  4A28 0063                tst.b      [A0 + 0x63]
000042E0  6708                     beq        +0xA /* 000042EA */
000042E2  2E3C FFFF FA10           move.l     D7, 0xFFFFFA10
000042E8  6032                     bra        +0x34 /* 0000431C */
label000042EA:
000042EA  2E3C FFFF FDEF           move.l     D7, 0xFFFFFDEF
000042F0  558F                     subq.l     A7, 2
000042F2  2054                     movea.l    A0, [A4]
000042F4  2F28 0048                move.l     -[A7], [A0 + 0x48]
000042F8  4EAD 07B2                jsr        [A5 + 0x7B2 /* export_242, CODE:3 @ 00003CB0 */]
000042FC  4A1F                     tst.b      [A7]+
000042FE  6608                     bne        +0xA /* 00004308 */
00004300  0487 0000 01EE           subi.l     D7, 0x1EE
// begin alternate branch 00004304-00004306
label00004304:
00004304  01EE                     .incomplete
// end alternate branch 00004304-00004306
label00004304: // (misaligned)
00004306  6014                     bra        +0x16 /* 0000431C */
label00004308:
00004308  2054                     movea.l    A0, [A4]
0000430A  2068 0048                movea.l    A0, [A0 + 0x48]
0000430E  2050                     movea.l    A0, [A0]
00004310  4A28 01A3                tst.b      [A0 + 0x1A3]
00004314  6606                     bne        +0x8 /* 0000431C */
label00004316:
00004316  0487 0000 000E           subi.l     D7, 0xE
// begin alternate branch 00004318-0000431C
label00004318:
00004318  0000 000E                ori.b      D0, 0xE
// end alternate branch 00004318-0000431C
label00004318: // (misaligned)
label0000431C:
0000431C  3F3C 0C1C                move.w     -[A7], 0xC1C
00004320  2F07                     move.l     -[A7], D7
label00004322:
00004322  4EAD 022A                jsr        [A5 + 0x22A /* export_65, CODE:1 @ 000058A8 */]
00004326  4CEE 1080 FFF8           movem.l    D7,A4, [A6 - 0x8]
// begin alternate branch 0000432A-0000432C
label0000432A:
0000432A  FFF8                     .invalid   <<F/7/7>>
// end alternate branch 0000432A-0000432C
label0000432A: // (misaligned)
0000432C  4E5E                     unlink     A6
0000432E  4E75                     rts
fn00004330:
00004330  4E56 0000                link       A6, 0
00004334  48E7 0708                movem.l    -[A7], D5,D6,D7,A4
label00004338:
00004338  286E 0008                movea.l    A4, [A6 + 0x8]
0000433C  2054                     movea.l    A0, [A4]
0000433E  4AA8 0094                tst.l      [A0 + 0x94]
00004342  6700 0118                beq        +0x11A /* 0000445C */
00004346  2068 0044                movea.l    A0, [A0 + 0x44]
0000434A  2050                     movea.l    A0, [A0]
0000434C  3C28 003C                move.w     D6, [A0 + 0x3C]
00004350  2054                     movea.l    A0, [A4]
00004352  2068 0094                movea.l    A0, [A0 + 0x94]
00004356  2050                     movea.l    A0, [A0]
00004358  7A01                     moveq.l    D5, 0x01
0000435A  CAA8 000A                and.l      D5, [A0 + 0xA]
0000435E  7E01                     moveq.l    D7, 0x01
00004360  6010                     bra        +0x12 /* 00004372 */
label00004362:
00004362  2054                     movea.l    A0, [A4]
00004364  2F28 0094                move.l     -[A7], [A0 + 0x94]
00004368  3F07                     move.w     -[A7], D7
0000436A  7000                     moveq.l    D0, 0x00
0000436C  3F00                     move.w     -[A7], D0
0000436E  A944                     syscall    SetItmMark
00004370  5247                     addq.w     D7, 1
label00004372:
00004372  48C7                     ext.l      D7
00004374  2054                     movea.l    A0, [A4]
00004376  3028 006A                move.w     D0, [A0 + 0x6A]
0000437A  48C0                     ext.l      D0
0000437C  5E80                     addq.l     D0, 7
0000437E  B087                     cmp.l      D0, D7
00004380  6CE0                     bge        -0x1E /* 00004362 */
00004382  4A28 0063                tst.b      [A0 + 0x63]
00004386  6604                     bne        +0x6 /* 0000438C */
00004388  4A46                     tst.w      D6
0000438A  661E                     bne        +0x20 /* 000043AA */
label0000438C:
0000438C  4A05                     tst.b      D5
0000438E  6700 00CC                beq        +0xCE /* 0000445C */
00004392  2054                     movea.l    A0, [A4]
00004394  2F28 0094                move.l     -[A7], [A0 + 0x94]
00004398  7000                     moveq.l    D0, 0x00
0000439A  3F00                     move.w     -[A7], D0
0000439C  A93A                     syscall    DisableItem
0000439E  7000                     moveq.l    D0, 0x00
000043A0  1F00                     move.b     -[A7], D0
000043A2  4EAD 003A                jsr        [A5 + 0x3A /* export_3, CODE:1 @ 00000054 */]
000043A6  6000 00B4                bra        +0xB6 /* 0000445C */
label000043AA:
000043AA  4A05                     tst.b      D5
000043AC  6614                     bne        +0x16 /* 000043C2 */
000043AE  2054                     movea.l    A0, [A4]
000043B0  2F28 0094                move.l     -[A7], [A0 + 0x94]
000043B4  7000                     moveq.l    D0, 0x00
000043B6  3F00                     move.w     -[A7], D0
000043B8  A939                     syscall    EnableItem
000043BA  7000                     moveq.l    D0, 0x00
000043BC  1F00                     move.b     -[A7], D0
000043BE  4EAD 003A                jsr        [A5 + 0x3A /* export_3, CODE:1 @ 00000054 */]
label000043C2:
000043C2  7E01                     moveq.l    D7, 0x01
000043C4  600C                     bra        +0xE /* 000043D2 */
label000043C6:
000043C6  2054                     movea.l    A0, [A4]
000043C8  2F28 0094                move.l     -[A7], [A0 + 0x94]
000043CC  3F07                     move.w     -[A7], D7
000043CE  A939                     syscall    EnableItem
000043D0  5247                     addq.w     D7, 1
label000043D2:
000043D2  48C7                     ext.l      D7
000043D4  2054                     movea.l    A0, [A4]
000043D6  3028 006A                move.w     D0, [A0 + 0x6A]
000043DA  48C0                     ext.l      D0
000043DC  5E80                     addq.l     D0, 7
000043DE  B087                     cmp.l      D0, D7
000043E0  6CE4                     bge        -0x1A /* 000043C6 */
000043E2  2F28 0094                move.l     -[A7], [A0 + 0x94]
000043E6  3028 006A                move.w     D0, [A0 + 0x6A]
000043EA  D07C 0009                add.w      D0, 0x9 /* '\t' */
000043EE  3F00                     move.w     -[A7], D0
000043F0  A939                     syscall    EnableItem
000043F2  2054                     movea.l    A0, [A4]
000043F4  4A28 0070                tst.b      [A0 + 0x70]
000043F8  6612                     bne        +0x14 /* 0000440C */
000043FA  0C46 0006                cmpi.w     D6, 0x6
000043FE  670C                     beq        +0xE /* 0000440C */
00004400  2068 0044                movea.l    A0, [A0 + 0x44]
00004404  2050                     movea.l    A0, [A0]
00004406  4A28 003A                tst.b      [A0 + 0x3A]
0000440A  6714                     beq        +0x16 /* 00004420 */
label0000440C:
0000440C  2054                     movea.l    A0, [A4]
0000440E  2F28 0094                move.l     -[A7], [A0 + 0x94]
00004412  3028 006A                move.w     D0, [A0 + 0x6A]
00004416  D07C 000B                add.w      D0, 0xB
0000441A  3F00                     move.w     -[A7], D0
0000441C  A93A                     syscall    DisableItem
0000441E  6012                     bra        +0x14 /* 00004432 */
label00004420:
00004420  2054                     movea.l    A0, [A4]
00004422  2F28 0094                move.l     -[A7], [A0 + 0x94]
00004426  3028 006A                move.w     D0, [A0 + 0x6A]
0000442A  D07C 000B                add.w      D0, 0xB
0000442E  3F00                     move.w     -[A7], D0
00004430  A939                     syscall    EnableItem
label00004432:
00004432  2054                     movea.l    A0, [A4]
00004434  4A28 0070                tst.b      [A0 + 0x70]
00004438  6708                     beq        +0xA /* 00004442 */
0000443A  3E28 006A                move.w     D7, [A0 + 0x6A]
0000443E  5E47                     addq.w     D7, 7
00004440  600C                     bra        +0xE /* 0000444E */
label00004442:
00004442  48C6                     ext.l      D6
00004444  2F06                     move.l     -[A7], D6
00004446  4EAD 0B92                jsr        [A5 + 0xB92 /* export_366, CODE:10 @ 00000476 */]
0000444A  3E00                     move.w     D7, D0
0000444C  584F                     addq.w     A7, 4
label0000444E:
0000444E  2054                     movea.l    A0, [A4]
00004450  2F28 0094                move.l     -[A7], [A0 + 0x94]
00004454  3F07                     move.w     -[A7], D7
00004456  7012                     moveq.l    D0, 0x12
00004458  3F00                     move.w     -[A7], D0
0000445A  A944                     syscall    SetItmMark
label0000445C:
0000445C  4CEE 10E0 FFF0           movem.l    D5,D6,D7,A4, [A6 - 0x10]
00004462  4E5E                     unlink     A6
00004464  4E75                     rts
fn00004466:
00004466  4E56 0000                link       A6, 0
0000446A  48E7 1708                movem.l    -[A7], D3,D5,D6,D7,A4
0000446E  286E 0008                movea.l    A4, [A6 + 0x8]
00004472  2054                     movea.l    A0, [A4]
00004474  4AA8 0098                tst.l      [A0 + 0x98]
00004478  6700 008A                beq        +0x8C /* 00004504 */
0000447C  2068 0044                movea.l    A0, [A0 + 0x44]
00004480  2050                     movea.l    A0, [A0]
00004482  3C28 003C                move.w     D6, [A0 + 0x3C]
00004486  7E01                     moveq.l    D7, 0x01
label00004488:
00004488  2054                     movea.l    A0, [A4]
0000448A  2F28 0098                move.l     -[A7], [A0 + 0x98]
0000448E  3F07                     move.w     -[A7], D7
00004490  7000                     moveq.l    D0, 0x00
00004492  3F00                     move.w     -[A7], D0
00004494  A944                     syscall    SetItmMark
00004496  5247                     addq.w     D7, 1
00004498  0C47 0002                cmpi.w     D7, 0x2
0000449C  6FEA                     ble        -0x14 /* 00004488 */
0000449E  2054                     movea.l    A0, [A4]
000044A0  4A28 0063                tst.b      [A0 + 0x63]
000044A4  6604                     bne        +0x6 /* 000044AA */
000044A6  4A46                     tst.w      D6
000044A8  6604                     bne        +0x6 /* 000044AE */
label000044AA:
000044AA  7A00                     moveq.l    D5, 0x00
000044AC  604C                     bra        +0x4E /* 000044FA */
label000044AE:
000044AE  7A11                     moveq.l    D5, 0x11
000044B0  0C46 0004                cmpi.w     D6, 0x4
000044B4  6706                     beq        +0x8 /* 000044BC */
000044B6  0C46 0005                cmpi.w     D6, 0x5
000044BA  6624                     bne        +0x26 /* 000044E0 */
label000044BC:
000044BC  5C85                     addq.l     D5, 6
000044BE  0C46 0005                cmpi.w     D6, 0x5
000044C2  57C3                     seq        D3
000044C4  4403                     neg.b      D3
000044C6  6704                     beq        +0x6 /* 000044CC */
000044C8  7001                     moveq.l    D0, 0x01
000044CA  6002                     bra        +0x4 /* 000044CE */
label000044CC:
000044CC  7002                     moveq.l    D0, 0x02
label000044CE:
000044CE  4880                     ext.w      D0
000044D0  3E00                     move.w     D7, D0
000044D2  2054                     movea.l    A0, [A4]
000044D4  2F28 0098                move.l     -[A7], [A0 + 0x98]
000044D8  3F07                     move.w     -[A7], D7
000044DA  7012                     moveq.l    D0, 0x12
000044DC  3F00                     move.w     -[A7], D0
000044DE  A944                     syscall    SetItmMark
label000044E0:
000044E0  0C46 0005                cmpi.w     D6, 0x5
000044E4  6614                     bne        +0x16 /* 000044FA */
000044E6  2054                     movea.l    A0, [A4]
000044E8  2068 0044                movea.l    A0, [A0 + 0x44]
000044EC  2050                     movea.l    A0, [A0]
000044EE  4A28 0060                tst.b      [A0 + 0x60]
000044F2  6706                     beq        +0x8 /* 000044FA */
000044F4  0685 0000 0040           addi.l     D5, 0x40 /* '@' */
label000044FA:
000044FA  3F3C 0C21                move.w     -[A7], 0xC21
000044FE  2F05                     move.l     -[A7], D5
00004500  4EAD 022A                jsr        [A5 + 0x22A /* export_65, CODE:1 @ 000058A8 */]
label00004504:
00004504  4CEE 10E8 FFEC           movem.l    D3,D5,D6,D7,A4, [A6 - 0x14]
0000450A  4E5E                     unlink     A6
0000450C  4E75                     rts
fn0000450E:
0000450E  4E56 0000                link       A6, 0
00004512  2F0C                     move.l     -[A7], A4
00004514  286E 0008                movea.l    A4, [A6 + 0x8]
00004518  2054                     movea.l    A0, [A4]
0000451A  4A28 0062                tst.b      [A0 + 0x62]
0000451E  6606                     bne        +0x8 /* 00004526 */
00004520  4A2E 000F                tst.b      [A6 + 0xF]
00004524  6708                     beq        +0xA /* 0000452E */
label00004526:
00004526  2F0C                     move.l     -[A7], A4
00004528  4EBA FC54                jsr        [PC - 0x3AC /* 0000417E */]
0000452C  584F                     addq.w     A7, 4
label0000452E:
0000452E  2054                     movea.l    A0, [A4]
00004530  4A28 0062                tst.b      [A0 + 0x62]
00004534  6716                     beq        +0x18 /* 0000454C */
00004536  2F0C                     move.l     -[A7], A4
00004538  4EBA FD94                jsr        [PC - 0x26C /* 000042CE */]
0000453C  2F0C                     move.l     -[A7], A4
0000453E  4EBA FDF0                jsr        [PC - 0x210 /* 00004330 */]
00004542  2F0C                     move.l     -[A7], A4
00004544  4EBA FF20                jsr        [PC - 0xE0 /* 00004466 */]
00004548  4FEF 000C                lea.l      A7, [A7 + 0xC]
label0000454C:
0000454C  286E FFFC                movea.l    A4, [A6 - 0x4]
00004550  4E5E                     unlink     A6
00004552  4E75                     rts
fn00004554:
00004554  4E56 FF00                link       A6, -0x0100
00004558  2F0C                     move.l     -[A7], A4
0000455A  49EE FF00                lea.l      A4, [A6 - 0x100]
0000455E  3F2E 000E                move.w     -[A7], [A6 + 0xE]
00004562  2F0C                     move.l     -[A7], A4
00004564  4EAD 00EA                jsr        [A5 + 0xEA /* export_25, CODE:1 @ 00002E4A */]
00004568  2F0C                     move.l     -[A7], A4
0000456A  7000                     moveq.l    D0, 0x00
0000456C  2F00                     move.l     -[A7], D0
0000456E  2F00                     move.l     -[A7], D0
00004570  2F00                     move.l     -[A7], D0
00004572  A98B                     syscall    ParamText
00004574  558F                     subq.l     A7, 2
00004576  7002                     moveq.l    D0, 0x02
00004578  1F00                     move.b     -[A7], D0
0000457A  487A 001E                pea.l      [PC + 0x1E /* 0000459A, value 0x15426974, pstring "BitTool alert strings" */]
0000457E  3F2E 000A                move.w     -[A7], [A6 + 0xA]
00004582  4EAD 00DA                jsr        [A5 + 0xDA /* export_23, CODE:1 @ 00002ACA */]
00004586  7000                     moveq.l    D0, 0x00
00004588  2F00                     move.l     -[A7], D0
0000458A  2F00                     move.l     -[A7], D0
0000458C  2F00                     move.l     -[A7], D0
0000458E  2F00                     move.l     -[A7], D0
00004590  A98B                     syscall    ParamText
00004592  286E FEFC                movea.l    A4, [A6 - 0x104]
00004596  4E5E                     unlink     A6
00004598  4E75                     rts
0000459A  1542 6974                move.b     [A2 + 0x6974], D2
0000459E  546F 6F6C                addq.w     [A7 + 0x6F6C], 2
000045A2  2061                     movea.l    A0, -[A1]
000045A4  6C65                     bge        +0x67 /* 0000460B */
000045A6  7274                     moveq.l    D1, 0x74
000045A8  2073 7472                movea.l    A0, [A3 + D7.w * 4 + 0x72]
000045AC  696E                     bvs        +0x70 /* 0000461C */
000045AE  6773                     beq        +0x75 /* 00004623 */
000045B0  0000 4E56                ori.b      D0, 0x56 /* 'V' */
// begin alternate branch 000045B2-000045B6
fn000045B2:
000045B2  4E56 FFF4                link       A6, -0x000C
// end alternate branch 000045B2-000045B6
fn000045B2: // (misaligned)
000045B4  FFF4                     .invalid   <<F/7/7>>
000045B6  48E7 1018                movem.l    -[A7], D3,A3,A4
000045BA  286E 0008                movea.l    A4, [A6 + 0x8]
000045BE  2054                     movea.l    A0, [A4]
000045C0  2D68 0044 FFFC           move.l     [A6 - 0x4], [A0 + 0x44]
000045C6  2054                     movea.l    A0, [A4]
000045C8  2668 0048                movea.l    A3, [A0 + 0x48]
000045CC  2248                     movea.l    A1, A0
000045CE  43E9 0078                lea.l      A1, [A1 + 0x78]
000045D2  41E8 0050                lea.l      A0, [A0 + 0x50]
000045D6  22D8                     move.l     [A1]+, [A0]+
000045D8  32D8                     move.w     [A1]+, [A0]+
000045DA  2054                     movea.l    A0, [A4]
000045DC  2248                     movea.l    A1, A0
000045DE  43E9 007E                lea.l      A1, [A1 + 0x7E]
000045E2  41E8 0056                lea.l      A0, [A0 + 0x56]
000045E6  22D8                     move.l     [A1]+, [A0]+
000045E8  32D8                     move.w     [A1]+, [A0]+
000045EA  2054                     movea.l    A0, [A4]
000045EC  4A28 0060                tst.b      [A0 + 0x60]
000045F0  6716                     beq        +0x18 /* 00004608 */
000045F2  206E FFFC                movea.l    A0, [A6 - 0x4]
000045F6  2050                     movea.l    A0, [A0]
000045F8  4A28 003B                tst.b      [A0 + 0x3B]
000045FC  660A                     bne        +0xC /* 00004608 */
000045FE  2054                     movea.l    A0, [A4]
00004600  7006                     moveq.l    D0, 0x06
00004602  B068 0068                cmp.w      D0, [A0 + 0x68]
00004606  662C                     bne        +0x2E /* 00004634 */
label00004608:
00004608  2F0B                     move.l     -[A7], A3
0000460A  4EAD 081A                jsr        [A5 + 0x81A /* export_255, CODE:3 @ 00003C90 */]
0000460E  2053                     movea.l    A0, [A3]
00004610  226E 000C                movea.l    A1, [A6 + 0xC]
00004614  32A8 00A8                move.w     [A1], [A0 + 0xA8]
00004618  2053                     movea.l    A0, [A3]
0000461A  4268 00A8                clr.w      [A0 + 0xA8]
// begin alternate branch 0000461C-00004624
label0000461C:
0000461C  00A8 2054 2F28 0074      ori.l      [A0 + 0x74], 0x20542F28 /* ' T/(' */
// end alternate branch 0000461C-00004624
label0000461C: // (misaligned)
0000461E  2054                     movea.l    A0, [A4]
00004620  2F28 0074                move.l     -[A7], [A0 + 0x74]
00004624  4EBA BA1E                jsr        [PC - 0x45E2 /* 00000044 */]
00004628  2054                     movea.l    A0, [A4]
0000462A  7000                     moveq.l    D0, 0x00
0000462C  2140 0074                move.l     [A0 + 0x74], D0
00004630  584F                     addq.w     A7, 4
00004632  607E                     bra        +0x80 /* 000046B2 */
label00004634:
00004634  2F0C                     move.l     -[A7], A4
00004636  4EAD 0C42                jsr        [A5 + 0xC42 /* export_388, CODE:10 @ 000038B2 */]
0000463A  2D40 FFF8                move.l     [A6 - 0x8], D0
0000463E  584F                     addq.w     A7, 4
00004640  6770                     beq        +0x72 /* 000046B2 */
00004642  2053                     movea.l    A0, [A3]
00004644  2D68 0018 FFF4           move.l     [A6 - 0xC], [A0 + 0x18]
0000464A  558F                     subq.l     A7, 2
0000464C  486E FFF4                pea.l      [A6 - 0xC]
00004650  4EAD 06D2                jsr        [A5 + 0x6D2 /* export_214, CODE:3 @ 00003172 */]
00004654  206E 000C                movea.l    A0, [A6 + 0xC]
00004658  309F                     move.w     [A0], [A7]+
0000465A  206E 000C                movea.l    A0, [A6 + 0xC]
0000465E  4A50                     tst.w      [A0]
00004660  664A                     bne        +0x4C /* 000046AC */
00004662  2F0C                     move.l     -[A7], A4
00004664  700B                     moveq.l    D0, 0x0B
00004666  2F00                     move.l     -[A7], D0
00004668  7201                     moveq.l    D1, 0x01
0000466A  2F01                     move.l     -[A7], D1
0000466C  2F2E FFF8                move.l     -[A7], [A6 - 0x8]
00004670  4EAD 0BDA                jsr        [A5 + 0xBDA /* export_375, CODE:10 @ 000012C8 */]
00004674  2F0B                     move.l     -[A7], A3
00004676  4EAD 081A                jsr        [A5 + 0x81A /* export_255, CODE:3 @ 00003C90 */]
0000467A  2053                     movea.l    A0, [A3]
0000467C  226E 000C                movea.l    A1, [A6 + 0xC]
00004680  32A8 00A8                move.w     [A1], [A0 + 0xA8]
00004684  206E 000C                movea.l    A0, [A6 + 0xC]
00004688  4A50                     tst.w      [A0]
0000468A  4FEF 0010                lea.l      A7, [A7 + 0x10]
0000468E  6616                     bne        +0x18 /* 000046A6 */
00004690  2054                     movea.l    A0, [A4]
00004692  2F28 0074                move.l     -[A7], [A0 + 0x74]
00004696  4EBA B9AC                jsr        [PC - 0x4654 /* 00000044 */]
0000469A  2054                     movea.l    A0, [A4]
0000469C  216E FFF4 0074           move.l     [A0 + 0x74], [A6 - 0xC]
000046A2  584F                     addq.w     A7, 4
000046A4  6006                     bra        +0x8 /* 000046AC */
label000046A6:
000046A6  206E FFF4                movea.l    A0, [A6 - 0xC]
000046AA  A023                     syscall    DisposHandle/DisposeHandle
label000046AC:
000046AC  206E FFF8                movea.l    A0, [A6 - 0x8]
000046B0  A023                     syscall    DisposHandle/DisposeHandle
label000046B2:
000046B2  206E 000C                movea.l    A0, [A6 + 0xC]
000046B6  4A50                     tst.w      [A0]
000046B8  57C3                     seq        D3
000046BA  4403                     neg.b      D3
000046BC  1003                     move.b     D0, D3
000046BE  4CEE 1808 FFE8           movem.l    D3,A3,A4, [A6 - 0x18]
000046C4  4E5E                     unlink     A6
000046C6  4E75                     rts
fn000046C8:
000046C8  4E56 FFF8                link       A6, -0x0008
000046CC  48E7 0018                movem.l    -[A7], A3,A4
000046D0  266E 000C                movea.l    A3, [A6 + 0xC]
000046D4  2053                     movea.l    A0, [A3]
000046D6  2868 0048                movea.l    A4, [A0 + 0x48]
000046DA  2054                     movea.l    A0, [A4]
000046DC  43EE FFF8                lea.l      A1, [A6 - 0x8]
000046E0  41E8 004C                lea.l      A0, [A0 + 0x4C]
000046E4  22D8                     move.l     [A1]+, [A0]+
000046E6  22D8                     move.l     [A1]+, [A0]+
000046E8  2F0C                     move.l     -[A7], A4
000046EA  4EAD 07F2                jsr        [A5 + 0x7F2 /* export_250, CODE:3 @ 00003CA2 */]
000046EE  2F0C                     move.l     -[A7], A4
000046F0  4EAD 07CA                jsr        [A5 + 0x7CA /* export_245, CODE:3 @ 00003CA8 */]
000046F4  486E FFF8                pea.l      [A6 - 0x8]
000046F8  3F2E 000A                move.w     -[A7], [A6 + 0xA]
000046FC  2F0C                     move.l     -[A7], A4
000046FE  4EAD 07FA                jsr        [A5 + 0x7FA /* export_251, CODE:3 @ 00003C9C */]
00004702  2F0C                     move.l     -[A7], A4
00004704  4EAD 07EA                jsr        [A5 + 0x7EA /* export_249, CODE:3 @ 00003CA4 */]
00004708  2053                     movea.l    A0, [A3]
0000470A  317C 0004 0072           move.w     [A0 + 0x72], 0x4
00004710  4CEE 1800 FFF0           movem.l    A3,A4, [A6 - 0x10]
00004716  4E5E                     unlink     A6
00004718  4E75                     rts
fn0000471A:
0000471A  4E56 FFF8                link       A6, -0x0008
0000471E  48E7 0018                movem.l    -[A7], A3,A4
00004722  286E 000C                movea.l    A4, [A6 + 0xC]
00004726  2054                     movea.l    A0, [A4]
00004728  2668 0048                movea.l    A3, [A0 + 0x48]
0000472C  2068 0044                movea.l    A0, [A0 + 0x44]
00004730  2050                     movea.l    A0, [A0]
00004732  4210                     clr.b      [A0]
00004734  302E 000A                move.w     D0, [A6 + 0xA]
00004738  5340                     subq.w     D0, 1
0000473A  6B00 016A                bmi        +0x16C /* 000048A6 */
0000473E  0C40 0008                cmpi.w     D0, 0x8
00004742  6E00 0162                bgt        +0x164 /* 000048A6 */
00004746  D040                     add.w      D0, D0
00004748  303B 0006                move.w     D0, [PC + D0.w + 0x6]
0000474C  4EFB 0000                jmp        [PC + D0.w]
00004750  0014 0158                ori.b      [A4], 0x58 /* 'X' */
00004754  0020 003E                ori.b      -[A0], 0x3E /* '>' */
00004758  0048 00C4                ori.w      A0, 0xC4
0000475C  0158                     bchg       [A0]+, D0
0000475E  0114                     btst       [A4], D0
00004760  0140                     bchg       D0, D0
00004762  2F0C                     move.l     -[A7], A4
00004764  4EBA F97C                jsr        [PC - 0x684 /* 000040E2 */]
00004768  584F                     addq.w     A7, 4
0000476A  6000 013A                bra        +0x13C /* 000048A6 */
0000476E  2F0B                     move.l     -[A7], A3
00004770  4EAD 085A                jsr        [A5 + 0x85A /* export_263, CODE:3 @ 00003C76 */]
00004774  2054                     movea.l    A0, [A4]
00004776  2F28 0044                move.l     -[A7], [A0 + 0x44]
0000477A  4EBA DA80                jsr        [PC - 0x2580 /* 000021FC */]
0000477E  2054                     movea.l    A0, [A4]
00004780  317C 000A 0072           move.w     [A0 + 0x72], 0xA /* '\n' */
00004786  584F                     addq.w     A7, 4
00004788  6000 011C                bra        +0x11E /* 000048A6 */
0000478C  2F0B                     move.l     -[A7], A3
0000478E  4EAD 0862                jsr        [A5 + 0x862 /* export_264, CODE:3 @ 00003C74 */]
00004792  6000 0112                bra        +0x114 /* 000048A6 */
00004796  4EBA F9BE                jsr        [PC - 0x642 /* 00004156 */]
0000479A  4A00                     tst.b      D0
0000479C  6700 0108                beq        +0x10A /* 000048A6 */
000047A0  486E FFFE                pea.l      [A6 - 0x2]
000047A4  2F0C                     move.l     -[A7], A4
000047A6  4EBA FE0A                jsr        [PC - 0x1F6 /* 000045B2 */]
000047AA  4A00                     tst.b      D0
000047AC  504F                     addq.w     A7, 8
000047AE  6744                     beq        +0x46 /* 000047F4 */
000047B0  2054                     movea.l    A0, [A4]
000047B2  2F28 0044                move.l     -[A7], [A0 + 0x44]
000047B6  4EBA DA44                jsr        [PC - 0x25BC /* 000021FC */]
000047BA  558F                     subq.l     A7, 2
000047BC  2F0B                     move.l     -[A7], A3
000047BE  4EAD 07B2                jsr        [A5 + 0x7B2 /* export_242, CODE:3 @ 00003CB0 */]
000047C2  4A1F                     tst.b      [A7]+
000047C4  584F                     addq.w     A7, 4
000047C6  6720                     beq        +0x22 /* 000047E8 */
000047C8  2053                     movea.l    A0, [A3]
000047CA  4A28 01A3                tst.b      [A0 + 0x1A3]
000047CE  6708                     beq        +0xA /* 000047D8 */
000047D0  203C 0000 0154           move.l     D0, 0x154
000047D6  6006                     bra        +0x8 /* 000047DE */
label000047D8:
000047D8  203C 0000 014D           move.l     D0, 0x14D
label000047DE:
000047DE  2F00                     move.l     -[A7], D0
000047E0  2F0C                     move.l     -[A7], A4
000047E2  4EBA C58E                jsr        [PC - 0x3A72 /* 00000D72 */]
000047E6  504F                     addq.w     A7, 8
label000047E8:
000047E8  2054                     movea.l    A0, [A4]
000047EA  317C 000C 0072           move.w     [A0 + 0x72], 0xC
000047F0  6000 00B4                bra        +0xB6 /* 000048A6 */
label000047F4:
000047F4  302E FFFE                move.w     D0, [A6 - 0x2]
000047F8  48C0                     ext.l      D0
000047FA  2F00                     move.l     -[A7], D0
000047FC  7001                     moveq.l    D0, 0x01
000047FE  2F00                     move.l     -[A7], D0
00004800  4EBA FD52                jsr        [PC - 0x2AE /* 00004554 */]
00004804  2054                     movea.l    A0, [A4]
00004806  317C 0001 0072           move.w     [A0 + 0x72], 0x1
0000480C  504F                     addq.w     A7, 8
0000480E  6000 0096                bra        +0x98 /* 000048A6 */
00004812  2F0B                     move.l     -[A7], A3
00004814  4EAD 07F2                jsr        [A5 + 0x7F2 /* export_250, CODE:3 @ 00003CA2 */]
00004818  558F                     subq.l     A7, 2
0000481A  2F0B                     move.l     -[A7], A3
0000481C  4EAD 07B2                jsr        [A5 + 0x7B2 /* export_242, CODE:3 @ 00003CB0 */]
00004820  4A1F                     tst.b      [A7]+
00004822  661C                     bne        +0x1E /* 00004840 */
00004824  2053                     movea.l    A0, [A3]
00004826  43EE FFF8                lea.l      A1, [A6 - 0x8]
0000482A  41E8 004C                lea.l      A0, [A0 + 0x4C]
0000482E  22D8                     move.l     [A1]+, [A0]+
00004830  22D8                     move.l     [A1]+, [A0]+
00004832  486E FFF8                pea.l      [A6 - 0x8]
00004836  7000                     moveq.l    D0, 0x00
00004838  3F00                     move.w     -[A7], D0
0000483A  2F0B                     move.l     -[A7], A3
0000483C  4EAD 07FA                jsr        [A5 + 0x7FA /* export_251, CODE:3 @ 00003C9C */]
label00004840:
00004840  2F0B                     move.l     -[A7], A3
00004842  4EAD 087A                jsr        [A5 + 0x87A /* export_267, CODE:3 @ 00003C6E */]
00004846  2F0B                     move.l     -[A7], A3
00004848  4EAD 07EA                jsr        [A5 + 0x7EA /* export_249, CODE:3 @ 00003CA4 */]
0000484C  2054                     movea.l    A0, [A4]
0000484E  2F28 0044                move.l     -[A7], [A0 + 0x44]
00004852  4EBA D9A8                jsr        [PC - 0x2658 /* 000021FC */]
00004856  2054                     movea.l    A0, [A4]
00004858  317C 000E 0072           move.w     [A0 + 0x72], 0xE
0000485E  584F                     addq.w     A7, 4
00004860  6044                     bra        +0x46 /* 000048A6 */
00004862  486E FFFC                pea.l      [A6 - 0x4]
00004866  7003                     moveq.l    D0, 0x03
00004868  3F00                     move.w     -[A7], D0
0000486A  3F00                     move.w     -[A7], D0
0000486C  A880                     syscall    SetPt
0000486E  2F2E FFFC                move.l     -[A7], [A6 - 0x4]
00004872  2F0B                     move.l     -[A7], A3
00004874  4EAD 0792                jsr        [A5 + 0x792 /* export_238, CODE:3 @ 00003CB8 */]
00004878  2054                     movea.l    A0, [A4]
0000487A  2F28 0044                move.l     -[A7], [A0 + 0x44]
0000487E  4EBA D97C                jsr        [PC - 0x2684 /* 000021FC */]
00004882  2054                     movea.l    A0, [A4]
00004884  317C 0010 0072           move.w     [A0 + 0x72], 0x10
0000488A  584F                     addq.w     A7, 4
0000488C  6018                     bra        +0x1A /* 000048A6 */
0000488E  2F0C                     move.l     -[A7], A4
00004890  7000                     moveq.l    D0, 0x00
00004892  2F00                     move.l     -[A7], D0
00004894  4EBA FE32                jsr        [PC - 0x1CE /* 000046C8 */]
00004898  4878 0154                push.l     0x154
0000489C  2F0C                     move.l     -[A7], A4
0000489E  4EBA C4D2                jsr        [PC - 0x3B2E /* 00000D72 */]
000048A2  4FEF 0010                lea.l      A7, [A7 + 0x10]
label000048A6:
000048A6  4CEE 1800 FFF0           movem.l    A3,A4, [A6 - 0x10]
000048AC  4E5E                     unlink     A6
000048AE  4E75                     rts
fn000048B0:
000048B0  4E56 FFFC                link       A6, -0x0004
000048B4  2F07                     move.l     -[A7], D7
000048B6  3E2E 000A                move.w     D7, [A6 + 0xA]
000048BA  486E FFFC                pea.l      [A6 - 0x4]
000048BE  7000                     moveq.l    D0, 0x00
000048C0  3F00                     move.w     -[A7], D0
000048C2  3F00                     move.w     -[A7], D0
000048C4  A880                     syscall    SetPt
000048C6  0C47 0005                cmpi.w     D7, 0x5
000048CA  6608                     bne        +0xA /* 000048D4 */
000048CC  3D7C FFFF FFFC           move.w     [A6 - 0x4], 0xFFFF
000048D2  6022                     bra        +0x24 /* 000048F6 */
label000048D4:
000048D4  0C47 0006                cmpi.w     D7, 0x6
000048D8  6608                     bne        +0xA /* 000048E2 */
000048DA  3D7C 0001 FFFC           move.w     [A6 - 0x4], 0x1
000048E0  6014                     bra        +0x16 /* 000048F6 */
label000048E2:
000048E2  0C47 0007                cmpi.w     D7, 0x7
000048E6  6608                     bne        +0xA /* 000048F0 */
000048E8  3D7C FFFF FFFE           move.w     [A6 - 0x2], 0xFFFF
000048EE  6006                     bra        +0x8 /* 000048F6 */
label000048F0:
000048F0  3D7C 0001 FFFE           move.w     [A6 - 0x2], 0x1
label000048F6:
000048F6  202E FFFC                move.l     D0, [A6 - 0x4]
000048FA  2E2E FFF8                move.l     D7, [A6 - 0x8]
000048FE  4E5E                     unlink     A6
00004900  4E75                     rts
fn00004902:
00004902  4E56 FFEC                link       A6, -0x0014
00004906  48E7 1118                movem.l    -[A7], D3,D7,A3,A4
0000490A  3E2E 000A                move.w     D7, [A6 + 0xA]
0000490E  286E 000C                movea.l    A4, [A6 + 0xC]
00004912  2054                     movea.l    A0, [A4]
00004914  2668 0048                movea.l    A3, [A0 + 0x48]
00004918  3007                     move.w     D0, D7
0000491A  5340                     subq.w     D0, 1
0000491C  6B00 0156                bmi        +0x158 /* 00004A74 */
00004920  0C40 0009                cmpi.w     D0, 0x9 /* '\t' */
00004924  6E00 014E                bgt        +0x150 /* 00004A74 */
00004928  D040                     add.w      D0, D0
0000492A  303B 0006                move.w     D0, [PC + D0.w + 0x6]
0000492E  4EFB 0000                jmp        [PC + D0.w]
00004932  0016 0016                ori.b      [A6], 0x16
00004936  003E 0144                ori.b      <<invalid special address>>, 0x44 /* 'D' */
0000493A  005C 005C                ori.w      [A4]+, 0x5C /* '\\' */
0000493E  005C 005C                ori.w      [A4]+, 0x5C /* '\\' */
00004942  0144                     bchg       D4, D0
00004944  008E 0C47 0002           ori.l      A6, 0xC470002
0000494A  57C3                     seq        D3
0000494C  4403                     neg.b      D3
0000494E  1F03                     move.b     -[A7], D3
00004950  2F0B                     move.l     -[A7], A3
00004952  4EAD 07A2                jsr        [A5 + 0x7A2 /* export_240, CODE:3 @ 00003CB4 */]
00004956  2054                     movea.l    A0, [A4]
00004958  317C 0012 0072           move.w     [A0 + 0x72], 0x12
0000495E  2054                     movea.l    A0, [A4]
00004960  2F28 0044                move.l     -[A7], [A0 + 0x44]
00004964  4EBA D896                jsr        [PC - 0x276A /* 000021FC */]
00004968  584F                     addq.w     A7, 4
0000496A  6000 0108                bra        +0x10A /* 00004A74 */
0000496E  2F0B                     move.l     -[A7], A3
00004970  4EAD 079A                jsr        [A5 + 0x79A /* export_239, CODE:3 @ 00003CB6 */]
00004974  2054                     movea.l    A0, [A4]
00004976  317C 0014 0072           move.w     [A0 + 0x72], 0x14
0000497C  2054                     movea.l    A0, [A4]
0000497E  2F28 0044                move.l     -[A7], [A0 + 0x44]
00004982  4EBA D878                jsr        [PC - 0x2788 /* 000021FC */]
00004986  584F                     addq.w     A7, 4
00004988  6000 00EA                bra        +0xEC /* 00004A74 */
0000498C  48C7                     ext.l      D7
0000498E  2F07                     move.l     -[A7], D7
00004990  4EBA FF1E                jsr        [PC - 0xE2 /* 000048B0 */]
00004994  2D40 FFFC                move.l     [A6 - 0x4], D0
00004998  558F                     subq.l     A7, 2
0000499A  2F2E FFFC                move.l     -[A7], [A6 - 0x4]
0000499E  2F0B                     move.l     -[A7], A3
000049A0  4EAD 07AA                jsr        [A5 + 0x7AA /* export_241, CODE:3 @ 00003CB2 */]
000049A4  2054                     movea.l    A0, [A4]
000049A6  317C 0006 0072           move.w     [A0 + 0x72], 0x6
000049AC  2054                     movea.l    A0, [A4]
000049AE  2F28 0044                move.l     -[A7], [A0 + 0x44]
000049B2  4EBA D848                jsr        [PC - 0x27B8 /* 000021FC */]
000049B6  4FEF 000A                lea.l      A7, [A7 + 0xA]
000049BA  6000 00B8                bra        +0xBA /* 00004A74 */
000049BE  2054                     movea.l    A0, [A4]
000049C0  2D68 0044 FFF4           move.l     [A6 - 0xC], [A0 + 0x44]
000049C6  2054                     movea.l    A0, [A4]
000049C8  2068 005C                movea.l    A0, [A0 + 0x5C]
000049CC  2D48 FFF8                move.l     [A6 - 0x8], A0
000049D0  2050                     movea.l    A0, [A0]
000049D2  4A28 0002                tst.b      [A0 + 0x2]
000049D6  57C3                     seq        D3
000049D8  4403                     neg.b      D3
000049DA  1E03                     move.b     D7, D3
000049DC  206E FFF8                movea.l    A0, [A6 - 0x8]
000049E0  2050                     movea.l    A0, [A0]
000049E2  1147 0002                move.b     [A0 + 0x2], D7
000049E6  1E07                     move.b     D7, D7
000049E8  2F3C 5052 4546           move.l     -[A7], 0x50524546 /* 'PREF' */
000049EE  3F3C 0C1C                move.w     -[A7], 0xC1C
000049F2  487A 008A                pea.l      [PC + 0x8A /* 00004A7E, value 0x12322E31, pstring "2.1 Bit Tool Prefs" */]
000049F6  2F2E FFF8                move.l     -[A7], [A6 - 0x8]
000049FA  4EAD 0E1A                jsr        [A5 + 0xE1A /* export_447, CODE:19 @ 00000000 */]
000049FE  2054                     movea.l    A0, [A4]
00004A00  2F28 0090                move.l     -[A7], [A0 + 0x90]
00004A04  700A                     moveq.l    D0, 0x0A
00004A06  3F00                     move.w     -[A7], D0
00004A08  4A07                     tst.b      D7
00004A0A  6704                     beq        +0x6 /* 00004A10 */
00004A0C  7212                     moveq.l    D1, 0x12
00004A0E  6002                     bra        +0x4 /* 00004A12 */
label00004A10:
00004A10  7200                     moveq.l    D1, 0x00
label00004A12:
00004A12  4881                     ext.w      D1
00004A14  3F01                     move.w     -[A7], D1
00004A16  A944                     syscall    SetItmMark
00004A18  2053                     movea.l    A0, [A3]
00004A1A  4868 005C                pea.l      [A0 + 0x5C]
00004A1E  7000                     moveq.l    D0, 0x00
00004A20  1007                     move.b     D0, D7
00004A22  3F00                     move.w     -[A7], D0
00004A24  7000                     moveq.l    D0, 0x00
00004A26  1007                     move.b     D0, D7
00004A28  3F00                     move.w     -[A7], D0
00004A2A  A880                     syscall    SetPt
00004A2C  2053                     movea.l    A0, [A3]
00004A2E  4868 0058                pea.l      [A0 + 0x58]
00004A32  206E FFF4                movea.l    A0, [A6 - 0xC]
00004A36  2050                     movea.l    A0, [A0]
00004A38  7000                     moveq.l    D0, 0x00
00004A3A  1007                     move.b     D0, D7
00004A3C  3228 0042                move.w     D1, [A0 + 0x42]
00004A40  9240                     sub.w      D1, D0
00004A42  3F01                     move.w     -[A7], D1
00004A44  206E FFF4                movea.l    A0, [A6 - 0xC]
00004A48  2050                     movea.l    A0, [A0]
00004A4A  7000                     moveq.l    D0, 0x00
00004A4C  1007                     move.b     D0, D7
00004A4E  3228 0042                move.w     D1, [A0 + 0x42]
00004A52  9240                     sub.w      D1, D0
00004A54  3F01                     move.w     -[A7], D1
00004A56  A880                     syscall    SetPt
00004A58  2053                     movea.l    A0, [A3]
00004A5A  43EE FFEC                lea.l      A1, [A6 - 0x14]
00004A5E  41E8 004C                lea.l      A0, [A0 + 0x4C]
00004A62  22D8                     move.l     [A1]+, [A0]+
00004A64  22D8                     move.l     [A1]+, [A0]+
00004A66  486E FFEC                pea.l      [A6 - 0x14]
00004A6A  2054                     movea.l    A0, [A4]
00004A6C  2F28 0048                move.l     -[A7], [A0 + 0x48]
00004A70  4EAD 07DA                jsr        [A5 + 0x7DA /* export_247, CODE:3 @ 00003C9E */]
label00004A74:
00004A74  4CEE 1888 FFDC           movem.l    D3,D7,A3,A4, [A6 - 0x24]
00004A7A  4E5E                     unlink     A6
00004A7C  4E75                     rts
00004A7E  1232 2E31                move.b     D1, [A2 + D2 * 8 + 0x31]
00004A82  2042                     movea.l    A0, D2
00004A84  6974                     bvs        +0x76 /* 00004AFA */
00004A86  2054                     movea.l    A0, [A4]
00004A88  6F6F                     ble        +0x71 /* 00004AF9 */
00004A8A  6C20                     bge        +0x22 /* 00004AAC */
00004A8C  5072 6566                addq.w     <<invalid full ext with IS == 1 and I/IS == 6>>, 8
00004A90  7300                     moveq.l    D1, 0x00
export_358:
00004A92  4E56 0000                link       A6, 0
00004A96  48E7 1108                movem.l    -[A7], D3,D7,A4
00004A9A  3E2E 0014                move.w     D7, [A6 + 0x14]
00004A9E  286E 0008                movea.l    A4, [A6 + 0x8]
00004AA2  2054                     movea.l    A0, [A4]
00004AA4  4A28 0062                tst.b      [A0 + 0x62]
00004AA8  57C3                     seq        D3
00004AAA  4403                     neg.b      D3
label00004AAC:
00004AAC  4883                     ext.w      D3
00004AAE  48C3                     ext.l      D3
00004AB0  2F03                     move.l     -[A7], D3
00004AB2  7000                     moveq.l    D0, 0x00
00004AB4  1028 0060                move.b     D0, [A0 + 0x60]
00004AB8  2F00                     move.l     -[A7], D0
00004ABA  4EBA B6AA                jsr        [PC - 0x4956 /* 00000166 */]
00004ABE  2054                     movea.l    A0, [A4]
00004AC0  3080                     move.w     [A0], D0
00004AC2  2054                     movea.l    A0, [A4]
00004AC4  4A50                     tst.w      [A0]
00004AC6  504F                     addq.w     A7, 8
00004AC8  6708                     beq        +0xA /* 00004AD2 */
00004ACA  3D50 0018                move.w     [A6 + 0x18], [A0]
00004ACE  6000 0088                bra        +0x8A /* 00004B58 */
label00004AD2:
00004AD2  204C                     movea.l    A0, A4
00004AD4  A029                     syscall    HLock
00004AD6  2054                     movea.l    A0, [A4]
00004AD8  216E 0010 0010           move.l     [A0 + 0x10], [A6 + 0x10]
00004ADE  2054                     movea.l    A0, [A4]
00004AE0  216E 000C 0014           move.l     [A0 + 0x14], [A6 + 0xC]
00004AE6  2054                     movea.l    A0, [A4]
00004AE8  2F28 00C2                move.l     -[A7], [A0 + 0xC2]
00004AEC  A873                     syscall    SetPort
00004AEE  302E 0016                move.w     D0, [A6 + 0x16]
00004AF2  5740                     subq.w     D0, 3
00004AF4  6710                     beq        +0x12 /* 00004B06 */
00004AF6  0440 0C19                subi.w     D0, 0xC19
label00004AFA:
00004AFA  6718                     beq        +0x1A /* 00004B14 */
00004AFC  5940                     subq.w     D0, 4
00004AFE  6722                     beq        +0x24 /* 00004B22 */
00004B00  5340                     subq.w     D0, 1
00004B02  672C                     beq        +0x2E /* 00004B30 */
00004B04  6036                     bra        +0x38 /* 00004B3C */
label00004B06:
00004B06  2F0C                     move.l     -[A7], A4
00004B08  48C7                     ext.l      D7
00004B0A  2F07                     move.l     -[A7], D7
00004B0C  4EBA FC0C                jsr        [PC - 0x3F4 /* 0000471A */]
00004B10  504F                     addq.w     A7, 8
00004B12  6028                     bra        +0x2A /* 00004B3C */
label00004B14:
00004B14  2F0C                     move.l     -[A7], A4
00004B16  48C7                     ext.l      D7
00004B18  2F07                     move.l     -[A7], D7
00004B1A  4EBA FDE6                jsr        [PC - 0x21A /* 00004902 */]
00004B1E  504F                     addq.w     A7, 8
00004B20  601A                     bra        +0x1C /* 00004B3C */
label00004B22:
00004B22  2F0C                     move.l     -[A7], A4
00004B24  48C7                     ext.l      D7
00004B26  2F07                     move.l     -[A7], D7
00004B28  4EAD 0C1A                jsr        [A5 + 0xC1A /* export_383, CODE:10 @ 00002408 */]
00004B2C  504F                     addq.w     A7, 8
00004B2E  600C                     bra        +0xE /* 00004B3C */
label00004B30:
00004B30  2F0C                     move.l     -[A7], A4
00004B32  48C7                     ext.l      D7
00004B34  2F07                     move.l     -[A7], D7
00004B36  4EAD 0C22                jsr        [A5 + 0xC22 /* export_384, CODE:10 @ 0000253A */]
00004B3A  504F                     addq.w     A7, 8
label00004B3C:
00004B3C  2054                     movea.l    A0, [A4]
00004B3E  4268 00C0                clr.w      [A0 + 0xC0]
00004B42  7000                     moveq.l    D0, 0x00
00004B44  2F00                     move.l     -[A7], D0
00004B46  2F0C                     move.l     -[A7], A4
00004B48  4EBA F9C4                jsr        [PC - 0x63C /* 0000450E */]
00004B4C  204C                     movea.l    A0, A4
00004B4E  A02A                     syscall    HUnlock
00004B50  2054                     movea.l    A0, [A4]
00004B52  3D50 0018                move.w     [A6 + 0x18], [A0]
00004B56  504F                     addq.w     A7, 8
label00004B58:
00004B58  4CEE 1088 FFF4           movem.l    D3,D7,A4, [A6 - 0xC]
00004B5E  4E5E                     unlink     A6
00004B60  205F                     movea.l    A0, [A7]+
00004B62  4FEF 0010                lea.l      A7, [A7 + 0x10]
00004B66  4ED0                     jmp        [A0]
export_359:
00004B68  4E56 FFEC                link       A6, -0x0014
00004B6C  48E7 0018                movem.l    -[A7], A3,A4
00004B70  266E 0008                movea.l    A3, [A6 + 0x8]
00004B74  286E 000C                movea.l    A4, [A6 + 0xC]
00004B78  302C 0004                move.w     D0, [A4 + 0x4]
00004B7C  48C0                     ext.l      D0
00004B7E  323C 8000                move.w     D1, 0x8000
00004B82  C240                     and.w      D1, D0
00004B84  6700 008A                beq        +0x8C /* 00004C10 */
00004B88  2F2E 0010                move.l     -[A7], [A6 + 0x10]
00004B8C  2F0C                     move.l     -[A7], A4
00004B8E  4EAD 0C2A                jsr        [A5 + 0xC2A /* export_385, CODE:10 @ 00002E7E */]
00004B92  2D40 FFEC                move.l     [A6 - 0x14], D0
00004B96  206E 0010                movea.l    A0, [A6 + 0x10]
00004B9A  4A50                     tst.w      [A0]
00004B9C  504F                     addq.w     A7, 8
00004B9E  6600 0086                bne        +0x88 /* 00004C26 */
00004BA2  598F                     subq.l     A7, 4
00004BA4  AA32                     syscall    GetGDevice
00004BA6  2D5F FFF0                move.l     [A6 - 0x10], [A7]+
00004BAA  2F2E FFEC                move.l     -[A7], [A6 - 0x14]
00004BAE  AA31                     syscall    SetGDevice
00004BB0  3D7C FFFF FFFE           move.w     [A6 - 0x2], 0xFFFF
00004BB6  3D7C FFFF FFFC           move.w     [A6 - 0x4], 0xFFFF
00004BBC  3D7C FFFF FFFA           move.w     [A6 - 0x6], 0xFFFF
00004BC2  42AE FFF6                clr.l      [A6 - 0xA]
00004BC6  426E FFF4                clr.w      [A6 - 0xC]
00004BCA  486E FFF4                pea.l      [A6 - 0xC]
00004BCE  AA14                     syscall    RGBForeColor
00004BD0  486E FFFA                pea.l      [A6 - 0x6]
00004BD4  AA15                     syscall    RGBBackColor
00004BD6  2F0B                     move.l     -[A7], A3
00004BD8  206E FFEC                movea.l    A0, [A6 - 0x14]
00004BDC  2050                     movea.l    A0, [A0]
00004BDE  2068 0016                movea.l    A0, [A0 + 0x16]
00004BE2  2F10                     move.l     -[A7], [A0]
00004BE4  486B 0006                pea.l      [A3 + 0x6]
00004BE8  486C 0006                pea.l      [A4 + 0x6]
00004BEC  7000                     moveq.l    D0, 0x00
00004BEE  3F00                     move.w     -[A7], D0
00004BF0  7200                     moveq.l    D1, 0x00
00004BF2  2F01                     move.l     -[A7], D1
00004BF4  A8EC                     syscall    CopyBits
00004BF6  2F2E FFF0                move.l     -[A7], [A6 - 0x10]
00004BFA  AA31                     syscall    SetGDevice
00004BFC  2F2E FFEC                move.l     -[A7], [A6 - 0x14]
00004C00  AA30                     syscall    DisposeGDevice/DisposGDevice
00004C02  486E FFF4                pea.l      [A6 - 0xC]
00004C06  AA14                     syscall    RGBForeColor
00004C08  486E FFFA                pea.l      [A6 - 0x6]
00004C0C  AA15                     syscall    RGBBackColor
00004C0E  6016                     bra        +0x18 /* 00004C26 */
label00004C10:
00004C10  2F0B                     move.l     -[A7], A3
00004C12  2F0C                     move.l     -[A7], A4
00004C14  486B 0006                pea.l      [A3 + 0x6]
00004C18  486C 0006                pea.l      [A4 + 0x6]
00004C1C  7000                     moveq.l    D0, 0x00
00004C1E  3F00                     move.w     -[A7], D0
00004C20  7200                     moveq.l    D1, 0x00
00004C22  2F01                     move.l     -[A7], D1
00004C24  A8EC                     syscall    CopyBits
label00004C26:
00004C26  4CEE 1800 FFE4           movem.l    A3,A4, [A6 - 0x1C]
00004C2C  4E5E                     unlink     A6
00004C2E  4E75                     rts
fn00004C30:
00004C30  4E56 FFFC                link       A6, -0x0004
00004C34  2F0C                     move.l     -[A7], A4
00004C36  42A7                     clr.l      -[A7]
00004C38  2F3C 4D45 4E55           move.l     -[A7], 0x4D454E55 /* 'MENU' */
00004C3E  3F2E 0008                move.w     -[A7], [A6 + 0x8]
00004C42  A9A0                     syscall    GetResource
00004C44  285F                     movea.l    A4, [A7]+
00004C46  200C                     move.l     D0, A4
00004C48  6718                     beq        +0x1A /* 00004C62 */
00004C4A  42A7                     clr.l      -[A7]
00004C4C  2F0C                     move.l     -[A7], A4
00004C4E  4EAD 050A                jsr        [A5 + 0x50A /* export_157, CODE:3 @ 00002510 */]
00004C52  7036                     moveq.l    D0, 0x36
00004C54  B09F                     cmp.l      D0, [A7]+
00004C56  6F0A                     ble        +0xC /* 00004C62 */
00004C58  2F0C                     move.l     -[A7], A4
00004C5A  7036                     moveq.l    D0, 0x36
00004C5C  2F00                     move.l     -[A7], D0
00004C5E  4EAD 0512                jsr        [A5 + 0x512 /* export_158, CODE:3 @ 0000251E */]
label00004C62:
00004C62  2D4C 000A                move.l     [A6 + 0xA], A4
00004C66  285F                     movea.l    A4, [A7]+
00004C68  4E5E                     unlink     A6
00004C6A  205F                     movea.l    A0, [A7]+
00004C6C  544F                     addq.w     A7, 2
00004C6E  4ED0                     jmp        [A0]
fn00004C70:
00004C70  4E56 0000                link       A6, 0
00004C74  42A7                     clr.l      -[A7]
00004C76  3F2E 0008                move.w     -[A7], [A6 + 0x8]
00004C7A  A9BF                     syscall    GetRMenu
00004C7C  2D5F 000A                move.l     [A6 + 0xA], [A7]+
00004C80  4E5E                     unlink     A6
00004C82  205F                     movea.l    A0, [A7]+
00004C84  544F                     addq.w     A7, 2
00004C86  4ED0                     jmp        [A0]
fn00004C88:
00004C88  4E56 FFEE                link       A6, -0x0012
00004C8C  2F07                     move.l     -[A7], D7
00004C8E  206E 0008                movea.l    A0, [A6 + 0x8]
00004C92  43EE FFFA                lea.l      A1, [A6 - 0x6]
00004C96  7002                     moveq.l    D0, 0x02
label00004C98:
00004C98  32D8                     move.w     [A1]+, [A0]+
00004C9A  51C8 FFFC                dbf        D0, -0x6 /* 00004C98 */
00004C9E  426E 0010                clr.w      [A6 + 0x10]
00004CA2  426E FFF0                clr.w      [A6 - 0x10]
00004CA6  206E 000C                movea.l    A0, [A6 + 0xC]
00004CAA  2050                     movea.l    A0, [A0]
00004CAC  3D68 0006 FFEE           move.w     [A6 - 0x12], [A0 + 0x6]
00004CB2  3E2E FFF0                move.w     D7, [A6 - 0x10]
00004CB6  6052                     bra        +0x54 /* 00004D0A */
label00004CB8:
00004CB8  206E 000C                movea.l    A0, [A6 + 0xC]
00004CBC  2050                     movea.l    A0, [A0]
00004CBE  3007                     move.w     D0, D7
00004CC0  E740                     asl        D0.w, 3
00004CC2  43EE FFF2                lea.l      A1, [A6 - 0xE]
00004CC6  41F0 000A                lea.l      A0, [A0 + D0.w + 0xA]
00004CCA  7002                     moveq.l    D0, 0x02
label00004CCC:
00004CCC  32D8                     move.w     [A1]+, [A0]+
00004CCE  51C8 FFFC                dbf        D0, -0x6 /* 00004CCC */
00004CD2  302E FFF2                move.w     D0, [A6 - 0xE]
00004CD6  B06E FFFA                cmp.w      D0, [A6 - 0x6]
00004CDA  57C0                     seq        D0
00004CDC  4A00                     tst.b      D0
00004CDE  6726                     beq        +0x28 /* 00004D06 */
00004CE0  322E FFF4                move.w     D1, [A6 - 0xC]
00004CE4  B26E FFFC                cmp.w      D1, [A6 - 0x4]
00004CE8  57C1                     seq        D1
00004CEA  C001                     and.b      D0, D1
00004CEC  6718                     beq        +0x1A /* 00004D06 */
00004CEE  322E FFF6                move.w     D1, [A6 - 0xA]
00004CF2  B26E FFFE                cmp.w      D1, [A6 - 0x2]
00004CF6  57C1                     seq        D1
00004CF8  C001                     and.b      D0, D1
00004CFA  670A                     beq        +0xC /* 00004D06 */
00004CFC  3007                     move.w     D0, D7
00004CFE  5240                     addq.w     D0, 1
00004D00  3D40 0010                move.w     [A6 + 0x10], D0
00004D04  600A                     bra        +0xC /* 00004D10 */
label00004D06:
00004D06  5247                     addq.w     D7, 1
00004D08  6906                     bvs        +0x8 /* 00004D10 */
label00004D0A:
00004D0A  BE6E FFEE                cmp.w      D7, [A6 - 0x12]
00004D0E  6FA8                     ble        -0x56 /* 00004CB8 */
label00004D10:
00004D10  2E1F                     move.l     D7, [A7]+
00004D12  4E5E                     unlink     A6
00004D14  205F                     movea.l    A0, [A7]+
00004D16  504F                     addq.w     A7, 8
00004D18  4ED0                     jmp        [A0]
fn00004D1A:
00004D1A  4E56 FFF8                link       A6, -0x0008
00004D1E  48E7 0308                movem.l    -[A7], D6,D7,A4
00004D22  286E 0008                movea.l    A4, [A6 + 0x8]
00004D26  2054                     movea.l    A0, [A4]
00004D28  2D68 0002 FFFC           move.l     [A6 - 0x4], [A0 + 0x2]
00004D2E  486E FFFC                pea.l      [A6 - 0x4]
00004D32  A870                     syscall    LocalToGlobal
00004D34  2054                     movea.l    A0, [A4]
00004D36  3E2E FFFE                move.w     D7, [A6 - 0x2]
00004D3A  9E68 0004                sub.w      D7, [A0 + 0x4]
00004D3E  2054                     movea.l    A0, [A4]
00004D40  3C2E FFFC                move.w     D6, [A6 - 0x4]
00004D44  9C68 0002                sub.w      D6, [A0 + 0x2]
00004D48  2F0C                     move.l     -[A7], A4
00004D4A  3F07                     move.w     -[A7], D7
00004D4C  3F06                     move.w     -[A7], D6
00004D4E  A8E0                     syscall    OffsetRgn/OfsetRgn
00004D50  4CDF 10C0                movem.l    D6,D7,A4, [A7]+
00004D54  4E5E                     unlink     A6
00004D56  2E9F                     move.l     [A7], [A7]+
00004D58  4E75                     rts
fn00004D5A:
00004D5A  4E56 FFE2                link       A6, -0x001E
00004D5E  48E7 0F18                movem.l    -[A7], D4,D5,D6,D7,A3,A4
00004D62  266E 0014                movea.l    A3, [A6 + 0x14]
00004D66  282E 000C                move.l     D4, [A6 + 0xC]
00004D6A  4205                     clr.b      D5
00004D6C  42A7                     clr.l      -[A7]
00004D6E  A8D8                     syscall    NewRgn
00004D70  2E1F                     move.l     D7, [A7]+
00004D72  42A7                     clr.l      -[A7]
00004D74  A8D8                     syscall    NewRgn
00004D76  285F                     movea.l    A4, [A7]+
00004D78  486E FFF2                pea.l      [A6 - 0xE]
00004D7C  A874                     syscall    GetPort
00004D7E  2F04                     move.l     -[A7], D4
00004D80  A873                     syscall    SetPort
00004D82  2044                     movea.l    A0, D4
00004D84  2F28 0018                move.l     -[A7], [A0 + 0x18]
00004D88  2F0C                     move.l     -[A7], A4
00004D8A  A8DC                     syscall    CopyRgn
00004D8C  2F0C                     move.l     -[A7], A4
00004D8E  4EBA FF8A                jsr        [PC - 0x76 /* 00004D1A */]
00004D92  2044                     movea.l    A0, D4
00004D94  43EE FFEA                lea.l      A1, [A6 - 0x16]
00004D98  41E8 0010                lea.l      A0, [A0 + 0x10]
00004D9C  7003                     moveq.l    D0, 0x03
label00004D9E:
00004D9E  32D8                     move.w     [A1]+, [A0]+
00004DA0  51C8 FFFC                dbf        D0, -0x6 /* 00004D9E */
00004DA4  486E FFEA                pea.l      [A6 - 0x16]
00004DA8  A870                     syscall    LocalToGlobal
00004DAA  486E FFEE                pea.l      [A6 - 0x12]
00004DAE  A870                     syscall    LocalToGlobal
00004DB0  2F2E 0008                move.l     -[A7], [A6 + 0x8]
00004DB4  A873                     syscall    SetPort
00004DB6  2F07                     move.l     -[A7], D7
00004DB8  A87A                     syscall    GetClip
00004DBA  2F0C                     move.l     -[A7], A4
00004DBC  A879                     syscall    SetClip
00004DBE  4267                     clr.w      -[A7]
00004DC0  2053                     movea.l    A0, [A3]
00004DC2  2F28 0024                move.l     -[A7], [A0 + 0x24]
00004DC6  2F2E 0010                move.l     -[A7], [A6 + 0x10]
00004DCA  4EBA FEBC                jsr        [PC - 0x144 /* 00004C88 */]
00004DCE  3C1F                     move.w     D6, [A7]+
00004DD0  3D46 FFFA                move.w     [A6 - 0x6], D6
00004DD4  2053                     movea.l    A0, [A3]
00004DD6  2F28 0006                move.l     -[A7], [A0 + 0x6]
00004DDA  205F                     movea.l    A0, [A7]+
00004DDC  A029                     syscall    HLock
label00004DDE:
00004DDE  4267                     clr.w      -[A7]
00004DE0  A973                     syscall    StillDown
00004DE2  101F                     move.b     D0, [A7]+
00004DE4  6726                     beq        +0x28 /* 00004E0C */
00004DE6  486E FFF6                pea.l      [A6 - 0xA]
00004DEA  A972                     syscall    GetMouse
00004DEC  3F3C 0001                move.w     -[A7], 0x1
00004DF0  2F0B                     move.l     -[A7], A3
00004DF2  486E FFEA                pea.l      [A6 - 0x16]
00004DF6  2F2E FFF6                move.l     -[A7], [A6 - 0xA]
00004DFA  486E FFFA                pea.l      [A6 - 0x6]
00004DFE  2053                     movea.l    A0, [A3]
00004E00  2068 0006                movea.l    A0, [A0 + 0x6]
00004E04  2F10                     move.l     -[A7], [A0]
00004E06  205F                     movea.l    A0, [A7]+
00004E08  4E90                     jsr        [A0]
00004E0A  60D2                     bra        -0x2C /* 00004DDE */
label00004E0C:
00004E0C  4A6E FFFA                tst.w      [A6 - 0x6]
00004E10  6728                     beq        +0x2A /* 00004E3A */
00004E12  BC6E FFFA                cmp.w      D6, [A6 - 0x6]
00004E16  6722                     beq        +0x24 /* 00004E3A */
00004E18  2053                     movea.l    A0, [A3]
00004E1A  2068 0024                movea.l    A0, [A0 + 0x24]
00004E1E  2050                     movea.l    A0, [A0]
00004E20  302E FFFA                move.w     D0, [A6 - 0x6]
00004E24  5340                     subq.w     D0, 1
00004E26  E740                     asl        D0.w, 3
00004E28  226E 0010                movea.l    A1, [A6 + 0x10]
00004E2C  41F0 000A                lea.l      A0, [A0 + D0.w + 0xA]
00004E30  7002                     moveq.l    D0, 0x02
label00004E32:
00004E32  32D8                     move.w     [A1]+, [A0]+
00004E34  51C8 FFFC                dbf        D0, -0x6 /* 00004E32 */
00004E38  7A01                     moveq.l    D5, 0x01
label00004E3A:
00004E3A  2053                     movea.l    A0, [A3]
00004E3C  2F28 0006                move.l     -[A7], [A0 + 0x6]
00004E40  205F                     movea.l    A0, [A7]+
00004E42  A02A                     syscall    HUnlock
00004E44  2F0B                     move.l     -[A7], A3
00004E46  A9A3                     syscall    ReleaseResource
00004E48  2F07                     move.l     -[A7], D7
00004E4A  A879                     syscall    SetClip
00004E4C  2F07                     move.l     -[A7], D7
00004E4E  A8D9                     syscall    DisposRgn/DisposeRgn
00004E50  2F0C                     move.l     -[A7], A4
00004E52  A8D9                     syscall    DisposRgn/DisposeRgn
00004E54  2F2E FFF2                move.l     -[A7], [A6 - 0xE]
00004E58  A873                     syscall    SetPort
00004E5A  1D45 0018                move.b     [A6 + 0x18], D5
00004E5E  4CDF 18F0                movem.l    D4,D5,D6,D7,A3,A4, [A7]+
00004E62  4E5E                     unlink     A6
00004E64  205F                     movea.l    A0, [A7]+
00004E66  DEFC 0010                add.w      A7, 0x10
00004E6A  4ED0                     jmp        [A0]
fn00004E6C:
00004E6C  4E56 FFE6                link       A6, -0x001A
00004E70  48E7 0318                movem.l    -[A7], D6,D7,A3,A4
00004E74  2C2E 000E                move.l     D6, [A6 + 0xE]
00004E78  2E2E 0012                move.l     D7, [A6 + 0x12]
00004E7C  42A7                     clr.l      -[A7]
00004E7E  A8D8                     syscall    NewRgn
00004E80  265F                     movea.l    A3, [A7]+
00004E82  42A7                     clr.l      -[A7]
00004E84  A8D8                     syscall    NewRgn
00004E86  285F                     movea.l    A4, [A7]+
00004E88  486E FFF6                pea.l      [A6 - 0xA]
00004E8C  A874                     syscall    GetPort
00004E8E  2F06                     move.l     -[A7], D6
00004E90  A873                     syscall    SetPort
00004E92  2046                     movea.l    A0, D6
00004E94  2F28 0018                move.l     -[A7], [A0 + 0x18]
00004E98  2F0C                     move.l     -[A7], A4
00004E9A  A8DC                     syscall    CopyRgn
00004E9C  2F0C                     move.l     -[A7], A4
00004E9E  4EBA FE7A                jsr        [PC - 0x186 /* 00004D1A */]
00004EA2  2046                     movea.l    A0, D6
00004EA4  43EE FFEE                lea.l      A1, [A6 - 0x12]
00004EA8  41E8 0010                lea.l      A0, [A0 + 0x10]
00004EAC  7003                     moveq.l    D0, 0x03
label00004EAE:
00004EAE  32D8                     move.w     [A1]+, [A0]+
00004EB0  51C8 FFFC                dbf        D0, -0x6 /* 00004EAE */
00004EB4  486E FFEE                pea.l      [A6 - 0x12]
00004EB8  A870                     syscall    LocalToGlobal
00004EBA  486E FFF2                pea.l      [A6 - 0xE]
00004EBE  A870                     syscall    LocalToGlobal
00004EC0  2F2E 000A                move.l     -[A7], [A6 + 0xA]
00004EC4  A873                     syscall    SetPort
00004EC6  2F0B                     move.l     -[A7], A3
00004EC8  A87A                     syscall    GetClip
00004ECA  2F0C                     move.l     -[A7], A4
00004ECC  A879                     syscall    SetClip
00004ECE  2047                     movea.l    A0, D7
00004ED0  2050                     movea.l    A0, [A0]
00004ED2  2F28 0006                move.l     -[A7], [A0 + 0x6]
00004ED6  205F                     movea.l    A0, [A7]+
00004ED8  A029                     syscall    HLock
00004EDA  3F2E 0008                move.w     -[A7], [A6 + 0x8]
00004EDE  2F07                     move.l     -[A7], D7
00004EE0  486E FFEE                pea.l      [A6 - 0x12]
00004EE4  2F2E FFFA                move.l     -[A7], [A6 - 0x6]
00004EE8  486E FFFE                pea.l      [A6 - 0x2]
00004EEC  2047                     movea.l    A0, D7
00004EEE  2050                     movea.l    A0, [A0]
00004EF0  2068 0006                movea.l    A0, [A0 + 0x6]
00004EF4  2F10                     move.l     -[A7], [A0]
00004EF6  205F                     movea.l    A0, [A7]+
00004EF8  4E90                     jsr        [A0]
00004EFA  2047                     movea.l    A0, D7
00004EFC  2050                     movea.l    A0, [A0]
00004EFE  2F28 0006                move.l     -[A7], [A0 + 0x6]
label00004F02:
00004F02  205F                     movea.l    A0, [A7]+
00004F04  A02A                     syscall    HUnlock
00004F06  2F07                     move.l     -[A7], D7
00004F08  A9A3                     syscall    ReleaseResource
00004F0A  2F0B                     move.l     -[A7], A3
00004F0C  A879                     syscall    SetClip
00004F0E  2F0B                     move.l     -[A7], A3
00004F10  A8D9                     syscall    DisposRgn/DisposeRgn
00004F12  2F0C                     move.l     -[A7], A4
00004F14  A8D9                     syscall    DisposRgn/DisposeRgn
00004F16  2F2E FFF6                move.l     -[A7], [A6 - 0xA]
00004F1A  A873                     syscall    SetPort
00004F1C  4CDF 18C0                movem.l    D6,D7,A3,A4, [A7]+
00004F20  4E5E                     unlink     A6
00004F22  205F                     movea.l    A0, [A7]+
00004F24  DEFC 000E                add.w      A7, 0xE
00004F28  4ED0                     jmp        [A0]
fn00004F2A:
00004F2A  4E56 FFF6                link       A6, -0x000A
00004F2E  48E7 0718                movem.l    -[A7], D5,D6,D7,A3,A4
00004F32  2A2E 0014                move.l     D5, [A6 + 0x14]
00004F36  2E2E 0008                move.l     D7, [A6 + 0x8]
00004F3A  4206                     clr.b      D6
00004F3C  4267                     clr.w      -[A7]
00004F3E  2047                     movea.l    A0, D7
00004F40  2050                     movea.l    A0, [A0]
00004F42  2068 0104                movea.l    A0, [A0 + 0x104]
00004F46  2F28 007A                move.l     -[A7], [A0 + 0x7A]
00004F4A  A8E2                     syscall    EmptyRgn
00004F4C  101F                     move.b     D0, [A7]+
00004F4E  6622                     bne        +0x24 /* 00004F72 */
00004F50  2F2E 0018                move.l     -[A7], [A6 + 0x18]
00004F54  2F05                     move.l     -[A7], D5
00004F56  2F2E 0010                move.l     -[A7], [A6 + 0x10]
00004F5A  2F2E 000C                move.l     -[A7], [A6 + 0xC]
00004F5E  2F07                     move.l     -[A7], D7
00004F60  4EBA 00BA                jsr        [PC + 0xBA /* 0000501C */]
00004F64  2047                     movea.l    A0, D7
00004F66  2050                     movea.l    A0, [A0]
00004F68  2068 0104                movea.l    A0, [A0 + 0x104]
00004F6C  2F28 007A                move.l     -[A7], [A0 + 0x7A]
00004F70  A8DD                     syscall    SetEmptyRgn
label00004F72:
00004F72  2047                     movea.l    A0, D7
00004F74  2050                     movea.l    A0, [A0]
00004F76  1028 0109                move.b     D0, [A0 + 0x109]
00004F7A  6700 008E                beq        +0x90 /* 0000500A */
00004F7E  42A7                     clr.l      -[A7]
00004F80  3F3C 0C1F                move.w     -[A7], 0xC1F
00004F84  4EBA FCAA                jsr        [PC - 0x356 /* 00004C30 */]
00004F88  265F                     movea.l    A3, [A7]+
00004F8A  486E FFF6                pea.l      [A6 - 0xA]
00004F8E  AA48                     syscall    GetCWMgrPort
00004F90  200B                     move.l     D0, A3
00004F92  6776                     beq        +0x78 /* 0000500A */
00004F94  2F0B                     move.l     -[A7], A3
00004F96  205F                     movea.l    A0, [A7]+
00004F98  A029                     syscall    HLock
00004F9A  2853                     movea.l    A4, [A3]
00004F9C  296E 0018 0010           move.l     [A4 + 0x10], [A6 + 0x18]
00004FA2  2F05                     move.l     -[A7], D5
00004FA4  4EBA FD74                jsr        [PC - 0x28C /* 00004D1A */]
00004FA8  2945 0014                move.l     [A4 + 0x14], D5
00004FAC  206E 000C                movea.l    A0, [A6 + 0xC]
00004FB0  43EC 0018                lea.l      A1, [A4 + 0x18]
00004FB4  7002                     moveq.l    D0, 0x02
label00004FB6:
00004FB6  32D8                     move.w     [A1]+, [A0]+
00004FB8  51C8 FFFC                dbf        D0, -0x6 /* 00004FB6 */
00004FBC  296E 0010 0024           move.l     [A4 + 0x24], [A6 + 0x10]
00004FC2  422C 0034                clr.b      [A4 + 0x34]
00004FC6  2F0B                     move.l     -[A7], A3
00004FC8  205F                     movea.l    A0, [A7]+
00004FCA  A02A                     syscall    HUnlock
00004FCC  42A7                     clr.l      -[A7]
00004FCE  3F3C 0C1F                move.w     -[A7], 0xC1F
00004FD2  4EBA FC9C                jsr        [PC - 0x364 /* 00004C70 */]
00004FD6  265F                     movea.l    A3, [A7]+
00004FD8  4267                     clr.w      -[A7]
00004FDA  2F0B                     move.l     -[A7], A3
00004FDC  2F2E 000C                move.l     -[A7], [A6 + 0xC]
00004FE0  2047                     movea.l    A0, D7
00004FE2  2050                     movea.l    A0, [A0]
00004FE4  2F28 0104                move.l     -[A7], [A0 + 0x104]
00004FE8  2F2E FFF6                move.l     -[A7], [A6 - 0xA]
00004FEC  4EBA FD6C                jsr        [PC - 0x294 /* 00004D5A */]
00004FF0  1C1F                     move.b     D6, [A7]+
00004FF2  1006                     move.b     D0, D6
00004FF4  6714                     beq        +0x16 /* 0000500A */
00004FF6  206E 000C                movea.l    A0, [A6 + 0xC]
00004FFA  2247                     movea.l    A1, D7
00004FFC  2251                     movea.l    A1, [A1]
00004FFE  43E9 0118                lea.l      A1, [A1 + 0x118]
00005002  7002                     moveq.l    D0, 0x02
label00005004:
00005004  32D8                     move.w     [A1]+, [A0]+
00005006  51C8 FFFC                dbf        D0, -0x6 /* 00005004 */
label0000500A:
0000500A  1D46 001C                move.b     [A6 + 0x1C], D6
0000500E  4CDF 18E0                movem.l    D5,D6,D7,A3,A4, [A7]+
00005012  4E5E                     unlink     A6
00005014  205F                     movea.l    A0, [A7]+
00005016  DEFC 0014                add.w      A7, 0x14
0000501A  4ED0                     jmp        [A0]
fn0000501C:
0000501C  4E56 FFF8                link       A6, -0x0008
00005020  48E7 0018                movem.l    -[A7], A3,A4
00005024  206E 0008                movea.l    A0, [A6 + 0x8]
00005028  2050                     movea.l    A0, [A0]
0000502A  1028 0109                move.b     D0, [A0 + 0x109]
0000502E  6774                     beq        +0x76 /* 000050A4 */
00005030  42A7                     clr.l      -[A7]
00005032  3F3C 0C1F                move.w     -[A7], 0xC1F
00005036  4EBA FBF8                jsr        [PC - 0x408 /* 00004C30 */]
0000503A  265F                     movea.l    A3, [A7]+
0000503C  486E FFF8                pea.l      [A6 - 0x8]
00005040  AA48                     syscall    GetCWMgrPort
00005042  200B                     move.l     D0, A3
00005044  675E                     beq        +0x60 /* 000050A4 */
00005046  2F0B                     move.l     -[A7], A3
00005048  205F                     movea.l    A0, [A7]+
0000504A  A029                     syscall    HLock
0000504C  2853                     movea.l    A4, [A3]
0000504E  296E 0018 0010           move.l     [A4 + 0x10], [A6 + 0x18]
00005054  2F2E 0014                move.l     -[A7], [A6 + 0x14]
00005058  4EBA FCC0                jsr        [PC - 0x340 /* 00004D1A */]
// begin alternate branch 0000505A-00005062
label0000505A:
0000505A  FCC0 296E                .extension 0xCC0 <<F/2-3/6>> // unimplemented
0000505E  0014 0014                ori.b      [A4], 0x14
// end alternate branch 0000505A-00005062
label0000505A: // (misaligned)
0000505C  296E 0014 0014           move.l     [A4 + 0x14], [A6 + 0x14]
00005062  206E 000C                movea.l    A0, [A6 + 0xC]
00005066  43EC 0018                lea.l      A1, [A4 + 0x18]
0000506A  7002                     moveq.l    D0, 0x02
label0000506C:
0000506C  32D8                     move.w     [A1]+, [A0]+
0000506E  51C8 FFFC                dbf        D0, -0x6 /* 0000506C */
00005072  296E 0010 0024           move.l     [A4 + 0x24], [A6 + 0x10]
00005078  422C 0034                clr.b      [A4 + 0x34]
0000507C  2F0B                     move.l     -[A7], A3
0000507E  205F                     movea.l    A0, [A7]+
00005080  A02A                     syscall    HUnlock
00005082  42A7                     clr.l      -[A7]
00005084  3F3C 0C1F                move.w     -[A7], 0xC1F
00005088  4EBA FBE6                jsr        [PC - 0x41A /* 00004C70 */]
0000508C  265F                     movea.l    A3, [A7]+
0000508E  2F0B                     move.l     -[A7], A3
00005090  206E 0008                movea.l    A0, [A6 + 0x8]
00005094  2050                     movea.l    A0, [A0]
00005096  2F28 0104                move.l     -[A7], [A0 + 0x104]
0000509A  2F2E FFF8                move.l     -[A7], [A6 - 0x8]
0000509E  4267                     clr.w      -[A7]
000050A0  4EBA FDCA                jsr        [PC - 0x236 /* 00004E6C */]
label000050A4:
000050A4  4CDF 1800                movem.l    A3,A4, [A7]+
000050A8  4E5E                     unlink     A6
000050AA  205F                     movea.l    A0, [A7]+
000050AC  DEFC 0014                add.w      A7, 0x14
000050B0  4ED0                     jmp        [A0]
fn000050B2:
000050B2  4E56 FFF8                link       A6, -0x0008
000050B6  48E7 0118                movem.l    -[A7], D7,A3,A4
000050BA  2E2E 0008                move.l     D7, [A6 + 0x8]
000050BE  2047                     movea.l    A0, D7
000050C0  2050                     movea.l    A0, [A0]
000050C2  1028 0109                move.b     D0, [A0 + 0x109]
000050C6  6700 00A0                beq        +0xA2 /* 00005168 */
000050CA  42A7                     clr.l      -[A7]
000050CC  3F3C 0C1F                move.w     -[A7], 0xC1F
000050D0  4EBA FB5E                jsr        [PC - 0x4A2 /* 00004C30 */]
000050D4  265F                     movea.l    A3, [A7]+
000050D6  486E FFF8                pea.l      [A6 - 0x8]
000050DA  AA48                     syscall    GetCWMgrPort
000050DC  200B                     move.l     D0, A3
000050DE  6700 0088                beq        +0x8A /* 00005168 */
000050E2  2F0B                     move.l     -[A7], A3
000050E4  205F                     movea.l    A0, [A7]+
000050E6  A029                     syscall    HLock
000050E8  2853                     movea.l    A4, [A3]
000050EA  296E 0018 0010           move.l     [A4 + 0x10], [A6 + 0x18]
000050F0  2F2E 0014                move.l     -[A7], [A6 + 0x14]
000050F4  4EBA FC24                jsr        [PC - 0x3DC /* 00004D1A */]
000050F8  296E 0014 0014           move.l     [A4 + 0x14], [A6 + 0x14]
000050FE  206E 000C                movea.l    A0, [A6 + 0xC]
00005102  43EC 0018                lea.l      A1, [A4 + 0x18]
00005106  7002                     moveq.l    D0, 0x02
label00005108:
00005108  32D8                     move.w     [A1]+, [A0]+
0000510A  51C8 FFFC                dbf        D0, -0x6 /* 00005108 */
0000510E  2047                     movea.l    A0, D7
00005110  2050                     movea.l    A0, [A0]
00005112  43EC 001E                lea.l      A1, [A4 + 0x1E]
00005116  41E8 0118                lea.l      A0, [A0 + 0x118]
0000511A  7002                     moveq.l    D0, 0x02
label0000511C:
0000511C  32D8                     move.w     [A1]+, [A0]+
0000511E  51C8 FFFC                dbf        D0, -0x6 /* 0000511C */
00005122  296E 0010 0024           move.l     [A4 + 0x24], [A6 + 0x10]
00005128  422C 0034                clr.b      [A4 + 0x34]
0000512C  2F0B                     move.l     -[A7], A3
0000512E  205F                     movea.l    A0, [A7]+
00005130  A02A                     syscall    HUnlock
00005132  42A7                     clr.l      -[A7]
00005134  3F3C 0C1F                move.w     -[A7], 0xC1F
00005138  4EBA FB36                jsr        [PC - 0x4CA /* 00004C70 */]
0000513C  265F                     movea.l    A3, [A7]+
0000513E  2F0B                     move.l     -[A7], A3
00005140  2047                     movea.l    A0, D7
00005142  2050                     movea.l    A0, [A0]
00005144  2F28 0104                move.l     -[A7], [A0 + 0x104]
00005148  2F2E FFF8                move.l     -[A7], [A6 - 0x8]
0000514C  3F3C 0080                move.w     -[A7], 0x80
00005150  4EBA FD1A                jsr        [PC - 0x2E6 /* 00004E6C */]
00005154  206E 000C                movea.l    A0, [A6 + 0xC]
00005158  2247                     movea.l    A1, D7
0000515A  2251                     movea.l    A1, [A1]
0000515C  43E9 0118                lea.l      A1, [A1 + 0x118]
00005160  7002                     moveq.l    D0, 0x02
label00005162:
00005162  32D8                     move.w     [A1]+, [A0]+
00005164  51C8 FFFC                dbf        D0, -0x6 /* 00005162 */
label00005168:
00005168  4CDF 1880                movem.l    D7,A3,A4, [A7]+
0000516C  4E5E                     unlink     A6
0000516E  205F                     movea.l    A0, [A7]+
00005170  DEFC 0014                add.w      A7, 0x14
00005174  4ED0                     jmp        [A0]
fn00005176:
00005176  4E56 FFE4                link       A6, -0x001C
0000517A  48E7 0F18                movem.l    -[A7], D4,D5,D6,D7,A3,A4
0000517E  266E 0010                movea.l    A3, [A6 + 0x10]
00005182  2E2E 001C                move.l     D7, [A6 + 0x1C]
00005186  422E FFF3                clr.b      [A6 - 0xD]
0000518A  4205                     clr.b      D5
0000518C  206E 000C                movea.l    A0, [A6 + 0xC]
00005190  2D68 0098 FFEA           move.l     [A6 - 0x16], [A0 + 0x98]
00005196  2F07                     move.l     -[A7], D7
00005198  3F3C FFFF                move.w     -[A7], 0xFFFF
0000519C  A935                     syscall    InsertMenu
0000519E  486E FFF4                pea.l      [A6 - 0xC]
000051A2  206E 0018                movea.l    A0, [A6 + 0x18]
000051A6  2050                     movea.l    A0, [A0]
000051A8  3F28 0004                move.w     -[A7], [A0 + 0x4]
000051AC  206E 0018                movea.l    A0, [A6 + 0x18]
000051B0  2050                     movea.l    A0, [A0]
000051B2  3F28 0006                move.w     -[A7], [A0 + 0x6]
000051B6  A880                     syscall    SetPt
000051B8  2F07                     move.l     -[A7], D7
000051BA  A948                     syscall    CalcMenuSize
000051BC  4267                     clr.w      -[A7]
000051BE  2047                     movea.l    A0, D7
000051C0  2050                     movea.l    A0, [A0]
000051C2  2F28 0024                move.l     -[A7], [A0 + 0x24]
000051C6  2F2E 0014                move.l     -[A7], [A6 + 0x14]
000051CA  4EBA FABC                jsr        [PC - 0x544 /* 00004C88 */]
000051CE  301F                     move.w     D0, [A7]+
000051D0  48C0                     ext.l      D0
000051D2  2800                     move.l     D4, D0
000051D4  42A7                     clr.l      -[A7]
000051D6  2F07                     move.l     -[A7], D7
000051D8  3F2E FFF4                move.w     -[A7], [A6 - 0xC]
000051DC  3F2E FFF6                move.w     -[A7], [A6 - 0xA]
000051E0  3F04                     move.w     -[A7], D4
000051E2  A80B                     syscall    PopUpMenuSelect
000051E4  2C1F                     move.l     D6, [A7]+
000051E6  2047                     movea.l    A0, D7
000051E8  2050                     movea.l    A0, [A0]
000051EA  3F10                     move.w     -[A7], [A0]
000051EC  A936                     syscall    DeleteMenu
000051EE  4A86                     tst.l      D6
000051F0  6700 012C                beq        +0x12E /* 0000531E */
000051F4  4267                     clr.w      -[A7]
000051F6  2F06                     move.l     -[A7], D6
000051F8  A86B                     syscall    LoWord
000051FA  4A5F                     tst.w      [A7]+
000051FC  6C00 00F4                bge        +0xF6 /* 000052F2 */
00005200  2047                     movea.l    A0, D7
00005202  2050                     movea.l    A0, [A0]
00005204  49E8 0028                lea.l      A4, [A0 + 0x28]
00005208  3D6C 0002 FFF6           move.w     [A6 - 0xA], [A4 + 0x2]
0000520E  3014                     move.w     D0, [A4]
00005210  D07C 000B                add.w      D0, 0xB
00005214  3D40 FFF4                move.w     [A6 - 0xC], D0
00005218  302C 0006                move.w     D0, [A4 + 0x6]
0000521C  906C 0002                sub.w      D0, [A4 + 0x2]
00005220  3D40 FFE6                move.w     [A6 - 0x1A], D0
00005224  302C 0004                move.w     D0, [A4 + 0x4]
00005228  9054                     sub.w      D0, [A4]
0000522A  907C 000B                sub.w      D0, 0xB
0000522E  3D40 FFE8                move.w     [A6 - 0x18], D0
00005232  4A93                     tst.l      [A3]
00005234  6660                     bne        +0x62 /* 00005296 */
00005236  42A7                     clr.l      -[A7]
00005238  2F3C 0000 011E           move.l     -[A7], 0x11E
0000523E  4EAD 0502                jsr        [A5 + 0x502 /* export_156, CODE:3 @ 00002506 */]
00005242  269F                     move.l     [A3], [A7]+
00005244  42A7                     clr.l      -[A7]
00005246  3F3C 0C1F                move.w     -[A7], 0xC1F
0000524A  2F13                     move.l     -[A7], [A3]
0000524C  2F2E FFEA                move.l     -[A7], [A6 - 0x16]
00005250  2F2E FFF4                move.l     -[A7], [A6 - 0xC]
00005254  4EAD 0202                jsr        [A5 + 0x202 /* export_60, CODE:1 @ 00005712 */]
00005258  2D5F FFEE                move.l     [A6 - 0x12], [A7]+
0000525C  672A                     beq        +0x2C /* 00005288 */
0000525E  2F2E FFEE                move.l     -[A7], [A6 - 0x12]
00005262  3F2E FFE6                move.w     -[A7], [A6 - 0x1A]
00005266  3F2E FFE8                move.w     -[A7], [A6 - 0x18]
0000526A  1F3C 0001                move.b     -[A7], 0x1
0000526E  A91D                     syscall    SizeWindow
00005270  206E 0014                movea.l    A0, [A6 + 0x14]
00005274  2253                     movea.l    A1, [A3]
00005276  2251                     movea.l    A1, [A1]
00005278  43E9 0118                lea.l      A1, [A1 + 0x118]
0000527C  7002                     moveq.l    D0, 0x02
label0000527E:
0000527E  32D8                     move.w     [A1]+, [A0]+
00005280  51C8 FFFC                dbf        D0, -0x6 /* 0000527E */
00005284  6000 0098                bra        +0x9A /* 0000531E */
label00005288:
00005288  2F13                     move.l     -[A7], [A3]
0000528A  205F                     movea.l    A0, [A7]+
0000528C  A023                     syscall    DisposHandle/DisposeHandle
0000528E  7000                     moveq.l    D0, 0x00
00005290  2680                     move.l     [A3], D0
00005292  6000 008A                bra        +0x8C /* 0000531E */
label00005296:
00005296  2053                     movea.l    A0, [A3]
00005298  2050                     movea.l    A0, [A0]
0000529A  2F28 0104                move.l     -[A7], [A0 + 0x104]
0000529E  2F2E FFF4                move.l     -[A7], [A6 - 0xC]
000052A2  4267                     clr.w      -[A7]
000052A4  A91B                     syscall    MoveWindow
000052A6  7A01                     moveq.l    D5, 0x01
000052A8  2053                     movea.l    A0, [A3]
000052AA  2050                     movea.l    A0, [A0]
000052AC  1028 0109                move.b     D0, [A0 + 0x109]
000052B0  666C                     bne        +0x6E /* 0000531E */
000052B2  2053                     movea.l    A0, [A3]
000052B4  2050                     movea.l    A0, [A0]
000052B6  117C 0001 0109           move.b     [A0 + 0x109], 0x1
000052BC  2053                     movea.l    A0, [A3]
000052BE  2050                     movea.l    A0, [A0]
000052C0  2F28 0104                move.l     -[A7], [A0 + 0x104]
000052C4  1F3C 0001                move.b     -[A7], 0x1
000052C8  A908                     syscall    ShowHide
000052CA  2053                     movea.l    A0, [A3]
000052CC  2050                     movea.l    A0, [A0]
000052CE  2F28 0104                move.l     -[A7], [A0 + 0x104]
000052D2  A920                     syscall    BringToFront
000052D4  2053                     movea.l    A0, [A3]
000052D6  2050                     movea.l    A0, [A0]
000052D8  2F28 0104                move.l     -[A7], [A0 + 0x104]
000052DC  1F3C 0001                move.b     -[A7], 0x1
000052E0  A91C                     syscall    HiliteWindow
000052E2  2053                     movea.l    A0, [A3]
000052E4  2050                     movea.l    A0, [A0]
000052E6  2F28 0114                move.l     -[A7], [A0 + 0x114]
000052EA  1F3C 0001                move.b     -[A7], 0x1
000052EE  A91C                     syscall    HiliteWindow
000052F0  602C                     bra        +0x2E /* 0000531E */
label000052F2:
000052F2  B886                     cmp.l      D4, D6
000052F4  6728                     beq        +0x2A /* 0000531E */
000052F6  2047                     movea.l    A0, D7
000052F8  2050                     movea.l    A0, [A0]
000052FA  2068 0024                movea.l    A0, [A0 + 0x24]
000052FE  2050                     movea.l    A0, [A0]
00005300  2006                     move.l     D0, D6
00005302  5380                     subq.l     D0, 1
00005304  E740                     asl        D0.w, 3
00005306  226E 0014                movea.l    A1, [A6 + 0x14]
0000530A  41F0 000A                lea.l      A0, [A0 + D0.w + 0xA]
0000530E  7002                     moveq.l    D0, 0x02
label00005310:
00005310  32D8                     move.w     [A1]+, [A0]+
00005312  51C8 FFFC                dbf        D0, -0x6 /* 00005310 */
00005316  1D7C 0001 FFF3           move.b     [A6 - 0xD], 0x1
0000531C  7A01                     moveq.l    D5, 0x01
label0000531E:
0000531E  4A93                     tst.l      [A3]
00005320  56C0                     sne        D0
00005322  2205                     move.l     D1, D5
00005324  C200                     and.b      D1, D0
00005326  6764                     beq        +0x66 /* 0000538C */
00005328  206E 0014                movea.l    A0, [A6 + 0x14]
0000532C  2247                     movea.l    A1, D7
0000532E  2251                     movea.l    A1, [A1]
00005330  43E9 0018                lea.l      A1, [A1 + 0x18]
00005334  7002                     moveq.l    D0, 0x02
label00005336:
00005336  32D8                     move.w     [A1]+, [A0]+
00005338  51C8 FFFC                dbf        D0, -0x6 /* 00005336 */
0000533C  2047                     movea.l    A0, D7
0000533E  2050                     movea.l    A0, [A0]
00005340  2068 0024                movea.l    A0, [A0 + 0x24]
00005344  2050                     movea.l    A0, [A0]
00005346  2004                     move.l     D0, D4
00005348  5380                     subq.l     D0, 1
0000534A  E740                     asl        D0.w, 3
0000534C  2247                     movea.l    A1, D7
0000534E  2251                     movea.l    A1, [A1]
00005350  43E9 001E                lea.l      A1, [A1 + 0x1E]
00005354  41F0 000A                lea.l      A0, [A0 + D0.w + 0xA]
00005358  7002                     moveq.l    D0, 0x02
label0000535A:
0000535A  32D8                     move.w     [A1]+, [A0]+
0000535C  51C8 FFFC                dbf        D0, -0x6 /* 0000535A */
00005360  2F07                     move.l     -[A7], D7
00005362  2053                     movea.l    A0, [A3]
00005364  2050                     movea.l    A0, [A0]
00005366  2F28 0104                move.l     -[A7], [A0 + 0x104]
0000536A  2F2E 0008                move.l     -[A7], [A6 + 0x8]
0000536E  3F3C 0080                move.w     -[A7], 0x80
00005372  4EBA FAF8                jsr        [PC - 0x508 /* 00004E6C */]
00005376  206E 0014                movea.l    A0, [A6 + 0x14]
0000537A  2253                     movea.l    A1, [A3]
0000537C  2251                     movea.l    A1, [A1]
0000537E  43E9 0118                lea.l      A1, [A1 + 0x118]
00005382  7002                     moveq.l    D0, 0x02
label00005384:
00005384  32D8                     move.w     [A1]+, [A0]+
00005386  51C8 FFFC                dbf        D0, -0x6 /* 00005384 */
0000538A  6004                     bra        +0x6 /* 00005390 */
label0000538C:
0000538C  2F07                     move.l     -[A7], D7
0000538E  A9A3                     syscall    ReleaseResource
label00005390:
00005390  1D6E FFF3 0020           move.b     [A6 + 0x20], [A6 - 0xD]
00005396  4CDF 18F0                movem.l    D4,D5,D6,D7,A3,A4, [A7]+
0000539A  4E5E                     unlink     A6
0000539C  205F                     movea.l    A0, [A7]+
0000539E  DEFC 0018                add.w      A7, 0x18
000053A2  4ED0                     jmp        [A0]
export_360:
000053A4  4E56 FFF2                link       A6, -0x000E
000053A8  48E7 0718                movem.l    -[A7], D5,D6,D7,A3,A4
000053AC  2A2E 0016                move.l     D5, [A6 + 0x16]
000053B0  2C2E 001A                move.l     D6, [A6 + 0x1A]
000053B4  4207                     clr.b      D7
000053B6  486E FFF6                pea.l      [A6 - 0xA]
000053BA  A874                     syscall    GetPort
000053BC  2F06                     move.l     -[A7], D6
000053BE  A873                     syscall    SetPort
000053C0  486E FFF2                pea.l      [A6 - 0xE]
000053C4  AA48                     syscall    GetCWMgrPort
000053C6  42A7                     clr.l      -[A7]
000053C8  3F3C 0C1F                move.w     -[A7], 0xC1F
000053CC  4EBA F862                jsr        [PC - 0x79E /* 00004C30 */]
000053D0  265F                     movea.l    A3, [A7]+
000053D2  200B                     move.l     D0, A3
000053D4  675E                     beq        +0x60 /* 00005434 */
000053D6  2F0B                     move.l     -[A7], A3
000053D8  205F                     movea.l    A0, [A7]+
000053DA  A029                     syscall    HLock
000053DC  2853                     movea.l    A4, [A3]
000053DE  2946 0010                move.l     [A4 + 0x10], D6
000053E2  2F05                     move.l     -[A7], D5
000053E4  4EBA F934                jsr        [PC - 0x6CC /* 00004D1A */]
000053E8  2945 0014                move.l     [A4 + 0x14], D5
000053EC  206E 000E                movea.l    A0, [A6 + 0xE]
000053F0  43EC 0018                lea.l      A1, [A4 + 0x18]
000053F4  7002                     moveq.l    D0, 0x02
label000053F6:
000053F6  32D8                     move.w     [A1]+, [A0]+
000053F8  51C8 FFFC                dbf        D0, -0x6 /* 000053F6 */
000053FC  296E 0012 0024           move.l     [A4 + 0x24], [A6 + 0x12]
00005402  196E 0008 0034           move.b     [A4 + 0x34], [A6 + 0x8]
00005408  2F0B                     move.l     -[A7], A3
0000540A  205F                     movea.l    A0, [A7]+
0000540C  A02A                     syscall    HUnlock
0000540E  42A7                     clr.l      -[A7]
00005410  3F3C 0C1F                move.w     -[A7], 0xC1F
00005414  4EBA F85A                jsr        [PC - 0x7A6 /* 00004C70 */]
00005418  265F                     movea.l    A3, [A7]+
0000541A  4267                     clr.w      -[A7]
0000541C  2F0B                     move.l     -[A7], A3
0000541E  2F05                     move.l     -[A7], D5
00005420  2F2E 000E                move.l     -[A7], [A6 + 0xE]
00005424  2F2E 000A                move.l     -[A7], [A6 + 0xA]
00005428  2F06                     move.l     -[A7], D6
0000542A  2F2E FFF2                move.l     -[A7], [A6 - 0xE]
0000542E  4EBA FD46                jsr        [PC - 0x2BA /* 00005176 */]
00005432  1E1F                     move.b     D7, [A7]+
label00005434:
00005434  2F2E FFF6                move.l     -[A7], [A6 - 0xA]
00005438  A873                     syscall    SetPort
0000543A  1D47 001E                move.b     [A6 + 0x1E], D7
0000543E  4CDF 18E0                movem.l    D5,D6,D7,A3,A4, [A7]+
00005442  4E5E                     unlink     A6
00005444  205F                     movea.l    A0, [A7]+
00005446  DEFC 0016                add.w      A7, 0x16
0000544A  4ED0                     jmp        [A0]
fn0000544C:
0000544C  4E56 FFFC                link       A6, -0x0004
00005450  2F0C                     move.l     -[A7], A4
00005452  42A7                     clr.l      -[A7]
00005454  2F3C 4D45 4E55           move.l     -[A7], 0x4D454E55 /* 'MENU' */
0000545A  3F2E 0008                move.w     -[A7], [A6 + 0x8]
0000545E  A9A0                     syscall    GetResource
00005460  285F                     movea.l    A4, [A7]+
00005462  200C                     move.l     D0, A4
00005464  6718                     beq        +0x1A /* 0000547E */
00005466  42A7                     clr.l      -[A7]
00005468  2F0C                     move.l     -[A7], A4
0000546A  4EAD 050A                jsr        [A5 + 0x50A /* export_157, CODE:3 @ 00002510 */]
0000546E  7040                     moveq.l    D0, 0x40
00005470  B09F                     cmp.l      D0, [A7]+
00005472  6F0A                     ble        +0xC /* 0000547E */
00005474  2F0C                     move.l     -[A7], A4
00005476  7040                     moveq.l    D0, 0x40
00005478  2F00                     move.l     -[A7], D0
0000547A  4EAD 0512                jsr        [A5 + 0x512 /* export_158, CODE:3 @ 0000251E */]
label0000547E:
0000547E  2D4C 000A                move.l     [A6 + 0xA], A4
00005482  285F                     movea.l    A4, [A7]+
00005484  4E5E                     unlink     A6
00005486  205F                     movea.l    A0, [A7]+
00005488  544F                     addq.w     A7, 2
0000548A  4ED0                     jmp        [A0]
fn0000548C:
0000548C  4E56 0000                link       A6, 0
00005490  42A7                     clr.l      -[A7]
00005492  3F2E 0008                move.w     -[A7], [A6 + 0x8]
00005496  A9BF                     syscall    GetRMenu
00005498  2D5F 000A                move.l     [A6 + 0xA], [A7]+
0000549C  4E5E                     unlink     A6
0000549E  205F                     movea.l    A0, [A7]+
000054A0  544F                     addq.w     A7, 2
000054A2  4ED0                     jmp        [A0]
fn000054A4:
000054A4  4E56 FFF8                link       A6, -0x0008
000054A8  48E7 0308                movem.l    -[A7], D6,D7,A4
000054AC  286E 0008                movea.l    A4, [A6 + 0x8]
000054B0  2054                     movea.l    A0, [A4]
000054B2  2D68 0002 FFFC           move.l     [A6 - 0x4], [A0 + 0x2]
000054B8  486E FFFC                pea.l      [A6 - 0x4]
000054BC  A870                     syscall    LocalToGlobal
000054BE  2054                     movea.l    A0, [A4]
000054C0  3E2E FFFE                move.w     D7, [A6 - 0x2]
000054C4  9E68 0004                sub.w      D7, [A0 + 0x4]
000054C8  2054                     movea.l    A0, [A4]
000054CA  3C2E FFFC                move.w     D6, [A6 - 0x4]
000054CE  9C68 0002                sub.w      D6, [A0 + 0x2]
000054D2  2F0C                     move.l     -[A7], A4
000054D4  3F07                     move.w     -[A7], D7
000054D6  3F06                     move.w     -[A7], D6
000054D8  A8E0                     syscall    OffsetRgn/OfsetRgn
000054DA  4CDF 10C0                movem.l    D6,D7,A4, [A7]+
000054DE  4E5E                     unlink     A6
000054E0  2E9F                     move.l     [A7], [A7]+
000054E2  4E75                     rts
fn000054E4:
000054E4  4E56 FFE4                link       A6, -0x001C
000054E8  48E7 0F18                movem.l    -[A7], D4,D5,D6,D7,A3,A4
000054EC  282E 000C                move.l     D4, [A6 + 0xC]
000054F0  2A2E 0010                move.l     D5, [A6 + 0x10]
000054F4  2C2E 0014                move.l     D6, [A6 + 0x14]
000054F8  4207                     clr.b      D7
000054FA  42A7                     clr.l      -[A7]
000054FC  A8D8                     syscall    NewRgn
000054FE  265F                     movea.l    A3, [A7]+
00005500  42A7                     clr.l      -[A7]
00005502  A8D8                     syscall    NewRgn
00005504  285F                     movea.l    A4, [A7]+
00005506  486E FFF4                pea.l      [A6 - 0xC]
0000550A  A874                     syscall    GetPort
0000550C  2F04                     move.l     -[A7], D4
0000550E  A873                     syscall    SetPort
00005510  2044                     movea.l    A0, D4
00005512  2F28 0018                move.l     -[A7], [A0 + 0x18]
00005516  2F0C                     move.l     -[A7], A4
00005518  A8DC                     syscall    CopyRgn
0000551A  2F0C                     move.l     -[A7], A4
0000551C  4EBA FF86                jsr        [PC - 0x7A /* 000054A4 */]
00005520  2044                     movea.l    A0, D4
00005522  43EE FFEC                lea.l      A1, [A6 - 0x14]
00005526  41E8 0010                lea.l      A0, [A0 + 0x10]
0000552A  7003                     moveq.l    D0, 0x03
label0000552C:
0000552C  32D8                     move.w     [A1]+, [A0]+
0000552E  51C8 FFFC                dbf        D0, -0x6 /* 0000552C */
00005532  486E FFEC                pea.l      [A6 - 0x14]
00005536  A870                     syscall    LocalToGlobal
00005538  486E FFF0                pea.l      [A6 - 0x10]
0000553C  A870                     syscall    LocalToGlobal
0000553E  2F2E 0008                move.l     -[A7], [A6 + 0x8]
00005542  A873                     syscall    SetPort
00005544  2F0B                     move.l     -[A7], A3
00005546  A87A                     syscall    GetClip
00005548  2F0C                     move.l     -[A7], A4
0000554A  A879                     syscall    SetClip
0000554C  2045                     movea.l    A0, D5
0000554E  3010                     move.w     D0, [A0]
00005550  5240                     addq.w     D0, 1
00005552  3D40 FFFC                move.w     [A6 - 0x4], D0
00005556  2046                     movea.l    A0, D6
00005558  2050                     movea.l    A0, [A0]
0000555A  2F28 0006                move.l     -[A7], [A0 + 0x6]
0000555E  205F                     movea.l    A0, [A7]+
00005560  A029                     syscall    HLock
label00005562:
00005562  4267                     clr.w      -[A7]
00005564  A973                     syscall    StillDown
00005566  101F                     move.b     D0, [A7]+
00005568  6728                     beq        +0x2A /* 00005592 */
0000556A  486E FFF8                pea.l      [A6 - 0x8]
0000556E  A972                     syscall    GetMouse
00005570  3F3C 0001                move.w     -[A7], 0x1
00005574  2F06                     move.l     -[A7], D6
00005576  486E FFEC                pea.l      [A6 - 0x14]
0000557A  2F2E FFF8                move.l     -[A7], [A6 - 0x8]
0000557E  486E FFFC                pea.l      [A6 - 0x4]
00005582  2046                     movea.l    A0, D6
00005584  2050                     movea.l    A0, [A0]
00005586  2068 0006                movea.l    A0, [A0 + 0x6]
0000558A  2F10                     move.l     -[A7], [A0]
0000558C  205F                     movea.l    A0, [A7]+
0000558E  4E90                     jsr        [A0]
00005590  60D0                     bra        -0x2E /* 00005562 */
label00005592:
00005592  4A6E FFFC                tst.w      [A6 - 0x4]
00005596  6718                     beq        +0x1A /* 000055B0 */
00005598  302E FFFC                move.w     D0, [A6 - 0x4]
0000559C  5340                     subq.w     D0, 1
0000559E  2045                     movea.l    A0, D5
000055A0  B050                     cmp.w      D0, [A0]
000055A2  670C                     beq        +0xE /* 000055B0 */
000055A4  302E FFFC                move.w     D0, [A6 - 0x4]
000055A8  5340                     subq.w     D0, 1
000055AA  2045                     movea.l    A0, D5
000055AC  3080                     move.w     [A0], D0
000055AE  7E01                     moveq.l    D7, 0x01
label000055B0:
000055B0  2046                     movea.l    A0, D6
000055B2  2050                     movea.l    A0, [A0]
000055B4  2F28 0006                move.l     -[A7], [A0 + 0x6]
000055B8  205F                     movea.l    A0, [A7]+
000055BA  A02A                     syscall    HUnlock
000055BC  2F06                     move.l     -[A7], D6
000055BE  A9A3                     syscall    ReleaseResource
000055C0  2F0B                     move.l     -[A7], A3
000055C2  A879                     syscall    SetClip
000055C4  2F0B                     move.l     -[A7], A3
000055C6  A8D9                     syscall    DisposRgn/DisposeRgn
000055C8  2F0C                     move.l     -[A7], A4
000055CA  A8D9                     syscall    DisposRgn/DisposeRgn
000055CC  2F2E FFF4                move.l     -[A7], [A6 - 0xC]
000055D0  A873                     syscall    SetPort
000055D2  1D47 0018                move.b     [A6 + 0x18], D7
000055D6  4CDF 18F0                movem.l    D4,D5,D6,D7,A3,A4, [A7]+
000055DA  4E5E                     unlink     A6
000055DC  205F                     movea.l    A0, [A7]+
000055DE  DEFC 0010                add.w      A7, 0x10
000055E2  4ED0                     jmp        [A0]
fn000055E4:
000055E4  4E56 FFE6                link       A6, -0x001A
000055E8  48E7 0318                movem.l    -[A7], D6,D7,A3,A4
000055EC  2C2E 000E                move.l     D6, [A6 + 0xE]
000055F0  2E2E 0012                move.l     D7, [A6 + 0x12]
000055F4  42A7                     clr.l      -[A7]
000055F6  A8D8                     syscall    NewRgn
000055F8  265F                     movea.l    A3, [A7]+
000055FA  42A7                     clr.l      -[A7]
000055FC  A8D8                     syscall    NewRgn
000055FE  285F                     movea.l    A4, [A7]+
00005600  486E FFF6                pea.l      [A6 - 0xA]
00005604  A874                     syscall    GetPort
00005606  2F06                     move.l     -[A7], D6
00005608  A873                     syscall    SetPort
0000560A  2046                     movea.l    A0, D6
0000560C  2F28 0018                move.l     -[A7], [A0 + 0x18]
00005610  2F0C                     move.l     -[A7], A4
00005612  A8DC                     syscall    CopyRgn
00005614  2F0C                     move.l     -[A7], A4
00005616  4EBA FE8C                jsr        [PC - 0x174 /* 000054A4 */]
0000561A  2046                     movea.l    A0, D6
0000561C  43EE FFEE                lea.l      A1, [A6 - 0x12]
00005620  41E8 0010                lea.l      A0, [A0 + 0x10]
00005624  7003                     moveq.l    D0, 0x03
label00005626:
00005626  32D8                     move.w     [A1]+, [A0]+
00005628  51C8 FFFC                dbf        D0, -0x6 /* 00005626 */
0000562C  486E FFEE                pea.l      [A6 - 0x12]
00005630  A870                     syscall    LocalToGlobal
00005632  486E FFF2                pea.l      [A6 - 0xE]
00005636  A870                     syscall    LocalToGlobal
00005638  2F2E 000A                move.l     -[A7], [A6 + 0xA]
0000563C  A873                     syscall    SetPort
0000563E  2F0B                     move.l     -[A7], A3
00005640  A87A                     syscall    GetClip
00005642  2F0C                     move.l     -[A7], A4
00005644  A879                     syscall    SetClip
00005646  2047                     movea.l    A0, D7
00005648  2050                     movea.l    A0, [A0]
0000564A  2F28 0006                move.l     -[A7], [A0 + 0x6]
0000564E  205F                     movea.l    A0, [A7]+
00005650  A029                     syscall    HLock
00005652  3F2E 0008                move.w     -[A7], [A6 + 0x8]
00005656  2F07                     move.l     -[A7], D7
00005658  486E FFEE                pea.l      [A6 - 0x12]
0000565C  2F2E FFFA                move.l     -[A7], [A6 - 0x6]
00005660  486E FFFE                pea.l      [A6 - 0x2]
00005664  2047                     movea.l    A0, D7
00005666  2050                     movea.l    A0, [A0]
00005668  2068 0006                movea.l    A0, [A0 + 0x6]
0000566C  2F10                     move.l     -[A7], [A0]
0000566E  205F                     movea.l    A0, [A7]+
00005670  4E90                     jsr        [A0]
00005672  2047                     movea.l    A0, D7
00005674  2050                     movea.l    A0, [A0]
00005676  2F28 0006                move.l     -[A7], [A0 + 0x6]
0000567A  205F                     movea.l    A0, [A7]+
0000567C  A02A                     syscall    HUnlock
0000567E  2F07                     move.l     -[A7], D7
00005680  A9A3                     syscall    ReleaseResource
00005682  2F0B                     move.l     -[A7], A3
00005684  A879                     syscall    SetClip
00005686  2F0B                     move.l     -[A7], A3
00005688  A8D9                     syscall    DisposRgn/DisposeRgn
0000568A  2F0C                     move.l     -[A7], A4
0000568C  A8D9                     syscall    DisposRgn/DisposeRgn
0000568E  2F2E FFF6                move.l     -[A7], [A6 - 0xA]
00005692  A873                     syscall    SetPort
00005694  4CDF 18C0                movem.l    D6,D7,A3,A4, [A7]+
00005698  4E5E                     unlink     A6
0000569A  205F                     movea.l    A0, [A7]+
0000569C  DEFC 000E                add.w      A7, 0xE
000056A0  4ED0                     jmp        [A0]
fn000056A2:
000056A2  4E56 FFEE                link       A6, -0x0012
000056A6  48E7 0318                movem.l    -[A7], D6,D7,A3,A4
000056AA  206E 0014                movea.l    A0, [A6 + 0x14]
000056AE  43EE FFF8                lea.l      A1, [A6 - 0x8]
000056B2  7003                     moveq.l    D0, 0x03
label000056B4:
000056B4  32D8                     move.w     [A1]+, [A0]+
000056B6  51C8 FFFC                dbf        D0, -0x6 /* 000056B4 */
000056BA  2C2E 0008                move.l     D6, [A6 + 0x8]
000056BE  4207                     clr.b      D7
000056C0  2046                     movea.l    A0, D6
000056C2  2050                     movea.l    A0, [A0]
000056C4  1028 0109                move.b     D0, [A0 + 0x109]
000056C8  6700 009A                beq        +0x9C /* 00005764 */
000056CC  42A7                     clr.l      -[A7]
000056CE  3F3C 0C1D                move.w     -[A7], 0xC1D
000056D2  4EBA FD78                jsr        [PC - 0x288 /* 0000544C */]
000056D6  265F                     movea.l    A3, [A7]+
000056D8  486E FFEE                pea.l      [A6 - 0x12]
000056DC  A910                     syscall    GetWMgrPort
000056DE  200B                     move.l     D0, A3
000056E0  6700 0082                beq        +0x84 /* 00005764 */
000056E4  2F0B                     move.l     -[A7], A3
000056E6  205F                     movea.l    A0, [A7]+
000056E8  A029                     syscall    HLock
000056EA  2853                     movea.l    A4, [A3]
000056EC  296E 0018 0010           move.l     [A4 + 0x10], [A6 + 0x18]
000056F2  41EC 0014                lea.l      A0, [A4 + 0x14]
000056F6  43EE FFF8                lea.l      A1, [A6 - 0x8]
000056FA  7003                     moveq.l    D0, 0x03
label000056FC:
000056FC  30D9                     move.w     [A0]+, [A1]+
000056FE  51C8 FFFC                dbf        D0, -0x6 /* 000056FC */
00005702  486C 0014                pea.l      [A4 + 0x14]
00005706  A870                     syscall    LocalToGlobal
00005708  486C 0018                pea.l      [A4 + 0x18]
0000570C  A870                     syscall    LocalToGlobal
0000570E  206E 000C                movea.l    A0, [A6 + 0xC]
00005712  3010                     move.w     D0, [A0]
00005714  5240                     addq.w     D0, 1
00005716  3940 001C                move.w     [A4 + 0x1C], D0
0000571A  296E 0010 002E           move.l     [A4 + 0x2E], [A6 + 0x10]
00005720  422C 002C                clr.b      [A4 + 0x2C]
00005724  422C 003E                clr.b      [A4 + 0x3E]
00005728  2F0B                     move.l     -[A7], A3
0000572A  205F                     movea.l    A0, [A7]+
0000572C  A02A                     syscall    HUnlock
0000572E  42A7                     clr.l      -[A7]
00005730  3F3C 0C1D                move.w     -[A7], 0xC1D
00005734  4EBA FD56                jsr        [PC - 0x2AA /* 0000548C */]
00005738  265F                     movea.l    A3, [A7]+
0000573A  4267                     clr.w      -[A7]
0000573C  2F0B                     move.l     -[A7], A3
0000573E  2F2E 000C                move.l     -[A7], [A6 + 0xC]
00005742  2046                     movea.l    A0, D6
00005744  2050                     movea.l    A0, [A0]
00005746  2F28 0104                move.l     -[A7], [A0 + 0x104]
0000574A  2F2E FFEE                move.l     -[A7], [A6 - 0x12]
0000574E  4EBA FD94                jsr        [PC - 0x26C /* 000054E4 */]
00005752  1E1F                     move.b     D7, [A7]+
00005754  1007                     move.b     D0, D7
00005756  670C                     beq        +0xE /* 00005764 */
00005758  206E 000C                movea.l    A0, [A6 + 0xC]
0000575C  2246                     movea.l    A1, D6
0000575E  2251                     movea.l    A1, [A1]
00005760  3350 0118                move.w     [A1 + 0x118], [A0]
label00005764:
00005764  1D47 001C                move.b     [A6 + 0x1C], D7
00005768  4CDF 18C0                movem.l    D6,D7,A3,A4, [A7]+
0000576C  4E5E                     unlink     A6
0000576E  205F                     movea.l    A0, [A7]+
00005770  DEFC 0014                add.w      A7, 0x14
00005774  4ED0                     jmp        [A0]
fn00005776:
00005776  4E56 FFE2                link       A6, -0x001E
0000577A  48E7 0318                movem.l    -[A7], D6,D7,A3,A4
0000577E  206E 001E                movea.l    A0, [A6 + 0x1E]
00005782  43EE FFF8                lea.l      A1, [A6 - 0x8]
00005786  7003                     moveq.l    D0, 0x03
label00005788:
00005788  32D8                     move.w     [A1]+, [A0]+
0000578A  51C8 FFFC                dbf        D0, -0x6 /* 00005788 */
0000578E  206E 001A                movea.l    A0, [A6 + 0x1A]
00005792  43EE FFF2                lea.l      A1, [A6 - 0xE]
00005796  7002                     moveq.l    D0, 0x02
label00005798:
00005798  32D8                     move.w     [A1]+, [A0]+
0000579A  51C8 FFFC                dbf        D0, -0x6 /* 00005798 */
0000579E  206E 0016                movea.l    A0, [A6 + 0x16]
000057A2  43EE FFEC                lea.l      A1, [A6 - 0x14]
000057A6  7002                     moveq.l    D0, 0x02
label000057A8:
000057A8  32D8                     move.w     [A1]+, [A0]+
000057AA  51C8 FFFC                dbf        D0, -0x6 /* 000057A8 */
000057AE  2E2E 0008                move.l     D7, [A6 + 0x8]
000057B2  4206                     clr.b      D6
000057B4  4267                     clr.w      -[A7]
000057B6  2047                     movea.l    A0, D7
000057B8  2050                     movea.l    A0, [A0]
000057BA  2068 0104                movea.l    A0, [A0 + 0x104]
000057BE  2F28 007A                move.l     -[A7], [A0 + 0x7A]
000057C2  A8E2                     syscall    EmptyRgn
000057C4  101F                     move.b     D0, [A7]+
000057C6  6630                     bne        +0x32 /* 000057F8 */
000057C8  2F2E 0022                move.l     -[A7], [A6 + 0x22]
000057CC  486E FFF8                pea.l      [A6 - 0x8]
000057D0  486E FFF2                pea.l      [A6 - 0xE]
000057D4  486E FFEC                pea.l      [A6 - 0x14]
000057D8  1F2E 0014                move.b     -[A7], [A6 + 0x14]
000057DC  2F2E 0010                move.l     -[A7], [A6 + 0x10]
000057E0  2F2E 000C                move.l     -[A7], [A6 + 0xC]
000057E4  2F07                     move.l     -[A7], D7
000057E6  4EBA 01A4                jsr        [PC + 0x1A4 /* 0000598C */]
000057EA  2047                     movea.l    A0, D7
000057EC  2050                     movea.l    A0, [A0]
000057EE  2068 0104                movea.l    A0, [A0 + 0x104]
000057F2  2F28 007A                move.l     -[A7], [A0 + 0x7A]
000057F6  A8DD                     syscall    SetEmptyRgn
label000057F8:
000057F8  2047                     movea.l    A0, D7
000057FA  2050                     movea.l    A0, [A0]
000057FC  1028 0109                move.b     D0, [A0 + 0x109]
00005800  6700 00C2                beq        +0xC4 /* 000058C4 */
00005804  42A7                     clr.l      -[A7]
00005806  3F3C 0C1E                move.w     -[A7], 0xC1E
0000580A  4EBA FC40                jsr        [PC - 0x3C0 /* 0000544C */]
0000580E  265F                     movea.l    A3, [A7]+
00005810  486E FFE2                pea.l      [A6 - 0x1E]
00005814  AA48                     syscall    GetCWMgrPort
00005816  200B                     move.l     D0, A3
00005818  6700 00AA                beq        +0xAC /* 000058C4 */
0000581C  2F0B                     move.l     -[A7], A3
0000581E  205F                     movea.l    A0, [A7]+
00005820  A029                     syscall    HLock
00005822  2853                     movea.l    A4, [A3]
00005824  296E 0022 0010           move.l     [A4 + 0x10], [A6 + 0x22]
0000582A  41EC 0014                lea.l      A0, [A4 + 0x14]
0000582E  43EE FFF8                lea.l      A1, [A6 - 0x8]
00005832  7003                     moveq.l    D0, 0x03
label00005834:
00005834  30D9                     move.w     [A0]+, [A1]+
00005836  51C8 FFFC                dbf        D0, -0x6 /* 00005834 */
0000583A  486C 0014                pea.l      [A4 + 0x14]
0000583E  A870                     syscall    LocalToGlobal
00005840  486C 0018                pea.l      [A4 + 0x18]
00005844  A870                     syscall    LocalToGlobal
00005846  206E 000C                movea.l    A0, [A6 + 0xC]
0000584A  3010                     move.w     D0, [A0]
0000584C  5240                     addq.w     D0, 1
0000584E  3940 001C                move.w     [A4 + 0x1C], D0
00005852  41EC 0020                lea.l      A0, [A4 + 0x20]
00005856  43EE FFF2                lea.l      A1, [A6 - 0xE]
0000585A  7002                     moveq.l    D0, 0x02
label0000585C:
0000585C  30D9                     move.w     [A0]+, [A1]+
0000585E  51C8 FFFC                dbf        D0, -0x6 /* 0000585C */
00005862  41EC 0026                lea.l      A0, [A4 + 0x26]
00005866  43EE FFEC                lea.l      A1, [A6 - 0x14]
0000586A  7002                     moveq.l    D0, 0x02
label0000586C:
0000586C  30D9                     move.w     [A0]+, [A1]+
0000586E  51C8 FFFC                dbf        D0, -0x6 /* 0000586C */
00005872  296E 0010 002E           move.l     [A4 + 0x2E], [A6 + 0x10]
00005878  197C 0001 002C           move.b     [A4 + 0x2C], 0x1
0000587E  196E 0014 002D           move.b     [A4 + 0x2D], [A6 + 0x14]
00005884  422C 003E                clr.b      [A4 + 0x3E]
00005888  2F0B                     move.l     -[A7], A3
0000588A  205F                     movea.l    A0, [A7]+
0000588C  A02A                     syscall    HUnlock
0000588E  42A7                     clr.l      -[A7]
00005890  3F3C 0C1E                move.w     -[A7], 0xC1E
00005894  4EBA FBF6                jsr        [PC - 0x40A /* 0000548C */]
00005898  265F                     movea.l    A3, [A7]+
0000589A  4267                     clr.w      -[A7]
0000589C  2F0B                     move.l     -[A7], A3
0000589E  2F2E 000C                move.l     -[A7], [A6 + 0xC]
000058A2  2047                     movea.l    A0, D7
000058A4  2050                     movea.l    A0, [A0]
000058A6  2F28 0104                move.l     -[A7], [A0 + 0x104]
000058AA  2F2E FFE2                move.l     -[A7], [A6 - 0x1E]
000058AE  4EBA FC34                jsr        [PC - 0x3CC /* 000054E4 */]
000058B2  1C1F                     move.b     D6, [A7]+
000058B4  1006                     move.b     D0, D6
000058B6  670C                     beq        +0xE /* 000058C4 */
000058B8  206E 000C                movea.l    A0, [A6 + 0xC]
000058BC  2247                     movea.l    A1, D7
000058BE  2251                     movea.l    A1, [A1]
000058C0  3350 0118                move.w     [A1 + 0x118], [A0]
label000058C4:
000058C4  1D46 0026                move.b     [A6 + 0x26], D6
000058C8  4CDF 18C0                movem.l    D6,D7,A3,A4, [A7]+
000058CC  4E5E                     unlink     A6
000058CE  205F                     movea.l    A0, [A7]+
000058D0  DEFC 001E                add.w      A7, 0x1E
000058D4  4ED0                     jmp        [A0]
fn000058D6:
000058D6  4E56 FFF0                link       A6, -0x0010
000058DA  48E7 0018                movem.l    -[A7], A3,A4
000058DE  206E 0014                movea.l    A0, [A6 + 0x14]
000058E2  43EE FFF8                lea.l      A1, [A6 - 0x8]
000058E6  7003                     moveq.l    D0, 0x03
label000058E8:
000058E8  32D8                     move.w     [A1]+, [A0]+
000058EA  51C8 FFFC                dbf        D0, -0x6 /* 000058E8 */
000058EE  206E 0008                movea.l    A0, [A6 + 0x8]
000058F2  2050                     movea.l    A0, [A0]
000058F4  1028 0109                move.b     D0, [A0 + 0x109]
000058F8  6700 0084                beq        +0x86 /* 0000597E */
000058FC  42A7                     clr.l      -[A7]
000058FE  3F3C 0C1D                move.w     -[A7], 0xC1D
00005902  4EBA FB48                jsr        [PC - 0x4B8 /* 0000544C */]
00005906  265F                     movea.l    A3, [A7]+
00005908  486E FFF0                pea.l      [A6 - 0x10]
0000590C  A910                     syscall    GetWMgrPort
0000590E  200B                     move.l     D0, A3
00005910  676C                     beq        +0x6E /* 0000597E */
00005912  2F0B                     move.l     -[A7], A3
00005914  205F                     movea.l    A0, [A7]+
00005916  A029                     syscall    HLock
00005918  2853                     movea.l    A4, [A3]
0000591A  296E 0018 0010           move.l     [A4 + 0x10], [A6 + 0x18]
00005920  41EC 0014                lea.l      A0, [A4 + 0x14]
00005924  43EE FFF8                lea.l      A1, [A6 - 0x8]
00005928  7003                     moveq.l    D0, 0x03
label0000592A:
0000592A  30D9                     move.w     [A0]+, [A1]+
0000592C  51C8 FFFC                dbf        D0, -0x6 /* 0000592A */
00005930  486C 0014                pea.l      [A4 + 0x14]
00005934  A870                     syscall    LocalToGlobal
00005936  486C 0018                pea.l      [A4 + 0x18]
0000593A  A870                     syscall    LocalToGlobal
0000593C  206E 000C                movea.l    A0, [A6 + 0xC]
00005940  3010                     move.w     D0, [A0]
00005942  5240                     addq.w     D0, 1
00005944  3940 001C                move.w     [A4 + 0x1C], D0
00005948  296E 0010 002E           move.l     [A4 + 0x2E], [A6 + 0x10]
0000594E  422C 002C                clr.b      [A4 + 0x2C]
00005952  422C 003E                clr.b      [A4 + 0x3E]
00005956  2F0B                     move.l     -[A7], A3
00005958  205F                     movea.l    A0, [A7]+
0000595A  A02A                     syscall    HUnlock
0000595C  42A7                     clr.l      -[A7]
0000595E  3F3C 0C1D                move.w     -[A7], 0xC1D
00005962  4EBA FB28                jsr        [PC - 0x4D8 /* 0000548C */]
00005966  265F                     movea.l    A3, [A7]+
00005968  2F0B                     move.l     -[A7], A3
0000596A  206E 0008                movea.l    A0, [A6 + 0x8]
0000596E  2050                     movea.l    A0, [A0]
00005970  2F28 0104                move.l     -[A7], [A0 + 0x104]
00005974  2F2E FFF0                move.l     -[A7], [A6 - 0x10]
00005978  4267                     clr.w      -[A7]
0000597A  4EBA FC68                jsr        [PC - 0x398 /* 000055E4 */]
label0000597E:
0000597E  4CDF 1800                movem.l    A3,A4, [A7]+
00005982  4E5E                     unlink     A6
00005984  205F                     movea.l    A0, [A7]+
00005986  DEFC 0014                add.w      A7, 0x14
0000598A  4ED0                     jmp        [A0]
fn0000598C:
0000598C  4E56 FFE4                link       A6, -0x001C
00005990  48E7 0018                movem.l    -[A7], A3,A4
00005994  206E 001E                movea.l    A0, [A6 + 0x1E]
00005998  43EE FFF8                lea.l      A1, [A6 - 0x8]
0000599C  7003                     moveq.l    D0, 0x03
label0000599E:
0000599E  32D8                     move.w     [A1]+, [A0]+
000059A0  51C8 FFFC                dbf        D0, -0x6 /* 0000599E */
000059A4  206E 001A                movea.l    A0, [A6 + 0x1A]
000059A8  43EE FFF2                lea.l      A1, [A6 - 0xE]
000059AC  7002                     moveq.l    D0, 0x02
label000059AE:
000059AE  32D8                     move.w     [A1]+, [A0]+
000059B0  51C8 FFFC                dbf        D0, -0x6 /* 000059AE */
000059B4  206E 0016                movea.l    A0, [A6 + 0x16]
000059B8  43EE FFEC                lea.l      A1, [A6 - 0x14]
000059BC  7002                     moveq.l    D0, 0x02
label000059BE:
000059BE  32D8                     move.w     [A1]+, [A0]+
000059C0  51C8 FFFC                dbf        D0, -0x6 /* 000059BE */
000059C4  206E 0008                movea.l    A0, [A6 + 0x8]
000059C8  2050                     movea.l    A0, [A0]
000059CA  1028 0109                move.b     D0, [A0 + 0x109]
000059CE  6700 00AE                beq        +0xB0 /* 00005A7E */
000059D2  42A7                     clr.l      -[A7]
000059D4  3F3C 0C1E                move.w     -[A7], 0xC1E
000059D8  4EBA FA72                jsr        [PC - 0x58E /* 0000544C */]
000059DC  265F                     movea.l    A3, [A7]+
000059DE  486E FFE4                pea.l      [A6 - 0x1C]
000059E2  AA48                     syscall    GetCWMgrPort
000059E4  200B                     move.l     D0, A3
000059E6  6700 0096                beq        +0x98 /* 00005A7E */
000059EA  2F0B                     move.l     -[A7], A3
000059EC  205F                     movea.l    A0, [A7]+
000059EE  A029                     syscall    HLock
000059F0  2853                     movea.l    A4, [A3]
000059F2  296E 0022 0010           move.l     [A4 + 0x10], [A6 + 0x22]
000059F8  41EC 0014                lea.l      A0, [A4 + 0x14]
000059FC  43EE FFF8                lea.l      A1, [A6 - 0x8]
00005A00  7003                     moveq.l    D0, 0x03
label00005A02:
00005A02  30D9                     move.w     [A0]+, [A1]+
00005A04  51C8 FFFC                dbf        D0, -0x6 /* 00005A02 */
00005A08  486C 0014                pea.l      [A4 + 0x14]
00005A0C  A870                     syscall    LocalToGlobal
00005A0E  486C 0018                pea.l      [A4 + 0x18]
00005A12  A870                     syscall    LocalToGlobal
00005A14  206E 000C                movea.l    A0, [A6 + 0xC]
00005A18  3010                     move.w     D0, [A0]
00005A1A  5240                     addq.w     D0, 1
00005A1C  3940 001C                move.w     [A4 + 0x1C], D0
00005A20  41EC 0020                lea.l      A0, [A4 + 0x20]
00005A24  43EE FFF2                lea.l      A1, [A6 - 0xE]
00005A28  7002                     moveq.l    D0, 0x02
label00005A2A:
00005A2A  30D9                     move.w     [A0]+, [A1]+
00005A2C  51C8 FFFC                dbf        D0, -0x6 /* 00005A2A */
00005A30  41EC 0026                lea.l      A0, [A4 + 0x26]
00005A34  43EE FFEC                lea.l      A1, [A6 - 0x14]
00005A38  7002                     moveq.l    D0, 0x02
label00005A3A:
00005A3A  30D9                     move.w     [A0]+, [A1]+
00005A3C  51C8 FFFC                dbf        D0, -0x6 /* 00005A3A */
00005A40  296E 0010 002E           move.l     [A4 + 0x2E], [A6 + 0x10]
00005A46  197C 0001 002C           move.b     [A4 + 0x2C], 0x1
00005A4C  196E 0014 002D           move.b     [A4 + 0x2D], [A6 + 0x14]
00005A52  422C 003E                clr.b      [A4 + 0x3E]
00005A56  2F0B                     move.l     -[A7], A3
00005A58  205F                     movea.l    A0, [A7]+
00005A5A  A02A                     syscall    HUnlock
00005A5C  42A7                     clr.l      -[A7]
00005A5E  3F3C 0C1E                move.w     -[A7], 0xC1E
00005A62  4EBA FA28                jsr        [PC - 0x5D8 /* 0000548C */]
00005A66  265F                     movea.l    A3, [A7]+
00005A68  2F0B                     move.l     -[A7], A3
00005A6A  206E 0008                movea.l    A0, [A6 + 0x8]
00005A6E  2050                     movea.l    A0, [A0]
00005A70  2F28 0104                move.l     -[A7], [A0 + 0x104]
00005A74  2F2E FFE4                move.l     -[A7], [A6 - 0x1C]
00005A78  4267                     clr.w      -[A7]
00005A7A  4EBA FB68                jsr        [PC - 0x498 /* 000055E4 */]
label00005A7E:
00005A7E  4CDF 1800                movem.l    A3,A4, [A7]+
00005A82  4E5E                     unlink     A6
00005A84  205F                     movea.l    A0, [A7]+
00005A86  DEFC 001E                add.w      A7, 0x1E
00005A8A  4ED0                     jmp        [A0]
fn00005A8C:
00005A8C  4E56 FFDE                link       A6, -0x0022
00005A90  48E7 0F18                movem.l    -[A7], D4,D5,D6,D7,A3,A4
00005A94  206E 0018                movea.l    A0, [A6 + 0x18]
00005A98  43EE FFF8                lea.l      A1, [A6 - 0x8]
00005A9C  7003                     moveq.l    D0, 0x03
label00005A9E:
00005A9E  32D8                     move.w     [A1]+, [A0]+
00005AA0  51C8 FFFC                dbf        D0, -0x6 /* 00005A9E */
00005AA4  266E 0010                movea.l    A3, [A6 + 0x10]
00005AA8  2E2E 001C                move.l     D7, [A6 + 0x1C]
00005AAC  422E FFEF                clr.b      [A6 - 0x11]
00005AB0  4205                     clr.b      D5
00005AB2  206E 000C                movea.l    A0, [A6 + 0xC]
00005AB6  2D68 0098 FFE6           move.l     [A6 - 0x1A], [A0 + 0x98]
00005ABC  2F07                     move.l     -[A7], D7
00005ABE  3F3C FFFF                move.w     -[A7], 0xFFFF
00005AC2  A935                     syscall    InsertMenu
00005AC4  486E FFF0                pea.l      [A6 - 0x10]
00005AC8  3F2E FFFA                move.w     -[A7], [A6 - 0x6]
00005ACC  3F2E FFFC                move.w     -[A7], [A6 - 0x4]
00005AD0  A880                     syscall    SetPt
00005AD2  486E FFF0                pea.l      [A6 - 0x10]
00005AD6  A870                     syscall    LocalToGlobal
00005AD8  2F07                     move.l     -[A7], D7
00005ADA  A948                     syscall    CalcMenuSize
00005ADC  206E 0014                movea.l    A0, [A6 + 0x14]
00005AE0  3810                     move.w     D4, [A0]
00005AE2  42A7                     clr.l      -[A7]
00005AE4  2F07                     move.l     -[A7], D7
00005AE6  3F2E FFF0                move.w     -[A7], [A6 - 0x10]
00005AEA  3F2E FFF2                move.w     -[A7], [A6 - 0xE]
00005AEE  206E 0014                movea.l    A0, [A6 + 0x14]
00005AF2  3010                     move.w     D0, [A0]
00005AF4  5240                     addq.w     D0, 1
00005AF6  3F00                     move.w     -[A7], D0
00005AF8  A80B                     syscall    PopUpMenuSelect
00005AFA  2C1F                     move.l     D6, [A7]+
00005AFC  2047                     movea.l    A0, D7
00005AFE  2050                     movea.l    A0, [A0]
00005B00  3F10                     move.w     -[A7], [A0]
00005B02  A936                     syscall    DeleteMenu
00005B04  4A86                     tst.l      D6
00005B06  6700 011E                beq        +0x120 /* 00005C26 */
00005B0A  4267                     clr.w      -[A7]
00005B0C  2F06                     move.l     -[A7], D6
00005B0E  A86B                     syscall    LoWord
00005B10  4A5F                     tst.w      [A7]+
00005B12  6C00 00E8                bge        +0xEA /* 00005BFC */
00005B16  2047                     movea.l    A0, D7
00005B18  2050                     movea.l    A0, [A0]
00005B1A  49E8 0032                lea.l      A4, [A0 + 0x32]
00005B1E  3D6C 0002 FFF2           move.w     [A6 - 0xE], [A4 + 0x2]
00005B24  3014                     move.w     D0, [A4]
00005B26  D07C 000B                add.w      D0, 0xB
00005B2A  3D40 FFF0                move.w     [A6 - 0x10], D0
00005B2E  302C 0006                move.w     D0, [A4 + 0x6]
00005B32  906C 0002                sub.w      D0, [A4 + 0x2]
00005B36  3D40 FFE0                move.w     [A6 - 0x20], D0
00005B3A  302C 0004                move.w     D0, [A4 + 0x4]
00005B3E  9054                     sub.w      D0, [A4]
00005B40  907C 000B                sub.w      D0, 0xB
00005B44  3D40 FFE2                move.w     [A6 - 0x1E], D0
00005B48  4A93                     tst.l      [A3]
00005B4A  6654                     bne        +0x56 /* 00005BA0 */
00005B4C  42A7                     clr.l      -[A7]
00005B4E  2F3C 0000 011A           move.l     -[A7], 0x11A
00005B54  4EAD 0502                jsr        [A5 + 0x502 /* export_156, CODE:3 @ 00002506 */]
00005B58  269F                     move.l     [A3], [A7]+
00005B5A  42A7                     clr.l      -[A7]
00005B5C  3F3C 0C1D                move.w     -[A7], 0xC1D
00005B60  2F13                     move.l     -[A7], [A3]
00005B62  2F2E FFE6                move.l     -[A7], [A6 - 0x1A]
00005B66  2F2E FFF0                move.l     -[A7], [A6 - 0x10]
00005B6A  4EAD 0202                jsr        [A5 + 0x202 /* export_60, CODE:1 @ 00005712 */]
00005B6E  2D5F FFEA                move.l     [A6 - 0x16], [A7]+
00005B72  671E                     beq        +0x20 /* 00005B92 */
00005B74  2F2E FFEA                move.l     -[A7], [A6 - 0x16]
00005B78  3F2E FFE0                move.w     -[A7], [A6 - 0x20]
00005B7C  3F2E FFE2                move.w     -[A7], [A6 - 0x1E]
00005B80  1F3C 0001                move.b     -[A7], 0x1
00005B84  A91D                     syscall    SizeWindow
00005B86  2053                     movea.l    A0, [A3]
00005B88  2050                     movea.l    A0, [A0]
00005B8A  3144 0118                move.w     [A0 + 0x118], D4
00005B8E  6000 0096                bra        +0x98 /* 00005C26 */
label00005B92:
00005B92  2F13                     move.l     -[A7], [A3]
00005B94  205F                     movea.l    A0, [A7]+
00005B96  A023                     syscall    DisposHandle/DisposeHandle
00005B98  7000                     moveq.l    D0, 0x00
00005B9A  2680                     move.l     [A3], D0
00005B9C  6000 0088                bra        +0x8A /* 00005C26 */
label00005BA0:
00005BA0  2053                     movea.l    A0, [A3]
00005BA2  2050                     movea.l    A0, [A0]
00005BA4  2F28 0104                move.l     -[A7], [A0 + 0x104]
00005BA8  2F2E FFF0                move.l     -[A7], [A6 - 0x10]
00005BAC  4267                     clr.w      -[A7]
00005BAE  A91B                     syscall    MoveWindow
00005BB0  7A01                     moveq.l    D5, 0x01
00005BB2  2053                     movea.l    A0, [A3]
00005BB4  2050                     movea.l    A0, [A0]
00005BB6  1028 0109                move.b     D0, [A0 + 0x109]
00005BBA  666A                     bne        +0x6C /* 00005C26 */
00005BBC  2053                     movea.l    A0, [A3]
00005BBE  2050                     movea.l    A0, [A0]
00005BC0  117C 0001 0109           move.b     [A0 + 0x109], 0x1
00005BC6  2053                     movea.l    A0, [A3]
00005BC8  2050                     movea.l    A0, [A0]
00005BCA  2F28 0104                move.l     -[A7], [A0 + 0x104]
00005BCE  1F3C 0001                move.b     -[A7], 0x1
00005BD2  A908                     syscall    ShowHide
00005BD4  2053                     movea.l    A0, [A3]
00005BD6  2050                     movea.l    A0, [A0]
00005BD8  2F28 0104                move.l     -[A7], [A0 + 0x104]
00005BDC  A920                     syscall    BringToFront
00005BDE  2053                     movea.l    A0, [A3]
00005BE0  2050                     movea.l    A0, [A0]
00005BE2  2F28 0104                move.l     -[A7], [A0 + 0x104]
00005BE6  1F3C 0001                move.b     -[A7], 0x1
00005BEA  A91C                     syscall    HiliteWindow
00005BEC  2053                     movea.l    A0, [A3]
00005BEE  2050                     movea.l    A0, [A0]
00005BF0  2F28 0114                move.l     -[A7], [A0 + 0x114]
00005BF4  1F3C 0001                move.b     -[A7], 0x1
00005BF8  A91C                     syscall    HiliteWindow
00005BFA  602A                     bra        +0x2C /* 00005C26 */
label00005BFC:
00005BFC  4267                     clr.w      -[A7]
00005BFE  2F06                     move.l     -[A7], D6
00005C00  A86B                     syscall    LoWord
00005C02  301F                     move.w     D0, [A7]+
00005C04  5340                     subq.w     D0, 1
00005C06  B840                     cmp.w      D4, D0
00005C08  671C                     beq        +0x1E /* 00005C26 */
00005C0A  206E 0014                movea.l    A0, [A6 + 0x14]
00005C0E  2F08                     move.l     -[A7], A0
00005C10  4267                     clr.w      -[A7]
00005C12  2F06                     move.l     -[A7], D6
00005C14  A86B                     syscall    LoWord
00005C16  301F                     move.w     D0, [A7]+
00005C18  205F                     movea.l    A0, [A7]+
00005C1A  5340                     subq.w     D0, 1
00005C1C  3080                     move.w     [A0], D0
00005C1E  1D7C 0001 FFEF           move.b     [A6 - 0x11], 0x1
00005C24  7A01                     moveq.l    D5, 0x01
label00005C26:
00005C26  4A93                     tst.l      [A3]
00005C28  56C0                     sne        D0
00005C2A  2205                     move.l     D1, D5
00005C2C  C200                     and.b      D1, D0
00005C2E  6740                     beq        +0x42 /* 00005C70 */
00005C30  206E 0014                movea.l    A0, [A6 + 0x14]
00005C34  3010                     move.w     D0, [A0]
00005C36  5240                     addq.w     D0, 1
00005C38  2047                     movea.l    A0, D7
00005C3A  2050                     movea.l    A0, [A0]
00005C3C  3140 001C                move.w     [A0 + 0x1C], D0
00005C40  3004                     move.w     D0, D4
00005C42  5240                     addq.w     D0, 1
00005C44  2047                     movea.l    A0, D7
00005C46  2050                     movea.l    A0, [A0]
00005C48  3140 001E                move.w     [A0 + 0x1E], D0
00005C4C  2F07                     move.l     -[A7], D7
00005C4E  2053                     movea.l    A0, [A3]
00005C50  2050                     movea.l    A0, [A0]
00005C52  2F28 0104                move.l     -[A7], [A0 + 0x104]
00005C56  2F2E 0008                move.l     -[A7], [A6 + 0x8]
00005C5A  3F3C 0080                move.w     -[A7], 0x80
00005C5E  4EBA F984                jsr        [PC - 0x67C /* 000055E4 */]
00005C62  206E 0014                movea.l    A0, [A6 + 0x14]
00005C66  2253                     movea.l    A1, [A3]
00005C68  2251                     movea.l    A1, [A1]
00005C6A  3350 0118                move.w     [A1 + 0x118], [A0]
00005C6E  6004                     bra        +0x6 /* 00005C74 */
label00005C70:
00005C70  2F07                     move.l     -[A7], D7
00005C72  A9A3                     syscall    ReleaseResource
label00005C74:
00005C74  1D6E FFEF 0020           move.b     [A6 + 0x20], [A6 - 0x11]
00005C7A  4CDF 18F0                movem.l    D4,D5,D6,D7,A3,A4, [A7]+
00005C7E  4E5E                     unlink     A6
00005C80  205F                     movea.l    A0, [A7]+
00005C82  DEFC 0018                add.w      A7, 0x18
00005C86  4ED0                     jmp        [A0]
fn00005C88:
00005C88  4E56 FFD2                link       A6, -0x002E
00005C8C  48E7 0318                movem.l    -[A7], D6,D7,A3,A4
00005C90  206E 0020                movea.l    A0, [A6 + 0x20]
00005C94  43EE FFF8                lea.l      A1, [A6 - 0x8]
00005C98  7003                     moveq.l    D0, 0x03
label00005C9A:
00005C9A  32D8                     move.w     [A1]+, [A0]+
00005C9C  51C8 FFFC                dbf        D0, -0x6 /* 00005C9A */
00005CA0  206E 001C                movea.l    A0, [A6 + 0x1C]
00005CA4  43EE FFF2                lea.l      A1, [A6 - 0xE]
00005CA8  7002                     moveq.l    D0, 0x02
label00005CAA:
00005CAA  32D8                     move.w     [A1]+, [A0]+
00005CAC  51C8 FFFC                dbf        D0, -0x6 /* 00005CAA */
00005CB0  206E 0018                movea.l    A0, [A6 + 0x18]
00005CB4  43EE FFEC                lea.l      A1, [A6 - 0x14]
00005CB8  7002                     moveq.l    D0, 0x02
label00005CBA:
00005CBA  32D8                     move.w     [A1]+, [A0]+
00005CBC  51C8 FFFC                dbf        D0, -0x6 /* 00005CBA */
00005CC0  2C2E 0024                move.l     D6, [A6 + 0x24]
00005CC4  4207                     clr.b      D7
00005CC6  486E FFD6                pea.l      [A6 - 0x2A]
00005CCA  A874                     syscall    GetPort
00005CCC  2F06                     move.l     -[A7], D6
00005CCE  A873                     syscall    SetPort
00005CD0  486E FFD2                pea.l      [A6 - 0x2E]
00005CD4  AA48                     syscall    GetCWMgrPort
00005CD6  42A7                     clr.l      -[A7]
00005CD8  3F3C 0C1E                move.w     -[A7], 0xC1E
00005CDC  4EBA F76E                jsr        [PC - 0x892 /* 0000544C */]
00005CE0  265F                     movea.l    A3, [A7]+
00005CE2  200B                     move.l     D0, A3
00005CE4  6700 009C                beq        +0x9E /* 00005D82 */
00005CE8  2F0B                     move.l     -[A7], A3
00005CEA  205F                     movea.l    A0, [A7]+
00005CEC  A029                     syscall    HLock
00005CEE  2853                     movea.l    A4, [A3]
00005CF0  2946 0010                move.l     [A4 + 0x10], D6
00005CF4  41EC 0014                lea.l      A0, [A4 + 0x14]
00005CF8  43EE FFF8                lea.l      A1, [A6 - 0x8]
00005CFC  7003                     moveq.l    D0, 0x03
label00005CFE:
00005CFE  30D9                     move.w     [A0]+, [A1]+
00005D00  51C8 FFFC                dbf        D0, -0x6 /* 00005CFE */
00005D04  486C 0014                pea.l      [A4 + 0x14]
00005D08  A870                     syscall    LocalToGlobal
00005D0A  486C 0018                pea.l      [A4 + 0x18]
00005D0E  A870                     syscall    LocalToGlobal
00005D10  206E 000E                movea.l    A0, [A6 + 0xE]
00005D14  3010                     move.w     D0, [A0]
00005D16  5240                     addq.w     D0, 1
00005D18  3940 001C                move.w     [A4 + 0x1C], D0
00005D1C  41EC 0020                lea.l      A0, [A4 + 0x20]
00005D20  43EE FFF2                lea.l      A1, [A6 - 0xE]
00005D24  7002                     moveq.l    D0, 0x02
label00005D26:
00005D26  30D9                     move.w     [A0]+, [A1]+
00005D28  51C8 FFFC                dbf        D0, -0x6 /* 00005D26 */
00005D2C  41EC 0026                lea.l      A0, [A4 + 0x26]
00005D30  43EE FFEC                lea.l      A1, [A6 - 0x14]
00005D34  7002                     moveq.l    D0, 0x02
label00005D36:
00005D36  30D9                     move.w     [A0]+, [A1]+
00005D38  51C8 FFFC                dbf        D0, -0x6 /* 00005D36 */
00005D3C  296E 0012 002E           move.l     [A4 + 0x2E], [A6 + 0x12]
00005D42  197C 0001 002C           move.b     [A4 + 0x2C], 0x1
00005D48  196E 0016 002D           move.b     [A4 + 0x2D], [A6 + 0x16]
00005D4E  196E 0008 003E           move.b     [A4 + 0x3E], [A6 + 0x8]
00005D54  2F0B                     move.l     -[A7], A3
00005D56  205F                     movea.l    A0, [A7]+
00005D58  A02A                     syscall    HUnlock
00005D5A  42A7                     clr.l      -[A7]
00005D5C  3F3C 0C1E                move.w     -[A7], 0xC1E
00005D60  4EBA F72A                jsr        [PC - 0x8D6 /* 0000548C */]
00005D64  265F                     movea.l    A3, [A7]+
00005D66  4267                     clr.w      -[A7]
00005D68  2F0B                     move.l     -[A7], A3
00005D6A  486E FFF8                pea.l      [A6 - 0x8]
00005D6E  2F2E 000E                move.l     -[A7], [A6 + 0xE]
00005D72  2F2E 000A                move.l     -[A7], [A6 + 0xA]
00005D76  2F06                     move.l     -[A7], D6
00005D78  2F2E FFD2                move.l     -[A7], [A6 - 0x2E]
00005D7C  4EBA FD0E                jsr        [PC - 0x2F2 /* 00005A8C */]
00005D80  1E1F                     move.b     D7, [A7]+
label00005D82:
00005D82  2F2E FFD6                move.l     -[A7], [A6 - 0x2A]
00005D86  A873                     syscall    SetPort
00005D88  1D47 0028                move.b     [A6 + 0x28], D7
00005D8C  4CDF 18C0                movem.l    D6,D7,A3,A4, [A7]+
00005D90  4E5E                     unlink     A6
00005D92  205F                     movea.l    A0, [A7]+
00005D94  DEFC 0020                add.w      A7, 0x20 /* ' ' */
00005D98  4ED0                     jmp        [A0]
fn00005D9A:
00005D9A  4E56 FFEA                link       A6, -0x0016
00005D9E  48E7 0318                movem.l    -[A7], D6,D7,A3,A4
00005DA2  206E 0016                movea.l    A0, [A6 + 0x16]
00005DA6  43EE FFF8                lea.l      A1, [A6 - 0x8]
00005DAA  7003                     moveq.l    D0, 0x03
label00005DAC:
00005DAC  32D8                     move.w     [A1]+, [A0]+
00005DAE  51C8 FFFC                dbf        D0, -0x6 /* 00005DAC */
00005DB2  2C2E 001A                move.l     D6, [A6 + 0x1A]
00005DB6  4207                     clr.b      D7
00005DB8  486E FFEE                pea.l      [A6 - 0x12]
00005DBC  A874                     syscall    GetPort
00005DBE  2F06                     move.l     -[A7], D6
00005DC0  A873                     syscall    SetPort
00005DC2  486E FFEA                pea.l      [A6 - 0x16]
00005DC6  A910                     syscall    GetWMgrPort
00005DC8  42A7                     clr.l      -[A7]
00005DCA  3F3C 0C1D                move.w     -[A7], 0xC1D
00005DCE  4EBA F67C                jsr        [PC - 0x984 /* 0000544C */]
00005DD2  265F                     movea.l    A3, [A7]+
00005DD4  200B                     move.l     D0, A3
00005DD6  6772                     beq        +0x74 /* 00005E4A */
00005DD8  2F0B                     move.l     -[A7], A3
00005DDA  205F                     movea.l    A0, [A7]+
00005DDC  A029                     syscall    HLock
00005DDE  2853                     movea.l    A4, [A3]
00005DE0  2946 0010                move.l     [A4 + 0x10], D6
00005DE4  41EC 0014                lea.l      A0, [A4 + 0x14]
00005DE8  43EE FFF8                lea.l      A1, [A6 - 0x8]
00005DEC  7003                     moveq.l    D0, 0x03
label00005DEE:
00005DEE  30D9                     move.w     [A0]+, [A1]+
00005DF0  51C8 FFFC                dbf        D0, -0x6 /* 00005DEE */
00005DF4  486C 0014                pea.l      [A4 + 0x14]
00005DF8  A870                     syscall    LocalToGlobal
00005DFA  486C 0018                pea.l      [A4 + 0x18]
00005DFE  A870                     syscall    LocalToGlobal
00005E00  206E 000E                movea.l    A0, [A6 + 0xE]
00005E04  3010                     move.w     D0, [A0]
00005E06  5240                     addq.w     D0, 1
00005E08  3940 001C                move.w     [A4 + 0x1C], D0
00005E0C  296E 0012 002E           move.l     [A4 + 0x2E], [A6 + 0x12]
00005E12  422C 002C                clr.b      [A4 + 0x2C]
00005E16  196E 0008 003E           move.b     [A4 + 0x3E], [A6 + 0x8]
00005E1C  2F0B                     move.l     -[A7], A3
00005E1E  205F                     movea.l    A0, [A7]+
00005E20  A02A                     syscall    HUnlock
00005E22  42A7                     clr.l      -[A7]
00005E24  3F3C 0C1D                move.w     -[A7], 0xC1D
00005E28  4EBA F662                jsr        [PC - 0x99E /* 0000548C */]
00005E2C  265F                     movea.l    A3, [A7]+
00005E2E  4267                     clr.w      -[A7]
00005E30  2F0B                     move.l     -[A7], A3
00005E32  486E FFF8                pea.l      [A6 - 0x8]
00005E36  2F2E 000E                move.l     -[A7], [A6 + 0xE]
00005E3A  2F2E 000A                move.l     -[A7], [A6 + 0xA]
00005E3E  2F06                     move.l     -[A7], D6
00005E40  2F2E FFEA                move.l     -[A7], [A6 - 0x16]
00005E44  4EBA FC46                jsr        [PC - 0x3BA /* 00005A8C */]
00005E48  1E1F                     move.b     D7, [A7]+
label00005E4A:
00005E4A  2F2E FFEE                move.l     -[A7], [A6 - 0x12]
00005E4E  A873                     syscall    SetPort
00005E50  1D47 001E                move.b     [A6 + 0x1E], D7
00005E54  4CDF 18C0                movem.l    D6,D7,A3,A4, [A7]+
00005E58  4E5E                     unlink     A6
00005E5A  205F                     movea.l    A0, [A7]+
00005E5C  DEFC 0016                add.w      A7, 0x16
00005E60  4ED0                     jmp        [A0]
