# export_0 => 00000016
# export_1 => 0000001A
# export_2 => 0000001E
# export_3 => 00000022
# export_4 => 00000026
# export_5 => 0000002A
# export_6 => (not set)
# export_7 => (not set)
# export_8 => (not set)
export_0:
00000016  4EFA 0CF8                jmp        [PC + 0xCF8 /* 00000D10 */]
export_1:
0000001A  4EFA 104A                jmp        [PC + 0x104A /* 00001066 */]
export_2:
0000001E  4EFA 166A                jmp        [PC + 0x166A /* 0000168A */]
export_3:
00000022  4EFA 1C5C                jmp        [PC + 0x1C5C /* 00001C80 */]
export_4:
00000026  4EFA 1E12                jmp        [PC + 0x1E12 /* 00001E3A */]
export_5:
0000002A  4EFA 1E84                jmp        [PC + 0x1E84 /* 00001EB0 */]
fn0000002E:
0000002E  4E56 FF00                link       A6, -0x0100
00000032  41FA FFCC                lea.l      A0, [PC - 0x34 /* 00000000 */]
00000036  A128                     syscall    RecoverHandle, flags=1
00000038  2F08                     move.l     -[A7], A0
0000003A  486E 0008                pea.l      [A6 + 0x8]
0000003E  486E FF00                pea.l      [A6 - 0x100]
00000042  2F17                     move.l     -[A7], [A7]
00000044  A9A8                     syscall    GetResInfo
00000046  4E5E                     unlink     A6
00000048  4E75                     rts
0000004A  4EBA 0206                jsr        [PC + 0x206 /* 00000252 */]
fn0000004E:
0000004E  4EBA 0202                jsr        [PC + 0x202 /* 00000252 */]
fn00000052:
00000052  4EBA 01FE                jsr        [PC + 0x1FE /* 00000252 */]
fn00000056:
00000056  4EBA 01FA                jsr        [PC + 0x1FA /* 00000252 */]
0000005A  4EBA 01F6                jsr        [PC + 0x1F6 /* 00000252 */]
0000005E  4EBA 01F2                jsr        [PC + 0x1F2 /* 00000252 */]
00000062  4EBA 01EE                jsr        [PC + 0x1EE /* 00000252 */]
00000066  4EBA 01EA                jsr        [PC + 0x1EA /* 00000252 */]
0000006A  4EBA 01E6                jsr        [PC + 0x1E6 /* 00000252 */]
fn0000006E:
0000006E  4EBA 01E2                jsr        [PC + 0x1E2 /* 00000252 */]
00000072  4EBA 01DE                jsr        [PC + 0x1DE /* 00000252 */]
00000076  4EBA 01DA                jsr        [PC + 0x1DA /* 00000252 */]
0000007A  4EBA 01D6                jsr        [PC + 0x1D6 /* 00000252 */]
0000007E  4EBA 01D2                jsr        [PC + 0x1D2 /* 00000252 */]
00000082  4EBA 01CE                jsr        [PC + 0x1CE /* 00000252 */]
00000086  4EBA 01CA                jsr        [PC + 0x1CA /* 00000252 */]
0000008A  4EBA 01C6                jsr        [PC + 0x1C6 /* 00000252 */]
0000008E  4EBA 01C2                jsr        [PC + 0x1C2 /* 00000252 */]
00000092  4EBA 01BE                jsr        [PC + 0x1BE /* 00000252 */]
00000096  4EBA 01BA                jsr        [PC + 0x1BA /* 00000252 */]
fn0000009A:
0000009A  4EBA 01B6                jsr        [PC + 0x1B6 /* 00000252 */]
fn0000009E:
0000009E  4EBA 01B2                jsr        [PC + 0x1B2 /* 00000252 */]
000000A2  4EBA 01AE                jsr        [PC + 0x1AE /* 00000252 */]
fn000000A6:
000000A6  4EBA 01AA                jsr        [PC + 0x1AA /* 00000252 */]
000000AA  4EBA 01A6                jsr        [PC + 0x1A6 /* 00000252 */]
000000AE  4EBA 01A2                jsr        [PC + 0x1A2 /* 00000252 */]
000000B2  4EBA 019E                jsr        [PC + 0x19E /* 00000252 */]
000000B6  4EBA 019A                jsr        [PC + 0x19A /* 00000252 */]
000000BA  4EBA 0196                jsr        [PC + 0x196 /* 00000252 */]
fn000000BE:
000000BE  4EBA 0192                jsr        [PC + 0x192 /* 00000252 */]
000000C2  4EBA 018E                jsr        [PC + 0x18E /* 00000252 */]
000000C6  4EBA 018A                jsr        [PC + 0x18A /* 00000252 */]
000000CA  4EBA 0186                jsr        [PC + 0x186 /* 00000252 */]
fn000000CE:
000000CE  4EBA 0182                jsr        [PC + 0x182 /* 00000252 */]
000000D2  4EBA 017E                jsr        [PC + 0x17E /* 00000252 */]
fn000000D6:
000000D6  4EBA 017A                jsr        [PC + 0x17A /* 00000252 */]
000000DA  4EBA 0176                jsr        [PC + 0x176 /* 00000252 */]
fn000000DE:
000000DE  4EBA 0172                jsr        [PC + 0x172 /* 00000252 */]
fn000000E2:
000000E2  4EBA 016E                jsr        [PC + 0x16E /* 00000252 */]
fn000000E6:
000000E6  4EBA 016A                jsr        [PC + 0x16A /* 00000252 */]
fn000000EA:
000000EA  4EBA 0166                jsr        [PC + 0x166 /* 00000252 */]
000000EE  4EBA 0162                jsr        [PC + 0x162 /* 00000252 */]
fn000000F2:
000000F2  4EBA 015E                jsr        [PC + 0x15E /* 00000252 */]
fn000000F6:
000000F6  4EBA 015A                jsr        [PC + 0x15A /* 00000252 */]
000000FA  4EBA 0156                jsr        [PC + 0x156 /* 00000252 */]
fn000000FE:
000000FE  4EBA 0152                jsr        [PC + 0x152 /* 00000252 */]
fn00000102:
00000102  4EBA 014E                jsr        [PC + 0x14E /* 00000252 */]
fn00000106:
00000106  4EBA 014A                jsr        [PC + 0x14A /* 00000252 */]
0000010A  4EBA 0146                jsr        [PC + 0x146 /* 00000252 */]
0000010E  4EBA 0142                jsr        [PC + 0x142 /* 00000252 */]
fn00000112:
00000112  4EBA 013E                jsr        [PC + 0x13E /* 00000252 */]
00000116  4EBA 013A                jsr        [PC + 0x13A /* 00000252 */]
0000011A  4EBA 0136                jsr        [PC + 0x136 /* 00000252 */]
0000011E  4EBA 0132                jsr        [PC + 0x132 /* 00000252 */]
00000122  4EBA 012E                jsr        [PC + 0x12E /* 00000252 */]
00000126  4EBA 012A                jsr        [PC + 0x12A /* 00000252 */]
0000012A  4EBA 0126                jsr        [PC + 0x126 /* 00000252 */]
0000012E  4EBA 0122                jsr        [PC + 0x122 /* 00000252 */]
fn00000132:
00000132  4EBA 011E                jsr        [PC + 0x11E /* 00000252 */]
fn00000136:
00000136  4EBA 011A                jsr        [PC + 0x11A /* 00000252 */]
fn0000013A:
0000013A  4EBA 0116                jsr        [PC + 0x116 /* 00000252 */]
0000013E  4EBA 0112                jsr        [PC + 0x112 /* 00000252 */]
fn00000142:
00000142  4EBA 010E                jsr        [PC + 0x10E /* 00000252 */]
00000146  4EBA 010A                jsr        [PC + 0x10A /* 00000252 */]
fn0000014A:
0000014A  4EBA 0106                jsr        [PC + 0x106 /* 00000252 */]
fn0000014E:
0000014E  4EBA 0102                jsr        [PC + 0x102 /* 00000252 */]
fn00000152:
00000152  4EBA 00FE                jsr        [PC + 0xFE /* 00000252 */]
00000156  4EBA 00FA                jsr        [PC + 0xFA /* 00000252 */]
0000015A  4EBA 00F6                jsr        [PC + 0xF6 /* 00000252 */]
fn0000015E:
0000015E  4EBA 00F2                jsr        [PC + 0xF2 /* 00000252 */]
00000162  4EBA 00EE                jsr        [PC + 0xEE /* 00000252 */]
00000166  4EBA 00EA                jsr        [PC + 0xEA /* 00000252 */]
0000016A  4EBA 00E6                jsr        [PC + 0xE6 /* 00000252 */]
fn0000016E:
0000016E  4EBA 00E2                jsr        [PC + 0xE2 /* 00000252 */]
00000172  4EBA 00DE                jsr        [PC + 0xDE /* 00000252 */]
00000176  4EBA 00DA                jsr        [PC + 0xDA /* 00000252 */]
0000017A  4EBA 00D6                jsr        [PC + 0xD6 /* 00000252 */]
0000017E  4EBA 00D2                jsr        [PC + 0xD2 /* 00000252 */]
fn00000182:
00000182  4EBA 00CE                jsr        [PC + 0xCE /* 00000252 */]
00000186  4EBA 00CA                jsr        [PC + 0xCA /* 00000252 */]
0000018A  4EBA 00C6                jsr        [PC + 0xC6 /* 00000252 */]
0000018E  4EBA 00C2                jsr        [PC + 0xC2 /* 00000252 */]
fn00000192:
00000192  4EBA 00BE                jsr        [PC + 0xBE /* 00000252 */]
00000196  4EBA 00BA                jsr        [PC + 0xBA /* 00000252 */]
0000019A  4EBA 00B6                jsr        [PC + 0xB6 /* 00000252 */]
fn0000019E:
0000019E  4EBA 00B2                jsr        [PC + 0xB2 /* 00000252 */]
000001A2  4EBA 00AE                jsr        [PC + 0xAE /* 00000252 */]
000001A6  4EBA 00AA                jsr        [PC + 0xAA /* 00000252 */]
000001AA  4EBA 00A6                jsr        [PC + 0xA6 /* 00000252 */]
000001AE  4EBA 00A2                jsr        [PC + 0xA2 /* 00000252 */]
000001B2  4EBA 009E                jsr        [PC + 0x9E /* 00000252 */]
000001B6  4EBA 009A                jsr        [PC + 0x9A /* 00000252 */]
000001BA  4EBA 0096                jsr        [PC + 0x96 /* 00000252 */]
fn000001BE:
000001BE  4EBA 0092                jsr        [PC + 0x92 /* 00000252 */]
000001C2  4EBA 008E                jsr        [PC + 0x8E /* 00000252 */]
000001C6  4EBA 008A                jsr        [PC + 0x8A /* 00000252 */]
000001CA  4EBA 0086                jsr        [PC + 0x86 /* 00000252 */]
000001CE  4EBA 0082                jsr        [PC + 0x82 /* 00000252 */]
000001D2  4EBA 007E                jsr        [PC + 0x7E /* 00000252 */]
000001D6  4EBA 007A                jsr        [PC + 0x7A /* 00000252 */]
000001DA  4EBA 0076                jsr        [PC + 0x76 /* 00000252 */]
000001DE  4EBA 0072                jsr        [PC + 0x72 /* 00000252 */]
000001E2  4EBA 006E                jsr        [PC + 0x6E /* 00000252 */]
000001E6  4EBA 006A                jsr        [PC + 0x6A /* 00000252 */]
000001EA  4EBA 0066                jsr        [PC + 0x66 /* 00000252 */]
000001EE  4EBA 0062                jsr        [PC + 0x62 /* 00000252 */]
000001F2  4EBA 005E                jsr        [PC + 0x5E /* 00000252 */]
000001F6  4EBA 005A                jsr        [PC + 0x5A /* 00000252 */]
000001FA  4EBA 0056                jsr        [PC + 0x56 /* 00000252 */]
000001FE  4EBA 0052                jsr        [PC + 0x52 /* 00000252 */]
fn00000202:
00000202  4EBA 004E                jsr        [PC + 0x4E /* 00000252 */]
00000206  4EBA 004A                jsr        [PC + 0x4A /* 00000252 */]
fn0000020A:
0000020A  4EBA 0046                jsr        [PC + 0x46 /* 00000252 */]
fn0000020E:
0000020E  4EBA 0042                jsr        [PC + 0x42 /* 00000252 */]
fn00000212:
00000212  4EBA 003E                jsr        [PC + 0x3E /* 00000252 */]
fn00000216:
00000216  4EBA 003A                jsr        [PC + 0x3A /* 00000252 */]
fn0000021A:
0000021A  4EBA 0036                jsr        [PC + 0x36 /* 00000252 */]
fn0000021E:
0000021E  4EBA 0032                jsr        [PC + 0x32 /* 00000252 */]
fn00000222:
00000222  4EBA 002E                jsr        [PC + 0x2E /* 00000252 */]
fn00000226:
00000226  4EBA 002A                jsr        [PC + 0x2A /* 00000252 */]
fn0000022A:
0000022A  4EBA 0026                jsr        [PC + 0x26 /* 00000252 */]
fn0000022E:
0000022E  4EBA 0022                jsr        [PC + 0x22 /* 00000252 */]
fn00000232:
00000232  4EBA 001E                jsr        [PC + 0x1E /* 00000252 */]
fn00000236:
00000236  4EBA 001A                jsr        [PC + 0x1A /* 00000252 */]
fn0000023A:
0000023A  4EBA 0016                jsr        [PC + 0x16 /* 00000252 */]
fn0000023E:
0000023E  4EBA 0012                jsr        [PC + 0x12 /* 00000252 */]
fn00000242:
00000242  4EBA 000E                jsr        [PC + 0xE /* 00000252 */]
fn00000246:
00000246  4EBA 000A                jsr        [PC + 0xA /* 00000252 */]
0000024A  4EBA 0006                jsr        [PC + 0x6 /* 00000252 */]
0000024E  4EBA 0002                jsr        [PC + 0x2 /* 00000252 */]
fn00000252:
00000252  43FA FDFA                lea.l      A1, [PC - 0x206 /* 0000004E, value 0x4EBA0202 */]
00000256  205F                     movea.l    A0, [A7]+
00000258  91C9                     sub.l      A0, A1
0000025A  D1F8 0A78                add.l      A0, [0x00000A78 /* ApplScratch */]
0000025E  2050                     movea.l    A0, [A0]
00000260  4ED0                     jmp        [A0]
fn00000262:
00000262  4E56 0000                link       A6, 0
00000266  2F0C                     move.l     -[A7], A4
00000268  286E 0008                movea.l    A4, [A6 + 0x8]
0000026C  4A6C 011E                tst.w      [A4 + 0x11E]
00000270  6724                     beq        +0x26 /* 00000296 */
00000272  70FF                     moveq.l    D0, 0xFFFFFFFF
00000274  B06C 011E                cmp.w      D0, [A4 + 0x11E]
00000278  6710                     beq        +0x12 /* 0000028A */
0000027A  558F                     subq.l     A7, 2
0000027C  3F2C 011E                move.w     -[A7], [A4 + 0x11E]
00000280  7000                     moveq.l    D0, 0x00
00000282  3F00                     move.w     -[A7], D0
00000284  4EBA FEC4                jsr        [PC - 0x13C /* 0000014A */]
00000288  544F                     addq.w     A7, 2
label0000028A:
0000028A  2F0C                     move.l     -[A7], A4
0000028C  4EBA 099E                jsr        [PC + 0x99E /* 00000C2C */]
00000290  7001                     moveq.l    D0, 0x01
00000292  584F                     addq.w     A7, 4
00000294  6002                     bra        +0x4 /* 00000298 */
label00000296:
00000296  7000                     moveq.l    D0, 0x00
label00000298:
00000298  286E FFFC                movea.l    A4, [A6 - 0x4]
0000029C  4E5E                     unlink     A6
0000029E  4E75                     rts
fn000002A0:
000002A0  4E56 0000                link       A6, 0
000002A4  2F0C                     move.l     -[A7], A4
000002A6  286E 0008                movea.l    A4, [A6 + 0x8]
000002AA  4A6C 011E                tst.w      [A4 + 0x11E]
000002AE  671E                     beq        +0x20 /* 000002CE */
000002B0  558F                     subq.l     A7, 2
000002B2  3F2C 011E                move.w     -[A7], [A4 + 0x11E]
000002B6  7000                     moveq.l    D0, 0x00
000002B8  3F00                     move.w     -[A7], D0
000002BA  4EBA FE8E                jsr        [PC - 0x172 /* 0000014A */]
000002BE  426C 011E                clr.w      [A4 + 0x11E]
000002C2  4A2E 000F                tst.b      [A6 + 0xF]
000002C6  544F                     addq.w     A7, 2
000002C8  6704                     beq        +0x6 /* 000002CE */
000002CA  4EBA FE6E                jsr        [PC - 0x192 /* 0000013A */]
label000002CE:
000002CE  286E FFFC                movea.l    A4, [A6 - 0x4]
000002D2  4E5E                     unlink     A6
000002D4  4E75                     rts
fn000002D6:
000002D6  4E56 0000                link       A6, 0
000002DA  48E7 0318                movem.l    -[A7], D6,D7,A3,A4
000002DE  4247                     clr.w      D7
000002E0  266E 0008                movea.l    A3, [A6 + 0x8]
000002E4  286E 000C                movea.l    A4, [A6 + 0xC]
000002E8  601C                     bra        +0x1E /* 00000306 */
label000002EA:
000002EA  2053                     movea.l    A0, [A3]
000002EC  7C00                     moveq.l    D6, 0x00
000002EE  1C30 7000                move.b     D6, [A0 + D7.w]
000002F2  48C6                     ext.l      D6
000002F4  2006                     move.l     D0, D6
000002F6  E188                     lsl        D0, 8
000002F8  48C7                     ext.l      D7
000002FA  2054                     movea.l    A0, [A4]
000002FC  2207                     move.l     D1, D7
000002FE  D281                     add.l      D1, D1
00000300  3180 1800                move.w     [A0 + D1], D0
00000304  5247                     addq.w     D7, 1
label00000306:
00000306  0C47 0008                cmpi.w     D7, 0x8
0000030A  6DDE                     blt        -0x20 /* 000002EA */
0000030C  4CEE 18C0 FFF0           movem.l    D6,D7,A3,A4, [A6 - 0x10]
00000312  4E5E                     unlink     A6
00000314  4E75                     rts
fn00000316:
00000316  4E56 0000                link       A6, 0
0000031A  48E7 0318                movem.l    -[A7], D6,D7,A3,A4
0000031E  4247                     clr.w      D7
00000320  266E 000C                movea.l    A3, [A6 + 0xC]
00000324  286E 0008                movea.l    A4, [A6 + 0x8]
00000328  6018                     bra        +0x1A /* 00000342 */
label0000032A:
0000032A  48C7                     ext.l      D7
0000032C  2054                     movea.l    A0, [A4]
0000032E  2007                     move.l     D0, D7
00000330  D080                     add.l      D0, D0
00000332  3C30 0800                move.w     D6, [A0 + D0]
00000336  3006                     move.w     D0, D6
00000338  E040                     asr        D0.w, 8
0000033A  2053                     movea.l    A0, [A3]
0000033C  1180 7000                move.b     [A0 + D7.w], D0
00000340  5247                     addq.w     D7, 1
label00000342:
00000342  0C47 0008                cmpi.w     D7, 0x8
00000346  6DE2                     blt        -0x1C /* 0000032A */
00000348  4CEE 18C0 FFF0           movem.l    D6,D7,A3,A4, [A6 - 0x10]
0000034E  4E5E                     unlink     A6
00000350  4E75                     rts
fn00000352:
00000352  4E56 0000                link       A6, 0
00000356  2F0C                     move.l     -[A7], A4
00000358  286E 0008                movea.l    A4, [A6 + 0x8]
0000035C  598F                     subq.l     A7, 4
0000035E  2F2C 012A                move.l     -[A7], [A4 + 0x12A]
00000362  4EBA 1EFA                jsr        [PC + 0x1EFA /* 0000225E */]
00000366  4A9F                     tst.l      [A7]+
00000368  6614                     bne        +0x16 /* 0000037E */
0000036A  7008                     moveq.l    D0, 0x08
0000036C  A322                     syscall    NewHandleClear, flags=3
0000036E  2948 012A                move.l     [A4 + 0x12A], A0
00000372  3978 0220 011E           move.w     [A4 + 0x11E], [0x00000220 /* MemErr */]
00000378  6704                     beq        +0x6 /* 0000037E */
0000037A  7000                     moveq.l    D0, 0x00
0000037C  6002                     bra        +0x4 /* 00000380 */
label0000037E:
0000037E  7001                     moveq.l    D0, 0x01
label00000380:
00000380  286E FFFC                movea.l    A4, [A6 - 0x4]
00000384  4E5E                     unlink     A6
00000386  4E75                     rts
fn00000388:
00000388  4E56 FFF2                link       A6, -0x000E
0000038C  48E7 0018                movem.l    -[A7], A3,A4
00000390  286E 0008                movea.l    A4, [A6 + 0x8]
00000394  558F                     subq.l     A7, 2
00000396  486E FFFC                pea.l      [A6 - 0x4]
0000039A  2F2C 0138                move.l     -[A7], [A4 + 0x138]
0000039E  4EBA FE6E                jsr        [PC - 0x192 /* 0000020E */]
000003A2  7000                     moveq.l    D0, 0x00
000003A4  101F                     move.b     D0, [A7]+
000003A6  0C40 0001                cmpi.w     D0, 0x1
000003AA  661E                     bne        +0x20 /* 000003CA */
000003AC  3D7C 0004 FFF6           move.w     [A6 - 0xA], 0x4
000003B2  486C 012A                pea.l      [A4 + 0x12A]
000003B6  486E FFF6                pea.l      [A6 - 0xA]
000003BA  2F2E FFFC                move.l     -[A7], [A6 - 0x4]
000003BE  2F2C 0138                move.l     -[A7], [A4 + 0x138]
000003C2  3F3C 0038                move.w     -[A7], 0x38 /* '8' */
000003C6  A9E7                     syscall    Pack0/ListManager
000003C8  6006                     bra        +0x8 /* 000003D0 */
label000003CA:
000003CA  296C 012E 012A           move.l     [A4 + 0x12A], [A4 + 0x12E]
label000003D0:
000003D0  2F2C 0126                move.l     -[A7], [A4 + 0x126]
000003D4  4EBA FE70                jsr        [PC - 0x190 /* 00000246 */]
000003D8  2F0C                     move.l     -[A7], A4
000003DA  4EBA FF76                jsr        [PC - 0x8A /* 00000352 */]
000003DE  4A00                     tst.b      D0
000003E0  584F                     addq.w     A7, 4
000003E2  6700 008E                beq        +0x90 /* 00000472 */
000003E6  70FF                     moveq.l    D0, 0xFFFFFFFF
000003E8  3F00                     move.w     -[A7], D0
000003EA  2F2C 0126                move.l     -[A7], [A4 + 0x126]
000003EE  4EBA FE42                jsr        [PC - 0x1BE /* 00000232 */]
000003F2  206C 0126                movea.l    A0, [A4 + 0x126]
000003F6  2050                     movea.l    A0, [A0]
000003F8  2068 0004                movea.l    A0, [A0 + 0x4]
000003FC  2D48 FFF8                move.l     [A6 - 0x8], A0
00000400  2050                     movea.l    A0, [A0]
00000402  2668 0002                movea.l    A3, [A0 + 0x2]
00000406  2053                     movea.l    A0, [A3]
00000408  2F28 0034                move.l     -[A7], [A0 + 0x34]
0000040C  2F2C 012A                move.l     -[A7], [A4 + 0x12A]
00000410  4EBA FEC4                jsr        [PC - 0x13C /* 000002D6 */]
00000414  2053                     movea.l    A0, [A3]
00000416  117C 0001 0060           move.b     [A0 + 0x60], 0x1
0000041C  558F                     subq.l     A7, 2
0000041E  7000                     moveq.l    D0, 0x00
00000420  3F00                     move.w     -[A7], D0
00000422  2F2C 0126                move.l     -[A7], [A4 + 0x126]
00000426  4EBA FE0E                jsr        [PC - 0x1F2 /* 00000236 */]
0000042A  395F 011E                move.w     [A4 + 0x11E], [A7]+
0000042E  2053                     movea.l    A0, [A3]
00000430  4868 0044                pea.l      [A0 + 0x44]
00000434  7000                     moveq.l    D0, 0x00
00000436  3F00                     move.w     -[A7], D0
00000438  3F00                     move.w     -[A7], D0
0000043A  3F00                     move.w     -[A7], D0
0000043C  3F00                     move.w     -[A7], D0
0000043E  A8A7                     syscall    SetRect
00000440  4A2C 0157                tst.b      [A4 + 0x157]
00000444  504F                     addq.w     A7, 8
00000446  672A                     beq        +0x2C /* 00000472 */
00000448  558F                     subq.l     A7, 2
0000044A  486E FFF2                pea.l      [A6 - 0xE]
0000044E  2F2C 0138                move.l     -[A7], [A4 + 0x138]
00000452  4EBA FDBA                jsr        [PC - 0x246 /* 0000020E */]
00000456  7000                     moveq.l    D0, 0x00
00000458  101F                     move.b     D0, [A7]+
0000045A  0C40 0001                cmpi.w     D0, 0x1
0000045E  660A                     bne        +0xC /* 0000046A */
00000460  2F0C                     move.l     -[A7], A4
00000462  4EBA 1732                jsr        [PC + 0x1732 /* 00001B96 */]
00000466  584F                     addq.w     A7, 4
00000468  6008                     bra        +0xA /* 00000472 */
label0000046A:
0000046A  2F0C                     move.l     -[A7], A4
0000046C  4EBA 1780                jsr        [PC + 0x1780 /* 00001BEE */]
00000470  584F                     addq.w     A7, 4
label00000472:
00000472  4CEE 1800 FFEA           movem.l    A3,A4, [A6 - 0x16]
00000478  4E5E                     unlink     A6
0000047A  4E75                     rts
0000047C  4E56 0000                link       A6, 0
00000480  48E7 0018                movem.l    -[A7], A3,A4
00000484  286E 0008                movea.l    A4, [A6 + 0x8]
00000488  7008                     moveq.l    D0, 0x08
0000048A  A322                     syscall    NewHandleClear, flags=3
0000048C  2648                     movea.l    A3, A0
0000048E  38B8 0220                move.w     [A4], [0x00000220 /* MemErr */]
00000492  6606                     bne        +0x8 /* 0000049A */
00000494  2D4B 0012                move.l     [A6 + 0x12], A3
00000498  6006                     bra        +0x8 /* 000004A0 */
label0000049A:
0000049A  7000                     moveq.l    D0, 0x00
0000049C  2D40 0012                move.l     [A6 + 0x12], D0
label000004A0:
000004A0  4CEE 1800 FFF8           movem.l    A3,A4, [A6 - 0x8]
000004A6  4E5E                     unlink     A6
000004A8  205F                     movea.l    A0, [A7]+
000004AA  4FEF 000A                lea.l      A7, [A7 + 0xA]
000004AE  4ED0                     jmp        [A0]
000004B0  4E56 FFF4                link       A6, -0x000C
000004B4  48E7 0318                movem.l    -[A7], D6,D7,A3,A4
000004B8  266E 000C                movea.l    A3, [A6 + 0xC]
000004BC  3C2E 0010                move.w     D6, [A6 + 0x10]
000004C0  4247                     clr.w      D7
000004C2  2053                     movea.l    A0, [A3]
000004C4  2068 0114                movea.l    A0, [A0 + 0x114]
000004C8  2050                     movea.l    A0, [A0]
000004CA  BC50                     cmp.w      D6, [A0]
000004CC  6F08                     ble        +0xA /* 000004D6 */
000004CE  7000                     moveq.l    D0, 0x00
000004D0  2D40 0012                move.l     [A6 + 0x12], D0
000004D4  6052                     bra        +0x54 /* 00000528 */
label000004D6:
000004D6  2053                     movea.l    A0, [A3]
000004D8  2068 0114                movea.l    A0, [A0 + 0x114]
000004DC  2850                     movea.l    A4, [A0]
000004DE  6014                     bra        +0x16 /* 000004F4 */
label000004E0:
000004E0  48C6                     ext.l      D6
000004E2  2006                     move.l     D0, D6
000004E4  E780                     asl        D0, 3
000004E6  2207                     move.l     D1, D7
000004E8  48C1                     ext.l      D1
000004EA  D280                     add.l      D1, D0
000004EC  1DB4 1802 70F8           move.b     [A6 + D7.w - 0x8], [A4 + D1 + 0x2]
000004F2  5247                     addq.w     D7, 1
label000004F4:
000004F4  0C47 0008                cmpi.w     D7, 0x8
000004F8  6DE6                     blt        -0x18 /* 000004E0 */
000004FA  558F                     subq.l     A7, 2
000004FC  486E FFF8                pea.l      [A6 - 0x8]
00000500  486E FFF4                pea.l      [A6 - 0xC]
00000504  7008                     moveq.l    D0, 0x08
00000506  2F00                     move.l     -[A7], D0
00000508  4EBA 1D78                jsr        [PC + 0x1D78 /* 00002282 */]
0000050C  206E 0008                movea.l    A0, [A6 + 0x8]
00000510  309F                     move.w     [A0], [A7]+
00000512  206E 0008                movea.l    A0, [A6 + 0x8]
00000516  4A50                     tst.w      [A0]
00000518  6608                     bne        +0xA /* 00000522 */
0000051A  2D6E FFF4 0012           move.l     [A6 + 0x12], [A6 - 0xC]
00000520  6006                     bra        +0x8 /* 00000528 */
label00000522:
00000522  7000                     moveq.l    D0, 0x00
00000524  2D40 0012                move.l     [A6 + 0x12], D0
label00000528:
00000528  4CEE 18C0 FFE4           movem.l    D6,D7,A3,A4, [A6 - 0x1C]
0000052E  4E5E                     unlink     A6
00000530  205F                     movea.l    A0, [A7]+
00000532  4FEF 000A                lea.l      A7, [A7 + 0xA]
00000536  4ED0                     jmp        [A0]
fn00000538:
00000538  4E56 FFFA                link       A6, -0x0006
0000053C  48E7 0018                movem.l    -[A7], A3,A4
00000540  286E 0008                movea.l    A4, [A6 + 0x8]
00000544  266C 0126                movea.l    A3, [A4 + 0x126]
00000548  2F2C 0138                move.l     -[A7], [A4 + 0x138]
0000054C  4EBA FCD0                jsr        [PC - 0x330 /* 0000021E */]
00000550  2053                     movea.l    A0, [A3]
00000552  4868 003C                pea.l      [A0 + 0x3C]
00000556  A8A3                     syscall    EraseRect
00000558  4A6C 011E                tst.w      [A4 + 0x11E]
0000055C  663A                     bne        +0x3C /* 00000598 */
0000055E  486E FFFC                pea.l      [A6 - 0x4]
00000562  703D                     moveq.l    D0, 0x3D
00000564  3F00                     move.w     -[A7], D0
00000566  7228                     moveq.l    D1, 0x28
00000568  3F01                     move.w     -[A7], D1
0000056A  A880                     syscall    SetPt
0000056C  598F                     subq.l     A7, 4
0000056E  206C 0114                movea.l    A0, [A4 + 0x114]
00000572  2050                     movea.l    A0, [A0]
00000574  3F10                     move.w     -[A7], [A0]
00000576  558F                     subq.l     A7, 2
00000578  4EBA FAB4                jsr        [PC - 0x54C /* 0000002E */]
0000057C  487A FF32                pea.l      [PC - 0xCE /* 000004B0, value 0x4E56FFF4 */]
00000580  2F2E FFFC                move.l     -[A7], [A6 - 0x4]
00000584  2F2C 0118                move.l     -[A7], [A4 + 0x118]
00000588  486C 013C                pea.l      [A4 + 0x13C]
0000058C  486C 011E                pea.l      [A4 + 0x11E]
00000590  4EBA FC70                jsr        [PC - 0x390 /* 00000202 */]
00000594  295F 0138                move.l     [A4 + 0x138], [A7]+
label00000598:
00000598  4A6C 011E                tst.w      [A4 + 0x11E]
0000059C  661E                     bne        +0x20 /* 000005BC */
0000059E  4A2E 000F                tst.b      [A6 + 0xF]
000005A2  6710                     beq        +0x12 /* 000005B4 */
000005A4  2F2E 0010                move.l     -[A7], [A6 + 0x10]
000005A8  2F2C 0138                move.l     -[A7], [A4 + 0x138]
000005AC  486E FFFA                pea.l      [A6 - 0x6]
000005B0  4EBA FC74                jsr        [PC - 0x38C /* 00000226 */]
label000005B4:
000005B4  2F0C                     move.l     -[A7], A4
000005B6  4EBA FDD0                jsr        [PC - 0x230 /* 00000388 */]
000005BA  584F                     addq.w     A7, 4
label000005BC:
000005BC  4CEE 1800 FFF2           movem.l    A3,A4, [A6 - 0xE]
000005C2  4E5E                     unlink     A6
000005C4  4E75                     rts
fn000005C6:
000005C6  4E56 FFF6                link       A6, -0x000A
000005CA  48E7 0108                movem.l    -[A7], D7,A4
000005CE  286E 0008                movea.l    A4, [A6 + 0x8]
000005D2  7000                     moveq.l    D0, 0x00
000005D4  2D40 FFFC                move.l     [A6 - 0x4], D0
000005D8  7E00                     moveq.l    D7, 0x00
000005DA  4247                     clr.w      D7
000005DC  4A2C 0159                tst.b      [A4 + 0x159]
000005E0  6700 0100                beq        +0x102 /* 000006E2 */
000005E4  486E FFF6                pea.l      [A6 - 0xA]
000005E8  7000                     moveq.l    D0, 0x00
000005EA  3F00                     move.w     -[A7], D0
000005EC  3F00                     move.w     -[A7], D0
000005EE  A880                     syscall    SetPt
label000005F0:
000005F0  3D7C 0004 FFFA           move.w     [A6 - 0x6], 0x4
000005F6  486E FFFC                pea.l      [A6 - 0x4]
000005FA  486E FFFA                pea.l      [A6 - 0x6]
000005FE  2F2E FFF6                move.l     -[A7], [A6 - 0xA]
00000602  2F2C 0138                move.l     -[A7], [A4 + 0x138]
00000606  3F3C 0038                move.w     -[A7], 0x38 /* '8' */
0000060A  A9E7                     syscall    Pack0/ListManager
0000060C  7004                     moveq.l    D0, 0x04
0000060E  B06E FFFA                cmp.w      D0, [A6 - 0x6]
00000612  6608                     bne        +0xA /* 0000061C */
00000614  4AAE FFFC                tst.l      [A6 - 0x4]
00000618  6702                     beq        +0x4 /* 0000061C */
0000061A  5247                     addq.w     D7, 1
label0000061C:
0000061C  558F                     subq.l     A7, 2
0000061E  7001                     moveq.l    D0, 0x01
00000620  1F00                     move.b     -[A7], D0
00000622  1F00                     move.b     -[A7], D0
00000624  486E FFF6                pea.l      [A6 - 0xA]
00000628  2F2C 0138                move.l     -[A7], [A4 + 0x138]
0000062C  3F3C 0048                move.w     -[A7], 0x48 /* 'H' */
00000630  A9E7                     syscall    Pack0/ListManager
00000632  4A1F                     tst.b      [A7]+
00000634  66BA                     bne        -0x44 /* 000005F0 */
00000636  3007                     move.w     D0, D7
00000638  48C0                     ext.l      D0
0000063A  E780                     asl        D0, 3
0000063C  5480                     addq.l     D0, 2
0000063E  2F00                     move.l     -[A7], D0
00000640  2F2C 0114                move.l     -[A7], [A4 + 0x114]
00000644  4EBA FA58                jsr        [PC - 0x5A8 /* 0000009E */]
00000648  3978 0220 011E           move.w     [A4 + 0x11E], [0x00000220 /* MemErr */]
0000064E  6706                     beq        +0x8 /* 00000656 */
00000650  7000                     moveq.l    D0, 0x00
00000652  6000 0090                bra        +0x92 /* 000006E4 */
label00000656:
00000656  206C 0114                movea.l    A0, [A4 + 0x114]
0000065A  2050                     movea.l    A0, [A0]
0000065C  3087                     move.w     [A0], D7
0000065E  206C 0114                movea.l    A0, [A4 + 0x114]
00000662  A029                     syscall    HLock
00000664  486E FFF6                pea.l      [A6 - 0xA]
00000668  7000                     moveq.l    D0, 0x00
0000066A  3F00                     move.w     -[A7], D0
0000066C  3F00                     move.w     -[A7], D0
0000066E  A880                     syscall    SetPt
00000670  7000                     moveq.l    D0, 0x00
00000672  2D40 FFFC                move.l     [A6 - 0x4], D0
00000676  4247                     clr.w      D7
label00000678:
00000678  3D7C 0004 FFFA           move.w     [A6 - 0x6], 0x4
0000067E  486E FFFC                pea.l      [A6 - 0x4]
00000682  486E FFFA                pea.l      [A6 - 0x6]
00000686  2F2E FFF6                move.l     -[A7], [A6 - 0xA]
0000068A  2F2C 0138                move.l     -[A7], [A4 + 0x138]
0000068E  3F3C 0038                move.w     -[A7], 0x38 /* '8' */
00000692  A9E7                     syscall    Pack0/ListManager
00000694  7004                     moveq.l    D0, 0x04
00000696  B06E FFFA                cmp.w      D0, [A6 - 0x6]
0000069A  6622                     bne        +0x24 /* 000006BE */
0000069C  4AAE FFFC                tst.l      [A6 - 0x4]
000006A0  671C                     beq        +0x1E /* 000006BE */
000006A2  206E FFFC                movea.l    A0, [A6 - 0x4]
000006A6  2050                     movea.l    A0, [A0]
000006A8  3007                     move.w     D0, D7
000006AA  5247                     addq.w     D7, 1
000006AC  48C0                     ext.l      D0
000006AE  226C 0114                movea.l    A1, [A4 + 0x114]
000006B2  2251                     movea.l    A1, [A1]
000006B4  E780                     asl        D0, 3
000006B6  43F1 0802                lea.l      A1, [A1 + D0 + 0x2]
000006BA  7008                     moveq.l    D0, 0x08
000006BC  A02E                     syscall    BlockMove/BlockMoveData
label000006BE:
000006BE  558F                     subq.l     A7, 2
000006C0  7001                     moveq.l    D0, 0x01
000006C2  1F00                     move.b     -[A7], D0
000006C4  1F00                     move.b     -[A7], D0
000006C6  486E FFF6                pea.l      [A6 - 0xA]
000006CA  2F2C 0138                move.l     -[A7], [A4 + 0x138]
000006CE  3F3C 0048                move.w     -[A7], 0x48 /* 'H' */
000006D2  A9E7                     syscall    Pack0/ListManager
000006D4  4A1F                     tst.b      [A7]+
000006D6  66A0                     bne        -0x5E /* 00000678 */
000006D8  206C 0114                movea.l    A0, [A4 + 0x114]
000006DC  A02A                     syscall    HUnlock
000006DE  422C 0159                clr.b      [A4 + 0x159]
label000006E2:
000006E2  7001                     moveq.l    D0, 0x01
label000006E4:
000006E4  4CEE 1080 FFEE           movem.l    D7,A4, [A6 - 0x12]
000006EA  4E5E                     unlink     A6
000006EC  4E75                     rts
fn000006EE:
000006EE  4E56 FFFE                link       A6, -0x0002
000006F2  2F0C                     move.l     -[A7], A4
000006F4  286E 0008                movea.l    A4, [A6 + 0x8]
000006F8  2F0C                     move.l     -[A7], A4
000006FA  4EBA FECA                jsr        [PC - 0x136 /* 000005C6 */]
000006FE  4A00                     tst.b      D0
00000700  584F                     addq.w     A7, 4
00000702  6732                     beq        +0x34 /* 00000736 */
00000704  2F2E 000C                move.l     -[A7], [A6 + 0xC]
00000708  2F0C                     move.l     -[A7], A4
0000070A  4EBA 17FC                jsr        [PC + 0x17FC /* 00001F08 */]
0000070E  4A00                     tst.b      D0
00000710  504F                     addq.w     A7, 8
00000712  6722                     beq        +0x24 /* 00000736 */
00000714  4AAC 0144                tst.l      [A4 + 0x144]
00000718  6706                     beq        +0x8 /* 00000720 */
0000071A  206C 0144                movea.l    A0, [A4 + 0x144]
0000071E  A023                     syscall    DisposHandle/DisposeHandle
label00000720:
00000720  598F                     subq.l     A7, 4
00000722  2F2C 0138                move.l     -[A7], [A4 + 0x138]
00000726  486E FFFE                pea.l      [A6 - 0x2]
0000072A  4EBA FAF6                jsr        [PC - 0x50A /* 00000222 */]
0000072E  295F 0144                move.l     [A4 + 0x144], [A7]+
00000732  7001                     moveq.l    D0, 0x01
00000734  6002                     bra        +0x4 /* 00000738 */
label00000736:
00000736  7000                     moveq.l    D0, 0x00
label00000738:
00000738  286E FFFA                movea.l    A4, [A6 - 0x6]
0000073C  4E5E                     unlink     A6
0000073E  4E75                     rts
fn00000740:
00000740  4E56 FFFC                link       A6, -0x0004
00000744  48E7 0018                movem.l    -[A7], A3,A4
00000748  286E 0008                movea.l    A4, [A6 + 0x8]
0000074C  206C 0126                movea.l    A0, [A4 + 0x126]
00000750  2050                     movea.l    A0, [A0]
00000752  3D68 0072 FFFE           move.w     [A6 - 0x2], [A0 + 0x72]
00000758  2F0C                     move.l     -[A7], A4
0000075A  4EBA FE6A                jsr        [PC - 0x196 /* 000005C6 */]
0000075E  4A00                     tst.b      D0
00000760  584F                     addq.w     A7, 4
00000762  674E                     beq        +0x50 /* 000007B2 */
00000764  486E FFFE                pea.l      [A6 - 0x2]
00000768  2F0C                     move.l     -[A7], A4
0000076A  4EBA 187E                jsr        [PC + 0x187E /* 00001FEA */]
0000076E  4A00                     tst.b      D0
00000770  504F                     addq.w     A7, 8
00000772  673E                     beq        +0x40 /* 000007B2 */
00000774  598F                     subq.l     A7, 4
00000776  2F2C 0138                move.l     -[A7], [A4 + 0x138]
0000077A  486E FFFC                pea.l      [A6 - 0x4]
0000077E  4EBA FAA2                jsr        [PC - 0x55E /* 00000222 */]
00000782  265F                     movea.l    A3, [A7]+
00000784  2F2C 0144                move.l     -[A7], [A4 + 0x144]
00000788  7001                     moveq.l    D0, 0x01
0000078A  2F00                     move.l     -[A7], D0
0000078C  2F0C                     move.l     -[A7], A4
0000078E  4EBA FDA8                jsr        [PC - 0x258 /* 00000538 */]
00000792  4AAC 0144                tst.l      [A4 + 0x144]
00000796  4FEF 000C                lea.l      A7, [A7 + 0xC]
0000079A  6706                     beq        +0x8 /* 000007A2 */
0000079C  206C 0144                movea.l    A0, [A4 + 0x144]
000007A0  A023                     syscall    DisposHandle/DisposeHandle
label000007A2:
000007A2  294B 0144                move.l     [A4 + 0x144], A3
000007A6  206C 0126                movea.l    A0, [A4 + 0x126]
000007AA  2050                     movea.l    A0, [A0]
000007AC  316E FFFE 0072           move.w     [A0 + 0x72], [A6 - 0x2]
label000007B2:
000007B2  4CEE 1800 FFF4           movem.l    A3,A4, [A6 - 0xC]
000007B8  4E5E                     unlink     A6
000007BA  4E75                     rts
fn000007BC:
000007BC  4E56 0000                link       A6, 0
000007C0  48E7 0108                movem.l    -[A7], D7,A4
000007C4  286E 0008                movea.l    A4, [A6 + 0x8]
000007C8  206C 0126                movea.l    A0, [A4 + 0x126]
000007CC  2050                     movea.l    A0, [A0]
000007CE  3E28 0072                move.w     D7, [A0 + 0x72]
000007D2  0C47 0064                cmpi.w     D7, 0x64 /* 'd' */
000007D6  6D0E                     blt        +0x10 /* 000007E6 */
000007D8  0C47 0073                cmpi.w     D7, 0x73 /* 's' */
000007DC  6E08                     bgt        +0xA /* 000007E6 */
000007DE  2F0C                     move.l     -[A7], A4
000007E0  4EBA FF5E                jsr        [PC - 0xA2 /* 00000740 */]
000007E4  584F                     addq.w     A7, 4
label000007E6:
000007E6  4CEE 1080 FFF8           movem.l    D7,A4, [A6 - 0x8]
000007EC  4E5E                     unlink     A6
000007EE  4E75                     rts
000007F0  4E56 FFFC                link       A6, -0x0004
000007F4  2F0C                     move.l     -[A7], A4
000007F6  286E 0008                movea.l    A4, [A6 + 0x8]
000007FA  206E 000C                movea.l    A0, [A6 + 0xC]
000007FE  2050                     movea.l    A0, [A0]
00000800  2D68 012A FFFC           move.l     [A6 - 0x4], [A0 + 0x12A]
00000806  558F                     subq.l     A7, 2
00000808  486E FFFC                pea.l      [A6 - 0x4]
0000080C  4EBA 1A5E                jsr        [PC + 0x1A5E /* 0000226C */]
00000810  389F                     move.w     [A4], [A7]+
00000812  6706                     beq        +0x8 /* 0000081A */
00000814  7000                     moveq.l    D0, 0x00
00000816  2D40 FFFC                move.l     [A6 - 0x4], D0
label0000081A:
0000081A  2D6E FFFC 0012           move.l     [A6 + 0x12], [A6 - 0x4]
00000820  286E FFF8                movea.l    A4, [A6 - 0x8]
00000824  4E5E                     unlink     A6
00000826  205F                     movea.l    A0, [A7]+
00000828  4FEF 000A                lea.l      A7, [A7 + 0xA]
0000082C  4ED0                     jmp        [A0]
fn0000082E:
0000082E  4E56 FFFA                link       A6, -0x0006
00000832  2F0C                     move.l     -[A7], A4
00000834  286E 0008                movea.l    A4, [A6 + 0x8]
00000838  558F                     subq.l     A7, 2
0000083A  486E FFFC                pea.l      [A6 - 0x4]
0000083E  2F2C 0138                move.l     -[A7], [A4 + 0x138]
00000842  4EBA F9CA                jsr        [PC - 0x636 /* 0000020E */]
00000846  7000                     moveq.l    D0, 0x00
00000848  101F                     move.b     D0, [A7]+
0000084A  0C40 0001                cmpi.w     D0, 0x1
0000084E  6634                     bne        +0x36 /* 00000884 */
00000850  3D7C 0004 FFFA           move.w     [A6 - 0x6], 0x4
00000856  486C 012A                pea.l      [A4 + 0x12A]
0000085A  486E FFFA                pea.l      [A6 - 0x6]
0000085E  2F2E FFFC                move.l     -[A7], [A6 - 0x4]
00000862  2F2C 0138                move.l     -[A7], [A4 + 0x138]
00000866  3F3C 0038                move.w     -[A7], 0x38 /* '8' */
0000086A  A9E7                     syscall    Pack0/ListManager
0000086C  558F                     subq.l     A7, 2
0000086E  7001                     moveq.l    D0, 0x01
00000870  3F00                     move.w     -[A7], D0
00000872  487A FF7C                pea.l      [PC - 0x84 /* 000007F0, value 0x4E56FFFC */]
00000876  2F2C 0138                move.l     -[A7], [A4 + 0x138]
0000087A  486C 011E                pea.l      [A4 + 0x11E]
0000087E  4EBA F996                jsr        [PC - 0x66A /* 00000216 */]
00000882  544F                     addq.w     A7, 2
label00000884:
00000884  286E FFF6                movea.l    A4, [A6 - 0xA]
00000888  4E5E                     unlink     A6
0000088A  4E75                     rts
0000088C  4E56 FFF8                link       A6, -0x0008
00000890  48E7 0718                movem.l    -[A7], D5,D6,D7,A3,A4
00000894  266E 0008                movea.l    A3, [A6 + 0x8]
00000898  3E2E 0010                move.w     D7, [A6 + 0x10]
0000089C  7000                     moveq.l    D0, 0x00
0000089E  2D40 FFFC                move.l     [A6 - 0x4], D0
000008A2  558F                     subq.l     A7, 2
000008A4  4EBA F844                jsr        [PC - 0x7BC /* 000000EA */]
000008A8  3A1F                     move.w     D5, [A7]+
000008AA  558F                     subq.l     A7, 2
000008AC  A994                     syscall    CurResFile
000008AE  3C1F                     move.w     D6, [A7]+
000008B0  3F05                     move.w     -[A7], D5
000008B2  A998                     syscall    UseResFile
000008B4  598F                     subq.l     A7, 4
000008B6  2F3C 5041 5423           move.l     -[A7], 0x50415423 /* 'PAT#' */
000008BC  7001                     moveq.l    D0, 0x01
000008BE  3F00                     move.w     -[A7], D0
000008C0  A80E                     syscall    Get1IndResource/Get1IxResource
000008C2  285F                     movea.l    A4, [A7]+
000008C4  3F06                     move.w     -[A7], D6
000008C6  A998                     syscall    UseResFile
000008C8  200C                     move.l     D0, A4
000008CA  663E                     bne        +0x40 /* 0000090A */
000008CC  2054                     movea.l    A0, [A4]
000008CE  BE50                     cmp.w      D7, [A0]
000008D0  6E34                     bgt        +0x36 /* 00000906 */
000008D2  48C7                     ext.l      D7
000008D4  2007                     move.l     D0, D7
000008D6  E780                     asl        D0, 3
000008D8  41F0 0802                lea.l      A0, [A0 + D0 + 0x2]
000008DC  2D48 FFF8                move.l     [A6 - 0x8], A0
000008E0  204C                     movea.l    A0, A4
000008E2  A029                     syscall    HLock
000008E4  558F                     subq.l     A7, 2
000008E6  2F2E FFF8                move.l     -[A7], [A6 - 0x8]
000008EA  486E FFFC                pea.l      [A6 - 0x4]
000008EE  7008                     moveq.l    D0, 0x08
000008F0  2F00                     move.l     -[A7], D0
000008F2  4EBA 198E                jsr        [PC + 0x198E /* 00002282 */]
000008F6  369F                     move.w     [A3], [A7]+
000008F8  204C                     movea.l    A0, A4
000008FA  A02A                     syscall    HUnlock
000008FC  4A53                     tst.w      [A3]
000008FE  6706                     beq        +0x8 /* 00000906 */
00000900  7000                     moveq.l    D0, 0x00
00000902  2D40 FFFC                move.l     [A6 - 0x4], D0
label00000906:
00000906  2F0C                     move.l     -[A7], A4
00000908  A9A3                     syscall    ReleaseResource
label0000090A:
0000090A  2D6E FFFC 0012           move.l     [A6 + 0x12], [A6 - 0x4]
00000910  4CEE 18E0 FFE4           movem.l    D5,D6,D7,A3,A4, [A6 - 0x1C]
00000916  4E5E                     unlink     A6
00000918  205F                     movea.l    A0, [A7]+
0000091A  4FEF 000A                lea.l      A7, [A7 + 0xA]
0000091E  4ED0                     jmp        [A0]
00000920  4E56 0000                link       A6, 0
00000924  48E7 0318                movem.l    -[A7], D6,D7,A3,A4
00000928  266E 0008                movea.l    A3, [A6 + 0x8]
0000092C  558F                     subq.l     A7, 2
0000092E  4EBA F7BA                jsr        [PC - 0x846 /* 000000EA */]
00000932  3C1F                     move.w     D6, [A7]+
00000934  558F                     subq.l     A7, 2
00000936  A994                     syscall    CurResFile
00000938  3E1F                     move.w     D7, [A7]+
0000093A  3F06                     move.w     -[A7], D6
0000093C  A998                     syscall    UseResFile
0000093E  598F                     subq.l     A7, 4
00000940  2F3C 5041 5420           move.l     -[A7], 0x50415420 /* 'PAT ' */
00000946  3F2E 0010                move.w     -[A7], [A6 + 0x10]
0000094A  A80E                     syscall    Get1IndResource/Get1IxResource
0000094C  285F                     movea.l    A4, [A7]+
0000094E  558F                     subq.l     A7, 2
00000950  A9AF                     syscall    ResError
00000952  369F                     move.w     [A3], [A7]+
00000954  6606                     bne        +0x8 /* 0000095C */
00000956  2F0C                     move.l     -[A7], A4
00000958  A992                     syscall    DetachResource
0000095A  6004                     bra        +0x6 /* 00000960 */
label0000095C:
0000095C  7000                     moveq.l    D0, 0x00
0000095E  2840                     movea.l    A4, D0
label00000960:
00000960  3F07                     move.w     -[A7], D7
00000962  A998                     syscall    UseResFile
00000964  2D4C 0012                move.l     [A6 + 0x12], A4
00000968  4CEE 18C0 FFF0           movem.l    D6,D7,A3,A4, [A6 - 0x10]
0000096E  4E5E                     unlink     A6
00000970  205F                     movea.l    A0, [A7]+
00000972  4FEF 000A                lea.l      A7, [A7 + 0xA]
00000976  4ED0                     jmp        [A0]
fn00000978:
00000978  4E56 FFF6                link       A6, -0x000A
0000097C  48E7 0308                movem.l    -[A7], D6,D7,A4
00000980  286E 0008                movea.l    A4, [A6 + 0x8]
00000984  4EBA F750                jsr        [PC - 0x8B0 /* 000000D6 */]
00000988  558F                     subq.l     A7, 2
0000098A  4EBA F75E                jsr        [PC - 0x8A2 /* 000000EA */]
0000098E  3E1F                     move.w     D7, [A7]+
00000990  0C47 FFFF                cmpi.w     D7, 0xFFFF
00000994  6700 00DA                beq        +0xDC /* 00000A70 */
00000998  558F                     subq.l     A7, 2
0000099A  A994                     syscall    CurResFile
0000099C  3C1F                     move.w     D6, [A7]+
0000099E  3F07                     move.w     -[A7], D7
000009A0  A998                     syscall    UseResFile
000009A2  558F                     subq.l     A7, 2
000009A4  486E FFFC                pea.l      [A6 - 0x4]
000009A8  2F2C 0138                move.l     -[A7], [A4 + 0x138]
000009AC  4EBA F860                jsr        [PC - 0x7A0 /* 0000020E */]
000009B0  7000                     moveq.l    D0, 0x00
000009B2  101F                     move.b     D0, [A7]+
000009B4  4A80                     tst.l      D0
000009B6  6700 00B4                beq        +0xB6 /* 00000A6C */
000009BA  486E FFFC                pea.l      [A6 - 0x4]
000009BE  7000                     moveq.l    D0, 0x00
000009C0  3F00                     move.w     -[A7], D0
000009C2  3F00                     move.w     -[A7], D0
000009C4  A880                     syscall    SetPt
000009C6  6000 008A                bra        +0x8C /* 00000A52 */
label000009CA:
000009CA  3D7C 0004 FFFA           move.w     [A6 - 0x6], 0x4
000009D0  486E FFF6                pea.l      [A6 - 0xA]
000009D4  486E FFFA                pea.l      [A6 - 0x6]
000009D8  2F2E FFFC                move.l     -[A7], [A6 - 0x4]
000009DC  2F2C 0138                move.l     -[A7], [A4 + 0x138]
000009E0  3F3C 0038                move.w     -[A7], 0x38 /* '8' */
000009E4  A9E7                     syscall    Pack0/ListManager
000009E6  558F                     subq.l     A7, 2
000009E8  486E FFF6                pea.l      [A6 - 0xA]
000009EC  4EBA 187E                jsr        [PC + 0x187E /* 0000226C */]
000009F0  395F 011E                move.w     [A4 + 0x11E], [A7]+
000009F4  6644                     bne        +0x46 /* 00000A3A */
000009F6  3F07                     move.w     -[A7], D7
000009F8  2F2E FFF6                move.l     -[A7], [A6 - 0xA]
000009FC  2F3C 5041 5420           move.l     -[A7], 0x50415420 /* 'PAT ' */
00000A02  558F                     subq.l     A7, 2
00000A04  3F07                     move.w     -[A7], D7
00000A06  2F3C 5041 5420           move.l     -[A7], 0x50415420 /* 'PAT ' */
00000A0C  4EBA F790                jsr        [PC - 0x870 /* 0000019E */]
00000A10  487A 0068                pea.l      [PC + 0x68 /* 00000A7A, value 0x4E56 'NV', cstring "" */]
00000A14  4EBA F7A8                jsr        [PC - 0x858 /* 000001BE */]
00000A18  558F                     subq.l     A7, 2
00000A1A  A9AF                     syscall    ResError
00000A1C  4A5F                     tst.w      [A7]+
00000A1E  6614                     bne        +0x16 /* 00000A34 */
00000A20  2F2E FFF6                move.l     -[A7], [A6 - 0xA]
00000A24  A9AA                     syscall    ChangedResource
00000A26  2F2E FFF6                move.l     -[A7], [A6 - 0xA]
00000A2A  A9B0                     syscall    WriteResource
00000A2C  2F2E FFF6                move.l     -[A7], [A6 - 0xA]
00000A30  A9A3                     syscall    ReleaseResource
00000A32  6006                     bra        +0x8 /* 00000A3A */
label00000A34:
00000A34  206E FFF6                movea.l    A0, [A6 - 0xA]
00000A38  A023                     syscall    DisposHandle/DisposeHandle
label00000A3A:
00000A3A  558F                     subq.l     A7, 2
00000A3C  7001                     moveq.l    D0, 0x01
00000A3E  1F00                     move.b     -[A7], D0
00000A40  1F00                     move.b     -[A7], D0
00000A42  486E FFFC                pea.l      [A6 - 0x4]
00000A46  2F2C 0138                move.l     -[A7], [A4 + 0x138]
00000A4A  3F3C 0048                move.w     -[A7], 0x48 /* 'H' */
00000A4E  A9E7                     syscall    Pack0/ListManager
00000A50  544F                     addq.w     A7, 2
label00000A52:
00000A52  558F                     subq.l     A7, 2
00000A54  7001                     moveq.l    D0, 0x01
00000A56  1F00                     move.b     -[A7], D0
00000A58  486E FFFC                pea.l      [A6 - 0x4]
00000A5C  2F2C 0138                move.l     -[A7], [A4 + 0x138]
00000A60  3F3C 003C                move.w     -[A7], 0x3C /* '<' */
00000A64  A9E7                     syscall    Pack0/ListManager
00000A66  4A1F                     tst.b      [A7]+
00000A68  6600 FF60                bne        -0x9E /* 000009CA */
label00000A6C:
00000A6C  3F06                     move.w     -[A7], D6
00000A6E  A998                     syscall    UseResFile
label00000A70:
00000A70  4CEE 10C0 FFEA           movem.l    D6,D7,A4, [A6 - 0x16]
00000A76  4E5E                     unlink     A6
00000A78  4E75                     rts
00000A7A  0000 4E56                ori.b      D0, 0x56 /* 'V' */
// begin alternate branch 00000A7C-00000A84
fn00000A7C:
00000A7C  4E56 0000                link       A6, 0
00000A80  48E7 0718                movem.l    -[A7], D5,D6,D7,A3,A4
// end alternate branch 00000A7C-00000A84
fn00000A7C: // (misaligned)
00000A7E  0000 48E7                ori.b      D0, 0xE7
00000A82  0718                     btst       [A0]+, D3
00000A84  286E 0008                movea.l    A4, [A6 + 0x8]
00000A88  558F                     subq.l     A7, 2
00000A8A  4EBA F65E                jsr        [PC - 0x9A2 /* 000000EA */]
00000A8E  3E1F                     move.w     D7, [A7]+
00000A90  0C47 FFFF                cmpi.w     D7, 0xFFFF
00000A94  677A                     beq        +0x7C /* 00000B10 */
00000A96  558F                     subq.l     A7, 2
00000A98  3F07                     move.w     -[A7], D7
00000A9A  2F3C 5041 5423           move.l     -[A7], 0x50415423 /* 'PAT#' */
00000AA0  4EBA F5B4                jsr        [PC - 0xA4C /* 00000056 */]
00000AA4  3A1F                     move.w     D5, [A7]+
00000AA6  558F                     subq.l     A7, 2
00000AA8  3F07                     move.w     -[A7], D7
00000AAA  2F3C 5041 5420           move.l     -[A7], 0x50415420 /* 'PAT ' */
00000AB0  4EBA F5A4                jsr        [PC - 0xA5C /* 00000056 */]
00000AB4  3C1F                     move.w     D6, [A7]+
00000AB6  4A45                     tst.w      D5
00000AB8  6F3C                     ble        +0x3E /* 00000AF6 */
00000ABA  598F                     subq.l     A7, 4
00000ABC  3F07                     move.w     -[A7], D7
00000ABE  2F3C 5041 5423           move.l     -[A7], 0x50415423 /* 'PAT#' */
00000AC4  7001                     moveq.l    D0, 0x01
00000AC6  3F00                     move.w     -[A7], D0
00000AC8  4EBA F588                jsr        [PC - 0xA78 /* 00000052 */]
00000ACC  265F                     movea.l    A3, [A7]+
00000ACE  2053                     movea.l    A0, [A3]
00000AD0  3E10                     move.w     D7, [A0]
00000AD2  2F0B                     move.l     -[A7], A3
00000AD4  A9A3                     syscall    ReleaseResource
00000AD6  558F                     subq.l     A7, 2
00000AD8  A9AF                     syscall    ResError
00000ADA  4A5F                     tst.w      [A7]+
00000ADC  6632                     bne        +0x34 /* 00000B10 */
00000ADE  558F                     subq.l     A7, 2
00000AE0  3F07                     move.w     -[A7], D7
00000AE2  487A FDA8                pea.l      [PC - 0x258 /* 0000088C, value 0x4E56FFF8 */]
00000AE6  2F2C 0138                move.l     -[A7], [A4 + 0x138]
00000AEA  486C 011E                pea.l      [A4 + 0x11E]
00000AEE  4EBA F726                jsr        [PC - 0x8DA /* 00000216 */]
00000AF2  544F                     addq.w     A7, 2
00000AF4  601A                     bra        +0x1C /* 00000B10 */
label00000AF6:
00000AF6  4A46                     tst.w      D6
00000AF8  6F16                     ble        +0x18 /* 00000B10 */
00000AFA  558F                     subq.l     A7, 2
00000AFC  3F06                     move.w     -[A7], D6
00000AFE  487A FE20                pea.l      [PC - 0x1E0 /* 00000920, value 0x4E560000 'NV\0\0', cstring "NV" */]
00000B02  2F2C 0138                move.l     -[A7], [A4 + 0x138]
00000B06  486C 011E                pea.l      [A4 + 0x11E]
00000B0A  4EBA F70A                jsr        [PC - 0x8F6 /* 00000216 */]
00000B0E  544F                     addq.w     A7, 2
label00000B10:
00000B10  4CEE 18E0 FFEC           movem.l    D5,D6,D7,A3,A4, [A6 - 0x14]
00000B16  4E5E                     unlink     A6
00000B18  4E75                     rts
fn00000B1A:
00000B1A  4E56 FFFC                link       A6, -0x0004
00000B1E  48E7 0018                movem.l    -[A7], A3,A4
00000B22  286E 0008                movea.l    A4, [A6 + 0x8]
00000B26  4AAC 012A                tst.l      [A4 + 0x12A]
00000B2A  6760                     beq        +0x62 /* 00000B8C */
00000B2C  206C 0126                movea.l    A0, [A4 + 0x126]
00000B30  2050                     movea.l    A0, [A0]
00000B32  2668 0044                movea.l    A3, [A0 + 0x44]
00000B36  2053                     movea.l    A0, [A3]
00000B38  4A10                     tst.b      [A0]
00000B3A  6750                     beq        +0x52 /* 00000B8C */
00000B3C  558F                     subq.l     A7, 2
00000B3E  486E FFFC                pea.l      [A6 - 0x4]
00000B42  2F2C 0138                move.l     -[A7], [A4 + 0x138]
00000B46  4EBA F6C6                jsr        [PC - 0x93A /* 0000020E */]
00000B4A  7000                     moveq.l    D0, 0x00
00000B4C  101F                     move.b     D0, [A7]+
00000B4E  0C40 0001                cmpi.w     D0, 0x1
00000B52  661C                     bne        +0x1E /* 00000B70 */
00000B54  2F2C 012A                move.l     -[A7], [A4 + 0x12A]
00000B58  2053                     movea.l    A0, [A3]
00000B5A  2F28 0034                move.l     -[A7], [A0 + 0x34]
00000B5E  4EBA F7B6                jsr        [PC - 0x84A /* 00000316 */]
00000B62  2F2E FFFC                move.l     -[A7], [A6 - 0x4]
00000B66  2F2C 0138                move.l     -[A7], [A4 + 0x138]
00000B6A  4EBA F6AE                jsr        [PC - 0x952 /* 0000021A */]
00000B6E  504F                     addq.w     A7, 8
label00000B70:
00000B70  2F0C                     move.l     -[A7], A4
00000B72  4EBA 1364                jsr        [PC + 0x1364 /* 00001ED8 */]
00000B76  197C 0001 0159           move.b     [A4 + 0x159], 0x1
00000B7C  4A2C 0157                tst.b      [A4 + 0x157]
00000B80  584F                     addq.w     A7, 4
00000B82  6708                     beq        +0xA /* 00000B8C */
00000B84  2F0C                     move.l     -[A7], A4
00000B86  4EBA 100E                jsr        [PC + 0x100E /* 00001B96 */]
00000B8A  584F                     addq.w     A7, 4
label00000B8C:
00000B8C  4CEE 1800 FFF4           movem.l    A3,A4, [A6 - 0xC]
00000B92  4E5E                     unlink     A6
00000B94  4E75                     rts
fn00000B96:
00000B96  4E56 0000                link       A6, 0
00000B9A  2F0C                     move.l     -[A7], A4
00000B9C  286E 0008                movea.l    A4, [A6 + 0x8]
00000BA0  487A 002E                pea.l      [PC + 0x2E /* 00000BD0, value 0x4504154, pstring "PAT#" */]
00000BA4  2F0C                     move.l     -[A7], A4
00000BA6  4EBA 1574                jsr        [PC + 0x1574 /* 0000211C */]
00000BAA  2F2E 0010                move.l     -[A7], [A6 + 0x10]
00000BAE  2F0C                     move.l     -[A7], A4
00000BB0  4EBA F534                jsr        [PC - 0xACC /* 000000E6 */]
00000BB4  7000                     moveq.l    D0, 0x00
00000BB6  1014                     move.b     D0, [A4]
00000BB8  5240                     addq.w     D0, 1
00000BBA  48C0                     ext.l      D0
00000BBC  2F00                     move.l     -[A7], D0
00000BBE  2F0C                     move.l     -[A7], A4
00000BC0  2F2E 000C                move.l     -[A7], [A6 + 0xC]
00000BC4  4EBA 156E                jsr        [PC + 0x156E /* 00002134 */]
00000BC8  286E FFFC                movea.l    A4, [A6 - 0x4]
00000BCC  4E5E                     unlink     A6
00000BCE  4E75                     rts
00000BD0  0450 4154                subi.w     [A0], 0x4154 /* 'AT' */
00000BD4  2300                     move.l     -[A1], D0
fn00000BD6:
00000BD6  4E56 FE00                link       A6, -0x0200
00000BDA  48E7 0018                movem.l    -[A7], A3,A4
00000BDE  266E 0008                movea.l    A3, [A6 + 0x8]
00000BE2  49EE FF00                lea.l      A4, [A6 - 0x100]
00000BE6  2F2E 000C                move.l     -[A7], [A6 + 0xC]
00000BEA  2F0C                     move.l     -[A7], A4
00000BEC  486E FE00                pea.l      [A6 - 0x200]
00000BF0  4EBA FFA4                jsr        [PC - 0x5C /* 00000B96 */]
00000BF4  486E FE00                pea.l      [A6 - 0x200]
00000BF8  2F0C                     move.l     -[A7], A4
00000BFA  7001                     moveq.l    D0, 0x01
00000BFC  1F00                     move.b     -[A7], D0
00000BFE  2F13                     move.l     -[A7], [A3]
00000C00  4EBA F534                jsr        [PC - 0xACC /* 00000136 */]
00000C04  7000                     moveq.l    D0, 0x00
00000C06  1014                     move.b     D0, [A4]
00000C08  5240                     addq.w     D0, 1
00000C0A  48C0                     ext.l      D0
00000C0C  2F00                     move.l     -[A7], D0
00000C0E  2F0C                     move.l     -[A7], A4
00000C10  486B 0004                pea.l      [A3 + 0x4]
00000C14  4EBA 151E                jsr        [PC + 0x151E /* 00002134 */]
00000C18  2F2B 0104                move.l     -[A7], [A3 + 0x104]
00000C1C  486E FE00                pea.l      [A6 - 0x200]
00000C20  A91A                     syscall    SetWTitle
00000C22  4CEE 1800 FDF8           movem.l    A3,A4, [A6 - 0x208]
00000C28  4E5E                     unlink     A6
00000C2A  4E75                     rts
fn00000C2C:
00000C2C  4E56 FFFC                link       A6, -0x0004
00000C30  48E7 0018                movem.l    -[A7], A3,A4
00000C34  286E 0008                movea.l    A4, [A6 + 0x8]
00000C38  266C 0118                movea.l    A3, [A4 + 0x118]
00000C3C  2D6C 0126 FFFC           move.l     [A6 - 0x4], [A4 + 0x126]
00000C42  6708                     beq        +0xA /* 00000C4C */
00000C44  2F2C 0126                move.l     -[A7], [A4 + 0x126]
00000C48  4EBA F5F0                jsr        [PC - 0xA10 /* 0000023A */]
label00000C4C:
00000C4C  4AAC 0138                tst.l      [A4 + 0x138]
00000C50  6708                     beq        +0xA /* 00000C5A */
00000C52  2F2C 0138                move.l     -[A7], [A4 + 0x138]
00000C56  4EBA F5C6                jsr        [PC - 0xA3A /* 0000021E */]
label00000C5A:
00000C5A  4AAC 0144                tst.l      [A4 + 0x144]
00000C5E  6706                     beq        +0x8 /* 00000C66 */
00000C60  206C 0144                movea.l    A0, [A4 + 0x144]
00000C64  A023                     syscall    DisposHandle/DisposeHandle
label00000C66:
00000C66  4A2C 0109                tst.b      [A4 + 0x109]
00000C6A  6706                     beq        +0x8 /* 00000C72 */
00000C6C  2F2C 0114                move.l     -[A7], [A4 + 0x114]
00000C70  A9A3                     syscall    ReleaseResource
label00000C72:
00000C72  4AAC 0122                tst.l      [A4 + 0x122]
00000C76  6706                     beq        +0x8 /* 00000C7E */
00000C78  206C 0122                movea.l    A0, [A4 + 0x122]
00000C7C  A023                     syscall    DisposHandle/DisposeHandle
label00000C7E:
00000C7E  4AAC 012E                tst.l      [A4 + 0x12E]
00000C82  6706                     beq        +0x8 /* 00000C8A */
00000C84  206C 012E                movea.l    A0, [A4 + 0x12E]
00000C88  A023                     syscall    DisposHandle/DisposeHandle
label00000C8A:
00000C8A  4AAC 014A                tst.l      [A4 + 0x14A]
00000C8E  6712                     beq        +0x14 /* 00000CA2 */
00000C90  4A2C 0120                tst.b      [A4 + 0x120]
00000C94  6706                     beq        +0x8 /* 00000C9C */
00000C96  3F3C 0582                move.w     -[A7], 0x582
00000C9A  A936                     syscall    DeleteMenu
label00000C9C:
00000C9C  206C 014A                movea.l    A0, [A4 + 0x14A]
00000CA0  A023                     syscall    DisposHandle/DisposeHandle
label00000CA2:
00000CA2  7000                     moveq.l    D0, 0x00
00000CA4  1F00                     move.b     -[A7], D0
00000CA6  4EBA F3FE                jsr        [PC - 0xC02 /* 000000A6 */]
00000CAA  2F0C                     move.l     -[A7], A4
00000CAC  4EBA 0F40                jsr        [PC + 0xF40 /* 00001BEE */]
00000CB0  4AAC 0104                tst.l      [A4 + 0x104]
00000CB4  584F                     addq.w     A7, 4
00000CB6  670E                     beq        +0x10 /* 00000CC6 */
00000CB8  2F2C 0104                move.l     -[A7], [A4 + 0x104]
00000CBC  A92D                     syscall    CloseWindow
00000CBE  2F2C 0104                move.l     -[A7], [A4 + 0x104]
00000CC2  4EBA F44E                jsr        [PC - 0xBB2 /* 00000112 */]
label00000CC6:
00000CC6  204B                     movea.l    A0, A3
00000CC8  A02A                     syscall    HUnlock
00000CCA  204B                     movea.l    A0, A3
00000CCC  A023                     syscall    DisposHandle/DisposeHandle
00000CCE  4CEE 1800 FFF4           movem.l    A3,A4, [A6 - 0xC]
00000CD4  4E5E                     unlink     A6
00000CD6  4E75                     rts
fn00000CD8:
00000CD8  4E56 FFF0                link       A6, -0x0010
00000CDC  2F0C                     move.l     -[A7], A4
00000CDE  286E 0008                movea.l    A4, [A6 + 0x8]
00000CE2  3D7C 000C FFF0           move.w     [A6 - 0x10], 0xC
00000CE8  7000                     moveq.l    D0, 0x00
00000CEA  102C 0132                move.b     D0, [A4 + 0x132]
00000CEE  2D40 FFF2                move.l     [A6 - 0xE], D0
00000CF2  558F                     subq.l     A7, 2
00000CF4  486E FFF0                pea.l      [A6 - 0x10]
00000CF8  487A 086A                pea.l      [PC + 0x86A /* 00001564, value 0x4E560000 'NV\0\0', cstring "NV" */]
00000CFC  487A 0872                pea.l      [PC + 0x872 /* 00001570, value 0x4E560000 'NV\0\0', cstring "NV" */]
00000D00  2F2C 0126                move.l     -[A7], [A4 + 0x126]
00000D04  4EBA F538                jsr        [PC - 0xAC8 /* 0000023E */]
00000D08  286E FFEC                movea.l    A4, [A6 - 0x14]
00000D0C  4E5E                     unlink     A6
00000D0E  4E75                     rts
label00000D10:
00000D10  4E56 FCE2                link       A6, -0x031E
00000D14  48E7 1018                movem.l    -[A7], D3,A3,A4
00000D18  2F2E 000C                move.l     -[A7], [A6 + 0xC]
00000D1C  486E FCE6                pea.l      [A6 - 0x31A]
00000D20  486E FCE8                pea.l      [A6 - 0x318]
00000D24  486E FCEC                pea.l      [A6 - 0x314]
00000D28  A9A8                     syscall    GetResInfo
00000D2A  558F                     subq.l     A7, 2
00000D2C  558F                     subq.l     A7, 2
00000D2E  A9AF                     syscall    ResError
00000D30  7000                     moveq.l    D0, 0x00
00000D32  3F00                     move.w     -[A7], D0
00000D34  4EBA F414                jsr        [PC - 0xBEC /* 0000014A */]
00000D38  4A1F                     tst.b      [A7]+
00000D3A  6700 0310                beq        +0x312 /* 0000104C */
00000D3E  203C 0000 015A           move.l     D0, 0x15A
00000D44  A322                     syscall    NewHandleClear, flags=3
00000D46  2648                     movea.l    A3, A0
00000D48  558F                     subq.l     A7, 2
00000D4A  3F38 0220                move.w     -[A7], [0x00000220 /* MemErr */]
00000D4E  7000                     moveq.l    D0, 0x00
00000D50  3F00                     move.w     -[A7], D0
00000D52  4EBA F3F6                jsr        [PC - 0xC0A /* 0000014A */]
00000D56  4A1F                     tst.b      [A7]+
00000D58  6700 02F2                beq        +0x2F4 /* 0000104C */
00000D5C  2F0B                     move.l     -[A7], A3
00000D5E  4EBA F2EE                jsr        [PC - 0xD12 /* 0000004E */]
00000D62  204B                     movea.l    A0, A3
00000D64  A029                     syscall    HLock
00000D66  2853                     movea.l    A4, [A3]
00000D68  294B 0118                move.l     [A4 + 0x118], A3
00000D6C  426C 011E                clr.w      [A4 + 0x11E]
00000D70  396E FCE6 011C           move.w     [A4 + 0x11C], [A6 - 0x31A]
00000D76  28AE 0008                move.l     [A4], [A6 + 0x8]
00000D7A  197C 0005 010A           move.b     [A4 + 0x10A], 0x5
00000D80  296E FCE8 010C           move.l     [A4 + 0x10C], [A6 - 0x318]
00000D86  558F                     subq.l     A7, 2
00000D88  2F2E 000C                move.l     -[A7], [A6 + 0xC]
00000D8C  A9A4                     syscall    HomeResFile
00000D8E  395F 0110                move.w     [A4 + 0x110], [A7]+
00000D92  558F                     subq.l     A7, 2
00000D94  4EBA F298                jsr        [PC - 0xD68 /* 0000002E */]
00000D98  395F 0112                move.w     [A4 + 0x112], [A7]+
00000D9C  296E 000C 0114           move.l     [A4 + 0x114], [A6 + 0xC]
00000DA2  558F                     subq.l     A7, 2
00000DA4  4EBA F3B8                jsr        [PC - 0xC48 /* 0000015E */]
00000DA8  4A1F                     tst.b      [A7]+
00000DAA  57C3                     seq        D3
00000DAC  4403                     neg.b      D3
00000DAE  1943 0109                move.b     [A4 + 0x109], D3
00000DB2  598F                     subq.l     A7, 4
00000DB4  2F2C 0114                move.l     -[A7], [A4 + 0x114]
00000DB8  4EBA 14A4                jsr        [PC + 0x14A4 /* 0000225E */]
00000DBC  4A9F                     tst.l      [A7]+
00000DBE  6612                     bne        +0x14 /* 00000DD2 */
00000DC0  700A                     moveq.l    D0, 0x0A
00000DC2  2F00                     move.l     -[A7], D0
00000DC4  2F2C 0114                move.l     -[A7], [A4 + 0x114]
00000DC8  4EBA F2D4                jsr        [PC - 0xD2C /* 0000009E */]
00000DCC  3978 0220 011E           move.w     [A4 + 0x11E], [0x00000220 /* MemErr */]
label00000DD2:
00000DD2  598F                     subq.l     A7, 4
00000DD4  2F2C 0114                move.l     -[A7], [A4 + 0x114]
00000DD8  4EBA 1484                jsr        [PC + 0x1484 /* 0000225E */]
00000DDC  201F                     move.l     D0, [A7]+
00000DDE  7208                     moveq.l    D1, 0x08
00000DE0  4EBA 1398                jsr        [PC + 0x1398 /* 0000217A */]
00000DE4  206C 0114                movea.l    A0, [A4 + 0x114]
00000DE8  2050                     movea.l    A0, [A0]
00000DEA  3080                     move.w     [A0], D0
00000DEC  70FF                     moveq.l    D0, 0xFFFFFFFF
00000DEE  B06C 011E                cmp.w      D0, [A4 + 0x11E]
00000DF2  6712                     beq        +0x14 /* 00000E06 */
00000DF4  558F                     subq.l     A7, 2
00000DF6  3F2C 011E                move.w     -[A7], [A4 + 0x11E]
00000DFA  7000                     moveq.l    D0, 0x00
00000DFC  3F00                     move.w     -[A7], D0
00000DFE  4EBA F34A                jsr        [PC - 0xCB6 /* 0000014A */]
00000E02  4A1F                     tst.b      [A7]+
00000E04  6612                     bne        +0x14 /* 00000E18 */
label00000E06:
00000E06  206C 0114                movea.l    A0, [A4 + 0x114]
00000E0A  A023                     syscall    DisposHandle/DisposeHandle
00000E0C  204B                     movea.l    A0, A3
00000E0E  A02A                     syscall    HUnlock
00000E10  204B                     movea.l    A0, A3
00000E12  A023                     syscall    DisposHandle/DisposeHandle
00000E14  6000 0236                bra        +0x238 /* 0000104C */
label00000E18:
00000E18  558F                     subq.l     A7, 2
00000E1A  7001                     moveq.l    D0, 0x01
00000E1C  3F00                     move.w     -[A7], D0
00000E1E  486E FDEC                pea.l      [A6 - 0x214]
00000E22  4EBA F40A                jsr        [PC - 0xBF6 /* 0000022E */]
00000E26  395F 011E                move.w     [A4 + 0x11E], [A7]+
00000E2A  2F0C                     move.l     -[A7], A4
00000E2C  4EBA F434                jsr        [PC - 0xBCC /* 00000262 */]
00000E30  4A00                     tst.b      D0
00000E32  584F                     addq.w     A7, 4
00000E34  6600 0216                bne        +0x218 /* 0000104C */
00000E38  206E FDEC                movea.l    A0, [A6 - 0x214]
00000E3C  2948 0126                move.l     [A4 + 0x126], A0
00000E40  2050                     movea.l    A0, [A0]
00000E42  2068 0004                movea.l    A0, [A0 + 0x4]
00000E46  2D48 FFF8                move.l     [A6 - 0x8], A0
00000E4A  2050                     movea.l    A0, [A0]
00000E4C  2068 0002                movea.l    A0, [A0 + 0x2]
00000E50  2D48 FFFC                move.l     [A6 - 0x4], A0
00000E54  2050                     movea.l    A0, [A0]
00000E56  317C 0002 0006           move.w     [A0 + 0x6], 0x2
00000E5C  206E FFFC                movea.l    A0, [A6 - 0x4]
00000E60  2050                     movea.l    A0, [A0]
00000E62  4268 000A                clr.w      [A0 + 0xA]
00000E66  206E FFFC                movea.l    A0, [A6 - 0x4]
00000E6A  2050                     movea.l    A0, [A0]
00000E6C  4268 0008                clr.w      [A0 + 0x8]
00000E70  206E FFFC                movea.l    A0, [A6 - 0x4]
00000E74  2050                     movea.l    A0, [A0]
00000E76  317C 0008 000C           move.w     [A0 + 0xC], 0x8
00000E7C  206E FFFC                movea.l    A0, [A6 - 0x4]
00000E80  2050                     movea.l    A0, [A0]
00000E82  317C 0008 000E           move.w     [A0 + 0xE], 0x8
00000E88  7010                     moveq.l    D0, 0x10
00000E8A  A322                     syscall    NewHandleClear, flags=3
00000E8C  226E FFFC                movea.l    A1, [A6 - 0x4]
00000E90  2251                     movea.l    A1, [A1]
00000E92  2348 0034                move.l     [A1 + 0x34], A0
00000E96  70FF                     moveq.l    D0, 0xFFFFFFFF
00000E98  3F00                     move.w     -[A7], D0
00000E9A  2F2E FDEC                move.l     -[A7], [A6 - 0x214]
00000E9E  4EBA F392                jsr        [PC - 0xC6E /* 00000232 */]
00000EA2  206E FFFC                movea.l    A0, [A6 - 0x4]
00000EA6  2050                     movea.l    A0, [A0]
00000EA8  3028 005A                move.w     D0, [A0 + 0x5A]
00000EAC  D07C 005D                add.w      D0, 0x5D /* ']' */
00000EB0  3D40 FFF2                move.w     [A6 - 0xE], D0
00000EB4  206C 0126                movea.l    A0, [A4 + 0x126]
00000EB8  2050                     movea.l    A0, [A0]
00000EBA  3028 0038                move.w     D0, [A0 + 0x38]
00000EBE  5040                     addq.w     D0, 8
00000EC0  3D40 FFF0                move.w     [A6 - 0x10], D0
00000EC4  206E FFFC                movea.l    A0, [A6 - 0x4]
00000EC8  2050                     movea.l    A0, [A0]
00000ECA  3028 005A                move.w     D0, [A0 + 0x5A]
00000ECE  5040                     addq.w     D0, 8
00000ED0  3940 013E                move.w     [A4 + 0x13E], D0
00000ED4  397C 0008 013C           move.w     [A4 + 0x13C], 0x8
00000EDA  302C 013E                move.w     D0, [A4 + 0x13E]
00000EDE  D07C 004D                add.w      D0, 0x4D /* 'M' */
00000EE2  3940 0142                move.w     [A4 + 0x142], D0
00000EE6  302E FFF0                move.w     D0, [A6 - 0x10]
00000EEA  5140                     subq.w     D0, 8
00000EEC  3940 0140                move.w     [A4 + 0x140], D0
00000EF0  2F2E 000C                move.l     -[A7], [A6 + 0xC]
00000EF4  486E FEF0                pea.l      [A6 - 0x110]
00000EF8  486E FDF0                pea.l      [A6 - 0x210]
00000EFC  4EBA FC98                jsr        [PC - 0x368 /* 00000B96 */]
00000F00  598F                     subq.l     A7, 4
00000F02  7000                     moveq.l    D0, 0x00
00000F04  3F00                     move.w     -[A7], D0
00000F06  7200                     moveq.l    D1, 0x00
00000F08  1F01                     move.b     -[A7], D1
00000F0A  2F2E FFF0                move.l     -[A7], [A6 - 0x10]
00000F0E  486E FDF0                pea.l      [A6 - 0x210]
00000F12  486E FEF0                pea.l      [A6 - 0x110]
00000F16  7001                     moveq.l    D0, 0x01
00000F18  1F00                     move.b     -[A7], D0
00000F1A  3F2C 0112                move.w     -[A7], [A4 + 0x112]
00000F1E  2F2E 0008                move.l     -[A7], [A6 + 0x8]
00000F22  4EBA F20E                jsr        [PC - 0xDF2 /* 00000132 */]
00000F26  2D5F FCE2                move.l     [A6 - 0x31E], [A7]+
00000F2A  4FEF 000C                lea.l      A7, [A7 + 0xC]
00000F2E  660C                     bne        +0xE /* 00000F3C */
00000F30  2F0C                     move.l     -[A7], A4
00000F32  4EBA FCF8                jsr        [PC - 0x308 /* 00000C2C */]
00000F36  584F                     addq.w     A7, 4
00000F38  6000 0112                bra        +0x114 /* 0000104C */
label00000F3C:
00000F3C  296E FCE2 0104           move.l     [A4 + 0x104], [A6 - 0x31E]
00000F42  7000                     moveq.l    D0, 0x00
00000F44  102E FEF0                move.b     D0, [A6 - 0x110]
00000F48  5240                     addq.w     D0, 1
00000F4A  48C0                     ext.l      D0
00000F4C  2F00                     move.l     -[A7], D0
00000F4E  486E FEF0                pea.l      [A6 - 0x110]
00000F52  486C 0004                pea.l      [A4 + 0x4]
00000F56  4EBA 11DC                jsr        [PC + 0x11DC /* 00002134 */]
00000F5A  206E FCE2                movea.l    A0, [A6 - 0x31E]
00000F5E  316C 0112 006C           move.w     [A0 + 0x6C], [A4 + 0x112]
00000F64  206E FCE2                movea.l    A0, [A6 - 0x31E]
00000F68  214B 0098                move.l     [A0 + 0x98], A3
00000F6C  2F2E FCE2                move.l     -[A7], [A6 - 0x31E]
00000F70  A873                     syscall    SetPort
00000F72  206E FDEC                movea.l    A0, [A6 - 0x214]
00000F76  2050                     movea.l    A0, [A0]
00000F78  216E FCE2 00C2           move.l     [A0 + 0xC2], [A6 - 0x31E]
00000F7E  486E FFF4                pea.l      [A6 - 0xC]
00000F82  703D                     moveq.l    D0, 0x3D
00000F84  3F00                     move.w     -[A7], D0
00000F86  7228                     moveq.l    D1, 0x28
00000F88  3F01                     move.w     -[A7], D1
00000F8A  A880                     syscall    SetPt
00000F8C  598F                     subq.l     A7, 4
00000F8E  206C 0114                movea.l    A0, [A4 + 0x114]
00000F92  2050                     movea.l    A0, [A0]
00000F94  3F10                     move.w     -[A7], [A0]
00000F96  558F                     subq.l     A7, 2
00000F98  4EBA F094                jsr        [PC - 0xF6C /* 0000002E */]
00000F9C  487A F512                pea.l      [PC - 0xAEE /* 000004B0, value 0x4E56FFF4 */]
00000FA0  2F2E FFF4                move.l     -[A7], [A6 - 0xC]
00000FA4  2F0B                     move.l     -[A7], A3
00000FA6  486C 013C                pea.l      [A4 + 0x13C]
00000FAA  486C 011E                pea.l      [A4 + 0x11E]
00000FAE  4EBA F252                jsr        [PC - 0xDAE /* 00000202 */]
00000FB2  295F 0138                move.l     [A4 + 0x138], [A7]+
00000FB6  2F0C                     move.l     -[A7], A4
00000FB8  4EBA F2A8                jsr        [PC - 0xD58 /* 00000262 */]
00000FBC  4A00                     tst.b      D0
00000FBE  4FEF 0010                lea.l      A7, [A7 + 0x10]
00000FC2  6600 0088                bne        +0x8A /* 0000104C */
00000FC6  7008                     moveq.l    D0, 0x08
00000FC8  A322                     syscall    NewHandleClear, flags=3
00000FCA  2948 012E                move.l     [A4 + 0x12E], A0
00000FCE  3978 0220 011E           move.w     [A4 + 0x11E], [0x00000220 /* MemErr */]
00000FD4  2F0C                     move.l     -[A7], A4
00000FD6  4EBA F28A                jsr        [PC - 0xD76 /* 00000262 */]
00000FDA  4A00                     tst.b      D0
00000FDC  584F                     addq.w     A7, 4
00000FDE  6708                     beq        +0xA /* 00000FE8 */
00000FE0  7000                     moveq.l    D0, 0x00
00000FE2  2940 012E                move.l     [A4 + 0x12E], D0
00000FE6  6064                     bra        +0x66 /* 0000104C */
label00000FE8:
00000FE8  2F0C                     move.l     -[A7], A4
00000FEA  4EBA F39C                jsr        [PC - 0xC64 /* 00000388 */]
00000FEE  2F0C                     move.l     -[A7], A4
00000FF0  4EBA F270                jsr        [PC - 0xD90 /* 00000262 */]
00000FF4  4A00                     tst.b      D0
00000FF6  504F                     addq.w     A7, 8
00000FF8  6652                     bne        +0x54 /* 0000104C */
00000FFA  598F                     subq.l     A7, 4
00000FFC  487A 005C                pea.l      [PC + 0x5C /* 0000105A, value 0x9504154 '\tPAT', pstring "PAT# undo" */]
00001000  A906                     syscall    NewString
00001002  206E FDEC                movea.l    A0, [A6 - 0x214]
00001006  2050                     movea.l    A0, [A0]
00001008  215F 0008                move.l     [A0 + 0x8], [A7]+
0000100C  202C 012A                move.l     D0, [A4 + 0x12A]
00001010  B0AC 012E                cmp.l      D0, [A4 + 0x12E]
00001014  660E                     bne        +0x10 /* 00001024 */
00001016  197C 0001 0132           move.b     [A4 + 0x132], 0x1
0000101C  2F0C                     move.l     -[A7], A4
0000101E  4EBA FCB8                jsr        [PC - 0x348 /* 00000CD8 */]
00001022  584F                     addq.w     A7, 4
label00001024:
00001024  598F                     subq.l     A7, 4
00001026  3F3C 0582                move.w     -[A7], 0x582
0000102A  A9BF                     syscall    GetRMenu
0000102C  295F 014A                move.l     [A4 + 0x14A], [A7]+
00001030  3978 0220 011E           move.w     [A4 + 0x11E], [0x00000220 /* MemErr */]
00001036  2F0C                     move.l     -[A7], A4
00001038  4EBA F228                jsr        [PC - 0xDD8 /* 00000262 */]
0000103C  4A00                     tst.b      D0
0000103E  584F                     addq.w     A7, 4
00001040  660A                     bne        +0xC /* 0000104C */
00001042  2F2C 014A                move.l     -[A7], [A4 + 0x14A]
00001046  A992                     syscall    DetachResource
00001048  204B                     movea.l    A0, A3
0000104A  A02A                     syscall    HUnlock
label0000104C:
0000104C  4CEE 1808 FCD6           movem.l    D3,A3,A4, [A6 - 0x32A]
00001052  4E5E                     unlink     A6
00001054  205F                     movea.l    A0, [A7]+
00001056  504F                     addq.w     A7, 8
00001058  4ED0                     jmp        [A0]
0000105A  0950                     bchg       [A0], D4
0000105C  4154                     chk.w      D0, [A4]
0000105E  2320                     move.l     -[A1], -[A0]
00001060  756E                     moveq.l    D2, 0x6E
00001062  646F                     bcc        +0x71 /* 000010D3 */
00001064  0000 4E56                ori.b      D0, 0x56 /* 'V' */
// begin alternate branch 00001066-0000106C
label00001066:
00001066  4E56 0000                link       A6, 0
0000106A  4E5E                     unlink     A6
// end alternate branch 00001066-0000106C
label00001066: // (misaligned)
00001068  0000 4E5E                ori.b      D0, 0x5E /* '^' */
0000106C  205F                     movea.l    A0, [A7]+
0000106E  504F                     addq.w     A7, 8
00001070  4ED0                     jmp        [A0]
fn00001072:
00001072  4E56 FF00                link       A6, -0x0100
00001076  48E7 0118                movem.l    -[A7], D7,A3,A4
0000107A  47EE FF00                lea.l      A3, [A6 - 0x100]
0000107E  286E 0008                movea.l    A4, [A6 + 0x8]
00001082  2E3C FFFF FF03           move.l     D7, 0xFFFFFF03
00001088  4A2C 0120                tst.b      [A4 + 0x120]
0000108C  673C                     beq        +0x3E /* 000010CA */
0000108E  7001                     moveq.l    D0, 0x01
00001090  3F00                     move.w     -[A7], D0
00001092  487A 0040                pea.l      [PC + 0x40 /* 000010D4, value 0xC504154, pstring "PAT# strings" */]
00001096  2F0B                     move.l     -[A7], A3
00001098  4EBA EFD4                jsr        [PC - 0x102C /* 0000006E */]
0000109C  598F                     subq.l     A7, 4
0000109E  3F3C 0080                move.w     -[A7], 0x80
000010A2  A949                     syscall    GetMenuHandle
000010A4  7001                     moveq.l    D0, 0x01
000010A6  3F00                     move.w     -[A7], D0
000010A8  2F0B                     move.l     -[A7], A3
000010AA  A947                     syscall    SetMenuItemText/SetItem
000010AC  558F                     subq.l     A7, 2
000010AE  2F2C 0114                move.l     -[A7], [A4 + 0x114]
000010B2  A9A6                     syscall    GetResAttrs
000010B4  7002                     moveq.l    D0, 0x02
000010B6  C05F                     and.w      D0, [A7]+
000010B8  6706                     beq        +0x8 /* 000010C0 */
000010BA  0687 0000 0040           addi.l     D7, 0x40 /* '@' */
label000010C0:
000010C0  3F3C 0080                move.w     -[A7], 0x80
000010C4  2F07                     move.l     -[A7], D7
000010C6  4EBA EFF6                jsr        [PC - 0x100A /* 000000BE */]
label000010CA:
000010CA  4CEE 1880 FEF4           movem.l    D7,A3,A4, [A6 - 0x10C]
000010D0  4E5E                     unlink     A6
000010D2  4E75                     rts
000010D4  0C50 4154                cmpi.w     [A0], 0x4154 /* 'AT' */
000010D8  2320                     move.l     -[A1], -[A0]
000010DA  7374                     moveq.l    D1, 0x74
000010DC  7269                     moveq.l    D1, 0x69
000010DE  6E67                     bgt        +0x69 /* 00001147 */
000010E0  7300                     moveq.l    D1, 0x00
fn000010E2:
000010E2  4E56 0000                link       A6, 0
000010E6  48E7 0108                movem.l    -[A7], D7,A4
000010EA  286E 0008                movea.l    A4, [A6 + 0x8]
000010EE  7E03                     moveq.l    D7, 0x03
000010F0  202C 012A                move.l     D0, [A4 + 0x12A]
000010F4  B0AC 012E                cmp.l      D0, [A4 + 0x12E]
000010F8  6604                     bne        +0x6 /* 000010FE */
000010FA  5587                     subq.l     D7, 2
000010FC  601A                     bra        +0x1C /* 00001118 */
label000010FE:
000010FE  2F2C 014A                move.l     -[A7], [A4 + 0x14A]
00001102  7001                     moveq.l    D0, 0x01
00001104  3F00                     move.w     -[A7], D0
00001106  4A2C 0157                tst.b      [A4 + 0x157]
0000110A  6704                     beq        +0x6 /* 00001110 */
0000110C  7212                     moveq.l    D1, 0x12
0000110E  6002                     bra        +0x4 /* 00001112 */
label00001110:
00001110  7200                     moveq.l    D1, 0x00
label00001112:
00001112  4881                     ext.w      D1
00001114  3F01                     move.w     -[A7], D1
00001116  A944                     syscall    SetItmMark
label00001118:
00001118  7001                     moveq.l    D0, 0x01
0000111A  B087                     cmp.l      D0, D7
0000111C  6602                     bne        +0x4 /* 00001120 */
0000111E  5387                     subq.l     D7, 1
label00001120:
00001120  3F3C 0582                move.w     -[A7], 0x582
00001124  2F07                     move.l     -[A7], D7
00001126  4EBA EF96                jsr        [PC - 0x106A /* 000000BE */]
0000112A  4CEE 1080 FFF8           movem.l    D7,A4, [A6 - 0x8]
00001130  4E5E                     unlink     A6
00001132  4E75                     rts
fn00001134:
00001134  4E56 0000                link       A6, 0
00001138  48E7 0F00                movem.l    -[A7], D4,D5,D6,D7
0000113C  4246                     clr.w      D6
0000113E  558F                     subq.l     A7, 2
00001140  4EBA EFA8                jsr        [PC - 0x1058 /* 000000EA */]
00001144  3E1F                     move.w     D7, [A7]+
00001146  0C47 FFFF                cmpi.w     D7, 0xFFFF
0000114A  6746                     beq        +0x48 /* 00001192 */
0000114C  558F                     subq.l     A7, 2
0000114E  A994                     syscall    CurResFile
00001150  381F                     move.w     D4, [A7]+
00001152  3F07                     move.w     -[A7], D7
00001154  A998                     syscall    UseResFile
00001156  558F                     subq.l     A7, 2
00001158  3F07                     move.w     -[A7], D7
0000115A  2F3C 5041 5423           move.l     -[A7], 0x50415423 /* 'PAT#' */
00001160  4EBA EEF4                jsr        [PC - 0x110C /* 00000056 */]
00001164  4A5F                     tst.w      [A7]+
00001166  6F04                     ble        +0x6 /* 0000116C */
00001168  7C03                     moveq.l    D6, 0x03
0000116A  6022                     bra        +0x24 /* 0000118E */
label0000116C:
0000116C  558F                     subq.l     A7, 2
0000116E  3F07                     move.w     -[A7], D7
00001170  2F3C 5041 5420           move.l     -[A7], 0x50415420 /* 'PAT ' */
00001176  4EBA EEDE                jsr        [PC - 0x1122 /* 00000056 */]
0000117A  3A1F                     move.w     D5, [A7]+
0000117C  0C45 0001                cmpi.w     D5, 0x1
00001180  6F04                     ble        +0x6 /* 00001186 */
00001182  7C02                     moveq.l    D6, 0x02
00001184  6008                     bra        +0xA /* 0000118E */
label00001186:
00001186  0C45 0001                cmpi.w     D5, 0x1
0000118A  6602                     bne        +0x4 /* 0000118E */
0000118C  7C01                     moveq.l    D6, 0x01
label0000118E:
0000118E  3F04                     move.w     -[A7], D4
00001190  A998                     syscall    UseResFile
label00001192:
00001192  3006                     move.w     D0, D6
00001194  4CEE 00F0 FFF0           movem.l    D4,D5,D6,D7, [A6 - 0x10]
0000119A  4E5E                     unlink     A6
0000119C  4E75                     rts
fn0000119E:
0000119E  4E56 F9FC                link       A6, -0x0604
000011A2  48E7 1718                movem.l    -[A7], D3,D5,D6,D7,A3,A4
000011A6  47EE FEFC                lea.l      A3, [A6 - 0x104]
000011AA  286E 0008                movea.l    A4, [A6 + 0x8]
000011AE  4A2C 0132                tst.b      [A4 + 0x132]
000011B2  6700 017E                beq        +0x180 /* 00001332 */
000011B6  4A2C 0120                tst.b      [A4 + 0x120]
000011BA  670C                     beq        +0xE /* 000011C8 */
000011BC  206C 0126                movea.l    A0, [A4 + 0x126]
000011C0  2050                     movea.l    A0, [A0]
000011C2  3068 0072                movea.w    A0, [A0 + 0x72]
000011C6  6004                     bra        +0x6 /* 000011CC */
label000011C8:
000011C8  307C 0001                movea.w    A0, 0x1
label000011CC:
000011CC  3A08                     move.w     D5, A0
000011CE  0C45 0001                cmpi.w     D5, 0x1
000011D2  57C3                     seq        D3
000011D4  4403                     neg.b      D3
000011D6  6708                     beq        +0xA /* 000011E0 */
000011D8  203C FFFF F979           move.l     D0, 0xFFFFF979
000011DE  6006                     bra        +0x8 /* 000011E6 */
label000011E0:
000011E0  203C FFFF F97B           move.l     D0, 0xFFFFF97B
label000011E6:
000011E6  2C00                     move.l     D6, D0
000011E8  558F                     subq.l     A7, 2
000011EA  486E FFFC                pea.l      [A6 - 0x4]
000011EE  2F2C 0138                move.l     -[A7], [A4 + 0x138]
000011F2  4EBA F01A                jsr        [PC - 0xFE6 /* 0000020E */]
000011F6  1E1F                     move.b     D7, [A7]+
000011F8  7000                     moveq.l    D0, 0x00
000011FA  1007                     move.b     D0, D7
000011FC  4A80                     tst.l      D0
000011FE  6606                     bne        +0x8 /* 00001206 */
00001200  0486 0000 0058           subi.l     D6, 0x58 /* 'X' */
label00001206:
00001206  7000                     moveq.l    D0, 0x00
00001208  1007                     move.b     D0, D7
0000120A  5840                     addq.w     D0, 4
0000120C  3F00                     move.w     -[A7], D0
0000120E  487A 01E6                pea.l      [PC + 0x1E6 /* 000013F6, value 0x16504154, pstring "PAT# edit menu strings" */]
00001212  486E FAFC                pea.l      [A6 - 0x504]
00001216  4EBA EE56                jsr        [PC - 0x11AA /* 0000006E */]
0000121A  7000                     moveq.l    D0, 0x00
0000121C  1007                     move.b     D0, D7
0000121E  5240                     addq.w     D0, 1
00001220  3F00                     move.w     -[A7], D0
00001222  487A 01BA                pea.l      [PC + 0x1BA /* 000013DE, value 0x16504154, pstring "PAT# edit menu strings" */]
00001226  486E FBFC                pea.l      [A6 - 0x404]
0000122A  4EBA EE42                jsr        [PC - 0x11BE /* 0000006E */]
0000122E  7000                     moveq.l    D0, 0x00
00001230  1007                     move.b     D0, D7
00001232  D07C 000B                add.w      D0, 0xB
00001236  3F00                     move.w     -[A7], D0
00001238  487A 018C                pea.l      [PC + 0x18C /* 000013C6, value 0x16504154, pstring "PAT# edit menu strings" */]
0000123C  486E FDFC                pea.l      [A6 - 0x204]
00001240  4EBA EE2C                jsr        [PC - 0x11D4 /* 0000006E */]
00001244  598F                     subq.l     A7, 4
00001246  7003                     moveq.l    D0, 0x03
00001248  3F00                     move.w     -[A7], D0
0000124A  A949                     syscall    GetMenuHandle
0000124C  7003                     moveq.l    D0, 0x03
0000124E  3F00                     move.w     -[A7], D0
00001250  486E FAFC                pea.l      [A6 - 0x504]
00001254  A947                     syscall    SetMenuItemText/SetItem
00001256  598F                     subq.l     A7, 4
00001258  7003                     moveq.l    D0, 0x03
0000125A  3F00                     move.w     -[A7], D0
0000125C  A949                     syscall    GetMenuHandle
0000125E  7004                     moveq.l    D0, 0x04
00001260  3F00                     move.w     -[A7], D0
00001262  486E FBFC                pea.l      [A6 - 0x404]
00001266  A947                     syscall    SetMenuItemText/SetItem
00001268  598F                     subq.l     A7, 4
0000126A  7003                     moveq.l    D0, 0x03
0000126C  3F00                     move.w     -[A7], D0
0000126E  A949                     syscall    GetMenuHandle
00001270  7006                     moveq.l    D0, 0x06
00001272  3F00                     move.w     -[A7], D0
00001274  486E FDFC                pea.l      [A6 - 0x204]
00001278  A947                     syscall    SetMenuItemText/SetItem
0000127A  7000                     moveq.l    D0, 0x00
0000127C  1007                     move.b     D0, D7
0000127E  0C40 0001                cmpi.w     D0, 0x1
00001282  6604                     bne        +0x6 /* 00001288 */
00001284  7E0F                     moveq.l    D7, 0x0F
00001286  6008                     bra        +0xA /* 00001290 */
label00001288:
00001288  0486 0000 0100           subi.l     D6, 0x100
0000128E  7E0E                     moveq.l    D7, 0x0E
label00001290:
00001290  3F07                     move.w     -[A7], D7
00001292  487A 011A                pea.l      [PC + 0x11A /* 000013AE, value 0x16504154, pstring "PAT# edit menu strings" */]
00001296  486E FEFC                pea.l      [A6 - 0x104]
0000129A  4EBA EDD2                jsr        [PC - 0x122E /* 0000006E */]
0000129E  598F                     subq.l     A7, 4
000012A0  7003                     moveq.l    D0, 0x03
000012A2  3F00                     move.w     -[A7], D0
000012A4  A949                     syscall    GetMenuHandle
000012A6  7008                     moveq.l    D0, 0x08
000012A8  3F00                     move.w     -[A7], D0
000012AA  486E FEFC                pea.l      [A6 - 0x104]
000012AE  A947                     syscall    SetMenuItemText/SetItem
000012B0  558F                     subq.l     A7, 2
000012B2  206C 0138                movea.l    A0, [A4 + 0x138]
000012B6  2050                     movea.l    A0, [A0]
000012B8  4868 0048                pea.l      [A0 + 0x48]
000012BC  A8AE                     syscall    EmptyRect
000012BE  4A1F                     tst.b      [A7]+
000012C0  6606                     bne        +0x8 /* 000012C8 */
000012C2  0686 0000 0200           addi.l     D6, 0x200
label000012C8:
000012C8  4EBA FE6A                jsr        [PC - 0x196 /* 00001134 */]
000012CC  3E00                     move.w     D7, D0
000012CE  6606                     bne        +0x8 /* 000012D6 */
000012D0  0486 0000 0020           subi.l     D6, 0x20 /* ' ' */
label000012D6:
000012D6  3007                     move.w     D0, D7
000012D8  5E40                     addq.w     D0, 7
000012DA  3F00                     move.w     -[A7], D0
000012DC  487A 00B8                pea.l      [PC + 0xB8 /* 00001396, value 0x16504154, pstring "PAT# edit menu strings" */]
000012E0  486E FCFC                pea.l      [A6 - 0x304]
000012E4  4EBA ED88                jsr        [PC - 0x1278 /* 0000006E */]
000012E8  598F                     subq.l     A7, 4
000012EA  7003                     moveq.l    D0, 0x03
000012EC  3F00                     move.w     -[A7], D0
000012EE  A949                     syscall    GetMenuHandle
000012F0  7005                     moveq.l    D0, 0x05
000012F2  3F00                     move.w     -[A7], D0
000012F4  486E FCFC                pea.l      [A6 - 0x304]
000012F8  A947                     syscall    SetMenuItemText/SetItem
000012FA  0C45 0064                cmpi.w     D5, 0x64 /* 'd' */
000012FE  6D26                     blt        +0x28 /* 00001326 */
00001300  3005                     move.w     D0, D5
00001302  907C 0063                sub.w      D0, 0x63 /* 'c' */
00001306  3F00                     move.w     -[A7], D0
00001308  487A 0080                pea.l      [PC + 0x80 /* 0000138A, value 0x9504154 '\tPAT', pstring "PAT# undo" */]
0000130C  486E F9FC                pea.l      [A6 - 0x604]
00001310  4EBA ED5C                jsr        [PC - 0x12A4 /* 0000006E */]
00001314  598F                     subq.l     A7, 4
00001316  7003                     moveq.l    D0, 0x03
00001318  3F00                     move.w     -[A7], D0
0000131A  A949                     syscall    GetMenuHandle
0000131C  7001                     moveq.l    D0, 0x01
0000131E  3F00                     move.w     -[A7], D0
00001320  486E F9FC                pea.l      [A6 - 0x604]
00001324  A947                     syscall    SetMenuItemText/SetItem
label00001326:
00001326  7003                     moveq.l    D0, 0x03
00001328  3F00                     move.w     -[A7], D0
0000132A  2F06                     move.l     -[A7], D6
0000132C  4EBA ED90                jsr        [PC - 0x1270 /* 000000BE */]
00001330  6036                     bra        +0x38 /* 00001368 */
label00001332:
00001332  4EBA FE00                jsr        [PC - 0x200 /* 00001134 */]
00001336  3C00                     move.w     D6, D0
00001338  672E                     beq        +0x30 /* 00001368 */
0000133A  3006                     move.w     D0, D6
0000133C  5E40                     addq.w     D0, 7
0000133E  3F00                     move.w     -[A7], D0
00001340  487A 0030                pea.l      [PC + 0x30 /* 00001372, value 0x16504154, pstring "PAT# edit menu strings" */]
00001344  2F0B                     move.l     -[A7], A3
00001346  4EBA ED26                jsr        [PC - 0x12DA /* 0000006E */]
0000134A  598F                     subq.l     A7, 4
0000134C  7003                     moveq.l    D0, 0x03
0000134E  3F00                     move.w     -[A7], D0
00001350  A949                     syscall    GetMenuHandle
00001352  7005                     moveq.l    D0, 0x05
00001354  3F00                     move.w     -[A7], D0
00001356  2F0B                     move.l     -[A7], A3
00001358  A947                     syscall    SetMenuItemText/SetItem
0000135A  598F                     subq.l     A7, 4
0000135C  7003                     moveq.l    D0, 0x03
0000135E  3F00                     move.w     -[A7], D0
00001360  A949                     syscall    GetMenuHandle
00001362  7005                     moveq.l    D0, 0x05
00001364  3F00                     move.w     -[A7], D0
00001366  A939                     syscall    EnableItem
label00001368:
00001368  4CEE 18E8 F9E4           movem.l    D3,D5,D6,D7,A3,A4, [A6 - 0x61C]
0000136E  4E5E                     unlink     A6
00001370  4E75                     rts
00001372  1650                     movea.b    A3, [A0]
00001374  4154                     chk.w      D0, [A4]
00001376  2320                     move.l     -[A1], -[A0]
00001378  6564                     bcs        +0x66 /* 000013DE */
0000137A  6974                     bvs        +0x76 /* 000013F0 */
0000137C  206D 656E                movea.l    A0, [A5 + 0x656E]
00001380  7520                     moveq.l    D2, 0x20
00001382  7374                     moveq.l    D1, 0x74
00001384  7269                     moveq.l    D1, 0x69
00001386  6E67                     bgt        +0x69 /* 000013EF */
00001388  7300                     moveq.l    D1, 0x00
0000138A  0950                     bchg       [A0], D4
0000138C  4154                     chk.w      D0, [A4]
0000138E  2320                     move.l     -[A1], -[A0]
00001390  756E                     moveq.l    D2, 0x6E
00001392  646F                     bcc        +0x71 /* 00001403 */
00001394  0000 1650                ori.b      D0, 0x50 /* 'P' */
00001398  4154                     chk.w      D0, [A4]
0000139A  2320                     move.l     -[A1], -[A0]
0000139C  6564                     bcs        +0x66 /* 00001402 */
0000139E  6974                     bvs        +0x76 /* 00001414 */
000013A0  206D 656E                movea.l    A0, [A5 + 0x656E]
000013A4  7520                     moveq.l    D2, 0x20
000013A6  7374                     moveq.l    D1, 0x74
000013A8  7269                     moveq.l    D1, 0x69
000013AA  6E67                     bgt        +0x69 /* 00001413 */
000013AC  7300                     moveq.l    D1, 0x00
000013AE  1650                     movea.b    A3, [A0]
000013B0  4154                     chk.w      D0, [A4]
000013B2  2320                     move.l     -[A1], -[A0]
000013B4  6564                     bcs        +0x66 /* 0000141A */
000013B6  6974                     bvs        +0x76 /* 0000142C */
000013B8  206D 656E                movea.l    A0, [A5 + 0x656E]
000013BC  7520                     moveq.l    D2, 0x20
000013BE  7374                     moveq.l    D1, 0x74
000013C0  7269                     moveq.l    D1, 0x69
000013C2  6E67                     bgt        +0x69 /* 0000142B */
000013C4  7300                     moveq.l    D1, 0x00
000013C6  1650                     movea.b    A3, [A0]
000013C8  4154                     chk.w      D0, [A4]
000013CA  2320                     move.l     -[A1], -[A0]
000013CC  6564                     bcs        +0x66 /* 00001432 */
000013CE  6974                     bvs        +0x76 /* 00001444 */
000013D0  206D 656E                movea.l    A0, [A5 + 0x656E]
000013D4  7520                     moveq.l    D2, 0x20
000013D6  7374                     moveq.l    D1, 0x74
000013D8  7269                     moveq.l    D1, 0x69
000013DA  6E67                     bgt        +0x69 /* 00001443 */
000013DC  7300                     moveq.l    D1, 0x00
label000013DE:
000013DE  1650                     movea.b    A3, [A0]
000013E0  4154                     chk.w      D0, [A4]
000013E2  2320                     move.l     -[A1], -[A0]
000013E4  6564                     bcs        +0x66 /* 0000144A */
000013E6  6974                     bvs        +0x76 /* 0000145C */
000013E8  206D 656E                movea.l    A0, [A5 + 0x656E]
000013EC  7520                     moveq.l    D2, 0x20
000013EE  7374                     moveq.l    D1, 0x74
label000013F0:
000013F0  7269                     moveq.l    D1, 0x69
000013F2  6E67                     bgt        +0x69 /* 0000145B */
000013F4  7300                     moveq.l    D1, 0x00
000013F6  1650                     movea.b    A3, [A0]
000013F8  4154                     chk.w      D0, [A4]
000013FA  2320                     move.l     -[A1], -[A0]
000013FC  6564                     bcs        +0x66 /* 00001462 */
000013FE  6974                     bvs        +0x76 /* 00001474 */
00001400  206D 656E                movea.l    A0, [A5 + 0x656E]
// begin alternate branch 00001402-00001404
label00001402:
00001402  656E                     bcs        +0x70 /* 00001472 */
// end alternate branch 00001402-00001404
label00001402: // (misaligned)
00001404  7520                     moveq.l    D2, 0x20
00001406  7374                     moveq.l    D1, 0x74
00001408  7269                     moveq.l    D1, 0x69
0000140A  6E67                     bgt        +0x69 /* 00001473 */
0000140C  7300                     moveq.l    D1, 0x00
fn0000140E:
0000140E  4E56 FF00                link       A6, -0x0100
00001412  2F0C                     move.l     -[A7], A4
label00001414:
00001414  49EE FF00                lea.l      A4, [A6 - 0x100]
00001418  7004                     moveq.l    D0, 0x04
label0000141A:
0000141A  3F00                     move.w     -[A7], D0
0000141C  487A 00F8                pea.l      [PC + 0xF8 /* 00001516, value 0x16504154, pstring "PAT# edit menu strings" */]
00001420  2F0C                     move.l     -[A7], A4
00001422  4EBA EC4A                jsr        [PC - 0x13B6 /* 0000006E */]
00001426  598F                     subq.l     A7, 4
00001428  7003                     moveq.l    D0, 0x03
0000142A  3F00                     move.w     -[A7], D0
label0000142C:
0000142C  A949                     syscall    GetMenuHandle
0000142E  7003                     moveq.l    D0, 0x03
00001430  3F00                     move.w     -[A7], D0
label00001432:
00001432  2F0C                     move.l     -[A7], A4
00001434  A947                     syscall    SetMenuItemText/SetItem
00001436  7001                     moveq.l    D0, 0x01
00001438  3F00                     move.w     -[A7], D0
0000143A  487A 00C2                pea.l      [PC + 0xC2 /* 000014FE, value 0x16504154, pstring "PAT# edit menu strings" */]
0000143E  2F0C                     move.l     -[A7], A4
00001440  4EBA EC2C                jsr        [PC - 0x13D4 /* 0000006E */]
label00001444:
00001444  598F                     subq.l     A7, 4
00001446  7003                     moveq.l    D0, 0x03
00001448  3F00                     move.w     -[A7], D0
label0000144A:
0000144A  A949                     syscall    GetMenuHandle
0000144C  7004                     moveq.l    D0, 0x04
0000144E  3F00                     move.w     -[A7], D0
00001450  2F0C                     move.l     -[A7], A4
00001452  A947                     syscall    SetMenuItemText/SetItem
00001454  7007                     moveq.l    D0, 0x07
00001456  3F00                     move.w     -[A7], D0
00001458  487A 008C                pea.l      [PC + 0x8C /* 000014E6, value 0x16504154, pstring "PAT# edit menu strings" */]
label0000145C:
0000145C  2F0C                     move.l     -[A7], A4
0000145E  4EBA EC0E                jsr        [PC - 0x13F2 /* 0000006E */]
label00001462:
00001462  598F                     subq.l     A7, 4
00001464  7003                     moveq.l    D0, 0x03
00001466  3F00                     move.w     -[A7], D0
00001468  A949                     syscall    GetMenuHandle
0000146A  7005                     moveq.l    D0, 0x05
0000146C  3F00                     move.w     -[A7], D0
0000146E  2F0C                     move.l     -[A7], A4
00001470  A947                     syscall    SetMenuItemText/SetItem
label00001472:
00001472  700B                     moveq.l    D0, 0x0B
label00001474:
00001474  3F00                     move.w     -[A7], D0
00001476  487A 0056                pea.l      [PC + 0x56 /* 000014CE, value 0x16504154, pstring "PAT# edit menu strings" */]
0000147A  2F0C                     move.l     -[A7], A4
0000147C  4EBA EBF0                jsr        [PC - 0x1410 /* 0000006E */]
00001480  598F                     subq.l     A7, 4
00001482  7003                     moveq.l    D0, 0x03
00001484  3F00                     move.w     -[A7], D0
00001486  A949                     syscall    GetMenuHandle
00001488  7006                     moveq.l    D0, 0x06
0000148A  3F00                     move.w     -[A7], D0
0000148C  2F0C                     move.l     -[A7], A4
0000148E  A947                     syscall    SetMenuItemText/SetItem
00001490  700E                     moveq.l    D0, 0x0E
00001492  3F00                     move.w     -[A7], D0
00001494  487A 0020                pea.l      [PC + 0x20 /* 000014B6, value 0x16504154, pstring "PAT# edit menu strings" */]
00001498  2F0C                     move.l     -[A7], A4
0000149A  4EBA EBD2                jsr        [PC - 0x142E /* 0000006E */]
0000149E  598F                     subq.l     A7, 4
000014A0  7003                     moveq.l    D0, 0x03
000014A2  3F00                     move.w     -[A7], D0
000014A4  A949                     syscall    GetMenuHandle
000014A6  7008                     moveq.l    D0, 0x08
000014A8  3F00                     move.w     -[A7], D0
000014AA  2F0C                     move.l     -[A7], A4
000014AC  A947                     syscall    SetMenuItemText/SetItem
000014AE  286E FEFC                movea.l    A4, [A6 - 0x104]
000014B2  4E5E                     unlink     A6
000014B4  4E75                     rts
000014B6  1650                     movea.b    A3, [A0]
000014B8  4154                     chk.w      D0, [A4]
000014BA  2320                     move.l     -[A1], -[A0]
000014BC  6564                     bcs        +0x66 /* 00001522 */
000014BE  6974                     bvs        +0x76 /* 00001534 */
000014C0  206D 656E                movea.l    A0, [A5 + 0x656E]
000014C4  7520                     moveq.l    D2, 0x20
000014C6  7374                     moveq.l    D1, 0x74
000014C8  7269                     moveq.l    D1, 0x69
000014CA  6E67                     bgt        +0x69 /* 00001533 */
000014CC  7300                     moveq.l    D1, 0x00
000014CE  1650                     movea.b    A3, [A0]
000014D0  4154                     chk.w      D0, [A4]
000014D2  2320                     move.l     -[A1], -[A0]
000014D4  6564                     bcs        +0x66 /* 0000153A */
000014D6  6974                     bvs        +0x76 /* 0000154C */
000014D8  206D 656E                movea.l    A0, [A5 + 0x656E]
000014DC  7520                     moveq.l    D2, 0x20
000014DE  7374                     moveq.l    D1, 0x74
000014E0  7269                     moveq.l    D1, 0x69
000014E2  6E67                     bgt        +0x69 /* 0000154B */
000014E4  7300                     moveq.l    D1, 0x00
000014E6  1650                     movea.b    A3, [A0]
000014E8  4154                     chk.w      D0, [A4]
000014EA  2320                     move.l     -[A1], -[A0]
000014EC  6564                     bcs        +0x66 /* 00001552 */
000014EE  6974                     bvs        +0x76 /* 00001564 */
000014F0  206D 656E                movea.l    A0, [A5 + 0x656E]
000014F4  7520                     moveq.l    D2, 0x20
000014F6  7374                     moveq.l    D1, 0x74
000014F8  7269                     moveq.l    D1, 0x69
000014FA  6E67                     bgt        +0x69 /* 00001563 */
000014FC  7300                     moveq.l    D1, 0x00
000014FE  1650                     movea.b    A3, [A0]
00001500  4154                     chk.w      D0, [A4]
00001502  2320                     move.l     -[A1], -[A0]
00001504  6564                     bcs        +0x66 /* 0000156A */
00001506  6974                     bvs        +0x76 /* 0000157C */
00001508  206D 656E                movea.l    A0, [A5 + 0x656E]
0000150C  7520                     moveq.l    D2, 0x20
0000150E  7374                     moveq.l    D1, 0x74
00001510  7269                     moveq.l    D1, 0x69
00001512  6E67                     bgt        +0x69 /* 0000157B */
00001514  7300                     moveq.l    D1, 0x00
00001516  1650                     movea.b    A3, [A0]
00001518  4154                     chk.w      D0, [A4]
0000151A  2320                     move.l     -[A1], -[A0]
0000151C  6564                     bcs        +0x66 /* 00001582 */
0000151E  6974                     bvs        +0x76 /* 00001594 */
00001520  206D 656E                movea.l    A0, [A5 + 0x656E]
// begin alternate branch 00001522-00001524
label00001522:
00001522  656E                     bcs        +0x70 /* 00001592 */
// end alternate branch 00001522-00001524
label00001522: // (misaligned)
00001524  7520                     moveq.l    D2, 0x20
00001526  7374                     moveq.l    D1, 0x74
00001528  7269                     moveq.l    D1, 0x69
0000152A  6E67                     bgt        +0x69 /* 00001593 */
0000152C  7300                     moveq.l    D1, 0x00
fn0000152E:
0000152E  4E56 0000                link       A6, 0
00001532  48E7 0018                movem.l    -[A7], A3,A4
// begin alternate branch 00001534-0000153E
label00001534:
00001534  0018 286E                ori.b      [A0]+, 0x6E /* 'n' */
00001538  000C 266C                ori.b      A4, 0x6C /* 'l' */
label0000153A: // (misaligned)
0000153C  0126                     btst       -[A6], D0
// end alternate branch 00001534-0000153E
label00001534: // (misaligned)
00001536  286E 000C                movea.l    A4, [A6 + 0xC]
label0000153A:
0000153A  266C 0126                movea.l    A3, [A4 + 0x126]
0000153E  4A2C 0120                tst.b      [A4 + 0x120]
00001542  6716                     beq        +0x18 /* 0000155A */
00001544  2F0C                     move.l     -[A7], A4
00001546  4EBA FB2A                jsr        [PC - 0x4D6 /* 00001072 */]
0000154A  2F0C                     move.l     -[A7], A4
label0000154C:
0000154C  4EBA FB94                jsr        [PC - 0x46C /* 000010E2 */]
00001550  2F0C                     move.l     -[A7], A4
label00001552:
00001552  4EBA FC4A                jsr        [PC - 0x3B6 /* 0000119E */]
00001556  4FEF 000C                lea.l      A7, [A7 + 0xC]
label0000155A:
0000155A  4CEE 1800 FFF8           movem.l    A3,A4, [A6 - 0x8]
00001560  4E5E                     unlink     A6
00001562  4E75                     rts
label00001564:
00001564  4E56 0000                link       A6, 0
00001568  4E5E                     unlink     A6
label0000156A:
0000156A  205F                     movea.l    A0, [A7]+
0000156C  504F                     addq.w     A7, 8
0000156E  4ED0                     jmp        [A0]
00001570  4E56 0000                link       A6, 0
00001574  4E5E                     unlink     A6
00001576  205F                     movea.l    A0, [A7]+
00001578  504F                     addq.w     A7, 8
0000157A  4ED0                     jmp        [A0]
label0000157C:
0000157C  4E56 FFFE                link       A6, -0x0002
00001580  48E7 0108                movem.l    -[A7], D7,A4
// begin alternate branch 00001582-00001584
label00001582:
00001582  0108                     btst       A0, D0
// end alternate branch 00001582-00001584
label00001582: // (misaligned)
00001584  206E 0008                movea.l    A0, [A6 + 0x8]
00001588  2850                     movea.l    A4, [A0]
0000158A  3D7C 0072 FFFE           move.w     [A6 - 0x2], 0x72 /* 'r' */
00001590  486E FFFE                pea.l      [A6 - 0x2]
// begin alternate branch 00001592-00001594
label00001592:
00001592  FFFE                     .invalid   <<F/7/7>>
// end alternate branch 00001592-00001594
label00001592: // (misaligned)
label00001594:
00001594  2F0C                     move.l     -[A7], A4
00001596  4EBA F156                jsr        [PC - 0xEAA /* 000006EE */]
0000159A  1E00                     move.b     D7, D0
0000159C  504F                     addq.w     A7, 8
0000159E  6726                     beq        +0x28 /* 000015C6 */
000015A0  4AAC 0144                tst.l      [A4 + 0x144]
000015A4  6706                     beq        +0x8 /* 000015AC */
000015A6  206C 0144                movea.l    A0, [A4 + 0x144]
000015AA  A023                     syscall    DisposHandle/DisposeHandle
label000015AC:
000015AC  296E 000C 0144           move.l     [A4 + 0x144], [A6 + 0xC]
000015B2  396E FFFE 0148           move.w     [A4 + 0x148], [A6 - 0x2]
000015B8  2F0C                     move.l     -[A7], A4
000015BA  4EBA 091C                jsr        [PC + 0x91C /* 00001ED8 */]
000015BE  197C 0001 0159           move.b     [A4 + 0x159], 0x1
000015C4  584F                     addq.w     A7, 4
label000015C6:
000015C6  1D47 0010                move.b     [A6 + 0x10], D7
000015CA  4CEE 1080 FFF6           movem.l    D7,A4, [A6 - 0xA]
000015D0  4E5E                     unlink     A6
000015D2  205F                     movea.l    A0, [A7]+
000015D4  504F                     addq.w     A7, 8
000015D6  4ED0                     jmp        [A0]
fn000015D8:
000015D8  4E56 FFD6                link       A6, -0x002A
000015DC  48E7 0018                movem.l    -[A7], A3,A4
000015E0  286E 0008                movea.l    A4, [A6 + 0x8]
000015E4  598F                     subq.l     A7, 4
000015E6  4EBA EB16                jsr        [PC - 0x14EA /* 000000FE */]
000015EA  2D5F FFD6                move.l     [A6 - 0x2A], [A7]+
000015EE  206C 0126                movea.l    A0, [A4 + 0x126]
000015F2  2050                     movea.l    A0, [A0]
000015F4  2068 0004                movea.l    A0, [A0 + 0x4]
000015F8  2D48 FFFC                move.l     [A6 - 0x4], A0
000015FC  2050                     movea.l    A0, [A0]
000015FE  2668 0002                movea.l    A3, [A0 + 0x2]
00001602  486E FFDA                pea.l      [A6 - 0x26]
00001606  A898                     syscall    GetPenState
00001608  4A2C 0132                tst.b      [A4 + 0x132]
0000160C  671C                     beq        +0x1E /* 0000162A */
0000160E  41EE FFEC                lea.l      A0, [A6 - 0x14]
00001612  43EC 013C                lea.l      A1, [A4 + 0x13C]
00001616  20D9                     move.l     [A0]+, [A1]+
00001618  20D9                     move.l     [A0]+, [A1]+
0000161A  2053                     movea.l    A0, [A3]
0000161C  43EE FFF4                lea.l      A1, [A6 - 0xC]
00001620  41E8 0054                lea.l      A0, [A0 + 0x54]
00001624  22D8                     move.l     [A1]+, [A0]+
00001626  22D8                     move.l     [A1]+, [A0]+
00001628  601A                     bra        +0x1C /* 00001644 */
label0000162A:
0000162A  2053                     movea.l    A0, [A3]
0000162C  43EE FFEC                lea.l      A1, [A6 - 0x14]
00001630  41E8 0054                lea.l      A0, [A0 + 0x54]
00001634  22D8                     move.l     [A1]+, [A0]+
00001636  22D8                     move.l     [A1]+, [A0]+
00001638  41EE FFF4                lea.l      A0, [A6 - 0xC]
0000163C  43EC 013C                lea.l      A1, [A4 + 0x13C]
00001640  20D9                     move.l     [A0]+, [A1]+
00001642  20D9                     move.l     [A0]+, [A1]+
label00001644:
00001644  7002                     moveq.l    D0, 0x02
00001646  3F00                     move.w     -[A7], D0
00001648  3F00                     move.w     -[A7], D0
0000164A  A89B                     syscall    PenSize
0000164C  486E FFEC                pea.l      [A6 - 0x14]
00001650  70FD                     moveq.l    D0, 0xFFFFFFFD
00001652  3F00                     move.w     -[A7], D0
00001654  3F00                     move.w     -[A7], D0
00001656  A8A9                     syscall    InsetRect
00001658  486E FFEC                pea.l      [A6 - 0x14]
0000165C  A8A1                     syscall    FrameRect
0000165E  206E FFD6                movea.l    A0, [A6 - 0x2A]
00001662  4868 0076                pea.l      [A0 + 0x76]
00001666  A89D                     syscall    PenPat
00001668  486E FFF4                pea.l      [A6 - 0xC]
0000166C  70FD                     moveq.l    D0, 0xFFFFFFFD
0000166E  3F00                     move.w     -[A7], D0
00001670  3F00                     move.w     -[A7], D0
00001672  A8A9                     syscall    InsetRect
00001674  486E FFF4                pea.l      [A6 - 0xC]
00001678  A8A1                     syscall    FrameRect
0000167A  486E FFDA                pea.l      [A6 - 0x26]
0000167E  A899                     syscall    SetPenState
00001680  4CEE 1800 FFCE           movem.l    A3,A4, [A6 - 0x32]
00001686  4E5E                     unlink     A6
00001688  4E75                     rts
label0000168A:
0000168A  4E56 FFF2                link       A6, -0x000E
0000168E  48E7 1F18                movem.l    -[A7], D3,D4,D5,D6,D7,A3,A4
00001692  266E 000C                movea.l    A3, [A6 + 0xC]
00001696  4205                     clr.b      D5
00001698  4206                     clr.b      D6
0000169A  2F2E 0008                move.l     -[A7], [A6 + 0x8]
0000169E  4EBA E9AE                jsr        [PC - 0x1652 /* 0000004E */]
000016A2  206E 0008                movea.l    A0, [A6 + 0x8]
000016A6  A029                     syscall    HLock
000016A8  206E 0008                movea.l    A0, [A6 + 0x8]
000016AC  2850                     movea.l    A4, [A0]
000016AE  2D6C 0126 FFFA           move.l     [A6 - 0x6], [A4 + 0x126]
000016B4  182C 0120                move.b     D4, [A4 + 0x120]
000016B8  2D6B 000A FFF6           move.l     [A6 - 0xA], [A3 + 0xA]
000016BE  2F2C 0104                move.l     -[A7], [A4 + 0x104]
000016C2  A873                     syscall    SetPort
000016C4  486E FFF6                pea.l      [A6 - 0xA]
000016C8  A871                     syscall    GlobalToLocal
000016CA  7001                     moveq.l    D0, 0x01
000016CC  B053                     cmp.w      D0, [A3]
000016CE  665C                     bne        +0x5E /* 0000172C */
000016D0  558F                     subq.l     A7, 2
000016D2  2F2E FFF6                move.l     -[A7], [A6 - 0xA]
000016D6  486C 013C                pea.l      [A4 + 0x13C]
000016DA  A8AD                     syscall    PtInRect
000016DC  1E1F                     move.b     D7, [A7]+
000016DE  BE2C 0132                cmp.b      D7, [A4 + 0x132]
000016E2  6748                     beq        +0x4A /* 0000172C */
000016E4  4A07                     tst.b      D7
000016E6  6618                     bne        +0x1A /* 00001700 */
000016E8  558F                     subq.l     A7, 2
000016EA  486E FFF2                pea.l      [A6 - 0xE]
000016EE  2F2C 0138                move.l     -[A7], [A4 + 0x138]
000016F2  4EBA EB1A                jsr        [PC - 0x14E6 /* 0000020E */]
000016F6  7000                     moveq.l    D0, 0x00
000016F8  101F                     move.b     D0, [A7]+
000016FA  0C40 0001                cmpi.w     D0, 0x1
000016FE  662C                     bne        +0x2E /* 0000172C */
label00001700:
00001700  206C 0104                movea.l    A0, [A4 + 0x104]
00001704  4868 0010                pea.l      [A0 + 0x10]
00001708  A928                     syscall    InvalRect
0000170A  1947 0132                move.b     [A4 + 0x132], D7
0000170E  2F0C                     move.l     -[A7], A4
00001710  4EBA F5C6                jsr        [PC - 0xA3A /* 00000CD8 */]
00001714  4A2C 0132                tst.b      [A4 + 0x132]
00001718  584F                     addq.w     A7, 4
0000171A  6610                     bne        +0x12 /* 0000172C */
0000171C  2F0C                     move.l     -[A7], A4
0000171E  4EBA FCEE                jsr        [PC - 0x312 /* 0000140E */]
00001722  4A07                     tst.b      D7
00001724  57C3                     seq        D3
00001726  4403                     neg.b      D3
00001728  1C03                     move.b     D6, D3
0000172A  584F                     addq.w     A7, 4
label0000172C:
0000172C  558F                     subq.l     A7, 2
0000172E  2F0B                     move.l     -[A7], A3
00001730  487A FE4A                pea.l      [PC - 0x1B6 /* 0000157C, value 0x4E56FFFE */]
00001734  2F2C 0138                move.l     -[A7], [A4 + 0x138]
00001738  486E FFFF                pea.l      [A6 - 0x1]
0000173C  486C 011E                pea.l      [A4 + 0x11E]
00001740  4EBA EAC8                jsr        [PC - 0x1538 /* 0000020A */]
00001744  1E1F                     move.b     D7, [A7]+
00001746  6714                     beq        +0x16 /* 0000175C */
00001748  2F0C                     move.l     -[A7], A4
0000174A  4EBA EC3C                jsr        [PC - 0x13C4 /* 00000388 */]
0000174E  2F0C                     move.l     -[A7], A4
00001750  4EBA EB10                jsr        [PC - 0x14F0 /* 00000262 */]
00001754  4A00                     tst.b      D0
00001756  504F                     addq.w     A7, 8
00001758  6600 012A                bne        +0x12C /* 00001884 */
label0000175C:
0000175C  4A2E FFFF                tst.b      [A6 - 0x1]
00001760  670C                     beq        +0xE /* 0000176E */
00001762  206C 0126                movea.l    A0, [A4 + 0x126]
00001766  2050                     movea.l    A0, [A0]
00001768  316C 0148 0072           move.w     [A0 + 0x72], [A4 + 0x148]
label0000176E:
0000176E  4A07                     tst.b      D7
00001770  6622                     bne        +0x24 /* 00001794 */
00001772  4A2E FFFF                tst.b      [A6 - 0x1]
00001776  661C                     bne        +0x1E /* 00001794 */
00001778  4A06                     tst.b      D6
0000177A  6618                     bne        +0x1A /* 00001794 */
0000177C  558F                     subq.l     A7, 2
0000177E  2F0B                     move.l     -[A7], A3
00001780  487A FDE2                pea.l      [PC - 0x21E /* 00001564, value 0x4E560000 'NV\0\0', cstring "NV" */]
00001784  487A FDEA                pea.l      [PC - 0x216 /* 00001570, value 0x4E560000 'NV\0\0', cstring "NV" */]
00001788  2F2E FFFA                move.l     -[A7], [A6 - 0x6]
0000178C  4EBA EAB0                jsr        [PC - 0x1550 /* 0000023E */]
00001790  395F 011E                move.w     [A4 + 0x11E], [A7]+
label00001794:
00001794  3013                     move.w     D0, [A3]
00001796  5740                     subq.w     D0, 3
00001798  6700 009E                beq        +0xA0 /* 00001838 */
0000179C  5740                     subq.w     D0, 3
0000179E  6700 0084                beq        +0x86 /* 00001824 */
000017A2  5540                     subq.w     D0, 2
000017A4  6600 00B4                bne        +0xB6 /* 0000185A */
000017A8  3F3C 0080                move.w     -[A7], 0x80
000017AC  2F3C FFFF FF41           move.l     -[A7], 0xFFFFFF41
000017B2  4EBA E90A                jsr        [PC - 0x16F6 /* 000000BE */]
000017B6  7001                     moveq.l    D0, 0x01
000017B8  C06B 000E                and.w      D0, [A3 + 0xE]
000017BC  7200                     moveq.l    D1, 0x00
000017BE  3200                     move.w     D1, D0
000017C0  4A81                     tst.l      D1
000017C2  56C3                     sne        D3
000017C4  4403                     neg.b      D3
000017C6  1943 0120                move.b     [A4 + 0x120], D3
000017CA  671A                     beq        +0x1C /* 000017E6 */
000017CC  2F2C 014A                move.l     -[A7], [A4 + 0x14A]
000017D0  7000                     moveq.l    D0, 0x00
000017D2  3F00                     move.w     -[A7], D0
000017D4  A935                     syscall    InsertMenu
000017D6  4A2C 0157                tst.b      [A4 + 0x157]
000017DA  673E                     beq        +0x40 /* 0000181A */
000017DC  2F0C                     move.l     -[A7], A4
000017DE  4EBA 03B6                jsr        [PC + 0x3B6 /* 00001B96 */]
000017E2  584F                     addq.w     A7, 4
000017E4  6034                     bra        +0x36 /* 0000181A */
label000017E6:
000017E6  2F0C                     move.l     -[A7], A4
000017E8  4EBA EDDC                jsr        [PC - 0x1224 /* 000005C6 */]
000017EC  4A00                     tst.b      D0
000017EE  584F                     addq.w     A7, 4
000017F0  660C                     bne        +0xE /* 000017FE */
000017F2  7000                     moveq.l    D0, 0x00
000017F4  2F00                     move.l     -[A7], D0
000017F6  2F0C                     move.l     -[A7], A4
000017F8  4EBA EAA6                jsr        [PC - 0x155A /* 000002A0 */]
000017FC  504F                     addq.w     A7, 8
label000017FE:
000017FE  4A04                     tst.b      D4
00001800  6706                     beq        +0x8 /* 00001808 */
00001802  3F3C 0582                move.w     -[A7], 0x582
00001806  A936                     syscall    DeleteMenu
label00001808:
00001808  70FF                     moveq.l    D0, 0xFFFFFFFF
0000180A  3F00                     move.w     -[A7], D0
0000180C  4EBA E944                jsr        [PC - 0x16BC /* 00000152 */]
00001810  2F0C                     move.l     -[A7], A4
00001812  4EBA 03DA                jsr        [PC + 0x3DA /* 00001BEE */]
00001816  7A01                     moveq.l    D5, 0x01
00001818  584F                     addq.w     A7, 4
label0000181A:
0000181A  7000                     moveq.l    D0, 0x00
0000181C  1F00                     move.b     -[A7], D0
0000181E  4EBA E886                jsr        [PC - 0x177A /* 000000A6 */]
00001822  6036                     bra        +0x38 /* 0000185A */
label00001824:
00001824  202B 0002                move.l     D0, [A3 + 0x2]
00001828  B0AC 0104                cmp.l      D0, [A4 + 0x104]
0000182C  662C                     bne        +0x2E /* 0000185A */
0000182E  2F0C                     move.l     -[A7], A4
00001830  4EBA FDA6                jsr        [PC - 0x25A /* 000015D8 */]
00001834  584F                     addq.w     A7, 4
00001836  6022                     bra        +0x24 /* 0000185A */
label00001838:
00001838  4A2C 0132                tst.b      [A4 + 0x132]
0000183C  671C                     beq        +0x1E /* 0000185A */
0000183E  203C 0000 00FF           move.l     D0, 0xFF
00001844  C0AB 0002                and.l      D0, [A3 + 0x2]
00001848  7208                     moveq.l    D1, 0x08
0000184A  B280                     cmp.l      D1, D0
0000184C  660C                     bne        +0xE /* 0000185A */
0000184E  2F0C                     move.l     -[A7], A4
00001850  7006                     moveq.l    D0, 0x06
00001852  2F00                     move.l     -[A7], D0
00001854  4EBA 00EE                jsr        [PC + 0xEE /* 00001944 */]
00001858  504F                     addq.w     A7, 8
label0000185A:
0000185A  2F0C                     move.l     -[A7], A4
0000185C  4EBA F2BC                jsr        [PC - 0xD44 /* 00000B1A */]
00001860  2F0C                     move.l     -[A7], A4
00001862  4EBA E9FE                jsr        [PC - 0x1602 /* 00000262 */]
00001866  4A00                     tst.b      D0
00001868  504F                     addq.w     A7, 8
0000186A  6618                     bne        +0x1A /* 00001884 */
0000186C  4A53                     tst.w      [A3]
0000186E  670E                     beq        +0x10 /* 0000187E */
00001870  2F0C                     move.l     -[A7], A4
00001872  7000                     moveq.l    D0, 0x00
00001874  1005                     move.b     D0, D5
00001876  2F00                     move.l     -[A7], D0
00001878  4EBA FCB4                jsr        [PC - 0x34C /* 0000152E */]
0000187C  504F                     addq.w     A7, 8
label0000187E:
0000187E  206E 0008                movea.l    A0, [A6 + 0x8]
00001882  A02A                     syscall    HUnlock
label00001884:
00001884  4CEE 18F8 FFD6           movem.l    D3,D4,D5,D6,D7,A3,A4, [A6 - 0x2A]
0000188A  4E5E                     unlink     A6
0000188C  205F                     movea.l    A0, [A7]+
0000188E  504F                     addq.w     A7, 8
00001890  4ED0                     jmp        [A0]
fn00001892:
00001892  4E56 0000                link       A6, 0
00001896  2F0C                     move.l     -[A7], A4
00001898  286E 000C                movea.l    A4, [A6 + 0xC]
0000189C  302E 000A                move.w     D0, [A6 + 0xA]
000018A0  5940                     subq.w     D0, 4
000018A2  670E                     beq        +0x10 /* 000018B2 */
000018A4  5340                     subq.w     D0, 1
000018A6  6758                     beq        +0x5A /* 00001900 */
000018A8  5140                     subq.w     D0, 8
000018AA  6700 0088                beq        +0x8A /* 00001934 */
000018AE  6000 008C                bra        +0x8E /* 0000193C */
label000018B2:
000018B2  7002                     moveq.l    D0, 0x02
000018B4  3F00                     move.w     -[A7], D0
000018B6  7204                     moveq.l    D1, 0x04
000018B8  3F01                     move.w     -[A7], D1
000018BA  2F2C 0118                move.l     -[A7], [A4 + 0x118]
000018BE  4EBA E836                jsr        [PC - 0x17CA /* 000000F6 */]
000018C2  558F                     subq.l     A7, 2
000018C4  4EBA E87C                jsr        [PC - 0x1784 /* 00000142 */]
000018C8  4A1F                     tst.b      [A7]+
000018CA  6670                     bne        +0x72 /* 0000193C */
000018CC  558F                     subq.l     A7, 2
000018CE  4EBA E87E                jsr        [PC - 0x1782 /* 0000014E */]
000018D2  4A1F                     tst.b      [A7]+
000018D4  6708                     beq        +0xA /* 000018DE */
000018D6  397C FFFF 011E           move.w     [A4 + 0x11E], 0xFFFF
000018DC  605E                     bra        +0x60 /* 0000193C */
label000018DE:
000018DE  2F0C                     move.l     -[A7], A4
000018E0  4EBA ECE4                jsr        [PC - 0x131C /* 000005C6 */]
000018E4  4A00                     tst.b      D0
000018E6  584F                     addq.w     A7, 4
000018E8  6708                     beq        +0xA /* 000018F2 */
000018EA  397C FFFF 011E           move.w     [A4 + 0x11E], 0xFFFF
000018F0  604A                     bra        +0x4C /* 0000193C */
label000018F2:
000018F2  7001                     moveq.l    D0, 0x01
000018F4  2F00                     move.l     -[A7], D0
000018F6  2F0C                     move.l     -[A7], A4
000018F8  4EBA E9A6                jsr        [PC - 0x165A /* 000002A0 */]
000018FC  504F                     addq.w     A7, 8
000018FE  603C                     bra        +0x3E /* 0000193C */
label00001900:
00001900  7002                     moveq.l    D0, 0x02
00001902  3F00                     move.w     -[A7], D0
00001904  7205                     moveq.l    D1, 0x05
00001906  3F01                     move.w     -[A7], D1
00001908  2F2C 0118                move.l     -[A7], [A4 + 0x118]
0000190C  4EBA E7E8                jsr        [PC - 0x1818 /* 000000F6 */]
00001910  558F                     subq.l     A7, 2
00001912  4EBA E82E                jsr        [PC - 0x17D2 /* 00000142 */]
00001916  4A1F                     tst.b      [A7]+
00001918  6622                     bne        +0x24 /* 0000193C */
0000191A  2F0C                     move.l     -[A7], A4
0000191C  4EBA ECA8                jsr        [PC - 0x1358 /* 000005C6 */]
00001920  4A00                     tst.b      D0
00001922  584F                     addq.w     A7, 4
00001924  6616                     bne        +0x18 /* 0000193C */
00001926  7001                     moveq.l    D0, 0x01
00001928  2F00                     move.l     -[A7], D0
0000192A  2F0C                     move.l     -[A7], A4
0000192C  4EBA E972                jsr        [PC - 0x168E /* 000002A0 */]
00001930  504F                     addq.w     A7, 8
00001932  6008                     bra        +0xA /* 0000193C */
label00001934:
00001934  7000                     moveq.l    D0, 0x00
00001936  2F00                     move.l     -[A7], D0
00001938  4EBA E834                jsr        [PC - 0x17CC /* 0000016E */]
label0000193C:
0000193C  286E FFFC                movea.l    A4, [A6 - 0x4]
00001940  4E5E                     unlink     A6
00001942  4E75                     rts
fn00001944:
00001944  4E56 FFFE                link       A6, -0x0002
00001948  2F0C                     move.l     -[A7], A4
0000194A  286E 000C                movea.l    A4, [A6 + 0xC]
0000194E  3D7C 0001 FFFE           move.w     [A6 - 0x2], 0x1
00001954  302E 000A                move.w     D0, [A6 + 0xA]
00001958  5740                     subq.w     D0, 3
0000195A  6B00 0140                bmi        +0x142 /* 00001A9C */
0000195E  0C40 0006                cmpi.w     D0, 0x6
00001962  6E00 0138                bgt        +0x13A /* 00001A9C */
00001966  D040                     add.w      D0, D0
00001968  303B 0006                move.w     D0, [PC + D0.w + 0x6]
0000196C  4EFB 0000                jmp        [PC + D0.w]
00001970  0010 0050                ori.b      [A0], 0x50 /* 'P' */
00001974  005C 0094                ori.w      [A4]+, 0x94
00001978  012E 00C8                btst       [A6 + 0xC8], D0
0000197C  00FC                     .incomplete
0000197E  3D7C 0068 FFFE           move.w     [A6 - 0x2], 0x68 /* 'h' */
00001984  486E FFFE                pea.l      [A6 - 0x2]
00001988  2F0C                     move.l     -[A7], A4
0000198A  4EBA ED62                jsr        [PC - 0x129E /* 000006EE */]
0000198E  4A00                     tst.b      D0
00001990  504F                     addq.w     A7, 8
00001992  6700 00FC                beq        +0xFE /* 00001A90 */
00001996  2F0C                     move.l     -[A7], A4
00001998  4EBA EFDE                jsr        [PC - 0x1022 /* 00000978 */]
0000199C  2F2C 0138                move.l     -[A7], [A4 + 0x138]
000019A0  4EBA E870                jsr        [PC - 0x1790 /* 00000212 */]
000019A4  2F0C                     move.l     -[A7], A4
000019A6  4EBA E9E0                jsr        [PC - 0x1620 /* 00000388 */]
000019AA  2F0C                     move.l     -[A7], A4
000019AC  4EBA 052A                jsr        [PC + 0x52A /* 00001ED8 */]
000019B0  197C 0001 0159           move.b     [A4 + 0x159], 0x1
000019B6  4FEF 000C                lea.l      A7, [A7 + 0xC]
000019BA  6000 00D4                bra        +0xD6 /* 00001A90 */
000019BE  2F0C                     move.l     -[A7], A4
000019C0  4EBA EFB6                jsr        [PC - 0x104A /* 00000978 */]
000019C4  584F                     addq.w     A7, 4
000019C6  6000 00C8                bra        +0xCA /* 00001A90 */
000019CA  3D7C 006A FFFE           move.w     [A6 - 0x2], 0x6A /* 'j' */
000019D0  486E FFFE                pea.l      [A6 - 0x2]
000019D4  2F0C                     move.l     -[A7], A4
000019D6  4EBA ED16                jsr        [PC - 0x12EA /* 000006EE */]
000019DA  4A00                     tst.b      D0
000019DC  504F                     addq.w     A7, 8
000019DE  6700 00B0                beq        +0xB2 /* 00001A90 */
000019E2  2F0C                     move.l     -[A7], A4
000019E4  4EBA F096                jsr        [PC - 0xF6A /* 00000A7C */]
000019E8  2F0C                     move.l     -[A7], A4
000019EA  4EBA E99C                jsr        [PC - 0x1664 /* 00000388 */]
000019EE  2F0C                     move.l     -[A7], A4
000019F0  4EBA 04E6                jsr        [PC + 0x4E6 /* 00001ED8 */]
000019F4  197C 0001 0159           move.b     [A4 + 0x159], 0x1
000019FA  4FEF 000C                lea.l      A7, [A7 + 0xC]
000019FE  6000 0090                bra        +0x92 /* 00001A90 */
00001A02  3D7C 006C FFFE           move.w     [A6 - 0x2], 0x6C /* 'l' */
00001A08  486E FFFE                pea.l      [A6 - 0x2]
00001A0C  2F0C                     move.l     -[A7], A4
00001A0E  4EBA ECDE                jsr        [PC - 0x1322 /* 000006EE */]
00001A12  4A00                     tst.b      D0
00001A14  504F                     addq.w     A7, 8
00001A16  6778                     beq        +0x7A /* 00001A90 */
00001A18  2F2C 0138                move.l     -[A7], [A4 + 0x138]
00001A1C  4EBA E7F4                jsr        [PC - 0x180C /* 00000212 */]
00001A20  2F0C                     move.l     -[A7], A4
00001A22  4EBA E964                jsr        [PC - 0x169C /* 00000388 */]
00001A26  2F0C                     move.l     -[A7], A4
00001A28  4EBA 04AE                jsr        [PC + 0x4AE /* 00001ED8 */]
00001A2C  197C 0001 0159           move.b     [A4 + 0x159], 0x1
00001A32  504F                     addq.w     A7, 8
00001A34  605A                     bra        +0x5C /* 00001A90 */
00001A36  3D7C 006E FFFE           move.w     [A6 - 0x2], 0x6E /* 'n' */
00001A3C  486E FFFE                pea.l      [A6 - 0x2]
00001A40  2F0C                     move.l     -[A7], A4
00001A42  4EBA ECAA                jsr        [PC - 0x1356 /* 000006EE */]
00001A46  4A00                     tst.b      D0
00001A48  504F                     addq.w     A7, 8
00001A4A  6744                     beq        +0x46 /* 00001A90 */
00001A4C  2F0C                     move.l     -[A7], A4
00001A4E  4EBA EDDE                jsr        [PC - 0x1222 /* 0000082E */]
00001A52  2F0C                     move.l     -[A7], A4
00001A54  4EBA E932                jsr        [PC - 0x16CE /* 00000388 */]
00001A58  2F0C                     move.l     -[A7], A4
00001A5A  4EBA 047C                jsr        [PC + 0x47C /* 00001ED8 */]
00001A5E  197C 0001 0159           move.b     [A4 + 0x159], 0x1
00001A64  4FEF 000C                lea.l      A7, [A7 + 0xC]
00001A68  6026                     bra        +0x28 /* 00001A90 */
00001A6A  3D7C 0070 FFFE           move.w     [A6 - 0x2], 0x70 /* 'p' */
00001A70  486E FFFE                pea.l      [A6 - 0x2]
00001A74  2F0C                     move.l     -[A7], A4
00001A76  4EBA EC76                jsr        [PC - 0x138A /* 000006EE */]
00001A7A  4A00                     tst.b      D0
00001A7C  504F                     addq.w     A7, 8
00001A7E  6710                     beq        +0x12 /* 00001A90 */
00001A80  2F2C 0138                move.l     -[A7], [A4 + 0x138]
00001A84  4EBA E7A4                jsr        [PC - 0x185C /* 0000022A */]
00001A88  2F0C                     move.l     -[A7], A4
00001A8A  4EBA E8FC                jsr        [PC - 0x1704 /* 00000388 */]
00001A8E  584F                     addq.w     A7, 4
label00001A90:
00001A90  206C 0126                movea.l    A0, [A4 + 0x126]
00001A94  2050                     movea.l    A0, [A0]
00001A96  316E FFFE 0072           move.w     [A0 + 0x72], [A6 - 0x2]
label00001A9C:
00001A9C  286E FFFA                movea.l    A4, [A6 - 0x6]
00001AA0  4E5E                     unlink     A6
00001AA2  4E75                     rts
fn00001AA4:
00001AA4  4E56 FFFE                link       A6, -0x0002
00001AA8  2F0C                     move.l     -[A7], A4
00001AAA  286E 000C                movea.l    A4, [A6 + 0xC]
00001AAE  302E 000A                move.w     D0, [A6 + 0xA]
00001AB2  5340                     subq.w     D0, 1
00001AB4  670E                     beq        +0x10 /* 00001AC4 */
00001AB6  5B40                     subq.w     D0, 5
00001AB8  6764                     beq        +0x66 /* 00001B1E */
00001ABA  5540                     subq.w     D0, 2
00001ABC  6700 00C4                beq        +0xC6 /* 00001B82 */
00001AC0  6000 00CC                bra        +0xCE /* 00001B8E */
label00001AC4:
00001AC4  3D7C 0066 FFFE           move.w     [A6 - 0x2], 0x66 /* 'f' */
00001ACA  486E FFFE                pea.l      [A6 - 0x2]
00001ACE  2F0C                     move.l     -[A7], A4
00001AD0  4EBA EC1C                jsr        [PC - 0x13E4 /* 000006EE */]
00001AD4  4A00                     tst.b      D0
00001AD6  504F                     addq.w     A7, 8
00001AD8  6700 00B4                beq        +0xB6 /* 00001B8E */
00001ADC  558F                     subq.l     A7, 2
00001ADE  7001                     moveq.l    D0, 0x01
00001AE0  3F00                     move.w     -[A7], D0
00001AE2  487A E998                pea.l      [PC - 0x1668 /* 0000047C, value 0x4E560000 'NV\0\0', cstring "NV" */]
00001AE6  2F2C 0138                move.l     -[A7], [A4 + 0x138]
00001AEA  486C 011E                pea.l      [A4 + 0x11E]
00001AEE  4EBA E726                jsr        [PC - 0x18DA /* 00000216 */]
00001AF2  4A6C 011E                tst.w      [A4 + 0x11E]
00001AF6  544F                     addq.w     A7, 2
00001AF8  6600 0094                bne        +0x96 /* 00001B8E */
00001AFC  2F0C                     move.l     -[A7], A4
00001AFE  4EBA E888                jsr        [PC - 0x1778 /* 00000388 */]
00001B02  206C 0126                movea.l    A0, [A4 + 0x126]
00001B06  2050                     movea.l    A0, [A0]
00001B08  316E FFFE 0072           move.w     [A0 + 0x72], [A6 - 0x2]
00001B0E  2F0C                     move.l     -[A7], A4
00001B10  4EBA 03C6                jsr        [PC + 0x3C6 /* 00001ED8 */]
00001B14  197C 0001 0159           move.b     [A4 + 0x159], 0x1
00001B1A  504F                     addq.w     A7, 8
00001B1C  6070                     bra        +0x72 /* 00001B8E */
label00001B1E:
00001B1E  558F                     subq.l     A7, 2
00001B20  2F2C 0104                move.l     -[A7], [A4 + 0x104]
00001B24  2F2C 0114                move.l     -[A7], [A4 + 0x114]
00001B28  4EBA E5D8                jsr        [PC - 0x1A28 /* 00000102 */]
00001B2C  4A1F                     tst.b      [A7]+
00001B2E  675E                     beq        +0x60 /* 00001B8E */
00001B30  558F                     subq.l     A7, 2
00001B32  2F2C 0118                move.l     -[A7], [A4 + 0x118]
00001B36  2F2C 0114                move.l     -[A7], [A4 + 0x114]
00001B3A  4EBA E55E                jsr        [PC - 0x1AA2 /* 0000009A */]
00001B3E  4A1F                     tst.b      [A7]+
00001B40  6722                     beq        +0x24 /* 00001B64 */
00001B42  7000                     moveq.l    D0, 0x00
00001B44  2F00                     move.l     -[A7], D0
00001B46  2F00                     move.l     -[A7], D0
00001B48  2F0C                     move.l     -[A7], A4
00001B4A  4EBA E9EC                jsr        [PC - 0x1614 /* 00000538 */]
00001B4E  422C 0159                clr.b      [A4 + 0x159]
00001B52  4AAC 0144                tst.l      [A4 + 0x144]
00001B56  4FEF 000C                lea.l      A7, [A7 + 0xC]
00001B5A  6732                     beq        +0x34 /* 00001B8E */
00001B5C  206C 0144                movea.l    A0, [A4 + 0x144]
00001B60  A023                     syscall    DisposHandle/DisposeHandle
00001B62  602A                     bra        +0x2C /* 00001B8E */
label00001B64:
00001B64  2054                     movea.l    A0, [A4]
00001B66  2050                     movea.l    A0, [A0]
00001B68  117C 0001 0108           move.b     [A0 + 0x108], 0x1
00001B6E  3F2C 0110                move.w     -[A7], [A4 + 0x110]
00001B72  2F2C 0114                move.l     -[A7], [A4 + 0x114]
00001B76  4EBA E61A                jsr        [PC - 0x19E6 /* 00000192 */]
00001B7A  397C FFFF 011E           move.w     [A4 + 0x11E], 0xFFFF
00001B80  600C                     bra        +0xE /* 00001B8E */
label00001B82:
00001B82  2F2C 0114                move.l     -[A7], [A4 + 0x114]
00001B86  2F2C 0118                move.l     -[A7], [A4 + 0x118]
00001B8A  4EBA E556                jsr        [PC - 0x1AAA /* 000000E2 */]
label00001B8E:
00001B8E  286E FFFA                movea.l    A4, [A6 - 0x6]
00001B92  4E5E                     unlink     A6
00001B94  4E75                     rts
fn00001B96:
00001B96  4E56 0000                link       A6, 0
00001B9A  2F0C                     move.l     -[A7], A4
00001B9C  286E 0008                movea.l    A4, [A6 + 0x8]
00001BA0  4A2C 0158                tst.b      [A4 + 0x158]
00001BA4  6618                     bne        +0x1A /* 00001BBE */
00001BA6  1978 020B 0156           move.b     [A4 + 0x156], [0x0000020B /* SPMisc2/PCDeskPat */]
00001BAC  307C 0A3C                movea.w    A0, 0xA3C /* '\n<' */
00001BB0  43EC 014E                lea.l      A1, [A4 + 0x14E]
00001BB4  7008                     moveq.l    D0, 0x08
00001BB6  A02E                     syscall    BlockMove/BlockMoveData
00001BB8  197C 0001 0158           move.b     [A4 + 0x158], 0x1
label00001BBE:
00001BBE  707F                     moveq.l    D0, 0x7F
00001BC0  C038 020B                and.b      D0, [0x0000020B /* SPMisc2/PCDeskPat */]
00001BC4  11C0 020B                move.b     [0x0000020B /* SPMisc2/PCDeskPat */], D0
00001BC8  206C 012A                movea.l    A0, [A4 + 0x12A]
00001BCC  2050                     movea.l    A0, [A0]
00001BCE  327C 0A3C                movea.w    A1, 0xA3C /* '\n<' */
00001BD2  7008                     moveq.l    D0, 0x08
00001BD4  A02E                     syscall    BlockMove/BlockMoveData
00001BD6  7000                     moveq.l    D0, 0x00
00001BD8  2F00                     move.l     -[A7], D0
00001BDA  2F38 09EE                move.l     -[A7], [0x000009EE /* GrayRgn */]
00001BDE  A90C                     syscall    PaintOne
00001BE0  2F2C 0104                move.l     -[A7], [A4 + 0x104]
00001BE4  A873                     syscall    SetPort
00001BE6  286E FFFC                movea.l    A4, [A6 - 0x4]
00001BEA  4E5E                     unlink     A6
00001BEC  4E75                     rts
fn00001BEE:
00001BEE  4E56 0000                link       A6, 0
00001BF2  2F0C                     move.l     -[A7], A4
00001BF4  286E 0008                movea.l    A4, [A6 + 0x8]
00001BF8  4A2C 0158                tst.b      [A4 + 0x158]
00001BFC  6738                     beq        +0x3A /* 00001C36 */
00001BFE  707F                     moveq.l    D0, 0x7F
00001C00  C038 020B                and.b      D0, [0x0000020B /* SPMisc2/PCDeskPat */]
00001C04  122C 0156                move.b     D1, [A4 + 0x156]
00001C08  4881                     ext.w      D1
00001C0A  343C 0080                move.w     D2, 0x80
00001C0E  C401                     and.b      D2, D1
00001C10  8400                     or.b       D2, D0
00001C12  11C2 020B                move.b     [0x0000020B /* SPMisc2/PCDeskPat */], D2
00001C16  41EC 014E                lea.l      A0, [A4 + 0x14E]
00001C1A  327C 0A3C                movea.w    A1, 0xA3C /* '\n<' */
00001C1E  7008                     moveq.l    D0, 0x08
00001C20  A02E                     syscall    BlockMove/BlockMoveData
00001C22  7000                     moveq.l    D0, 0x00
00001C24  2F00                     move.l     -[A7], D0
00001C26  2F38 09EE                move.l     -[A7], [0x000009EE /* GrayRgn */]
00001C2A  A90C                     syscall    PaintOne
00001C2C  2F2C 0104                move.l     -[A7], [A4 + 0x104]
00001C30  A873                     syscall    SetPort
00001C32  422C 0158                clr.b      [A4 + 0x158]
label00001C36:
00001C36  286E FFFC                movea.l    A4, [A6 - 0x4]
00001C3A  4E5E                     unlink     A6
00001C3C  4E75                     rts
fn00001C3E:
00001C3E  4E56 0000                link       A6, 0
00001C42  48E7 1008                movem.l    -[A7], D3,A4
00001C46  286E 000C                movea.l    A4, [A6 + 0xC]
00001C4A  7001                     moveq.l    D0, 0x01
00001C4C  B06E 000A                cmp.w      D0, [A6 + 0xA]
00001C50  6624                     bne        +0x26 /* 00001C76 */
00001C52  4A2C 0157                tst.b      [A4 + 0x157]
00001C56  670A                     beq        +0xC /* 00001C62 */
00001C58  2F0C                     move.l     -[A7], A4
00001C5A  4EBA FF92                jsr        [PC - 0x6E /* 00001BEE */]
00001C5E  584F                     addq.w     A7, 4
00001C60  6008                     bra        +0xA /* 00001C6A */
label00001C62:
00001C62  2F0C                     move.l     -[A7], A4
00001C64  4EBA FF30                jsr        [PC - 0xD0 /* 00001B96 */]
00001C68  584F                     addq.w     A7, 4
label00001C6A:
00001C6A  4A2C 0157                tst.b      [A4 + 0x157]
00001C6E  57C3                     seq        D3
00001C70  4403                     neg.b      D3
00001C72  1943 0157                move.b     [A4 + 0x157], D3
label00001C76:
00001C76  4CEE 1008 FFF8           movem.l    D3,A4, [A6 - 0x8]
00001C7C  4E5E                     unlink     A6
00001C7E  4E75                     rts
label00001C80:
00001C80  4E56 FFFC                link       A6, -0x0004
00001C84  48E7 0318                movem.l    -[A7], D6,D7,A3,A4
00001C88  266E 0008                movea.l    A3, [A6 + 0x8]
00001C8C  3C2E 000E                move.w     D6, [A6 + 0xE]
00001C90  3E2E 000C                move.w     D7, [A6 + 0xC]
00001C94  2F0B                     move.l     -[A7], A3
00001C96  4EBA E3B6                jsr        [PC - 0x1C4A /* 0000004E */]
00001C9A  204B                     movea.l    A0, A3
00001C9C  A029                     syscall    HLock
00001C9E  2853                     movea.l    A4, [A3]
00001CA0  2F2C 0104                move.l     -[A7], [A4 + 0x104]
00001CA4  A873                     syscall    SetPort
00001CA6  3006                     move.w     D0, D6
00001CA8  5540                     subq.w     D0, 2
00001CAA  6714                     beq        +0x16 /* 00001CC0 */
00001CAC  5340                     subq.w     D0, 1
00001CAE  6740                     beq        +0x42 /* 00001CF0 */
00001CB0  0440 007D                subi.w     D0, 0x7D /* '}' */
00001CB4  671A                     beq        +0x1C /* 00001CD0 */
00001CB6  0440 0502                subi.w     D0, 0x502
00001CBA  6724                     beq        +0x26 /* 00001CE0 */
00001CBC  6000 0112                bra        +0x114 /* 00001DD0 */
label00001CC0:
00001CC0  2F0C                     move.l     -[A7], A4
00001CC2  48C7                     ext.l      D7
00001CC4  2F07                     move.l     -[A7], D7
00001CC6  4EBA FBCA                jsr        [PC - 0x436 /* 00001892 */]
00001CCA  504F                     addq.w     A7, 8
00001CCC  6000 0142                bra        +0x144 /* 00001E10 */
label00001CD0:
00001CD0  2F0C                     move.l     -[A7], A4
00001CD2  48C7                     ext.l      D7
00001CD4  2F07                     move.l     -[A7], D7
00001CD6  4EBA FDCC                jsr        [PC - 0x234 /* 00001AA4 */]
00001CDA  504F                     addq.w     A7, 8
00001CDC  6000 0132                bra        +0x134 /* 00001E10 */
label00001CE0:
00001CE0  2F0C                     move.l     -[A7], A4
00001CE2  48C7                     ext.l      D7
00001CE4  2F07                     move.l     -[A7], D7
00001CE6  4EBA FF56                jsr        [PC - 0xAA /* 00001C3E */]
00001CEA  504F                     addq.w     A7, 8
00001CEC  6000 0122                bra        +0x124 /* 00001E10 */
label00001CF0:
00001CF0  0C47 0001                cmpi.w     D7, 0x1
00001CF4  6640                     bne        +0x42 /* 00001D36 */
00001CF6  206C 0126                movea.l    A0, [A4 + 0x126]
00001CFA  2050                     movea.l    A0, [A0]
00001CFC  7064                     moveq.l    D0, 0x64
00001CFE  B068 0072                cmp.w      D0, [A0 + 0x72]
00001D02  6F26                     ble        +0x28 /* 00001D2A */
00001D04  558F                     subq.l     A7, 2
00001D06  3F06                     move.w     -[A7], D6
00001D08  3F07                     move.w     -[A7], D7
00001D0A  487A F858                pea.l      [PC - 0x7A8 /* 00001564, value 0x4E560000 'NV\0\0', cstring "NV" */]
00001D0E  487A F860                pea.l      [PC - 0x7A0 /* 00001570, value 0x4E560000 'NV\0\0', cstring "NV" */]
00001D12  2F2C 0126                move.l     -[A7], [A4 + 0x126]
00001D16  4EBA E52A                jsr        [PC - 0x1AD6 /* 00000242 */]
00001D1A  395F 011E                move.w     [A4 + 0x11E], [A7]+
00001D1E  2F0C                     move.l     -[A7], A4
00001D20  4EBA EDF8                jsr        [PC - 0x1208 /* 00000B1A */]
00001D24  584F                     addq.w     A7, 4
00001D26  6000 00E8                bra        +0xEA /* 00001E10 */
label00001D2A:
00001D2A  2F0C                     move.l     -[A7], A4
00001D2C  4EBA EA8E                jsr        [PC - 0x1572 /* 000007BC */]
00001D30  584F                     addq.w     A7, 4
00001D32  6000 00DC                bra        +0xDE /* 00001E10 */
label00001D36:
00001D36  4A2C 0132                tst.b      [A4 + 0x132]
00001D3A  6710                     beq        +0x12 /* 00001D4C */
00001D3C  2F0C                     move.l     -[A7], A4
00001D3E  48C7                     ext.l      D7
00001D40  2F07                     move.l     -[A7], D7
00001D42  4EBA FC00                jsr        [PC - 0x400 /* 00001944 */]
00001D46  504F                     addq.w     A7, 8
00001D48  6000 00C6                bra        +0xC8 /* 00001E10 */
label00001D4C:
00001D4C  0C47 0005                cmpi.w     D7, 0x5
00001D50  663C                     bne        +0x3E /* 00001D8E */
00001D52  4EBA F3E0                jsr        [PC - 0xC20 /* 00001134 */]
00001D56  4A40                     tst.w      D0
00001D58  6734                     beq        +0x36 /* 00001D8E */
00001D5A  2F0C                     move.l     -[A7], A4
00001D5C  7005                     moveq.l    D0, 0x05
00001D5E  2F00                     move.l     -[A7], D0
00001D60  4EBA FBE2                jsr        [PC - 0x41E /* 00001944 */]
00001D64  202C 012A                move.l     D0, [A4 + 0x12A]
00001D68  B0AC 012E                cmp.l      D0, [A4 + 0x12E]
00001D6C  504F                     addq.w     A7, 8
00001D6E  6600 00A0                bne        +0xA2 /* 00001E10 */
00001D72  206C 0104                movea.l    A0, [A4 + 0x104]
00001D76  4868 0010                pea.l      [A0 + 0x10]
00001D7A  A928                     syscall    InvalRect
00001D7C  197C 0001 0132           move.b     [A4 + 0x132], 0x1
00001D82  2F0C                     move.l     -[A7], A4
00001D84  4EBA EF52                jsr        [PC - 0x10AE /* 00000CD8 */]
00001D88  584F                     addq.w     A7, 4
00001D8A  6000 0084                bra        +0x86 /* 00001E10 */
label00001D8E:
00001D8E  202C 012A                move.l     D0, [A4 + 0x12A]
00001D92  B0AC 012E                cmp.l      D0, [A4 + 0x12E]
00001D96  6778                     beq        +0x7A /* 00001E10 */
00001D98  558F                     subq.l     A7, 2
00001D9A  3F06                     move.w     -[A7], D6
00001D9C  3F07                     move.w     -[A7], D7
00001D9E  487A F7C4                pea.l      [PC - 0x83C /* 00001564, value 0x4E560000 'NV\0\0', cstring "NV" */]
00001DA2  487A F7CC                pea.l      [PC - 0x834 /* 00001570, value 0x4E560000 'NV\0\0', cstring "NV" */]
00001DA6  2F2C 0126                move.l     -[A7], [A4 + 0x126]
00001DAA  4EBA E496                jsr        [PC - 0x1B6A /* 00000242 */]
00001DAE  395F 011E                move.w     [A4 + 0x11E], [A7]+
00001DB2  206C 0126                movea.l    A0, [A4 + 0x126]
00001DB6  2050                     movea.l    A0, [A0]
00001DB8  2068 0044                movea.l    A0, [A0 + 0x44]
00001DBC  2D48 FFFC                move.l     [A6 - 0x4], A0
00001DC0  2050                     movea.l    A0, [A0]
00001DC2  4A10                     tst.b      [A0]
00001DC4  674A                     beq        +0x4C /* 00001E10 */
00001DC6  2F0C                     move.l     -[A7], A4
00001DC8  4EBA ED50                jsr        [PC - 0x12B0 /* 00000B1A */]
00001DCC  584F                     addq.w     A7, 4
00001DCE  6040                     bra        +0x42 /* 00001E10 */
label00001DD0:
00001DD0  202C 012A                move.l     D0, [A4 + 0x12A]
00001DD4  B0AC 012E                cmp.l      D0, [A4 + 0x12E]
00001DD8  6736                     beq        +0x38 /* 00001E10 */
00001DDA  558F                     subq.l     A7, 2
00001DDC  3F06                     move.w     -[A7], D6
00001DDE  3F07                     move.w     -[A7], D7
00001DE0  487A F782                pea.l      [PC - 0x87E /* 00001564, value 0x4E560000 'NV\0\0', cstring "NV" */]
00001DE4  487A F78A                pea.l      [PC - 0x876 /* 00001570, value 0x4E560000 'NV\0\0', cstring "NV" */]
00001DE8  2F2C 0126                move.l     -[A7], [A4 + 0x126]
00001DEC  4EBA E454                jsr        [PC - 0x1BAC /* 00000242 */]
00001DF0  395F 011E                move.w     [A4 + 0x11E], [A7]+
00001DF4  206C 0126                movea.l    A0, [A4 + 0x126]
00001DF8  2050                     movea.l    A0, [A0]
00001DFA  2068 0044                movea.l    A0, [A0 + 0x44]
00001DFE  2D48 FFFC                move.l     [A6 - 0x4], A0
00001E02  2050                     movea.l    A0, [A0]
00001E04  4A10                     tst.b      [A0]
00001E06  6708                     beq        +0xA /* 00001E10 */
00001E08  2F0C                     move.l     -[A7], A4
00001E0A  4EBA ED0E                jsr        [PC - 0x12F2 /* 00000B1A */]
00001E0E  584F                     addq.w     A7, 4
label00001E10:
00001E10  2F0C                     move.l     -[A7], A4
00001E12  4EBA E44E                jsr        [PC - 0x1BB2 /* 00000262 */]
00001E16  4A00                     tst.b      D0
00001E18  584F                     addq.w     A7, 4
00001E1A  6610                     bne        +0x12 /* 00001E2C */
00001E1C  2F0C                     move.l     -[A7], A4
00001E1E  7000                     moveq.l    D0, 0x00
00001E20  2F00                     move.l     -[A7], D0
00001E22  4EBA F70A                jsr        [PC - 0x8F6 /* 0000152E */]
00001E26  204B                     movea.l    A0, A3
00001E28  A02A                     syscall    HUnlock
00001E2A  504F                     addq.w     A7, 8
label00001E2C:
00001E2C  4CEE 18C0 FFEC           movem.l    D6,D7,A3,A4, [A6 - 0x14]
00001E32  4E5E                     unlink     A6
00001E34  205F                     movea.l    A0, [A7]+
00001E36  504F                     addq.w     A7, 8
00001E38  4ED0                     jmp        [A0]
label00001E3A:
00001E3A  4E56 FFFC                link       A6, -0x0004
00001E3E  48E7 0318                movem.l    -[A7], D6,D7,A3,A4
00001E42  3E2E 000C                move.w     D7, [A6 + 0xC]
00001E46  286E 0008                movea.l    A4, [A6 + 0x8]
00001E4A  2054                     movea.l    A0, [A4]
00001E4C  2D50 FFFC                move.l     [A6 - 0x4], [A0]
00001E50  204C                     movea.l    A0, A4
00001E52  A069                     syscall    HGetState
00001E54  1C00                     move.b     D6, D0
00001E56  204C                     movea.l    A0, A4
00001E58  A029                     syscall    HLock
00001E5A  2654                     movea.l    A3, [A4]
00001E5C  3747 011C                move.w     [A3 + 0x11C], D7
00001E60  2F2B 0114                move.l     -[A7], [A3 + 0x114]
00001E64  2F0B                     move.l     -[A7], A3
00001E66  4EBA ED6E                jsr        [PC - 0x1292 /* 00000BD6 */]
00001E6A  204C                     movea.l    A0, A4
00001E6C  1006                     move.b     D0, D6
00001E6E  A06A                     syscall    HSetState
00001E70  206E FFFC                movea.l    A0, [A6 - 0x4]
00001E74  2050                     movea.l    A0, [A0]
00001E76  117C 0001 0108           move.b     [A0 + 0x108], 0x1
00001E7C  3F2E 000E                move.w     -[A7], [A6 + 0xE]
00001E80  3F07                     move.w     -[A7], D7
00001E82  206E FFFC                movea.l    A0, [A6 - 0x4]
00001E86  2050                     movea.l    A0, [A0]
00001E88  2068 0104                movea.l    A0, [A0 + 0x104]
00001E8C  2F28 0098                move.l     -[A7], [A0 + 0x98]
00001E90  206E FFFC                movea.l    A0, [A6 - 0x4]
00001E94  2050                     movea.l    A0, [A0]
00001E96  2068 0104                movea.l    A0, [A0 + 0x104]
00001E9A  3F28 006C                move.w     -[A7], [A0 + 0x6C]
00001E9E  4EBA E252                jsr        [PC - 0x1DAE /* 000000F2 */]
00001EA2  4CEE 18C0 FFEC           movem.l    D6,D7,A3,A4, [A6 - 0x14]
00001EA8  4E5E                     unlink     A6
00001EAA  205F                     movea.l    A0, [A7]+
00001EAC  504F                     addq.w     A7, 8
00001EAE  4ED0                     jmp        [A0]
label00001EB0:
00001EB0  4E56 0000                link       A6, 0
00001EB4  2F03                     move.l     -[A7], D3
00001EB6  206E 0008                movea.l    A0, [A6 + 0x8]
00001EBA  2050                     movea.l    A0, [A0]
00001EBC  202E 000C                move.l     D0, [A6 + 0xC]
00001EC0  B0A8 0114                cmp.l      D0, [A0 + 0x114]
00001EC4  57C3                     seq        D3
00001EC6  4403                     neg.b      D3
00001EC8  1D43 0010                move.b     [A6 + 0x10], D3
00001ECC  262E FFFC                move.l     D3, [A6 - 0x4]
00001ED0  4E5E                     unlink     A6
00001ED2  205F                     movea.l    A0, [A7]+
00001ED4  504F                     addq.w     A7, 8
00001ED6  4ED0                     jmp        [A0]
fn00001ED8:
00001ED8  4E56 0000                link       A6, 0
00001EDC  2F0C                     move.l     -[A7], A4
00001EDE  286E 0008                movea.l    A4, [A6 + 0x8]
00001EE2  2F2C 010C                move.l     -[A7], [A4 + 0x10C]
00001EE6  2F2C 0118                move.l     -[A7], [A4 + 0x118]
00001EEA  4EBA E1E2                jsr        [PC - 0x1E1E /* 000000CE */]
00001EEE  2054                     movea.l    A0, [A4]
00001EF0  2050                     movea.l    A0, [A0]
00001EF2  117C 0001 0108           move.b     [A0 + 0x108], 0x1
00001EF8  2F2C 0114                move.l     -[A7], [A4 + 0x114]
00001EFC  4EBA E1E0                jsr        [PC - 0x1E20 /* 000000DE */]
00001F00  286E FFFC                movea.l    A4, [A6 - 0x4]
00001F04  4E5E                     unlink     A6
00001F06  4E75                     rts
fn00001F08:
00001F08  4E56 0000                link       A6, 0
00001F0C  48E7 1118                movem.l    -[A7], D3,D7,A3,A4
00001F10  286E 0008                movea.l    A4, [A6 + 0x8]
00001F14  7E01                     moveq.l    D7, 0x01
00001F16  266C 0122                movea.l    A3, [A4 + 0x122]
00001F1A  296C 0114 0122           move.l     [A4 + 0x122], [A4 + 0x114]
00001F20  558F                     subq.l     A7, 2
00001F22  486C 0122                pea.l      [A4 + 0x122]
00001F26  4EBA 0344                jsr        [PC + 0x344 /* 0000226C */]
00001F2A  4A5F                     tst.w      [A7]+
00001F2C  57C3                     seq        D3
00001F2E  4403                     neg.b      D3
00001F30  662A                     bne        +0x2C /* 00001F5C */
00001F32  558F                     subq.l     A7, 2
00001F34  7004                     moveq.l    D0, 0x04
00001F36  1F00                     move.b     -[A7], D0
00001F38  487A 003A                pea.l      [PC + 0x3A /* 00001F74, value 0x15426974, pstring "BitTool alert strings" */]
00001F3C  7206                     moveq.l    D1, 0x06
00001F3E  3F01                     move.w     -[A7], D1
00001F40  4EBA E1C4                jsr        [PC - 0x1E3C /* 00000106 */]
00001F44  1E1F                     move.b     D7, [A7]+
00001F46  6710                     beq        +0x12 /* 00001F58 */
00001F48  7000                     moveq.l    D0, 0x00
00001F4A  2940 0122                move.l     [A4 + 0x122], D0
00001F4E  206E 000C                movea.l    A0, [A6 + 0xC]
00001F52  30BC 0001                move.w     [A0], 0x1
00001F56  6004                     bra        +0x6 /* 00001F5C */
label00001F58:
00001F58  294B 0122                move.l     [A4 + 0x122], A3
label00001F5C:
00001F5C  4A07                     tst.b      D7
00001F5E  6708                     beq        +0xA /* 00001F68 */
00001F60  200B                     move.l     D0, A3
00001F62  6704                     beq        +0x6 /* 00001F68 */
00001F64  204B                     movea.l    A0, A3
00001F66  A023                     syscall    DisposHandle/DisposeHandle
label00001F68:
00001F68  1007                     move.b     D0, D7
00001F6A  4CEE 1888 FFF0           movem.l    D3,D7,A3,A4, [A6 - 0x10]
00001F70  4E5E                     unlink     A6
00001F72  4E75                     rts
00001F74  1542 6974                move.b     [A2 + 0x6974], D2
00001F78  546F 6F6C                addq.w     [A7 + 0x6F6C], 2
00001F7C  2061                     movea.l    A0, -[A1]
00001F7E  6C65                     bge        +0x67 /* 00001FE5 */
00001F80  7274                     moveq.l    D1, 0x74
00001F82  2073 7472                movea.l    A0, [A3 + D7.w * 4 + 0x72]
00001F86  696E                     bvs        +0x70 /* 00001FF6 */
00001F88  6773                     beq        +0x75 /* 00001FFD */
00001F8A  0000 4E56                ori.b      D0, 0x56 /* 'V' */
// begin alternate branch 00001F8C-00001F90
fn00001F8C:
00001F8C  4E56 FF00                link       A6, -0x0100
// end alternate branch 00001F8C-00001F90
fn00001F8C: // (misaligned)
00001F8E  FF00                     .extension 0xF00 <<F/4-5/7>> // unimplemented
00001F90  2F0C                     move.l     -[A7], A4
00001F92  49EE FF00                lea.l      A4, [A6 - 0x100]
00001F96  3F2E 000E                move.w     -[A7], [A6 + 0xE]
00001F9A  2F0C                     move.l     -[A7], A4
00001F9C  4EBA E1E4                jsr        [PC - 0x1E1C /* 00000182 */]
00001FA0  2F0C                     move.l     -[A7], A4
00001FA2  7000                     moveq.l    D0, 0x00
00001FA4  2F00                     move.l     -[A7], D0
00001FA6  2F00                     move.l     -[A7], D0
00001FA8  2F00                     move.l     -[A7], D0
00001FAA  A98B                     syscall    ParamText
00001FAC  558F                     subq.l     A7, 2
00001FAE  7002                     moveq.l    D0, 0x02
00001FB0  1F00                     move.b     -[A7], D0
00001FB2  487A 001E                pea.l      [PC + 0x1E /* 00001FD2, value 0x15426974, pstring "BitTool alert strings" */]
00001FB6  3F2E 000A                move.w     -[A7], [A6 + 0xA]
00001FBA  4EBA E14A                jsr        [PC - 0x1EB6 /* 00000106 */]
00001FBE  7000                     moveq.l    D0, 0x00
00001FC0  2F00                     move.l     -[A7], D0
00001FC2  2F00                     move.l     -[A7], D0
00001FC4  2F00                     move.l     -[A7], D0
00001FC6  2F00                     move.l     -[A7], D0
00001FC8  A98B                     syscall    ParamText
00001FCA  286E FEFC                movea.l    A4, [A6 - 0x104]
00001FCE  4E5E                     unlink     A6
00001FD0  4E75                     rts
00001FD2  1542 6974                move.b     [A2 + 0x6974], D2
00001FD6  546F 6F6C                addq.w     [A7 + 0x6F6C], 2
00001FDA  2061                     movea.l    A0, -[A1]
00001FDC  6C65                     bge        +0x67 /* 00002043 */
00001FDE  7274                     moveq.l    D1, 0x74
00001FE0  2073 7472                movea.l    A0, [A3 + D7.w * 4 + 0x72]
00001FE4  696E                     bvs        +0x70 /* 00002054 */
00001FE6  6773                     beq        +0x75 /* 0000205B */
00001FE8  0000 4E56                ori.b      D0, 0x56 /* 'V' */
// begin alternate branch 00001FEA-00001FEE
fn00001FEA:
00001FEA  4E56 FFF4                link       A6, -0x000C
// end alternate branch 00001FEA-00001FEE
fn00001FEA: // (misaligned)
00001FEC  FFF4                     .invalid   <<F/7/7>>
00001FEE  48E7 1718                movem.l    -[A7], D3,D5,D6,D7,A3,A4
00001FF2  266E 000C                movea.l    A3, [A6 + 0xC]
label00001FF6:
00001FF6  286E 0008                movea.l    A4, [A6 + 0x8]
00001FFA  2D6C 0114 FFFC           move.l     [A6 - 0x4], [A4 + 0x114]
00002000  7C01                     moveq.l    D6, 0x01
00002002  4AAC 0122                tst.l      [A4 + 0x122]
00002006  6700 00C4                beq        +0xC6 /* 000020CC */
0000200A  558F                     subq.l     A7, 2
0000200C  486E FFFC                pea.l      [A6 - 0x4]
00002010  4EBA 025A                jsr        [PC + 0x25A /* 0000226C */]
00002014  3E1F                     move.w     D7, [A7]+
00002016  672C                     beq        +0x2E /* 00002044 */
00002018  7000                     moveq.l    D0, 0x00
0000201A  2D40 FFFC                move.l     [A6 - 0x4], D0
0000201E  3213                     move.w     D1, [A3]
00002020  0801 0000                btst.b     D1, 0x0
00002024  6704                     beq        +0x6 /* 0000202A */
00002026  7A06                     moveq.l    D5, 0x06
00002028  6002                     bra        +0x4 /* 0000202C */
label0000202A:
0000202A  7A07                     moveq.l    D5, 0x07
label0000202C:
0000202C  558F                     subq.l     A7, 2
0000202E  7004                     moveq.l    D0, 0x04
00002030  1F00                     move.b     -[A7], D0
00002032  487A 00D0                pea.l      [PC + 0xD0 /* 00002104, value 0x15426974, pstring "BitTool alert strings" */]
00002036  3F05                     move.w     -[A7], D5
00002038  4EBA E0CC                jsr        [PC - 0x1F34 /* 00000106 */]
0000203C  1C1F                     move.b     D6, [A7]+
0000203E  6704                     beq        +0x6 /* 00002044 */
00002040  36BC 0001                move.w     [A3], 0x1
label00002044:
00002044  4A06                     tst.b      D6
00002046  677A                     beq        +0x7C /* 000020C2 */
00002048  2F2C 0122                move.l     -[A7], [A4 + 0x122]
0000204C  4EBA E000                jsr        [PC - 0x2000 /* 0000004E */]
00002050  206C 0122                movea.l    A0, [A4 + 0x122]
label00002054:
00002054  A029                     syscall    HLock
00002056  206C 0122                movea.l    A0, [A4 + 0x122]
0000205A  2050                     movea.l    A0, [A0]
0000205C  226C 0114                movea.l    A1, [A4 + 0x114]
00002060  2D48 FFF8                move.l     [A6 - 0x8], A0
00002064  2D49 FFF4                move.l     [A6 - 0xC], A1
00002068  598F                     subq.l     A7, 4
0000206A  2F2C 0122                move.l     -[A7], [A4 + 0x122]
0000206E  4EBA 01EE                jsr        [PC + 0x1EE /* 0000225E */]
00002072  201F                     move.l     D0, [A7]+
00002074  206E FFF8                movea.l    A0, [A6 - 0x8]
00002078  226E FFF4                movea.l    A1, [A6 - 0xC]
0000207C  A9E2                     syscall    PtrToXHand
0000207E  3E00                     move.w     D7, D0
00002080  206C 0122                movea.l    A0, [A4 + 0x122]
00002084  A02A                     syscall    HUnlock
00002086  4A47                     tst.w      D7
00002088  6620                     bne        +0x22 /* 000020AA */
0000208A  206C 0122                movea.l    A0, [A4 + 0x122]
0000208E  A023                     syscall    DisposHandle/DisposeHandle
00002090  296E FFFC 0122           move.l     [A4 + 0x122], [A6 - 0x4]
00002096  7001                     moveq.l    D0, 0x01
00002098  B053                     cmp.w      D0, [A3]
0000209A  6704                     beq        +0x6 /* 000020A0 */
0000209C  0A53 0001                xori.w     [A3], 0x1
label000020A0:
000020A0  2F0C                     move.l     -[A7], A4
000020A2  4EBA FE34                jsr        [PC - 0x1CC /* 00001ED8 */]
000020A6  584F                     addq.w     A7, 4
000020A8  6018                     bra        +0x1A /* 000020C2 */
label000020AA:
000020AA  48C7                     ext.l      D7
000020AC  2F07                     move.l     -[A7], D7
000020AE  7001                     moveq.l    D0, 0x01
000020B0  C053                     and.w      D0, [A3]
000020B2  6704                     beq        +0x6 /* 000020B8 */
000020B4  7002                     moveq.l    D0, 0x02
000020B6  6002                     bra        +0x4 /* 000020BA */
label000020B8:
000020B8  7003                     moveq.l    D0, 0x03
label000020BA:
000020BA  2F00                     move.l     -[A7], D0
000020BC  4EBA FECE                jsr        [PC - 0x132 /* 00001F8C */]
000020C0  504F                     addq.w     A7, 8
label000020C2:
000020C2  4A47                     tst.w      D7
000020C4  57C3                     seq        D3
000020C6  4403                     neg.b      D3
000020C8  1003                     move.b     D0, D3
000020CA  6016                     bra        +0x18 /* 000020E2 */
label000020CC:
000020CC  558F                     subq.l     A7, 2
000020CE  7002                     moveq.l    D0, 0x02
000020D0  1F00                     move.b     -[A7], D0
000020D2  487A 0018                pea.l      [PC + 0x18 /* 000020EC, value 0x15426974, pstring "BitTool alert strings" */]
000020D6  7208                     moveq.l    D1, 0x08
000020D8  3F01                     move.w     -[A7], D1
000020DA  4EBA E02A                jsr        [PC - 0x1FD6 /* 00000106 */]
000020DE  7000                     moveq.l    D0, 0x00
000020E0  544F                     addq.w     A7, 2
label000020E2:
000020E2  4CEE 18E8 FFDC           movem.l    D3,D5,D6,D7,A3,A4, [A6 - 0x24]
000020E8  4E5E                     unlink     A6
000020EA  4E75                     rts
000020EC  1542 6974                move.b     [A2 + 0x6974], D2
000020F0  546F 6F6C                addq.w     [A7 + 0x6F6C], 2
000020F4  2061                     movea.l    A0, -[A1]
000020F6  6C65                     bge        +0x67 /* 0000215D */
000020F8  7274                     moveq.l    D1, 0x74
000020FA  2073 7472                movea.l    A0, [A3 + D7.w * 4 + 0x72]
000020FE  696E                     bvs        +0x70 /* 0000216E */
00002100  6773                     beq        +0x75 /* 00002175 */
00002102  0000 1542                ori.b      D0, 0x42 /* 'B' */
00002106  6974                     bvs        +0x76 /* 0000217C */
00002108  546F 6F6C                addq.w     [A7 + 0x6F6C], 2
0000210C  2061                     movea.l    A0, -[A1]
0000210E  6C65                     bge        +0x67 /* 00002175 */
00002110  7274                     moveq.l    D1, 0x74
00002112  2073 7472                movea.l    A0, [A3 + D7.w * 4 + 0x72]
00002116  696E                     bvs        +0x70 /* 00002186 */
00002118  6773                     beq        +0x75 /* 0000218D */
0000211A  0000 4CEF                ori.b      D0, 0xEF
// begin alternate branch 0000211C-00002124
fn0000211C:
0000211C  4CEF 0300 0004           movem.l    A0,A1, [A7 + 0x4]
00002122  2008                     move.l     D0, A0
// end alternate branch 0000211C-00002124
fn0000211C: // (misaligned)
0000211E  0300                     btst       D0, D1
00002120  0004 2008                ori.b      D4, 0x8
label00002124:
00002124  10D9                     move.b     [A0]+, [A1]+
00002126  66FC                     bne        -0x2 /* 00002124 */
00002128  4E75                     rts
0000212A  8673 7472 6370 7900 0000 dc.b       "strcpy"
fn00002134:
00002134  4CEF 0300 0004           movem.l    A0,A1, [A7 + 0x4]
0000213A  222F 000C                move.l     D1, [A7 + 0xC]
0000213E  7001                     moveq.l    D0, 0x01
00002140  6004                     bra        +0x6 /* 00002146 */
label00002142:
00002142  4841                     swap.w     D1
label00002144:
00002144  10D9                     move.b     [A0]+, [A1]+
label00002146:
00002146  57C9 FFFC                dbeq       D1, -0x6 /* 00002144 */
0000214A  670C                     beq        +0xE /* 00002158 */
0000214C  4841                     swap.w     D1
0000214E  51C9 FFF2                dbf        D1, -0x10 /* 00002142 */
00002152  600E                     bra        +0x10 /* 00002162 */
label00002154:
00002154  4841                     swap.w     D1
label00002156:
00002156  4218                     clr.b      [A0]+
label00002158:
00002158  51C9 FFFC                dbf        D1, -0x6 /* 00002156 */
0000215C  4841                     swap.w     D1
0000215E  51C9 FFF4                dbf        D1, -0xE /* 00002154 */
label00002162:
00002162  202F 0004                move.l     D0, [A7 + 0x4]
00002166  4E75                     rts
00002168  8773 7472 6E63 7079 0000 dc.b       "strncpy"
// begin alternate branch 0000216E-0000217C
label0000216E:
0000216E  7079                     moveq.l    D0, 0x79
00002170  0000 222F                ori.b      D0, 0x2F /* '/' */
00002174  0004 202F                ori.b      D4, 0x2F /* '/' */
00002178  0008 41FA                ori.b      A0, 0xFA
// end alternate branch 0000216E-0000217C
label0000216E: // (misaligned)
00002172  222F 0004                move.l     D1, [A7 + 0x4]
00002176  202F 0008                move.l     D0, [A7 + 0x8]
fn0000217A:
0000217A  41FA 000A                lea.l      A0, [PC + 0xA /* 00002186, value 0x60064C41 */]
// begin alternate branch 0000217C-00002186
label0000217C:
0000217C  000A 327C                ori.b      A2, 0x7C /* '|' */
00002180  0002 4EF0                ori.b      D2, 0xF0
00002184  92FE                     sub.w      A1, <<invalid special address>>
// end alternate branch 0000217C-00002186
label0000217C: // (misaligned)
0000217E  327C 0002                movea.w    A1, 0x2
00002182  4EF0 92FE                jmp        [A0 + A1.w * 2 - 0x2]
label00002186:
00002186  6006                     bra        +0x8 /* 0000218E */
00002188  4C41 0801                divs.l     D1:D0, D1
0000218C  4E75                     rts
label0000218E:
0000218E  4EBA 0024                jsr        [PC + 0x24 /* 000021B4 */]
00002192  2001                     move.l     D0, D1
00002194  4E75                     rts
00002196  222F 0004                move.l     D1, [A7 + 0x4]
0000219A  202F 0008                move.l     D0, [A7 + 0x8]
0000219E  41FA 000A                lea.l      A0, [PC + 0xA /* 000021AA, value 0x60084C41 */]
000021A2  327C 0002                movea.w    A1, 0x2
000021A6  4EF0 92FE                jmp        [A0 + A1.w * 2 - 0x2]
000021AA  6008                     bra        +0xA /* 000021B4 */
000021AC  4C41 0801                divs.l     D1:D0, D1
000021B0  C340                     exg        D1, D0
000021B2  4E75                     rts
fn000021B4:
000021B4  4A80                     tst.l      D0
000021B6  6B14                     bmi        +0x16 /* 000021CC */
000021B8  4A81                     tst.l      D1
000021BA  6B06                     bmi        +0x8 /* 000021C2 */
000021BC  4EBA 0046                jsr        [PC + 0x46 /* 00002204 */]
000021C0  4E75                     rts
label000021C2:
000021C2  4481                     neg.l      D1
000021C4  4EBA 003E                jsr        [PC + 0x3E /* 00002204 */]
000021C8  4481                     neg.l      D1
000021CA  4E75                     rts
label000021CC:
000021CC  4480                     neg.l      D0
000021CE  4A81                     tst.l      D1
000021D0  6B0A                     bmi        +0xC /* 000021DC */
000021D2  4EBA 0030                jsr        [PC + 0x30 /* 00002204 */]
000021D6  4480                     neg.l      D0
000021D8  4481                     neg.l      D1
000021DA  4E75                     rts
label000021DC:
000021DC  4481                     neg.l      D1
000021DE  4EBA 0024                jsr        [PC + 0x24 /* 00002204 */]
000021E2  4480                     neg.l      D0
000021E4  4E75                     rts
000021E6  222F 0004                move.l     D1, [A7 + 0x4]
000021EA  202F 0008                move.l     D0, [A7 + 0x8]
000021EE  41FA 000A                lea.l      A0, [PC + 0xA /* 000021FA, value 0x60084C41 */]
000021F2  327C 0002                movea.w    A1, 0x2
000021F6  4EF0 92FE                jmp        [A0 + A1.w * 2 - 0x2]
000021FA  6008                     bra        +0xA /* 00002204 */
000021FC  4C41 0001                divu.l     D1:D0, D1
00002200  C340                     exg        D1, D0
00002202  4E75                     rts
fn00002204:
00002204  3F01                     move.w     -[A7], D1
00002206  4841                     swap.w     D1
00002208  4A41                     tst.w      D1
0000220A  661C                     bne        +0x1E /* 00002228 */
0000220C  2200                     move.l     D1, D0
0000220E  4241                     clr.w      D1
00002210  4841                     swap.w     D1
00002212  670A                     beq        +0xC /* 0000221E */
00002214  82D7                     divu.w     D1, [A7]
00002216  4841                     swap.w     D1
00002218  4840                     swap.w     D0
0000221A  3001                     move.w     D0, D1
0000221C  4840                     swap.w     D0
label0000221E:
0000221E  80DF                     divu.w     D0, [A7]+
00002220  3200                     move.w     D1, D0
00002222  4240                     clr.w      D0
00002224  4840                     swap.w     D0
00002226  4E75                     rts
label00002228:
00002228  4841                     swap.w     D1
0000222A  3E82                     move.w     [A7], D2
0000222C  2F03                     move.l     -[A7], D3
0000222E  3400                     move.w     D2, D0
00002230  2601                     move.l     D3, D1
00002232  7201                     moveq.l    D1, 0x01
00002234  4240                     clr.w      D0
00002236  4840                     swap.w     D0
00002238  660C                     bne        +0xE /* 00002246 */
0000223A  4840                     swap.w     D0
0000223C  3002                     move.w     D0, D2
0000223E  7200                     moveq.l    D1, 0x00
00002240  6016                     bra        +0x18 /* 00002258 */
label00002242:
00002242  D241                     add.w      D1, D1
00002244  6512                     bcs        +0x14 /* 00002258 */
label00002246:
00002246  D442                     add.w      D2, D2
00002248  D180                     addx.l     D0, D0
0000224A  B083                     cmp.l      D0, D3
0000224C  65F4                     bcs        -0xA /* 00002242 */
0000224E  9083                     sub.l      D0, D3
00002250  D241                     add.w      D1, D1
00002252  08C1 0000                bset.b     D1, 0x0
00002256  64EE                     bcc        -0x10 /* 00002246 */
label00002258:
00002258  261F                     move.l     D3, [A7]+
0000225A  341F                     move.w     D2, [A7]+
0000225C  4E75                     rts
fn0000225E:
0000225E  225F                     movea.l    A1, [A7]+
00002260  205F                     movea.l    A0, [A7]+
00002262  A025                     syscall    GetHandleSize
00002264  2E80                     move.l     [A7], D0
00002266  6A02                     bpl        +0x4 /* 0000226A */
00002268  4297                     clr.l      [A7]
label0000226A:
0000226A  4ED1                     jmp        [A1]
fn0000226C:
0000226C  206F 0004                movea.l    A0, [A7 + 0x4]
00002270  2050                     movea.l    A0, [A0]
00002272  A9E1                     syscall    HandToHand
00002274  226F 0004                movea.l    A1, [A7 + 0x4]
00002278  2288                     move.l     [A1], A0
0000227A  3F40 0008                move.w     [A7 + 0x8], D0
0000227E  2E9F                     move.l     [A7], [A7]+
00002280  4E75                     rts
fn00002282:
00002282  206F 000C                movea.l    A0, [A7 + 0xC]
00002286  202F 0004                move.l     D0, [A7 + 0x4]
0000228A  A9E3                     syscall    PtrToHand
0000228C  3F40 0010                move.w     [A7 + 0x10], D0
00002290  226F 0008                movea.l    A1, [A7 + 0x8]
00002294  2288                     move.l     [A1], A0
00002296  205F                     movea.l    A0, [A7]+
00002298  4FEF 000C                lea.l      A7, [A7 + 0xC]
0000229C  4ED0                     jmp        [A0]
