# near model CODE resource
# jump table entries: 2888-2915 (28 of them)
export_361:
00000000  4E56 0000                link       A6, 0
00000004  4E5E                     unlink     A6
00000006  4E75                     rts
export_362:
00000008  4E56 0000                link       A6, 0
0000000C  48E7 0718                movem.l    -[A7], D5,D6,D7,A3,A4
00000010  266E 0008                movea.l    A3, [A6 + 0x8]
00000014  2053                     movea.l    A0, [A3]
00000016  2868 005C                movea.l    A4, [A0 + 0x5C]
0000001A  2054                     movea.l    A0, [A4]
0000001C  3C28 0004                move.w     D6, [A0 + 0x4]
00000020  4A28 0003                tst.b      [A0 + 0x3]
00000024  6750                     beq        +0x52 /* 00000076 */
00000026  2053                     movea.l    A0, [A3]
00000028  3A28 006A                move.w     D5, [A0 + 0x6A]
0000002C  7E07                     moveq.l    D7, 0x07
0000002E  6020                     bra        +0x22 /* 00000050 */
label00000030:
00000030  48C7                     ext.l      D7
00000032  2053                     movea.l    A0, [A3]
00000034  2068 006C                movea.l    A0, [A0 + 0x6C]
00000038  2050                     movea.l    A0, [A0]
0000003A  2007                     move.l     D0, D7
0000003C  E580                     asl        D0, 2
0000003E  2870 0800                movea.l    A4, [A0 + D0]
00000042  200C                     move.l     D0, A4
00000044  6708                     beq        +0xA /* 0000004E */
00000046  2054                     movea.l    A0, [A4]
00000048  BC68 0010                cmp.w      D6, [A0 + 0x10]
0000004C  670E                     beq        +0x10 /* 0000005C */
label0000004E:
0000004E  5247                     addq.w     D7, 1
label00000050:
00000050  48C7                     ext.l      D7
00000052  48C5                     ext.l      D5
00000054  2005                     move.l     D0, D5
00000056  5C80                     addq.l     D0, 6
00000058  B087                     cmp.l      D0, D7
0000005A  6CD4                     bge        -0x2A /* 00000030 */
label0000005C:
0000005C  48C7                     ext.l      D7
0000005E  48C5                     ext.l      D5
00000060  2005                     move.l     D0, D5
00000062  5C80                     addq.l     D0, 6
00000064  B087                     cmp.l      D0, D7
00000066  6C1A                     bge        +0x1C /* 00000082 */
00000068  4878 0081                push.l     0x81
0000006C  4EBA 037C                jsr        [PC + 0x37C /* 000003EA */]
00000070  3E00                     move.w     D7, D0
00000072  584F                     addq.w     A7, 4
00000074  600C                     bra        +0xE /* 00000082 */
label00000076:
00000076  48C6                     ext.l      D6
00000078  2F06                     move.l     -[A7], D6
0000007A  4EBA 036E                jsr        [PC + 0x36E /* 000003EA */]
0000007E  3E00                     move.w     D7, D0
00000080  584F                     addq.w     A7, 4
label00000082:
00000082  3007                     move.w     D0, D7
00000084  4CEE 18E0 FFEC           movem.l    D5,D6,D7,A3,A4, [A6 - 0x14]
0000008A  4E5E                     unlink     A6
0000008C  4E75                     rts
export_363:
0000008E  4E56 0000                link       A6, 0
00000092  48E7 0108                movem.l    -[A7], D7,A4
00000096  206E 0008                movea.l    A0, [A6 + 0x8]
0000009A  2050                     movea.l    A0, [A0]
0000009C  2868 005C                movea.l    A4, [A0 + 0x5C]
000000A0  2054                     movea.l    A0, [A4]
000000A2  0C68 0081 0006           cmpi.w     [A0 + 0x6], 0x81
000000A8  6604                     bne        +0x6 /* 000000AE */
000000AA  7E05                     moveq.l    D7, 0x05
000000AC  6002                     bra        +0x4 /* 000000B0 */
label000000AE:
000000AE  7E04                     moveq.l    D7, 0x04
label000000B0:
000000B0  3007                     move.w     D0, D7
000000B2  4CEE 1080 FFF8           movem.l    D7,A4, [A6 - 0x8]
000000B8  4E5E                     unlink     A6
000000BA  4E75                     rts
fn000000BC:
000000BC  4E56 0000                link       A6, 0
000000C0  48E7 1318                movem.l    -[A7], D3,D6,D7,A3,A4
000000C4  266E 0008                movea.l    A3, [A6 + 0x8]
000000C8  2053                     movea.l    A0, [A3]
000000CA  3C28 0068                move.w     D6, [A0 + 0x68]
000000CE  2868 005C                movea.l    A4, [A0 + 0x5C]
000000D2  0C46 0006                cmpi.w     D6, 0x6
000000D6  5EC3                     sgt        D3
000000D8  4403                     neg.b      D3
000000DA  2054                     movea.l    A0, [A4]
000000DC  1143 0003                move.b     [A0 + 0x3], D3
000000E0  2054                     movea.l    A0, [A4]
000000E2  4A28 0003                tst.b      [A0 + 0x3]
000000E6  670E                     beq        +0x10 /* 000000F6 */
000000E8  2053                     movea.l    A0, [A3]
000000EA  2068 004C                movea.l    A0, [A0 + 0x4C]
000000EE  2050                     movea.l    A0, [A0]
000000F0  3E28 0010                move.w     D7, [A0 + 0x10]
000000F4  600C                     bra        +0xE /* 00000102 */
label000000F6:
000000F6  48C6                     ext.l      D6
000000F8  2F06                     move.l     -[A7], D6
000000FA  4EBA 0330                jsr        [PC + 0x330 /* 0000042C */]
000000FE  3E00                     move.w     D7, D0
00000100  584F                     addq.w     A7, 4
label00000102:
00000102  2054                     movea.l    A0, [A4]
00000104  3147 0004                move.w     [A0 + 0x4], D7
00000108  2F3C 5052 4546           move.l     -[A7], 0x50524546 /* 'PREF' */
0000010E  3F3C 0C1C                move.w     -[A7], 0xC1C
00000112  487A 0012                pea.l      [PC + 0x12 /* 00000126, value 0x12322E31, pstring "2.1 Bit Tool Prefs" */]
00000116  2F0C                     move.l     -[A7], A4
00000118  4EAD 0E1A                jsr        [A5 + 0xE1A /* export_447, CODE:19 @ 00000000 */]
0000011C  4CEE 18C8 FFEC           movem.l    D3,D6,D7,A3,A4, [A6 - 0x14]
00000122  4E5E                     unlink     A6
00000124  4E75                     rts
00000126  1232 2E31                move.b     D1, [A2 + D2 * 8 + 0x31]
0000012A  2042                     movea.l    A0, D2
0000012C  6974                     bvs        +0x76 /* 000001A2 */
0000012E  2054                     movea.l    A0, [A4]
00000130  6F6F                     ble        +0x71 /* 000001A1 */
00000132  6C20                     bge        +0x22 /* 00000154 */
00000134  5072 6566                addq.w     <<invalid full ext with IS == 1 and I/IS == 6>>, 8
00000138  7300                     moveq.l    D1, 0x00
fn0000013A:
0000013A  4E56 0000                link       A6, 0
0000013E  48E7 0118                movem.l    -[A7], D7,A3,A4
00000142  266E 0008                movea.l    A3, [A6 + 0x8]
00000146  2053                     movea.l    A0, [A3]
00000148  3E28 0068                move.w     D7, [A0 + 0x68]
0000014C  2868 005C                movea.l    A4, [A0 + 0x5C]
00000150  48C7                     ext.l      D7
00000152  2F07                     move.l     -[A7], D7
label00000154:
00000154  4EBA 02D6                jsr        [PC + 0x2D6 /* 0000042C */]
00000158  2054                     movea.l    A0, [A4]
0000015A  3140 0006                move.w     [A0 + 0x6], D0
0000015E  2F3C 5052 4546           move.l     -[A7], 0x50524546 /* 'PREF' */
00000164  3F3C 0C1C                move.w     -[A7], 0xC1C
00000168  487A 0012                pea.l      [PC + 0x12 /* 0000017C, value 0x12322E31, pstring "2.1 Bit Tool Prefs" */]
0000016C  2F0C                     move.l     -[A7], A4
0000016E  4EAD 0E1A                jsr        [A5 + 0xE1A /* export_447, CODE:19 @ 00000000 */]
00000172  4CEE 1880 FFF4           movem.l    D7,A3,A4, [A6 - 0xC]
00000178  4E5E                     unlink     A6
0000017A  4E75                     rts
0000017C  1232 2E31                move.b     D1, [A2 + D2 * 8 + 0x31]
00000180  2042                     movea.l    A0, D2
00000182  6974                     bvs        +0x76 /* 000001F8 */
00000184  2054                     movea.l    A0, [A4]
00000186  6F6F                     ble        +0x71 /* 000001F7 */
00000188  6C20                     bge        +0x22 /* 000001AA */
0000018A  5072 6566                addq.w     <<invalid full ext with IS == 1 and I/IS == 6>>, 8
0000018E  7300                     moveq.l    D1, 0x00
fn00000190:
00000190  4E56 FFE8                link       A6, -0x0018
00000194  48E7 0118                movem.l    -[A7], D7,A3,A4
00000198  266E 0010                movea.l    A3, [A6 + 0x10]
0000019C  A01C                     syscall    FreeMem
0000019E  0C80 0000 0400           cmpi.l     D0, 0x400
// begin alternate branch 000001A2-000001A6
label000001A2:
000001A2  0400 6C0A                subi.b     D0, 0xA /* '\n' */
// end alternate branch 000001A2-000001A6
label000001A2: // (misaligned)
000001A4  6C0A                     bge        +0xC /* 000001B0 */
000001A6  36BC 0019                move.w     [A3], 0x19
label000001AA:
000001AA  7000                     moveq.l    D0, 0x00
000001AC  6000 0132                bra        +0x134 /* 000002E0 */
label000001B0:
000001B0  598F                     subq.l     A7, 4
000001B2  AA07                     syscall    NewPixPat
000001B4  285F                     movea.l    A4, [A7]+
000001B6  36B8 0220                move.w     [A3], [0x00000220 /* MemErr */]
000001BA  6706                     beq        +0x8 /* 000001C2 */
000001BC  7000                     moveq.l    D0, 0x00
000001BE  6000 0120                bra        +0x122 /* 000002E0 */
label000001C2:
000001C2  206E 0008                movea.l    A0, [A6 + 0x8]
000001C6  A029                     syscall    HLock
000001C8  206E 0008                movea.l    A0, [A6 + 0x8]
000001CC  2D50 FFFC                move.l     [A6 - 0x4], [A0]
000001D0  302E 000E                move.w     D0, [A6 + 0xE]
000001D4  48C0                     ext.l      D0
000001D6  206E FFFC                movea.l    A0, [A6 - 0x4]
000001DA  E580                     asl        D0, 2
000001DC  2030 0802                move.l     D0, [A0 + D0 + 0x2]
000001E0  D0AE FFFC                add.l      D0, [A6 - 0x4]
000001E4  2D40 FFE8                move.l     [A6 - 0x18], D0
000001E8  2040                     movea.l    A0, D0
000001EA  2028 0002                move.l     D0, [A0 + 0x2]
000001EE  D0AE FFE8                add.l      D0, [A6 - 0x18]
000001F2  2D40 FFEC                move.l     [A6 - 0x14], D0
000001F6  2054                     movea.l    A0, [A4]
label000001F8:
000001F8  2068 0002                movea.l    A0, [A0 + 0x2]
000001FC  2050                     movea.l    A0, [A0]
000001FE  2D68 002A FFF4           move.l     [A6 - 0xC], [A0 + 0x2A]
00000204  206E FFEC                movea.l    A0, [A6 - 0x14]
00000208  2254                     movea.l    A1, [A4]
0000020A  2269 0002                movea.l    A1, [A1 + 0x2]
0000020E  2251                     movea.l    A1, [A1]
00000210  7032                     moveq.l    D0, 0x32
00000212  A02E                     syscall    BlockMove/BlockMoveData
00000214  2054                     movea.l    A0, [A4]
00000216  2068 0002                movea.l    A0, [A0 + 0x2]
0000021A  2050                     movea.l    A0, [A0]
0000021C  216E FFF4 002A           move.l     [A0 + 0x2A], [A6 - 0xC]
00000222  206E FFEC                movea.l    A0, [A6 - 0x14]
00000226  2028 002A                move.l     D0, [A0 + 0x2A]
0000022A  D0AE FFE8                add.l      D0, [A6 - 0x18]
0000022E  2D40 FFF8                move.l     [A6 - 0x8], D0
00000232  2040                     movea.l    A0, D0
00000234  4A68 0006                tst.w      [A0 + 0x6]
00000238  6C16                     bge        +0x18 /* 00000250 */
0000023A  206E FFF4                movea.l    A0, [A6 - 0xC]
0000023E  A023                     syscall    DisposHandle/DisposeHandle
00000240  2054                     movea.l    A0, [A4]
00000242  2068 0002                movea.l    A0, [A0 + 0x2]
00000246  2050                     movea.l    A0, [A0]
00000248  7000                     moveq.l    D0, 0x00
0000024A  2140 002A                move.l     [A0 + 0x2A], D0
0000024E  6028                     bra        +0x2A /* 00000278 */
label00000250:
00000250  2F2E FFF8                move.l     -[A7], [A6 - 0x8]
00000254  4EBA 1FA8                jsr        [PC + 0x1FA8 /* 000021FE */]
00000258  2E00                     move.l     D7, D0
0000025A  206E FFF4                movea.l    A0, [A6 - 0xC]
0000025E  2007                     move.l     D0, D7
00000260  A024                     syscall    SetHandleSize
00000262  36B8 0220                move.w     [A3], [0x00000220 /* MemErr */]
00000266  584F                     addq.w     A7, 4
00000268  660E                     bne        +0x10 /* 00000278 */
0000026A  206E FFF8                movea.l    A0, [A6 - 0x8]
0000026E  226E FFF4                movea.l    A1, [A6 - 0xC]
00000272  2251                     movea.l    A1, [A1]
00000274  2007                     move.l     D0, D7
00000276  A02E                     syscall    BlockMove/BlockMoveData
label00000278:
00000278  4A53                     tst.w      [A3]
0000027A  663A                     bne        +0x3C /* 000002B6 */
0000027C  2F2E FFEC                move.l     -[A7], [A6 - 0x14]
00000280  4EBA 120C                jsr        [PC + 0x120C /* 0000148E */]
00000284  2E00                     move.l     D7, D0
00000286  2054                     movea.l    A0, [A4]
00000288  2068 0006                movea.l    A0, [A0 + 0x6]
0000028C  2007                     move.l     D0, D7
0000028E  A024                     syscall    SetHandleSize
00000290  36B8 0220                move.w     [A3], [0x00000220 /* MemErr */]
00000294  584F                     addq.w     A7, 4
00000296  661E                     bne        +0x20 /* 000002B6 */
00000298  206E FFE8                movea.l    A0, [A6 - 0x18]
0000029C  2028 0006                move.l     D0, [A0 + 0x6]
000002A0  D0AE FFE8                add.l      D0, [A6 - 0x18]
000002A4  2D40 FFF0                move.l     [A6 - 0x10], D0
000002A8  2040                     movea.l    A0, D0
000002AA  2254                     movea.l    A1, [A4]
000002AC  2269 0006                movea.l    A1, [A1 + 0x6]
000002B0  2251                     movea.l    A1, [A1]
000002B2  2007                     move.l     D0, D7
000002B4  A02E                     syscall    BlockMove/BlockMoveData
label000002B6:
000002B6  206E FFE8                movea.l    A0, [A6 - 0x18]
000002BA  41E8 0014                lea.l      A0, [A0 + 0x14]
000002BE  2D48 FFF0                move.l     [A6 - 0x10], A0
000002C2  2254                     movea.l    A1, [A4]
000002C4  43E9 0014                lea.l      A1, [A1 + 0x14]
000002C8  7008                     moveq.l    D0, 0x08
000002CA  A02E                     syscall    BlockMove/BlockMoveData
000002CC  206E 0008                movea.l    A0, [A6 + 0x8]
000002D0  A02A                     syscall    HUnlock
000002D2  4A53                     tst.w      [A3]
000002D4  6708                     beq        +0xA /* 000002DE */
000002D6  2F0C                     move.l     -[A7], A4
000002D8  AA08                     syscall    DisposePixPat/DisposPixPat
000002DA  7000                     moveq.l    D0, 0x00
000002DC  2840                     movea.l    A4, D0
label000002DE:
000002DE  200C                     move.l     D0, A4
label000002E0:
000002E0  4CEE 1880 FFDC           movem.l    D7,A3,A4, [A6 - 0x24]
000002E6  4E5E                     unlink     A6
000002E8  4E75                     rts
export_364:
000002EA  4E56 FFFC                link       A6, -0x0004
000002EE  48E7 0318                movem.l    -[A7], D6,D7,A3,A4
000002F2  286E 0008                movea.l    A4, [A6 + 0x8]
000002F6  598F                     subq.l     A7, 4
000002F8  2F3C 7070 7423           move.l     -[A7], 0x70707423 /* 'ppt#' */
000002FE  487A 0094                pea.l      [PC + 0x94 /* 00000394, value 0xD46696C '\rFil', pstring "Fill Patterns" */]
00000302  A9A1                     syscall    GetNamedResource
00000304  2D5F FFFC                move.l     [A6 - 0x4], [A7]+
00000308  2054                     movea.l    A0, [A4]
0000030A  30B8 0220                move.w     [A0], [0x00000220 /* MemErr */]
0000030E  667A                     bne        +0x7C /* 0000038A */
00000310  206E FFFC                movea.l    A0, [A6 - 0x4]
00000314  A04A                     syscall    HNoPurge
00000316  206E FFFC                movea.l    A0, [A6 - 0x4]
0000031A  2050                     movea.l    A0, [A0]
0000031C  3C10                     move.w     D6, [A0]
0000031E  0C46 0040                cmpi.w     D6, 0x40 /* '@' */
00000322  6F02                     ble        +0x4 /* 00000326 */
00000324  7C40                     moveq.l    D6, 0x40
label00000326:
00000326  3006                     move.w     D0, D6
00000328  48C0                     ext.l      D0
0000032A  E580                     asl        D0, 2
0000032C  5880                     addq.l     D0, 4
0000032E  A322                     syscall    NewHandleClear, flags=3
00000330  2254                     movea.l    A1, [A4]
00000332  2348 0084                move.l     [A1 + 0x84], A0
00000336  2054                     movea.l    A0, [A4]
00000338  30B8 0220                move.w     [A0], [0x00000220 /* MemErr */]
0000033C  2054                     movea.l    A0, [A4]
0000033E  4A50                     tst.w      [A0]
00000340  6648                     bne        +0x4A /* 0000038A */
00000342  4247                     clr.w      D7
00000344  6034                     bra        +0x36 /* 0000037A */
label00000346:
00000346  2054                     movea.l    A0, [A4]
00000348  2F08                     move.l     -[A7], A0
0000034A  48C7                     ext.l      D7
0000034C  2F07                     move.l     -[A7], D7
0000034E  2F2E FFFC                move.l     -[A7], [A6 - 0x4]
00000352  4EBA FE3C                jsr        [PC - 0x1C4 /* 00000190 */]
00000356  2640                     movea.l    A3, D0
00000358  2054                     movea.l    A0, [A4]
0000035A  2068 0084                movea.l    A0, [A0 + 0x84]
0000035E  2050                     movea.l    A0, [A0]
00000360  3010                     move.w     D0, [A0]
00000362  5250                     addq.w     [A0], 1
00000364  48C0                     ext.l      D0
00000366  2054                     movea.l    A0, [A4]
00000368  2068 0084                movea.l    A0, [A0 + 0x84]
0000036C  2050                     movea.l    A0, [A0]
0000036E  E580                     asl        D0, 2
00000370  218B 0802                move.l     [A0 + D0 + 0x2], A3
00000374  4FEF 000C                lea.l      A7, [A7 + 0xC]
00000378  5247                     addq.w     D7, 1
label0000037A:
0000037A  BC47                     cmp.w      D6, D7
0000037C  6F06                     ble        +0x8 /* 00000384 */
0000037E  2054                     movea.l    A0, [A4]
00000380  4A50                     tst.w      [A0]
00000382  67C2                     beq        -0x3C /* 00000346 */
label00000384:
00000384  206E FFFC                movea.l    A0, [A6 - 0x4]
00000388  A049                     syscall    HPurge
label0000038A:
0000038A  4CEE 18C0 FFEC           movem.l    D6,D7,A3,A4, [A6 - 0x14]
00000390  4E5E                     unlink     A6
00000392  4E75                     rts
00000394  0D46                     bchg       D6, D6
00000396  696C                     bvs        +0x6E /* 00000404 */
00000398  6C20                     bge        +0x22 /* 000003BA */
0000039A  5061                     addq.w     -[A1], 8
0000039C  7474                     moveq.l    D2, 0x74
0000039E  6572                     bcs        +0x74 /* 00000412 */
000003A0  6E73                     bgt        +0x75 /* 00000415 */
000003A2  0000 4E56                ori.b      D0, 0x56 /* 'V' */
// begin alternate branch 000003A4-000003AC
fn000003A4:
000003A4  4E56 0000                link       A6, 0
000003A8  48E7 0118                movem.l    -[A7], D7,A3,A4
// end alternate branch 000003A4-000003AC
fn000003A4: // (misaligned)
000003A6  0000 48E7                ori.b      D0, 0xE7
000003AA  0118                     btst       [A0]+, D0
000003AC  206E 0008                movea.l    A0, [A6 + 0x8]
000003B0  2050                     movea.l    A0, [A0]
000003B2  2668 0084                movea.l    A3, [A0 + 0x84]
000003B6  200B                     move.l     D0, A3
000003B8  6726                     beq        +0x28 /* 000003E0 */
label000003BA:
000003BA  4247                     clr.w      D7
000003BC  601C                     bra        +0x1E /* 000003DA */
label000003BE:
000003BE  48C7                     ext.l      D7
000003C0  2053                     movea.l    A0, [A3]
000003C2  2007                     move.l     D0, D7
000003C4  E580                     asl        D0, 2
000003C6  2870 0802                movea.l    A4, [A0 + D0 + 0x2]
000003CA  200C                     move.l     D0, A4
000003CC  6708                     beq        +0xA /* 000003D6 */
000003CE  2054                     movea.l    A0, [A4]
000003D0  317C FFFF 000E           move.w     [A0 + 0xE], 0xFFFF
label000003D6:
000003D6  3007                     move.w     D0, D7
000003D8  5247                     addq.w     D7, 1
label000003DA:
000003DA  2053                     movea.l    A0, [A3]
000003DC  BE50                     cmp.w      D7, [A0]
000003DE  6DDE                     blt        -0x20 /* 000003BE */
label000003E0:
000003E0  4CEE 1880 FFF4           movem.l    D7,A3,A4, [A6 - 0xC]
000003E6  4E5E                     unlink     A6
000003E8  4E75                     rts
export_365:
fn000003EA:
000003EA  4E56 0000                link       A6, 0
000003EE  302E 000A                move.w     D0, [A6 + 0xA]
000003F2  5240                     addq.w     D0, 1
000003F4  6718                     beq        +0x1A /* 0000040E */
000003F6  5540                     subq.w     D0, 2
000003F8  6718                     beq        +0x1A /* 00000412 */
000003FA  5340                     subq.w     D0, 1
000003FC  6718                     beq        +0x1A /* 00000416 */
000003FE  5540                     subq.w     D0, 2
00000400  671C                     beq        +0x1E /* 0000041E */
00000402  0440 007C                subi.w     D0, 0x7C /* '|' */
// begin alternate branch 00000404-00000408
label00000404:
00000404  007C 6712                ori.w      sr, 26386
// end alternate branch 00000404-00000408
label00000404: // (misaligned)
00000406  6712                     beq        +0x14 /* 0000041A */
00000408  5340                     subq.w     D0, 1
0000040A  6716                     beq        +0x18 /* 00000422 */
0000040C  6018                     bra        +0x1A /* 00000426 */
label0000040E:
0000040E  7006                     moveq.l    D0, 0x06
00000410  6016                     bra        +0x18 /* 00000428 */
label00000412:
00000412  7000                     moveq.l    D0, 0x00
00000414  6012                     bra        +0x14 /* 00000428 */
label00000416:
00000416  7001                     moveq.l    D0, 0x01
00000418  600E                     bra        +0x10 /* 00000428 */
label0000041A:
0000041A  7002                     moveq.l    D0, 0x02
0000041C  600A                     bra        +0xC /* 00000428 */
label0000041E:
0000041E  7003                     moveq.l    D0, 0x03
00000420  6006                     bra        +0x8 /* 00000428 */
label00000422:
00000422  7005                     moveq.l    D0, 0x05
00000424  6002                     bra        +0x4 /* 00000428 */
label00000426:
00000426  7004                     moveq.l    D0, 0x04
label00000428:
00000428  4E5E                     unlink     A6
0000042A  4E75                     rts
fn0000042C:
0000042C  4E56 0000                link       A6, 0
00000430  302E 000A                move.w     D0, [A6 + 0xA]
00000434  6B3A                     bmi        +0x3C /* 00000470 */
00000436  0C40 0006                cmpi.w     D0, 0x6
0000043A  6E34                     bgt        +0x36 /* 00000470 */
0000043C  D040                     add.w      D0, D0
0000043E  303B 0006                move.w     D0, [PC + D0.w + 0x6]
00000442  4EFB 0000                jmp        [PC + D0.w]
00000446  0014 0018                ori.b      [A4], 0x18
0000044A  001C 0022                ori.b      [A4]+, 0x22 /* '\"' */
0000044E  002C 0026 0010           ori.b      [A4 + 0x10], 0x26 /* '&' */
00000454  70FF                     moveq.l    D0, 0xFFFFFFFF
00000456  601A                     bra        +0x1C /* 00000472 */
00000458  7001                     moveq.l    D0, 0x01
0000045A  6016                     bra        +0x18 /* 00000472 */
0000045C  7002                     moveq.l    D0, 0x02
0000045E  6012                     bra        +0x14 /* 00000472 */
00000460  303C 0080                move.w     D0, 0x80
00000464  600C                     bra        +0xE /* 00000472 */
00000466  7004                     moveq.l    D0, 0x04
00000468  6008                     bra        +0xA /* 00000472 */
0000046A  303C 0081                move.w     D0, 0x81
0000046E  6002                     bra        +0x4 /* 00000472 */
label00000470:
00000470  7008                     moveq.l    D0, 0x08
label00000472:
00000472  4E5E                     unlink     A6
00000474  4E75                     rts
export_366:
00000476  4E56 0000                link       A6, 0
0000047A  2F07                     move.l     -[A7], D7
0000047C  3E2E 000A                move.w     D7, [A6 + 0xA]
00000480  3007                     move.w     D0, D7
00000482  5340                     subq.w     D0, 1
00000484  6B34                     bmi        +0x36 /* 000004BA */
00000486  0C40 0005                cmpi.w     D0, 0x5
0000048A  6E2E                     bgt        +0x30 /* 000004BA */
0000048C  D040                     add.w      D0, D0
0000048E  303B 0006                move.w     D0, [PC + D0.w + 0x6]
00000492  4EFB 0000                jmp        [PC + D0.w]
00000496  0012 0016                ori.b      [A2], 0x16
0000049A  001A 001E                ori.b      [A2]+, 0x1E
0000049E  0022 000E                ori.b      -[A2], 0xE
000004A2  7002                     moveq.l    D0, 0x02
000004A4  6018                     bra        +0x1A /* 000004BE */
000004A6  7006                     moveq.l    D0, 0x06
000004A8  6014                     bra        +0x16 /* 000004BE */
000004AA  7005                     moveq.l    D0, 0x05
000004AC  6010                     bra        +0x12 /* 000004BE */
000004AE  7004                     moveq.l    D0, 0x04
000004B0  600C                     bra        +0xE /* 000004BE */
000004B2  7003                     moveq.l    D0, 0x03
000004B4  6008                     bra        +0xA /* 000004BE */
000004B6  7001                     moveq.l    D0, 0x01
000004B8  6004                     bra        +0x6 /* 000004BE */
label000004BA:
000004BA  48C7                     ext.l      D7
000004BC  2007                     move.l     D0, D7
label000004BE:
000004BE  2E2E FFFC                move.l     D7, [A6 - 0x4]
000004C2  4E5E                     unlink     A6
000004C4  4E75                     rts
fn000004C6:
000004C6  4E56 0000                link       A6, 0
000004CA  2F07                     move.l     -[A7], D7
000004CC  3E2E 000A                move.w     D7, [A6 + 0xA]
000004D0  3007                     move.w     D0, D7
000004D2  5340                     subq.w     D0, 1
000004D4  6B34                     bmi        +0x36 /* 0000050A */
000004D6  0C40 0005                cmpi.w     D0, 0x5
000004DA  6E2E                     bgt        +0x30 /* 0000050A */
000004DC  D040                     add.w      D0, D0
000004DE  303B 0006                move.w     D0, [PC + D0.w + 0x6]
000004E2  4EFB 0000                jmp        [PC + D0.w]
000004E6  0022 000E                ori.b      -[A2], 0xE
000004EA  001E 001A                ori.b      [A6]+, 0x1A
000004EE  0016 0012                ori.b      [A6], 0x12
000004F2  7006                     moveq.l    D0, 0x06
000004F4  6018                     bra        +0x1A /* 0000050E */
000004F6  7001                     moveq.l    D0, 0x01
000004F8  6014                     bra        +0x16 /* 0000050E */
000004FA  7002                     moveq.l    D0, 0x02
000004FC  6010                     bra        +0x12 /* 0000050E */
000004FE  7003                     moveq.l    D0, 0x03
00000500  600C                     bra        +0xE /* 0000050E */
00000502  7004                     moveq.l    D0, 0x04
00000504  6008                     bra        +0xA /* 0000050E */
00000506  7005                     moveq.l    D0, 0x05
00000508  6004                     bra        +0x6 /* 0000050E */
label0000050A:
0000050A  48C7                     ext.l      D7
0000050C  2007                     move.l     D0, D7
label0000050E:
0000050E  2E2E FFFC                move.l     D7, [A6 - 0x4]
00000512  4E5E                     unlink     A6
00000514  4E75                     rts
export_367:
fn00000516:
00000516  4E56 FFF4                link       A6, -0x000C
0000051A  48E7 0318                movem.l    -[A7], D6,D7,A3,A4
0000051E  3C2E 000E                move.w     D6, [A6 + 0xE]
00000522  266E 0008                movea.l    A3, [A6 + 0x8]
00000526  4247                     clr.w      D7
00000528  48C6                     ext.l      D6
0000052A  2053                     movea.l    A0, [A3]
0000052C  2006                     move.l     D0, D6
0000052E  E580                     asl        D0, 2
00000530  2870 0800                movea.l    A4, [A0 + D0]
00000534  200C                     move.l     D0, A4
00000536  661A                     bne        +0x1C /* 00000552 */
00000538  7012                     moveq.l    D0, 0x12
0000053A  A322                     syscall    NewHandleClear, flags=3
0000053C  2848                     movea.l    A4, A0
0000053E  3E38 0220                move.w     D7, [0x00000220 /* MemErr */]
00000542  661A                     bne        +0x1C /* 0000055E */
00000544  48C6                     ext.l      D6
00000546  2053                     movea.l    A0, [A3]
00000548  2006                     move.l     D0, D6
0000054A  E580                     asl        D0, 2
0000054C  218C 0800                move.l     [A0 + D0], A4
00000550  600C                     bra        +0xE /* 0000055E */
label00000552:
00000552  2054                     movea.l    A0, [A4]
00000554  2F28 000C                move.l     -[A7], [A0 + 0xC]
00000558  4EAD 0ADA                jsr        [A5 + 0xADA /* export_343, CODE:9 @ 00000044 */]
0000055C  584F                     addq.w     A7, 4
label0000055E:
0000055E  4A47                     tst.w      D7
00000560  6642                     bne        +0x44 /* 000005A4 */
00000562  42AE FFF6                clr.l      [A6 - 0xA]
00000566  426E FFF4                clr.w      [A6 - 0xC]
0000056A  3D7C FFFF FFFE           move.w     [A6 - 0x2], 0xFFFF
00000570  3D7C FFFF FFFC           move.w     [A6 - 0x4], 0xFFFF
00000576  3D7C FFFF FFFA           move.w     [A6 - 0x6], 0xFFFF
0000057C  2654                     movea.l    A3, [A4]
0000057E  41EE FFF4                lea.l      A0, [A6 - 0xC]
00000582  43D3                     lea.l      A1, [A3]
00000584  22D8                     move.l     [A1]+, [A0]+
00000586  32D8                     move.w     [A1]+, [A0]+
00000588  204B                     movea.l    A0, A3
0000058A  5C88                     addq.l     A0, 6
0000058C  43EE FFFA                lea.l      A1, [A6 - 0x6]
00000590  20D9                     move.l     [A0]+, [A1]+
00000592  30D9                     move.w     [A0]+, [A1]+
00000594  2054                     movea.l    A0, [A4]
00000596  216E 0014 000C           move.l     [A0 + 0xC], [A6 + 0x14]
0000059C  2054                     movea.l    A0, [A4]
0000059E  316E 0012 0010           move.w     [A0 + 0x10], [A6 + 0x12]
label000005A4:
000005A4  3007                     move.w     D0, D7
000005A6  4CEE 18C0 FFE4           movem.l    D6,D7,A3,A4, [A6 - 0x1C]
000005AC  4E5E                     unlink     A6
000005AE  4E75                     rts
fn000005B0:
000005B0  4E56 0000                link       A6, 0
000005B4  48E7 0718                movem.l    -[A7], D5,D6,D7,A3,A4
000005B8  266E 000C                movea.l    A3, [A6 + 0xC]
000005BC  3A2E 000A                move.w     D5, [A6 + 0xA]
000005C0  48C5                     ext.l      D5
000005C2  2053                     movea.l    A0, [A3]
000005C4  2068 006C                movea.l    A0, [A0 + 0x6C]
000005C8  2050                     movea.l    A0, [A0]
000005CA  2005                     move.l     D0, D5
000005CC  E580                     asl        D0, 2
000005CE  4AB0 0800                tst.l      [A0 + D0]
000005D2  667E                     bne        +0x80 /* 00000652 */
000005D4  48C5                     ext.l      D5
000005D6  2F05                     move.l     -[A7], D5
000005D8  4EBA FE52                jsr        [PC - 0x1AE /* 0000042C */]
000005DC  3C00                     move.w     D6, D0
000005DE  558F                     subq.l     A7, 2
000005E0  3EB8 0900                move.w     [A7], [0x00000900 /* CurApRefNum */]
000005E4  A998                     syscall    UseResFile
000005E6  598F                     subq.l     A7, 4
000005E8  3F06                     move.w     -[A7], D6
000005EA  AA18                     syscall    GetCTable
000005EC  285F                     movea.l    A4, [A7]+
000005EE  3C38 0220                move.w     D6, [0x00000220 /* MemErr */]
000005F2  584F                     addq.w     A7, 4
000005F4  6630                     bne        +0x32 /* 00000626 */
000005F6  2054                     movea.l    A0, [A4]
000005F8  3028 0004                move.w     D0, [A0 + 0x4]
000005FC  48C0                     ext.l      D0
000005FE  323C 8000                move.w     D1, 0x8000
00000602  C240                     and.w      D1, D0
00000604  6720                     beq        +0x22 /* 00000626 */
00000606  4247                     clr.w      D7
00000608  600E                     bra        +0x10 /* 00000618 */
label0000060A:
0000060A  48C7                     ext.l      D7
0000060C  2054                     movea.l    A0, [A4]
0000060E  2007                     move.l     D0, D7
00000610  E780                     asl        D0, 3
00000612  3187 0808                move.w     [A0 + D0 + 0x8], D7
00000616  5247                     addq.w     D7, 1
label00000618:
00000618  2054                     movea.l    A0, [A4]
0000061A  BE68 0006                cmp.w      D7, [A0 + 0x6]
0000061E  6FEA                     ble        -0x14 /* 0000060A */
00000620  0268 7FFF 0004           andi.w     [A0 + 0x4], 0x7FFF
label00000626:
00000626  4EAD 0222                jsr        [A5 + 0x222 /* export_64, CODE:1 @ 0000588C */]
0000062A  4A46                     tst.w      D6
0000062C  6620                     bne        +0x22 /* 0000064E */
0000062E  2F0C                     move.l     -[A7], A4
00000630  7000                     moveq.l    D0, 0x00
00000632  2F00                     move.l     -[A7], D0
00000634  48C5                     ext.l      D5
00000636  2F05                     move.l     -[A7], D5
00000638  2053                     movea.l    A0, [A3]
0000063A  2F28 006C                move.l     -[A7], [A0 + 0x6C]
0000063E  4EBA FED6                jsr        [PC - 0x12A /* 00000516 */]
00000642  3C00                     move.w     D6, D0
00000644  4FEF 0010                lea.l      A7, [A7 + 0x10]
00000648  6704                     beq        +0x6 /* 0000064E */
0000064A  2F0C                     move.l     -[A7], A4
0000064C  AA24                     syscall    DisposeCTable/DisposCTable
label0000064E:
0000064E  2053                     movea.l    A0, [A3]
00000650  3086                     move.w     [A0], D6
label00000652:
00000652  4CEE 18E0 FFEC           movem.l    D5,D6,D7,A3,A4, [A6 - 0x14]
00000658  4E5E                     unlink     A6
0000065A  4E75                     rts
fn0000065C:
0000065C  4E56 FDF2                link       A6, -0x020E
00000660  48E7 0718                movem.l    -[A7], D5,D6,D7,A3,A4
00000664  47EE FEFC                lea.l      A3, [A6 - 0x104]
00000668  286E 0008                movea.l    A4, [A6 + 0x8]
0000066C  7C06                     moveq.l    D6, 0x06
0000066E  558F                     subq.l     A7, 2
00000670  558F                     subq.l     A7, 2
00000672  A994                     syscall    CurResFile
00000674  2F3C 636C 7574           move.l     -[A7], 0x636C7574 /* 'clut' */
0000067A  4EAD 08BA                jsr        [A5 + 0x8BA /* export_275, CODE:4 @ 000002A8 */]
0000067E  3A1F                     move.w     D5, [A7]+
00000680  7E01                     moveq.l    D7, 0x01
00000682  6000 010C                bra        +0x10E /* 00000790 */
label00000686:
00000686  7000                     moveq.l    D0, 0x00
00000688  1F00                     move.b     -[A7], D0
0000068A  A99B                     syscall    SetResLoad
0000068C  598F                     subq.l     A7, 4
0000068E  558F                     subq.l     A7, 2
00000690  A994                     syscall    CurResFile
00000692  2F3C 636C 7574           move.l     -[A7], 0x636C7574 /* 'clut' */
00000698  3F07                     move.w     -[A7], D7
0000069A  4EAD 08C2                jsr        [A5 + 0x8C2 /* export_276, CODE:4 @ 000002E4 */]
0000069E  2D5F FEF2                move.l     [A6 - 0x10E], [A7]+
000006A2  7001                     moveq.l    D0, 0x01
000006A4  1F00                     move.b     -[A7], D0
000006A6  A99B                     syscall    SetResLoad
000006A8  558F                     subq.l     A7, 2
000006AA  A9AF                     syscall    ResError
000006AC  4A5F                     tst.w      [A7]+
000006AE  6600 00DE                bne        +0xE0 /* 0000078E */
000006B2  2054                     movea.l    A0, [A4]
000006B4  30B8 0220                move.w     [A0], [0x00000220 /* MemErr */]
000006B8  2054                     movea.l    A0, [A4]
000006BA  4A50                     tst.w      [A0]
000006BC  6600 00DE                bne        +0xE0 /* 0000079C */
000006C0  2F2E FEF2                move.l     -[A7], [A6 - 0x10E]
000006C4  486E FEF6                pea.l      [A6 - 0x10A]
000006C8  486E FEF8                pea.l      [A6 - 0x108]
000006CC  2F0B                     move.l     -[A7], A3
000006CE  A9A8                     syscall    GetResInfo
000006D0  206E FEF2                movea.l    A0, [A6 - 0x10E]
000006D4  4A90                     tst.l      [A0]
000006D6  6604                     bne        +0x6 /* 000006DC */
000006D8  2F08                     move.l     -[A7], A0
000006DA  A9A3                     syscall    ReleaseResource
label000006DC:
000006DC  598F                     subq.l     A7, 4
000006DE  3F2E FEF6                move.w     -[A7], [A6 - 0x10A]
000006E2  AA18                     syscall    GetCTable
000006E4  2D5F FFFC                move.l     [A6 - 0x4], [A7]+
000006E8  2054                     movea.l    A0, [A4]
000006EA  30B8 0220                move.w     [A0], [0x00000220 /* MemErr */]
000006EE  2054                     movea.l    A0, [A4]
000006F0  4A50                     tst.w      [A0]
000006F2  6600 009A                bne        +0x9C /* 0000078E */
000006F6  2F2E FFFC                move.l     -[A7], [A6 - 0x4]
000006FA  302E FEF6                move.w     D0, [A6 - 0x10A]
000006FE  48C0                     ext.l      D0
00000700  2F00                     move.l     -[A7], D0
00000702  48C6                     ext.l      D6
00000704  48C7                     ext.l      D7
00000706  2006                     move.l     D0, D6
00000708  D087                     add.l      D0, D7
0000070A  2F00                     move.l     -[A7], D0
0000070C  2F28 006C                move.l     -[A7], [A0 + 0x6C]
00000710  4EBA FE04                jsr        [PC - 0x1FC /* 00000516 */]
00000714  2054                     movea.l    A0, [A4]
00000716  3080                     move.w     [A0], D0
00000718  2054                     movea.l    A0, [A4]
0000071A  4A50                     tst.w      [A0]
0000071C  4FEF 0010                lea.l      A7, [A7 + 0x10]
00000720  6666                     bne        +0x68 /* 00000788 */
00000722  7000                     moveq.l    D0, 0x00
00000724  1013                     move.b     D0, [A3]
00000726  4A80                     tst.l      D0
00000728  6642                     bne        +0x44 /* 0000076C */
0000072A  7004                     moveq.l    D0, 0x04
0000072C  3F00                     move.w     -[A7], D0
0000072E  487A 0076                pea.l      [PC + 0x76 /* 000007A6, value 0xF426974, pstring "BitTool strings" */]
00000732  2F0B                     move.l     -[A7], A3
00000734  4EAD 0282                jsr        [A5 + 0x282 /* export_76, CODE:1 @ 00005CDA */]
00000738  302E FEF6                move.w     D0, [A6 - 0x10A]
0000073C  48C0                     ext.l      D0
0000073E  2F00                     move.l     -[A7], D0
00000740  486E FDF2                pea.l      [A6 - 0x20E]
00000744  4EAD 074A                jsr        [A5 + 0x74A /* export_229, CODE:3 @ 0000367E */]
00000748  7000                     moveq.l    D0, 0x00
0000074A  102E FDF2                move.b     D0, [A6 - 0x20E]
0000074E  2F00                     move.l     -[A7], D0
00000750  486E FDF3                pea.l      [A6 - 0x20D]
00000754  7000                     moveq.l    D0, 0x00
00000756  1013                     move.b     D0, [A3]
00000758  5240                     addq.w     D0, 1
0000075A  4873 0000                pea.l      [A3 + D0.w]
0000075E  4EAD 03EA                jsr        [A5 + 0x3EA /* export_121, CODE:3 @ 000007A8 */]
00000762  102E FDF2                move.b     D0, [A6 - 0x20E]
00000766  D113                     add.b      [A3], D0
00000768  4FEF 000C                lea.l      A7, [A7 + 0xC]
label0000076C:
0000076C  2054                     movea.l    A0, [A4]
0000076E  2F28 0094                move.l     -[A7], [A0 + 0x94]
00000772  2F0B                     move.l     -[A7], A3
00000774  48C6                     ext.l      D6
00000776  2006                     move.l     D0, D6
00000778  5380                     subq.l     D0, 1
0000077A  D047                     add.w      D0, D7
0000077C  3F00                     move.w     -[A7], D0
0000077E  A826                     syscall    InsertMenuItem/InsMenuItem
00000780  2054                     movea.l    A0, [A4]
00000782  5268 006A                addq.w     [A0 + 0x6A], 1
00000786  6006                     bra        +0x8 /* 0000078E */
label00000788:
00000788  2F2E FFFC                move.l     -[A7], [A6 - 0x4]
0000078C  AA24                     syscall    DisposeCTable/DisposCTable
label0000078E:
0000078E  5247                     addq.w     D7, 1
label00000790:
00000790  BA47                     cmp.w      D5, D7
00000792  6D08                     blt        +0xA /* 0000079C */
00000794  2054                     movea.l    A0, [A4]
00000796  4A50                     tst.w      [A0]
00000798  6700 FEEC                beq        -0x112 /* 00000686 */
label0000079C:
0000079C  4CEE 18E0 FDDE           movem.l    D5,D6,D7,A3,A4, [A6 - 0x222]
000007A2  4E5E                     unlink     A6
000007A4  4E75                     rts
000007A6  0F42                     bchg       D2, D7
000007A8  6974                     bvs        +0x76 /* 0000081E */
000007AA  546F 6F6C                addq.w     [A7 + 0x6F6C], 2
000007AE  2073 7472                movea.l    A0, [A3 + D7.w * 4 + 0x72]
000007B2  696E                     bvs        +0x70 /* 00000822 */
000007B4  6773                     beq        +0x75 /* 00000829 */
000007B6  0000 4E56                ori.b      D0, 0x56 /* 'V' */
// begin alternate branch 000007B8-000007C0
export_368:
000007B8  4E56 0000                link       A6, 0
000007BC  48E7 0118                movem.l    -[A7], D7,A3,A4
// end alternate branch 000007B8-000007C0
export_368: // at 000007B8 (misaligned)
000007BA  0000 48E7                ori.b      D0, 0xE7
000007BE  0118                     btst       [A0]+, D0
000007C0  286E 0008                movea.l    A4, [A6 + 0x8]
000007C4  2054                     movea.l    A0, [A4]
000007C6  2668 006C                movea.l    A3, [A0 + 0x6C]
000007CA  200B                     move.l     D0, A3
000007CC  6600 0090                bne        +0x92 /* 0000085E */
000007D0  7E07                     moveq.l    D7, 0x07
000007D2  4A28 0064                tst.b      [A0 + 0x64]
000007D6  6612                     bne        +0x14 /* 000007EA */
000007D8  558F                     subq.l     A7, 2
000007DA  558F                     subq.l     A7, 2
000007DC  A994                     syscall    CurResFile
000007DE  2F3C 636C 7574           move.l     -[A7], 0x636C7574 /* 'clut' */
000007E4  4EAD 08BA                jsr        [A5 + 0x8BA /* export_275, CODE:4 @ 000002A8 */]
000007E8  DE5F                     add.w      D7, [A7]+
label000007EA:
000007EA  3007                     move.w     D0, D7
000007EC  48C0                     ext.l      D0
000007EE  E580                     asl        D0, 2
000007F0  A322                     syscall    NewHandleClear, flags=3
000007F2  2648                     movea.l    A3, A0
000007F4  2054                     movea.l    A0, [A4]
000007F6  30B8 0220                move.w     [A0], [0x00000220 /* MemErr */]
000007FA  2054                     movea.l    A0, [A4]
000007FC  4A50                     tst.w      [A0]
000007FE  665E                     bne        +0x60 /* 0000085E */
00000800  214B 006C                move.l     [A0 + 0x6C], A3
00000804  2054                     movea.l    A0, [A4]
00000806  4A28 0064                tst.b      [A0 + 0x64]
0000080A  6608                     bne        +0xA /* 00000814 */
0000080C  2F0C                     move.l     -[A7], A4
0000080E  4EBA FE4C                jsr        [PC - 0x1B4 /* 0000065C */]
00000812  584F                     addq.w     A7, 4
label00000814:
00000814  2F0C                     move.l     -[A7], A4
00000816  7000                     moveq.l    D0, 0x00
00000818  2F00                     move.l     -[A7], D0
0000081A  4EBA FD94                jsr        [PC - 0x26C /* 000005B0 */]
label0000081E:
0000081E  2F0C                     move.l     -[A7], A4
00000820  7001                     moveq.l    D0, 0x01
label00000822:
00000822  2F00                     move.l     -[A7], D0
00000824  4EBA FD8A                jsr        [PC - 0x276 /* 000005B0 */]
00000828  2F0C                     move.l     -[A7], A4
0000082A  7002                     moveq.l    D0, 0x02
0000082C  2F00                     move.l     -[A7], D0
0000082E  4EBA FD80                jsr        [PC - 0x280 /* 000005B0 */]
00000832  2F0C                     move.l     -[A7], A4
00000834  7003                     moveq.l    D0, 0x03
00000836  2F00                     move.l     -[A7], D0
00000838  4EBA FD76                jsr        [PC - 0x28A /* 000005B0 */]
0000083C  2F0C                     move.l     -[A7], A4
0000083E  7002                     moveq.l    D0, 0x02
00000840  2F00                     move.l     -[A7], D0
00000842  4EBA FD6C                jsr        [PC - 0x294 /* 000005B0 */]
00000846  2F0C                     move.l     -[A7], A4
00000848  7004                     moveq.l    D0, 0x04
0000084A  2F00                     move.l     -[A7], D0
0000084C  4EBA FD62                jsr        [PC - 0x29E /* 000005B0 */]
00000850  2F0C                     move.l     -[A7], A4
00000852  7005                     moveq.l    D0, 0x05
00000854  2F00                     move.l     -[A7], D0
00000856  4EBA FD58                jsr        [PC - 0x2A8 /* 000005B0 */]
0000085A  4FEF 0038                lea.l      A7, [A7 + 0x38]
label0000085E:
0000085E  4CEE 1880 FFF4           movem.l    D7,A3,A4, [A6 - 0xC]
00000864  4E5E                     unlink     A6
00000866  4E75                     rts
export_369:
00000868  4E56 FFFC                link       A6, -0x0004
0000086C  48E7 0318                movem.l    -[A7], D6,D7,A3,A4
00000870  266E 0008                movea.l    A3, [A6 + 0x8]
00000874  2053                     movea.l    A0, [A3]
00000876  2D68 006C FFFC           move.l     [A6 - 0x4], [A0 + 0x6C]
0000087C  4247                     clr.w      D7
0000087E  6058                     bra        +0x5A /* 000008D8 */
label00000880:
00000880  48C7                     ext.l      D7
00000882  2053                     movea.l    A0, [A3]
00000884  2068 0004                movea.l    A0, [A0 + 0x4]
00000888  2050                     movea.l    A0, [A0]
0000088A  2007                     move.l     D0, D7
0000088C  E580                     asl        D0, 2
0000088E  2870 0802                movea.l    A4, [A0 + D0 + 0x2]
00000892  200C                     move.l     D0, A4
00000894  6740                     beq        +0x42 /* 000008D6 */
00000896  2054                     movea.l    A0, [A4]
00000898  3028 0006                move.w     D0, [A0 + 0x6]
0000089C  48C0                     ext.l      D0
0000089E  323C 8000                move.w     D1, 0x8000
000008A2  C240                     and.w      D1, D0
000008A4  6730                     beq        +0x32 /* 000008D6 */
000008A6  4A28 003B                tst.b      [A0 + 0x3B]
000008AA  672A                     beq        +0x2C /* 000008D6 */
000008AC  3028 0022                move.w     D0, [A0 + 0x22]
000008B0  48C0                     ext.l      D0
000008B2  2F00                     move.l     -[A7], D0
000008B4  4EBA FB34                jsr        [PC - 0x4CC /* 000003EA */]
000008B8  3C00                     move.w     D6, D0
000008BA  48C6                     ext.l      D6
000008BC  206E FFFC                movea.l    A0, [A6 - 0x4]
000008C0  2050                     movea.l    A0, [A0]
000008C2  2006                     move.l     D0, D6
000008C4  E580                     asl        D0, 2
000008C6  2070 0800                movea.l    A0, [A0 + D0]
000008CA  2050                     movea.l    A0, [A0]
000008CC  2254                     movea.l    A1, [A4]
000008CE  2368 000C 002C           move.l     [A1 + 0x2C], [A0 + 0xC]
000008D4  584F                     addq.w     A7, 4
label000008D6:
000008D6  5247                     addq.w     D7, 1
label000008D8:
000008D8  2053                     movea.l    A0, [A3]
000008DA  2068 0004                movea.l    A0, [A0 + 0x4]
000008DE  2050                     movea.l    A0, [A0]
000008E0  BE50                     cmp.w      D7, [A0]
000008E2  6F9C                     ble        -0x62 /* 00000880 */
000008E4  4CEE 18C0 FFEC           movem.l    D6,D7,A3,A4, [A6 - 0x14]
000008EA  4E5E                     unlink     A6
000008EC  4E75                     rts
fn000008EE:
000008EE  4E56 0000                link       A6, 0
000008F2  2F0C                     move.l     -[A7], A4
000008F4  302E 000A                move.w     D0, [A6 + 0xA]
000008F8  48C0                     ext.l      D0
000008FA  A322                     syscall    NewHandleClear, flags=3
000008FC  2848                     movea.l    A4, A0
000008FE  4A78 0220                tst.w      [0x00000220 /* MemErr */]
00000902  6604                     bne        +0x6 /* 00000908 */
00000904  200C                     move.l     D0, A4
00000906  600A                     bra        +0xC /* 00000912 */
label00000908:
00000908  206E 000C                movea.l    A0, [A6 + 0xC]
0000090C  30B8 0220                move.w     [A0], [0x00000220 /* MemErr */]
00000910  7000                     moveq.l    D0, 0x00
label00000912:
00000912  286E FFFC                movea.l    A4, [A6 - 0x4]
00000916  4E5E                     unlink     A6
00000918  4E75                     rts
fn0000091A:
0000091A  4E56 0000                link       A6, 0
0000091E  48E7 0118                movem.l    -[A7], D7,A3,A4
00000922  266E 000C                movea.l    A3, [A6 + 0xC]
00000926  286E 0010                movea.l    A4, [A6 + 0x10]
0000092A  70FF                     moveq.l    D0, 0xFFFFFFFF
0000092C  B054                     cmp.w      D0, [A4]
0000092E  6604                     bne        +0x6 /* 00000934 */
00000930  4207                     clr.b      D7
00000932  6008                     bra        +0xA /* 0000093C */
label00000934:
00000934  2053                     movea.l    A0, [A3]
00000936  3014                     move.w     D0, [A4]
00000938  1E30 0000                move.b     D7, [A0 + D0.w]
label0000093C:
0000093C  4A07                     tst.b      D7
0000093E  662A                     bne        +0x2C /* 0000096A */
00000940  5254                     addq.w     [A4], 1
00000942  6002                     bra        +0x4 /* 00000946 */
label00000944:
00000944  5254                     addq.w     [A4], 1
label00000946:
00000946  206E 0008                movea.l    A0, [A6 + 0x8]
0000094A  2050                     movea.l    A0, [A0]
0000094C  3014                     move.w     D0, [A4]
0000094E  B050                     cmp.w      D0, [A0]
00000950  6C0A                     bge        +0xC /* 0000095C */
00000952  2053                     movea.l    A0, [A3]
00000954  3014                     move.w     D0, [A4]
00000956  4A30 0000                tst.b      [A0 + D0.w]
0000095A  66E8                     bne        -0x16 /* 00000944 */
label0000095C:
0000095C  206E 0008                movea.l    A0, [A6 + 0x8]
00000960  2050                     movea.l    A0, [A0]
00000962  3014                     move.w     D0, [A4]
00000964  B050                     cmp.w      D0, [A0]
00000966  6602                     bne        +0x4 /* 0000096A */
00000968  7E02                     moveq.l    D7, 0x02
label0000096A:
0000096A  0C07 0002                cmpi.b     D7, 0x2
0000096E  661E                     bne        +0x20 /* 0000098E */
00000970  5354                     subq.w     [A4], 1
00000972  6002                     bra        +0x4 /* 00000976 */
label00000974:
00000974  5354                     subq.w     [A4], 1
label00000976:
00000976  4A54                     tst.w      [A4]
00000978  6D0C                     blt        +0xE /* 00000986 */
0000097A  2053                     movea.l    A0, [A3]
0000097C  3014                     move.w     D0, [A4]
0000097E  7202                     moveq.l    D1, 0x02
00000980  B230 0000                cmp.b      D1, [A0 + D0.w]
00000984  66EE                     bne        -0x10 /* 00000974 */
label00000986:
00000986  70FF                     moveq.l    D0, 0xFFFFFFFF
00000988  B054                     cmp.w      D0, [A4]
0000098A  6602                     bne        +0x4 /* 0000098E */
0000098C  7E01                     moveq.l    D7, 0x01
label0000098E:
0000098E  1007                     move.b     D0, D7
00000990  4CEE 1880 FFF4           movem.l    D7,A3,A4, [A6 - 0xC]
00000996  4E5E                     unlink     A6
00000998  4E75                     rts
fn0000099A:
0000099A  4E56 FFFC                link       A6, -0x0004
0000099E  48E7 0308                movem.l    -[A7], D6,D7,A4
000009A2  3C2E 0012                move.w     D6, [A6 + 0x12]
000009A6  3E2E 000E                move.w     D7, [A6 + 0xE]
000009AA  286E 0008                movea.l    A4, [A6 + 0x8]
000009AE  2F0C                     move.l     -[A7], A4
000009B0  3F07                     move.w     -[A7], D7
000009B2  486E FFFC                pea.l      [A6 - 0x4]
000009B6  486E FFFE                pea.l      [A6 - 0x2]
000009BA  AA9D                     syscall    GetEntryUsage
000009BC  BC6E FFFC                cmp.w      D6, [A6 - 0x4]
000009C0  6710                     beq        +0x12 /* 000009D2 */
000009C2  2F0C                     move.l     -[A7], A4
000009C4  3F07                     move.w     -[A7], D7
000009C6  3F06                     move.w     -[A7], D6
000009C8  7000                     moveq.l    D0, 0x00
000009CA  3F00                     move.w     -[A7], D0
000009CC  AA9E                     syscall    SetEntryUsage
000009CE  7001                     moveq.l    D0, 0x01
000009D0  6002                     bra        +0x4 /* 000009D4 */
label000009D2:
000009D2  7000                     moveq.l    D0, 0x00
label000009D4:
000009D4  4CEE 10C0 FFF0           movem.l    D6,D7,A4, [A6 - 0x10]
000009DA  4E5E                     unlink     A6
000009DC  4E75                     rts
fn000009DE:
000009DE  4E56 0000                link       A6, 0
000009E2  48E7 1018                movem.l    -[A7], D3,A3,A4
000009E6  266E 0008                movea.l    A3, [A6 + 0x8]
000009EA  286E 0010                movea.l    A4, [A6 + 0x10]
000009EE  4254                     clr.w      [A4]
000009F0  6002                     bra        +0x4 /* 000009F4 */
label000009F2:
000009F2  5254                     addq.w     [A4], 1
label000009F4:
000009F4  2053                     movea.l    A0, [A3]
000009F6  3014                     move.w     D0, [A4]
000009F8  B050                     cmp.w      D0, [A0]
000009FA  6C18                     bge        +0x1A /* 00000A14 */
000009FC  3014                     move.w     D0, [A4]
000009FE  48C0                     ext.l      D0
00000A00  E980                     asl        D0, 4
00000A02  41F0 0810                lea.l      A0, [A0 + D0 + 0x10]
00000A06  226E 000C                movea.l    A1, [A6 + 0xC]
00000A0A  7002                     moveq.l    D0, 0x02
label00000A0C:
00000A0C  B149                     cmpm.w     [A0]+, [A1]+
00000A0E  56C8 FFFC                dbne       D0, -0x6 /* 00000A0C */
00000A12  66DE                     bne        -0x20 /* 000009F2 */
label00000A14:
00000A14  2053                     movea.l    A0, [A3]
00000A16  3014                     move.w     D0, [A4]
00000A18  B050                     cmp.w      D0, [A0]
00000A1A  5DC3                     slt        D3
00000A1C  4403                     neg.b      D3
00000A1E  1003                     move.b     D0, D3
00000A20  4CEE 1808 FFF4           movem.l    D3,A3,A4, [A6 - 0xC]
00000A26  4E5E                     unlink     A6
00000A28  4E75                     rts
export_370:
fn00000A2A:
00000A2A  4E56 FFDE                link       A6, -0x0022
00000A2E  48E7 1F18                movem.l    -[A7], D3,D4,D5,D6,D7,A3,A4
00000A32  206E 0010                movea.l    A0, [A6 + 0x10]
00000A36  2050                     movea.l    A0, [A0]
00000A38  2D68 00C2 FFFC           move.l     [A6 - 0x4], [A0 + 0xC2]
00000A3E  2F2E FFFC                move.l     -[A7], [A6 - 0x4]
00000A42  4EBA 0554                jsr        [PC + 0x554 /* 00000F98 */]
00000A46  2040                     movea.l    A0, D0
00000A48  2050                     movea.l    A0, [A0]
00000A4A  7010                     moveq.l    D0, 0x10
00000A4C  B068 001E                cmp.w      D0, [A0 + 0x1E]
00000A50  584F                     addq.w     A7, 4
00000A52  6700 0454                beq        +0x456 /* 00000EA8 */
00000A56  2F2E FFFC                move.l     -[A7], [A6 - 0x4]
00000A5A  4EBA 0576                jsr        [PC + 0x576 /* 00000FD2 */]
00000A5E  3D40 FFF6                move.w     [A6 - 0xA], D0
00000A62  206E 0010                movea.l    A0, [A6 + 0x10]
00000A66  2050                     movea.l    A0, [A0]
00000A68  2868 00D2                movea.l    A4, [A0 + 0xD2]
00000A6C  7000                     moveq.l    D0, 0x00
00000A6E  2D40 FFF8                move.l     [A6 - 0x8], D0
00000A72  220C                     move.l     D1, A4
00000A74  584F                     addq.w     A7, 4
00000A76  671A                     beq        +0x1C /* 00000A92 */
00000A78  2054                     movea.l    A0, [A4]
00000A7A  302E FFF6                move.w     D0, [A6 - 0xA]
00000A7E  7201                     moveq.l    D1, 0x01
00000A80  E1A9                     lsl        D1, D0
00000A82  3010                     move.w     D0, [A0]
00000A84  48C0                     ext.l      D0
00000A86  B280                     cmp.l      D1, D0
00000A88  6708                     beq        +0xA /* 00000A92 */
00000A8A  2D4C FFF8                move.l     [A6 - 0x8], A4
00000A8E  7000                     moveq.l    D0, 0x00
00000A90  2840                     movea.l    A4, D0
label00000A92:
00000A92  200C                     move.l     D0, A4
00000A94  6600 00A2                bne        +0xA4 /* 00000B38 */
00000A98  206E 0010                movea.l    A0, [A6 + 0x10]
00000A9C  2050                     movea.l    A0, [A0]
00000A9E  4AA8 00CE                tst.l      [A0 + 0xCE]
00000AA2  6618                     bne        +0x1A /* 00000ABC */
00000AA4  598F                     subq.l     A7, 4
00000AA6  206E 0010                movea.l    A0, [A6 + 0x10]
00000AAA  2050                     movea.l    A0, [A0]
00000AAC  2F28 00C2                move.l     -[A7], [A0 + 0xC2]
00000AB0  AA96                     syscall    GetPalette
00000AB2  206E 0010                movea.l    A0, [A6 + 0x10]
00000AB6  2050                     movea.l    A0, [A0]
00000AB8  215F 00CE                move.l     [A0 + 0xCE], [A7]+
label00000ABC:
00000ABC  598F                     subq.l     A7, 4
00000ABE  302E FFF6                move.w     D0, [A6 - 0xA]
00000AC2  7201                     moveq.l    D1, 0x01
00000AC4  E1A9                     lsl        D1, D0
00000AC6  3F01                     move.w     -[A7], D1
00000AC8  7000                     moveq.l    D0, 0x00
00000ACA  2F00                     move.l     -[A7], D0
00000ACC  7200                     moveq.l    D1, 0x00
00000ACE  3F01                     move.w     -[A7], D1
00000AD0  3F01                     move.w     -[A7], D1
00000AD2  AA91                     syscall    NewPalette
00000AD4  285F                     movea.l    A4, [A7]+
00000AD6  200C                     move.l     D0, A4
00000AD8  675E                     beq        +0x60 /* 00000B38 */
00000ADA  206E 0010                movea.l    A0, [A6 + 0x10]
00000ADE  2050                     movea.l    A0, [A0]
00000AE0  214C 00D2                move.l     [A0 + 0xD2], A4
00000AE4  2F2E FFFC                move.l     -[A7], [A6 - 0x4]
00000AE8  2F0C                     move.l     -[A7], A4
00000AEA  7001                     moveq.l    D0, 0x01
00000AEC  1F00                     move.b     -[A7], D0
00000AEE  AA95                     syscall    SetPalette/NSetPalette
00000AF0  206E 0010                movea.l    A0, [A6 + 0x10]
00000AF4  2050                     movea.l    A0, [A0]
00000AF6  4AA8 00C6                tst.l      [A0 + 0xC6]
00000AFA  6718                     beq        +0x1A /* 00000B14 */
00000AFC  206E 0010                movea.l    A0, [A6 + 0x10]
00000B00  2050                     movea.l    A0, [A0]
00000B02  2068 00C6                movea.l    A0, [A0 + 0xC6]
00000B06  2050                     movea.l    A0, [A0]
00000B08  2F28 0104                move.l     -[A7], [A0 + 0x104]
00000B0C  2F0C                     move.l     -[A7], A4
00000B0E  7001                     moveq.l    D0, 0x01
00000B10  1F00                     move.b     -[A7], D0
00000B12  AA95                     syscall    SetPalette/NSetPalette
label00000B14:
00000B14  206E 0010                movea.l    A0, [A6 + 0x10]
00000B18  2050                     movea.l    A0, [A0]
00000B1A  4AA8 00CA                tst.l      [A0 + 0xCA]
00000B1E  6718                     beq        +0x1A /* 00000B38 */
00000B20  206E 0010                movea.l    A0, [A6 + 0x10]
00000B24  2050                     movea.l    A0, [A0]
00000B26  2068 00CA                movea.l    A0, [A0 + 0xCA]
00000B2A  2050                     movea.l    A0, [A0]
00000B2C  2F28 0104                move.l     -[A7], [A0 + 0x104]
00000B30  2F0C                     move.l     -[A7], A4
00000B32  7001                     moveq.l    D0, 0x01
00000B34  1F00                     move.b     -[A7], D0
00000B36  AA95                     syscall    SetPalette/NSetPalette
label00000B38:
00000B38  200C                     move.l     D0, A4
00000B3A  6700 0360                beq        +0x362 /* 00000E9C */
00000B3E  7000                     moveq.l    D0, 0x00
00000B40  2D40 FFEC                move.l     [A6 - 0x14], D0
00000B44  2D40 FFF0                move.l     [A6 - 0x10], D0
00000B48  426E FFF4                clr.w      [A6 - 0xC]
00000B4C  486E FFF4                pea.l      [A6 - 0xC]
00000B50  2054                     movea.l    A0, [A4]
00000B52  3010                     move.w     D0, [A0]
00000B54  48C0                     ext.l      D0
00000B56  2F00                     move.l     -[A7], D0
00000B58  4EBA FD94                jsr        [PC - 0x26C /* 000008EE */]
00000B5C  2640                     movea.l    A3, D0
00000B5E  4AAE 0008                tst.l      [A6 + 0x8]
00000B62  504F                     addq.w     A7, 8
00000B64  671E                     beq        +0x20 /* 00000B84 */
00000B66  486E FFF4                pea.l      [A6 - 0xC]
00000B6A  206E 0008                movea.l    A0, [A6 + 0x8]
00000B6E  2050                     movea.l    A0, [A0]
00000B70  3028 0006                move.w     D0, [A0 + 0x6]
00000B74  48C0                     ext.l      D0
00000B76  5280                     addq.l     D0, 1
00000B78  2F00                     move.l     -[A7], D0
00000B7A  4EBA FD72                jsr        [PC - 0x28E /* 000008EE */]
00000B7E  2D40 FFEC                move.l     [A6 - 0x14], D0
00000B82  504F                     addq.w     A7, 8
label00000B84:
00000B84  4AAE 000C                tst.l      [A6 + 0xC]
00000B88  671E                     beq        +0x20 /* 00000BA8 */
00000B8A  486E FFF4                pea.l      [A6 - 0xC]
00000B8E  206E 000C                movea.l    A0, [A6 + 0xC]
00000B92  2050                     movea.l    A0, [A0]
00000B94  3028 0006                move.w     D0, [A0 + 0x6]
00000B98  48C0                     ext.l      D0
00000B9A  5280                     addq.l     D0, 1
00000B9C  2F00                     move.l     -[A7], D0
00000B9E  4EBA FD4E                jsr        [PC - 0x2B2 /* 000008EE */]
00000BA2  2D40 FFF0                move.l     [A6 - 0x10], D0
00000BA6  504F                     addq.w     A7, 8
label00000BA8:
00000BA8  4A6E FFF4                tst.w      [A6 - 0xC]
00000BAC  6600 02D4                bne        +0x2D6 /* 00000E82 */
00000BB0  4244                     clr.w      D4
00000BB2  42AE FFE6                clr.l      [A6 - 0x1A]
00000BB6  4205                     clr.b      D5
00000BB8  4AAE 000C                tst.l      [A6 + 0xC]
00000BBC  6778                     beq        +0x7A /* 00000C36 */
00000BBE  4247                     clr.w      D7
00000BC0  6068                     bra        +0x6A /* 00000C2A */
label00000BC2:
00000BC2  48C7                     ext.l      D7
00000BC4  206E 000C                movea.l    A0, [A6 + 0xC]
00000BC8  2050                     movea.l    A0, [A0]
00000BCA  2007                     move.l     D0, D7
00000BCC  E780                     asl        D0, 3
00000BCE  43EE FFDE                lea.l      A1, [A6 - 0x22]
00000BD2  41F0 0808                lea.l      A0, [A0 + D0 + 0x8]
00000BD6  22D8                     move.l     [A1]+, [A0]+
00000BD8  22D8                     move.l     [A1]+, [A0]+
00000BDA  486E FFEA                pea.l      [A6 - 0x16]
00000BDE  486E FFE0                pea.l      [A6 - 0x20]
00000BE2  2F0C                     move.l     -[A7], A4
00000BE4  4EBA FDF8                jsr        [PC - 0x208 /* 000009DE */]
00000BE8  4A00                     tst.b      D0
00000BEA  4FEF 000C                lea.l      A7, [A7 + 0xC]
00000BEE  6736                     beq        +0x38 /* 00000C26 */
00000BF0  2053                     movea.l    A0, [A3]
00000BF2  302E FFEA                move.w     D0, [A6 - 0x16]
00000BF6  11BC 0001 0000           move.b     [A0 + D0.w], 0x1
00000BFC  206E FFF0                movea.l    A0, [A6 - 0x10]
00000C00  2050                     movea.l    A0, [A0]
00000C02  11BC 0001 7000           move.b     [A0 + D7.w], 0x1
00000C08  4878 1502                push.l     0x1502
00000C0C  302E FFEA                move.w     D0, [A6 - 0x16]
00000C10  48C0                     ext.l      D0
00000C12  2F00                     move.l     -[A7], D0
00000C14  2F0C                     move.l     -[A7], A4
00000C16  4EBA FD82                jsr        [PC - 0x27E /* 0000099A */]
00000C1A  8A00                     or.b       D5, D0
00000C1C  526E FFE8                addq.w     [A6 - 0x18], 1
00000C20  4FEF 000C                lea.l      A7, [A7 + 0xC]
00000C24  6002                     bra        +0x4 /* 00000C28 */
label00000C26:
00000C26  5244                     addq.w     D4, 1
label00000C28:
00000C28  5247                     addq.w     D7, 1
label00000C2A:
00000C2A  206E 000C                movea.l    A0, [A6 + 0xC]
00000C2E  2050                     movea.l    A0, [A0]
00000C30  BE68 0006                cmp.w      D7, [A0 + 0x6]
00000C34  6F8C                     ble        -0x72 /* 00000BC2 */
label00000C36:
00000C36  4AAE 0008                tst.l      [A6 + 0x8]
00000C3A  6700 0086                beq        +0x88 /* 00000CC2 */
00000C3E  4247                     clr.w      D7
00000C40  6074                     bra        +0x76 /* 00000CB6 */
label00000C42:
00000C42  48C7                     ext.l      D7
00000C44  206E 0008                movea.l    A0, [A6 + 0x8]
00000C48  2050                     movea.l    A0, [A0]
00000C4A  2007                     move.l     D0, D7
00000C4C  E780                     asl        D0, 3
00000C4E  43EE FFDE                lea.l      A1, [A6 - 0x22]
00000C52  41F0 0808                lea.l      A0, [A0 + D0 + 0x8]
00000C56  22D8                     move.l     [A1]+, [A0]+
00000C58  22D8                     move.l     [A1]+, [A0]+
00000C5A  486E FFEA                pea.l      [A6 - 0x16]
00000C5E  486E FFE0                pea.l      [A6 - 0x20]
00000C62  2F0C                     move.l     -[A7], A4
00000C64  4EBA FD78                jsr        [PC - 0x288 /* 000009DE */]
00000C68  4A00                     tst.b      D0
00000C6A  4FEF 000C                lea.l      A7, [A7 + 0xC]
00000C6E  6740                     beq        +0x42 /* 00000CB0 */
00000C70  2053                     movea.l    A0, [A3]
00000C72  302E FFEA                move.w     D0, [A6 - 0x16]
00000C76  7201                     moveq.l    D1, 0x01
00000C78  B230 0000                cmp.b      D1, [A0 + D0.w]
00000C7C  670C                     beq        +0xE /* 00000C8A */
00000C7E  2053                     movea.l    A0, [A3]
00000C80  302E FFEA                move.w     D0, [A6 - 0x16]
00000C84  11BC 0002 0000           move.b     [A0 + D0.w], 0x2
label00000C8A:
00000C8A  206E FFEC                movea.l    A0, [A6 - 0x14]
00000C8E  2050                     movea.l    A0, [A0]
00000C90  11BC 0001 7000           move.b     [A0 + D7.w], 0x1
00000C96  4878 1502                push.l     0x1502
00000C9A  302E FFEA                move.w     D0, [A6 - 0x16]
00000C9E  48C0                     ext.l      D0
00000CA0  2F00                     move.l     -[A7], D0
00000CA2  2F0C                     move.l     -[A7], A4
00000CA4  4EBA FCF4                jsr        [PC - 0x30C /* 0000099A */]
00000CA8  8A00                     or.b       D5, D0
00000CAA  4FEF 000C                lea.l      A7, [A7 + 0xC]
00000CAE  6004                     bra        +0x6 /* 00000CB4 */
label00000CB0:
00000CB0  526E FFE6                addq.w     [A6 - 0x1A], 1
label00000CB4:
00000CB4  5247                     addq.w     D7, 1
label00000CB6:
00000CB6  206E 0008                movea.l    A0, [A6 + 0x8]
00000CBA  2050                     movea.l    A0, [A0]
00000CBC  BE68 0006                cmp.w      D7, [A0 + 0x6]
00000CC0  6F80                     ble        -0x7E /* 00000C42 */
label00000CC2:
00000CC2  48C4                     ext.l      D4
00000CC4  302E FFE6                move.w     D0, [A6 - 0x1A]
00000CC8  48C0                     ext.l      D0
00000CCA  D084                     add.l      D0, D4
00000CCC  6F00 0108                ble        +0x10A /* 00000DD6 */
00000CD0  3D7C FFFF FFEA           move.w     [A6 - 0x16], 0xFFFF
00000CD6  486E FFEA                pea.l      [A6 - 0x16]
00000CDA  2F0B                     move.l     -[A7], A3
00000CDC  2F0C                     move.l     -[A7], A4
00000CDE  4EBA FC3A                jsr        [PC - 0x3C6 /* 0000091A */]
00000CE2  1C00                     move.b     D6, D0
00000CE4  4247                     clr.w      D7
00000CE6  4FEF 000C                lea.l      A7, [A7 + 0xC]
00000CEA  6054                     bra        +0x56 /* 00000D40 */
label00000CEC:
00000CEC  206E FFF0                movea.l    A0, [A6 - 0x10]
00000CF0  2050                     movea.l    A0, [A0]
00000CF2  7000                     moveq.l    D0, 0x00
00000CF4  1030 7000                move.b     D0, [A0 + D7.w]
00000CF8  4A80                     tst.l      D0
00000CFA  6642                     bne        +0x44 /* 00000D3E */
00000CFC  2F0C                     move.l     -[A7], A4
00000CFE  3F2E FFEA                move.w     -[A7], [A6 - 0x16]
00000D02  48C7                     ext.l      D7
00000D04  206E 000C                movea.l    A0, [A6 + 0xC]
00000D08  2050                     movea.l    A0, [A0]
00000D0A  2007                     move.l     D0, D7
00000D0C  E780                     asl        D0, 3
00000D0E  4870 080A                pea.l      [A0 + D0 + 0xA]
00000D12  AA9C                     syscall    SetEntryColor
00000D14  2F0C                     move.l     -[A7], A4
00000D16  3F2E FFEA                move.w     -[A7], [A6 - 0x16]
00000D1A  3F3C 1502                move.w     -[A7], 0x1502
00000D1E  7000                     moveq.l    D0, 0x00
00000D20  3F00                     move.w     -[A7], D0
00000D22  AA9E                     syscall    SetEntryUsage
00000D24  7A01                     moveq.l    D5, 0x01
00000D26  486E FFEA                pea.l      [A6 - 0x16]
00000D2A  2F0B                     move.l     -[A7], A3
00000D2C  2F0C                     move.l     -[A7], A4
00000D2E  4EBA FBEA                jsr        [PC - 0x416 /* 0000091A */]
00000D32  1C00                     move.b     D6, D0
00000D34  5344                     subq.w     D4, 1
00000D36  526E FFE8                addq.w     [A6 - 0x18], 1
00000D3A  4FEF 000C                lea.l      A7, [A7 + 0xC]
label00000D3E:
00000D3E  5247                     addq.w     D7, 1
label00000D40:
00000D40  4A44                     tst.w      D4
00000D42  6F06                     ble        +0x8 /* 00000D4A */
00000D44  0C06 0001                cmpi.b     D6, 0x1
00000D48  66A2                     bne        -0x5C /* 00000CEC */
label00000D4A:
00000D4A  4247                     clr.w      D7
00000D4C  6052                     bra        +0x54 /* 00000DA0 */
label00000D4E:
00000D4E  206E FFEC                movea.l    A0, [A6 - 0x14]
00000D52  2050                     movea.l    A0, [A0]
00000D54  7000                     moveq.l    D0, 0x00
00000D56  1030 7000                move.b     D0, [A0 + D7.w]
00000D5A  4A80                     tst.l      D0
00000D5C  6640                     bne        +0x42 /* 00000D9E */
00000D5E  2F0C                     move.l     -[A7], A4
00000D60  3F2E FFEA                move.w     -[A7], [A6 - 0x16]
00000D64  48C7                     ext.l      D7
00000D66  206E 0008                movea.l    A0, [A6 + 0x8]
00000D6A  2050                     movea.l    A0, [A0]
00000D6C  2007                     move.l     D0, D7
00000D6E  E780                     asl        D0, 3
00000D70  4870 080A                pea.l      [A0 + D0 + 0xA]
00000D74  AA9C                     syscall    SetEntryColor
00000D76  2F0C                     move.l     -[A7], A4
00000D78  3F2E FFEA                move.w     -[A7], [A6 - 0x16]
00000D7C  3F3C 1502                move.w     -[A7], 0x1502
00000D80  7000                     moveq.l    D0, 0x00
00000D82  3F00                     move.w     -[A7], D0
00000D84  AA9E                     syscall    SetEntryUsage
00000D86  7A01                     moveq.l    D5, 0x01
00000D88  486E FFEA                pea.l      [A6 - 0x16]
00000D8C  2F0B                     move.l     -[A7], A3
00000D8E  2F0C                     move.l     -[A7], A4
00000D90  4EBA FB88                jsr        [PC - 0x478 /* 0000091A */]
00000D94  1C00                     move.b     D6, D0
00000D96  536E FFE6                subq.w     [A6 - 0x1A], 1
00000D9A  4FEF 000C                lea.l      A7, [A7 + 0xC]
label00000D9E:
00000D9E  5247                     addq.w     D7, 1
label00000DA0:
00000DA0  4A6E FFE6                tst.w      [A6 - 0x1A]
00000DA4  6F2C                     ble        +0x2E /* 00000DD2 */
00000DA6  4A06                     tst.b      D6
00000DA8  67A4                     beq        -0x5A /* 00000D4E */
00000DAA  6026                     bra        +0x28 /* 00000DD2 */
label00000DAC:
00000DAC  7000                     moveq.l    D0, 0x00
00000DAE  2F00                     move.l     -[A7], D0
00000DB0  322E FFEA                move.w     D1, [A6 - 0x16]
00000DB4  48C1                     ext.l      D1
00000DB6  2F01                     move.l     -[A7], D1
00000DB8  2F0C                     move.l     -[A7], A4
00000DBA  4EBA FBDE                jsr        [PC - 0x422 /* 0000099A */]
00000DBE  8A00                     or.b       D5, D0
00000DC0  486E FFEA                pea.l      [A6 - 0x16]
00000DC4  2F0B                     move.l     -[A7], A3
00000DC6  2F0C                     move.l     -[A7], A4
00000DC8  4EBA FB50                jsr        [PC - 0x4B0 /* 0000091A */]
00000DCC  1C00                     move.b     D6, D0
00000DCE  4FEF 0018                lea.l      A7, [A7 + 0x18]
label00000DD2:
00000DD2  4A06                     tst.b      D6
00000DD4  67D6                     beq        -0x28 /* 00000DAC */
label00000DD6:
00000DD6  206E 0010                movea.l    A0, [A6 + 0x10]
00000DDA  2050                     movea.l    A0, [A0]
00000DDC  4A28 0065                tst.b      [A0 + 0x65]
00000DE0  6678                     bne        +0x7A /* 00000E5A */
00000DE2  302E FFE8                move.w     D0, [A6 - 0x18]
00000DE6  48C0                     ext.l      D0
00000DE8  48C4                     ext.l      D4
00000DEA  D084                     add.l      D0, D4
00000DEC  322E FFF6                move.w     D1, [A6 - 0xA]
00000DF0  7401                     moveq.l    D2, 0x01
00000DF2  E3AA                     lsl        D2, D1
00000DF4  B480                     cmp.l      D2, D0
00000DF6  5DC3                     slt        D3
00000DF8  4403                     neg.b      D3
00000DFA  1C03                     move.b     D6, D3
00000DFC  4AAE 0008                tst.l      [A6 + 0x8]
00000E00  57C3                     seq        D3
00000E02  4403                     neg.b      D3
00000E04  6704                     beq        +0x6 /* 00000E0A */
00000E06  7000                     moveq.l    D0, 0x00
00000E08  601C                     bra        +0x1E /* 00000E26 */
label00000E0A:
00000E0A  206E 0008                movea.l    A0, [A6 + 0x8]
00000E0E  2050                     movea.l    A0, [A0]
00000E10  302E FFF6                move.w     D0, [A6 - 0xA]
00000E14  7201                     moveq.l    D1, 0x01
00000E16  E1A9                     lsl        D1, D0
00000E18  3028 0006                move.w     D0, [A0 + 0x6]
00000E1C  48C0                     ext.l      D0
00000E1E  B280                     cmp.l      D1, D0
00000E20  5FC3                     sle        D3
00000E22  4403                     neg.b      D3
00000E24  1003                     move.b     D0, D3
label00000E26:
00000E26  1800                     move.b     D4, D0
00000E28  8006                     or.b       D0, D6
00000E2A  672E                     beq        +0x30 /* 00000E5A */
00000E2C  422D F7C3                clr.b      [A5 - 0x83D]
00000E30  558F                     subq.l     A7, 2
00000E32  7002                     moveq.l    D0, 0x02
00000E34  1F00                     move.b     -[A7], D0
00000E36  487A 007A                pea.l      [PC + 0x7A /* 00000EB2, value 0x15426974, pstring "BitTool alert strings" */]
00000E3A  4A06                     tst.b      D6
00000E3C  6704                     beq        +0x6 /* 00000E42 */
00000E3E  720C                     moveq.l    D1, 0x0C
00000E40  6002                     bra        +0x4 /* 00000E44 */
label00000E42:
00000E42  720D                     moveq.l    D1, 0x0D
label00000E44:
00000E44  4881                     ext.w      D1
00000E46  3F01                     move.w     -[A7], D1
00000E48  4EAD 00DA                jsr        [A5 + 0xDA /* export_23, CODE:1 @ 00002ACA */]
00000E4C  206E 0010                movea.l    A0, [A6 + 0x10]
00000E50  2050                     movea.l    A0, [A0]
00000E52  117C 0001 0065           move.b     [A0 + 0x65], 0x1
00000E58  544F                     addq.w     A7, 2
label00000E5A:
00000E5A  4A05                     tst.b      D5
00000E5C  6724                     beq        +0x26 /* 00000E82 */
00000E5E  598F                     subq.l     A7, 4
00000E60  A924                     syscall    FrontWindow
00000E62  AA94                     syscall    ActivatePalette
00000E64  4A6D F7C6                tst.w      [A5 - 0x83A]
00000E68  6618                     bne        +0x1A /* 00000E82 */
00000E6A  0C6D 0700 F7CC           cmpi.w     [A5 - 0x834], 0x700
00000E70  6C10                     bge        +0x12 /* 00000E82 */
00000E72  7000                     moveq.l    D0, 0x00
00000E74  2F00                     move.l     -[A7], D0
00000E76  2F38 09EE                move.l     -[A7], [0x000009EE /* GrayRgn */]
00000E7A  A90C                     syscall    PaintOne
00000E7C  2F2E FFFC                move.l     -[A7], [A6 - 0x4]
00000E80  A873                     syscall    SetPort
label00000E82:
00000E82  2F0B                     move.l     -[A7], A3
00000E84  4EAD 0ADA                jsr        [A5 + 0xADA /* export_343, CODE:9 @ 00000044 */]
00000E88  2F2E FFEC                move.l     -[A7], [A6 - 0x14]
00000E8C  4EAD 0ADA                jsr        [A5 + 0xADA /* export_343, CODE:9 @ 00000044 */]
00000E90  2F2E FFF0                move.l     -[A7], [A6 - 0x10]
00000E94  4EAD 0ADA                jsr        [A5 + 0xADA /* export_343, CODE:9 @ 00000044 */]
00000E98  4FEF 000C                lea.l      A7, [A7 + 0xC]
label00000E9C:
00000E9C  4AAE FFF8                tst.l      [A6 - 0x8]
00000EA0  6706                     beq        +0x8 /* 00000EA8 */
00000EA2  2F2E FFF8                move.l     -[A7], [A6 - 0x8]
00000EA6  AA93                     syscall    DisposePalette
label00000EA8:
00000EA8  4CEE 18F8 FFC2           movem.l    D3,D4,D5,D6,D7,A3,A4, [A6 - 0x3E]
00000EAE  4E5E                     unlink     A6
00000EB0  4E75                     rts
00000EB2  1542 6974                move.b     [A2 + 0x6974], D2
00000EB6  546F 6F6C                addq.w     [A7 + 0x6F6C], 2
00000EBA  2061                     movea.l    A0, -[A1]
00000EBC  6C65                     bge        +0x67 /* 00000F23 */
00000EBE  7274                     moveq.l    D1, 0x74
00000EC0  2073 7472                movea.l    A0, [A3 + D7.w * 4 + 0x72]
00000EC4  696E                     bvs        +0x70 /* 00000F34 */
00000EC6  6773                     beq        +0x75 /* 00000F3B */
00000EC8  0000 4E56                ori.b      D0, 0x56 /* 'V' */
// begin alternate branch 00000ECA-00000ED2
export_371:
00000ECA  4E56 0000                link       A6, 0
00000ECE  48E7 0318                movem.l    -[A7], D6,D7,A3,A4
// end alternate branch 00000ECA-00000ED2
export_371: // at 00000ECA (misaligned)
00000ECC  0000 48E7                ori.b      D0, 0xE7
00000ED0  0318                     btst       [A0]+, D1
00000ED2  286E 0008                movea.l    A4, [A6 + 0x8]
00000ED6  2054                     movea.l    A0, [A4]
00000ED8  2668 00C2                movea.l    A3, [A0 + 0xC2]
00000EDC  2F0B                     move.l     -[A7], A3
00000EDE  4EBA 00B8                jsr        [PC + 0xB8 /* 00000F98 */]
00000EE2  2040                     movea.l    A0, D0
00000EE4  2050                     movea.l    A0, [A0]
00000EE6  7010                     moveq.l    D0, 0x10
00000EE8  B068 001E                cmp.w      D0, [A0 + 0x1E]
00000EEC  584F                     addq.w     A7, 4
00000EEE  6700 0086                beq        +0x88 /* 00000F76 */
00000EF2  2054                     movea.l    A0, [A4]
00000EF4  2F28 00C2                move.l     -[A7], [A0 + 0xC2]
00000EF8  4EBA 00D8                jsr        [PC + 0xD8 /* 00000FD2 */]
00000EFC  3E00                     move.w     D7, D0
00000EFE  48C7                     ext.l      D7
00000F00  2F07                     move.l     -[A7], D7
00000F02  4EBA F4E6                jsr        [PC - 0xB1A /* 000003EA */]
00000F06  3C00                     move.w     D6, D0
00000F08  2054                     movea.l    A0, [A4]
00000F0A  4A28 0065                tst.b      [A0 + 0x65]
00000F0E  504F                     addq.w     A7, 8
00000F10  6636                     bne        +0x38 /* 00000F48 */
00000F12  2068 004C                movea.l    A0, [A0 + 0x4C]
00000F16  2050                     movea.l    A0, [A0]
00000F18  2668 000C                movea.l    A3, [A0 + 0xC]
00000F1C  2053                     movea.l    A0, [A3]
00000F1E  7001                     moveq.l    D0, 0x01
00000F20  EFA8                     lsl        D0, D7
00000F22  3228 0006                move.w     D1, [A0 + 0x6]
00000F26  48C1                     ext.l      D1
00000F28  B081                     cmp.l      D0, D1
00000F2A  6E1C                     bgt        +0x1E /* 00000F48 */
00000F2C  558F                     subq.l     A7, 2
00000F2E  7002                     moveq.l    D0, 0x02
00000F30  1F00                     move.b     -[A7], D0
00000F32  487A 004C                pea.l      [PC + 0x4C /* 00000F80, value 0x15426974, pstring "BitTool alert strings" */]
// begin alternate branch 00000F34-00000F38
label00000F34:
00000F34  004C 720E                ori.w      A4, 0x720E
// end alternate branch 00000F34-00000F38
label00000F34: // (misaligned)
00000F36  720E                     moveq.l    D1, 0x0E
00000F38  3F01                     move.w     -[A7], D1
00000F3A  4EAD 00DA                jsr        [A5 + 0xDA /* export_23, CODE:1 @ 00002ACA */]
00000F3E  2054                     movea.l    A0, [A4]
00000F40  117C 0001 0065           move.b     [A0 + 0x65], 0x1
00000F46  544F                     addq.w     A7, 2
label00000F48:
00000F48  2054                     movea.l    A0, [A4]
00000F4A  BE68 0066                cmp.w      D7, [A0 + 0x66]
00000F4E  6726                     beq        +0x28 /* 00000F76 */
00000F50  48C6                     ext.l      D6
00000F52  2068 006C                movea.l    A0, [A0 + 0x6C]
00000F56  2050                     movea.l    A0, [A0]
00000F58  2006                     move.l     D0, D6
00000F5A  E580                     asl        D0, 2
00000F5C  2070 0800                movea.l    A0, [A0 + D0]
00000F60  2050                     movea.l    A0, [A0]
00000F62  2668 000C                movea.l    A3, [A0 + 0xC]
00000F66  2F0C                     move.l     -[A7], A4
00000F68  7000                     moveq.l    D0, 0x00
00000F6A  2F00                     move.l     -[A7], D0
00000F6C  2F0B                     move.l     -[A7], A3
00000F6E  4EBA FABA                jsr        [PC - 0x546 /* 00000A2A */]
00000F72  4FEF 000C                lea.l      A7, [A7 + 0xC]
label00000F76:
00000F76  4CEE 18C0 FFF0           movem.l    D6,D7,A3,A4, [A6 - 0x10]
00000F7C  4E5E                     unlink     A6
00000F7E  4E75                     rts
00000F80  1542 6974                move.b     [A2 + 0x6974], D2
00000F84  546F 6F6C                addq.w     [A7 + 0x6F6C], 2
00000F88  2061                     movea.l    A0, -[A1]
00000F8A  6C65                     bge        +0x67 /* 00000FF1 */
00000F8C  7274                     moveq.l    D1, 0x74
00000F8E  2073 7472                movea.l    A0, [A3 + D7.w * 4 + 0x72]
00000F92  696E                     bvs        +0x70 /* 00001002 */
00000F94  6773                     beq        +0x75 /* 00001009 */
00000F96  0000 4E56                ori.b      D0, 0x56 /* 'V' */
// begin alternate branch 00000F98-00000F9C
export_372:
fn00000F98:
00000F98  4E56 FFF8                link       A6, -0x0008
// end alternate branch 00000F98-00000F9C
export_372: // at 00000F98 (misaligned)
fn00000F98: // (misaligned)
00000F9A  FFF8                     .invalid   <<F/7/7>>
00000F9C  2F0C                     move.l     -[A7], A4
00000F9E  206E 0008                movea.l    A0, [A6 + 0x8]
00000FA2  43EE FFF8                lea.l      A1, [A6 - 0x8]
00000FA6  41E8 0010                lea.l      A0, [A0 + 0x10]
00000FAA  22D8                     move.l     [A1]+, [A0]+
00000FAC  22D8                     move.l     [A1]+, [A0]+
00000FAE  486E FFF8                pea.l      [A6 - 0x8]
00000FB2  A870                     syscall    LocalToGlobal
00000FB4  486E FFFC                pea.l      [A6 - 0x4]
00000FB8  A870                     syscall    LocalToGlobal
00000FBA  598F                     subq.l     A7, 4
00000FBC  486E FFF8                pea.l      [A6 - 0x8]
00000FC0  AA27                     syscall    GetMaxDevice
00000FC2  285F                     movea.l    A4, [A7]+
00000FC4  2054                     movea.l    A0, [A4]
00000FC6  2028 0016                move.l     D0, [A0 + 0x16]
00000FCA  286E FFF4                movea.l    A4, [A6 - 0xC]
00000FCE  4E5E                     unlink     A6
00000FD0  4E75                     rts
export_373:
fn00000FD2:
00000FD2  4E56 0000                link       A6, 0
00000FD6  2F2E 0008                move.l     -[A7], [A6 + 0x8]
00000FDA  4EBA FFBC                jsr        [PC - 0x44 /* 00000F98 */]
00000FDE  2040                     movea.l    A0, D0
00000FE0  2050                     movea.l    A0, [A0]
00000FE2  3028 0020                move.w     D0, [A0 + 0x20]
00000FE6  4E5E                     unlink     A6
00000FE8  4E75                     rts
export_374:
fn00000FEA:
00000FEA  4E56 FFF8                link       A6, -0x0008
00000FEE  48E7 0018                movem.l    -[A7], A3,A4
00000FF2  206E 0010                movea.l    A0, [A6 + 0x10]
00000FF6  2050                     movea.l    A0, [A0]
00000FF8  43EE FFF8                lea.l      A1, [A6 - 0x8]
00000FFC  41E8 002C                lea.l      A0, [A0 + 0x2C]
00001000  22D8                     move.l     [A1]+, [A0]+
label00001002:
00001002  22D8                     move.l     [A1]+, [A0]+
00001004  598F                     subq.l     A7, 4
00001006  A8D8                     syscall    NewRgn
00001008  265F                     movea.l    A3, [A7]+
0000100A  598F                     subq.l     A7, 4
0000100C  A8D8                     syscall    NewRgn
0000100E  285F                     movea.l    A4, [A7]+
00001010  4A78 0220                tst.w      [0x00000220 /* MemErr */]
00001014  6704                     beq        +0x6 /* 0000101A */
00001016  7000                     moveq.l    D0, 0x00
00001018  6076                     bra        +0x78 /* 00001090 */
label0000101A:
0000101A  4A2E 000B                tst.b      [A6 + 0xB]
0000101E  670C                     beq        +0xE /* 0000102C */
00001020  486E FFF8                pea.l      [A6 - 0x8]
00001024  7002                     moveq.l    D0, 0x02
00001026  3F00                     move.w     -[A7], D0
00001028  3F00                     move.w     -[A7], D0
0000102A  A8A9                     syscall    InsetRect
label0000102C:
0000102C  4A2E 000F                tst.b      [A6 + 0xF]
00001030  671C                     beq        +0x1E /* 0000104E */
00001032  302E FFFE                move.w     D0, [A6 - 0x2]
00001036  48C0                     ext.l      D0
00001038  322E FFFA                move.w     D1, [A6 - 0x6]
0000103C  48C1                     ext.l      D1
0000103E  9081                     sub.l      D0, D1
00001040  7202                     moveq.l    D1, 0x02
00001042  4EAD 076A                jsr        [A5 + 0x76A /* export_233, CODE:3 @ 0000372A */]
00001046  D06E FFFA                add.w      D0, [A6 - 0x6]
0000104A  3D40 FFFA                move.w     [A6 - 0x6], D0
label0000104E:
0000104E  2F0C                     move.l     -[A7], A4
00001050  486E FFF8                pea.l      [A6 - 0x8]
00001054  A8DF                     syscall    RectRgn
00001056  2F0B                     move.l     -[A7], A3
00001058  206E 0010                movea.l    A0, [A6 + 0x10]
0000105C  2050                     movea.l    A0, [A0]
0000105E  4868 0024                pea.l      [A0 + 0x24]
00001062  A8DF                     syscall    RectRgn
00001064  2F0C                     move.l     -[A7], A4
00001066  2F0B                     move.l     -[A7], A3
00001068  2F0C                     move.l     -[A7], A4
0000106A  A8E6                     syscall    DiffRgn
0000106C  206E 0010                movea.l    A0, [A6 + 0x10]
00001070  2050                     movea.l    A0, [A0]
00001072  4A28 0062                tst.b      [A0 + 0x62]
00001076  6712                     beq        +0x14 /* 0000108A */
00001078  2F0B                     move.l     -[A7], A3
0000107A  7001                     moveq.l    D0, 0x01
0000107C  3F00                     move.w     -[A7], D0
0000107E  3F00                     move.w     -[A7], D0
00001080  A8E0                     syscall    OffsetRgn/OfsetRgn
00001082  2F0C                     move.l     -[A7], A4
00001084  2F0B                     move.l     -[A7], A3
00001086  2F0C                     move.l     -[A7], A4
00001088  A8E6                     syscall    DiffRgn
label0000108A:
0000108A  2F0B                     move.l     -[A7], A3
0000108C  A8D9                     syscall    DisposRgn/DisposeRgn
0000108E  200C                     move.l     D0, A4
label00001090:
00001090  4CEE 1800 FFF0           movem.l    A3,A4, [A6 - 0x10]
00001096  4E5E                     unlink     A6
00001098  4E75                     rts
fn0000109A:
0000109A  4E56 0000                link       A6, 0
0000109E  48E7 0118                movem.l    -[A7], D7,A3,A4
000010A2  266E 0008                movea.l    A3, [A6 + 0x8]
000010A6  286B 002A                movea.l    A4, [A3 + 0x2A]
000010AA  2F2E 0012                move.l     -[A7], [A6 + 0x12]
000010AE  2F0B                     move.l     -[A7], A3
000010B0  4EBA 195E                jsr        [PC + 0x195E /* 00002A10 */]
000010B4  3E00                     move.w     D7, D0
000010B6  206E 0012                movea.l    A0, [A6 + 0x12]
000010BA  4A50                     tst.w      [A0]
000010BC  504F                     addq.w     A7, 8
000010BE  661E                     bne        +0x20 /* 000010DE */
000010C0  2054                     movea.l    A0, [A4]
000010C2  BE68 0006                cmp.w      D7, [A0 + 0x6]
000010C6  6E16                     bgt        +0x18 /* 000010DE */
000010C8  48C7                     ext.l      D7
000010CA  2007                     move.l     D0, D7
000010CC  E780                     asl        D0, 3
000010CE  41F0 080A                lea.l      A0, [A0 + D0 + 0xA]
000010D2  43EE 000C                lea.l      A1, [A6 + 0xC]
000010D6  20D9                     move.l     [A0]+, [A1]+
000010D8  30D9                     move.w     [A0]+, [A1]+
000010DA  7001                     moveq.l    D0, 0x01
000010DC  6002                     bra        +0x4 /* 000010E0 */
label000010DE:
000010DE  7000                     moveq.l    D0, 0x00
label000010E0:
000010E0  4CEE 1880 FFF4           movem.l    D7,A3,A4, [A6 - 0xC]
000010E6  4E5E                     unlink     A6
000010E8  4E75                     rts
fn000010EA:
000010EA  4E56 FFF8                link       A6, -0x0008
000010EE  48E7 0318                movem.l    -[A7], D6,D7,A3,A4
000010F2  266E 0008                movea.l    A3, [A6 + 0x8]
000010F6  286B 002A                movea.l    A4, [A3 + 0x2A]
000010FA  302B 0020                move.w     D0, [A3 + 0x20]
000010FE  7201                     moveq.l    D1, 0x01
00001100  E1A9                     lsl        D1, D0
00001102  2C01                     move.l     D6, D1
00001104  5386                     subq.l     D6, 1
00001106  2054                     movea.l    A0, [A4]
00001108  BC68 0006                cmp.w      D6, [A0 + 0x6]
0000110C  6612                     bne        +0x14 /* 00001120 */
0000110E  2F2E 0012                move.l     -[A7], [A6 + 0x12]
00001112  7001                     moveq.l    D0, 0x01
00001114  2F00                     move.l     -[A7], D0
00001116  2F0B                     move.l     -[A7], A3
00001118  4EBA 18A2                jsr        [PC + 0x18A2 /* 000029BC */]
0000111C  4FEF 000C                lea.l      A7, [A7 + 0xC]
label00001120:
00001120  2054                     movea.l    A0, [A4]
00001122  3E28 0006                move.w     D7, [A0 + 0x6]
00001126  BC47                     cmp.w      D6, D7
00001128  6F60                     ble        +0x62 /* 0000118A */
0000112A  48C7                     ext.l      D7
0000112C  2007                     move.l     D0, D7
0000112E  E780                     asl        D0, 3
00001130  43EE FFF8                lea.l      A1, [A6 - 0x8]
00001134  41F0 0808                lea.l      A0, [A0 + D0 + 0x8]
00001138  22D8                     move.l     [A1]+, [A0]+
0000113A  22D8                     move.l     [A1]+, [A0]+
0000113C  48C7                     ext.l      D7
0000113E  2007                     move.l     D0, D7
00001140  5280                     addq.l     D0, 1
00001142  2054                     movea.l    A0, [A4]
00001144  E780                     asl        D0, 3
00001146  48C7                     ext.l      D7
00001148  2248                     movea.l    A1, A0
0000114A  2207                     move.l     D1, D7
0000114C  E781                     asl        D1, 3
0000114E  33B0 0808 1808           move.w     [A1 + D1 + 0x8], [A0 + D0 + 0x8]
00001154  48C7                     ext.l      D7
00001156  2C07                     move.l     D6, D7
00001158  2054                     movea.l    A0, [A4]
0000115A  47E8 0008                lea.l      A3, [A0 + 0x8]
0000115E  2006                     move.l     D0, D6
00001160  E780                     asl        D0, 3
00001162  41EE 000C                lea.l      A0, [A6 + 0xC]
00001166  43F3 0802                lea.l      A1, [A3 + D0 + 0x2]
0000116A  22D8                     move.l     [A1]+, [A0]+
0000116C  32D8                     move.w     [A1]+, [A0]+
0000116E  2006                     move.l     D0, D6
00001170  5280                     addq.l     D0, 1
00001172  E780                     asl        D0, 3
00001174  41F3 0800                lea.l      A0, [A3 + D0]
00001178  43EE FFF8                lea.l      A1, [A6 - 0x8]
0000117C  20D9                     move.l     [A0]+, [A1]+
0000117E  20D9                     move.l     [A0]+, [A1]+
00001180  2054                     movea.l    A0, [A4]
00001182  5268 0006                addq.w     [A0 + 0x6], 1
00001186  7001                     moveq.l    D0, 0x01
00001188  6002                     bra        +0x4 /* 0000118C */
label0000118A:
0000118A  7000                     moveq.l    D0, 0x00
label0000118C:
0000118C  4CEE 18C0 FFE8           movem.l    D6,D7,A3,A4, [A6 - 0x18]
00001192  4E5E                     unlink     A6
00001194  4E75                     rts
fn00001196:
00001196  4E56 FFFC                link       A6, -0x0004
0000119A  48E7 1118                movem.l    -[A7], D3,D7,A3,A4
0000119E  266E 0012                movea.l    A3, [A6 + 0x12]
000011A2  206E 0016                movea.l    A0, [A6 + 0x16]
000011A6  2050                     movea.l    A0, [A0]
000011A8  2868 0044                movea.l    A4, [A0 + 0x44]
000011AC  206E 0016                movea.l    A0, [A6 + 0x16]
000011B0  2050                     movea.l    A0, [A0]
000011B2  2D68 0048 FFFC           move.l     [A6 - 0x4], [A0 + 0x48]
000011B8  41EE 000E                lea.l      A0, [A6 + 0xE]
000011BC  2F20                     move.l     -[A7], -[A0]
000011BE  3F20                     move.w     -[A7], -[A0]
000011C0  206E FFFC                movea.l    A0, [A6 - 0x4]
000011C4  2050                     movea.l    A0, [A0]
000011C6  2F28 0018                move.l     -[A7], [A0 + 0x18]
000011CA  4EBA 18B2                jsr        [PC + 0x18B2 /* 00002A7E */]
000011CE  1E00                     move.b     D7, D0
000011D0  4FEF 000A                lea.l      A7, [A7 + 0xA]
000011D4  6600 00CE                bne        +0xD0 /* 000012A4 */
000011D8  204C                     movea.l    A0, A4
000011DA  A029                     syscall    HLock
000011DC  2054                     movea.l    A0, [A4]
000011DE  2068 0034                movea.l    A0, [A0 + 0x34]
000011E2  A029                     syscall    HLock
000011E4  598F                     subq.l     A7, 4
000011E6  2054                     movea.l    A0, [A4]
000011E8  2068 0034                movea.l    A0, [A0 + 0x34]
000011EC  2F10                     move.l     -[A7], [A0]
000011EE  4EAD 0752                jsr        [A5 + 0x752 /* export_230, CODE:3 @ 00003690 */]
000011F2  2054                     movea.l    A0, [A4]
000011F4  215F 0002                move.l     [A0 + 0x2], [A7]+
000011F8  2054                     movea.l    A0, [A4]
000011FA  4A28 003A                tst.b      [A0 + 0x3A]
000011FE  671C                     beq        +0x1E /* 0000121C */
00001200  2F0B                     move.l     -[A7], A3
00001202  41EE 000E                lea.l      A0, [A6 + 0xE]
00001206  2F20                     move.l     -[A7], -[A0]
00001208  3F20                     move.w     -[A7], -[A0]
0000120A  2054                     movea.l    A0, [A4]
0000120C  4868 0002                pea.l      [A0 + 0x2]
00001210  4EBA FE88                jsr        [PC - 0x178 /* 0000109A */]
00001214  1E00                     move.b     D7, D0
00001216  4FEF 000E                lea.l      A7, [A7 + 0xE]
0000121A  601A                     bra        +0x1C /* 00001236 */
label0000121C:
0000121C  2F0B                     move.l     -[A7], A3
0000121E  41EE 000E                lea.l      A0, [A6 + 0xE]
00001222  2F20                     move.l     -[A7], -[A0]
00001224  3F20                     move.w     -[A7], -[A0]
00001226  2054                     movea.l    A0, [A4]
00001228  4868 0002                pea.l      [A0 + 0x2]
0000122C  4EBA FEBC                jsr        [PC - 0x144 /* 000010EA */]
00001230  1E00                     move.b     D7, D0
00001232  4FEF 000E                lea.l      A7, [A7 + 0xE]
label00001236:
00001236  2054                     movea.l    A0, [A4]
00001238  2068 0034                movea.l    A0, [A0 + 0x34]
0000123C  A02A                     syscall    HUnlock
0000123E  204C                     movea.l    A0, A4
00001240  A02A                     syscall    HUnlock
00001242  4A07                     tst.b      D7
00001244  6740                     beq        +0x42 /* 00001286 */
00001246  2F2E FFFC                move.l     -[A7], [A6 - 0x4]
0000124A  4EAD 077A                jsr        [A5 + 0x77A /* export_235, CODE:3 @ 00003CBE */]
0000124E  206E FFFC                movea.l    A0, [A6 - 0x4]
00001252  2050                     movea.l    A0, [A0]
00001254  36A8 00A8                move.w     [A3], [A0 + 0xA8]
00001258  57C3                     seq        D3
0000125A  4403                     neg.b      D3
0000125C  1E03                     move.b     D7, D3
0000125E  2F2E 0016                move.l     -[A7], [A6 + 0x16]
00001262  206E FFFC                movea.l    A0, [A6 - 0x4]
00001266  2050                     movea.l    A0, [A0]
00001268  2F28 0018                move.l     -[A7], [A0 + 0x18]
0000126C  206E 0016                movea.l    A0, [A6 + 0x16]
00001270  2050                     movea.l    A0, [A0]
00001272  2068 004C                movea.l    A0, [A0 + 0x4C]
00001276  2050                     movea.l    A0, [A0]
00001278  2F28 000C                move.l     -[A7], [A0 + 0xC]
0000127C  4EBA F7AC                jsr        [PC - 0x854 /* 00000A2A */]
00001280  4FEF 000C                lea.l      A7, [A7 + 0xC]
00001284  601E                     bra        +0x20 /* 000012A4 */
label00001286:
00001286  4A53                     tst.w      [A3]
00001288  661A                     bne        +0x1C /* 000012A4 */
0000128A  4A2E 0011                tst.b      [A6 + 0x11]
0000128E  6714                     beq        +0x16 /* 000012A4 */
00001290  558F                     subq.l     A7, 2
00001292  7002                     moveq.l    D0, 0x02
00001294  1F00                     move.b     -[A7], D0
00001296  487A 0018                pea.l      [PC + 0x18 /* 000012B0, value 0x15426974, pstring "BitTool alert strings" */]
0000129A  7209                     moveq.l    D1, 0x09
0000129C  3F01                     move.w     -[A7], D1
0000129E  4EAD 00DA                jsr        [A5 + 0xDA /* export_23, CODE:1 @ 00002ACA */]
000012A2  544F                     addq.w     A7, 2
label000012A4:
000012A4  1007                     move.b     D0, D7
000012A6  4CEE 1888 FFEC           movem.l    D3,D7,A3,A4, [A6 - 0x14]
000012AC  4E5E                     unlink     A6
000012AE  4E75                     rts
000012B0  1542 6974                move.b     [A2 + 0x6974], D2
000012B4  546F 6F6C                addq.w     [A7 + 0x6F6C], 2
000012B8  2061                     movea.l    A0, -[A1]
000012BA  6C65                     bge        +0x67 /* 00001321 */
000012BC  7274                     moveq.l    D1, 0x74
000012BE  2073 7472                movea.l    A0, [A3 + D7.w * 4 + 0x72]
000012C2  696E                     bvs        +0x70 /* 00001332 */
000012C4  6773                     beq        +0x75 /* 00001339 */
000012C6  0000 4E56                ori.b      D0, 0x56 /* 'V' */
// begin alternate branch 000012C8-000012CC
export_375:
fn000012C8:
000012C8  4E56 FFF0                link       A6, -0x0010
// end alternate branch 000012C8-000012CC
export_375: // at 000012C8 (misaligned)
fn000012C8: // (misaligned)
000012CA  FFF0                     .invalid   <<F/7/7>>
000012CC  48E7 1718                movem.l    -[A7], D3,D5,D6,D7,A3,A4
000012D0  1A2E 000F                move.b     D5, [A6 + 0xF]
000012D4  266E 0014                movea.l    A3, [A6 + 0x14]
000012D8  2053                     movea.l    A0, [A3]
000012DA  2868 0044                movea.l    A4, [A0 + 0x44]
000012DE  2D68 0048 FFFC           move.l     [A6 - 0x4], [A0 + 0x48]
000012E4  4AAE 0008                tst.l      [A6 + 0x8]
000012E8  670E                     beq        +0x10 /* 000012F8 */
000012EA  2054                     movea.l    A0, [A4]
000012EC  7000                     moveq.l    D0, 0x00
000012EE  1028 003B                move.b     D0, [A0 + 0x3B]
000012F2  0C40 0001                cmpi.w     D0, 0x1
000012F6  6606                     bne        +0x8 /* 000012FE */
label000012F8:
000012F8  7001                     moveq.l    D0, 0x01
000012FA  6000 0170                bra        +0x172 /* 0000146C */
label000012FE:
000012FE  4206                     clr.b      D6
00001300  422E FFFB                clr.b      [A6 - 0x5]
00001304  2054                     movea.l    A0, [A4]
00001306  4A28 003A                tst.b      [A0 + 0x3A]
0000130A  6718                     beq        +0x1A /* 00001324 */
0000130C  2F0B                     move.l     -[A7], A3
0000130E  486E FFFB                pea.l      [A6 - 0x5]
00001312  2F2E 0008                move.l     -[A7], [A6 + 0x8]
00001316  4EBA 17AA                jsr        [PC + 0x17AA /* 00002AC2 */]
0000131A  1C00                     move.b     D6, D0
0000131C  4FEF 000C                lea.l      A7, [A7 + 0xC]
00001320  6000 00AE                bra        +0xB0 /* 000013D0 */
label00001324:
00001324  4247                     clr.w      D7
00001326  6000 008E                bra        +0x90 /* 000013B6 */
label0000132A:
0000132A  48C7                     ext.l      D7
0000132C  206E 0008                movea.l    A0, [A6 + 0x8]
00001330  2050                     movea.l    A0, [A0]
label00001332:
00001332  2007                     move.l     D0, D7
00001334  E780                     asl        D0, 3
00001336  43EE FFF4                lea.l      A1, [A6 - 0xC]
0000133A  41F0 080A                lea.l      A0, [A0 + D0 + 0xA]
0000133E  22D8                     move.l     [A1]+, [A0]+
00001340  32D8                     move.w     [A1]+, [A0]+
00001342  41EE FFFA                lea.l      A0, [A6 - 0x6]
00001346  2F20                     move.l     -[A7], -[A0]
00001348  3F20                     move.w     -[A7], -[A0]
0000134A  206E FFFC                movea.l    A0, [A6 - 0x4]
0000134E  2050                     movea.l    A0, [A0]
00001350  2F28 0018                move.l     -[A7], [A0 + 0x18]
00001354  4EBA 1728                jsr        [PC + 0x1728 /* 00002A7E */]
00001358  4A00                     tst.b      D0
0000135A  4FEF 000A                lea.l      A7, [A7 + 0xA]
0000135E  6654                     bne        +0x56 /* 000013B4 */
00001360  204C                     movea.l    A0, A4
00001362  A029                     syscall    HLock
00001364  2054                     movea.l    A0, [A4]
00001366  2068 0034                movea.l    A0, [A0 + 0x34]
0000136A  A029                     syscall    HLock
0000136C  598F                     subq.l     A7, 4
0000136E  2054                     movea.l    A0, [A4]
00001370  2068 0034                movea.l    A0, [A0 + 0x34]
00001374  2F10                     move.l     -[A7], [A0]
00001376  4EAD 0752                jsr        [A5 + 0x752 /* export_230, CODE:3 @ 00003690 */]
0000137A  2054                     movea.l    A0, [A4]
0000137C  215F 0002                move.l     [A0 + 0x2], [A7]+
00001380  2053                     movea.l    A0, [A3]
00001382  2F08                     move.l     -[A7], A0
00001384  41EE FFFA                lea.l      A0, [A6 - 0x6]
00001388  2F20                     move.l     -[A7], -[A0]
0000138A  3F20                     move.w     -[A7], -[A0]
0000138C  2054                     movea.l    A0, [A4]
0000138E  4868 0002                pea.l      [A0 + 0x2]
00001392  4EBA FD56                jsr        [PC - 0x2AA /* 000010EA */]
00001396  4A00                     tst.b      D0
00001398  4FEF 000E                lea.l      A7, [A7 + 0xE]
0000139C  6704                     beq        +0x6 /* 000013A2 */
0000139E  7C01                     moveq.l    D6, 0x01
000013A0  6006                     bra        +0x8 /* 000013A8 */
label000013A2:
000013A2  1D7C 0001 FFFB           move.b     [A6 - 0x5], 0x1
label000013A8:
000013A8  2054                     movea.l    A0, [A4]
000013AA  2068 0034                movea.l    A0, [A0 + 0x34]
000013AE  A02A                     syscall    HUnlock
000013B0  204C                     movea.l    A0, A4
000013B2  A02A                     syscall    HUnlock
label000013B4:
000013B4  5247                     addq.w     D7, 1
label000013B6:
000013B6  206E 0008                movea.l    A0, [A6 + 0x8]
000013BA  2050                     movea.l    A0, [A0]
000013BC  BE68 0006                cmp.w      D7, [A0 + 0x6]
000013C0  6E0E                     bgt        +0x10 /* 000013D0 */
000013C2  4A2E FFFB                tst.b      [A6 - 0x5]
000013C6  6608                     bne        +0xA /* 000013D0 */
000013C8  2053                     movea.l    A0, [A3]
000013CA  4A50                     tst.w      [A0]
000013CC  6700 FF5C                beq        -0xA2 /* 0000132A */
label000013D0:
000013D0  4A2E FFFB                tst.b      [A6 - 0x5]
000013D4  6714                     beq        +0x16 /* 000013EA */
000013D6  558F                     subq.l     A7, 2
000013D8  7002                     moveq.l    D0, 0x02
000013DA  1F00                     move.b     -[A7], D0
000013DC  487A 0098                pea.l      [PC + 0x98 /* 00001476, value 0x15426974, pstring "BitTool alert strings" */]
000013E0  3F2E 0012                move.w     -[A7], [A6 + 0x12]
000013E4  4EAD 00DA                jsr        [A5 + 0xDA /* export_23, CODE:1 @ 00002ACA */]
000013E8  544F                     addq.w     A7, 2
label000013EA:
000013EA  7000                     moveq.l    D0, 0x00
000013EC  1005                     move.b     D0, D5
000013EE  4A80                     tst.l      D0
000013F0  4A2E FFFB                tst.b      [A6 - 0x5]
000013F4  57C3                     seq        D3
000013F6  4403                     neg.b      D3
000013F8  4883                     ext.w      D3
000013FA  8600                     or.b       D3, D0
000013FC  6744                     beq        +0x46 /* 00001442 */
000013FE  4A06                     tst.b      D6
00001400  6740                     beq        +0x42 /* 00001442 */
00001402  2053                     movea.l    A0, [A3]
00001404  4A50                     tst.w      [A0]
00001406  663A                     bne        +0x3C /* 00001442 */
00001408  2F2E FFFC                move.l     -[A7], [A6 - 0x4]
0000140C  4EAD 077A                jsr        [A5 + 0x77A /* export_235, CODE:3 @ 00003CBE */]
00001410  206E FFFC                movea.l    A0, [A6 - 0x4]
00001414  2050                     movea.l    A0, [A0]
00001416  2253                     movea.l    A1, [A3]
00001418  32A8 00A8                move.w     [A1], [A0 + 0xA8]
0000141C  2F0B                     move.l     -[A7], A3
0000141E  206E FFFC                movea.l    A0, [A6 - 0x4]
00001422  2050                     movea.l    A0, [A0]
00001424  2F28 0018                move.l     -[A7], [A0 + 0x18]
00001428  2053                     movea.l    A0, [A3]
0000142A  2068 004C                movea.l    A0, [A0 + 0x4C]
0000142E  2050                     movea.l    A0, [A0]
00001430  2F28 000C                move.l     -[A7], [A0 + 0xC]
00001434  4EBA F5F4                jsr        [PC - 0xA0C /* 00000A2A */]
00001438  2F0B                     move.l     -[A7], A3
0000143A  4EAD 0B2A                jsr        [A5 + 0xB2A /* export_353, CODE:9 @ 0000279A */]
0000143E  4FEF 0010                lea.l      A7, [A7 + 0x10]
label00001442:
00001442  7600                     moveq.l    D3, 0x00
00001444  7000                     moveq.l    D0, 0x00
00001446  1005                     move.b     D0, D5
00001448  2D43 FFF0                move.l     [A6 - 0x10], D3
0000144C  4A2E FFFB                tst.b      [A6 - 0x5]
00001450  57C3                     seq        D3
00001452  4403                     neg.b      D3
00001454  2203                     move.l     D1, D3
00001456  262E FFF0                move.l     D3, [A6 - 0x10]
0000145A  4881                     ext.w      D1
0000145C  8200                     or.b       D1, D0
0000145E  4A41                     tst.w      D1
00001460  6708                     beq        +0xA /* 0000146A */
00001462  2053                     movea.l    A0, [A3]
00001464  4A50                     tst.w      [A0]
00001466  6602                     bne        +0x4 /* 0000146A */
00001468  7601                     moveq.l    D3, 0x01
label0000146A:
0000146A  1003                     move.b     D0, D3
label0000146C:
0000146C  4CEE 18E8 FFD8           movem.l    D3,D5,D6,D7,A3,A4, [A6 - 0x28]
00001472  4E5E                     unlink     A6
00001474  4E75                     rts
00001476  1542 6974                move.b     [A2 + 0x6974], D2
0000147A  546F 6F6C                addq.w     [A7 + 0x6F6C], 2
0000147E  2061                     movea.l    A0, -[A1]
00001480  6C65                     bge        +0x67 /* 000014E7 */
00001482  7274                     moveq.l    D1, 0x74
00001484  2073 7472                movea.l    A0, [A3 + D7.w * 4 + 0x72]
00001488  696E                     bvs        +0x70 /* 000014F8 */
0000148A  6773                     beq        +0x75 /* 000014FF */
0000148C  0000 4E56                ori.b      D0, 0x56 /* 'V' */
// begin alternate branch 0000148E-00001492
fn0000148E:
0000148E  4E56 FFFC                link       A6, -0x0004
// end alternate branch 0000148E-00001492
fn0000148E: // (misaligned)
00001490  FFFC                     .invalid   <<F/7/7>>
00001492  2F0C                     move.l     -[A7], A4
00001494  286E 0008                movea.l    A4, [A6 + 0x8]
00001498  302C 000A                move.w     D0, [A4 + 0xA]
0000149C  906C 0006                sub.w      D0, [A4 + 0x6]
000014A0  3D40 FFFC                move.w     [A6 - 0x4], D0
000014A4  302C 000C                move.w     D0, [A4 + 0xC]
000014A8  906C 0008                sub.w      D0, [A4 + 0x8]
000014AC  3D40 FFFE                move.w     [A6 - 0x2], D0
000014B0  302C 0020                move.w     D0, [A4 + 0x20]
000014B4  48C0                     ext.l      D0
000014B6  2F00                     move.l     -[A7], D0
000014B8  2F2E FFFC                move.l     -[A7], [A6 - 0x4]
000014BC  4EBA 1112                jsr        [PC + 0x1112 /* 000025D0 */]
000014C0  223C 0000 7FFF           move.l     D1, 0x7FFF
000014C6  C280                     and.l      D1, D0
000014C8  302E FFFC                move.w     D0, [A6 - 0x4]
000014CC  48C0                     ext.l      D0
000014CE  C141                     exg        D0, D1
000014D0  4EAD 0762                jsr        [A5 + 0x762 /* export_232, CODE:3 @ 00003704 */]
000014D4  286E FFF8                movea.l    A4, [A6 - 0x8]
000014D8  4E5E                     unlink     A6
000014DA  4E75                     rts
fn000014DC:
000014DC  4E56 FFBA                link       A6, -0x0046
000014E0  48E7 0318                movem.l    -[A7], D6,D7,A3,A4
000014E4  286E 000C                movea.l    A4, [A6 + 0xC]
000014E8  2054                     movea.l    A0, [A4]
000014EA  2D68 003E FFBA           move.l     [A6 - 0x46], [A0 + 0x3E]
000014F0  2054                     movea.l    A0, [A4]
000014F2  43EE FFBE                lea.l      A1, [A6 - 0x42]
000014F6  5488                     addq.l     A0, 2
label000014F8:
000014F8  700B                     moveq.l    D0, 0x0B
label000014FA:
000014FA  22D8                     move.l     [A1]+, [A0]+
000014FC  51C8 FFFC                dbf        D0, -0x6 /* 000014FA */
00001500  32D8                     move.w     [A1]+, [A0]+
00001502  486E FFBE                pea.l      [A6 - 0x42]
00001506  4EBA FF86                jsr        [PC - 0x7A /* 0000148E */]
0000150A  2E00                     move.l     D7, D0
0000150C  A11E                     syscall    NewPtr, flags=1
0000150E  2648                     movea.l    A3, A0
00001510  3C38 0220                move.w     D6, [0x00000220 /* MemErr */]
00001514  584F                     addq.w     A7, 4
00001516  6600 0098                bne        +0x9A /* 000015B0 */
0000151A  2054                     movea.l    A0, [A4]
0000151C  2068 0034                movea.l    A0, [A0 + 0x34]
00001520  2050                     movea.l    A0, [A0]
00001522  224B                     movea.l    A1, A3
00001524  2007                     move.l     D0, D7
00001526  A02E                     syscall    BlockMove/BlockMoveData
00001528  2D4B FFBE                move.l     [A6 - 0x42], A3
0000152C  2D6E 0008 FFE8           move.l     [A6 - 0x18], [A6 + 0x8]
00001532  204C                     movea.l    A0, A4
00001534  A029                     syscall    HLock
00001536  2054                     movea.l    A0, [A4]
00001538  2068 0034                movea.l    A0, [A0 + 0x34]
0000153C  A029                     syscall    HLock
0000153E  598F                     subq.l     A7, 4
00001540  2054                     movea.l    A0, [A4]
00001542  2068 0034                movea.l    A0, [A0 + 0x34]
00001546  2F10                     move.l     -[A7], [A0]
00001548  4EAD 0752                jsr        [A5 + 0x752 /* export_230, CODE:3 @ 00003690 */]
0000154C  2054                     movea.l    A0, [A4]
0000154E  215F 0002                move.l     [A0 + 0x2], [A7]+
00001552  598F                     subq.l     A7, 4
00001554  AA32                     syscall    GetGDevice
00001556  2D5F FFF0                move.l     [A6 - 0x10], [A7]+
0000155A  206E FFBA                movea.l    A0, [A6 - 0x46]
0000155E  2050                     movea.l    A0, [A0]
00001560  2F28 019C                move.l     -[A7], [A0 + 0x19C]
00001564  AA31                     syscall    SetGDevice
00001566  486E FFBE                pea.l      [A6 - 0x42]
0000156A  2054                     movea.l    A0, [A4]
0000156C  4868 0002                pea.l      [A0 + 0x2]
00001570  486E FFC4                pea.l      [A6 - 0x3C]
00001574  4868 0008                pea.l      [A0 + 0x8]
00001578  7000                     moveq.l    D0, 0x00
0000157A  3F00                     move.w     -[A7], D0
0000157C  7200                     moveq.l    D1, 0x00
0000157E  2F01                     move.l     -[A7], D1
00001580  A8EC                     syscall    CopyBits
00001582  2F2E FFF0                move.l     -[A7], [A6 - 0x10]
00001586  AA31                     syscall    SetGDevice
00001588  486E FFF4                pea.l      [A6 - 0xC]
0000158C  AA19                     syscall    GetForeColor
0000158E  486E FFF4                pea.l      [A6 - 0xC]
00001592  AA14                     syscall    RGBForeColor
00001594  486E FFFA                pea.l      [A6 - 0x6]
00001598  AA1A                     syscall    GetBackColor
0000159A  486E FFFA                pea.l      [A6 - 0x6]
0000159E  AA15                     syscall    RGBBackColor
000015A0  204C                     movea.l    A0, A4
000015A2  A02A                     syscall    HUnlock
000015A4  2054                     movea.l    A0, [A4]
000015A6  2068 0034                movea.l    A0, [A0 + 0x34]
000015AA  A02A                     syscall    HUnlock
000015AC  204B                     movea.l    A0, A3
000015AE  A01F                     syscall    DisposPtr/DisposePtr
label000015B0:
000015B0  3006                     move.w     D0, D6
000015B2  4CEE 18C0 FFAA           movem.l    D6,D7,A3,A4, [A6 - 0x56]
000015B8  4E5E                     unlink     A6
000015BA  4E75                     rts
fn000015BC:
000015BC  4E56 0000                link       A6, 0
000015C0  48E7 0108                movem.l    -[A7], D7,A4
000015C4  286E 0008                movea.l    A4, [A6 + 0x8]
000015C8  4247                     clr.w      D7
000015CA  603A                     bra        +0x3C /* 00001606 */
label000015CC:
000015CC  48C7                     ext.l      D7
000015CE  2054                     movea.l    A0, [A4]
000015D0  2007                     move.l     D0, D7
000015D2  E780                     asl        D0, 3
000015D4  41F0 080A                lea.l      A0, [A0 + D0 + 0xA]
000015D8  43EE 000C                lea.l      A1, [A6 + 0xC]
000015DC  7002                     moveq.l    D0, 0x02
label000015DE:
000015DE  B149                     cmpm.w     [A0]+, [A1]+
000015E0  56C8 FFFC                dbne       D0, -0x6 /* 000015DE */
000015E4  661E                     bne        +0x20 /* 00001604 */
000015E6  48C7                     ext.l      D7
000015E8  2054                     movea.l    A0, [A4]
000015EA  2007                     move.l     D0, D7
000015EC  E780                     asl        D0, 3
000015EE  41F0 080A                lea.l      A0, [A0 + D0 + 0xA]
000015F2  43EE 0012                lea.l      A1, [A6 + 0x12]
000015F6  20D9                     move.l     [A0]+, [A1]+
000015F8  30D9                     move.w     [A0]+, [A1]+
000015FA  598F                     subq.l     A7, 4
000015FC  AA28                     syscall    GetCTSeed
000015FE  2054                     movea.l    A0, [A4]
00001600  209F                     move.l     [A0], [A7]+
00001602  600A                     bra        +0xC /* 0000160E */
label00001604:
00001604  5247                     addq.w     D7, 1
label00001606:
00001606  2054                     movea.l    A0, [A4]
00001608  BE68 0006                cmp.w      D7, [A0 + 0x6]
0000160C  6FBE                     ble        -0x40 /* 000015CC */
label0000160E:
0000160E  4CEE 1080 FFF8           movem.l    D7,A4, [A6 - 0x8]
00001614  4E5E                     unlink     A6
00001616  4E75                     rts
export_376:
00001618  4E56 FFE2                link       A6, -0x001E
0000161C  48E7 1118                movem.l    -[A7], D3,D7,A3,A4
00001620  286E 0014                movea.l    A4, [A6 + 0x14]
00001624  2054                     movea.l    A0, [A4]
00001626  2D68 0044 FFF6           move.l     [A6 - 0xA], [A0 + 0x44]
0000162C  2054                     movea.l    A0, [A4]
0000162E  2668 0048                movea.l    A3, [A0 + 0x48]
00001632  2053                     movea.l    A0, [A3]
00001634  2D68 0018 FFFA           move.l     [A6 - 0x6], [A0 + 0x18]
0000163A  7E01                     moveq.l    D7, 0x01
0000163C  2F0B                     move.l     -[A7], A3
0000163E  4EAD 07F2                jsr        [A5 + 0x7F2 /* export_250, CODE:3 @ 00003CA2 */]
00001642  2F0B                     move.l     -[A7], A3
00001644  4EAD 07CA                jsr        [A5 + 0x7CA /* export_245, CODE:3 @ 00003CA8 */]
00001648  206E FFF6                movea.l    A0, [A6 - 0xA]
0000164C  2050                     movea.l    A0, [A0]
0000164E  4A28 003B                tst.b      [A0 + 0x3B]
00001652  674E                     beq        +0x50 /* 000016A2 */
00001654  2D6E FFFA FFF2           move.l     [A6 - 0xE], [A6 - 0x6]
0000165A  558F                     subq.l     A7, 2
0000165C  486E FFF2                pea.l      [A6 - 0xE]
00001660  4EAD 06D2                jsr        [A5 + 0x6D2 /* export_214, CODE:3 @ 00003172 */]
00001664  3D5F FFFE                move.w     [A6 - 0x2], [A7]+
00001668  6600 0158                bne        +0x15A /* 000017C2 */
0000166C  41EE 0014                lea.l      A0, [A6 + 0x14]
00001670  2F20                     move.l     -[A7], -[A0]
00001672  3F20                     move.w     -[A7], -[A0]
00001674  41EE 000E                lea.l      A0, [A6 + 0xE]
00001678  2F20                     move.l     -[A7], -[A0]
0000167A  3F20                     move.w     -[A7], -[A0]
0000167C  2F2E FFF2                move.l     -[A7], [A6 - 0xE]
00001680  4EBA FF3A                jsr        [PC - 0xC6 /* 000015BC */]
00001684  2F2E FFF6                move.l     -[A7], [A6 - 0xA]
00001688  2F2E FFF2                move.l     -[A7], [A6 - 0xE]
0000168C  4EBA FE4E                jsr        [PC - 0x1B2 /* 000014DC */]
00001690  3D40 FFFE                move.w     [A6 - 0x2], D0
00001694  206E FFF2                movea.l    A0, [A6 - 0xE]
00001698  A023                     syscall    DisposHandle/DisposeHandle
0000169A  4FEF 0018                lea.l      A7, [A7 + 0x18]
0000169E  6000 0122                bra        +0x124 /* 000017C2 */
label000016A2:
000016A2  42AE FFEC                clr.l      [A6 - 0x14]
000016A6  426E FFEA                clr.w      [A6 - 0x16]
000016AA  3D7C FFFF FFF4           move.w     [A6 - 0xC], 0xFFFF
000016B0  3D7C FFFF FFF2           move.w     [A6 - 0xE], 0xFFFF
000016B6  3D7C FFFF FFF0           move.w     [A6 - 0x10], 0xFFFF
000016BC  2D6E FFFA FFE6           move.l     [A6 - 0x1A], [A6 - 0x6]
000016C2  558F                     subq.l     A7, 2
000016C4  486E FFE6                pea.l      [A6 - 0x1A]
000016C8  4EAD 06D2                jsr        [A5 + 0x6D2 /* export_214, CODE:3 @ 00003172 */]
000016CC  3D5F FFFE                move.w     [A6 - 0x2], [A7]+
000016D0  6600 00CE                bne        +0xD0 /* 000017A0 */
000016D4  41EE 0008                lea.l      A0, [A6 + 0x8]
000016D8  43EE FFEA                lea.l      A1, [A6 - 0x16]
000016DC  7002                     moveq.l    D0, 0x02
label000016DE:
000016DE  B149                     cmpm.w     [A0]+, [A1]+
000016E0  56C8 FFFC                dbne       D0, -0x6 /* 000016DE */
000016E4  6756                     beq        +0x58 /* 0000173C */
000016E6  41EE 0008                lea.l      A0, [A6 + 0x8]
000016EA  43EE FFF0                lea.l      A1, [A6 - 0x10]
000016EE  7002                     moveq.l    D0, 0x02
label000016F0:
000016F0  B149                     cmpm.w     [A0]+, [A1]+
000016F2  56C8 FFFC                dbne       D0, -0x6 /* 000016F0 */
000016F6  6744                     beq        +0x46 /* 0000173C */
000016F8  41EE 0014                lea.l      A0, [A6 + 0x14]
000016FC  2F20                     move.l     -[A7], -[A0]
000016FE  3F20                     move.w     -[A7], -[A0]
00001700  2F2E FFFA                move.l     -[A7], [A6 - 0x6]
00001704  4EBA 1378                jsr        [PC + 0x1378 /* 00002A7E */]
00001708  4A00                     tst.b      D0
0000170A  4FEF 000A                lea.l      A7, [A7 + 0xA]
0000170E  662C                     bne        +0x2E /* 0000173C */
00001710  41EE 0014                lea.l      A0, [A6 + 0x14]
00001714  2F20                     move.l     -[A7], -[A0]
00001716  3F20                     move.w     -[A7], -[A0]
00001718  41EE 000E                lea.l      A0, [A6 + 0xE]
0000171C  2F20                     move.l     -[A7], -[A0]
0000171E  3F20                     move.w     -[A7], -[A0]
00001720  2F2E FFFA                move.l     -[A7], [A6 - 0x6]
00001724  4EBA FE96                jsr        [PC - 0x16A /* 000015BC */]
00001728  2F0B                     move.l     -[A7], A3
0000172A  4EAD 077A                jsr        [A5 + 0x77A /* export_235, CODE:3 @ 00003CBE */]
0000172E  2053                     movea.l    A0, [A3]
00001730  3D68 00A8 FFFE           move.w     [A6 - 0x2], [A0 + 0xA8]
00001736  4FEF 0010                lea.l      A7, [A7 + 0x10]
0000173A  6064                     bra        +0x66 /* 000017A0 */
label0000173C:
0000173C  2D6E FFFA FFE2           move.l     [A6 - 0x1E], [A6 - 0x6]
00001742  558F                     subq.l     A7, 2
00001744  486E FFE2                pea.l      [A6 - 0x1E]
00001748  4EAD 06D2                jsr        [A5 + 0x6D2 /* export_214, CODE:3 @ 00003172 */]
0000174C  3D5F FFFE                move.w     [A6 - 0x2], [A7]+
00001750  664E                     bne        +0x50 /* 000017A0 */
00001752  41EE 0014                lea.l      A0, [A6 + 0x14]
00001756  2F20                     move.l     -[A7], -[A0]
00001758  3F20                     move.w     -[A7], -[A0]
0000175A  41EE 000E                lea.l      A0, [A6 + 0xE]
0000175E  2F20                     move.l     -[A7], -[A0]
00001760  3F20                     move.w     -[A7], -[A0]
00001762  2F2E FFE2                move.l     -[A7], [A6 - 0x1E]
00001766  4EBA FE54                jsr        [PC - 0x1AC /* 000015BC */]
0000176A  2F0C                     move.l     -[A7], A4
0000176C  486E FFFE                pea.l      [A6 - 0x2]
00001770  7001                     moveq.l    D0, 0x01
00001772  2F00                     move.l     -[A7], D0
00001774  41EE 0014                lea.l      A0, [A6 + 0x14]
00001778  2F20                     move.l     -[A7], -[A0]
0000177A  3F20                     move.w     -[A7], -[A0]
0000177C  4EBA FA18                jsr        [PC - 0x5E8 /* 00001196 */]
00001780  1E00                     move.b     D7, D0
00001782  4FEF 0022                lea.l      A7, [A7 + 0x22]
00001786  6712                     beq        +0x14 /* 0000179A */
00001788  2F2E FFF6                move.l     -[A7], [A6 - 0xA]
0000178C  2F2E FFE2                move.l     -[A7], [A6 - 0x1E]
00001790  4EBA FD4A                jsr        [PC - 0x2B6 /* 000014DC */]
00001794  3D40 FFFE                move.w     [A6 - 0x2], D0
00001798  504F                     addq.w     A7, 8
label0000179A:
0000179A  206E FFE2                movea.l    A0, [A6 - 0x1E]
0000179E  A023                     syscall    DisposHandle/DisposeHandle
label000017A0:
000017A0  4A6E FFFE                tst.w      [A6 - 0x2]
000017A4  6616                     bne        +0x18 /* 000017BC */
000017A6  2054                     movea.l    A0, [A4]
000017A8  2F28 0074                move.l     -[A7], [A0 + 0x74]
000017AC  4EAD 0ADA                jsr        [A5 + 0xADA /* export_343, CODE:9 @ 00000044 */]
000017B0  2054                     movea.l    A0, [A4]
000017B2  216E FFE6 0074           move.l     [A0 + 0x74], [A6 - 0x1A]
000017B8  584F                     addq.w     A7, 4
000017BA  6006                     bra        +0x8 /* 000017C2 */
label000017BC:
000017BC  206E FFE6                movea.l    A0, [A6 - 0x1A]
000017C0  A023                     syscall    DisposHandle/DisposeHandle
label000017C2:
000017C2  2F0B                     move.l     -[A7], A3
000017C4  4EAD 07EA                jsr        [A5 + 0x7EA /* export_249, CODE:3 @ 00003CA4 */]
000017C8  4A6E FFFE                tst.w      [A6 - 0x2]
000017CC  6642                     bne        +0x44 /* 00001810 */
000017CE  4A07                     tst.b      D7
000017D0  673E                     beq        +0x40 /* 00001810 */
000017D2  204B                     movea.l    A0, A3
000017D4  A029                     syscall    HLock
000017D6  2053                     movea.l    A0, [A3]
000017D8  4868 004C                pea.l      [A0 + 0x4C]
000017DC  A928                     syscall    InvalRect
000017DE  204B                     movea.l    A0, A3
000017E0  A02A                     syscall    HUnlock
000017E2  2654                     movea.l    A3, [A4]
000017E4  41EB 0050                lea.l      A0, [A3 + 0x50]
000017E8  43EB 0078                lea.l      A1, [A3 + 0x78]
000017EC  22D8                     move.l     [A1]+, [A0]+
000017EE  32D8                     move.w     [A1]+, [A0]+
000017F0  41EB 007E                lea.l      A0, [A3 + 0x7E]
000017F4  43EB 0056                lea.l      A1, [A3 + 0x56]
000017F8  20D9                     move.l     [A0]+, [A1]+
000017FA  30D9                     move.w     [A0]+, [A1]+
000017FC  2F2E FFF6                move.l     -[A7], [A6 - 0xA]
00001800  4EAD 0B1A                jsr        [A5 + 0xB1A /* export_351, CODE:9 @ 000021FC */]
00001804  2054                     movea.l    A0, [A4]
00001806  317C 0018 0072           move.w     [A0 + 0x72], 0x18
0000180C  584F                     addq.w     A7, 4
0000180E  6006                     bra        +0x8 /* 00001816 */
label00001810:
00001810  2054                     movea.l    A0, [A4]
00001812  30AE FFFE                move.w     [A0], [A6 - 0x2]
label00001816:
00001816  4A6E FFFE                tst.w      [A6 - 0x2]
0000181A  57C3                     seq        D3
0000181C  4403                     neg.b      D3
0000181E  4883                     ext.w      D3
00001820  7000                     moveq.l    D0, 0x00
00001822  1007                     move.b     D0, D7
00001824  4A80                     tst.l      D0
00001826  C003                     and.b      D0, D3
00001828  4CEE 1888 FFD2           movem.l    D3,D7,A3,A4, [A6 - 0x2E]
0000182E  4E5E                     unlink     A6
00001830  4E75                     rts
fn00001832:
00001832  4E56 FFFA                link       A6, -0x0006
00001836  48E7 0108                movem.l    -[A7], D7,A4
0000183A  286E 0008                movea.l    A4, [A6 + 0x8]
0000183E  598F                     subq.l     A7, 4
00001840  2F0C                     move.l     -[A7], A4
00001842  AA33                     syscall    Color2Index
00001844  2E17                     move.l     D7, [A7]
00001846  486E FFFA                pea.l      [A6 - 0x6]
0000184A  AA34                     syscall    Index2Color
0000184C  41EE FFFA                lea.l      A0, [A6 - 0x6]
00001850  224C                     movea.l    A1, A4
00001852  7002                     moveq.l    D0, 0x02
label00001854:
00001854  B149                     cmpm.w     [A0]+, [A1]+
00001856  56C8 FFFC                dbne       D0, -0x6 /* 00001854 */
0000185A  670E                     beq        +0x10 /* 0000186A */
0000185C  41EE FFFA                lea.l      A0, [A6 - 0x6]
00001860  224C                     movea.l    A1, A4
00001862  22D8                     move.l     [A1]+, [A0]+
00001864  32D8                     move.w     [A1]+, [A0]+
00001866  7001                     moveq.l    D0, 0x01
00001868  6002                     bra        +0x4 /* 0000186C */
label0000186A:
0000186A  7000                     moveq.l    D0, 0x00
label0000186C:
0000186C  4CEE 1080 FFF2           movem.l    D7,A4, [A6 - 0xE]
00001872  4E5E                     unlink     A6
00001874  4E75                     rts
fn00001876:
00001876  4E56 FFD8                link       A6, -0x0028
0000187A  48E7 0F38                movem.l    -[A7], D4,D5,D6,D7,A2,A3,A4
0000187E  266E 0008                movea.l    A3, [A6 + 0x8]
00001882  2053                     movea.l    A0, [A3]
00001884  2D68 0044 FFF4           move.l     [A6 - 0xC], [A0 + 0x44]
0000188A  2053                     movea.l    A0, [A3]
0000188C  2068 0048                movea.l    A0, [A0 + 0x48]
00001890  2D48 FFF8                move.l     [A6 - 0x8], A0
00001894  2050                     movea.l    A0, [A0]
00001896  2868 0018                movea.l    A4, [A0 + 0x18]
0000189A  2053                     movea.l    A0, [A3]
0000189C  2D48 FFFC                move.l     [A6 - 0x4], A0
000018A0  2248                     movea.l    A1, A0
000018A2  41E8 0050                lea.l      A0, [A0 + 0x50]
000018A6  45E9 0078                lea.l      A2, [A1 + 0x78]
000018AA  24D8                     move.l     [A2]+, [A0]+
000018AC  34D8                     move.w     [A2]+, [A0]+
000018AE  206E FFFC                movea.l    A0, [A6 - 0x4]
000018B2  2248                     movea.l    A1, A0
000018B4  43E9 007E                lea.l      A1, [A1 + 0x7E]
000018B8  41E8 0056                lea.l      A0, [A0 + 0x56]
000018BC  22D8                     move.l     [A1]+, [A0]+
000018BE  32D8                     move.w     [A1]+, [A0]+
000018C0  2F2E FFF8                move.l     -[A7], [A6 - 0x8]
000018C4  4EAD 07F2                jsr        [A5 + 0x7F2 /* export_250, CODE:3 @ 00003CA2 */]
000018C8  2F2E FFF8                move.l     -[A7], [A6 - 0x8]
000018CC  4EAD 07CA                jsr        [A5 + 0x7CA /* export_245, CODE:3 @ 00003CA8 */]
000018D0  2053                     movea.l    A0, [A3]
000018D2  2F28 0074                move.l     -[A7], [A0 + 0x74]
000018D6  4EAD 0ADA                jsr        [A5 + 0xADA /* export_343, CODE:9 @ 00000044 */]
000018DA  2053                     movea.l    A0, [A3]
000018DC  7000                     moveq.l    D0, 0x00
000018DE  2140 0074                move.l     [A0 + 0x74], D0
000018E2  2053                     movea.l    A0, [A3]
000018E4  214C 0074                move.l     [A0 + 0x74], A4
000018E8  558F                     subq.l     A7, 2
000018EA  2053                     movea.l    A0, [A3]
000018EC  4868 0074                pea.l      [A0 + 0x74]
000018F0  4EAD 06D2                jsr        [A5 + 0x6D2 /* export_214, CODE:3 @ 00003172 */]
000018F4  381F                     move.w     D4, [A7]+
000018F6  584F                     addq.w     A7, 4
000018F8  6600 027E                bne        +0x280 /* 00001B78 */
000018FC  2053                     movea.l    A0, [A3]
000018FE  2068 004C                movea.l    A0, [A0 + 0x4C]
00001902  2050                     movea.l    A0, [A0]
00001904  2D68 000C FFDE           move.l     [A6 - 0x22], [A0 + 0xC]
0000190A  598F                     subq.l     A7, 4
0000190C  2F0C                     move.l     -[A7], A4
0000190E  4EAD 050A                jsr        [A5 + 0x50A /* export_157, CODE:3 @ 00002510 */]
00001912  201F                     move.l     D0, [A7]+
00001914  5180                     subq.l     D0, 8
00001916  7208                     moveq.l    D1, 0x08
00001918  4EAD 076A                jsr        [A5 + 0x76A /* export_233, CODE:3 @ 0000372A */]
0000191C  3E00                     move.w     D7, D0
0000191E  48C7                     ext.l      D7
00001920  2A07                     move.l     D5, D7
00001922  5385                     subq.l     D5, 1
00001924  42AE FFE4                clr.l      [A6 - 0x1C]
00001928  426E FFE2                clr.w      [A6 - 0x1E]
0000192C  3D7C FFFF FFEC           move.w     [A6 - 0x14], 0xFFFF
00001932  3D7C FFFF FFEA           move.w     [A6 - 0x16], 0xFFFF
00001938  3D7C FFFF FFE8           move.w     [A6 - 0x18], 0xFFFF
0000193E  4247                     clr.w      D7
00001940  600E                     bra        +0x10 /* 00001950 */
label00001942:
00001942  48C7                     ext.l      D7
00001944  2054                     movea.l    A0, [A4]
00001946  2007                     move.l     D0, D7
00001948  E780                     asl        D0, 3
0000194A  3187 0808                move.w     [A0 + D0 + 0x8], D7
0000194E  5247                     addq.w     D7, 1
label00001950:
00001950  BA47                     cmp.w      D5, D7
00001952  6CEE                     bge        -0x10 /* 00001942 */
00001954  2054                     movea.l    A0, [A4]
00001956  41E8 000A                lea.l      A0, [A0 + 0xA]
0000195A  43EE FFE8                lea.l      A1, [A6 - 0x18]
0000195E  20D9                     move.l     [A0]+, [A1]+
00001960  30D9                     move.w     [A0]+, [A1]+
00001962  4246                     clr.w      D6
00001964  7E01                     moveq.l    D7, 0x01
00001966  6068                     bra        +0x6A /* 000019D0 */
label00001968:
00001968  48C6                     ext.l      D6
0000196A  206E FFDE                movea.l    A0, [A6 - 0x22]
0000196E  2050                     movea.l    A0, [A0]
00001970  2006                     move.l     D0, D6
00001972  E780                     asl        D0, 3
00001974  43EE FFD8                lea.l      A1, [A6 - 0x28]
00001978  41F0 080A                lea.l      A0, [A0 + D0 + 0xA]
0000197C  22D8                     move.l     [A1]+, [A0]+
0000197E  32D8                     move.w     [A1]+, [A0]+
00001980  48C7                     ext.l      D7
00001982  2054                     movea.l    A0, [A4]
00001984  2007                     move.l     D0, D7
00001986  E780                     asl        D0, 3
00001988  41F0 080A                lea.l      A0, [A0 + D0 + 0xA]
0000198C  43EE FFD8                lea.l      A1, [A6 - 0x28]
00001990  20D9                     move.l     [A0]+, [A1]+
00001992  30D9                     move.w     [A0]+, [A1]+
00001994  41EE FFD8                lea.l      A0, [A6 - 0x28]
00001998  43EE FFE8                lea.l      A1, [A6 - 0x18]
0000199C  7002                     moveq.l    D0, 0x02
label0000199E:
0000199E  B149                     cmpm.w     [A0]+, [A1]+
000019A0  56C8 FFFC                dbne       D0, -0x6 /* 0000199E */
000019A4  6728                     beq        +0x2A /* 000019CE */
000019A6  41EE FFD8                lea.l      A0, [A6 - 0x28]
000019AA  43EE FFE2                lea.l      A1, [A6 - 0x1E]
000019AE  7002                     moveq.l    D0, 0x02
label000019B0:
000019B0  B149                     cmpm.w     [A0]+, [A1]+
000019B2  56C8 FFFC                dbne       D0, -0x6 /* 000019B0 */
000019B6  6716                     beq        +0x18 /* 000019CE */
000019B8  3007                     move.w     D0, D7
000019BA  5247                     addq.w     D7, 1
000019BC  48C0                     ext.l      D0
000019BE  2054                     movea.l    A0, [A4]
000019C0  E780                     asl        D0, 3
000019C2  41F0 080A                lea.l      A0, [A0 + D0 + 0xA]
000019C6  43EE FFD8                lea.l      A1, [A6 - 0x28]
000019CA  20D9                     move.l     [A0]+, [A1]+
000019CC  30D9                     move.w     [A0]+, [A1]+
label000019CE:
000019CE  5246                     addq.w     D6, 1
label000019D0:
000019D0  206E FFDE                movea.l    A0, [A6 - 0x22]
000019D4  2050                     movea.l    A0, [A0]
000019D6  BC68 0006                cmp.w      D6, [A0 + 0x6]
000019DA  6E04                     bgt        +0x6 /* 000019E0 */
000019DC  BA47                     cmp.w      D5, D7
000019DE  6E88                     bgt        -0x76 /* 00001968 */
label000019E0:
000019E0  48C7                     ext.l      D7
000019E2  2054                     movea.l    A0, [A4]
000019E4  2007                     move.l     D0, D7
000019E6  E780                     asl        D0, 3
000019E8  3185 0808                move.w     [A0 + D0 + 0x8], D5
000019EC  48C7                     ext.l      D7
000019EE  2054                     movea.l    A0, [A4]
000019F0  2007                     move.l     D0, D7
000019F2  E780                     asl        D0, 3
000019F4  41F0 080A                lea.l      A0, [A0 + D0 + 0xA]
000019F8  43EE FFE2                lea.l      A1, [A6 - 0x1E]
000019FC  20D9                     move.l     [A0]+, [A1]+
000019FE  30D9                     move.w     [A0]+, [A1]+
00001A00  48C5                     ext.l      D5
00001A02  2054                     movea.l    A0, [A4]
00001A04  2005                     move.l     D0, D5
00001A06  E780                     asl        D0, 3
00001A08  3187 0808                move.w     [A0 + D0 + 0x8], D7
00001A0C  2054                     movea.l    A0, [A4]
00001A0E  3147 0006                move.w     [A0 + 0x6], D7
00001A12  598F                     subq.l     A7, 4
00001A14  AA28                     syscall    GetCTSeed
00001A16  2054                     movea.l    A0, [A4]
00001A18  209F                     move.l     [A0], [A7]+
00001A1A  2F2E FFF8                move.l     -[A7], [A6 - 0x8]
00001A1E  4EAD 077A                jsr        [A5 + 0x77A /* export_235, CODE:3 @ 00003CBE */]
00001A22  206E FFF8                movea.l    A0, [A6 - 0x8]
00001A26  2050                     movea.l    A0, [A0]
00001A28  3828 00A8                move.w     D4, [A0 + 0xA8]
00001A2C  6612                     bne        +0x14 /* 00001A40 */
00001A2E  2F2E FFF4                move.l     -[A7], [A6 - 0xC]
00001A32  2053                     movea.l    A0, [A3]
00001A34  2F28 0074                move.l     -[A7], [A0 + 0x74]
00001A38  4EBA FAA2                jsr        [PC - 0x55E /* 000014DC */]
00001A3C  3800                     move.w     D4, D0
00001A3E  504F                     addq.w     A7, 8
label00001A40:
00001A40  4A44                     tst.w      D4
00001A42  665A                     bne        +0x5C /* 00001A9E */
00001A44  206E FFF4                movea.l    A0, [A6 - 0xC]
00001A48  A029                     syscall    HLock
00001A4A  206E FFF4                movea.l    A0, [A6 - 0xC]
00001A4E  2050                     movea.l    A0, [A0]
00001A50  2068 0034                movea.l    A0, [A0 + 0x34]
00001A54  A029                     syscall    HLock
00001A56  598F                     subq.l     A7, 4
00001A58  206E FFF4                movea.l    A0, [A6 - 0xC]
00001A5C  2050                     movea.l    A0, [A0]
00001A5E  2068 0034                movea.l    A0, [A0 + 0x34]
00001A62  2F10                     move.l     -[A7], [A0]
00001A64  4EAD 0752                jsr        [A5 + 0x752 /* export_230, CODE:3 @ 00003690 */]
00001A68  206E FFF4                movea.l    A0, [A6 - 0xC]
00001A6C  2050                     movea.l    A0, [A0]
00001A6E  215F 0002                move.l     [A0 + 0x2], [A7]+
00001A72  2053                     movea.l    A0, [A3]
00001A74  2F08                     move.l     -[A7], A0
00001A76  7001                     moveq.l    D0, 0x01
00001A78  2F00                     move.l     -[A7], D0
00001A7A  206E FFF4                movea.l    A0, [A6 - 0xC]
00001A7E  2050                     movea.l    A0, [A0]
00001A80  4868 0002                pea.l      [A0 + 0x2]
00001A84  4EBA 0F36                jsr        [PC + 0xF36 /* 000029BC */]
00001A88  206E FFF4                movea.l    A0, [A6 - 0xC]
00001A8C  2050                     movea.l    A0, [A0]
00001A8E  2068 0034                movea.l    A0, [A0 + 0x34]
00001A92  A02A                     syscall    HUnlock
00001A94  206E FFF4                movea.l    A0, [A6 - 0xC]
00001A98  A02A                     syscall    HUnlock
00001A9A  4FEF 000C                lea.l      A7, [A7 + 0xC]
label00001A9E:
00001A9E  598F                     subq.l     A7, 4
00001AA0  AA32                     syscall    GetGDevice
00001AA2  285F                     movea.l    A4, [A7]+
00001AA4  2053                     movea.l    A0, [A3]
00001AA6  43EE FFEE                lea.l      A1, [A6 - 0x12]
00001AAA  41E8 0050                lea.l      A0, [A0 + 0x50]
00001AAE  22D8                     move.l     [A1]+, [A0]+
00001AB0  32D8                     move.w     [A1]+, [A0]+
00001AB2  206E FFF8                movea.l    A0, [A6 - 0x8]
00001AB6  2050                     movea.l    A0, [A0]
00001AB8  2F28 019C                move.l     -[A7], [A0 + 0x19C]
00001ABC  AA31                     syscall    SetGDevice
00001ABE  486E FFEE                pea.l      [A6 - 0x12]
00001AC2  4EBA FD6E                jsr        [PC - 0x292 /* 00001832 */]
00001AC6  1E00                     move.b     D7, D0
00001AC8  2F0C                     move.l     -[A7], A4
00001ACA  AA31                     syscall    SetGDevice
00001ACC  4A07                     tst.b      D7
00001ACE  584F                     addq.w     A7, 4
00001AD0  6718                     beq        +0x1A /* 00001AEA */
00001AD2  2F0B                     move.l     -[A7], A3
00001AD4  41EE FFF4                lea.l      A0, [A6 - 0xC]
00001AD8  2F20                     move.l     -[A7], -[A0]
00001ADA  3F20                     move.w     -[A7], -[A0]
00001ADC  4EBA 0230                jsr        [PC + 0x230 /* 00001D0E */]
00001AE0  2F0B                     move.l     -[A7], A3
00001AE2  4EAD 0B32                jsr        [A5 + 0xB32 /* export_354, CODE:9 @ 000027DA */]
00001AE6  4FEF 000E                lea.l      A7, [A7 + 0xE]
label00001AEA:
00001AEA  2053                     movea.l    A0, [A3]
00001AEC  43EE FFEE                lea.l      A1, [A6 - 0x12]
00001AF0  41E8 0056                lea.l      A0, [A0 + 0x56]
00001AF4  22D8                     move.l     [A1]+, [A0]+
00001AF6  32D8                     move.w     [A1]+, [A0]+
00001AF8  206E FFF8                movea.l    A0, [A6 - 0x8]
00001AFC  2050                     movea.l    A0, [A0]
00001AFE  2F28 019C                move.l     -[A7], [A0 + 0x19C]
00001B02  AA31                     syscall    SetGDevice
00001B04  486E FFEE                pea.l      [A6 - 0x12]
00001B08  4EBA FD28                jsr        [PC - 0x2D8 /* 00001832 */]
00001B0C  1E00                     move.b     D7, D0
00001B0E  2F0C                     move.l     -[A7], A4
00001B10  AA31                     syscall    SetGDevice
00001B12  4A07                     tst.b      D7
00001B14  584F                     addq.w     A7, 4
00001B16  6712                     beq        +0x14 /* 00001B2A */
00001B18  2F0B                     move.l     -[A7], A3
00001B1A  41EE FFF4                lea.l      A0, [A6 - 0xC]
00001B1E  2F20                     move.l     -[A7], -[A0]
00001B20  3F20                     move.w     -[A7], -[A0]
00001B22  4EBA 02B0                jsr        [PC + 0x2B0 /* 00001DD4 */]
00001B26  4FEF 000A                lea.l      A7, [A7 + 0xA]
label00001B2A:
00001B2A  4A44                     tst.w      D4
00001B2C  6620                     bne        +0x22 /* 00001B4E */
00001B2E  2F0B                     move.l     -[A7], A3
00001B30  206E FFF8                movea.l    A0, [A6 - 0x8]
00001B34  2050                     movea.l    A0, [A0]
00001B36  2F28 0018                move.l     -[A7], [A0 + 0x18]
00001B3A  2053                     movea.l    A0, [A3]
00001B3C  2068 004C                movea.l    A0, [A0 + 0x4C]
00001B40  2050                     movea.l    A0, [A0]
00001B42  2F28 000C                move.l     -[A7], [A0 + 0xC]
00001B46  4EBA EEE2                jsr        [PC - 0x111E /* 00000A2A */]
00001B4A  4FEF 000C                lea.l      A7, [A7 + 0xC]
label00001B4E:
00001B4E  206E FFF8                movea.l    A0, [A6 - 0x8]
00001B52  A029                     syscall    HLock
00001B54  206E FFF8                movea.l    A0, [A6 - 0x8]
00001B58  2050                     movea.l    A0, [A0]
00001B5A  4868 004C                pea.l      [A0 + 0x4C]
00001B5E  A928                     syscall    InvalRect
00001B60  206E FFF8                movea.l    A0, [A6 - 0x8]
00001B64  A02A                     syscall    HUnlock
00001B66  2F2E FFF4                move.l     -[A7], [A6 - 0xC]
00001B6A  4EAD 0B1A                jsr        [A5 + 0xB1A /* export_351, CODE:9 @ 000021FC */]
00001B6E  2053                     movea.l    A0, [A3]
00001B70  317C 001A 0072           move.w     [A0 + 0x72], 0x1A
00001B76  584F                     addq.w     A7, 4
label00001B78:
00001B78  2053                     movea.l    A0, [A3]
00001B7A  3084                     move.w     [A0], D4
00001B7C  2F2E FFF8                move.l     -[A7], [A6 - 0x8]
00001B80  4EAD 07EA                jsr        [A5 + 0x7EA /* export_249, CODE:3 @ 00003CA4 */]
00001B84  4CEE 1CF0 FFBC           movem.l    D4,D5,D6,D7,A2,A3,A4, [A6 - 0x44]
00001B8A  4E5E                     unlink     A6
00001B8C  4E75                     rts
fn00001B8E:
00001B8E  4E56 FFE2                link       A6, -0x001E
00001B92  48E7 0338                movem.l    -[A7], D6,D7,A2,A3,A4
00001B96  266E 0008                movea.l    A3, [A6 + 0x8]
00001B9A  2053                     movea.l    A0, [A3]
00001B9C  2D68 0044 FFE6           move.l     [A6 - 0x1A], [A0 + 0x44]
00001BA2  2053                     movea.l    A0, [A3]
00001BA4  2868 0048                movea.l    A4, [A0 + 0x48]
00001BA8  2054                     movea.l    A0, [A4]
00001BAA  2D68 0018 FFEA           move.l     [A6 - 0x16], [A0 + 0x18]
00001BB0  2053                     movea.l    A0, [A3]
00001BB2  2068 004C                movea.l    A0, [A0 + 0x4C]
00001BB6  2050                     movea.l    A0, [A0]
00001BB8  2D68 000C FFEE           move.l     [A6 - 0x12], [A0 + 0xC]
00001BBE  2053                     movea.l    A0, [A3]
00001BC0  2D48 FFFC                move.l     [A6 - 0x4], A0
00001BC4  2248                     movea.l    A1, A0
00001BC6  41E8 0050                lea.l      A0, [A0 + 0x50]
00001BCA  45E9 0078                lea.l      A2, [A1 + 0x78]
00001BCE  24D8                     move.l     [A2]+, [A0]+
00001BD0  34D8                     move.w     [A2]+, [A0]+
00001BD2  206E FFFC                movea.l    A0, [A6 - 0x4]
00001BD6  2248                     movea.l    A1, A0
00001BD8  43E9 007E                lea.l      A1, [A1 + 0x7E]
00001BDC  41E8 0056                lea.l      A0, [A0 + 0x56]
00001BE0  22D8                     move.l     [A1]+, [A0]+
00001BE2  32D8                     move.w     [A1]+, [A0]+
00001BE4  2F0C                     move.l     -[A7], A4
00001BE6  4EAD 07F2                jsr        [A5 + 0x7F2 /* export_250, CODE:3 @ 00003CA2 */]
00001BEA  2F0C                     move.l     -[A7], A4
00001BEC  4EAD 07CA                jsr        [A5 + 0x7CA /* export_245, CODE:3 @ 00003CA8 */]
00001BF0  2054                     movea.l    A0, [A4]
00001BF2  216E FFEE 0018           move.l     [A0 + 0x18], [A6 - 0x12]
00001BF8  2F0C                     move.l     -[A7], A4
00001BFA  4EAD 077A                jsr        [A5 + 0x77A /* export_235, CODE:3 @ 00003CBE */]
00001BFE  2054                     movea.l    A0, [A4]
00001C00  3E28 00A8                move.w     D7, [A0 + 0xA8]
00001C04  6634                     bne        +0x36 /* 00001C3A */
00001C06  206E FFE6                movea.l    A0, [A6 - 0x1A]
00001C0A  2050                     movea.l    A0, [A0]
00001C0C  2D68 002C FFE2           move.l     [A6 - 0x1E], [A0 + 0x2C]
00001C12  206E FFE6                movea.l    A0, [A6 - 0x1A]
00001C16  2050                     movea.l    A0, [A0]
00001C18  216E FFEE 002C           move.l     [A0 + 0x2C], [A6 - 0x12]
00001C1E  2F2E FFE6                move.l     -[A7], [A6 - 0x1A]
00001C22  2F2E FFEA                move.l     -[A7], [A6 - 0x16]
00001C26  4EBA F8B4                jsr        [PC - 0x74C /* 000014DC */]
00001C2A  3E00                     move.w     D7, D0
00001C2C  206E FFE6                movea.l    A0, [A6 - 0x1A]
00001C30  2050                     movea.l    A0, [A0]
00001C32  216E FFE2 002C           move.l     [A0 + 0x2C], [A6 - 0x1E]
00001C38  504F                     addq.w     A7, 8
label00001C3A:
00001C3A  598F                     subq.l     A7, 4
00001C3C  AA32                     syscall    GetGDevice
00001C3E  2D5F FFF2                move.l     [A6 - 0xE], [A7]+
00001C42  2053                     movea.l    A0, [A3]
00001C44  43EE FFF6                lea.l      A1, [A6 - 0xA]
00001C48  41E8 0050                lea.l      A0, [A0 + 0x50]
00001C4C  22D8                     move.l     [A1]+, [A0]+
00001C4E  32D8                     move.w     [A1]+, [A0]+
00001C50  2054                     movea.l    A0, [A4]
00001C52  2F28 019C                move.l     -[A7], [A0 + 0x19C]
00001C56  AA31                     syscall    SetGDevice
00001C58  486E FFF6                pea.l      [A6 - 0xA]
00001C5C  4EBA FBD4                jsr        [PC - 0x42C /* 00001832 */]
00001C60  1C00                     move.b     D6, D0
00001C62  2F2E FFF2                move.l     -[A7], [A6 - 0xE]
00001C66  AA31                     syscall    SetGDevice
00001C68  4A06                     tst.b      D6
00001C6A  584F                     addq.w     A7, 4
00001C6C  6718                     beq        +0x1A /* 00001C86 */
00001C6E  2F0B                     move.l     -[A7], A3
00001C70  41EE FFFC                lea.l      A0, [A6 - 0x4]
00001C74  2F20                     move.l     -[A7], -[A0]
00001C76  3F20                     move.w     -[A7], -[A0]
00001C78  4EBA 0094                jsr        [PC + 0x94 /* 00001D0E */]
00001C7C  2F0B                     move.l     -[A7], A3
00001C7E  4EAD 0B32                jsr        [A5 + 0xB32 /* export_354, CODE:9 @ 000027DA */]
00001C82  4FEF 000E                lea.l      A7, [A7 + 0xE]
label00001C86:
00001C86  2053                     movea.l    A0, [A3]
00001C88  43EE FFF6                lea.l      A1, [A6 - 0xA]
00001C8C  41E8 0056                lea.l      A0, [A0 + 0x56]
00001C90  22D8                     move.l     [A1]+, [A0]+
00001C92  32D8                     move.w     [A1]+, [A0]+
00001C94  2054                     movea.l    A0, [A4]
00001C96  2F28 019C                move.l     -[A7], [A0 + 0x19C]
00001C9A  AA31                     syscall    SetGDevice
00001C9C  486E FFF6                pea.l      [A6 - 0xA]
00001CA0  4EBA FB90                jsr        [PC - 0x470 /* 00001832 */]
00001CA4  1C00                     move.b     D6, D0
00001CA6  2F2E FFF2                move.l     -[A7], [A6 - 0xE]
00001CAA  AA31                     syscall    SetGDevice
00001CAC  4A06                     tst.b      D6
00001CAE  584F                     addq.w     A7, 4
00001CB0  6712                     beq        +0x14 /* 00001CC4 */
00001CB2  2F0B                     move.l     -[A7], A3
00001CB4  41EE FFFC                lea.l      A0, [A6 - 0x4]
00001CB8  2F20                     move.l     -[A7], -[A0]
00001CBA  3F20                     move.w     -[A7], -[A0]
00001CBC  4EBA 0116                jsr        [PC + 0x116 /* 00001DD4 */]
00001CC0  4FEF 000A                lea.l      A7, [A7 + 0xA]
label00001CC4:
00001CC4  2054                     movea.l    A0, [A4]
00001CC6  216E FFEA 0018           move.l     [A0 + 0x18], [A6 - 0x16]
00001CCC  2F0C                     move.l     -[A7], A4
00001CCE  4EAD 077A                jsr        [A5 + 0x77A /* export_235, CODE:3 @ 00003CBE */]
00001CD2  2054                     movea.l    A0, [A4]
00001CD4  3E28 00A8                move.w     D7, [A0 + 0xA8]
00001CD8  204C                     movea.l    A0, A4
00001CDA  A029                     syscall    HLock
00001CDC  2054                     movea.l    A0, [A4]
00001CDE  4868 004C                pea.l      [A0 + 0x4C]
00001CE2  A928                     syscall    InvalRect
00001CE4  204C                     movea.l    A0, A4
00001CE6  A02A                     syscall    HUnlock
00001CE8  2F2E FFE6                move.l     -[A7], [A6 - 0x1A]
00001CEC  4EAD 0B1A                jsr        [A5 + 0xB1A /* export_351, CODE:9 @ 000021FC */]
00001CF0  2053                     movea.l    A0, [A3]
00001CF2  317C 001A 0072           move.w     [A0 + 0x72], 0x1A
00001CF8  2053                     movea.l    A0, [A3]
00001CFA  3087                     move.w     [A0], D7
00001CFC  2F0C                     move.l     -[A7], A4
00001CFE  4EAD 07EA                jsr        [A5 + 0x7EA /* export_249, CODE:3 @ 00003CA4 */]
00001D02  584F                     addq.w     A7, 4
00001D04  4CEE 1CC0 FFCE           movem.l    D6,D7,A2,A3,A4, [A6 - 0x32]
00001D0A  4E5E                     unlink     A6
00001D0C  4E75                     rts
export_377:
fn00001D0E:
00001D0E  4E56 0000                link       A6, 0
00001D12  48E7 0018                movem.l    -[A7], A3,A4
00001D16  286E 000E                movea.l    A4, [A6 + 0xE]
00001D1A  41EE 0008                lea.l      A0, [A6 + 0x8]
00001D1E  2254                     movea.l    A1, [A4]
00001D20  43E9 0050                lea.l      A1, [A1 + 0x50]
00001D24  7002                     moveq.l    D0, 0x02
label00001D26:
00001D26  B149                     cmpm.w     [A0]+, [A1]+
00001D28  56C8 FFFC                dbne       D0, -0x6 /* 00001D26 */
00001D2C  6700 009C                beq        +0x9E /* 00001DCA */
00001D30  2F0C                     move.l     -[A7], A4
00001D32  2054                     movea.l    A0, [A4]
00001D34  2F08                     move.l     -[A7], A0
00001D36  7001                     moveq.l    D0, 0x01
00001D38  2F00                     move.l     -[A7], D0
00001D3A  41EE 000E                lea.l      A0, [A6 + 0xE]
00001D3E  2F20                     move.l     -[A7], -[A0]
00001D40  3F20                     move.w     -[A7], -[A0]
00001D42  4EBA F452                jsr        [PC - 0xBAE /* 00001196 */]
00001D46  4A00                     tst.b      D0
00001D48  4FEF 0012                lea.l      A7, [A7 + 0x12]
00001D4C  676C                     beq        +0x6E /* 00001DBA */
00001D4E  2654                     movea.l    A3, [A4]
00001D50  41EE 0008                lea.l      A0, [A6 + 0x8]
00001D54  43EB 0050                lea.l      A1, [A3 + 0x50]
00001D58  22D8                     move.l     [A1]+, [A0]+
00001D5A  32D8                     move.w     [A1]+, [A0]+
00001D5C  206B 004C                movea.l    A0, [A3 + 0x4C]
00001D60  2050                     movea.l    A0, [A0]
00001D62  43EE 0008                lea.l      A1, [A6 + 0x8]
00001D66  20D9                     move.l     [A0]+, [A1]+
00001D68  30D9                     move.w     [A0]+, [A1]+
00001D6A  206B 0048                movea.l    A0, [A3 + 0x48]
00001D6E  2050                     movea.l    A0, [A0]
00001D70  41E8 0024                lea.l      A0, [A0 + 0x24]
00001D74  43EE 0008                lea.l      A1, [A6 + 0x8]
00001D78  20D9                     move.l     [A0]+, [A1]+
00001D7A  30D9                     move.w     [A0]+, [A1]+
00001D7C  2F0C                     move.l     -[A7], A4
00001D7E  4EBA E624                jsr        [PC - 0x19DC /* 000003A4 */]
00001D82  2F0C                     move.l     -[A7], A4
00001D84  4EAD 0B0A                jsr        [A5 + 0xB0A /* export_349, CODE:9 @ 00001A7C */]
00001D88  2F0C                     move.l     -[A7], A4
00001D8A  4EAD 0B12                jsr        [A5 + 0xB12 /* export_350, CODE:9 @ 00001BE4 */]
00001D8E  2F0C                     move.l     -[A7], A4
00001D90  4EAD 0B22                jsr        [A5 + 0xB22 /* export_352, CODE:9 @ 0000275A */]
00001D94  2054                     movea.l    A0, [A4]
00001D96  4A28 0070                tst.b      [A0 + 0x70]
00001D9A  4FEF 0010                lea.l      A7, [A7 + 0x10]
00001D9E  672A                     beq        +0x2C /* 00001DCA */
00001DA0  2F0C                     move.l     -[A7], A4
00001DA2  2068 0048                movea.l    A0, [A0 + 0x48]
00001DA6  2050                     movea.l    A0, [A0]
00001DA8  2F28 0018                move.l     -[A7], [A0 + 0x18]
00001DAC  7000                     moveq.l    D0, 0x00
00001DAE  2F00                     move.l     -[A7], D0
00001DB0  4EBA EC78                jsr        [PC - 0x1388 /* 00000A2A */]
00001DB4  4FEF 000C                lea.l      A7, [A7 + 0xC]
00001DB8  6010                     bra        +0x12 /* 00001DCA */
label00001DBA:
00001DBA  2F0C                     move.l     -[A7], A4
00001DBC  4EAD 0B32                jsr        [A5 + 0xB32 /* export_354, CODE:9 @ 000027DA */]
00001DC0  2054                     movea.l    A0, [A4]
00001DC2  4868 0024                pea.l      [A0 + 0x24]
00001DC6  A928                     syscall    InvalRect
00001DC8  584F                     addq.w     A7, 4
label00001DCA:
00001DCA  4CEE 1800 FFF8           movem.l    A3,A4, [A6 - 0x8]
00001DD0  4E5E                     unlink     A6
00001DD2  4E75                     rts
export_378:
fn00001DD4:
00001DD4  4E56 0000                link       A6, 0
00001DD8  48E7 0018                movem.l    -[A7], A3,A4
00001DDC  286E 000E                movea.l    A4, [A6 + 0xE]
00001DE0  41EE 0008                lea.l      A0, [A6 + 0x8]
00001DE4  2254                     movea.l    A1, [A4]
00001DE6  43E9 0056                lea.l      A1, [A1 + 0x56]
00001DEA  7002                     moveq.l    D0, 0x02
label00001DEC:
00001DEC  B149                     cmpm.w     [A0]+, [A1]+
00001DEE  56C8 FFFC                dbne       D0, -0x6 /* 00001DEC */
00001DF2  6700 0098                beq        +0x9A /* 00001E8C */
00001DF6  2F0C                     move.l     -[A7], A4
00001DF8  2054                     movea.l    A0, [A4]
00001DFA  2F08                     move.l     -[A7], A0
00001DFC  7001                     moveq.l    D0, 0x01
00001DFE  2F00                     move.l     -[A7], D0
00001E00  41EE 000E                lea.l      A0, [A6 + 0xE]
00001E04  2F20                     move.l     -[A7], -[A0]
00001E06  3F20                     move.w     -[A7], -[A0]
00001E08  4EBA F38C                jsr        [PC - 0xC74 /* 00001196 */]
00001E0C  4A00                     tst.b      D0
00001E0E  4FEF 0012                lea.l      A7, [A7 + 0x12]
00001E12  6770                     beq        +0x72 /* 00001E84 */
00001E14  2654                     movea.l    A3, [A4]
00001E16  41EE 0008                lea.l      A0, [A6 + 0x8]
00001E1A  43EB 0056                lea.l      A1, [A3 + 0x56]
00001E1E  22D8                     move.l     [A1]+, [A0]+
00001E20  32D8                     move.w     [A1]+, [A0]+
00001E22  206B 004C                movea.l    A0, [A3 + 0x4C]
00001E26  2050                     movea.l    A0, [A0]
00001E28  5C88                     addq.l     A0, 6
00001E2A  43EE 0008                lea.l      A1, [A6 + 0x8]
00001E2E  20D9                     move.l     [A0]+, [A1]+
00001E30  30D9                     move.w     [A0]+, [A1]+
00001E32  206B 0048                movea.l    A0, [A3 + 0x48]
00001E36  2050                     movea.l    A0, [A0]
00001E38  41E8 002A                lea.l      A0, [A0 + 0x2A]
00001E3C  43EE 0008                lea.l      A1, [A6 + 0x8]
00001E40  20D9                     move.l     [A0]+, [A1]+
00001E42  30D9                     move.w     [A0]+, [A1]+
00001E44  2F0C                     move.l     -[A7], A4
00001E46  4EBA E55C                jsr        [PC - 0x1AA4 /* 000003A4 */]
00001E4A  2054                     movea.l    A0, [A4]
00001E4C  4868 002C                pea.l      [A0 + 0x2C]
00001E50  A928                     syscall    InvalRect
00001E52  2054                     movea.l    A0, [A4]
00001E54  4868 0034                pea.l      [A0 + 0x34]
00001E58  A928                     syscall    InvalRect
00001E5A  2F0C                     move.l     -[A7], A4
00001E5C  4EAD 0B22                jsr        [A5 + 0xB22 /* export_352, CODE:9 @ 0000275A */]
00001E60  2054                     movea.l    A0, [A4]
00001E62  4A28 0070                tst.b      [A0 + 0x70]
00001E66  504F                     addq.w     A7, 8
00001E68  6722                     beq        +0x24 /* 00001E8C */
00001E6A  2F0C                     move.l     -[A7], A4
00001E6C  2068 0048                movea.l    A0, [A0 + 0x48]
00001E70  2050                     movea.l    A0, [A0]
00001E72  2F28 0018                move.l     -[A7], [A0 + 0x18]
00001E76  7000                     moveq.l    D0, 0x00
00001E78  2F00                     move.l     -[A7], D0
00001E7A  4EBA EBAE                jsr        [PC - 0x1452 /* 00000A2A */]
00001E7E  4FEF 000C                lea.l      A7, [A7 + 0xC]
00001E82  6008                     bra        +0xA /* 00001E8C */
label00001E84:
00001E84  2054                     movea.l    A0, [A4]
00001E86  4868 002C                pea.l      [A0 + 0x2C]
00001E8A  A928                     syscall    InvalRect
label00001E8C:
00001E8C  4CEE 1800 FFF8           movem.l    A3,A4, [A6 - 0x8]
00001E92  4E5E                     unlink     A6
00001E94  4E75                     rts
fn00001E96:
00001E96  4E56 FFEC                link       A6, -0x0014
00001E9A  48E7 0038                movem.l    -[A7], A2,A3,A4
00001E9E  286E 0008                movea.l    A4, [A6 + 0x8]
00001EA2  2054                     movea.l    A0, [A4]
00001EA4  43EE FFEC                lea.l      A1, [A6 - 0x14]
00001EA8  41E8 0056                lea.l      A0, [A0 + 0x56]
00001EAC  22D8                     move.l     [A1]+, [A0]+
00001EAE  32D8                     move.w     [A1]+, [A0]+
00001EB0  2054                     movea.l    A0, [A4]
00001EB2  43EE FFF2                lea.l      A1, [A6 - 0xE]
00001EB6  41E8 0050                lea.l      A0, [A0 + 0x50]
00001EBA  22D8                     move.l     [A1]+, [A0]+
00001EBC  32D8                     move.w     [A1]+, [A0]+
00001EBE  2654                     movea.l    A3, [A4]
00001EC0  41EE FFEC                lea.l      A0, [A6 - 0x14]
00001EC4  43EB 0050                lea.l      A1, [A3 + 0x50]
00001EC8  22D8                     move.l     [A1]+, [A0]+
00001ECA  32D8                     move.w     [A1]+, [A0]+
00001ECC  206B 004C                movea.l    A0, [A3 + 0x4C]
00001ED0  2050                     movea.l    A0, [A0]
00001ED2  2D48 FFF8                move.l     [A6 - 0x8], A0
00001ED6  43EE FFEC                lea.l      A1, [A6 - 0x14]
00001EDA  45D0                     lea.l      A2, [A0]
00001EDC  24D9                     move.l     [A2]+, [A1]+
00001EDE  34D9                     move.w     [A2]+, [A1]+
00001EE0  206B 0048                movea.l    A0, [A3 + 0x48]
00001EE4  2050                     movea.l    A0, [A0]
00001EE6  2D48 FFFC                move.l     [A6 - 0x4], A0
00001EEA  43EE FFEC                lea.l      A1, [A6 - 0x14]
00001EEE  45E8 0024                lea.l      A2, [A0 + 0x24]
00001EF2  24D9                     move.l     [A2]+, [A1]+
00001EF4  34D9                     move.w     [A2]+, [A1]+
00001EF6  41EB 0056                lea.l      A0, [A3 + 0x56]
00001EFA  43EE FFF2                lea.l      A1, [A6 - 0xE]
00001EFE  20D9                     move.l     [A0]+, [A1]+
00001F00  30D9                     move.w     [A0]+, [A1]+
00001F02  206E FFF8                movea.l    A0, [A6 - 0x8]
00001F06  5C88                     addq.l     A0, 6
00001F08  43EE FFF2                lea.l      A1, [A6 - 0xE]
00001F0C  20D9                     move.l     [A0]+, [A1]+
00001F0E  30D9                     move.w     [A0]+, [A1]+
00001F10  206E FFFC                movea.l    A0, [A6 - 0x4]
00001F14  41E8 002A                lea.l      A0, [A0 + 0x2A]
00001F18  43EE FFF2                lea.l      A1, [A6 - 0xE]
00001F1C  20D9                     move.l     [A0]+, [A1]+
00001F1E  30D9                     move.w     [A0]+, [A1]+
00001F20  2054                     movea.l    A0, [A4]
00001F22  4868 0024                pea.l      [A0 + 0x24]
00001F26  A928                     syscall    InvalRect
00001F28  2054                     movea.l    A0, [A4]
00001F2A  4868 002C                pea.l      [A0 + 0x2C]
00001F2E  A928                     syscall    InvalRect
00001F30  2054                     movea.l    A0, [A4]
00001F32  4868 0034                pea.l      [A0 + 0x34]
00001F36  A928                     syscall    InvalRect
00001F38  2F0C                     move.l     -[A7], A4
00001F3A  4EAD 0B32                jsr        [A5 + 0xB32 /* export_354, CODE:9 @ 000027DA */]
00001F3E  2F0C                     move.l     -[A7], A4
00001F40  4EAD 0B22                jsr        [A5 + 0xB22 /* export_352, CODE:9 @ 0000275A */]
00001F44  4CEE 1C00 FFE0           movem.l    A2,A3,A4, [A6 - 0x20]
00001F4A  4E5E                     unlink     A6
00001F4C  4E75                     rts
export_379:
00001F4E  4E56 FFFE                link       A6, -0x0002
00001F52  48E7 1138                movem.l    -[A7], D3,D7,A2,A3,A4
00001F56  286E 0008                movea.l    A4, [A6 + 0x8]
00001F5A  2054                     movea.l    A0, [A4]
00001F5C  2068 0044                movea.l    A0, [A0 + 0x44]
00001F60  2050                     movea.l    A0, [A0]
00001F62  7000                     moveq.l    D0, 0x00
00001F64  1028 003A                move.b     D0, [A0 + 0x3A]
00001F68  4A80                     tst.l      D0
00001F6A  57C3                     seq        D3
00001F6C  4403                     neg.b      D3
00001F6E  1E03                     move.b     D7, D3
00001F70  2F0C                     move.l     -[A7], A4
00001F72  486E FFFE                pea.l      [A6 - 0x2]
00001F76  7000                     moveq.l    D0, 0x00
00001F78  1007                     move.b     D0, D7
00001F7A  2F00                     move.l     -[A7], D0
00001F7C  2054                     movea.l    A0, [A4]
00001F7E  41E8 0056                lea.l      A0, [A0 + 0x56]
00001F82  2F20                     move.l     -[A7], -[A0]
00001F84  3F20                     move.w     -[A7], -[A0]
00001F86  4EBA F20E                jsr        [PC - 0xDF2 /* 00001196 */]
00001F8A  4A00                     tst.b      D0
00001F8C  4FEF 0012                lea.l      A7, [A7 + 0x12]
00001F90  6616                     bne        +0x18 /* 00001FA8 */
00001F92  2054                     movea.l    A0, [A4]
00001F94  2068 006C                movea.l    A0, [A0 + 0x6C]
00001F98  2050                     movea.l    A0, [A0]
00001F9A  2050                     movea.l    A0, [A0]
00001F9C  2050                     movea.l    A0, [A0]
00001F9E  2254                     movea.l    A1, [A4]
00001FA0  43E9 0050                lea.l      A1, [A1 + 0x50]
00001FA4  22D8                     move.l     [A1]+, [A0]+
00001FA6  32D8                     move.w     [A1]+, [A0]+
label00001FA8:
00001FA8  2654                     movea.l    A3, [A4]
00001FAA  206B 0048                movea.l    A0, [A3 + 0x48]
00001FAE  2050                     movea.l    A0, [A0]
00001FB0  43EB 0050                lea.l      A1, [A3 + 0x50]
00001FB4  45E8 0024                lea.l      A2, [A0 + 0x24]
00001FB8  24D9                     move.l     [A2]+, [A1]+
00001FBA  34D9                     move.w     [A2]+, [A1]+
00001FBC  2F0C                     move.l     -[A7], A4
00001FBE  486E FFFE                pea.l      [A6 - 0x2]
00001FC2  7000                     moveq.l    D0, 0x00
00001FC4  1007                     move.b     D0, D7
00001FC6  2F00                     move.l     -[A7], D0
00001FC8  2054                     movea.l    A0, [A4]
00001FCA  41E8 005C                lea.l      A0, [A0 + 0x5C]
00001FCE  2F20                     move.l     -[A7], -[A0]
00001FD0  3F20                     move.w     -[A7], -[A0]
00001FD2  4EBA F1C2                jsr        [PC - 0xE3E /* 00001196 */]
00001FD6  4A00                     tst.b      D0
00001FD8  4FEF 0012                lea.l      A7, [A7 + 0x12]
00001FDC  6618                     bne        +0x1A /* 00001FF6 */
00001FDE  2054                     movea.l    A0, [A4]
00001FE0  2068 006C                movea.l    A0, [A0 + 0x6C]
00001FE4  2050                     movea.l    A0, [A0]
00001FE6  2050                     movea.l    A0, [A0]
00001FE8  2050                     movea.l    A0, [A0]
00001FEA  2254                     movea.l    A1, [A4]
00001FEC  43E9 0056                lea.l      A1, [A1 + 0x56]
00001FF0  5C88                     addq.l     A0, 6
00001FF2  22D8                     move.l     [A1]+, [A0]+
00001FF4  32D8                     move.w     [A1]+, [A0]+
label00001FF6:
00001FF6  2654                     movea.l    A3, [A4]
00001FF8  206B 0048                movea.l    A0, [A3 + 0x48]
00001FFC  2050                     movea.l    A0, [A0]
00001FFE  43EB 0056                lea.l      A1, [A3 + 0x56]
00002002  45E8 002A                lea.l      A2, [A0 + 0x2A]
00002006  24D9                     move.l     [A2]+, [A1]+
00002008  34D9                     move.w     [A2]+, [A1]+
0000200A  2F0C                     move.l     -[A7], A4
0000200C  700A                     moveq.l    D0, 0x0A
0000200E  2F00                     move.l     -[A7], D0
00002010  7200                     moveq.l    D1, 0x00
00002012  2F01                     move.l     -[A7], D1
00002014  2054                     movea.l    A0, [A4]
00002016  2068 0048                movea.l    A0, [A0 + 0x48]
0000201A  2050                     movea.l    A0, [A0]
0000201C  2068 001C                movea.l    A0, [A0 + 0x1C]
00002020  2050                     movea.l    A0, [A0]
00002022  2068 0002                movea.l    A0, [A0 + 0x2]
00002026  2050                     movea.l    A0, [A0]
00002028  2F28 002A                move.l     -[A7], [A0 + 0x2A]
0000202C  4EBA F29A                jsr        [PC - 0xD66 /* 000012C8 */]
00002030  4FEF 0010                lea.l      A7, [A7 + 0x10]
00002034  4CEE 1C88 FFEA           movem.l    D3,D7,A2,A3,A4, [A6 - 0x16]
0000203A  4E5E                     unlink     A6
0000203C  4E75                     rts
export_380:
0000203E  4E56 FFF4                link       A6, -0x000C
00002042  48E7 0018                movem.l    -[A7], A3,A4
00002046  266E 0010                movea.l    A3, [A6 + 0x10]
0000204A  286E 0008                movea.l    A4, [A6 + 0x8]
0000204E  2F2E 000C                move.l     -[A7], [A6 + 0xC]
00002052  486E FFFA                pea.l      [A6 - 0x6]
00002056  2054                     movea.l    A0, [A4]
00002058  2F28 0048                move.l     -[A7], [A0 + 0x48]
0000205C  4EAD 078A                jsr        [A5 + 0x78A /* export_237, CODE:3 @ 00003CBA */]
00002060  41EE FFFA                lea.l      A0, [A6 - 0x6]
00002064  224B                     movea.l    A1, A3
00002066  7002                     moveq.l    D0, 0x02
label00002068:
00002068  B149                     cmpm.w     [A0]+, [A1]+
0000206A  56C8 FFFC                dbne       D0, -0x6 /* 00002068 */
0000206E  674A                     beq        +0x4C /* 000020BA */
00002070  2054                     movea.l    A0, [A4]
00002072  43EE FFF4                lea.l      A1, [A6 - 0xC]
00002076  41E8 0050                lea.l      A0, [A0 + 0x50]
0000207A  22D8                     move.l     [A1]+, [A0]+
0000207C  32D8                     move.w     [A1]+, [A0]+
0000207E  2054                     movea.l    A0, [A4]
00002080  41E8 0050                lea.l      A0, [A0 + 0x50]
00002084  43EE FFFA                lea.l      A1, [A6 - 0x6]
00002088  20D9                     move.l     [A0]+, [A1]+
0000208A  30D9                     move.w     [A0]+, [A1]+
0000208C  2F0C                     move.l     -[A7], A4
0000208E  4EAD 0B0A                jsr        [A5 + 0xB0A /* export_349, CODE:9 @ 00001A7C */]
00002092  2F0C                     move.l     -[A7], A4
00002094  4EAD 0B12                jsr        [A5 + 0xB12 /* export_350, CODE:9 @ 00001BE4 */]
00002098  2F0C                     move.l     -[A7], A4
0000209A  4EAD 0B32                jsr        [A5 + 0xB32 /* export_354, CODE:9 @ 000027DA */]
0000209E  2054                     movea.l    A0, [A4]
000020A0  41E8 0050                lea.l      A0, [A0 + 0x50]
000020A4  43EE FFF4                lea.l      A1, [A6 - 0xC]
000020A8  20D9                     move.l     [A0]+, [A1]+
000020AA  30D9                     move.w     [A0]+, [A1]+
000020AC  41EE FFFA                lea.l      A0, [A6 - 0x6]
000020B0  224B                     movea.l    A1, A3
000020B2  22D8                     move.l     [A1]+, [A0]+
000020B4  32D8                     move.w     [A1]+, [A0]+
000020B6  4FEF 000C                lea.l      A7, [A7 + 0xC]
label000020BA:
000020BA  4CEE 1800 FFEC           movem.l    A3,A4, [A6 - 0x14]
000020C0  4E5E                     unlink     A6
000020C2  4E75                     rts
export_381:
000020C4  4E56 FEF0                link       A6, -0x0110
000020C8  48E7 0F18                movem.l    -[A7], D4,D5,D6,D7,A3,A4
000020CC  182E 000F                move.b     D4, [A6 + 0xF]
000020D0  1E2E 000B                move.b     D7, [A6 + 0xB]
000020D4  286E 0014                movea.l    A4, [A6 + 0x14]
000020D8  2054                     movea.l    A0, [A4]
000020DA  2D68 004C FFFC           move.l     [A6 - 0x4], [A0 + 0x4C]
000020E0  4206                     clr.b      D6
000020E2  4AAE FFFC                tst.l      [A6 - 0x4]
000020E6  6700 00F8                beq        +0xFA /* 000021E0 */
000020EA  2054                     movea.l    A0, [A4]
000020EC  4A28 0070                tst.b      [A0 + 0x70]
000020F0  674A                     beq        +0x4C /* 0000213C */
000020F2  486E FEF8                pea.l      [A6 - 0x108]
000020F6  70FF                     moveq.l    D0, 0xFFFFFFFF
000020F8  3F00                     move.w     -[A7], D0
000020FA  3F00                     move.w     -[A7], D0
000020FC  A880                     syscall    SetPt
000020FE  4A04                     tst.b      D4
00002100  6704                     beq        +0x6 /* 00002106 */
00002102  7A03                     moveq.l    D5, 0x03
00002104  600A                     bra        +0xC /* 00002110 */
label00002106:
00002106  4A07                     tst.b      D7
00002108  6704                     beq        +0x6 /* 0000210E */
0000210A  7A01                     moveq.l    D5, 0x01
0000210C  6002                     bra        +0x4 /* 00002110 */
label0000210E:
0000210E  7A02                     moveq.l    D5, 0x02
label00002110:
00002110  3F05                     move.w     -[A7], D5
00002112  487A 00D8                pea.l      [PC + 0xD8 /* 000021EC, value 0xF426974, pstring "BitTool strings" */]
00002116  486E FEFC                pea.l      [A6 - 0x104]
0000211A  4EAD 0282                jsr        [A5 + 0x282 /* export_76, CODE:1 @ 00005CDA */]
0000211E  558F                     subq.l     A7, 2
00002120  2F2E FEF8                move.l     -[A7], [A6 - 0x108]
00002124  486E FEFC                pea.l      [A6 - 0x104]
00002128  2F2E 0010                move.l     -[A7], [A6 + 0x10]
0000212C  2F2E 0010                move.l     -[A7], [A6 + 0x10]
00002130  3F3C 0009                move.w     -[A7], 0x9 /* '\t' */
00002134  A82E                     syscall    Pack12
00002136  1C1F                     move.b     D6, [A7]+
00002138  6000 00A6                bra        +0xA8 /* 000021E0 */
label0000213C:
0000213C  598F                     subq.l     A7, 4
0000213E  A8D8                     syscall    NewRgn
00002140  265F                     movea.l    A3, [A7]+
00002142  7000                     moveq.l    D0, 0x00
00002144  2D40 FFF8                move.l     [A6 - 0x8], D0
00002148  4A07                     tst.b      D7
0000214A  6744                     beq        +0x46 /* 00002190 */
0000214C  2054                     movea.l    A0, [A4]
0000214E  43EE FEF0                lea.l      A1, [A6 - 0x110]
00002152  41E8 0024                lea.l      A0, [A0 + 0x24]
00002156  22D8                     move.l     [A1]+, [A0]+
00002158  22D8                     move.l     [A1]+, [A0]+
0000215A  486E FEF0                pea.l      [A6 - 0x110]
0000215E  7002                     moveq.l    D0, 0x02
00002160  3F00                     move.w     -[A7], D0
00002162  3F00                     move.w     -[A7], D0
00002164  A8A9                     syscall    InsetRect
00002166  4A04                     tst.b      D4
00002168  671C                     beq        +0x1E /* 00002186 */
0000216A  302E FEF6                move.w     D0, [A6 - 0x10A]
0000216E  48C0                     ext.l      D0
00002170  322E FEF2                move.w     D1, [A6 - 0x10E]
00002174  48C1                     ext.l      D1
00002176  9081                     sub.l      D0, D1
00002178  7202                     moveq.l    D1, 0x02
0000217A  4EAD 076A                jsr        [A5 + 0x76A /* export_233, CODE:3 @ 0000372A */]
0000217E  D06E FEF2                add.w      D0, [A6 - 0x10E]
00002182  3D40 FEF2                move.w     [A6 - 0x10E], D0
label00002186:
00002186  2F0B                     move.l     -[A7], A3
00002188  486E FEF0                pea.l      [A6 - 0x110]
0000218C  A8DF                     syscall    RectRgn
0000218E  6016                     bra        +0x18 /* 000021A6 */
label00002190:
00002190  2F0C                     move.l     -[A7], A4
00002192  7000                     moveq.l    D0, 0x00
00002194  1004                     move.b     D0, D4
00002196  2F00                     move.l     -[A7], D0
00002198  7001                     moveq.l    D0, 0x01
0000219A  2F00                     move.l     -[A7], D0
0000219C  4EBA EE4C                jsr        [PC - 0x11B4 /* 00000FEA */]
000021A0  2640                     movea.l    A3, D0
000021A2  4FEF 000C                lea.l      A7, [A7 + 0xC]
label000021A6:
000021A6  558F                     subq.l     A7, 2
000021A8  2054                     movea.l    A0, [A4]
000021AA  2F28 00C2                move.l     -[A7], [A0 + 0xC2]
000021AE  2F0B                     move.l     -[A7], A3
000021B0  206E FFFC                movea.l    A0, [A6 - 0x4]
000021B4  2050                     movea.l    A0, [A0]
000021B6  2F28 000C                move.l     -[A7], [A0 + 0xC]
000021BA  2F2E 0010                move.l     -[A7], [A6 + 0x10]
000021BE  4A07                     tst.b      D7
000021C0  670A                     beq        +0xC /* 000021CC */
000021C2  2054                     movea.l    A0, [A4]
000021C4  41E8 00C6                lea.l      A0, [A0 + 0xC6]
000021C8  2008                     move.l     D0, A0
000021CA  6006                     bra        +0x8 /* 000021D2 */
label000021CC:
000021CC  41EE FFF8                lea.l      A0, [A6 - 0x8]
000021D0  2008                     move.l     D0, A0
label000021D2:
000021D2  2F00                     move.l     -[A7], D0
000021D4  1F07                     move.b     -[A7], D7
000021D6  4EAD 0B62                jsr        [A5 + 0xB62 /* export_360, CODE:9 @ 000053A4 */]
000021DA  1C1F                     move.b     D6, [A7]+
000021DC  2F0B                     move.l     -[A7], A3
000021DE  A8D9                     syscall    DisposRgn/DisposeRgn
label000021E0:
000021E0  1006                     move.b     D0, D6
000021E2  4CEE 18F0 FED8           movem.l    D4,D5,D6,D7,A3,A4, [A6 - 0x128]
000021E8  4E5E                     unlink     A6
000021EA  4E75                     rts
000021EC  0F42                     bchg       D2, D7
000021EE  6974                     bvs        +0x76 /* 00002264 */
000021F0  546F 6F6C                addq.w     [A7 + 0x6F6C], 2
000021F4  2073 7472                movea.l    A0, [A3 + D7.w * 4 + 0x72]
000021F8  696E                     bvs        +0x70 /* 00002268 */
000021FA  6773                     beq        +0x75 /* 0000226F */
000021FC  0000 4E56                ori.b      D0, 0x56 /* 'V' */
// begin alternate branch 000021FE-0000220C
fn000021FE:
000021FE  4E56 0000                link       A6, 0
00002202  206E 0008                movea.l    A0, [A6 + 0x8]
00002206  3028 0006                move.w     D0, [A0 + 0x6]
0000220A  48C0                     ext.l      D0
// end alternate branch 000021FE-0000220C
fn000021FE: // (misaligned)
00002200  0000 206E                ori.b      D0, 0x6E /* 'n' */
00002204  0008 3028                ori.b      A0, 0x28 /* '(' */
00002208  0006 48C0                ori.b      D6, 0xC0
0000220C  5280                     addq.l     D0, 1
0000220E  E780                     asl        D0, 3
00002210  5080                     addq.l     D0, 8
00002212  4E5E                     unlink     A6
00002214  4E75                     rts
export_382:
00002216  4E56 FFEC                link       A6, -0x0014
0000221A  48E7 0118                movem.l    -[A7], D7,A3,A4
0000221E  286E 0008                movea.l    A4, [A6 + 0x8]
00002222  2054                     movea.l    A0, [A4]
00002224  2668 0044                movea.l    A3, [A0 + 0x44]
00002228  2F0C                     move.l     -[A7], A4
0000222A  4EAD 0B4A                jsr        [A5 + 0xB4A /* export_357, CODE:9 @ 00004046 */]
0000222E  4A00                     tst.b      D0
00002230  584F                     addq.w     A7, 4
00002232  6700 01CA                beq        +0x1CC /* 000023FE */
00002236  2053                     movea.l    A0, [A3]
00002238  4A28 003B                tst.b      [A0 + 0x3B]
0000223C  6600 00B0                bne        +0xB2 /* 000022EE */
00002240  2054                     movea.l    A0, [A4]
00002242  4AA8 0074                tst.l      [A0 + 0x74]
00002246  6700 00A6                beq        +0xA8 /* 000022EE */
0000224A  2668 0048                movea.l    A3, [A0 + 0x48]
0000224E  2053                     movea.l    A0, [A3]
00002250  2D68 0018 FFF4           move.l     [A6 - 0xC], [A0 + 0x18]
00002256  2054                     movea.l    A0, [A4]
00002258  2D68 0074 FFF8           move.l     [A6 - 0x8], [A0 + 0x74]
0000225E  2D6E FFF4 FFFC           move.l     [A6 - 0x4], [A6 - 0xC]
label00002264:
00002264  558F                     subq.l     A7, 2
00002266  486E FFFC                pea.l      [A6 - 0x4]
// begin alternate branch 00002268-0000226A
label00002268:
00002268  FFFC                     .invalid   <<F/7/7>>
// end alternate branch 00002268-0000226A
label00002268: // (misaligned)
0000226A  4EAD 06D2                jsr        [A5 + 0x6D2 /* export_214, CODE:3 @ 00003172 */]
0000226E  3E1F                     move.w     D7, [A7]+
00002270  206E FFF8                movea.l    A0, [A6 - 0x8]
00002274  2050                     movea.l    A0, [A0]
00002276  226E FFF4                movea.l    A1, [A6 - 0xC]
0000227A  2251                     movea.l    A1, [A1]
0000227C  2D48 FFF0                move.l     [A6 - 0x10], A0
00002280  2D49 FFEC                move.l     [A6 - 0x14], A1
00002284  206E FFF8                movea.l    A0, [A6 - 0x8]
00002288  2F10                     move.l     -[A7], [A0]
0000228A  4EBA FF72                jsr        [PC - 0x8E /* 000021FE */]
0000228E  206E FFF0                movea.l    A0, [A6 - 0x10]
00002292  226E FFEC                movea.l    A1, [A6 - 0x14]
00002296  A02E                     syscall    BlockMove/BlockMoveData
00002298  2F0B                     move.l     -[A7], A3
0000229A  4EAD 077A                jsr        [A5 + 0x77A /* export_235, CODE:3 @ 00003CBE */]
0000229E  2053                     movea.l    A0, [A3]
000022A0  2254                     movea.l    A1, [A4]
000022A2  32A8 00A8                move.w     [A1], [A0 + 0xA8]
000022A6  204B                     movea.l    A0, A3
000022A8  A029                     syscall    HLock
000022AA  2053                     movea.l    A0, [A3]
000022AC  4868 004C                pea.l      [A0 + 0x4C]
000022B0  A928                     syscall    InvalRect
000022B2  204B                     movea.l    A0, A3
000022B4  A02A                     syscall    HUnlock
000022B6  2054                     movea.l    A0, [A4]
000022B8  7006                     moveq.l    D0, 0x06
000022BA  B068 0068                cmp.w      D0, [A0 + 0x68]
000022BE  584F                     addq.w     A7, 4
000022C0  6608                     bne        +0xA /* 000022CA */
000022C2  2F0C                     move.l     -[A7], A4
000022C4  4EAD 0B2A                jsr        [A5 + 0xB2A /* export_353, CODE:9 @ 0000279A */]
000022C8  584F                     addq.w     A7, 4
label000022CA:
000022CA  206E FFF8                movea.l    A0, [A6 - 0x8]
000022CE  A023                     syscall    DisposHandle/DisposeHandle
000022D0  4A47                     tst.w      D7
000022D2  660A                     bne        +0xC /* 000022DE */
000022D4  2054                     movea.l    A0, [A4]
000022D6  216E FFFC 0074           move.l     [A0 + 0x74], [A6 - 0x4]
000022DC  6010                     bra        +0x12 /* 000022EE */
label000022DE:
000022DE  2054                     movea.l    A0, [A4]
000022E0  7000                     moveq.l    D0, 0x00
000022E2  2140 0074                move.l     [A0 + 0x74], D0
000022E6  2054                     movea.l    A0, [A4]
000022E8  0A68 0001 0072           xori.w     [A0 + 0x72], 0x1
label000022EE:
000022EE  2054                     movea.l    A0, [A4]
000022F0  41E8 0050                lea.l      A0, [A0 + 0x50]
000022F4  2254                     movea.l    A1, [A4]
000022F6  43E9 0078                lea.l      A1, [A1 + 0x78]
000022FA  7002                     moveq.l    D0, 0x02
label000022FC:
000022FC  B149                     cmpm.w     [A0]+, [A1]+
000022FE  56C8 FFFC                dbne       D0, -0x6 /* 000022FC */
00002302  6774                     beq        +0x76 /* 00002378 */
00002304  2054                     movea.l    A0, [A4]
00002306  43EE FFF4                lea.l      A1, [A6 - 0xC]
0000230A  41E8 0050                lea.l      A0, [A0 + 0x50]
0000230E  22D8                     move.l     [A1]+, [A0]+
00002310  32D8                     move.w     [A1]+, [A0]+
00002312  2054                     movea.l    A0, [A4]
00002314  43EE FFFA                lea.l      A1, [A6 - 0x6]
00002318  41E8 0078                lea.l      A0, [A0 + 0x78]
0000231C  22D8                     move.l     [A1]+, [A0]+
0000231E  32D8                     move.w     [A1]+, [A0]+
00002320  2654                     movea.l    A3, [A4]
00002322  41EE FFFA                lea.l      A0, [A6 - 0x6]
00002326  43EB 0050                lea.l      A1, [A3 + 0x50]
0000232A  22D8                     move.l     [A1]+, [A0]+
0000232C  32D8                     move.w     [A1]+, [A0]+
0000232E  206B 004C                movea.l    A0, [A3 + 0x4C]
00002332  2050                     movea.l    A0, [A0]
00002334  43EE FFFA                lea.l      A1, [A6 - 0x6]
00002338  20D9                     move.l     [A0]+, [A1]+
0000233A  30D9                     move.w     [A0]+, [A1]+
0000233C  206B 0048                movea.l    A0, [A3 + 0x48]
00002340  2050                     movea.l    A0, [A0]
00002342  41E8 0024                lea.l      A0, [A0 + 0x24]
00002346  43EE FFFA                lea.l      A1, [A6 - 0x6]
0000234A  20D9                     move.l     [A0]+, [A1]+
0000234C  30D9                     move.w     [A0]+, [A1]+
0000234E  41EB 0078                lea.l      A0, [A3 + 0x78]
00002352  43EE FFF4                lea.l      A1, [A6 - 0xC]
00002356  20D9                     move.l     [A0]+, [A1]+
00002358  30D9                     move.w     [A0]+, [A1]+
0000235A  2054                     movea.l    A0, [A4]
0000235C  4868 0024                pea.l      [A0 + 0x24]
00002360  A928                     syscall    InvalRect
00002362  2054                     movea.l    A0, [A4]
00002364  4868 0034                pea.l      [A0 + 0x34]
00002368  A928                     syscall    InvalRect
0000236A  2F0C                     move.l     -[A7], A4
0000236C  4EAD 0B22                jsr        [A5 + 0xB22 /* export_352, CODE:9 @ 0000275A */]
00002370  2F0C                     move.l     -[A7], A4
00002372  4EAD 0B2A                jsr        [A5 + 0xB2A /* export_353, CODE:9 @ 0000279A */]
00002376  504F                     addq.w     A7, 8
label00002378:
00002378  2054                     movea.l    A0, [A4]
0000237A  41E8 0056                lea.l      A0, [A0 + 0x56]
0000237E  2254                     movea.l    A1, [A4]
00002380  43E9 007E                lea.l      A1, [A1 + 0x7E]
00002384  7002                     moveq.l    D0, 0x02
label00002386:
00002386  B149                     cmpm.w     [A0]+, [A1]+
00002388  56C8 FFFC                dbne       D0, -0x6 /* 00002386 */
0000238C  6770                     beq        +0x72 /* 000023FE */
0000238E  2054                     movea.l    A0, [A4]
00002390  43EE FFF4                lea.l      A1, [A6 - 0xC]
00002394  41E8 0056                lea.l      A0, [A0 + 0x56]
00002398  22D8                     move.l     [A1]+, [A0]+
0000239A  32D8                     move.w     [A1]+, [A0]+
0000239C  2054                     movea.l    A0, [A4]
0000239E  43EE FFFA                lea.l      A1, [A6 - 0x6]
000023A2  41E8 007E                lea.l      A0, [A0 + 0x7E]
000023A6  22D8                     move.l     [A1]+, [A0]+
000023A8  32D8                     move.w     [A1]+, [A0]+
000023AA  2654                     movea.l    A3, [A4]
000023AC  41EE FFFA                lea.l      A0, [A6 - 0x6]
000023B0  43EB 0056                lea.l      A1, [A3 + 0x56]
000023B4  22D8                     move.l     [A1]+, [A0]+
000023B6  32D8                     move.w     [A1]+, [A0]+
000023B8  206B 004C                movea.l    A0, [A3 + 0x4C]
000023BC  2050                     movea.l    A0, [A0]
000023BE  5C88                     addq.l     A0, 6
000023C0  43EE FFFA                lea.l      A1, [A6 - 0x6]
000023C4  20D9                     move.l     [A0]+, [A1]+
000023C6  30D9                     move.w     [A0]+, [A1]+
000023C8  206B 0048                movea.l    A0, [A3 + 0x48]
000023CC  2050                     movea.l    A0, [A0]
000023CE  41E8 002A                lea.l      A0, [A0 + 0x2A]
000023D2  43EE FFFA                lea.l      A1, [A6 - 0x6]
000023D6  20D9                     move.l     [A0]+, [A1]+
000023D8  30D9                     move.w     [A0]+, [A1]+
000023DA  41EB 007E                lea.l      A0, [A3 + 0x7E]
000023DE  43EE FFF4                lea.l      A1, [A6 - 0xC]
000023E2  20D9                     move.l     [A0]+, [A1]+
000023E4  30D9                     move.w     [A0]+, [A1]+
000023E6  2054                     movea.l    A0, [A4]
000023E8  4868 002C                pea.l      [A0 + 0x2C]
000023EC  A928                     syscall    InvalRect
000023EE  2054                     movea.l    A0, [A4]
000023F0  4868 0034                pea.l      [A0 + 0x34]
000023F4  A928                     syscall    InvalRect
000023F6  2F0C                     move.l     -[A7], A4
000023F8  4EAD 0B22                jsr        [A5 + 0xB22 /* export_352, CODE:9 @ 0000275A */]
000023FC  584F                     addq.w     A7, 4
label000023FE:
000023FE  4CEE 1880 FFE0           movem.l    D7,A3,A4, [A6 - 0x20]
00002404  4E5E                     unlink     A6
00002406  4E75                     rts
export_383:
00002408  4E56 0000                link       A6, 0
0000240C  48E7 0708                movem.l    -[A7], D5,D6,D7,A4
00002410  3E2E 000A                move.w     D7, [A6 + 0xA]
00002414  286E 000C                movea.l    A4, [A6 + 0xC]
00002418  48C7                     ext.l      D7
0000241A  2054                     movea.l    A0, [A4]
0000241C  3028 006A                move.w     D0, [A0 + 0x6A]
00002420  48C0                     ext.l      D0
00002422  5C80                     addq.l     D0, 6
00002424  B087                     cmp.l      D0, D7
00002426  6D00 009E                blt        +0xA0 /* 000024C6 */
0000242A  48C7                     ext.l      D7
0000242C  2F07                     move.l     -[A7], D7
0000242E  4EBA E096                jsr        [PC - 0x1F6A /* 000004C6 */]
00002432  3A00                     move.w     D5, D0
00002434  4206                     clr.b      D6
00002436  2054                     movea.l    A0, [A4]
00002438  4A28 0070                tst.b      [A0 + 0x70]
0000243C  584F                     addq.w     A7, 4
0000243E  6716                     beq        +0x18 /* 00002456 */
00002440  4228 0070                clr.b      [A0 + 0x70]
00002444  7001                     moveq.l    D0, 0x01
00002446  2F00                     move.l     -[A7], D0
00002448  2F00                     move.l     -[A7], D0
0000244A  2F0C                     move.l     -[A7], A4
0000244C  4EAD 0B3A                jsr        [A5 + 0xB3A /* export_355, CODE:9 @ 00002854 */]
00002450  7C01                     moveq.l    D6, 0x01
00002452  4FEF 000C                lea.l      A7, [A7 + 0xC]
label00002456:
00002456  2054                     movea.l    A0, [A4]
00002458  2068 0044                movea.l    A0, [A0 + 0x44]
0000245C  2050                     movea.l    A0, [A0]
0000245E  BA68 003C                cmp.w      D5, [A0 + 0x3C]
00002462  6738                     beq        +0x3A /* 0000249C */
00002464  2054                     movea.l    A0, [A4]
00002466  3145 0068                move.w     [A0 + 0x68], D5
0000246A  2054                     movea.l    A0, [A4]
0000246C  2068 0044                movea.l    A0, [A0 + 0x44]
00002470  2050                     movea.l    A0, [A0]
00002472  3145 003C                move.w     [A0 + 0x3C], D5
00002476  48C5                     ext.l      D5
00002478  2054                     movea.l    A0, [A4]
0000247A  2068 006C                movea.l    A0, [A0 + 0x6C]
0000247E  2050                     movea.l    A0, [A0]
00002480  2005                     move.l     D0, D5
00002482  E580                     asl        D0, 2
00002484  2254                     movea.l    A1, [A4]
00002486  2370 0800 004C           move.l     [A1 + 0x4C], [A0 + D0]
0000248C  2F0C                     move.l     -[A7], A4
0000248E  4EBA DC2C                jsr        [PC - 0x23D4 /* 000000BC */]
00002492  7C01                     moveq.l    D6, 0x01
00002494  2F0C                     move.l     -[A7], A4
00002496  4EAD 0B2A                jsr        [A5 + 0xB2A /* export_353, CODE:9 @ 0000279A */]
0000249A  504F                     addq.w     A7, 8
label0000249C:
0000249C  4A06                     tst.b      D6
0000249E  6700 0090                beq        +0x92 /* 00002530 */
000024A2  2F0C                     move.l     -[A7], A4
000024A4  2054                     movea.l    A0, [A4]
000024A6  2068 0048                movea.l    A0, [A0 + 0x48]
000024AA  2050                     movea.l    A0, [A0]
000024AC  2F28 0018                move.l     -[A7], [A0 + 0x18]
000024B0  2054                     movea.l    A0, [A4]
000024B2  2068 004C                movea.l    A0, [A0 + 0x4C]
000024B6  2050                     movea.l    A0, [A0]
000024B8  2F28 000C                move.l     -[A7], [A0 + 0xC]
000024BC  4EBA E56C                jsr        [PC - 0x1A94 /* 00000A2A */]
000024C0  4FEF 000C                lea.l      A7, [A7 + 0xC]
000024C4  606A                     bra        +0x6C /* 00002530 */
label000024C6:
000024C6  48C7                     ext.l      D7
000024C8  2054                     movea.l    A0, [A4]
000024CA  3028 006A                move.w     D0, [A0 + 0x6A]
000024CE  48C0                     ext.l      D0
000024D0  7209                     moveq.l    D1, 0x09
000024D2  D081                     add.l      D0, D1
000024D4  B087                     cmp.l      D0, D7
000024D6  660A                     bne        +0xC /* 000024E2 */
000024D8  2F0C                     move.l     -[A7], A4
000024DA  4EBA F9BA                jsr        [PC - 0x646 /* 00001E96 */]
000024DE  584F                     addq.w     A7, 4
000024E0  604E                     bra        +0x50 /* 00002530 */
label000024E2:
000024E2  48C7                     ext.l      D7
000024E4  2054                     movea.l    A0, [A4]
000024E6  3028 006A                move.w     D0, [A0 + 0x6A]
000024EA  48C0                     ext.l      D0
000024EC  720B                     moveq.l    D1, 0x0B
000024EE  D081                     add.l      D0, D1
000024F0  B087                     cmp.l      D0, D7
000024F2  660A                     bne        +0xC /* 000024FE */
000024F4  2F0C                     move.l     -[A7], A4
000024F6  4EBA F37E                jsr        [PC - 0xC82 /* 00001876 */]
000024FA  584F                     addq.w     A7, 4
000024FC  6032                     bra        +0x34 /* 00002530 */
label000024FE:
000024FE  48C7                     ext.l      D7
00002500  2054                     movea.l    A0, [A4]
00002502  3028 006A                move.w     D0, [A0 + 0x6A]
00002506  48C0                     ext.l      D0
00002508  5E80                     addq.l     D0, 7
0000250A  B087                     cmp.l      D0, D7
0000250C  6622                     bne        +0x24 /* 00002530 */
0000250E  7000                     moveq.l    D0, 0x00
00002510  1028 0070                move.b     D0, [A0 + 0x70]
00002514  4A80                     tst.l      D0
00002516  6618                     bne        +0x1A /* 00002530 */
00002518  117C 0001 0070           move.b     [A0 + 0x70], 0x1
0000251E  7000                     moveq.l    D0, 0x00
00002520  2F00                     move.l     -[A7], D0
00002522  7201                     moveq.l    D1, 0x01
00002524  2F01                     move.l     -[A7], D1
00002526  2F0C                     move.l     -[A7], A4
00002528  4EAD 0B3A                jsr        [A5 + 0xB3A /* export_355, CODE:9 @ 00002854 */]
0000252C  4FEF 000C                lea.l      A7, [A7 + 0xC]
label00002530:
00002530  4CEE 10E0 FFF0           movem.l    D5,D6,D7,A4, [A6 - 0x10]
00002536  4E5E                     unlink     A6
00002538  4E75                     rts
export_384:
0000253A  4E56 0000                link       A6, 0
0000253E  48E7 1308                movem.l    -[A7], D3,D6,D7,A4
00002542  3E2E 000A                move.w     D7, [A6 + 0xA]
00002546  286E 000C                movea.l    A4, [A6 + 0xC]
0000254A  0C47 0004                cmpi.w     D7, 0x4
0000254E  660A                     bne        +0xC /* 0000255A */
00002550  2F0C                     move.l     -[A7], A4
00002552  4EBA F942                jsr        [PC - 0x6BE /* 00001E96 */]
00002556  584F                     addq.w     A7, 4
00002558  606C                     bra        +0x6E /* 000025C6 */
label0000255A:
0000255A  0C47 0006                cmpi.w     D7, 0x6
0000255E  660A                     bne        +0xC /* 0000256A */
00002560  2F0C                     move.l     -[A7], A4
00002562  4EBA F62A                jsr        [PC - 0x9D6 /* 00001B8E */]
00002566  584F                     addq.w     A7, 4
00002568  605C                     bra        +0x5E /* 000025C6 */
label0000256A:
0000256A  0C47 0002                cmpi.w     D7, 0x2
0000256E  6E56                     bgt        +0x58 /* 000025C6 */
00002570  0C47 0001                cmpi.w     D7, 0x1
00002574  57C3                     seq        D3
00002576  4403                     neg.b      D3
00002578  6704                     beq        +0x6 /* 0000257E */
0000257A  7005                     moveq.l    D0, 0x05
0000257C  6002                     bra        +0x4 /* 00002580 */
label0000257E:
0000257E  7004                     moveq.l    D0, 0x04
label00002580:
00002580  3C00                     move.w     D6, D0
00002582  2054                     movea.l    A0, [A4]
00002584  2068 0044                movea.l    A0, [A0 + 0x44]
00002588  2050                     movea.l    A0, [A0]
0000258A  BC68 003C                cmp.w      D6, [A0 + 0x3C]
0000258E  6736                     beq        +0x38 /* 000025C6 */
00002590  2054                     movea.l    A0, [A4]
00002592  3146 0068                move.w     [A0 + 0x68], D6
00002596  2054                     movea.l    A0, [A4]
00002598  2068 0044                movea.l    A0, [A0 + 0x44]
0000259C  2050                     movea.l    A0, [A0]
0000259E  3146 003C                move.w     [A0 + 0x3C], D6
000025A2  48C6                     ext.l      D6
000025A4  2054                     movea.l    A0, [A4]
000025A6  2068 006C                movea.l    A0, [A0 + 0x6C]
000025AA  2050                     movea.l    A0, [A0]
000025AC  2006                     move.l     D0, D6
000025AE  E580                     asl        D0, 2
000025B0  2254                     movea.l    A1, [A4]
000025B2  2370 0800 004C           move.l     [A1 + 0x4C], [A0 + D0]
000025B8  2F0C                     move.l     -[A7], A4
000025BA  4EBA DB7E                jsr        [PC - 0x2482 /* 0000013A */]
000025BE  2F0C                     move.l     -[A7], A4
000025C0  4EAD 0B2A                jsr        [A5 + 0xB2A /* export_353, CODE:9 @ 0000279A */]
000025C4  504F                     addq.w     A7, 8
label000025C6:
000025C6  4CEE 10C8 FFF0           movem.l    D3,D6,D7,A4, [A6 - 0x10]
000025CC  4E5E                     unlink     A6
000025CE  4E75                     rts
fn000025D0:
000025D0  4E56 0000                link       A6, 0
000025D4  48E7 0300                movem.l    -[A7], D6,D7
000025D8  3C2E 000E                move.w     D6, [A6 + 0xE]
000025DC  3006                     move.w     D0, D6
000025DE  C1EE 000A                muls.w     D0, [A6 + 0xA]
000025E2  5E80                     addq.l     D0, 7
000025E4  7208                     moveq.l    D1, 0x08
000025E6  4EAD 076A                jsr        [A5 + 0x76A /* export_233, CODE:3 @ 0000372A */]
000025EA  3E00                     move.w     D7, D0
000025EC  7001                     moveq.l    D0, 0x01
000025EE  C047                     and.w      D0, D7
000025F0  DE40                     add.w      D7, D0
000025F2  0C47 0002                cmpi.w     D7, 0x2
000025F6  6F14                     ble        +0x16 /* 0000260C */
000025F8  3006                     move.w     D0, D6
000025FA  C1EE 000A                muls.w     D0, [A6 + 0xA]
000025FE  721F                     moveq.l    D1, 0x1F
00002600  D081                     add.l      D0, D1
00002602  7220                     moveq.l    D1, 0x20
00002604  4EAD 076A                jsr        [A5 + 0x76A /* export_233, CODE:3 @ 0000372A */]
00002608  E580                     asl        D0, 2
0000260A  3E00                     move.w     D7, D0
label0000260C:
0000260C  48C7                     ext.l      D7
0000260E  203C 0000 8000           move.l     D0, 0x8000
00002614  8087                     or.l       D0, D7
00002616  4CEE 00C0 FFF8           movem.l    D6,D7, [A6 - 0x8]
0000261C  4E5E                     unlink     A6
0000261E  4E75                     rts
fn00002620:
00002620  4E56 0000                link       A6, 0
00002624  2F0C                     move.l     -[A7], A4
00002626  286E 0008                movea.l    A4, [A6 + 0x8]
0000262A  2054                     movea.l    A0, [A4]
0000262C  700F                     moveq.l    D0, 0x0F
0000262E  B068 0006                cmp.w      D0, [A0 + 0x6]
00002632  6C04                     bge        +0x6 /* 00002638 */
00002634  7008                     moveq.l    D0, 0x08
00002636  601E                     bra        +0x20 /* 00002656 */
label00002638:
00002638  2054                     movea.l    A0, [A4]
0000263A  7003                     moveq.l    D0, 0x03
0000263C  B068 0006                cmp.w      D0, [A0 + 0x6]
00002640  6C04                     bge        +0x6 /* 00002646 */
00002642  7004                     moveq.l    D0, 0x04
00002644  6010                     bra        +0x12 /* 00002656 */
label00002646:
00002646  2054                     movea.l    A0, [A4]
00002648  7001                     moveq.l    D0, 0x01
0000264A  B068 0006                cmp.w      D0, [A0 + 0x6]
0000264E  6C04                     bge        +0x6 /* 00002654 */
00002650  7002                     moveq.l    D0, 0x02
00002652  6002                     bra        +0x4 /* 00002656 */
label00002654:
00002654  7001                     moveq.l    D0, 0x01
label00002656:
00002656  286E FFFC                movea.l    A4, [A6 - 0x4]
0000265A  4E5E                     unlink     A6
0000265C  4E75                     rts
fn0000265E:
0000265E  4E56 FFF0                link       A6, -0x0010
00002662  48E7 0F18                movem.l    -[A7], D4,D5,D6,D7,A3,A4
00002666  286E 0010                movea.l    A4, [A6 + 0x10]
0000266A  206E 0008                movea.l    A0, [A6 + 0x8]
0000266E  4A68 001E                tst.w      [A0 + 0x1E]
00002672  6706                     beq        +0x8 /* 0000267A */
00002674  7000                     moveq.l    D0, 0x00
00002676  6000 0258                bra        +0x25A /* 000028D0 */
label0000267A:
0000267A  206E 0008                movea.l    A0, [A6 + 0x8]
0000267E  3828 0020                move.w     D4, [A0 + 0x20]
00002682  7000                     moveq.l    D0, 0x00
00002684  3004                     move.w     D0, D4
00002686  7208                     moveq.l    D1, 0x08
00002688  B280                     cmp.l      D1, D0
0000268A  6724                     beq        +0x26 /* 000026B0 */
0000268C  7000                     moveq.l    D0, 0x00
0000268E  3004                     move.w     D0, D4
00002690  7204                     moveq.l    D1, 0x04
00002692  B280                     cmp.l      D1, D0
00002694  671A                     beq        +0x1C /* 000026B0 */
00002696  7000                     moveq.l    D0, 0x00
00002698  3004                     move.w     D0, D4
0000269A  7202                     moveq.l    D1, 0x02
0000269C  B280                     cmp.l      D1, D0
0000269E  6710                     beq        +0x12 /* 000026B0 */
000026A0  7000                     moveq.l    D0, 0x00
000026A2  3004                     move.w     D0, D4
000026A4  7201                     moveq.l    D1, 0x01
000026A6  B280                     cmp.l      D1, D0
000026A8  6706                     beq        +0x8 /* 000026B0 */
000026AA  7000                     moveq.l    D0, 0x00
000026AC  6000 0222                bra        +0x224 /* 000028D0 */
label000026B0:
000026B0  7001                     moveq.l    D0, 0x01
000026B2  E9A8                     lsl        D0, D4
000026B4  A322                     syscall    NewHandleClear, flags=3
000026B6  2D48 FFF0                move.l     [A6 - 0x10], A0
000026BA  38B8 0220                move.w     [A4], [0x00000220 /* MemErr */]
000026BE  6706                     beq        +0x8 /* 000026C6 */
000026C0  7000                     moveq.l    D0, 0x00
000026C2  6000 020C                bra        +0x20E /* 000028D0 */
label000026C6:
000026C6  7000                     moveq.l    D0, 0x00
000026C8  3004                     move.w     D0, D4
000026CA  7201                     moveq.l    D1, 0x01
000026CC  B280                     cmp.l      D1, D0
000026CE  661E                     bne        +0x20 /* 000026EE */
000026D0  206E FFF0                movea.l    A0, [A6 - 0x10]
000026D4  2050                     movea.l    A0, [A0]
000026D6  117C 0001 0001           move.b     [A0 + 0x1], 0x1
000026DC  206E FFF0                movea.l    A0, [A6 - 0x10]
000026E0  2050                     movea.l    A0, [A0]
000026E2  10BC 0001                move.b     [A0], 0x1
000026E6  202E FFF0                move.l     D0, [A6 - 0x10]
000026EA  6000 01E4                bra        +0x1E6 /* 000028D0 */
label000026EE:
000026EE  206E FFF0                movea.l    A0, [A6 - 0x10]
000026F2  A029                     syscall    HLock
000026F4  206E FFF0                movea.l    A0, [A6 - 0x10]
000026F8  2850                     movea.l    A4, [A0]
000026FA  7000                     moveq.l    D0, 0x00
000026FC  3004                     move.w     D0, D4
000026FE  7208                     moveq.l    D1, 0x08
00002700  B280                     cmp.l      D1, D0
00002702  6604                     bne        +0x6 /* 00002708 */
00002704  7C01                     moveq.l    D6, 0x01
00002706  6010                     bra        +0x12 /* 00002718 */
label00002708:
00002708  7000                     moveq.l    D0, 0x00
0000270A  3004                     move.w     D0, D4
0000270C  7204                     moveq.l    D1, 0x04
0000270E  B280                     cmp.l      D1, D0
00002710  6604                     bne        +0x6 /* 00002716 */
00002712  7C02                     moveq.l    D6, 0x02
00002714  6002                     bra        +0x4 /* 00002718 */
label00002716:
00002716  7C04                     moveq.l    D6, 0x04
label00002718:
00002718  4A2E 000F                tst.b      [A6 + 0xF]
0000271C  6710                     beq        +0x12 /* 0000272E */
0000271E  18BC 0001                move.b     [A4], 0x1
00002722  7001                     moveq.l    D0, 0x01
00002724  E9A8                     lsl        D0, D4
00002726  5380                     subq.l     D0, 1
00002728  19BC 0001 0800           move.b     [A4 + D0], 0x1
label0000272E:
0000272E  206E 0008                movea.l    A0, [A6 + 0x8]
00002732  3028 000C                move.w     D0, [A0 + 0xC]
00002736  48C0                     ext.l      D0
00002738  3228 0008                move.w     D1, [A0 + 0x8]
0000273C  48C1                     ext.l      D1
0000273E  9081                     sub.l      D0, D1
00002740  3D40 FFF4                move.w     [A6 - 0xC], D0
00002744  206E 0008                movea.l    A0, [A6 + 0x8]
00002748  3028 0004                move.w     D0, [A0 + 0x4]
0000274C  48C0                     ext.l      D0
0000274E  323C 7FFF                move.w     D1, 0x7FFF
00002752  C240                     and.w      D1, D0
00002754  3D41 FFF6                move.w     [A6 - 0xA], D1
00002758  2D50 FFF8                move.l     [A6 - 0x8], [A0]
0000275C  4245                     clr.w      D5
0000275E  6000 0148                bra        +0x14A /* 000028A8 */
label00002762:
00002762  302E FFF6                move.w     D0, [A6 - 0xA]
00002766  C0C5                     mulu.w     D0, D5
00002768  2640                     movea.l    A3, D0
0000276A  D7EE FFF8                add.l      A3, [A6 - 0x8]
0000276E  7000                     moveq.l    D0, 0x00
00002770  302E FFF4                move.w     D0, [A6 - 0xC]
00002774  80C6                     divu.w     D0, D6
00002776  7200                     moveq.l    D1, 0x00
00002778  3200                     move.w     D1, D0
0000277A  D28B                     add.l      D1, A3
0000277C  2D41 FFFC                move.l     [A6 - 0x4], D1
00002780  7000                     moveq.l    D0, 0x00
00002782  302E FFF4                move.w     D0, [A6 - 0xC]
00002786  80C6                     divu.w     D0, D6
00002788  4840                     swap.w     D0
0000278A  3800                     move.w     D4, D0
0000278C  6000 009E                bra        +0xA0 /* 0000282C */
label00002790:
00002790  1E1B                     move.b     D7, [A3]+
00002792  7000                     moveq.l    D0, 0x00
00002794  3006                     move.w     D0, D6
00002796  7201                     moveq.l    D1, 0x01
00002798  B280                     cmp.l      D1, D0
0000279A  660E                     bne        +0x10 /* 000027AA */
0000279C  7000                     moveq.l    D0, 0x00
0000279E  1007                     move.b     D0, D7
000027A0  19BC 0001 0000           move.b     [A4 + D0.w], 0x1
000027A6  6000 0084                bra        +0x86 /* 0000282C */
label000027AA:
000027AA  7000                     moveq.l    D0, 0x00
000027AC  3006                     move.w     D0, D6
000027AE  7202                     moveq.l    D1, 0x02
000027B0  B280                     cmp.l      D1, D0
000027B2  6622                     bne        +0x24 /* 000027D6 */
000027B4  7000                     moveq.l    D0, 0x00
000027B6  1007                     move.b     D0, D7
000027B8  720F                     moveq.l    D1, 0x0F
000027BA  C200                     and.b      D1, D0
000027BC  7000                     moveq.l    D0, 0x00
000027BE  1001                     move.b     D0, D1
000027C0  19BC 0001 0000           move.b     [A4 + D0.w], 0x1
000027C6  1007                     move.b     D0, D7
000027C8  E808                     lsr        D0.b, 4
000027CA  7200                     moveq.l    D1, 0x00
000027CC  1200                     move.b     D1, D0
000027CE  19BC 0001 1000           move.b     [A4 + D1.w], 0x1
000027D4  6056                     bra        +0x58 /* 0000282C */
label000027D6:
000027D6  7000                     moveq.l    D0, 0x00
000027D8  3006                     move.w     D0, D6
000027DA  7204                     moveq.l    D1, 0x04
000027DC  B280                     cmp.l      D1, D0
000027DE  664C                     bne        +0x4E /* 0000282C */
000027E0  7000                     moveq.l    D0, 0x00
000027E2  1007                     move.b     D0, D7
000027E4  7203                     moveq.l    D1, 0x03
000027E6  C200                     and.b      D1, D0
000027E8  7000                     moveq.l    D0, 0x00
000027EA  1001                     move.b     D0, D1
000027EC  19BC 0001 0000           move.b     [A4 + D0.w], 0x1
000027F2  1007                     move.b     D0, D7
000027F4  E408                     lsr        D0.b, 2
000027F6  7200                     moveq.l    D1, 0x00
000027F8  1200                     move.b     D1, D0
000027FA  7003                     moveq.l    D0, 0x03
000027FC  C001                     and.b      D0, D1
000027FE  7200                     moveq.l    D1, 0x00
00002800  1200                     move.b     D1, D0
00002802  19BC 0001 1000           move.b     [A4 + D1.w], 0x1
00002808  1007                     move.b     D0, D7
0000280A  E808                     lsr        D0.b, 4
0000280C  7200                     moveq.l    D1, 0x00
0000280E  1200                     move.b     D1, D0
00002810  7003                     moveq.l    D0, 0x03
00002812  C001                     and.b      D0, D1
00002814  7200                     moveq.l    D1, 0x00
00002816  1200                     move.b     D1, D0
00002818  19BC 0001 1000           move.b     [A4 + D1.w], 0x1
0000281E  1007                     move.b     D0, D7
00002820  EC08                     lsr        D0.b, 6
00002822  7200                     moveq.l    D1, 0x00
00002824  1200                     move.b     D1, D0
00002826  19BC 0001 1000           move.b     [A4 + D1.w], 0x1
label0000282C:
0000282C  B7EE FFFC                cmpa.l     A3, [A6 - 0x4]
00002830  6500 FF5E                bcs        -0xA0 /* 00002790 */
00002834  7000                     moveq.l    D0, 0x00
00002836  3004                     move.w     D0, D4
00002838  4A80                     tst.l      D0
0000283A  6368                     bls        +0x6A /* 000028A4 */
0000283C  7000                     moveq.l    D0, 0x00
0000283E  3006                     move.w     D0, D6
00002840  7202                     moveq.l    D1, 0x02
00002842  B280                     cmp.l      D1, D0
00002844  6612                     bne        +0x14 /* 00002858 */
00002846  1E13                     move.b     D7, [A3]
00002848  1007                     move.b     D0, D7
0000284A  E808                     lsr        D0.b, 4
0000284C  7200                     moveq.l    D1, 0x00
0000284E  1200                     move.b     D1, D0
00002850  19BC 0001 1000           move.b     [A4 + D1.w], 0x1
00002856  604C                     bra        +0x4E /* 000028A4 */
label00002858:
00002858  1E13                     move.b     D7, [A3]
0000285A  3004                     move.w     D0, D4
0000285C  5340                     subq.w     D0, 1
0000285E  670A                     beq        +0xC /* 0000286A */
00002860  5340                     subq.w     D0, 1
00002862  6714                     beq        +0x16 /* 00002878 */
00002864  5340                     subq.w     D0, 1
00002866  6726                     beq        +0x28 /* 0000288E */
00002868  603A                     bra        +0x3C /* 000028A4 */
label0000286A:
0000286A  1007                     move.b     D0, D7
0000286C  EC08                     lsr        D0.b, 6
0000286E  7200                     moveq.l    D1, 0x00
00002870  1200                     move.b     D1, D0
00002872  19BC 0001 1000           move.b     [A4 + D1.w], 0x1
label00002878:
00002878  1007                     move.b     D0, D7
0000287A  E808                     lsr        D0.b, 4
0000287C  7200                     moveq.l    D1, 0x00
0000287E  1200                     move.b     D1, D0
00002880  7003                     moveq.l    D0, 0x03
00002882  C001                     and.b      D0, D1
00002884  7200                     moveq.l    D1, 0x00
00002886  1200                     move.b     D1, D0
00002888  19BC 0001 1000           move.b     [A4 + D1.w], 0x1
label0000288E:
0000288E  1007                     move.b     D0, D7
00002890  E408                     lsr        D0.b, 2
00002892  7200                     moveq.l    D1, 0x00
00002894  1200                     move.b     D1, D0
00002896  7003                     moveq.l    D0, 0x03
00002898  C001                     and.b      D0, D1
0000289A  7200                     moveq.l    D1, 0x00
0000289C  1200                     move.b     D1, D0
0000289E  19BC 0001 1000           move.b     [A4 + D1.w], 0x1
label000028A4:
000028A4  3005                     move.w     D0, D5
000028A6  5245                     addq.w     D5, 1
label000028A8:
000028A8  7000                     moveq.l    D0, 0x00
000028AA  3005                     move.w     D0, D5
000028AC  4A80                     tst.l      D0
000028AE  206E 0008                movea.l    A0, [A6 + 0x8]
000028B2  3228 000A                move.w     D1, [A0 + 0xA]
000028B6  48C1                     ext.l      D1
000028B8  3428 0006                move.w     D2, [A0 + 0x6]
000028BC  48C2                     ext.l      D2
000028BE  9282                     sub.l      D1, D2
000028C0  B280                     cmp.l      D1, D0
000028C2  6E00 FE9E                bgt        -0x160 /* 00002762 */
000028C6  206E FFF0                movea.l    A0, [A6 - 0x10]
000028CA  A02A                     syscall    HUnlock
000028CC  202E FFF0                move.l     D0, [A6 - 0x10]
label000028D0:
000028D0  4CEE 18F0 FFD8           movem.l    D4,D5,D6,D7,A3,A4, [A6 - 0x28]
000028D6  4E5E                     unlink     A6
000028D8  4E75                     rts
fn000028DA:
000028DA  4E56 FFF4                link       A6, -0x000C
000028DE  48E7 0F38                movem.l    -[A7], D4,D5,D6,D7,A2,A3,A4
000028E2  266E 000C                movea.l    A3, [A6 + 0xC]
000028E6  3A2E 0012                move.w     D5, [A6 + 0x12]
000028EA  286E 0008                movea.l    A4, [A6 + 0x8]
000028EE  4246                     clr.w      D6
000028F0  4247                     clr.w      D7
000028F2  6002                     bra        +0x4 /* 000028F6 */
label000028F4:
000028F4  5247                     addq.w     D7, 1
label000028F6:
000028F6  48C7                     ext.l      D7
000028F8  2054                     movea.l    A0, [A4]
000028FA  2007                     move.l     D0, D7
000028FC  E780                     asl        D0, 3
000028FE  2253                     movea.l    A1, [A3]
00002900  3030 0808                move.w     D0, [A0 + D0 + 0x8]
00002904  7200                     moveq.l    D1, 0x00
00002906  1231 0000                move.b     D1, [A1 + D0.w]
0000290A  0C41 0001                cmpi.w     D1, 0x1
0000290E  6604                     bne        +0x6 /* 00002914 */
00002910  BA47                     cmp.w      D5, D7
00002912  6EE0                     bgt        -0x1E /* 000028F4 */
label00002914:
00002914  BA47                     cmp.w      D5, D7
00002916  6F0A                     ble        +0xC /* 00002922 */
00002918  3007                     move.w     D0, D7
0000291A  5340                     subq.w     D0, 1
0000291C  2054                     movea.l    A0, [A4]
0000291E  3140 0006                move.w     [A0 + 0x6], D0
label00002922:
00002922  BC47                     cmp.w      D6, D7
00002924  6C06                     bge        +0x8 /* 0000292C */
00002926  3C07                     move.w     D6, D7
00002928  6002                     bra        +0x4 /* 0000292C */
label0000292A:
0000292A  5246                     addq.w     D6, 1
label0000292C:
0000292C  48C6                     ext.l      D6
0000292E  2054                     movea.l    A0, [A4]
00002930  2006                     move.l     D0, D6
00002932  E780                     asl        D0, 3
00002934  2253                     movea.l    A1, [A3]
00002936  3030 0808                move.w     D0, [A0 + D0 + 0x8]
0000293A  7200                     moveq.l    D1, 0x00
0000293C  1231 0000                move.b     D1, [A1 + D0.w]
00002940  4A81                     tst.l      D1
00002942  6604                     bne        +0x6 /* 00002948 */
00002944  BA46                     cmp.w      D5, D6
00002946  6CE2                     bge        -0x1C /* 0000292A */
label00002948:
00002948  BA46                     cmp.w      D5, D6
0000294A  6D66                     blt        +0x68 /* 000029B2 */
0000294C  BA47                     cmp.w      D5, D7
0000294E  6F62                     ble        +0x64 /* 000029B2 */
00002950  48C7                     ext.l      D7
00002952  2054                     movea.l    A0, [A4]
00002954  2007                     move.l     D0, D7
00002956  E780                     asl        D0, 3
00002958  43EE FFF4                lea.l      A1, [A6 - 0xC]
0000295C  41F0 0808                lea.l      A0, [A0 + D0 + 0x8]
00002960  22D8                     move.l     [A1]+, [A0]+
00002962  22D8                     move.l     [A1]+, [A0]+
00002964  48C6                     ext.l      D6
00002966  2054                     movea.l    A0, [A4]
00002968  2006                     move.l     D0, D6
0000296A  E780                     asl        D0, 3
0000296C  2253                     movea.l    A1, [A3]
0000296E  3030 0808                move.w     D0, [A0 + D0 + 0x8]
00002972  4231 0000                clr.b      [A1 + D0.w]
00002976  2054                     movea.l    A0, [A4]
00002978  5088                     addq.l     A0, 8
0000297A  2D48 FFFC                move.l     [A6 - 0x4], A0
0000297E  48C6                     ext.l      D6
00002980  2806                     move.l     D4, D6
00002982  E784                     asl        D4, 3
00002984  48C7                     ext.l      D7
00002986  2248                     movea.l    A1, A0
00002988  2007                     move.l     D0, D7
0000298A  E780                     asl        D0, 3
0000298C  D1C4                     add.l      A0, D4
0000298E  45F1 0800                lea.l      A2, [A1 + D0]
00002992  24D8                     move.l     [A2]+, [A0]+
00002994  24D8                     move.l     [A2]+, [A0]+
00002996  206E FFFC                movea.l    A0, [A6 - 0x4]
0000299A  D1C4                     add.l      A0, D4
0000299C  43EE FFF4                lea.l      A1, [A6 - 0xC]
000029A0  20D9                     move.l     [A0]+, [A1]+
000029A2  20D9                     move.l     [A0]+, [A1]+
000029A4  2054                     movea.l    A0, [A4]
000029A6  3147 0006                move.w     [A0 + 0x6], D7
000029AA  5247                     addq.w     D7, 1
000029AC  5246                     addq.w     D6, 1
000029AE  6000 FF46                bra        -0xB8 /* 000028F6 */
label000029B2:
000029B2  4CEE 1CF0 FFD8           movem.l    D4,D5,D6,D7,A2,A3,A4, [A6 - 0x28]
000029B8  4E5E                     unlink     A6
000029BA  4E75                     rts
fn000029BC:
000029BC  4E56 0000                link       A6, 0
000029C0  48E7 0118                movem.l    -[A7], D7,A3,A4
000029C4  266E 0008                movea.l    A3, [A6 + 0x8]
000029C8  302B 0020                move.w     D0, [A3 + 0x20]
000029CC  7201                     moveq.l    D1, 0x01
000029CE  E1A9                     lsl        D1, D0
000029D0  2E01                     move.l     D7, D1
000029D2  5387                     subq.l     D7, 1
000029D4  2F2E 0010                move.l     -[A7], [A6 + 0x10]
000029D8  7000                     moveq.l    D0, 0x00
000029DA  102E 000F                move.b     D0, [A6 + 0xF]
000029DE  2F00                     move.l     -[A7], D0
000029E0  2F0B                     move.l     -[A7], A3
000029E2  4EBA FC7A                jsr        [PC - 0x386 /* 0000265E */]
000029E6  2840                     movea.l    A4, D0
000029E8  200C                     move.l     D0, A4
000029EA  4FEF 000C                lea.l      A7, [A7 + 0xC]
000029EE  6716                     beq        +0x18 /* 00002A06 */
000029F0  48C7                     ext.l      D7
000029F2  2F07                     move.l     -[A7], D7
000029F4  2F0C                     move.l     -[A7], A4
000029F6  2F2B 002A                move.l     -[A7], [A3 + 0x2A]
000029FA  4EBA FEDE                jsr        [PC - 0x122 /* 000028DA */]
000029FE  204C                     movea.l    A0, A4
00002A00  A023                     syscall    DisposHandle/DisposeHandle
00002A02  4FEF 000C                lea.l      A7, [A7 + 0xC]
label00002A06:
00002A06  4CEE 1880 FFF4           movem.l    D7,A3,A4, [A6 - 0xC]
00002A0C  4E5E                     unlink     A6
00002A0E  4E75                     rts
fn00002A10:
00002A10  4E56 FFF8                link       A6, -0x0008
00002A14  48E7 0118                movem.l    -[A7], D7,A3,A4
00002A18  206E 0008                movea.l    A0, [A6 + 0x8]
00002A1C  2868 002A                movea.l    A4, [A0 + 0x2A]
00002A20  2F2E 000C                move.l     -[A7], [A6 + 0xC]
00002A24  7001                     moveq.l    D0, 0x01
00002A26  2F00                     move.l     -[A7], D0
00002A28  2F08                     move.l     -[A7], A0
00002A2A  4EBA FC32                jsr        [PC - 0x3CE /* 0000265E */]
00002A2E  2640                     movea.l    A3, D0
00002A30  200B                     move.l     D0, A3
00002A32  4FEF 000C                lea.l      A7, [A7 + 0xC]
00002A36  6604                     bne        +0x6 /* 00002A3C */
00002A38  70FF                     moveq.l    D0, 0xFFFFFFFF
00002A3A  6038                     bra        +0x3A /* 00002A74 */
label00002A3C:
00002A3C  4247                     clr.w      D7
00002A3E  6026                     bra        +0x28 /* 00002A66 */
label00002A40:
00002A40  48C7                     ext.l      D7
00002A42  2054                     movea.l    A0, [A4]
00002A44  2007                     move.l     D0, D7
00002A46  E780                     asl        D0, 3
00002A48  43EE FFF8                lea.l      A1, [A6 - 0x8]
00002A4C  41F0 0808                lea.l      A0, [A0 + D0 + 0x8]
00002A50  22D8                     move.l     [A1]+, [A0]+
00002A52  22D8                     move.l     [A1]+, [A0]+
00002A54  2053                     movea.l    A0, [A3]
00002A56  302E FFF8                move.w     D0, [A6 - 0x8]
00002A5A  7200                     moveq.l    D1, 0x00
00002A5C  1230 0000                move.b     D1, [A0 + D0.w]
00002A60  4A81                     tst.l      D1
00002A62  670A                     beq        +0xC /* 00002A6E */
00002A64  5247                     addq.w     D7, 1
label00002A66:
00002A66  2054                     movea.l    A0, [A4]
00002A68  BE68 0006                cmp.w      D7, [A0 + 0x6]
00002A6C  6FD2                     ble        -0x2C /* 00002A40 */
label00002A6E:
00002A6E  204B                     movea.l    A0, A3
00002A70  A023                     syscall    DisposHandle/DisposeHandle
00002A72  3007                     move.w     D0, D7
label00002A74:
00002A74  4CEE 1880 FFEC           movem.l    D7,A3,A4, [A6 - 0x14]
00002A7A  4E5E                     unlink     A6
00002A7C  4E75                     rts
fn00002A7E:
00002A7E  4E56 0000                link       A6, 0
00002A82  48E7 0108                movem.l    -[A7], D7,A4
00002A86  286E 0008                movea.l    A4, [A6 + 0x8]
00002A8A  4247                     clr.w      D7
00002A8C  6020                     bra        +0x22 /* 00002AAE */
label00002A8E:
00002A8E  48C7                     ext.l      D7
00002A90  2054                     movea.l    A0, [A4]
00002A92  2007                     move.l     D0, D7
00002A94  E780                     asl        D0, 3
00002A96  41F0 080A                lea.l      A0, [A0 + D0 + 0xA]
00002A9A  43EE 000C                lea.l      A1, [A6 + 0xC]
00002A9E  7002                     moveq.l    D0, 0x02
label00002AA0:
00002AA0  B149                     cmpm.w     [A0]+, [A1]+
00002AA2  56C8 FFFC                dbne       D0, -0x6 /* 00002AA0 */
00002AA6  6604                     bne        +0x6 /* 00002AAC */
00002AA8  7001                     moveq.l    D0, 0x01
00002AAA  600C                     bra        +0xE /* 00002AB8 */
label00002AAC:
00002AAC  5247                     addq.w     D7, 1
label00002AAE:
00002AAE  2054                     movea.l    A0, [A4]
00002AB0  BE68 0006                cmp.w      D7, [A0 + 0x6]
00002AB4  6FD8                     ble        -0x26 /* 00002A8E */
00002AB6  7000                     moveq.l    D0, 0x00
label00002AB8:
00002AB8  4CEE 1080 FFF8           movem.l    D7,A4, [A6 - 0x8]
00002ABE  4E5E                     unlink     A6
00002AC0  4E75                     rts
fn00002AC2:
00002AC2  4E56 FFEE                link       A6, -0x0012
00002AC6  48E7 0718                movem.l    -[A7], D5,D6,D7,A3,A4
00002ACA  206E 0010                movea.l    A0, [A6 + 0x10]
00002ACE  2050                     movea.l    A0, [A0]
00002AD0  2068 0044                movea.l    A0, [A0 + 0x44]
00002AD4  2D48 FFFC                move.l     [A6 - 0x4], A0
00002AD8  2050                     movea.l    A0, [A0]
00002ADA  2868 002C                movea.l    A4, [A0 + 0x2C]
00002ADE  4205                     clr.b      D5
00002AE0  4247                     clr.w      D7
00002AE2  206E 000C                movea.l    A0, [A6 + 0xC]
00002AE6  4210                     clr.b      [A0]
00002AE8  206E FFFC                movea.l    A0, [A6 - 0x4]
00002AEC  A029                     syscall    HLock
00002AEE  206E FFFC                movea.l    A0, [A6 - 0x4]
00002AF2  2050                     movea.l    A0, [A0]
00002AF4  2068 0034                movea.l    A0, [A0 + 0x34]
00002AF8  A029                     syscall    HLock
00002AFA  598F                     subq.l     A7, 4
00002AFC  206E FFFC                movea.l    A0, [A6 - 0x4]
00002B00  2050                     movea.l    A0, [A0]
00002B02  2068 0034                movea.l    A0, [A0 + 0x34]
00002B06  2F10                     move.l     -[A7], [A0]
00002B08  4EAD 0752                jsr        [A5 + 0x752 /* export_230, CODE:3 @ 00003690 */]
00002B0C  206E FFFC                movea.l    A0, [A6 - 0x4]
00002B10  2050                     movea.l    A0, [A0]
00002B12  215F 0002                move.l     [A0 + 0x2], [A7]+
00002B16  206E 0010                movea.l    A0, [A6 + 0x10]
00002B1A  2050                     movea.l    A0, [A0]
00002B1C  2F08                     move.l     -[A7], A0
00002B1E  7001                     moveq.l    D0, 0x01
00002B20  2F00                     move.l     -[A7], D0
00002B22  206E FFFC                movea.l    A0, [A6 - 0x4]
00002B26  2050                     movea.l    A0, [A0]
00002B28  4868 0002                pea.l      [A0 + 0x2]
00002B2C  4EBA FB30                jsr        [PC - 0x4D0 /* 0000265E */]
00002B30  2640                     movea.l    A3, D0
00002B32  200B                     move.l     D0, A3
00002B34  4FEF 000C                lea.l      A7, [A7 + 0xC]
00002B38  6700 00B4                beq        +0xB6 /* 00002BEE */
00002B3C  4246                     clr.w      D6
00002B3E  6000 008A                bra        +0x8C /* 00002BCA */
label00002B42:
00002B42  48C6                     ext.l      D6
00002B44  206E 0008                movea.l    A0, [A6 + 0x8]
00002B48  2050                     movea.l    A0, [A0]
00002B4A  2006                     move.l     D0, D6
00002B4C  E780                     asl        D0, 3
00002B4E  43EE FFF6                lea.l      A1, [A6 - 0xA]
00002B52  41F0 080A                lea.l      A0, [A0 + D0 + 0xA]
00002B56  22D8                     move.l     [A1]+, [A0]+
00002B58  32D8                     move.w     [A1]+, [A0]+
00002B5A  41EE FFFC                lea.l      A0, [A6 - 0x4]
00002B5E  2F20                     move.l     -[A7], -[A0]
00002B60  3F20                     move.w     -[A7], -[A0]
00002B62  2F0C                     move.l     -[A7], A4
00002B64  4EBA FF18                jsr        [PC - 0xE8 /* 00002A7E */]
00002B68  4A00                     tst.b      D0
00002B6A  4FEF 000A                lea.l      A7, [A7 + 0xA]
00002B6E  6658                     bne        +0x5A /* 00002BC8 */
00002B70  6026                     bra        +0x28 /* 00002B98 */
label00002B72:
00002B72  48C7                     ext.l      D7
00002B74  2054                     movea.l    A0, [A4]
00002B76  2007                     move.l     D0, D7
00002B78  E780                     asl        D0, 3
00002B7A  43EE FFEE                lea.l      A1, [A6 - 0x12]
00002B7E  41F0 0808                lea.l      A0, [A0 + D0 + 0x8]
00002B82  22D8                     move.l     [A1]+, [A0]+
00002B84  22D8                     move.l     [A1]+, [A0]+
00002B86  2053                     movea.l    A0, [A3]
00002B88  302E FFEE                move.w     D0, [A6 - 0x12]
00002B8C  7200                     moveq.l    D1, 0x00
00002B8E  1230 0000                move.b     D1, [A0 + D0.w]
00002B92  4A81                     tst.l      D1
00002B94  670A                     beq        +0xC /* 00002BA0 */
00002B96  5247                     addq.w     D7, 1
label00002B98:
00002B98  2054                     movea.l    A0, [A4]
00002B9A  BE68 0006                cmp.w      D7, [A0 + 0x6]
00002B9E  6FD2                     ble        -0x2C /* 00002B72 */
label00002BA0:
00002BA0  2054                     movea.l    A0, [A4]
00002BA2  BE68 0006                cmp.w      D7, [A0 + 0x6]
00002BA6  6E18                     bgt        +0x1A /* 00002BC0 */
00002BA8  48C7                     ext.l      D7
00002BAA  2007                     move.l     D0, D7
00002BAC  E780                     asl        D0, 3
00002BAE  41F0 080A                lea.l      A0, [A0 + D0 + 0xA]
00002BB2  43EE FFF6                lea.l      A1, [A6 - 0xA]
00002BB6  20D9                     move.l     [A0]+, [A1]+
00002BB8  30D9                     move.w     [A0]+, [A1]+
00002BBA  7A01                     moveq.l    D5, 0x01
00002BBC  5247                     addq.w     D7, 1
00002BBE  6008                     bra        +0xA /* 00002BC8 */
label00002BC0:
00002BC0  206E 000C                movea.l    A0, [A6 + 0xC]
00002BC4  10BC 0001                move.b     [A0], 0x1
label00002BC8:
00002BC8  5246                     addq.w     D6, 1
label00002BCA:
00002BCA  206E 0008                movea.l    A0, [A6 + 0x8]
00002BCE  2050                     movea.l    A0, [A0]
00002BD0  BC68 0006                cmp.w      D6, [A0 + 0x6]
00002BD4  6E14                     bgt        +0x16 /* 00002BEA */
00002BD6  206E 000C                movea.l    A0, [A6 + 0xC]
00002BDA  4A10                     tst.b      [A0]
00002BDC  660C                     bne        +0xE /* 00002BEA */
00002BDE  206E 0010                movea.l    A0, [A6 + 0x10]
00002BE2  2050                     movea.l    A0, [A0]
00002BE4  4A50                     tst.w      [A0]
00002BE6  6700 FF5A                beq        -0xA4 /* 00002B42 */
label00002BEA:
00002BEA  204B                     movea.l    A0, A3
00002BEC  A023                     syscall    DisposHandle/DisposeHandle
label00002BEE:
00002BEE  206E FFFC                movea.l    A0, [A6 - 0x4]
00002BF2  2050                     movea.l    A0, [A0]
00002BF4  2068 0034                movea.l    A0, [A0 + 0x34]
00002BF8  A02A                     syscall    HUnlock
00002BFA  206E FFFC                movea.l    A0, [A6 - 0x4]
00002BFE  A02A                     syscall    HUnlock
00002C00  1005                     move.b     D0, D5
00002C02  4CEE 18E0 FFDA           movem.l    D5,D6,D7,A3,A4, [A6 - 0x26]
00002C08  4E5E                     unlink     A6
00002C0A  4E75                     rts
fn00002C0C:
00002C0C  4E56 FFE6                link       A6, -0x001A
00002C10  48E7 0F18                movem.l    -[A7], D4,D5,D6,D7,A3,A4
00002C14  266E 0008                movea.l    A3, [A6 + 0x8]
00002C18  382E 000E                move.w     D4, [A6 + 0xE]
00002C1C  286B 002A                movea.l    A4, [A3 + 0x2A]
00002C20  7000                     moveq.l    D0, 0x00
00002C22  2D40 FFEC                move.l     [A6 - 0x14], D0
00002C26  322B 0020                move.w     D1, [A3 + 0x20]
00002C2A  7401                     moveq.l    D2, 0x01
00002C2C  E3AA                     lsl        D2, D1
00002C2E  3D42 FFFE                move.w     [A6 - 0x2], D2
00002C32  2F2E 0014                move.l     -[A7], [A6 + 0x14]
00002C36  7000                     moveq.l    D0, 0x00
00002C38  2F00                     move.l     -[A7], D0
00002C3A  2F0B                     move.l     -[A7], A3
00002C3C  4EBA FA20                jsr        [PC - 0x5E0 /* 0000265E */]
00002C40  2D40 FFEC                move.l     [A6 - 0x14], D0
00002C44  4FEF 000C                lea.l      A7, [A7 + 0xC]
00002C48  6606                     bne        +0x8 /* 00002C50 */
00002C4A  7000                     moveq.l    D0, 0x00
00002C4C  6000 0156                bra        +0x158 /* 00002DA4 */
label00002C50:
00002C50  48C4                     ext.l      D4
00002C52  2004                     move.l     D0, D4
00002C54  5280                     addq.l     D0, 1
00002C56  E780                     asl        D0, 3
00002C58  5080                     addq.l     D0, 8
00002C5A  A322                     syscall    NewHandleClear, flags=3
00002C5C  2648                     movea.l    A3, A0
00002C5E  206E 0014                movea.l    A0, [A6 + 0x14]
00002C62  30B8 0220                move.w     [A0], [0x00000220 /* MemErr */]
00002C66  206E 0014                movea.l    A0, [A6 + 0x14]
00002C6A  4A50                     tst.w      [A0]
00002C6C  670C                     beq        +0xE /* 00002C7A */
00002C6E  206E FFEC                movea.l    A0, [A6 - 0x14]
00002C72  A023                     syscall    DisposHandle/DisposeHandle
00002C74  7000                     moveq.l    D0, 0x00
00002C76  6000 012C                bra        +0x12E /* 00002DA4 */
label00002C7A:
00002C7A  4245                     clr.w      D5
00002C7C  3D44 FFF0                move.w     [A6 - 0x10], D4
00002C80  42AE FFFA                clr.l      [A6 - 0x6]
00002C84  426E FFF8                clr.w      [A6 - 0x8]
00002C88  3D7C FFFF FFF6           move.w     [A6 - 0xA], 0xFFFF
00002C8E  3D7C FFFF FFF4           move.w     [A6 - 0xC], 0xFFFF
00002C94  3D7C FFFF FFF2           move.w     [A6 - 0xE], 0xFFFF
00002C9A  4247                     clr.w      D7
00002C9C  600E                     bra        +0x10 /* 00002CAC */
label00002C9E:
00002C9E  48C7                     ext.l      D7
00002CA0  2053                     movea.l    A0, [A3]
00002CA2  2007                     move.l     D0, D7
00002CA4  E780                     asl        D0, 3
00002CA6  3187 0808                move.w     [A0 + D0 + 0x8], D7
00002CAA  5247                     addq.w     D7, 1
label00002CAC:
00002CAC  B847                     cmp.w      D4, D7
00002CAE  6CEE                     bge        -0x10 /* 00002C9E */
00002CB0  48C5                     ext.l      D5
00002CB2  2053                     movea.l    A0, [A3]
00002CB4  2005                     move.l     D0, D5
00002CB6  E780                     asl        D0, 3
00002CB8  41F0 080A                lea.l      A0, [A0 + D0 + 0xA]
00002CBC  43EE FFF2                lea.l      A1, [A6 - 0xE]
00002CC0  20D9                     move.l     [A0]+, [A1]+
00002CC2  30D9                     move.w     [A0]+, [A1]+
00002CC4  4246                     clr.w      D6
00002CC6  4247                     clr.w      D7
00002CC8  6000 0086                bra        +0x88 /* 00002D50 */
label00002CCC:
00002CCC  48C6                     ext.l      D6
00002CCE  2054                     movea.l    A0, [A4]
00002CD0  2006                     move.l     D0, D6
00002CD2  E780                     asl        D0, 3
00002CD4  3A30 0808                move.w     D5, [A0 + D0 + 0x8]
00002CD8  B845                     cmp.w      D4, D5
00002CDA  6F70                     ble        +0x72 /* 00002D4C */
00002CDC  BA6E FFFE                cmp.w      D5, [A6 - 0x2]
00002CE0  6C6A                     bge        +0x6C /* 00002D4C */
00002CE2  4A2E 0013                tst.b      [A6 + 0x13]
00002CE6  670C                     beq        +0xE /* 00002CF4 */
00002CE8  206E FFEC                movea.l    A0, [A6 - 0x14]
00002CEC  2050                     movea.l    A0, [A0]
00002CEE  4A30 5000                tst.b      [A0 + D5.w]
00002CF2  6758                     beq        +0x5A /* 00002D4C */
label00002CF4:
00002CF4  48C6                     ext.l      D6
00002CF6  2054                     movea.l    A0, [A4]
00002CF8  2006                     move.l     D0, D6
00002CFA  E780                     asl        D0, 3
00002CFC  43EE FFE6                lea.l      A1, [A6 - 0x1A]
00002D00  41F0 080A                lea.l      A0, [A0 + D0 + 0xA]
00002D04  22D8                     move.l     [A1]+, [A0]+
00002D06  32D8                     move.w     [A1]+, [A0]+
00002D08  41EE FFE6                lea.l      A0, [A6 - 0x1A]
00002D0C  43EE FFF8                lea.l      A1, [A6 - 0x8]
00002D10  7002                     moveq.l    D0, 0x02
label00002D12:
00002D12  B149                     cmpm.w     [A0]+, [A1]+
00002D14  56C8 FFFC                dbne       D0, -0x6 /* 00002D12 */
00002D18  6728                     beq        +0x2A /* 00002D42 */
00002D1A  41EE FFE6                lea.l      A0, [A6 - 0x1A]
00002D1E  43EE FFF2                lea.l      A1, [A6 - 0xE]
00002D22  7002                     moveq.l    D0, 0x02
label00002D24:
00002D24  B149                     cmpm.w     [A0]+, [A1]+
00002D26  56C8 FFFC                dbne       D0, -0x6 /* 00002D24 */
00002D2A  6716                     beq        +0x18 /* 00002D42 */
00002D2C  5247                     addq.w     D7, 1
00002D2E  3007                     move.w     D0, D7
00002D30  48C0                     ext.l      D0
00002D32  2053                     movea.l    A0, [A3]
00002D34  E780                     asl        D0, 3
00002D36  41F0 080A                lea.l      A0, [A0 + D0 + 0xA]
00002D3A  43EE FFE6                lea.l      A1, [A6 - 0x1A]
00002D3E  20D9                     move.l     [A0]+, [A1]+
00002D40  30D9                     move.w     [A0]+, [A1]+
label00002D42:
00002D42  206E FFEC                movea.l    A0, [A6 - 0x14]
00002D46  2050                     movea.l    A0, [A0]
00002D48  4230 5000                clr.b      [A0 + D5.w]
label00002D4C:
00002D4C  3006                     move.w     D0, D6
00002D4E  5246                     addq.w     D6, 1
label00002D50:
00002D50  2054                     movea.l    A0, [A4]
00002D52  BC68 0006                cmp.w      D6, [A0 + 0x6]
00002D56  6E06                     bgt        +0x8 /* 00002D5E */
00002D58  B847                     cmp.w      D4, D7
00002D5A  6E00 FF70                bgt        -0x8E /* 00002CCC */
label00002D5E:
00002D5E  5247                     addq.w     D7, 1
00002D60  3007                     move.w     D0, D7
00002D62  48C0                     ext.l      D0
00002D64  2053                     movea.l    A0, [A3]
00002D66  E780                     asl        D0, 3
00002D68  31AE FFF0 0808           move.w     [A0 + D0 + 0x8], [A6 - 0x10]
00002D6E  48C7                     ext.l      D7
00002D70  2053                     movea.l    A0, [A3]
00002D72  2007                     move.l     D0, D7
00002D74  E780                     asl        D0, 3
00002D76  41F0 080A                lea.l      A0, [A0 + D0 + 0xA]
00002D7A  43EE FFF8                lea.l      A1, [A6 - 0x8]
00002D7E  20D9                     move.l     [A0]+, [A1]+
00002D80  30D9                     move.w     [A0]+, [A1]+
00002D82  48C4                     ext.l      D4
00002D84  2053                     movea.l    A0, [A3]
00002D86  2004                     move.l     D0, D4
00002D88  E780                     asl        D0, 3
00002D8A  3187 0808                move.w     [A0 + D0 + 0x8], D7
00002D8E  2053                     movea.l    A0, [A3]
00002D90  3147 0006                move.w     [A0 + 0x6], D7
00002D94  598F                     subq.l     A7, 4
00002D96  AA28                     syscall    GetCTSeed
00002D98  2053                     movea.l    A0, [A3]
00002D9A  209F                     move.l     [A0], [A7]+
00002D9C  206E FFEC                movea.l    A0, [A6 - 0x14]
00002DA0  A023                     syscall    DisposHandle/DisposeHandle
00002DA2  200B                     move.l     D0, A3
label00002DA4:
00002DA4  4CEE 18F0 FFCE           movem.l    D4,D5,D6,D7,A3,A4, [A6 - 0x32]
00002DAA  4E5E                     unlink     A6
00002DAC  4E75                     rts
fn00002DAE:
00002DAE  4E56 FFEC                link       A6, -0x0014
00002DB2  48E7 0118                movem.l    -[A7], D7,A3,A4
00002DB6  3E2E 000E                move.w     D7, [A6 + 0xE]
00002DBA  266E 0008                movea.l    A3, [A6 + 0x8]
00002DBE  3D7C FFFF FFF2           move.w     [A6 - 0xE], 0xFFFF
00002DC4  3D7C FFFF FFF0           move.w     [A6 - 0x10], 0xFFFF
00002DCA  3D7C FFFF FFEE           move.w     [A6 - 0x12], 0xFFFF
00002DD0  426E FFEC                clr.w      [A6 - 0x14]
00002DD4  7001                     moveq.l    D0, 0x01
00002DD6  EFA8                     lsl        D0, D7
00002DD8  E780                     asl        D0, 3
00002DDA  5080                     addq.l     D0, 8
00002DDC  A122                     syscall    NewHandle, flags=1
00002DDE  2848                     movea.l    A4, A0
00002DE0  206E 0010                movea.l    A0, [A6 + 0x10]
00002DE4  30B8 0220                move.w     [A0], [0x00000220 /* MemErr */]
00002DE8  6706                     beq        +0x8 /* 00002DF0 */
00002DEA  7000                     moveq.l    D0, 0x00
00002DEC  6000 0086                bra        +0x88 /* 00002E74 */
label00002DF0:
00002DF0  204C                     movea.l    A0, A4
00002DF2  A029                     syscall    HLock
00002DF4  598F                     subq.l     A7, 4
00002DF6  AA28                     syscall    GetCTSeed
00002DF8  2054                     movea.l    A0, [A4]
00002DFA  209F                     move.l     [A0], [A7]+
00002DFC  2054                     movea.l    A0, [A4]
00002DFE  317C 8000 0004           move.w     [A0 + 0x4], 0x8000
00002E04  7001                     moveq.l    D0, 0x01
00002E06  EFA8                     lsl        D0, D7
00002E08  5340                     subq.w     D0, 1
00002E0A  2054                     movea.l    A0, [A4]
00002E0C  3140 0006                move.w     [A0 + 0x6], D0
00002E10  2054                     movea.l    A0, [A4]
00002E12  5088                     addq.l     A0, 8
00002E14  2D48 FFFC                move.l     [A6 - 0x4], A0
00002E18  2054                     movea.l    A0, [A4]
00002E1A  3E28 0006                move.w     D7, [A0 + 0x6]
00002E1E  6D18                     blt        +0x1A /* 00002E38 */
label00002E20:
00002E20  48C7                     ext.l      D7
00002E22  206E FFFC                movea.l    A0, [A6 - 0x4]
00002E26  2007                     move.l     D0, D7
00002E28  E780                     asl        D0, 3
00002E2A  D1C0                     add.l      A0, D0
00002E2C  43EE FFEC                lea.l      A1, [A6 - 0x14]
00002E30  20D9                     move.l     [A0]+, [A1]+
00002E32  20D9                     move.l     [A0]+, [A1]+
00002E34  51CF FFEA                dbf        D7, -0x18 /* 00002E20 */
label00002E38:
00002E38  2053                     movea.l    A0, [A3]
00002E3A  3E28 0006                move.w     D7, [A0 + 0x6]
00002E3E  6D2E                     blt        +0x30 /* 00002E6E */
label00002E40:
00002E40  48C7                     ext.l      D7
00002E42  2053                     movea.l    A0, [A3]
00002E44  2007                     move.l     D0, D7
00002E46  E780                     asl        D0, 3
00002E48  43EE FFF4                lea.l      A1, [A6 - 0xC]
00002E4C  41F0 0808                lea.l      A0, [A0 + D0 + 0x8]
00002E50  22D8                     move.l     [A1]+, [A0]+
00002E52  22D8                     move.l     [A1]+, [A0]+
00002E54  302E FFF4                move.w     D0, [A6 - 0xC]
00002E58  48C0                     ext.l      D0
00002E5A  2054                     movea.l    A0, [A4]
00002E5C  E780                     asl        D0, 3
00002E5E  41F0 080A                lea.l      A0, [A0 + D0 + 0xA]
00002E62  43EE FFF6                lea.l      A1, [A6 - 0xA]
00002E66  20D9                     move.l     [A0]+, [A1]+
00002E68  30D9                     move.w     [A0]+, [A1]+
00002E6A  51CF FFD4                dbf        D7, -0x2E /* 00002E40 */
label00002E6E:
00002E6E  204C                     movea.l    A0, A4
00002E70  A02A                     syscall    HUnlock
00002E72  200C                     move.l     D0, A4
label00002E74:
00002E74  4CEE 1880 FFE0           movem.l    D7,A3,A4, [A6 - 0x20]
00002E7A  4E5E                     unlink     A6
00002E7C  4E75                     rts
export_385:
fn00002E7E:
00002E7E  4E56 FFF4                link       A6, -0x000C
00002E82  48E7 0018                movem.l    -[A7], A3,A4
00002E86  266E 000C                movea.l    A3, [A6 + 0xC]
00002E8A  598F                     subq.l     A7, 4
00002E8C  7000                     moveq.l    D0, 0x00
00002E8E  3F00                     move.w     -[A7], D0
00002E90  72FF                     moveq.l    D1, 0xFFFFFFFF
00002E92  2F01                     move.l     -[A7], D1
00002E94  AA2F                     syscall    NewGDevice
00002E96  285F                     movea.l    A4, [A7]+
00002E98  36B8 0220                move.w     [A3], [0x00000220 /* MemErr */]
00002E9C  6608                     bne        +0xA /* 00002EA6 */
00002E9E  558F                     subq.l     A7, 2
00002EA0  AA40                     syscall    QDError
00002EA2  369F                     move.w     [A3], [A7]+
00002EA4  6706                     beq        +0x8 /* 00002EAC */
label00002EA6:
00002EA6  7000                     moveq.l    D0, 0x00
00002EA8  6000 00E8                bra        +0xEA /* 00002F92 */
label00002EAC:
00002EAC  558F                     subq.l     A7, 2
00002EAE  2F2E 0008                move.l     -[A7], [A6 + 0x8]
00002EB2  486E FFF8                pea.l      [A6 - 0x8]
00002EB6  7032                     moveq.l    D0, 0x32
00002EB8  2F00                     move.l     -[A7], D0
00002EBA  4EAD 06DA                jsr        [A5 + 0x6DA /* export_215, CODE:3 @ 00003188 */]
00002EBE  36B8 0220                move.w     [A3], [0x00000220 /* MemErr */]
00002EC2  544F                     addq.w     A7, 2
00002EC4  670A                     beq        +0xC /* 00002ED0 */
00002EC6  2F0C                     move.l     -[A7], A4
00002EC8  AA30                     syscall    DisposeGDevice/DisposGDevice
00002ECA  7000                     moveq.l    D0, 0x00
00002ECC  6000 00C4                bra        +0xC6 /* 00002F92 */
label00002ED0:
00002ED0  2054                     movea.l    A0, [A4]
00002ED2  2F28 0016                move.l     -[A7], [A0 + 0x16]
00002ED6  AA04                     syscall    DisposePixMap/DisposPixMap
00002ED8  2054                     movea.l    A0, [A4]
00002EDA  216E FFF8 0016           move.l     [A0 + 0x16], [A6 - 0x8]
00002EE0  2F0B                     move.l     -[A7], A3
00002EE2  206E 0008                movea.l    A0, [A6 + 0x8]
00002EE6  3028 0020                move.w     D0, [A0 + 0x20]
00002EEA  48C0                     ext.l      D0
00002EEC  2F00                     move.l     -[A7], D0
00002EEE  2F28 002A                move.l     -[A7], [A0 + 0x2A]
00002EF2  4EBA FEBA                jsr        [PC - 0x146 /* 00002DAE */]
00002EF6  2D40 FFFC                move.l     [A6 - 0x4], D0
00002EFA  4A53                     tst.w      [A3]
00002EFC  4FEF 000C                lea.l      A7, [A7 + 0xC]
00002F00  670A                     beq        +0xC /* 00002F0C */
00002F02  2F0C                     move.l     -[A7], A4
00002F04  AA30                     syscall    DisposeGDevice/DisposGDevice
00002F06  7000                     moveq.l    D0, 0x00
00002F08  6000 0088                bra        +0x8A /* 00002F92 */
label00002F0C:
00002F0C  2054                     movea.l    A0, [A4]
00002F0E  2068 0016                movea.l    A0, [A0 + 0x16]
00002F12  2050                     movea.l    A0, [A0]
00002F14  216E FFFC 002A           move.l     [A0 + 0x2A], [A6 - 0x4]
00002F1A  2F0C                     move.l     -[A7], A4
00002F1C  7000                     moveq.l    D0, 0x00
00002F1E  3F00                     move.w     -[A7], D0
00002F20  7201                     moveq.l    D1, 0x01
00002F22  1F01                     move.b     -[A7], D1
00002F24  AA2D                     syscall    SetDeviceAttribute
00002F26  2054                     movea.l    A0, [A4]
00002F28  4268 0002                clr.w      [A0 + 0x2]
00002F2C  2054                     movea.l    A0, [A4]
00002F2E  4268 0004                clr.w      [A0 + 0x4]
00002F32  2054                     movea.l    A0, [A4]
00002F34  7000                     moveq.l    D0, 0x00
00002F36  2140 000C                move.l     [A0 + 0xC], D0
00002F3A  2054                     movea.l    A0, [A4]
00002F3C  2140 0010                move.l     [A0 + 0x10], D0
00002F40  2054                     movea.l    A0, [A4]
00002F42  2140 001E                move.l     [A0 + 0x1E], D0
00002F46  206E 0008                movea.l    A0, [A6 + 0x8]
00002F4A  2254                     movea.l    A1, [A4]
00002F4C  43E9 0022                lea.l      A1, [A1 + 0x22]
00002F50  5C88                     addq.l     A0, 6
00002F52  22D8                     move.l     [A1]+, [A0]+
00002F54  22D8                     move.l     [A1]+, [A0]+
00002F56  2054                     movea.l    A0, [A4]
00002F58  2140 002A                move.l     [A0 + 0x2A], D0
00002F5C  2054                     movea.l    A0, [A4]
00002F5E  2140 003A                move.l     [A0 + 0x3A], D0
00002F62  598F                     subq.l     A7, 4
00002F64  AA32                     syscall    GetGDevice
00002F66  2D5F FFF4                move.l     [A6 - 0xC], [A7]+
00002F6A  2F2E FFFC                move.l     -[A7], [A6 - 0x4]
00002F6E  2054                     movea.l    A0, [A4]
00002F70  2F28 0006                move.l     -[A7], [A0 + 0x6]
00002F74  206E FFF4                movea.l    A0, [A6 - 0xC]
00002F78  2050                     movea.l    A0, [A0]
00002F7A  3F28 000A                move.w     -[A7], [A0 + 0xA]
00002F7E  AA39                     syscall    MakeITable
00002F80  558F                     subq.l     A7, 2
00002F82  AA40                     syscall    QDError
00002F84  369F                     move.w     [A3], [A7]+
00002F86  6708                     beq        +0xA /* 00002F90 */
00002F88  2F0C                     move.l     -[A7], A4
00002F8A  AA30                     syscall    DisposeGDevice/DisposGDevice
00002F8C  7000                     moveq.l    D0, 0x00
00002F8E  6002                     bra        +0x4 /* 00002F92 */
label00002F90:
00002F90  200C                     move.l     D0, A4
label00002F92:
00002F92  4CEE 1800 FFEC           movem.l    A3,A4, [A6 - 0x14]
00002F98  4E5E                     unlink     A6
00002F9A  4E75                     rts
fn00002F9C:
00002F9C  4E56 FFFA                link       A6, -0x0006
00002FA0  48E7 1F18                movem.l    -[A7], D3,D4,D5,D6,D7,A3,A4
00002FA4  286E 0008                movea.l    A4, [A6 + 0x8]
00002FA8  7001                     moveq.l    D0, 0x01
00002FAA  B06C 0020                cmp.w      D0, [A4 + 0x20]
00002FAE  57C3                     seq        D3
00002FB0  4403                     neg.b      D3
00002FB2  2D43 FFFA                move.l     [A6 - 0x6], D3
00002FB6  206E 000C                movea.l    A0, [A6 + 0xC]
00002FBA  7008                     moveq.l    D0, 0x08
00002FBC  B068 0020                cmp.w      D0, [A0 + 0x20]
00002FC0  57C3                     seq        D3
00002FC2  4403                     neg.b      D3
00002FC4  202E FFFA                move.l     D0, [A6 - 0x6]
00002FC8  C600                     and.b      D3, D0
00002FCA  4A03                     tst.b      D3
00002FCC  6700 00BE                beq        +0xC0 /* 0000308C */
00002FD0  4205                     clr.b      D5
00002FD2  4206                     clr.b      D6
00002FD4  3D7C 0001 FFFE           move.w     [A6 - 0x2], 0x1
00002FDA  7801                     moveq.l    D4, 0x01
00002FDC  266C 002A                movea.l    A3, [A4 + 0x2A]
00002FE0  206E 000C                movea.l    A0, [A6 + 0xC]
00002FE4  2868 002A                movea.l    A4, [A0 + 0x2A]
00002FE8  2053                     movea.l    A0, [A3]
00002FEA  4A68 0006                tst.w      [A0 + 0x6]
00002FEE  5CC3                     sge        D3
00002FF0  4403                     neg.b      D3
00002FF2  41E8 000A                lea.l      A0, [A0 + 0xA]
00002FF6  2254                     movea.l    A1, [A4]
00002FF8  43E9 000A                lea.l      A1, [A1 + 0xA]
00002FFC  7002                     moveq.l    D0, 0x02
label00002FFE:
00002FFE  B149                     cmpm.w     [A0]+, [A1]+
00003000  56C8 FFFC                dbne       D0, -0x6 /* 00002FFE */
00003004  56C0                     sne        D0
00003006  4400                     neg.b      D0
00003008  C003                     and.b      D0, D3
0000300A  6704                     beq        +0x6 /* 00003010 */
0000300C  7A01                     moveq.l    D5, 0x01
0000300E  7802                     moveq.l    D4, 0x02
label00003010:
00003010  2053                     movea.l    A0, [A3]
00003012  7001                     moveq.l    D0, 0x01
00003014  B068 0006                cmp.w      D0, [A0 + 0x6]
00003018  57C3                     seq        D3
0000301A  4403                     neg.b      D3
0000301C  41E8 0012                lea.l      A0, [A0 + 0x12]
00003020  2254                     movea.l    A1, [A4]
00003022  3029 0006                move.w     D0, [A1 + 0x6]
00003026  48C0                     ext.l      D0
00003028  E780                     asl        D0, 3
0000302A  43F1 080A                lea.l      A1, [A1 + D0 + 0xA]
0000302E  7002                     moveq.l    D0, 0x02
label00003030:
00003030  B149                     cmpm.w     [A0]+, [A1]+
00003032  56C8 FFFC                dbne       D0, -0x6 /* 00003030 */
00003036  56C0                     sne        D0
00003038  4400                     neg.b      D0
0000303A  C003                     and.b      D0, D3
0000303C  6702                     beq        +0x4 /* 00003040 */
0000303E  7C01                     moveq.l    D6, 0x01
label00003040:
00003040  1006                     move.b     D0, D6
00003042  8005                     or.b       D0, D5
00003044  6746                     beq        +0x48 /* 0000308C */
00003046  206E 000C                movea.l    A0, [A6 + 0xC]
0000304A  2850                     movea.l    A4, [A0]
0000304C  4247                     clr.w      D7
0000304E  6036                     bra        +0x38 /* 00003086 */
label00003050:
00003050  7000                     moveq.l    D0, 0x00
00003052  1005                     move.b     D0, D5
00003054  7200                     moveq.l    D1, 0x00
00003056  1214                     move.b     D1, [A4]
00003058  4A81                     tst.l      D1
0000305A  57C3                     seq        D3
0000305C  4403                     neg.b      D3
0000305E  4883                     ext.w      D3
00003060  C600                     and.b      D3, D0
00003062  6706                     beq        +0x8 /* 0000306A */
00003064  18AE FFFF                move.b     [A4], [A6 - 0x1]
00003068  6018                     bra        +0x1A /* 00003082 */
label0000306A:
0000306A  7000                     moveq.l    D0, 0x00
0000306C  1006                     move.b     D0, D6
0000306E  7200                     moveq.l    D1, 0x00
00003070  1214                     move.b     D1, [A4]
00003072  0C41 00FF                cmpi.w     D1, 0xFF
00003076  57C3                     seq        D3
00003078  4403                     neg.b      D3
0000307A  4883                     ext.w      D3
0000307C  C600                     and.b      D3, D0
0000307E  6702                     beq        +0x4 /* 00003082 */
00003080  1884                     move.b     [A4], D4
label00003082:
00003082  524C                     addq.w     A4, 1
00003084  5247                     addq.w     D7, 1
label00003086:
00003086  BE6E 0012                cmp.w      D7, [A6 + 0x12]
0000308A  6DC4                     blt        -0x3A /* 00003050 */
label0000308C:
0000308C  4CEE 18F8 FFDE           movem.l    D3,D4,D5,D6,D7,A3,A4, [A6 - 0x22]
00003092  4E5E                     unlink     A6
00003094  4E75                     rts
fn00003096:
00003096  4E56 FFF8                link       A6, -0x0008
0000309A  48E7 0318                movem.l    -[A7], D6,D7,A3,A4
0000309E  286E 000C                movea.l    A4, [A6 + 0xC]
000030A2  3E2C 0020                move.w     D7, [A4 + 0x20]
000030A6  302C 0020                move.w     D0, [A4 + 0x20]
000030AA  7201                     moveq.l    D1, 0x01
000030AC  E1A9                     lsl        D1, D0
000030AE  2C01                     move.l     D6, D1
000030B0  5386                     subq.l     D6, 1
000030B2  2F2E 0014                move.l     -[A7], [A6 + 0x14]
000030B6  7000                     moveq.l    D0, 0x00
000030B8  102E 0013                move.b     D0, [A6 + 0x13]
000030BC  2F00                     move.l     -[A7], D0
000030BE  48C6                     ext.l      D6
000030C0  2F06                     move.l     -[A7], D6
000030C2  2F2E 0008                move.l     -[A7], [A6 + 0x8]
000030C6  4EBA FB44                jsr        [PC - 0x4BC /* 00002C0C */]
000030CA  2D40 FFF8                move.l     [A6 - 0x8], D0
000030CE  4FEF 0010                lea.l      A7, [A7 + 0x10]
000030D2  6606                     bne        +0x8 /* 000030DA */
000030D4  7000                     moveq.l    D0, 0x00
000030D6  6000 00CA                bra        +0xCC /* 000031A2 */
label000030DA:
000030DA  206E 0008                movea.l    A0, [A6 + 0x8]
000030DE  224C                     movea.l    A1, A4
000030E0  700B                     moveq.l    D0, 0x0B
label000030E2:
000030E2  22D8                     move.l     [A1]+, [A0]+
000030E4  51C8 FFFC                dbf        D0, -0x6 /* 000030E2 */
000030E8  32D8                     move.w     [A1]+, [A0]+
000030EA  3947 0020                move.w     [A4 + 0x20], D7
000030EE  3947 0024                move.w     [A4 + 0x24], D7
000030F2  302C 000C                move.w     D0, [A4 + 0xC]
000030F6  906C 0008                sub.w      D0, [A4 + 0x8]
000030FA  3D40 FFFE                move.w     [A6 - 0x2], D0
000030FE  48C7                     ext.l      D7
00003100  2F07                     move.l     -[A7], D7
00003102  2F2E FFFC                move.l     -[A7], [A6 - 0x4]
00003106  4EBA F4C8                jsr        [PC - 0xB38 /* 000025D0 */]
0000310A  3940 0004                move.w     [A4 + 0x4], D0
0000310E  48C0                     ext.l      D0
00003110  323C 7FFF                move.w     D1, 0x7FFF
00003114  C240                     and.w      D1, D0
00003116  7000                     moveq.l    D0, 0x00
00003118  3001                     move.w     D0, D1
0000311A  322C 000A                move.w     D1, [A4 + 0xA]
0000311E  48C1                     ext.l      D1
00003120  342C 0006                move.w     D2, [A4 + 0x6]
00003124  48C2                     ext.l      D2
00003126  9282                     sub.l      D1, D2
00003128  4EAD 0762                jsr        [A5 + 0x762 /* export_232, CODE:3 @ 00003704 */]
0000312C  2E00                     move.l     D7, D0
0000312E  A322                     syscall    NewHandleClear, flags=3
00003130  2648                     movea.l    A3, A0
00003132  206E 0014                movea.l    A0, [A6 + 0x14]
00003136  30B8 0220                move.w     [A0], [0x00000220 /* MemErr */]
0000313A  206E 0014                movea.l    A0, [A6 + 0x14]
0000313E  4A50                     tst.w      [A0]
00003140  504F                     addq.w     A7, 8
00003142  670A                     beq        +0xC /* 0000314E */
00003144  206E FFF8                movea.l    A0, [A6 - 0x8]
00003148  A023                     syscall    DisposHandle/DisposeHandle
0000314A  7000                     moveq.l    D0, 0x00
0000314C  6054                     bra        +0x56 /* 000031A2 */
label0000314E:
0000314E  204B                     movea.l    A0, A3
00003150  A029                     syscall    HLock
00003152  598F                     subq.l     A7, 4
00003154  2F13                     move.l     -[A7], [A3]
00003156  4EAD 0752                jsr        [A5 + 0x752 /* export_230, CODE:3 @ 00003690 */]
0000315A  289F                     move.l     [A4], [A7]+
0000315C  296E FFF8 002A           move.l     [A4 + 0x2A], [A6 - 0x8]
00003162  2F2E 0014                move.l     -[A7], [A6 + 0x14]
00003166  2F0C                     move.l     -[A7], A4
00003168  2F2E 0008                move.l     -[A7], [A6 + 0x8]
0000316C  4EAD 0B5A                jsr        [A5 + 0xB5A /* export_359, CODE:9 @ 00004B68 */]
00003170  2F07                     move.l     -[A7], D7
00003172  2F0C                     move.l     -[A7], A4
00003174  2F2E 0008                move.l     -[A7], [A6 + 0x8]
00003178  4EBA FE22                jsr        [PC - 0x1DE /* 00002F9C */]
0000317C  204B                     movea.l    A0, A3
0000317E  A02A                     syscall    HUnlock
00003180  206E 0014                movea.l    A0, [A6 + 0x14]
00003184  4A50                     tst.w      [A0]
00003186  4FEF 0018                lea.l      A7, [A7 + 0x18]
0000318A  6714                     beq        +0x16 /* 000031A0 */
0000318C  204B                     movea.l    A0, A3
0000318E  A023                     syscall    DisposHandle/DisposeHandle
00003190  206E FFF8                movea.l    A0, [A6 - 0x8]
00003194  A023                     syscall    DisposHandle/DisposeHandle
00003196  7000                     moveq.l    D0, 0x00
00003198  2940 002A                move.l     [A4 + 0x2A], D0
0000319C  7000                     moveq.l    D0, 0x00
0000319E  6002                     bra        +0x4 /* 000031A2 */
label000031A0:
000031A0  200B                     move.l     D0, A3
label000031A2:
000031A2  4CEE 18C0 FFE8           movem.l    D6,D7,A3,A4, [A6 - 0x18]
000031A8  4E5E                     unlink     A6
000031AA  4E75                     rts
fn000031AC:
000031AC  4E56 FFD0                link       A6, -0x0030
000031B0  48E7 0F38                movem.l    -[A7], D4,D5,D6,D7,A2,A3,A4
000031B4  266E 0008                movea.l    A3, [A6 + 0x8]
000031B8  286E 000C                movea.l    A4, [A6 + 0xC]
000031BC  2D6B 002A FFD0           move.l     [A6 - 0x30], [A3 + 0x2A]
000031C2  558F                     subq.l     A7, 2
000031C4  486B 002A                pea.l      [A3 + 0x2A]
000031C8  4EAD 06D2                jsr        [A5 + 0x6D2 /* export_214, CODE:3 @ 00003172 */]
000031CC  206E 0010                movea.l    A0, [A6 + 0x10]
000031D0  309F                     move.w     [A0], [A7]+
000031D2  206E 0010                movea.l    A0, [A6 + 0x10]
000031D6  4A50                     tst.w      [A0]
000031D8  670C                     beq        +0xE /* 000031E6 */
000031DA  276E FFD0 002A           move.l     [A3 + 0x2A], [A6 - 0x30]
000031E0  7000                     moveq.l    D0, 0x00
000031E2  6000 02CA                bra        +0x2CC /* 000034AE */
label000031E6:
000031E6  2F2E 0010                move.l     -[A7], [A6 + 0x10]
000031EA  7000                     moveq.l    D0, 0x00
000031EC  2F00                     move.l     -[A7], D0
000031EE  2F0B                     move.l     -[A7], A3
000031F0  4EBA F7CA                jsr        [PC - 0x836 /* 000029BC */]
000031F4  206E 0010                movea.l    A0, [A6 + 0x10]
000031F8  4A50                     tst.w      [A0]
000031FA  4FEF 000C                lea.l      A7, [A7 + 0xC]
000031FE  6712                     beq        +0x14 /* 00003212 */
00003200  206B 002A                movea.l    A0, [A3 + 0x2A]
00003204  A023                     syscall    DisposHandle/DisposeHandle
00003206  276E FFD0 002A           move.l     [A3 + 0x2A], [A6 - 0x30]
0000320C  7000                     moveq.l    D0, 0x00
0000320E  6000 029E                bra        +0x2A0 /* 000034AE */
label00003212:
00003212  204C                     movea.l    A0, A4
00003214  224B                     movea.l    A1, A3
00003216  700B                     moveq.l    D0, 0x0B
label00003218:
00003218  20D9                     move.l     [A0]+, [A1]+
0000321A  51C8 FFFC                dbf        D0, -0x6 /* 00003218 */
0000321E  30D9                     move.w     [A0]+, [A1]+
00003220  558F                     subq.l     A7, 2
00003222  486C 002A                pea.l      [A4 + 0x2A]
00003226  4EAD 06D2                jsr        [A5 + 0x6D2 /* export_214, CODE:3 @ 00003172 */]
0000322A  206E 0010                movea.l    A0, [A6 + 0x10]
0000322E  309F                     move.w     [A0], [A7]+
00003230  206E 0010                movea.l    A0, [A6 + 0x10]
00003234  4A50                     tst.w      [A0]
00003236  6712                     beq        +0x14 /* 0000324A */
00003238  206B 002A                movea.l    A0, [A3 + 0x2A]
0000323C  A023                     syscall    DisposHandle/DisposeHandle
0000323E  276E FFD0 002A           move.l     [A3 + 0x2A], [A6 - 0x30]
00003244  7000                     moveq.l    D0, 0x00
00003246  6000 0266                bra        +0x268 /* 000034AE */
label0000324A:
0000324A  206C 002A                movea.l    A0, [A4 + 0x2A]
0000324E  2050                     movea.l    A0, [A0]
00003250  3C28 0006                move.w     D6, [A0 + 0x6]
00003254  2F2C 002A                move.l     -[A7], [A4 + 0x2A]
00003258  4EBA F3C6                jsr        [PC - 0xC3A /* 00002620 */]
0000325C  3A00                     move.w     D5, D0
0000325E  7001                     moveq.l    D0, 0x01
00003260  EBA8                     lsl        D0, D5
00003262  3800                     move.w     D4, D0
00003264  5344                     subq.w     D4, 1
00003266  4247                     clr.w      D7
00003268  584F                     addq.w     A7, 4
0000326A  6012                     bra        +0x14 /* 0000327E */
label0000326C:
0000326C  48C7                     ext.l      D7
0000326E  206C 002A                movea.l    A0, [A4 + 0x2A]
00003272  2050                     movea.l    A0, [A0]
00003274  2007                     move.l     D0, D7
00003276  E780                     asl        D0, 3
00003278  3187 0808                move.w     [A0 + D0 + 0x8], D7
0000327C  5247                     addq.w     D7, 1
label0000327E:
0000327E  BC47                     cmp.w      D6, D7
00003280  6CEA                     bge        -0x14 /* 0000326C */
00003282  598F                     subq.l     A7, 4
00003284  AA28                     syscall    GetCTSeed
00003286  206C 002A                movea.l    A0, [A4 + 0x2A]
0000328A  2050                     movea.l    A0, [A0]
0000328C  209F                     move.l     [A0], [A7]+
0000328E  2D6B 002A FFD8           move.l     [A6 - 0x28], [A3 + 0x2A]
00003294  2D6C 002A FFDC           move.l     [A6 - 0x24], [A4 + 0x2A]
0000329A  3D7C FFFF FFF0           move.w     [A6 - 0x10], 0xFFFF
000032A0  3D7C FFFF FFEE           move.w     [A6 - 0x12], 0xFFFF
000032A6  3D7C FFFF FFEC           move.w     [A6 - 0x14], 0xFFFF
000032AC  42AE FFF4                clr.l      [A6 - 0xC]
000032B0  426E FFF2                clr.w      [A6 - 0xE]
000032B4  206E FFDC                movea.l    A0, [A6 - 0x24]
000032B8  2050                     movea.l    A0, [A0]
000032BA  43EE FFE0                lea.l      A1, [A6 - 0x20]
000032BE  41E8 000A                lea.l      A0, [A0 + 0xA]
000032C2  22D8                     move.l     [A1]+, [A0]+
000032C4  32D8                     move.w     [A1]+, [A0]+
000032C6  41EE FFE0                lea.l      A0, [A6 - 0x20]
000032CA  43EE FFEC                lea.l      A1, [A6 - 0x14]
000032CE  7002                     moveq.l    D0, 0x02
label000032D0:
000032D0  B149                     cmpm.w     [A0]+, [A1]+
000032D2  56C8 FFFC                dbne       D0, -0x6 /* 000032D0 */
000032D6  6724                     beq        +0x26 /* 000032FC */
000032D8  206E FFD8                movea.l    A0, [A6 - 0x28]
000032DC  2050                     movea.l    A0, [A0]
000032DE  41E8 000A                lea.l      A0, [A0 + 0xA]
000032E2  43EE FFEC                lea.l      A1, [A6 - 0x14]
000032E6  20D9                     move.l     [A0]+, [A1]+
000032E8  30D9                     move.w     [A0]+, [A1]+
000032EA  206E FFDC                movea.l    A0, [A6 - 0x24]
000032EE  2050                     movea.l    A0, [A0]
000032F0  41E8 000A                lea.l      A0, [A0 + 0xA]
000032F4  43EE FFEC                lea.l      A1, [A6 - 0x14]
000032F8  20D9                     move.l     [A0]+, [A1]+
000032FA  30D9                     move.w     [A0]+, [A1]+
label000032FC:
000032FC  48C6                     ext.l      D6
000032FE  206E FFDC                movea.l    A0, [A6 - 0x24]
00003302  2050                     movea.l    A0, [A0]
00003304  2006                     move.l     D0, D6
00003306  E780                     asl        D0, 3
00003308  43EE FFE6                lea.l      A1, [A6 - 0x1A]
0000330C  41F0 080A                lea.l      A0, [A0 + D0 + 0xA]
00003310  22D8                     move.l     [A1]+, [A0]+
00003312  32D8                     move.w     [A1]+, [A0]+
00003314  41EE FFE6                lea.l      A0, [A6 - 0x1A]
00003318  43EE FFF2                lea.l      A1, [A6 - 0xE]
0000331C  7002                     moveq.l    D0, 0x02
label0000331E:
0000331E  B149                     cmpm.w     [A0]+, [A1]+
00003320  56C8 FFFC                dbne       D0, -0x6 /* 0000331E */
00003324  6612                     bne        +0x14 /* 00003338 */
00003326  48C6                     ext.l      D6
00003328  206E FFDC                movea.l    A0, [A6 - 0x24]
0000332C  2050                     movea.l    A0, [A0]
0000332E  2006                     move.l     D0, D6
00003330  E780                     asl        D0, 3
00003332  3184 0808                move.w     [A0 + D0 + 0x8], D4
00003336  606A                     bra        +0x6C /* 000033A2 */
label00003338:
00003338  B846                     cmp.w      D4, D6
0000333A  6F3C                     ble        +0x3E /* 00003378 */
0000333C  48C6                     ext.l      D6
0000333E  2006                     move.l     D0, D6
00003340  5280                     addq.l     D0, 1
00003342  206E FFDC                movea.l    A0, [A6 - 0x24]
00003346  2050                     movea.l    A0, [A0]
00003348  E780                     asl        D0, 3
0000334A  41F0 080A                lea.l      A0, [A0 + D0 + 0xA]
0000334E  43EE FFF2                lea.l      A1, [A6 - 0xE]
00003352  20D9                     move.l     [A0]+, [A1]+
00003354  30D9                     move.w     [A0]+, [A1]+
00003356  48C6                     ext.l      D6
00003358  2006                     move.l     D0, D6
0000335A  5280                     addq.l     D0, 1
0000335C  206E FFDC                movea.l    A0, [A6 - 0x24]
00003360  2050                     movea.l    A0, [A0]
00003362  E780                     asl        D0, 3
00003364  3184 0808                move.w     [A0 + D0 + 0x8], D4
00003368  3006                     move.w     D0, D6
0000336A  5240                     addq.w     D0, 1
0000336C  206E FFDC                movea.l    A0, [A6 - 0x24]
00003370  2050                     movea.l    A0, [A0]
00003372  3140 0006                move.w     [A0 + 0x6], D0
00003376  602A                     bra        +0x2C /* 000033A2 */
label00003378:
00003378  48C6                     ext.l      D6
0000337A  2806                     move.l     D4, D6
0000337C  E784                     asl        D4, 3
0000337E  206E FFD8                movea.l    A0, [A6 - 0x28]
00003382  2050                     movea.l    A0, [A0]
00003384  43EE FFF2                lea.l      A1, [A6 - 0xE]
00003388  45F0 480A                lea.l      A2, [A0 + D4 + 0xA]
0000338C  24D9                     move.l     [A2]+, [A1]+
0000338E  34D9                     move.w     [A2]+, [A1]+
00003390  206E FFDC                movea.l    A0, [A6 - 0x24]
00003394  2050                     movea.l    A0, [A0]
00003396  41F0 480A                lea.l      A0, [A0 + D4 + 0xA]
0000339A  43EE FFF2                lea.l      A1, [A6 - 0xE]
0000339E  20D9                     move.l     [A0]+, [A1]+
000033A0  30D9                     move.w     [A0]+, [A1]+
label000033A2:
000033A2  3945 0020                move.w     [A4 + 0x20], D5
000033A6  3945 0024                move.w     [A4 + 0x24], D5
000033AA  302C 000C                move.w     D0, [A4 + 0xC]
000033AE  906C 0008                sub.w      D0, [A4 + 0x8]
000033B2  3D40 FFFA                move.w     [A6 - 0x6], D0
000033B6  48C5                     ext.l      D5
000033B8  2F05                     move.l     -[A7], D5
000033BA  2F2E FFF8                move.l     -[A7], [A6 - 0x8]
000033BE  4EBA F210                jsr        [PC - 0xDF0 /* 000025D0 */]
000033C2  3940 0004                move.w     [A4 + 0x4], D0
000033C6  48C0                     ext.l      D0
000033C8  323C 7FFF                move.w     D1, 0x7FFF
000033CC  C240                     and.w      D1, D0
000033CE  7000                     moveq.l    D0, 0x00
000033D0  3001                     move.w     D0, D1
000033D2  322C 000A                move.w     D1, [A4 + 0xA]
000033D6  48C1                     ext.l      D1
000033D8  342C 0006                move.w     D2, [A4 + 0x6]
000033DC  48C2                     ext.l      D2
000033DE  9282                     sub.l      D1, D2
000033E0  4EAD 0762                jsr        [A5 + 0x762 /* export_232, CODE:3 @ 00003704 */]
000033E4  2A00                     move.l     D5, D0
000033E6  A322                     syscall    NewHandleClear, flags=3
000033E8  2D48 FFD4                move.l     [A6 - 0x2C], A0
000033EC  206E 0010                movea.l    A0, [A6 + 0x10]
000033F0  30B8 0220                move.w     [A0], [0x00000220 /* MemErr */]
000033F4  206E 0010                movea.l    A0, [A6 + 0x10]
000033F8  4A50                     tst.w      [A0]
000033FA  504F                     addq.w     A7, 8
000033FC  6718                     beq        +0x1A /* 00003416 */
000033FE  206E FFD8                movea.l    A0, [A6 - 0x28]
00003402  A023                     syscall    DisposHandle/DisposeHandle
00003404  206E FFDC                movea.l    A0, [A6 - 0x24]
00003408  A023                     syscall    DisposHandle/DisposeHandle
0000340A  276E FFD0 002A           move.l     [A3 + 0x2A], [A6 - 0x30]
00003410  7000                     moveq.l    D0, 0x00
00003412  6000 009A                bra        +0x9C /* 000034AE */
label00003416:
00003416  206E FFD4                movea.l    A0, [A6 - 0x2C]
0000341A  A029                     syscall    HLock
0000341C  598F                     subq.l     A7, 4
0000341E  206E FFD4                movea.l    A0, [A6 - 0x2C]
00003422  2F10                     move.l     -[A7], [A0]
00003424  4EAD 0752                jsr        [A5 + 0x752 /* export_230, CODE:3 @ 00003690 */]
00003428  289F                     move.l     [A4], [A7]+
0000342A  2F2E 0010                move.l     -[A7], [A6 + 0x10]
0000342E  2F0C                     move.l     -[A7], A4
00003430  2F0B                     move.l     -[A7], A3
00003432  4EAD 0B5A                jsr        [A5 + 0xB5A /* export_359, CODE:9 @ 00004B68 */]
00003436  206E FFD4                movea.l    A0, [A6 - 0x2C]
0000343A  A02A                     syscall    HUnlock
0000343C  206E 0010                movea.l    A0, [A6 + 0x10]
00003440  4A50                     tst.w      [A0]
00003442  4FEF 000C                lea.l      A7, [A7 + 0xC]
00003446  671C                     beq        +0x1E /* 00003464 */
00003448  206E FFD8                movea.l    A0, [A6 - 0x28]
0000344C  A023                     syscall    DisposHandle/DisposeHandle
0000344E  206E FFDC                movea.l    A0, [A6 - 0x24]
00003452  A023                     syscall    DisposHandle/DisposeHandle
00003454  206E FFD4                movea.l    A0, [A6 - 0x2C]
00003458  A023                     syscall    DisposHandle/DisposeHandle
0000345A  276E FFD0 002A           move.l     [A3 + 0x2A], [A6 - 0x30]
00003460  7000                     moveq.l    D0, 0x00
00003462  604A                     bra        +0x4C /* 000034AE */
label00003464:
00003464  206E FFDC                movea.l    A0, [A6 - 0x24]
00003468  2050                     movea.l    A0, [A0]
0000346A  5088                     addq.l     A0, 8
0000346C  2D48 FFFC                move.l     [A6 - 0x4], A0
00003470  48C6                     ext.l      D6
00003472  2006                     move.l     D0, D6
00003474  E780                     asl        D0, 3
00003476  43EE FFE6                lea.l      A1, [A6 - 0x1A]
0000347A  45F0 0802                lea.l      A2, [A0 + D0 + 0x2]
0000347E  24D9                     move.l     [A2]+, [A1]+
00003480  34D9                     move.w     [A2]+, [A1]+
00003482  206E FFFC                movea.l    A0, [A6 - 0x4]
00003486  5488                     addq.l     A0, 2
00003488  43EE FFE0                lea.l      A1, [A6 - 0x20]
0000348C  20D9                     move.l     [A0]+, [A1]+
0000348E  30D9                     move.w     [A0]+, [A1]+
00003490  206E FFDC                movea.l    A0, [A6 - 0x24]
00003494  2050                     movea.l    A0, [A0]
00003496  3146 0006                move.w     [A0 + 0x6], D6
0000349A  7000                     moveq.l    D0, 0x00
0000349C  2880                     move.l     [A4], D0
0000349E  276E FFD0 002A           move.l     [A3 + 0x2A], [A6 - 0x30]
000034A4  206E FFD8                movea.l    A0, [A6 - 0x28]
000034A8  A023                     syscall    DisposHandle/DisposeHandle
000034AA  202E FFD4                move.l     D0, [A6 - 0x2C]
label000034AE:
000034AE  4CEE 1CF0 FFB4           movem.l    D4,D5,D6,D7,A2,A3,A4, [A6 - 0x4C]
000034B4  4E5E                     unlink     A6
000034B6  4E75                     rts
fn000034B8:
000034B8  4E56 FFFC                link       A6, -0x0004
000034BC  48E7 0318                movem.l    -[A7], D6,D7,A3,A4
000034C0  266E 0008                movea.l    A3, [A6 + 0x8]
000034C4  286E 000C                movea.l    A4, [A6 + 0xC]
000034C8  302B 0004                move.w     D0, [A3 + 0x4]
000034CC  48C0                     ext.l      D0
000034CE  5280                     addq.l     D0, 1
000034D0  E280                     asr        D0, 1
000034D2  2E00                     move.l     D7, D0
000034D4  E38F                     lsl        D7, 1
000034D6  48C7                     ext.l      D7
000034D8  302B 000A                move.w     D0, [A3 + 0xA]
000034DC  48C0                     ext.l      D0
000034DE  322B 0006                move.w     D1, [A3 + 0x6]
000034E2  48C1                     ext.l      D1
000034E4  9081                     sub.l      D0, D1
000034E6  2200                     move.l     D1, D0
000034E8  2007                     move.l     D0, D7
000034EA  4EAD 0762                jsr        [A5 + 0x762 /* export_232, CODE:3 @ 00003704 */]
000034EE  2C00                     move.l     D6, D0
000034F0  A322                     syscall    NewHandleClear, flags=3
000034F2  2D48 FFFC                move.l     [A6 - 0x4], A0
000034F6  206E 0010                movea.l    A0, [A6 + 0x10]
000034FA  30B8 0220                move.w     [A0], [0x00000220 /* MemErr */]
000034FE  206E 0010                movea.l    A0, [A6 + 0x10]
00003502  4A50                     tst.w      [A0]
00003504  6706                     beq        +0x8 /* 0000350C */
00003506  7000                     moveq.l    D0, 0x00
00003508  6000 008C                bra        +0x8E /* 00003596 */
label0000350C:
0000350C  3947 0004                move.w     [A4 + 0x4], D7
00003510  204C                     movea.l    A0, A4
00003512  5C88                     addq.l     A0, 6
00003514  224B                     movea.l    A1, A3
00003516  5C89                     addq.l     A1, 6
00003518  20D9                     move.l     [A0]+, [A1]+
0000351A  20D9                     move.l     [A0]+, [A1]+
0000351C  42AC 000E                clr.l      [A4 + 0xE]
00003520  7000                     moveq.l    D0, 0x00
00003522  2940 0012                move.l     [A4 + 0x12], D0
00003526  297C 0048 0000 0016      move.l     [A4 + 0x16], 0x480000 /* 'H\0\0' */
0000352E  297C 0048 0000 001A      move.l     [A4 + 0x1A], 0x480000 /* 'H\0\0' */
00003536  426C 001E                clr.w      [A4 + 0x1E]
0000353A  397C 0001 0020           move.w     [A4 + 0x20], 0x1
00003540  397C 0001 0022           move.w     [A4 + 0x22], 0x1
00003546  397C 0001 0024           move.w     [A4 + 0x24], 0x1
0000354C  2940 0026                move.l     [A4 + 0x26], D0
00003550  2940 002A                move.l     [A4 + 0x2A], D0
00003554  2940 002E                move.l     [A4 + 0x2E], D0
00003558  4A93                     tst.l      [A3]
0000355A  6730                     beq        +0x32 /* 0000358C */
0000355C  206E FFFC                movea.l    A0, [A6 - 0x4]
00003560  A029                     syscall    HLock
00003562  598F                     subq.l     A7, 4
00003564  206E FFFC                movea.l    A0, [A6 - 0x4]
00003568  2F10                     move.l     -[A7], [A0]
0000356A  4EAD 0752                jsr        [A5 + 0x752 /* export_230, CODE:3 @ 00003690 */]
0000356E  289F                     move.l     [A4], [A7]+
00003570  2F0B                     move.l     -[A7], A3
00003572  2F0C                     move.l     -[A7], A4
00003574  486B 0006                pea.l      [A3 + 0x6]
00003578  486C 0006                pea.l      [A4 + 0x6]
0000357C  7000                     moveq.l    D0, 0x00
0000357E  3F00                     move.w     -[A7], D0
00003580  7200                     moveq.l    D1, 0x00
00003582  2F01                     move.l     -[A7], D1
00003584  A8EC                     syscall    CopyBits
00003586  206E FFFC                movea.l    A0, [A6 - 0x4]
0000358A  A02A                     syscall    HUnlock
label0000358C:
0000358C  006C 8000 0004           ori.w      [A4 + 0x4], 0x8000
00003592  202E FFFC                move.l     D0, [A6 - 0x4]
label00003596:
00003596  4CEE 18C0 FFEC           movem.l    D6,D7,A3,A4, [A6 - 0x14]
0000359C  4E5E                     unlink     A6
0000359E  4E75                     rts
fn000035A0:
000035A0  4E56 FFFC                link       A6, -0x0004
000035A4  48E7 0318                movem.l    -[A7], D6,D7,A3,A4
000035A8  266E 000C                movea.l    A3, [A6 + 0xC]
000035AC  286E 0008                movea.l    A4, [A6 + 0x8]
000035B0  7000                     moveq.l    D0, 0x00
000035B2  2D40 FFFC                move.l     [A6 - 0x4], D0
000035B6  558F                     subq.l     A7, 2
000035B8  2F0C                     move.l     -[A7], A4
000035BA  486E FFFC                pea.l      [A6 - 0x4]
000035BE  302C 0006                move.w     D0, [A4 + 0x6]
000035C2  48C0                     ext.l      D0
000035C4  5280                     addq.l     D0, 1
000035C6  E780                     asl        D0, 3
000035C8  5080                     addq.l     D0, 8
000035CA  2F00                     move.l     -[A7], D0
000035CC  4EAD 06DA                jsr        [A5 + 0x6DA /* export_215, CODE:3 @ 00003188 */]
000035D0  369F                     move.w     [A3], [A7]+
000035D2  6600 0084                bne        +0x86 /* 00003658 */
000035D6  206E FFFC                movea.l    A0, [A6 - 0x4]
000035DA  2050                     movea.l    A0, [A0]
000035DC  3028 0004                move.w     D0, [A0 + 0x4]
000035E0  48C0                     ext.l      D0
000035E2  323C 8000                move.w     D1, 0x8000
000035E6  C240                     and.w      D1, D0
000035E8  6758                     beq        +0x5A /* 00003642 */
000035EA  206E FFFC                movea.l    A0, [A6 - 0x4]
000035EE  2050                     movea.l    A0, [A0]
000035F0  3C28 0006                move.w     D6, [A0 + 0x6]
000035F4  0C46 0001                cmpi.w     D6, 0x1
000035F8  6712                     beq        +0x14 /* 0000360C */
000035FA  0C46 0003                cmpi.w     D6, 0x3
000035FE  670C                     beq        +0xE /* 0000360C */
00003600  0C46 000F                cmpi.w     D6, 0xF
00003604  6706                     beq        +0x8 /* 0000360C */
00003606  0C46 00FF                cmpi.w     D6, 0xFF
0000360A  6636                     bne        +0x38 /* 00003642 */
label0000360C:
0000360C  206E FFFC                movea.l    A0, [A6 - 0x4]
00003610  2050                     movea.l    A0, [A0]
00003612  48C6                     ext.l      D6
00003614  226E FFFC                movea.l    A1, [A6 - 0x4]
00003618  2251                     movea.l    A1, [A1]
0000361A  2006                     move.l     D0, D6
0000361C  E780                     asl        D0, 3
0000361E  3228 0008                move.w     D1, [A0 + 0x8]
00003622  B271 0808                cmp.w      D1, [A1 + D0 + 0x8]
00003626  661A                     bne        +0x1C /* 00003642 */
00003628  4247                     clr.w      D7
0000362A  6012                     bra        +0x14 /* 0000363E */
label0000362C:
0000362C  48C7                     ext.l      D7
0000362E  206E FFFC                movea.l    A0, [A6 - 0x4]
00003632  2050                     movea.l    A0, [A0]
00003634  2007                     move.l     D0, D7
00003636  E780                     asl        D0, 3
00003638  3187 0808                move.w     [A0 + D0 + 0x8], D7
0000363C  5247                     addq.w     D7, 1
label0000363E:
0000363E  BC47                     cmp.w      D6, D7
00003640  6CEA                     bge        -0x14 /* 0000362C */
label00003642:
00003642  206E FFFC                movea.l    A0, [A6 - 0x4]
00003646  2050                     movea.l    A0, [A0]
00003648  4268 0004                clr.w      [A0 + 0x4]
0000364C  598F                     subq.l     A7, 4
0000364E  AA28                     syscall    GetCTSeed
00003650  206E FFFC                movea.l    A0, [A6 - 0x4]
00003654  2050                     movea.l    A0, [A0]
00003656  209F                     move.l     [A0], [A7]+
label00003658:
00003658  202E FFFC                move.l     D0, [A6 - 0x4]
0000365C  4CEE 18C0 FFEC           movem.l    D6,D7,A3,A4, [A6 - 0x14]
00003662  4E5E                     unlink     A6
00003664  4E75                     rts
export_386:
00003666  4E56 FFC8                link       A6, -0x0038
0000366A  48E7 1118                movem.l    -[A7], D3,D7,A3,A4
0000366E  266E 0016                movea.l    A3, [A6 + 0x16]
00003672  426E FFFE                clr.w      [A6 - 0x2]
00003676  302E 000C                move.w     D0, [A6 + 0xC]
0000367A  48C0                     ext.l      D0
0000367C  206E 0008                movea.l    A0, [A6 + 0x8]
00003680  2050                     movea.l    A0, [A0]
00003682  2068 0004                movea.l    A0, [A0 + 0x4]
00003686  2050                     movea.l    A0, [A0]
00003688  E580                     asl        D0, 2
0000368A  2870 0802                movea.l    A4, [A0 + D0 + 0x2]
0000368E  200C                     move.l     D0, A4
00003690  6700 0138                beq        +0x13A /* 000037CA */
00003694  2054                     movea.l    A0, [A4]
00003696  2F28 0034                move.l     -[A7], [A0 + 0x34]
0000369A  4EAD 0ADA                jsr        [A5 + 0xADA /* export_343, CODE:9 @ 00000044 */]
0000369E  2054                     movea.l    A0, [A4]
000036A0  7000                     moveq.l    D0, 0x00
000036A2  2140 0034                move.l     [A0 + 0x34], D0
000036A6  2054                     movea.l    A0, [A4]
000036A8  3228 0006                move.w     D1, [A0 + 0x6]
000036AC  48C1                     ext.l      D1
000036AE  343C 8000                move.w     D2, 0x8000
000036B2  C441                     and.w      D2, D1
000036B4  584F                     addq.w     A7, 4
000036B6  671C                     beq        +0x1E /* 000036D4 */
000036B8  7000                     moveq.l    D0, 0x00
000036BA  1028 003B                move.b     D0, [A0 + 0x3B]
000036BE  4A80                     tst.l      D0
000036C0  6612                     bne        +0x14 /* 000036D4 */
000036C2  2F28 002C                move.l     -[A7], [A0 + 0x2C]
000036C6  4EAD 0ADA                jsr        [A5 + 0xADA /* export_343, CODE:9 @ 00000044 */]
000036CA  2054                     movea.l    A0, [A4]
000036CC  7000                     moveq.l    D0, 0x00
000036CE  2140 002C                move.l     [A0 + 0x2C], D0
000036D2  584F                     addq.w     A7, 4
label000036D4:
000036D4  302B 0004                move.w     D0, [A3 + 0x4]
000036D8  48C0                     ext.l      D0
000036DA  323C 8000                move.w     D1, 0x8000
000036DE  C240                     and.w      D1, D0
000036E0  6700 009A                beq        +0x9C /* 0000377C */
000036E4  41EE FFC8                lea.l      A0, [A6 - 0x38]
000036E8  224B                     movea.l    A1, A3
000036EA  700B                     moveq.l    D0, 0x0B
label000036EC:
000036EC  20D9                     move.l     [A0]+, [A1]+
000036EE  51C8 FFFC                dbf        D0, -0x6 /* 000036EC */
000036F2  30D9                     move.w     [A0]+, [A1]+
000036F4  2D6E 000E FFC8           move.l     [A6 - 0x38], [A6 + 0xE]
000036FA  486E FFFE                pea.l      [A6 - 0x2]
000036FE  2F2E 0012                move.l     -[A7], [A6 + 0x12]
00003702  4EBA FE9C                jsr        [PC - 0x164 /* 000035A0 */]
00003706  2D40 FFFA                move.l     [A6 - 0x6], D0
0000370A  4A6E FFFE                tst.w      [A6 - 0x2]
0000370E  504F                     addq.w     A7, 8
00003710  670A                     beq        +0xC /* 0000371C */
00003712  3D6E FFFE 001A           move.w     [A6 + 0x1A], [A6 - 0x2]
00003718  6000 00B6                bra        +0xB8 /* 000037D0 */
label0000371C:
0000371C  2D6E FFFA FFF2           move.l     [A6 - 0xE], [A6 - 0x6]
00003722  204C                     movea.l    A0, A4
00003724  A029                     syscall    HLock
00003726  2054                     movea.l    A0, [A4]
00003728  7000                     moveq.l    D0, 0x00
0000372A  1028 003A                move.b     D0, [A0 + 0x3A]
0000372E  4A80                     tst.l      D0
00003730  57C3                     seq        D3
00003732  4403                     neg.b      D3
00003734  1E03                     move.b     D7, D3
00003736  6708                     beq        +0xA /* 00003740 */
00003738  317C 0008 0022           move.w     [A0 + 0x22], 0x8
0000373E  6008                     bra        +0xA /* 00003748 */
label00003740:
00003740  2054                     movea.l    A0, [A4]
00003742  316B 0020 0022           move.w     [A0 + 0x22], [A3 + 0x20]
label00003748:
00003748  486E FFFE                pea.l      [A6 - 0x2]
0000374C  7000                     moveq.l    D0, 0x00
0000374E  1007                     move.b     D0, D7
00003750  2F00                     move.l     -[A7], D0
00003752  2054                     movea.l    A0, [A4]
00003754  4868 0002                pea.l      [A0 + 0x2]
00003758  486E FFC8                pea.l      [A6 - 0x38]
0000375C  4EBA F938                jsr        [PC - 0x6C8 /* 00003096 */]
00003760  2054                     movea.l    A0, [A4]
00003762  2140 0034                move.l     [A0 + 0x34], D0
00003766  2054                     movea.l    A0, [A4]
00003768  4228 003B                clr.b      [A0 + 0x3B]
0000376C  204C                     movea.l    A0, A4
0000376E  A02A                     syscall    HUnlock
00003770  206E FFFA                movea.l    A0, [A6 - 0x6]
00003774  A023                     syscall    DisposHandle/DisposeHandle
00003776  4FEF 0010                lea.l      A7, [A7 + 0x10]
0000377A  6040                     bra        +0x42 /* 000037BC */
label0000377C:
0000377C  41EE FFF0                lea.l      A0, [A6 - 0x10]
00003780  224B                     movea.l    A1, A3
00003782  20D9                     move.l     [A0]+, [A1]+
00003784  20D9                     move.l     [A0]+, [A1]+
00003786  20D9                     move.l     [A0]+, [A1]+
00003788  30D9                     move.w     [A0]+, [A1]+
0000378A  2D6E 000E FFF0           move.l     [A6 - 0x10], [A6 + 0xE]
00003790  204C                     movea.l    A0, A4
00003792  A029                     syscall    HLock
00003794  486E FFFE                pea.l      [A6 - 0x2]
00003798  2054                     movea.l    A0, [A4]
0000379A  4868 0002                pea.l      [A0 + 0x2]
0000379E  486E FFF0                pea.l      [A6 - 0x10]
000037A2  4EBA FD14                jsr        [PC - 0x2EC /* 000034B8 */]
000037A6  2054                     movea.l    A0, [A4]
000037A8  2140 0034                move.l     [A0 + 0x34], D0
000037AC  2054                     movea.l    A0, [A4]
000037AE  117C 0001 003B           move.b     [A0 + 0x3B], 0x1
000037B4  204C                     movea.l    A0, A4
000037B6  A02A                     syscall    HUnlock
000037B8  4FEF 000C                lea.l      A7, [A7 + 0xC]
label000037BC:
000037BC  4AAE 000E                tst.l      [A6 + 0xE]
000037C0  56C3                     sne        D3
000037C2  4403                     neg.b      D3
000037C4  2054                     movea.l    A0, [A4]
000037C6  1143 0060                move.b     [A0 + 0x60], D3
label000037CA:
000037CA  3D6E FFFE 001A           move.w     [A6 + 0x1A], [A6 - 0x2]
label000037D0:
000037D0  4CEE 1888 FFB8           movem.l    D3,D7,A3,A4, [A6 - 0x48]
000037D6  4E5E                     unlink     A6
000037D8  205F                     movea.l    A0, [A7]+
000037DA  4FEF 0012                lea.l      A7, [A7 + 0x12]
000037DE  4ED0                     jmp        [A0]
export_387:
000037E0  4E56 FFFA                link       A6, -0x0006
000037E4  48E7 0018                movem.l    -[A7], A3,A4
000037E8  426E FFFE                clr.w      [A6 - 0x2]
000037EC  302E 000C                move.w     D0, [A6 + 0xC]
000037F0  48C0                     ext.l      D0
000037F2  206E 0008                movea.l    A0, [A6 + 0x8]
000037F6  2050                     movea.l    A0, [A0]
000037F8  2068 0004                movea.l    A0, [A0 + 0x4]
000037FC  2050                     movea.l    A0, [A0]
000037FE  E580                     asl        D0, 2
00003800  2870 0802                movea.l    A4, [A0 + D0 + 0x2]
00003804  200C                     move.l     D0, A4
00003806  6700 0094                beq        +0x96 /* 0000389C */
0000380A  7032                     moveq.l    D0, 0x32
0000380C  A122                     syscall    NewHandle, flags=1
0000380E  2648                     movea.l    A3, A0
00003810  3D78 0220 FFFE           move.w     [A6 - 0x2], [0x00000220 /* MemErr */]
00003816  670A                     beq        +0xC /* 00003822 */
00003818  3D6E FFFE 0016           move.w     [A6 + 0x16], [A6 - 0x2]
0000381E  6000 0082                bra        +0x84 /* 000038A2 */
label00003822:
00003822  204C                     movea.l    A0, A4
00003824  A029                     syscall    HLock
00003826  204B                     movea.l    A0, A3
00003828  A029                     syscall    HLock
0000382A  2054                     movea.l    A0, [A4]
0000382C  2068 0034                movea.l    A0, [A0 + 0x34]
00003830  A029                     syscall    HLock
00003832  598F                     subq.l     A7, 4
00003834  2054                     movea.l    A0, [A4]
00003836  2068 0034                movea.l    A0, [A0 + 0x34]
0000383A  2F10                     move.l     -[A7], [A0]
0000383C  4EAD 0752                jsr        [A5 + 0x752 /* export_230, CODE:3 @ 00003690 */]
00003840  2054                     movea.l    A0, [A4]
00003842  215F 0002                move.l     [A0 + 0x2], [A7]+
00003846  486E FFFE                pea.l      [A6 - 0x2]
0000384A  2F13                     move.l     -[A7], [A3]
0000384C  2054                     movea.l    A0, [A4]
0000384E  4868 0002                pea.l      [A0 + 0x2]
00003852  4EBA F958                jsr        [PC - 0x6A8 /* 000031AC */]
00003856  2D40 FFFA                move.l     [A6 - 0x6], D0
0000385A  2054                     movea.l    A0, [A4]
0000385C  2068 0034                movea.l    A0, [A0 + 0x34]
00003860  A02A                     syscall    HUnlock
00003862  204B                     movea.l    A0, A3
00003864  A02A                     syscall    HUnlock
00003866  204C                     movea.l    A0, A4
00003868  A02A                     syscall    HUnlock
0000386A  4A6E FFFE                tst.w      [A6 - 0x2]
0000386E  4FEF 000C                lea.l      A7, [A7 + 0xC]
00003872  6610                     bne        +0x12 /* 00003884 */
00003874  206E 0012                movea.l    A0, [A6 + 0x12]
00003878  208B                     move.l     [A0], A3
0000387A  206E 000E                movea.l    A0, [A6 + 0xE]
0000387E  20AE FFFA                move.l     [A0], [A6 - 0x6]
00003882  6018                     bra        +0x1A /* 0000389C */
label00003884:
00003884  204B                     movea.l    A0, A3
00003886  A023                     syscall    DisposHandle/DisposeHandle
00003888  206E FFFA                movea.l    A0, [A6 - 0x6]
0000388C  A023                     syscall    DisposHandle/DisposeHandle
0000388E  206E 0012                movea.l    A0, [A6 + 0x12]
00003892  7000                     moveq.l    D0, 0x00
00003894  2080                     move.l     [A0], D0
00003896  206E 000E                movea.l    A0, [A6 + 0xE]
0000389A  2080                     move.l     [A0], D0
label0000389C:
0000389C  3D6E FFFE 0016           move.w     [A6 + 0x16], [A6 - 0x2]
label000038A2:
000038A2  4CEE 1800 FFF2           movem.l    A3,A4, [A6 - 0xE]
000038A8  4E5E                     unlink     A6
000038AA  205F                     movea.l    A0, [A7]+
000038AC  4FEF 000E                lea.l      A7, [A7 + 0xE]
000038B0  4ED0                     jmp        [A0]
export_388:
000038B2  4E56 FFA4                link       A6, -0x005C
000038B6  48E7 0118                movem.l    -[A7], D7,A3,A4
000038BA  266E 0008                movea.l    A3, [A6 + 0x8]
000038BE  2053                     movea.l    A0, [A3]
000038C0  2068 004C                movea.l    A0, [A0 + 0x4C]
000038C4  2050                     movea.l    A0, [A0]
000038C6  2D68 000C FFEA           move.l     [A6 - 0x16], [A0 + 0xC]
000038CC  2053                     movea.l    A0, [A3]
000038CE  2D68 0048 FFF4           move.l     [A6 - 0xC], [A0 + 0x48]
000038D4  558F                     subq.l     A7, 2
000038D6  486E FFEA                pea.l      [A6 - 0x16]
000038DA  4EAD 06D2                jsr        [A5 + 0x6D2 /* export_214, CODE:3 @ 00003172 */]
000038DE  3D5F FFEE                move.w     [A6 - 0x12], [A7]+
000038E2  6706                     beq        +0x8 /* 000038EA */
000038E4  7000                     moveq.l    D0, 0x00
000038E6  6000 0270                bra        +0x272 /* 00003B58 */
label000038EA:
000038EA  7000                     moveq.l    D0, 0x00
000038EC  A122                     syscall    NewHandle, flags=1
000038EE  2648                     movea.l    A3, A0
000038F0  598F                     subq.l     A7, 4
000038F2  2F0B                     move.l     -[A7], A3
000038F4  2F3C 5049 4354           move.l     -[A7], 0x50494354 /* 'PICT' */
000038FA  486E FFF0                pea.l      [A6 - 0x10]
000038FE  A9FD                     syscall    GetScrap
00003900  201F                     move.l     D0, [A7]+
00003902  3D40 FFEE                move.w     [A6 - 0x12], D0
00003906  6D00 023A                blt        +0x23C /* 00003B42 */
0000390A  7032                     moveq.l    D0, 0x32
0000390C  A322                     syscall    NewHandleClear, flags=3
0000390E  2848                     movea.l    A4, A0
00003910  3D78 0220 FFEE           move.w     [A6 - 0x12], [0x00000220 /* MemErr */]
00003916  6600 0226                bne        +0x228 /* 00003B3E */
0000391A  206E FFF4                movea.l    A0, [A6 - 0xC]
0000391E  2050                     movea.l    A0, [A0]
00003920  2254                     movea.l    A1, [A4]
00003922  5C89                     addq.l     A1, 6
00003924  41E8 00C0                lea.l      A0, [A0 + 0xC0]
00003928  22D8                     move.l     [A1]+, [A0]+
0000392A  22D8                     move.l     [A1]+, [A0]+
0000392C  558F                     subq.l     A7, 2
0000392E  2054                     movea.l    A0, [A4]
00003930  4868 0006                pea.l      [A0 + 0x6]
00003934  A8AE                     syscall    EmptyRect
00003936  4A1F                     tst.b      [A7]+
00003938  670C                     beq        +0xE /* 00003946 */
0000393A  2053                     movea.l    A0, [A3]
0000393C  2254                     movea.l    A1, [A4]
0000393E  5C89                     addq.l     A1, 6
00003940  5488                     addq.l     A0, 2
00003942  22D8                     move.l     [A1]+, [A0]+
00003944  22D8                     move.l     [A1]+, [A0]+
label00003946:
00003946  2054                     movea.l    A0, [A4]
00003948  2248                     movea.l    A1, A0
0000394A  3028 000A                move.w     D0, [A0 + 0xA]
0000394E  9069 0006                sub.w      D0, [A1 + 0x6]
00003952  3D40 FFF8                move.w     [A6 - 0x8], D0
00003956  2054                     movea.l    A0, [A4]
00003958  2248                     movea.l    A1, A0
0000395A  3028 000C                move.w     D0, [A0 + 0xC]
0000395E  9069 0008                sub.w      D0, [A1 + 0x8]
00003962  3D40 FFFA                move.w     [A6 - 0x6], D0
00003966  2F2E FFEA                move.l     -[A7], [A6 - 0x16]
0000396A  4EBA ECB4                jsr        [PC - 0x134C /* 00002620 */]
0000396E  2054                     movea.l    A0, [A4]
00003970  3140 0024                move.w     [A0 + 0x24], D0
00003974  2054                     movea.l    A0, [A4]
00003976  3140 0020                move.w     [A0 + 0x20], D0
0000397A  2054                     movea.l    A0, [A4]
0000397C  3028 0020                move.w     D0, [A0 + 0x20]
00003980  48C0                     ext.l      D0
00003982  2F00                     move.l     -[A7], D0
00003984  2F2E FFF8                move.l     -[A7], [A6 - 0x8]
00003988  4EBA EC46                jsr        [PC - 0x13BA /* 000025D0 */]
0000398C  2054                     movea.l    A0, [A4]
0000398E  3140 0004                move.w     [A0 + 0x4], D0
00003992  2054                     movea.l    A0, [A4]
00003994  217C 0048 0000 0016      move.l     [A0 + 0x16], 0x480000 /* 'H\0\0' */
0000399C  2054                     movea.l    A0, [A4]
0000399E  217C 0048 0000 001A      move.l     [A0 + 0x1A], 0x480000 /* 'H\0\0' */
000039A6  2054                     movea.l    A0, [A4]
000039A8  317C 0001 0022           move.w     [A0 + 0x22], 0x1
000039AE  2054                     movea.l    A0, [A4]
000039B0  216E FFEA 002A           move.l     [A0 + 0x2A], [A6 - 0x16]
000039B6  2054                     movea.l    A0, [A4]
000039B8  3028 0004                move.w     D0, [A0 + 0x4]
000039BC  48C0                     ext.l      D0
000039BE  323C 7FFF                move.w     D1, 0x7FFF
000039C2  C240                     and.w      D1, D0
000039C4  7000                     moveq.l    D0, 0x00
000039C6  3001                     move.w     D0, D1
000039C8  322E FFF8                move.w     D1, [A6 - 0x8]
000039CC  48C1                     ext.l      D1
000039CE  4EAD 0762                jsr        [A5 + 0x762 /* export_232, CODE:3 @ 00003704 */]
000039D2  2E00                     move.l     D7, D0
000039D4  A11E                     syscall    NewPtr, flags=1
000039D6  2D48 FFFC                move.l     [A6 - 0x4], A0
000039DA  3D78 0220 FFEE           move.w     [A6 - 0x12], [0x00000220 /* MemErr */]
000039E0  4FEF 000C                lea.l      A7, [A7 + 0xC]
000039E4  6600 0154                bne        +0x156 /* 00003B3A */
000039E8  486E FFEE                pea.l      [A6 - 0x12]
000039EC  2F14                     move.l     -[A7], [A4]
000039EE  4EBA F48E                jsr        [PC - 0xB72 /* 00002E7E */]
000039F2  2D40 FFE6                move.l     [A6 - 0x1A], D0
000039F6  4A6E FFEE                tst.w      [A6 - 0x12]
000039FA  504F                     addq.w     A7, 8
000039FC  6600 0136                bne        +0x138 /* 00003B34 */
00003A00  206E FFF4                movea.l    A0, [A6 - 0xC]
00003A04  2050                     movea.l    A0, [A0]
00003A06  43EE FFD2                lea.l      A1, [A6 - 0x2E]
00003A0A  41E8 0030                lea.l      A0, [A0 + 0x30]
00003A0E  22D8                     move.l     [A1]+, [A0]+
00003A10  32D8                     move.w     [A1]+, [A0]+
00003A12  206E FFF4                movea.l    A0, [A6 - 0xC]
00003A16  2050                     movea.l    A0, [A0]
00003A18  43EE FFD8                lea.l      A1, [A6 - 0x28]
00003A1C  41E8 0036                lea.l      A0, [A0 + 0x36]
00003A20  22D8                     move.l     [A1]+, [A0]+
00003A22  32D8                     move.w     [A1]+, [A0]+
00003A24  486E FFC6                pea.l      [A6 - 0x3A]
00003A28  AA19                     syscall    GetForeColor
00003A2A  486E FFCC                pea.l      [A6 - 0x34]
00003A2E  AA1A                     syscall    GetBackColor
00003A30  598F                     subq.l     A7, 4
00003A32  AA32                     syscall    GetGDevice
00003A34  2D5F FFE2                move.l     [A6 - 0x1E], [A7]+
00003A38  2F2E FFE6                move.l     -[A7], [A6 - 0x1A]
00003A3C  AA31                     syscall    SetGDevice
00003A3E  486E FFA4                pea.l      [A6 - 0x5C]
00003A42  A874                     syscall    GetPort
00003A44  206E FFA4                movea.l    A0, [A6 - 0x5C]
00003A48  2D68 0002 FFA8           move.l     [A6 - 0x58], [A0 + 0x2]
00003A4E  486E FFAC                pea.l      [A6 - 0x54]
00003A52  A898                     syscall    GetPenState
00003A54  598F                     subq.l     A7, 4
00003A56  A8D8                     syscall    NewRgn
00003A58  2D57 FFBE                move.l     [A6 - 0x42], [A7]
00003A5C  A87A                     syscall    GetClip
00003A5E  598F                     subq.l     A7, 4
00003A60  A8D8                     syscall    NewRgn
00003A62  2D5F FFC2                move.l     [A6 - 0x3E], [A7]+
00003A66  206E FFA4                movea.l    A0, [A6 - 0x5C]
00003A6A  2F28 0018                move.l     -[A7], [A0 + 0x18]
00003A6E  2F2E FFC2                move.l     -[A7], [A6 - 0x3E]
00003A72  A8DC                     syscall    CopyRgn
00003A74  204C                     movea.l    A0, A4
00003A76  A029                     syscall    HLock
00003A78  2054                     movea.l    A0, [A4]
00003A7A  20AE FFFC                move.l     [A0], [A6 - 0x4]
00003A7E  2F0C                     move.l     -[A7], A4
00003A80  AA06                     syscall    SetPortPix/SetCPortPix
00003A82  2054                     movea.l    A0, [A4]
00003A84  4868 0006                pea.l      [A0 + 0x6]
00003A88  A87B                     syscall    ClipRect
00003A8A  206E FFA4                movea.l    A0, [A6 - 0x5C]
00003A8E  2F28 0018                move.l     -[A7], [A0 + 0x18]
00003A92  2054                     movea.l    A0, [A4]
00003A94  4868 0006                pea.l      [A0 + 0x6]
00003A98  A8DF                     syscall    RectRgn
00003A9A  486E FFD2                pea.l      [A6 - 0x2E]
00003A9E  AA14                     syscall    RGBForeColor
00003AA0  486E FFD8                pea.l      [A6 - 0x28]
00003AA4  AA15                     syscall    RGBBackColor
00003AA6  2F0B                     move.l     -[A7], A3
00003AA8  2054                     movea.l    A0, [A4]
00003AAA  4868 0006                pea.l      [A0 + 0x6]
00003AAE  A8F6                     syscall    DrawPicture
00003AB0  486E FFEE                pea.l      [A6 - 0x12]
00003AB4  7000                     moveq.l    D0, 0x00
00003AB6  2F00                     move.l     -[A7], D0
00003AB8  2F14                     move.l     -[A7], [A4]
00003ABA  4EBA EBA2                jsr        [PC - 0x145E /* 0000265E */]
00003ABE  2D40 FFDE                move.l     [A6 - 0x22], D0
00003AC2  4FEF 000C                lea.l      A7, [A7 + 0xC]
00003AC6  6724                     beq        +0x26 /* 00003AEC */
00003AC8  206E FFEA                movea.l    A0, [A6 - 0x16]
00003ACC  2050                     movea.l    A0, [A0]
00003ACE  3028 0006                move.w     D0, [A0 + 0x6]
00003AD2  48C0                     ext.l      D0
00003AD4  2F00                     move.l     -[A7], D0
00003AD6  2F2E FFDE                move.l     -[A7], [A6 - 0x22]
00003ADA  2F2E FFEA                move.l     -[A7], [A6 - 0x16]
00003ADE  4EBA EDFA                jsr        [PC - 0x1206 /* 000028DA */]
00003AE2  206E FFDE                movea.l    A0, [A6 - 0x22]
00003AE6  A023                     syscall    DisposHandle/DisposeHandle
00003AE8  4FEF 000C                lea.l      A7, [A7 + 0xC]
label00003AEC:
00003AEC  204C                     movea.l    A0, A4
00003AEE  A02A                     syscall    HUnlock
00003AF0  2F2E FFA8                move.l     -[A7], [A6 - 0x58]
00003AF4  AA06                     syscall    SetPortPix/SetCPortPix
00003AF6  486E FFAC                pea.l      [A6 - 0x54]
00003AFA  A899                     syscall    SetPenState
00003AFC  2F2E FFC2                move.l     -[A7], [A6 - 0x3E]
00003B00  206E FFA4                movea.l    A0, [A6 - 0x5C]
00003B04  2F28 0018                move.l     -[A7], [A0 + 0x18]
00003B08  A8DC                     syscall    CopyRgn
00003B0A  2F2E FFBE                move.l     -[A7], [A6 - 0x42]
00003B0E  A879                     syscall    SetClip
00003B10  2F2E FFBE                move.l     -[A7], [A6 - 0x42]
00003B14  A8D9                     syscall    DisposRgn/DisposeRgn
00003B16  2F2E FFC2                move.l     -[A7], [A6 - 0x3E]
00003B1A  A8D9                     syscall    DisposRgn/DisposeRgn
00003B1C  2F2E FFE2                move.l     -[A7], [A6 - 0x1E]
00003B20  AA31                     syscall    SetGDevice
00003B22  2F2E FFE6                move.l     -[A7], [A6 - 0x1A]
00003B26  AA30                     syscall    DisposeGDevice/DisposGDevice
00003B28  486E FFC6                pea.l      [A6 - 0x3A]
00003B2C  AA14                     syscall    RGBForeColor
00003B2E  486E FFCC                pea.l      [A6 - 0x34]
00003B32  AA15                     syscall    RGBBackColor
label00003B34:
00003B34  206E FFFC                movea.l    A0, [A6 - 0x4]
00003B38  A01F                     syscall    DisposPtr/DisposePtr
label00003B3A:
00003B3A  204C                     movea.l    A0, A4
00003B3C  A023                     syscall    DisposHandle/DisposeHandle
label00003B3E:
00003B3E  204B                     movea.l    A0, A3
00003B40  A023                     syscall    DisposHandle/DisposeHandle
label00003B42:
00003B42  4A6E FFEE                tst.w      [A6 - 0x12]
00003B46  670C                     beq        +0xE /* 00003B54 */
00003B48  206E FFEA                movea.l    A0, [A6 - 0x16]
00003B4C  A023                     syscall    DisposHandle/DisposeHandle
00003B4E  7000                     moveq.l    D0, 0x00
00003B50  2D40 FFEA                move.l     [A6 - 0x16], D0
label00003B54:
00003B54  202E FFEA                move.l     D0, [A6 - 0x16]
label00003B58:
00003B58  4CEE 1880 FF98           movem.l    D7,A3,A4, [A6 - 0x68]
00003B5E  4E5E                     unlink     A6
00003B60  4E75                     rts
