# export_0 => 00000016
# export_1 => 0000001A
# export_2 => 0000001E
# export_3 => 00000022
# export_4 => 00000026
# export_5 => 0000002A
# export_6 => (not set)
# export_7 => (not set)
# export_8 => (not set)
export_0:
00000016  4EFA 0C48                jmp        [PC + 0xC48 /* 00000C60 */]
export_1:
0000001A  4EFA 0F6C                jmp        [PC + 0xF6C /* 00000F88 */]
export_2:
0000001E  4EFA 14D2                jmp        [PC + 0x14D2 /* 000014F2 */]
export_3:
00000022  4EFA 19B2                jmp        [PC + 0x19B2 /* 000019D6 */]
export_4:
00000026  4EFA 1B10                jmp        [PC + 0x1B10 /* 00001B38 */]
export_5:
0000002A  4EFA 1B82                jmp        [PC + 0x1B82 /* 00001BAE */]
fn0000002E:
0000002E  4E56 FF00                link       A6, -0x0100
00000032  41FA FFCC                lea.l      A0, [PC - 0x34 /* 00000000 */]
00000036  A128                     syscall    RecoverHandle, flags=1
00000038  2F08                     move.l     -[A7], A0
0000003A  486E 0008                pea.l      [A6 + 0x8]
0000003E  486E FF00                pea.l      [A6 - 0x100]
00000042  2F17                     move.l     -[A7], [A7]
00000044  A9A8                     syscall    GetResInfo
00000046  4E5E                     unlink     A6
00000048  4E75                     rts
0000004A  4EBA 0206                jsr        [PC + 0x206 /* 00000252 */]
fn0000004E:
0000004E  4EBA 0202                jsr        [PC + 0x202 /* 00000252 */]
00000052  4EBA 01FE                jsr        [PC + 0x1FE /* 00000252 */]
fn00000056:
00000056  4EBA 01FA                jsr        [PC + 0x1FA /* 00000252 */]
0000005A  4EBA 01F6                jsr        [PC + 0x1F6 /* 00000252 */]
0000005E  4EBA 01F2                jsr        [PC + 0x1F2 /* 00000252 */]
00000062  4EBA 01EE                jsr        [PC + 0x1EE /* 00000252 */]
00000066  4EBA 01EA                jsr        [PC + 0x1EA /* 00000252 */]
0000006A  4EBA 01E6                jsr        [PC + 0x1E6 /* 00000252 */]
fn0000006E:
0000006E  4EBA 01E2                jsr        [PC + 0x1E2 /* 00000252 */]
00000072  4EBA 01DE                jsr        [PC + 0x1DE /* 00000252 */]
00000076  4EBA 01DA                jsr        [PC + 0x1DA /* 00000252 */]
0000007A  4EBA 01D6                jsr        [PC + 0x1D6 /* 00000252 */]
0000007E  4EBA 01D2                jsr        [PC + 0x1D2 /* 00000252 */]
00000082  4EBA 01CE                jsr        [PC + 0x1CE /* 00000252 */]
00000086  4EBA 01CA                jsr        [PC + 0x1CA /* 00000252 */]
0000008A  4EBA 01C6                jsr        [PC + 0x1C6 /* 00000252 */]
0000008E  4EBA 01C2                jsr        [PC + 0x1C2 /* 00000252 */]
00000092  4EBA 01BE                jsr        [PC + 0x1BE /* 00000252 */]
00000096  4EBA 01BA                jsr        [PC + 0x1BA /* 00000252 */]
fn0000009A:
0000009A  4EBA 01B6                jsr        [PC + 0x1B6 /* 00000252 */]
fn0000009E:
0000009E  4EBA 01B2                jsr        [PC + 0x1B2 /* 00000252 */]
000000A2  4EBA 01AE                jsr        [PC + 0x1AE /* 00000252 */]
fn000000A6:
000000A6  4EBA 01AA                jsr        [PC + 0x1AA /* 00000252 */]
000000AA  4EBA 01A6                jsr        [PC + 0x1A6 /* 00000252 */]
000000AE  4EBA 01A2                jsr        [PC + 0x1A2 /* 00000252 */]
000000B2  4EBA 019E                jsr        [PC + 0x19E /* 00000252 */]
000000B6  4EBA 019A                jsr        [PC + 0x19A /* 00000252 */]
000000BA  4EBA 0196                jsr        [PC + 0x196 /* 00000252 */]
fn000000BE:
000000BE  4EBA 0192                jsr        [PC + 0x192 /* 00000252 */]
000000C2  4EBA 018E                jsr        [PC + 0x18E /* 00000252 */]
000000C6  4EBA 018A                jsr        [PC + 0x18A /* 00000252 */]
000000CA  4EBA 0186                jsr        [PC + 0x186 /* 00000252 */]
fn000000CE:
000000CE  4EBA 0182                jsr        [PC + 0x182 /* 00000252 */]
000000D2  4EBA 017E                jsr        [PC + 0x17E /* 00000252 */]
fn000000D6:
000000D6  4EBA 017A                jsr        [PC + 0x17A /* 00000252 */]
000000DA  4EBA 0176                jsr        [PC + 0x176 /* 00000252 */]
fn000000DE:
000000DE  4EBA 0172                jsr        [PC + 0x172 /* 00000252 */]
fn000000E2:
000000E2  4EBA 016E                jsr        [PC + 0x16E /* 00000252 */]
fn000000E6:
000000E6  4EBA 016A                jsr        [PC + 0x16A /* 00000252 */]
fn000000EA:
000000EA  4EBA 0166                jsr        [PC + 0x166 /* 00000252 */]
000000EE  4EBA 0162                jsr        [PC + 0x162 /* 00000252 */]
fn000000F2:
000000F2  4EBA 015E                jsr        [PC + 0x15E /* 00000252 */]
fn000000F6:
000000F6  4EBA 015A                jsr        [PC + 0x15A /* 00000252 */]
000000FA  4EBA 0156                jsr        [PC + 0x156 /* 00000252 */]
fn000000FE:
000000FE  4EBA 0152                jsr        [PC + 0x152 /* 00000252 */]
fn00000102:
00000102  4EBA 014E                jsr        [PC + 0x14E /* 00000252 */]
fn00000106:
00000106  4EBA 014A                jsr        [PC + 0x14A /* 00000252 */]
0000010A  4EBA 0146                jsr        [PC + 0x146 /* 00000252 */]
0000010E  4EBA 0142                jsr        [PC + 0x142 /* 00000252 */]
fn00000112:
00000112  4EBA 013E                jsr        [PC + 0x13E /* 00000252 */]
00000116  4EBA 013A                jsr        [PC + 0x13A /* 00000252 */]
0000011A  4EBA 0136                jsr        [PC + 0x136 /* 00000252 */]
0000011E  4EBA 0132                jsr        [PC + 0x132 /* 00000252 */]
00000122  4EBA 012E                jsr        [PC + 0x12E /* 00000252 */]
00000126  4EBA 012A                jsr        [PC + 0x12A /* 00000252 */]
0000012A  4EBA 0126                jsr        [PC + 0x126 /* 00000252 */]
0000012E  4EBA 0122                jsr        [PC + 0x122 /* 00000252 */]
fn00000132:
00000132  4EBA 011E                jsr        [PC + 0x11E /* 00000252 */]
fn00000136:
00000136  4EBA 011A                jsr        [PC + 0x11A /* 00000252 */]
fn0000013A:
0000013A  4EBA 0116                jsr        [PC + 0x116 /* 00000252 */]
0000013E  4EBA 0112                jsr        [PC + 0x112 /* 00000252 */]
fn00000142:
00000142  4EBA 010E                jsr        [PC + 0x10E /* 00000252 */]
00000146  4EBA 010A                jsr        [PC + 0x10A /* 00000252 */]
fn0000014A:
0000014A  4EBA 0106                jsr        [PC + 0x106 /* 00000252 */]
fn0000014E:
0000014E  4EBA 0102                jsr        [PC + 0x102 /* 00000252 */]
fn00000152:
00000152  4EBA 00FE                jsr        [PC + 0xFE /* 00000252 */]
00000156  4EBA 00FA                jsr        [PC + 0xFA /* 00000252 */]
0000015A  4EBA 00F6                jsr        [PC + 0xF6 /* 00000252 */]
fn0000015E:
0000015E  4EBA 00F2                jsr        [PC + 0xF2 /* 00000252 */]
00000162  4EBA 00EE                jsr        [PC + 0xEE /* 00000252 */]
00000166  4EBA 00EA                jsr        [PC + 0xEA /* 00000252 */]
0000016A  4EBA 00E6                jsr        [PC + 0xE6 /* 00000252 */]
fn0000016E:
0000016E  4EBA 00E2                jsr        [PC + 0xE2 /* 00000252 */]
00000172  4EBA 00DE                jsr        [PC + 0xDE /* 00000252 */]
00000176  4EBA 00DA                jsr        [PC + 0xDA /* 00000252 */]
0000017A  4EBA 00D6                jsr        [PC + 0xD6 /* 00000252 */]
0000017E  4EBA 00D2                jsr        [PC + 0xD2 /* 00000252 */]
fn00000182:
00000182  4EBA 00CE                jsr        [PC + 0xCE /* 00000252 */]
00000186  4EBA 00CA                jsr        [PC + 0xCA /* 00000252 */]
0000018A  4EBA 00C6                jsr        [PC + 0xC6 /* 00000252 */]
0000018E  4EBA 00C2                jsr        [PC + 0xC2 /* 00000252 */]
fn00000192:
00000192  4EBA 00BE                jsr        [PC + 0xBE /* 00000252 */]
00000196  4EBA 00BA                jsr        [PC + 0xBA /* 00000252 */]
0000019A  4EBA 00B6                jsr        [PC + 0xB6 /* 00000252 */]
fn0000019E:
0000019E  4EBA 00B2                jsr        [PC + 0xB2 /* 00000252 */]
000001A2  4EBA 00AE                jsr        [PC + 0xAE /* 00000252 */]
000001A6  4EBA 00AA                jsr        [PC + 0xAA /* 00000252 */]
000001AA  4EBA 00A6                jsr        [PC + 0xA6 /* 00000252 */]
000001AE  4EBA 00A2                jsr        [PC + 0xA2 /* 00000252 */]
000001B2  4EBA 009E                jsr        [PC + 0x9E /* 00000252 */]
000001B6  4EBA 009A                jsr        [PC + 0x9A /* 00000252 */]
000001BA  4EBA 0096                jsr        [PC + 0x96 /* 00000252 */]
fn000001BE:
000001BE  4EBA 0092                jsr        [PC + 0x92 /* 00000252 */]
000001C2  4EBA 008E                jsr        [PC + 0x8E /* 00000252 */]
000001C6  4EBA 008A                jsr        [PC + 0x8A /* 00000252 */]
000001CA  4EBA 0086                jsr        [PC + 0x86 /* 00000252 */]
000001CE  4EBA 0082                jsr        [PC + 0x82 /* 00000252 */]
000001D2  4EBA 007E                jsr        [PC + 0x7E /* 00000252 */]
000001D6  4EBA 007A                jsr        [PC + 0x7A /* 00000252 */]
000001DA  4EBA 0076                jsr        [PC + 0x76 /* 00000252 */]
000001DE  4EBA 0072                jsr        [PC + 0x72 /* 00000252 */]
000001E2  4EBA 006E                jsr        [PC + 0x6E /* 00000252 */]
000001E6  4EBA 006A                jsr        [PC + 0x6A /* 00000252 */]
000001EA  4EBA 0066                jsr        [PC + 0x66 /* 00000252 */]
000001EE  4EBA 0062                jsr        [PC + 0x62 /* 00000252 */]
000001F2  4EBA 005E                jsr        [PC + 0x5E /* 00000252 */]
000001F6  4EBA 005A                jsr        [PC + 0x5A /* 00000252 */]
000001FA  4EBA 0056                jsr        [PC + 0x56 /* 00000252 */]
000001FE  4EBA 0052                jsr        [PC + 0x52 /* 00000252 */]
fn00000202:
00000202  4EBA 004E                jsr        [PC + 0x4E /* 00000252 */]
00000206  4EBA 004A                jsr        [PC + 0x4A /* 00000252 */]
fn0000020A:
0000020A  4EBA 0046                jsr        [PC + 0x46 /* 00000252 */]
fn0000020E:
0000020E  4EBA 0042                jsr        [PC + 0x42 /* 00000252 */]
fn00000212:
00000212  4EBA 003E                jsr        [PC + 0x3E /* 00000252 */]
fn00000216:
00000216  4EBA 003A                jsr        [PC + 0x3A /* 00000252 */]
fn0000021A:
0000021A  4EBA 0036                jsr        [PC + 0x36 /* 00000252 */]
fn0000021E:
0000021E  4EBA 0032                jsr        [PC + 0x32 /* 00000252 */]
fn00000222:
00000222  4EBA 002E                jsr        [PC + 0x2E /* 00000252 */]
fn00000226:
00000226  4EBA 002A                jsr        [PC + 0x2A /* 00000252 */]
fn0000022A:
0000022A  4EBA 0026                jsr        [PC + 0x26 /* 00000252 */]
fn0000022E:
0000022E  4EBA 0022                jsr        [PC + 0x22 /* 00000252 */]
fn00000232:
00000232  4EBA 001E                jsr        [PC + 0x1E /* 00000252 */]
fn00000236:
00000236  4EBA 001A                jsr        [PC + 0x1A /* 00000252 */]
fn0000023A:
0000023A  4EBA 0016                jsr        [PC + 0x16 /* 00000252 */]
fn0000023E:
0000023E  4EBA 0012                jsr        [PC + 0x12 /* 00000252 */]
fn00000242:
00000242  4EBA 000E                jsr        [PC + 0xE /* 00000252 */]
fn00000246:
00000246  4EBA 000A                jsr        [PC + 0xA /* 00000252 */]
0000024A  4EBA 0006                jsr        [PC + 0x6 /* 00000252 */]
0000024E  4EBA 0002                jsr        [PC + 0x2 /* 00000252 */]
fn00000252:
00000252  43FA FDFA                lea.l      A1, [PC - 0x206 /* 0000004E, value 0x4EBA0202 */]
00000256  205F                     movea.l    A0, [A7]+
00000258  91C9                     sub.l      A0, A1
0000025A  D1F8 0A78                add.l      A0, [0x00000A78 /* ApplScratch */]
0000025E  2050                     movea.l    A0, [A0]
00000260  4ED0                     jmp        [A0]
fn00000262:
00000262  4E56 0000                link       A6, 0
00000266  2F0C                     move.l     -[A7], A4
00000268  286E 0008                movea.l    A4, [A6 + 0x8]
0000026C  4A6C 011E                tst.w      [A4 + 0x11E]
00000270  6724                     beq        +0x26 /* 00000296 */
00000272  70FF                     moveq.l    D0, 0xFFFFFFFF
00000274  B06C 011E                cmp.w      D0, [A4 + 0x11E]
00000278  6710                     beq        +0x12 /* 0000028A */
0000027A  558F                     subq.l     A7, 2
0000027C  3F2C 011E                move.w     -[A7], [A4 + 0x11E]
00000280  7000                     moveq.l    D0, 0x00
00000282  3F00                     move.w     -[A7], D0
00000284  4EBA FEC4                jsr        [PC - 0x13C /* 0000014A */]
00000288  544F                     addq.w     A7, 2
label0000028A:
0000028A  2F0C                     move.l     -[A7], A4
0000028C  4EBA 0916                jsr        [PC + 0x916 /* 00000BA4 */]
00000290  7001                     moveq.l    D0, 0x01
00000292  584F                     addq.w     A7, 4
00000294  6002                     bra        +0x4 /* 00000298 */
label00000296:
00000296  7000                     moveq.l    D0, 0x00
label00000298:
00000298  286E FFFC                movea.l    A4, [A6 - 0x4]
0000029C  4E5E                     unlink     A6
0000029E  4E75                     rts
fn000002A0:
000002A0  4E56 0000                link       A6, 0
000002A4  2F0C                     move.l     -[A7], A4
000002A6  286E 0008                movea.l    A4, [A6 + 0x8]
000002AA  4A6C 011E                tst.w      [A4 + 0x11E]
000002AE  671E                     beq        +0x20 /* 000002CE */
000002B0  558F                     subq.l     A7, 2
000002B2  3F2C 011E                move.w     -[A7], [A4 + 0x11E]
000002B6  7000                     moveq.l    D0, 0x00
000002B8  3F00                     move.w     -[A7], D0
000002BA  4EBA FE8E                jsr        [PC - 0x172 /* 0000014A */]
000002BE  426C 011E                clr.w      [A4 + 0x11E]
000002C2  4A2E 000F                tst.b      [A6 + 0xF]
000002C6  544F                     addq.w     A7, 2
000002C8  6704                     beq        +0x6 /* 000002CE */
000002CA  4EBA FE6E                jsr        [PC - 0x192 /* 0000013A */]
label000002CE:
000002CE  286E FFFC                movea.l    A4, [A6 - 0x4]
000002D2  4E5E                     unlink     A6
000002D4  4E75                     rts
fn000002D6:
000002D6  4E56 0000                link       A6, 0
000002DA  2F0C                     move.l     -[A7], A4
000002DC  286E 0008                movea.l    A4, [A6 + 0x8]
000002E0  598F                     subq.l     A7, 4
000002E2  2F2C 012C                move.l     -[A7], [A4 + 0x12C]
000002E6  4EBA 1C74                jsr        [PC + 0x1C74 /* 00001F5C */]
000002EA  4A9F                     tst.l      [A7]+
000002EC  6614                     bne        +0x16 /* 00000302 */
000002EE  7020                     moveq.l    D0, 0x20
000002F0  A322                     syscall    NewHandleClear, flags=3
000002F2  2948 012C                move.l     [A4 + 0x12C], A0
000002F6  3978 0220 011E           move.w     [A4 + 0x11E], [0x00000220 /* MemErr */]
000002FC  6704                     beq        +0x6 /* 00000302 */
000002FE  7000                     moveq.l    D0, 0x00
00000300  6002                     bra        +0x4 /* 00000304 */
label00000302:
00000302  7001                     moveq.l    D0, 0x01
label00000304:
00000304  286E FFFC                movea.l    A4, [A6 - 0x4]
00000308  4E5E                     unlink     A6
0000030A  4E75                     rts
fn0000030C:
0000030C  4E56 FFF6                link       A6, -0x000A
00000310  48E7 0018                movem.l    -[A7], A3,A4
00000314  286E 0008                movea.l    A4, [A6 + 0x8]
00000318  558F                     subq.l     A7, 2
0000031A  486E FFFC                pea.l      [A6 - 0x4]
0000031E  2F2C 013A                move.l     -[A7], [A4 + 0x13A]
00000322  4EBA FEEA                jsr        [PC - 0x116 /* 0000020E */]
00000326  7000                     moveq.l    D0, 0x00
00000328  101F                     move.b     D0, [A7]+
0000032A  0C40 0001                cmpi.w     D0, 0x1
0000032E  661E                     bne        +0x20 /* 0000034E */
00000330  3D7C 0004 FFF6           move.w     [A6 - 0xA], 0x4
00000336  486C 012C                pea.l      [A4 + 0x12C]
0000033A  486E FFF6                pea.l      [A6 - 0xA]
0000033E  2F2E FFFC                move.l     -[A7], [A6 - 0x4]
00000342  2F2C 013A                move.l     -[A7], [A4 + 0x13A]
00000346  3F3C 0038                move.w     -[A7], 0x38 /* '8' */
0000034A  A9E7                     syscall    Pack0/ListManager
0000034C  6006                     bra        +0x8 /* 00000354 */
label0000034E:
0000034E  296C 0130 012C           move.l     [A4 + 0x12C], [A4 + 0x130]
label00000354:
00000354  2F2C 0126                move.l     -[A7], [A4 + 0x126]
00000358  4EBA FEEC                jsr        [PC - 0x114 /* 00000246 */]
0000035C  2F0C                     move.l     -[A7], A4
0000035E  4EBA FF76                jsr        [PC - 0x8A /* 000002D6 */]
00000362  4A00                     tst.b      D0
00000364  584F                     addq.w     A7, 4
00000366  675E                     beq        +0x60 /* 000003C6 */
00000368  70FF                     moveq.l    D0, 0xFFFFFFFF
0000036A  3F00                     move.w     -[A7], D0
0000036C  2F2C 0126                move.l     -[A7], [A4 + 0x126]
00000370  4EBA FEC0                jsr        [PC - 0x140 /* 00000232 */]
00000374  206C 0126                movea.l    A0, [A4 + 0x126]
00000378  2050                     movea.l    A0, [A0]
0000037A  2068 0004                movea.l    A0, [A0 + 0x4]
0000037E  2D48 FFF8                move.l     [A6 - 0x8], A0
00000382  2050                     movea.l    A0, [A0]
00000384  2668 0002                movea.l    A3, [A0 + 0x2]
00000388  206C 012C                movea.l    A0, [A4 + 0x12C]
0000038C  2050                     movea.l    A0, [A0]
0000038E  2253                     movea.l    A1, [A3]
00000390  2269 0034                movea.l    A1, [A1 + 0x34]
00000394  2251                     movea.l    A1, [A1]
00000396  7020                     moveq.l    D0, 0x20
00000398  A02E                     syscall    BlockMove/BlockMoveData
0000039A  2053                     movea.l    A0, [A3]
0000039C  117C 0001 0060           move.b     [A0 + 0x60], 0x1
000003A2  558F                     subq.l     A7, 2
000003A4  7000                     moveq.l    D0, 0x00
000003A6  3F00                     move.w     -[A7], D0
000003A8  2F2C 0126                move.l     -[A7], [A4 + 0x126]
000003AC  4EBA FE88                jsr        [PC - 0x178 /* 00000236 */]
000003B0  395F 011E                move.w     [A4 + 0x11E], [A7]+
000003B4  2053                     movea.l    A0, [A3]
000003B6  4868 0044                pea.l      [A0 + 0x44]
000003BA  7000                     moveq.l    D0, 0x00
000003BC  3F00                     move.w     -[A7], D0
000003BE  3F00                     move.w     -[A7], D0
000003C0  3F00                     move.w     -[A7], D0
000003C2  3F00                     move.w     -[A7], D0
000003C4  A8A7                     syscall    SetRect
label000003C6:
000003C6  4CEE 1800 FFEE           movem.l    A3,A4, [A6 - 0x12]
000003CC  4E5E                     unlink     A6
000003CE  4E75                     rts
000003D0  4E56 0000                link       A6, 0
000003D4  48E7 0018                movem.l    -[A7], A3,A4
000003D8  286E 0008                movea.l    A4, [A6 + 0x8]
000003DC  7020                     moveq.l    D0, 0x20
000003DE  A322                     syscall    NewHandleClear, flags=3
000003E0  2648                     movea.l    A3, A0
000003E2  38B8 0220                move.w     [A4], [0x00000220 /* MemErr */]
000003E6  6606                     bne        +0x8 /* 000003EE */
000003E8  2D4B 0012                move.l     [A6 + 0x12], A3
000003EC  6006                     bra        +0x8 /* 000003F4 */
label000003EE:
000003EE  7000                     moveq.l    D0, 0x00
000003F0  2D40 0012                move.l     [A6 + 0x12], D0
label000003F4:
000003F4  4CEE 1800 FFF8           movem.l    A3,A4, [A6 - 0x8]
000003FA  4E5E                     unlink     A6
000003FC  205F                     movea.l    A0, [A7]+
000003FE  4FEF 000A                lea.l      A7, [A7 + 0xA]
00000402  4ED0                     jmp        [A0]
00000404  4E56 FFF8                link       A6, -0x0008
00000408  48E7 0118                movem.l    -[A7], D7,A3,A4
0000040C  266E 0008                movea.l    A3, [A6 + 0x8]
00000410  3E2E 0010                move.w     D7, [A6 + 0x10]
00000414  286E 000C                movea.l    A4, [A6 + 0xC]
00000418  2054                     movea.l    A0, [A4]
0000041A  BE68 012A                cmp.w      D7, [A0 + 0x12A]
0000041E  6D08                     blt        +0xA /* 00000428 */
00000420  7000                     moveq.l    D0, 0x00
00000422  2D40 0012                move.l     [A6 + 0x12], D0
00000426  604A                     bra        +0x4C /* 00000472 */
label00000428:
00000428  2054                     movea.l    A0, [A4]
0000042A  2068 0114                movea.l    A0, [A0 + 0x114]
0000042E  A029                     syscall    HLock
00000430  2054                     movea.l    A0, [A4]
00000432  2068 0114                movea.l    A0, [A0 + 0x114]
00000436  2D50 FFF8                move.l     [A6 - 0x8], [A0]
0000043A  558F                     subq.l     A7, 2
0000043C  48C7                     ext.l      D7
0000043E  206E FFF8                movea.l    A0, [A6 - 0x8]
00000442  2007                     move.l     D0, D7
00000444  EB80                     asl        D0, 5
00000446  4870 0800                pea.l      [A0 + D0]
0000044A  486E FFFC                pea.l      [A6 - 0x4]
0000044E  7020                     moveq.l    D0, 0x20
00000450  2F00                     move.l     -[A7], D0
00000452  4EBA 1B2C                jsr        [PC + 0x1B2C /* 00001F80 */]
00000456  369F                     move.w     [A3], [A7]+
00000458  2054                     movea.l    A0, [A4]
0000045A  2068 0114                movea.l    A0, [A0 + 0x114]
0000045E  A02A                     syscall    HUnlock
00000460  4A53                     tst.w      [A3]
00000462  6608                     bne        +0xA /* 0000046C */
00000464  2D6E FFFC 0012           move.l     [A6 + 0x12], [A6 - 0x4]
0000046A  6006                     bra        +0x8 /* 00000472 */
label0000046C:
0000046C  7000                     moveq.l    D0, 0x00
0000046E  2D40 0012                move.l     [A6 + 0x12], D0
label00000472:
00000472  4CEE 1880 FFEC           movem.l    D7,A3,A4, [A6 - 0x14]
00000478  4E5E                     unlink     A6
0000047A  205F                     movea.l    A0, [A7]+
0000047C  4FEF 000A                lea.l      A7, [A7 + 0xA]
00000480  4ED0                     jmp        [A0]
fn00000482:
00000482  4E56 FFFA                link       A6, -0x0006
00000486  48E7 0018                movem.l    -[A7], A3,A4
0000048A  286E 0008                movea.l    A4, [A6 + 0x8]
0000048E  266C 0126                movea.l    A3, [A4 + 0x126]
00000492  2F2C 013A                move.l     -[A7], [A4 + 0x13A]
00000496  4EBA FD86                jsr        [PC - 0x27A /* 0000021E */]
0000049A  2053                     movea.l    A0, [A3]
0000049C  4868 003C                pea.l      [A0 + 0x3C]
000004A0  A8A3                     syscall    EraseRect
000004A2  4A6C 011E                tst.w      [A4 + 0x11E]
000004A6  6636                     bne        +0x38 /* 000004DE */
000004A8  486E FFFC                pea.l      [A6 - 0x4]
000004AC  7023                     moveq.l    D0, 0x23
000004AE  3F00                     move.w     -[A7], D0
000004B0  7222                     moveq.l    D1, 0x22
000004B2  3F01                     move.w     -[A7], D1
000004B4  A880                     syscall    SetPt
000004B6  598F                     subq.l     A7, 4
000004B8  3F2C 012A                move.w     -[A7], [A4 + 0x12A]
000004BC  558F                     subq.l     A7, 2
000004BE  4EBA FB6E                jsr        [PC - 0x492 /* 0000002E */]
000004C2  487A FF40                pea.l      [PC - 0xC0 /* 00000404, value 0x4E56FFF8 */]
000004C6  2F2E FFFC                move.l     -[A7], [A6 - 0x4]
000004CA  2F2C 0118                move.l     -[A7], [A4 + 0x118]
000004CE  486C 013E                pea.l      [A4 + 0x13E]
000004D2  486C 011E                pea.l      [A4 + 0x11E]
000004D6  4EBA FD2A                jsr        [PC - 0x2D6 /* 00000202 */]
000004DA  295F 013A                move.l     [A4 + 0x13A], [A7]+
label000004DE:
000004DE  4A6C 011E                tst.w      [A4 + 0x11E]
000004E2  661E                     bne        +0x20 /* 00000502 */
000004E4  4A2E 000F                tst.b      [A6 + 0xF]
000004E8  6710                     beq        +0x12 /* 000004FA */
000004EA  2F2E 0010                move.l     -[A7], [A6 + 0x10]
000004EE  2F2C 013A                move.l     -[A7], [A4 + 0x13A]
000004F2  486E FFFA                pea.l      [A6 - 0x6]
000004F6  4EBA FD2E                jsr        [PC - 0x2D2 /* 00000226 */]
label000004FA:
000004FA  2F0C                     move.l     -[A7], A4
000004FC  4EBA FE0E                jsr        [PC - 0x1F2 /* 0000030C */]
00000500  584F                     addq.w     A7, 4
label00000502:
00000502  4CEE 1800 FFF2           movem.l    A3,A4, [A6 - 0xE]
00000508  4E5E                     unlink     A6
0000050A  4E75                     rts
fn0000050C:
0000050C  4E56 FFF6                link       A6, -0x000A
00000510  48E7 0108                movem.l    -[A7], D7,A4
00000514  286E 0008                movea.l    A4, [A6 + 0x8]
00000518  7000                     moveq.l    D0, 0x00
0000051A  2D40 FFFC                move.l     [A6 - 0x4], D0
0000051E  7E00                     moveq.l    D7, 0x00
00000520  4247                     clr.w      D7
00000522  4A2C 014C                tst.b      [A4 + 0x14C]
00000526  6700 00F8                beq        +0xFA /* 00000620 */
0000052A  486E FFF6                pea.l      [A6 - 0xA]
0000052E  7000                     moveq.l    D0, 0x00
00000530  3F00                     move.w     -[A7], D0
00000532  3F00                     move.w     -[A7], D0
00000534  A880                     syscall    SetPt
label00000536:
00000536  3D7C 0004 FFFA           move.w     [A6 - 0x6], 0x4
0000053C  486E FFFC                pea.l      [A6 - 0x4]
00000540  486E FFFA                pea.l      [A6 - 0x6]
00000544  2F2E FFF6                move.l     -[A7], [A6 - 0xA]
00000548  2F2C 013A                move.l     -[A7], [A4 + 0x13A]
0000054C  3F3C 0038                move.w     -[A7], 0x38 /* '8' */
00000550  A9E7                     syscall    Pack0/ListManager
00000552  7004                     moveq.l    D0, 0x04
00000554  B06E FFFA                cmp.w      D0, [A6 - 0x6]
00000558  6608                     bne        +0xA /* 00000562 */
0000055A  4AAE FFFC                tst.l      [A6 - 0x4]
0000055E  6702                     beq        +0x4 /* 00000562 */
00000560  5247                     addq.w     D7, 1
label00000562:
00000562  558F                     subq.l     A7, 2
00000564  7001                     moveq.l    D0, 0x01
00000566  1F00                     move.b     -[A7], D0
00000568  1F00                     move.b     -[A7], D0
0000056A  486E FFF6                pea.l      [A6 - 0xA]
0000056E  2F2C 013A                move.l     -[A7], [A4 + 0x13A]
00000572  3F3C 0048                move.w     -[A7], 0x48 /* 'H' */
00000576  A9E7                     syscall    Pack0/ListManager
00000578  4A1F                     tst.b      [A7]+
0000057A  66BA                     bne        -0x44 /* 00000536 */
0000057C  3007                     move.w     D0, D7
0000057E  48C0                     ext.l      D0
00000580  EB80                     asl        D0, 5
00000582  2F00                     move.l     -[A7], D0
00000584  2F2C 0114                move.l     -[A7], [A4 + 0x114]
00000588  4EBA FB14                jsr        [PC - 0x4EC /* 0000009E */]
0000058C  3978 0220 011E           move.w     [A4 + 0x11E], [0x00000220 /* MemErr */]
00000592  6706                     beq        +0x8 /* 0000059A */
00000594  7000                     moveq.l    D0, 0x00
00000596  6000 008A                bra        +0x8C /* 00000622 */
label0000059A:
0000059A  3947 012A                move.w     [A4 + 0x12A], D7
0000059E  206C 0114                movea.l    A0, [A4 + 0x114]
000005A2  A029                     syscall    HLock
000005A4  486E FFF6                pea.l      [A6 - 0xA]
000005A8  7000                     moveq.l    D0, 0x00
000005AA  3F00                     move.w     -[A7], D0
000005AC  3F00                     move.w     -[A7], D0
000005AE  A880                     syscall    SetPt
000005B0  7000                     moveq.l    D0, 0x00
000005B2  2D40 FFFC                move.l     [A6 - 0x4], D0
000005B6  4247                     clr.w      D7
label000005B8:
000005B8  3D7C 0004 FFFA           move.w     [A6 - 0x6], 0x4
000005BE  486E FFFC                pea.l      [A6 - 0x4]
000005C2  486E FFFA                pea.l      [A6 - 0x6]
000005C6  2F2E FFF6                move.l     -[A7], [A6 - 0xA]
000005CA  2F2C 013A                move.l     -[A7], [A4 + 0x13A]
000005CE  3F3C 0038                move.w     -[A7], 0x38 /* '8' */
000005D2  A9E7                     syscall    Pack0/ListManager
000005D4  7004                     moveq.l    D0, 0x04
000005D6  B06E FFFA                cmp.w      D0, [A6 - 0x6]
000005DA  6620                     bne        +0x22 /* 000005FC */
000005DC  4AAE FFFC                tst.l      [A6 - 0x4]
000005E0  671A                     beq        +0x1C /* 000005FC */
000005E2  206E FFFC                movea.l    A0, [A6 - 0x4]
000005E6  2050                     movea.l    A0, [A0]
000005E8  3007                     move.w     D0, D7
000005EA  5247                     addq.w     D7, 1
000005EC  48C0                     ext.l      D0
000005EE  226C 0114                movea.l    A1, [A4 + 0x114]
000005F2  2251                     movea.l    A1, [A1]
000005F4  EB80                     asl        D0, 5
000005F6  D3C0                     add.l      A1, D0
000005F8  7020                     moveq.l    D0, 0x20
000005FA  A02E                     syscall    BlockMove/BlockMoveData
label000005FC:
000005FC  558F                     subq.l     A7, 2
000005FE  7001                     moveq.l    D0, 0x01
00000600  1F00                     move.b     -[A7], D0
00000602  1F00                     move.b     -[A7], D0
00000604  486E FFF6                pea.l      [A6 - 0xA]
00000608  2F2C 013A                move.l     -[A7], [A4 + 0x13A]
0000060C  3F3C 0048                move.w     -[A7], 0x48 /* 'H' */
00000610  A9E7                     syscall    Pack0/ListManager
00000612  4A1F                     tst.b      [A7]+
00000614  66A2                     bne        -0x5C /* 000005B8 */
00000616  206C 0114                movea.l    A0, [A4 + 0x114]
0000061A  A02A                     syscall    HUnlock
0000061C  422C 014C                clr.b      [A4 + 0x14C]
label00000620:
00000620  7001                     moveq.l    D0, 0x01
label00000622:
00000622  4CEE 1080 FFEE           movem.l    D7,A4, [A6 - 0x12]
00000628  4E5E                     unlink     A6
0000062A  4E75                     rts
fn0000062C:
0000062C  4E56 FFFE                link       A6, -0x0002
00000630  2F0C                     move.l     -[A7], A4
00000632  286E 0008                movea.l    A4, [A6 + 0x8]
00000636  2F0C                     move.l     -[A7], A4
00000638  4EBA FED2                jsr        [PC - 0x12E /* 0000050C */]
0000063C  4A00                     tst.b      D0
0000063E  584F                     addq.w     A7, 4
00000640  6732                     beq        +0x34 /* 00000674 */
00000642  2F2E 000C                move.l     -[A7], [A6 + 0xC]
00000646  2F0C                     move.l     -[A7], A4
00000648  4EBA 15BC                jsr        [PC + 0x15BC /* 00001C06 */]
0000064C  4A00                     tst.b      D0
0000064E  504F                     addq.w     A7, 8
00000650  6722                     beq        +0x24 /* 00000674 */
00000652  4AAC 0146                tst.l      [A4 + 0x146]
00000656  6706                     beq        +0x8 /* 0000065E */
00000658  206C 0146                movea.l    A0, [A4 + 0x146]
0000065C  A023                     syscall    DisposHandle/DisposeHandle
label0000065E:
0000065E  598F                     subq.l     A7, 4
00000660  2F2C 013A                move.l     -[A7], [A4 + 0x13A]
00000664  486E FFFE                pea.l      [A6 - 0x2]
00000668  4EBA FBB8                jsr        [PC - 0x448 /* 00000222 */]
0000066C  295F 0146                move.l     [A4 + 0x146], [A7]+
00000670  7001                     moveq.l    D0, 0x01
00000672  6002                     bra        +0x4 /* 00000676 */
label00000674:
00000674  7000                     moveq.l    D0, 0x00
label00000676:
00000676  286E FFFA                movea.l    A4, [A6 - 0x6]
0000067A  4E5E                     unlink     A6
0000067C  4E75                     rts
fn0000067E:
0000067E  4E56 FFFC                link       A6, -0x0004
00000682  48E7 0018                movem.l    -[A7], A3,A4
00000686  286E 0008                movea.l    A4, [A6 + 0x8]
0000068A  206C 0126                movea.l    A0, [A4 + 0x126]
0000068E  2050                     movea.l    A0, [A0]
00000690  3D68 0072 FFFE           move.w     [A6 - 0x2], [A0 + 0x72]
00000696  2F0C                     move.l     -[A7], A4
00000698  4EBA FE72                jsr        [PC - 0x18E /* 0000050C */]
0000069C  4A00                     tst.b      D0
0000069E  584F                     addq.w     A7, 4
000006A0  6764                     beq        +0x66 /* 00000706 */
000006A2  486E FFFE                pea.l      [A6 - 0x2]
000006A6  2F0C                     move.l     -[A7], A4
000006A8  4EBA 163E                jsr        [PC + 0x163E /* 00001CE8 */]
000006AC  4A00                     tst.b      D0
000006AE  504F                     addq.w     A7, 8
000006B0  6754                     beq        +0x56 /* 00000706 */
000006B2  598F                     subq.l     A7, 4
000006B4  2F2C 013A                move.l     -[A7], [A4 + 0x13A]
000006B8  486E FFFC                pea.l      [A6 - 0x4]
000006BC  4EBA FB64                jsr        [PC - 0x49C /* 00000222 */]
000006C0  265F                     movea.l    A3, [A7]+
000006C2  598F                     subq.l     A7, 4
000006C4  2F2C 0114                move.l     -[A7], [A4 + 0x114]
000006C8  4EBA 1892                jsr        [PC + 0x1892 /* 00001F5C */]
000006CC  201F                     move.l     D0, [A7]+
000006CE  7220                     moveq.l    D1, 0x20
000006D0  4EBA 17A6                jsr        [PC + 0x17A6 /* 00001E78 */]
000006D4  3940 012A                move.w     [A4 + 0x12A], D0
000006D8  2F2C 0146                move.l     -[A7], [A4 + 0x146]
000006DC  7001                     moveq.l    D0, 0x01
000006DE  2F00                     move.l     -[A7], D0
000006E0  2F0C                     move.l     -[A7], A4
000006E2  4EBA FD9E                jsr        [PC - 0x262 /* 00000482 */]
000006E6  4AAC 0146                tst.l      [A4 + 0x146]
000006EA  4FEF 000C                lea.l      A7, [A7 + 0xC]
000006EE  6706                     beq        +0x8 /* 000006F6 */
000006F0  206C 0146                movea.l    A0, [A4 + 0x146]
000006F4  A023                     syscall    DisposHandle/DisposeHandle
label000006F6:
000006F6  294B 0146                move.l     [A4 + 0x146], A3
000006FA  206C 0126                movea.l    A0, [A4 + 0x126]
000006FE  2050                     movea.l    A0, [A0]
00000700  316E FFFE 0072           move.w     [A0 + 0x72], [A6 - 0x2]
label00000706:
00000706  4CEE 1800 FFF4           movem.l    A3,A4, [A6 - 0xC]
0000070C  4E5E                     unlink     A6
0000070E  4E75                     rts
fn00000710:
00000710  4E56 0000                link       A6, 0
00000714  48E7 0108                movem.l    -[A7], D7,A4
00000718  286E 0008                movea.l    A4, [A6 + 0x8]
0000071C  206C 0126                movea.l    A0, [A4 + 0x126]
00000720  2050                     movea.l    A0, [A0]
00000722  3E28 0072                move.w     D7, [A0 + 0x72]
00000726  0C47 0064                cmpi.w     D7, 0x64 /* 'd' */
0000072A  6D0E                     blt        +0x10 /* 0000073A */
0000072C  0C47 0073                cmpi.w     D7, 0x73 /* 's' */
00000730  6E08                     bgt        +0xA /* 0000073A */
00000732  2F0C                     move.l     -[A7], A4
00000734  4EBA FF48                jsr        [PC - 0xB8 /* 0000067E */]
00000738  584F                     addq.w     A7, 4
label0000073A:
0000073A  4CEE 1080 FFF8           movem.l    D7,A4, [A6 - 0x8]
00000740  4E5E                     unlink     A6
00000742  4E75                     rts
00000744  4E56 FFFC                link       A6, -0x0004
00000748  2F0C                     move.l     -[A7], A4
0000074A  286E 0008                movea.l    A4, [A6 + 0x8]
0000074E  206E 000C                movea.l    A0, [A6 + 0xC]
00000752  2050                     movea.l    A0, [A0]
00000754  2D68 012C FFFC           move.l     [A6 - 0x4], [A0 + 0x12C]
0000075A  558F                     subq.l     A7, 2
0000075C  486E FFFC                pea.l      [A6 - 0x4]
00000760  4EBA 1808                jsr        [PC + 0x1808 /* 00001F6A */]
00000764  389F                     move.w     [A4], [A7]+
00000766  6706                     beq        +0x8 /* 0000076E */
00000768  7000                     moveq.l    D0, 0x00
0000076A  2D40 FFFC                move.l     [A6 - 0x4], D0
label0000076E:
0000076E  2D6E FFFC 0012           move.l     [A6 + 0x12], [A6 - 0x4]
00000774  286E FFF8                movea.l    A4, [A6 - 0x8]
00000778  4E5E                     unlink     A6
0000077A  205F                     movea.l    A0, [A7]+
0000077C  4FEF 000A                lea.l      A7, [A7 + 0xA]
00000780  4ED0                     jmp        [A0]
fn00000782:
00000782  4E56 FFFA                link       A6, -0x0006
00000786  2F0C                     move.l     -[A7], A4
00000788  286E 0008                movea.l    A4, [A6 + 0x8]
0000078C  558F                     subq.l     A7, 2
0000078E  486E FFFC                pea.l      [A6 - 0x4]
00000792  2F2C 013A                move.l     -[A7], [A4 + 0x13A]
00000796  4EBA FA76                jsr        [PC - 0x58A /* 0000020E */]
0000079A  7000                     moveq.l    D0, 0x00
0000079C  101F                     move.b     D0, [A7]+
0000079E  0C40 0001                cmpi.w     D0, 0x1
000007A2  6634                     bne        +0x36 /* 000007D8 */
000007A4  3D7C 0004 FFFA           move.w     [A6 - 0x6], 0x4
000007AA  486C 012C                pea.l      [A4 + 0x12C]
000007AE  486E FFFA                pea.l      [A6 - 0x6]
000007B2  2F2E FFFC                move.l     -[A7], [A6 - 0x4]
000007B6  2F2C 013A                move.l     -[A7], [A4 + 0x13A]
000007BA  3F3C 0038                move.w     -[A7], 0x38 /* '8' */
000007BE  A9E7                     syscall    Pack0/ListManager
000007C0  558F                     subq.l     A7, 2
000007C2  7001                     moveq.l    D0, 0x01
000007C4  3F00                     move.w     -[A7], D0
000007C6  487A FF7C                pea.l      [PC - 0x84 /* 00000744, value 0x4E56FFFC */]
000007CA  2F2C 013A                move.l     -[A7], [A4 + 0x13A]
000007CE  486C 011E                pea.l      [A4 + 0x11E]
000007D2  4EBA FA42                jsr        [PC - 0x5BE /* 00000216 */]
000007D6  544F                     addq.w     A7, 2
label000007D8:
000007D8  286E FFF6                movea.l    A4, [A6 - 0xA]
000007DC  4E5E                     unlink     A6
000007DE  4E75                     rts
000007E0  4E56 FFF8                link       A6, -0x0008
000007E4  48E7 0718                movem.l    -[A7], D5,D6,D7,A3,A4
000007E8  266E 0008                movea.l    A3, [A6 + 0x8]
000007EC  3E2E 0010                move.w     D7, [A6 + 0x10]
000007F0  7000                     moveq.l    D0, 0x00
000007F2  2D40 FFFC                move.l     [A6 - 0x4], D0
000007F6  558F                     subq.l     A7, 2
000007F8  4EBA F8F0                jsr        [PC - 0x710 /* 000000EA */]
000007FC  3A1F                     move.w     D5, [A7]+
000007FE  558F                     subq.l     A7, 2
00000800  A994                     syscall    CurResFile
00000802  3C1F                     move.w     D6, [A7]+
00000804  3F05                     move.w     -[A7], D5
00000806  A998                     syscall    UseResFile
00000808  598F                     subq.l     A7, 4
0000080A  2F3C 5349 434E           move.l     -[A7], 0x5349434E /* 'SICN' */
00000810  7001                     moveq.l    D0, 0x01
00000812  3F00                     move.w     -[A7], D0
00000814  A80E                     syscall    Get1IndResource/Get1IxResource
00000816  285F                     movea.l    A4, [A7]+
00000818  3F06                     move.w     -[A7], D6
0000081A  A998                     syscall    UseResFile
0000081C  598F                     subq.l     A7, 4
0000081E  2F0C                     move.l     -[A7], A4
00000820  4EBA 173A                jsr        [PC + 0x173A /* 00001F5C */]
00000824  201F                     move.l     D0, [A7]+
00000826  7220                     moveq.l    D1, 0x20
00000828  4EBA 164E                jsr        [PC + 0x164E /* 00001E78 */]
0000082C  3C00                     move.w     D6, D0
0000082E  200C                     move.l     D0, A4
00000830  673E                     beq        +0x40 /* 00000870 */
00000832  BC47                     cmp.w      D6, D7
00000834  6D36                     blt        +0x38 /* 0000086C */
00000836  48C7                     ext.l      D7
00000838  2007                     move.l     D0, D7
0000083A  5380                     subq.l     D0, 1
0000083C  2054                     movea.l    A0, [A4]
0000083E  EB80                     asl        D0, 5
00000840  D1C0                     add.l      A0, D0
00000842  2D48 FFF8                move.l     [A6 - 0x8], A0
00000846  204C                     movea.l    A0, A4
00000848  A029                     syscall    HLock
0000084A  558F                     subq.l     A7, 2
0000084C  2F2E FFF8                move.l     -[A7], [A6 - 0x8]
00000850  486E FFFC                pea.l      [A6 - 0x4]
00000854  7020                     moveq.l    D0, 0x20
00000856  2F00                     move.l     -[A7], D0
00000858  4EBA 1726                jsr        [PC + 0x1726 /* 00001F80 */]
0000085C  369F                     move.w     [A3], [A7]+
0000085E  204C                     movea.l    A0, A4
00000860  A02A                     syscall    HUnlock
00000862  4A53                     tst.w      [A3]
00000864  6706                     beq        +0x8 /* 0000086C */
00000866  7000                     moveq.l    D0, 0x00
00000868  2D40 FFFC                move.l     [A6 - 0x4], D0
label0000086C:
0000086C  2F0C                     move.l     -[A7], A4
0000086E  A9A3                     syscall    ReleaseResource
label00000870:
00000870  2D6E FFFC 0012           move.l     [A6 + 0x12], [A6 - 0x4]
00000876  4CEE 18E0 FFE4           movem.l    D5,D6,D7,A3,A4, [A6 - 0x1C]
0000087C  4E5E                     unlink     A6
0000087E  205F                     movea.l    A0, [A7]+
00000880  4FEF 000A                lea.l      A7, [A7 + 0xA]
00000884  4ED0                     jmp        [A0]
fn00000886:
00000886  4E56 0000                link       A6, 0
0000088A  48E7 0118                movem.l    -[A7], D7,A3,A4
0000088E  266E 0008                movea.l    A3, [A6 + 0x8]
00000892  286E 000C                movea.l    A4, [A6 + 0xC]
00000896  598F                     subq.l     A7, 4
00000898  2F0C                     move.l     -[A7], A4
0000089A  4EBA 16C0                jsr        [PC + 0x16C0 /* 00001F5C */]
0000089E  201F                     move.l     D0, [A7]+
000008A0  7220                     moveq.l    D1, 0x20
000008A2  4EBA 15D4                jsr        [PC + 0x15D4 /* 00001E78 */]
000008A6  3E00                     move.w     D7, D0
000008A8  48C7                     ext.l      D7
000008AA  2007                     move.l     D0, D7
000008AC  5280                     addq.l     D0, 1
000008AE  EB80                     asl        D0, 5
000008B0  2F00                     move.l     -[A7], D0
000008B2  2F0C                     move.l     -[A7], A4
000008B4  4EBA F7E8                jsr        [PC - 0x818 /* 0000009E */]
000008B8  3778 0220 011E           move.w     [A3 + 0x11E], [0x00000220 /* MemErr */]
000008BE  6614                     bne        +0x16 /* 000008D4 */
000008C0  206E 0010                movea.l    A0, [A6 + 0x10]
000008C4  2050                     movea.l    A0, [A0]
000008C6  48C7                     ext.l      D7
000008C8  2254                     movea.l    A1, [A4]
000008CA  2007                     move.l     D0, D7
000008CC  EB80                     asl        D0, 5
000008CE  D3C0                     add.l      A1, D0
000008D0  7020                     moveq.l    D0, 0x20
000008D2  A02E                     syscall    BlockMove/BlockMoveData
label000008D4:
000008D4  4CEE 1880 FFF4           movem.l    D7,A3,A4, [A6 - 0xC]
000008DA  4E5E                     unlink     A6
000008DC  4E75                     rts
fn000008DE:
000008DE  4E56 FFF6                link       A6, -0x000A
000008E2  48E7 0318                movem.l    -[A7], D6,D7,A3,A4
000008E6  286E 0008                movea.l    A4, [A6 + 0x8]
000008EA  558F                     subq.l     A7, 2
000008EC  A994                     syscall    CurResFile
000008EE  3C1F                     move.w     D6, [A7]+
000008F0  4EBA F7E4                jsr        [PC - 0x81C /* 000000D6 */]
000008F4  558F                     subq.l     A7, 2
000008F6  4EBA F7F2                jsr        [PC - 0x80E /* 000000EA */]
000008FA  3E1F                     move.w     D7, [A7]+
000008FC  0C47 FFFF                cmpi.w     D7, 0xFFFF
00000900  6700 00FE                beq        +0x100 /* 00000A00 */
00000904  7000                     moveq.l    D0, 0x00
00000906  A122                     syscall    NewHandle, flags=1
00000908  2648                     movea.l    A3, A0
0000090A  3978 0220 011E           move.w     [A4 + 0x11E], [0x00000220 /* MemErr */]
00000910  558F                     subq.l     A7, 2
00000912  3F38 0220                move.w     -[A7], [0x00000220 /* MemErr */]
00000916  7000                     moveq.l    D0, 0x00
00000918  3F00                     move.w     -[A7], D0
0000091A  4EBA F82E                jsr        [PC - 0x7D2 /* 0000014A */]
0000091E  4A1F                     tst.b      [A7]+
00000920  6700 00DE                beq        +0xE0 /* 00000A00 */
00000924  3F07                     move.w     -[A7], D7
00000926  A998                     syscall    UseResFile
00000928  558F                     subq.l     A7, 2
0000092A  486E FFF8                pea.l      [A6 - 0x8]
0000092E  2F2C 013A                move.l     -[A7], [A4 + 0x13A]
00000932  4EBA F8DA                jsr        [PC - 0x726 /* 0000020E */]
00000936  7000                     moveq.l    D0, 0x00
00000938  101F                     move.b     D0, [A7]+
0000093A  4A80                     tst.l      D0
0000093C  6700 00B6                beq        +0xB8 /* 000009F4 */
00000940  486E FFF8                pea.l      [A6 - 0x8]
00000944  7000                     moveq.l    D0, 0x00
00000946  3F00                     move.w     -[A7], D0
00000948  3F00                     move.w     -[A7], D0
0000094A  A880                     syscall    SetPt
0000094C  6052                     bra        +0x54 /* 000009A0 */
label0000094E:
0000094E  3D7C 0004 FFF6           move.w     [A6 - 0xA], 0x4
00000954  486E FFFC                pea.l      [A6 - 0x4]
00000958  486E FFF6                pea.l      [A6 - 0xA]
0000095C  2F2E FFF8                move.l     -[A7], [A6 - 0x8]
00000960  2F2C 013A                move.l     -[A7], [A4 + 0x13A]
00000964  3F3C 0038                move.w     -[A7], 0x38 /* '8' */
00000968  A9E7                     syscall    Pack0/ListManager
0000096A  7004                     moveq.l    D0, 0x04
0000096C  B06E FFF6                cmp.w      D0, [A6 - 0xA]
00000970  6616                     bne        +0x18 /* 00000988 */
00000972  2F2E FFFC                move.l     -[A7], [A6 - 0x4]
00000976  2F0B                     move.l     -[A7], A3
00000978  2F0C                     move.l     -[A7], A4
0000097A  4EBA FF0A                jsr        [PC - 0xF6 /* 00000886 */]
0000097E  4A6C 011E                tst.w      [A4 + 0x11E]
00000982  4FEF 000C                lea.l      A7, [A7 + 0xC]
00000986  6630                     bne        +0x32 /* 000009B8 */
label00000988:
00000988  558F                     subq.l     A7, 2
0000098A  7001                     moveq.l    D0, 0x01
0000098C  1F00                     move.b     -[A7], D0
0000098E  1F00                     move.b     -[A7], D0
00000990  486E FFF8                pea.l      [A6 - 0x8]
00000994  2F2C 013A                move.l     -[A7], [A4 + 0x13A]
00000998  3F3C 0048                move.w     -[A7], 0x48 /* 'H' */
0000099C  A9E7                     syscall    Pack0/ListManager
0000099E  544F                     addq.w     A7, 2
label000009A0:
000009A0  558F                     subq.l     A7, 2
000009A2  7001                     moveq.l    D0, 0x01
000009A4  1F00                     move.b     -[A7], D0
000009A6  486E FFF8                pea.l      [A6 - 0x8]
000009AA  2F2C 013A                move.l     -[A7], [A4 + 0x13A]
000009AE  3F3C 003C                move.w     -[A7], 0x3C /* '<' */
000009B2  A9E7                     syscall    Pack0/ListManager
000009B4  4A1F                     tst.b      [A7]+
000009B6  6696                     bne        -0x68 /* 0000094E */
label000009B8:
000009B8  598F                     subq.l     A7, 4
000009BA  2F0B                     move.l     -[A7], A3
000009BC  4EBA 159E                jsr        [PC + 0x159E /* 00001F5C */]
000009C0  4A9F                     tst.l      [A7]+
000009C2  6F30                     ble        +0x32 /* 000009F4 */
000009C4  3F07                     move.w     -[A7], D7
000009C6  2F0B                     move.l     -[A7], A3
000009C8  2F3C 5349 434E           move.l     -[A7], 0x5349434E /* 'SICN' */
000009CE  558F                     subq.l     A7, 2
000009D0  3F07                     move.w     -[A7], D7
000009D2  2F3C 5349 434E           move.l     -[A7], 0x5349434E /* 'SICN' */
000009D8  4EBA F7C4                jsr        [PC - 0x83C /* 0000019E */]
000009DC  487A 002C                pea.l      [PC + 0x2C /* 00000A0A, value 0x4E56 'NV', cstring "" */]
000009E0  4EBA F7DC                jsr        [PC - 0x824 /* 000001BE */]
000009E4  2F0B                     move.l     -[A7], A3
000009E6  A9AA                     syscall    ChangedResource
000009E8  2F0B                     move.l     -[A7], A3
000009EA  A9B0                     syscall    WriteResource
000009EC  2F0B                     move.l     -[A7], A3
000009EE  A9A3                     syscall    ReleaseResource
000009F0  7000                     moveq.l    D0, 0x00
000009F2  2640                     movea.l    A3, D0
label000009F4:
000009F4  3F06                     move.w     -[A7], D6
000009F6  A998                     syscall    UseResFile
000009F8  200B                     move.l     D0, A3
000009FA  6704                     beq        +0x6 /* 00000A00 */
000009FC  204B                     movea.l    A0, A3
000009FE  A023                     syscall    DisposHandle/DisposeHandle
label00000A00:
00000A00  4CEE 18C0 FFE6           movem.l    D6,D7,A3,A4, [A6 - 0x1A]
00000A06  4E5E                     unlink     A6
00000A08  4E75                     rts
00000A0A  0000 4E56                ori.b      D0, 0x56 /* 'V' */
// begin alternate branch 00000A0C-00000A14
fn00000A0C:
00000A0C  4E56 0000                link       A6, 0
00000A10  48E7 0718                movem.l    -[A7], D5,D6,D7,A3,A4
// end alternate branch 00000A0C-00000A14
fn00000A0C: // (misaligned)
00000A0E  0000 48E7                ori.b      D0, 0xE7
00000A12  0718                     btst       [A0]+, D3
00000A14  266E 0008                movea.l    A3, [A6 + 0x8]
00000A18  558F                     subq.l     A7, 2
00000A1A  4EBA F6CE                jsr        [PC - 0x932 /* 000000EA */]
00000A1E  3E1F                     move.w     D7, [A7]+
00000A20  0C47 FFFF                cmpi.w     D7, 0xFFFF
00000A24  676E                     beq        +0x70 /* 00000A94 */
00000A26  558F                     subq.l     A7, 2
00000A28  A994                     syscall    CurResFile
00000A2A  3C1F                     move.w     D6, [A7]+
00000A2C  3F07                     move.w     -[A7], D7
00000A2E  A998                     syscall    UseResFile
00000A30  558F                     subq.l     A7, 2
00000A32  3F07                     move.w     -[A7], D7
00000A34  2F3C 5349 434E           move.l     -[A7], 0x5349434E /* 'SICN' */
00000A3A  4EBA F61A                jsr        [PC - 0x9E6 /* 00000056 */]
00000A3E  3A1F                     move.w     D5, [A7]+
00000A40  3F06                     move.w     -[A7], D6
00000A42  A998                     syscall    UseResFile
00000A44  4A45                     tst.w      D5
00000A46  6F4C                     ble        +0x4E /* 00000A94 */
00000A48  3F07                     move.w     -[A7], D7
00000A4A  A998                     syscall    UseResFile
00000A4C  598F                     subq.l     A7, 4
00000A4E  2F3C 5349 434E           move.l     -[A7], 0x5349434E /* 'SICN' */
00000A54  7001                     moveq.l    D0, 0x01
00000A56  3F00                     move.w     -[A7], D0
00000A58  A80E                     syscall    Get1IndResource/Get1IxResource
00000A5A  285F                     movea.l    A4, [A7]+
00000A5C  598F                     subq.l     A7, 4
00000A5E  2F0C                     move.l     -[A7], A4
00000A60  4EBA 14FA                jsr        [PC + 0x14FA /* 00001F5C */]
00000A64  201F                     move.l     D0, [A7]+
00000A66  7220                     moveq.l    D1, 0x20
00000A68  4EBA 140E                jsr        [PC + 0x140E /* 00001E78 */]
00000A6C  3E00                     move.w     D7, D0
00000A6E  2F0C                     move.l     -[A7], A4
00000A70  A9A3                     syscall    ReleaseResource
00000A72  3F06                     move.w     -[A7], D6
00000A74  A998                     syscall    UseResFile
00000A76  558F                     subq.l     A7, 2
00000A78  A9AF                     syscall    ResError
00000A7A  4A5F                     tst.w      [A7]+
00000A7C  6616                     bne        +0x18 /* 00000A94 */
00000A7E  558F                     subq.l     A7, 2
00000A80  3F07                     move.w     -[A7], D7
00000A82  487A FD5C                pea.l      [PC - 0x2A4 /* 000007E0, value 0x4E56FFF8 */]
00000A86  2F2B 013A                move.l     -[A7], [A3 + 0x13A]
00000A8A  486B 011E                pea.l      [A3 + 0x11E]
00000A8E  4EBA F786                jsr        [PC - 0x87A /* 00000216 */]
00000A92  544F                     addq.w     A7, 2
label00000A94:
00000A94  4CEE 18E0 FFEC           movem.l    D5,D6,D7,A3,A4, [A6 - 0x14]
00000A9A  4E5E                     unlink     A6
00000A9C  4E75                     rts
fn00000A9E:
00000A9E  4E56 FFFC                link       A6, -0x0004
00000AA2  48E7 0018                movem.l    -[A7], A3,A4
00000AA6  286E 0008                movea.l    A4, [A6 + 0x8]
00000AAA  4AAC 012C                tst.l      [A4 + 0x12C]
00000AAE  6754                     beq        +0x56 /* 00000B04 */
00000AB0  206C 0126                movea.l    A0, [A4 + 0x126]
00000AB4  2050                     movea.l    A0, [A0]
00000AB6  2668 0044                movea.l    A3, [A0 + 0x44]
00000ABA  2053                     movea.l    A0, [A3]
00000ABC  4A10                     tst.b      [A0]
00000ABE  6744                     beq        +0x46 /* 00000B04 */
00000AC0  558F                     subq.l     A7, 2
00000AC2  486E FFFC                pea.l      [A6 - 0x4]
00000AC6  2F2C 013A                move.l     -[A7], [A4 + 0x13A]
00000ACA  4EBA F742                jsr        [PC - 0x8BE /* 0000020E */]
00000ACE  7000                     moveq.l    D0, 0x00
00000AD0  101F                     move.b     D0, [A7]+
00000AD2  0C40 0001                cmpi.w     D0, 0x1
00000AD6  661E                     bne        +0x20 /* 00000AF6 */
00000AD8  2053                     movea.l    A0, [A3]
00000ADA  2068 0034                movea.l    A0, [A0 + 0x34]
00000ADE  2050                     movea.l    A0, [A0]
00000AE0  226C 012C                movea.l    A1, [A4 + 0x12C]
00000AE4  2251                     movea.l    A1, [A1]
00000AE6  7020                     moveq.l    D0, 0x20
00000AE8  A02E                     syscall    BlockMove/BlockMoveData
00000AEA  2F2E FFFC                move.l     -[A7], [A6 - 0x4]
00000AEE  2F2C 013A                move.l     -[A7], [A4 + 0x13A]
00000AF2  4EBA F726                jsr        [PC - 0x8DA /* 0000021A */]
label00000AF6:
00000AF6  2F0C                     move.l     -[A7], A4
00000AF8  4EBA 10DC                jsr        [PC + 0x10DC /* 00001BD6 */]
00000AFC  197C 0001 014C           move.b     [A4 + 0x14C], 0x1
00000B02  584F                     addq.w     A7, 4
label00000B04:
00000B04  4CEE 1800 FFF4           movem.l    A3,A4, [A6 - 0xC]
00000B0A  4E5E                     unlink     A6
00000B0C  4E75                     rts
fn00000B0E:
00000B0E  4E56 0000                link       A6, 0
00000B12  2F0C                     move.l     -[A7], A4
00000B14  286E 0008                movea.l    A4, [A6 + 0x8]
00000B18  487A 002E                pea.l      [PC + 0x2E /* 00000B48, value 0x4534943, pstring "SICN" */]
00000B1C  2F0C                     move.l     -[A7], A4
00000B1E  4EBA 12FA                jsr        [PC + 0x12FA /* 00001E1A */]
00000B22  2F2E 0010                move.l     -[A7], [A6 + 0x10]
00000B26  2F0C                     move.l     -[A7], A4
00000B28  4EBA F5BC                jsr        [PC - 0xA44 /* 000000E6 */]
00000B2C  7000                     moveq.l    D0, 0x00
00000B2E  1014                     move.b     D0, [A4]
00000B30  5240                     addq.w     D0, 1
00000B32  48C0                     ext.l      D0
00000B34  2F00                     move.l     -[A7], D0
00000B36  2F0C                     move.l     -[A7], A4
00000B38  2F2E 000C                move.l     -[A7], [A6 + 0xC]
00000B3C  4EBA 12F4                jsr        [PC + 0x12F4 /* 00001E32 */]
00000B40  286E FFFC                movea.l    A4, [A6 - 0x4]
00000B44  4E5E                     unlink     A6
00000B46  4E75                     rts
00000B48  0453 4943                subi.w     [A3], 0x4943 /* 'IC' */
00000B4C  4E00                     .invalid   // invalid opcode 4
fn00000B4E:
00000B4E  4E56 FE00                link       A6, -0x0200
00000B52  48E7 0018                movem.l    -[A7], A3,A4
00000B56  266E 0008                movea.l    A3, [A6 + 0x8]
00000B5A  49EE FF00                lea.l      A4, [A6 - 0x100]
00000B5E  2F2E 000C                move.l     -[A7], [A6 + 0xC]
00000B62  2F0C                     move.l     -[A7], A4
00000B64  486E FE00                pea.l      [A6 - 0x200]
00000B68  4EBA FFA4                jsr        [PC - 0x5C /* 00000B0E */]
00000B6C  486E FE00                pea.l      [A6 - 0x200]
00000B70  2F0C                     move.l     -[A7], A4
00000B72  7001                     moveq.l    D0, 0x01
00000B74  1F00                     move.b     -[A7], D0
00000B76  2F13                     move.l     -[A7], [A3]
00000B78  4EBA F5BC                jsr        [PC - 0xA44 /* 00000136 */]
00000B7C  7000                     moveq.l    D0, 0x00
00000B7E  1014                     move.b     D0, [A4]
00000B80  5240                     addq.w     D0, 1
00000B82  48C0                     ext.l      D0
00000B84  2F00                     move.l     -[A7], D0
00000B86  2F0C                     move.l     -[A7], A4
00000B88  486B 0004                pea.l      [A3 + 0x4]
00000B8C  4EBA 12A4                jsr        [PC + 0x12A4 /* 00001E32 */]
00000B90  2F2B 0104                move.l     -[A7], [A3 + 0x104]
00000B94  486E FE00                pea.l      [A6 - 0x200]
00000B98  A91A                     syscall    SetWTitle
00000B9A  4CEE 1800 FDF8           movem.l    A3,A4, [A6 - 0x208]
00000BA0  4E5E                     unlink     A6
00000BA2  4E75                     rts
fn00000BA4:
00000BA4  4E56 FFFC                link       A6, -0x0004
00000BA8  48E7 0018                movem.l    -[A7], A3,A4
00000BAC  286E 0008                movea.l    A4, [A6 + 0x8]
00000BB0  266C 0118                movea.l    A3, [A4 + 0x118]
00000BB4  2D6C 0126 FFFC           move.l     [A6 - 0x4], [A4 + 0x126]
00000BBA  6708                     beq        +0xA /* 00000BC4 */
00000BBC  2F2C 0126                move.l     -[A7], [A4 + 0x126]
00000BC0  4EBA F678                jsr        [PC - 0x988 /* 0000023A */]
label00000BC4:
00000BC4  4AAC 013A                tst.l      [A4 + 0x13A]
00000BC8  6708                     beq        +0xA /* 00000BD2 */
00000BCA  2F2C 013A                move.l     -[A7], [A4 + 0x13A]
00000BCE  4EBA F64E                jsr        [PC - 0x9B2 /* 0000021E */]
label00000BD2:
00000BD2  4AAC 0146                tst.l      [A4 + 0x146]
00000BD6  6706                     beq        +0x8 /* 00000BDE */
00000BD8  206C 0146                movea.l    A0, [A4 + 0x146]
00000BDC  A023                     syscall    DisposHandle/DisposeHandle
label00000BDE:
00000BDE  4A2C 0109                tst.b      [A4 + 0x109]
00000BE2  6706                     beq        +0x8 /* 00000BEA */
00000BE4  2F2C 0114                move.l     -[A7], [A4 + 0x114]
00000BE8  A9A3                     syscall    ReleaseResource
label00000BEA:
00000BEA  4AAC 0122                tst.l      [A4 + 0x122]
00000BEE  6706                     beq        +0x8 /* 00000BF6 */
00000BF0  206C 0122                movea.l    A0, [A4 + 0x122]
00000BF4  A023                     syscall    DisposHandle/DisposeHandle
label00000BF6:
00000BF6  4AAC 0130                tst.l      [A4 + 0x130]
00000BFA  6706                     beq        +0x8 /* 00000C02 */
00000BFC  206C 0130                movea.l    A0, [A4 + 0x130]
00000C00  A023                     syscall    DisposHandle/DisposeHandle
label00000C02:
00000C02  4AAC 0104                tst.l      [A4 + 0x104]
00000C06  670E                     beq        +0x10 /* 00000C16 */
00000C08  2F2C 0104                move.l     -[A7], [A4 + 0x104]
00000C0C  A92D                     syscall    CloseWindow
00000C0E  2F2C 0104                move.l     -[A7], [A4 + 0x104]
00000C12  4EBA F4FE                jsr        [PC - 0xB02 /* 00000112 */]
label00000C16:
00000C16  204B                     movea.l    A0, A3
00000C18  A02A                     syscall    HUnlock
00000C1A  204B                     movea.l    A0, A3
00000C1C  A023                     syscall    DisposHandle/DisposeHandle
00000C1E  4CEE 1800 FFF4           movem.l    A3,A4, [A6 - 0xC]
00000C24  4E5E                     unlink     A6
00000C26  4E75                     rts
fn00000C28:
00000C28  4E56 FFF0                link       A6, -0x0010
00000C2C  2F0C                     move.l     -[A7], A4
00000C2E  286E 0008                movea.l    A4, [A6 + 0x8]
00000C32  3D7C 000C FFF0           move.w     [A6 - 0x10], 0xC
00000C38  7000                     moveq.l    D0, 0x00
00000C3A  102C 0134                move.b     D0, [A4 + 0x134]
00000C3E  2D40 FFF2                move.l     [A6 - 0xE], D0
00000C42  558F                     subq.l     A7, 2
00000C44  486E FFF0                pea.l      [A6 - 0x10]
00000C48  487A 0782                pea.l      [PC + 0x782 /* 000013CC, value 0x4E560000 'NV\0\0', cstring "NV" */]
00000C4C  487A 078A                pea.l      [PC + 0x78A /* 000013D8, value 0x4E560000 'NV\0\0', cstring "NV" */]
00000C50  2F2C 0126                move.l     -[A7], [A4 + 0x126]
00000C54  4EBA F5E8                jsr        [PC - 0xA18 /* 0000023E */]
00000C58  286E FFEC                movea.l    A4, [A6 - 0x14]
00000C5C  4E5E                     unlink     A6
00000C5E  4E75                     rts
label00000C60:
00000C60  4E56 FCE2                link       A6, -0x031E
00000C64  48E7 1018                movem.l    -[A7], D3,A3,A4
00000C68  2F2E 000C                move.l     -[A7], [A6 + 0xC]
00000C6C  486E FCE6                pea.l      [A6 - 0x31A]
00000C70  486E FCE8                pea.l      [A6 - 0x318]
00000C74  486E FCEC                pea.l      [A6 - 0x314]
00000C78  A9A8                     syscall    GetResInfo
00000C7A  558F                     subq.l     A7, 2
00000C7C  558F                     subq.l     A7, 2
00000C7E  A9AF                     syscall    ResError
00000C80  7000                     moveq.l    D0, 0x00
00000C82  3F00                     move.w     -[A7], D0
00000C84  4EBA F4C4                jsr        [PC - 0xB3C /* 0000014A */]
00000C88  4A1F                     tst.b      [A7]+
00000C8A  6700 02E2                beq        +0x2E4 /* 00000F6E */
00000C8E  203C 0000 014E           move.l     D0, 0x14E
00000C94  A322                     syscall    NewHandleClear, flags=3
00000C96  2648                     movea.l    A3, A0
00000C98  558F                     subq.l     A7, 2
00000C9A  3F38 0220                move.w     -[A7], [0x00000220 /* MemErr */]
00000C9E  7000                     moveq.l    D0, 0x00
00000CA0  3F00                     move.w     -[A7], D0
00000CA2  4EBA F4A6                jsr        [PC - 0xB5A /* 0000014A */]
00000CA6  4A1F                     tst.b      [A7]+
00000CA8  6700 02C4                beq        +0x2C6 /* 00000F6E */
00000CAC  2F0B                     move.l     -[A7], A3
00000CAE  4EBA F39E                jsr        [PC - 0xC62 /* 0000004E */]
00000CB2  204B                     movea.l    A0, A3
00000CB4  A029                     syscall    HLock
00000CB6  2853                     movea.l    A4, [A3]
00000CB8  294B 0118                move.l     [A4 + 0x118], A3
00000CBC  426C 011E                clr.w      [A4 + 0x11E]
00000CC0  396E FCE6 011C           move.w     [A4 + 0x11C], [A6 - 0x31A]
00000CC6  28AE 0008                move.l     [A4], [A6 + 0x8]
00000CCA  197C 0005 010A           move.b     [A4 + 0x10A], 0x5
00000CD0  296E FCE8 010C           move.l     [A4 + 0x10C], [A6 - 0x318]
00000CD6  558F                     subq.l     A7, 2
00000CD8  2F2E 000C                move.l     -[A7], [A6 + 0xC]
00000CDC  A9A4                     syscall    HomeResFile
00000CDE  395F 0110                move.w     [A4 + 0x110], [A7]+
00000CE2  558F                     subq.l     A7, 2
00000CE4  4EBA F348                jsr        [PC - 0xCB8 /* 0000002E */]
00000CE8  395F 0112                move.w     [A4 + 0x112], [A7]+
00000CEC  296E 000C 0114           move.l     [A4 + 0x114], [A6 + 0xC]
00000CF2  558F                     subq.l     A7, 2
00000CF4  4EBA F468                jsr        [PC - 0xB98 /* 0000015E */]
00000CF8  4A1F                     tst.b      [A7]+
00000CFA  57C3                     seq        D3
00000CFC  4403                     neg.b      D3
00000CFE  1943 0109                move.b     [A4 + 0x109], D3
00000D02  598F                     subq.l     A7, 4
00000D04  2F2C 0114                move.l     -[A7], [A4 + 0x114]
00000D08  4EBA 1252                jsr        [PC + 0x1252 /* 00001F5C */]
00000D0C  4A9F                     tst.l      [A7]+
00000D0E  6612                     bne        +0x14 /* 00000D22 */
00000D10  7020                     moveq.l    D0, 0x20
00000D12  2F00                     move.l     -[A7], D0
00000D14  2F2C 0114                move.l     -[A7], [A4 + 0x114]
00000D18  4EBA F384                jsr        [PC - 0xC7C /* 0000009E */]
00000D1C  3978 0220 011E           move.w     [A4 + 0x11E], [0x00000220 /* MemErr */]
label00000D22:
00000D22  598F                     subq.l     A7, 4
00000D24  2F2C 0114                move.l     -[A7], [A4 + 0x114]
00000D28  4EBA 1232                jsr        [PC + 0x1232 /* 00001F5C */]
00000D2C  201F                     move.l     D0, [A7]+
00000D2E  7220                     moveq.l    D1, 0x20
00000D30  4EBA 1146                jsr        [PC + 0x1146 /* 00001E78 */]
00000D34  3940 012A                move.w     [A4 + 0x12A], D0
00000D38  70FF                     moveq.l    D0, 0xFFFFFFFF
00000D3A  B06C 011E                cmp.w      D0, [A4 + 0x11E]
00000D3E  6712                     beq        +0x14 /* 00000D52 */
00000D40  558F                     subq.l     A7, 2
00000D42  3F2C 011E                move.w     -[A7], [A4 + 0x11E]
00000D46  7000                     moveq.l    D0, 0x00
00000D48  3F00                     move.w     -[A7], D0
00000D4A  4EBA F3FE                jsr        [PC - 0xC02 /* 0000014A */]
00000D4E  4A1F                     tst.b      [A7]+
00000D50  6612                     bne        +0x14 /* 00000D64 */
label00000D52:
00000D52  206C 0114                movea.l    A0, [A4 + 0x114]
00000D56  A023                     syscall    DisposHandle/DisposeHandle
00000D58  204B                     movea.l    A0, A3
00000D5A  A02A                     syscall    HUnlock
00000D5C  204B                     movea.l    A0, A3
00000D5E  A023                     syscall    DisposHandle/DisposeHandle
00000D60  6000 020C                bra        +0x20E /* 00000F6E */
label00000D64:
00000D64  558F                     subq.l     A7, 2
00000D66  7001                     moveq.l    D0, 0x01
00000D68  3F00                     move.w     -[A7], D0
00000D6A  486E FDEC                pea.l      [A6 - 0x214]
00000D6E  4EBA F4BE                jsr        [PC - 0xB42 /* 0000022E */]
00000D72  395F 011E                move.w     [A4 + 0x11E], [A7]+
00000D76  2F0C                     move.l     -[A7], A4
00000D78  4EBA F4E8                jsr        [PC - 0xB18 /* 00000262 */]
00000D7C  4A00                     tst.b      D0
00000D7E  584F                     addq.w     A7, 4
00000D80  6600 01EC                bne        +0x1EE /* 00000F6E */
00000D84  206E FDEC                movea.l    A0, [A6 - 0x214]
00000D88  2948 0126                move.l     [A4 + 0x126], A0
00000D8C  2050                     movea.l    A0, [A0]
00000D8E  2068 0004                movea.l    A0, [A0 + 0x4]
00000D92  2D48 FFF8                move.l     [A6 - 0x8], A0
00000D96  2050                     movea.l    A0, [A0]
00000D98  2068 0002                movea.l    A0, [A0 + 0x2]
00000D9C  2D48 FFFC                move.l     [A6 - 0x4], A0
00000DA0  2050                     movea.l    A0, [A0]
00000DA2  317C 0002 0006           move.w     [A0 + 0x6], 0x2
00000DA8  206E FFFC                movea.l    A0, [A6 - 0x4]
00000DAC  2050                     movea.l    A0, [A0]
00000DAE  4268 000A                clr.w      [A0 + 0xA]
00000DB2  206E FFFC                movea.l    A0, [A6 - 0x4]
00000DB6  2050                     movea.l    A0, [A0]
00000DB8  4268 0008                clr.w      [A0 + 0x8]
00000DBC  206E FFFC                movea.l    A0, [A6 - 0x4]
00000DC0  2050                     movea.l    A0, [A0]
00000DC2  317C 0010 000C           move.w     [A0 + 0xC], 0x10
00000DC8  206E FFFC                movea.l    A0, [A6 - 0x4]
00000DCC  2050                     movea.l    A0, [A0]
00000DCE  317C 0010 000E           move.w     [A0 + 0xE], 0x10
00000DD4  7020                     moveq.l    D0, 0x20
00000DD6  A322                     syscall    NewHandleClear, flags=3
00000DD8  226E FFFC                movea.l    A1, [A6 - 0x4]
00000DDC  2251                     movea.l    A1, [A1]
00000DDE  2348 0034                move.l     [A1 + 0x34], A0
00000DE2  70FF                     moveq.l    D0, 0xFFFFFFFF
00000DE4  3F00                     move.w     -[A7], D0
00000DE6  2F2E FDEC                move.l     -[A7], [A6 - 0x214]
00000DEA  4EBA F446                jsr        [PC - 0xBBA /* 00000232 */]
00000DEE  206E FFFC                movea.l    A0, [A6 - 0x4]
00000DF2  2050                     movea.l    A0, [A0]
00000DF4  3028 005A                move.w     D0, [A0 + 0x5A]
00000DF8  D07C 0043                add.w      D0, 0x43 /* 'C' */
00000DFC  3D40 FFF2                move.w     [A6 - 0xE], D0
00000E00  206C 0126                movea.l    A0, [A4 + 0x126]
00000E04  2050                     movea.l    A0, [A0]
00000E06  3028 0038                move.w     D0, [A0 + 0x38]
00000E0A  5040                     addq.w     D0, 8
00000E0C  3D40 FFF0                move.w     [A6 - 0x10], D0
00000E10  206E FFFC                movea.l    A0, [A6 - 0x4]
00000E14  2050                     movea.l    A0, [A0]
00000E16  3028 005A                move.w     D0, [A0 + 0x5A]
00000E1A  5040                     addq.w     D0, 8
00000E1C  3940 0140                move.w     [A4 + 0x140], D0
00000E20  397C 0008 013E           move.w     [A4 + 0x13E], 0x8
00000E26  302C 0140                move.w     D0, [A4 + 0x140]
00000E2A  D07C 0033                add.w      D0, 0x33 /* '3' */
00000E2E  3940 0144                move.w     [A4 + 0x144], D0
00000E32  302E FFF0                move.w     D0, [A6 - 0x10]
00000E36  5140                     subq.w     D0, 8
00000E38  3940 0142                move.w     [A4 + 0x142], D0
00000E3C  2F2E 000C                move.l     -[A7], [A6 + 0xC]
00000E40  486E FEF0                pea.l      [A6 - 0x110]
00000E44  486E FDF0                pea.l      [A6 - 0x210]
00000E48  4EBA FCC4                jsr        [PC - 0x33C /* 00000B0E */]
00000E4C  598F                     subq.l     A7, 4
00000E4E  7000                     moveq.l    D0, 0x00
00000E50  3F00                     move.w     -[A7], D0
00000E52  7200                     moveq.l    D1, 0x00
00000E54  1F01                     move.b     -[A7], D1
00000E56  2F2E FFF0                move.l     -[A7], [A6 - 0x10]
00000E5A  486E FDF0                pea.l      [A6 - 0x210]
00000E5E  486E FEF0                pea.l      [A6 - 0x110]
00000E62  7001                     moveq.l    D0, 0x01
00000E64  1F00                     move.b     -[A7], D0
00000E66  3F2C 0112                move.w     -[A7], [A4 + 0x112]
00000E6A  2F2E 0008                move.l     -[A7], [A6 + 0x8]
00000E6E  4EBA F2C2                jsr        [PC - 0xD3E /* 00000132 */]
00000E72  2D5F FCE2                move.l     [A6 - 0x31E], [A7]+
00000E76  4FEF 000C                lea.l      A7, [A7 + 0xC]
00000E7A  660C                     bne        +0xE /* 00000E88 */
00000E7C  2F0C                     move.l     -[A7], A4
00000E7E  4EBA FD24                jsr        [PC - 0x2DC /* 00000BA4 */]
00000E82  584F                     addq.w     A7, 4
00000E84  6000 00E8                bra        +0xEA /* 00000F6E */
label00000E88:
00000E88  296E FCE2 0104           move.l     [A4 + 0x104], [A6 - 0x31E]
00000E8E  7000                     moveq.l    D0, 0x00
00000E90  102E FEF0                move.b     D0, [A6 - 0x110]
00000E94  5240                     addq.w     D0, 1
00000E96  48C0                     ext.l      D0
00000E98  2F00                     move.l     -[A7], D0
00000E9A  486E FEF0                pea.l      [A6 - 0x110]
00000E9E  486C 0004                pea.l      [A4 + 0x4]
00000EA2  4EBA 0F8E                jsr        [PC + 0xF8E /* 00001E32 */]
00000EA6  206E FCE2                movea.l    A0, [A6 - 0x31E]
00000EAA  316C 0112 006C           move.w     [A0 + 0x6C], [A4 + 0x112]
00000EB0  206E FCE2                movea.l    A0, [A6 - 0x31E]
00000EB4  214B 0098                move.l     [A0 + 0x98], A3
00000EB8  2F2E FCE2                move.l     -[A7], [A6 - 0x31E]
00000EBC  A873                     syscall    SetPort
00000EBE  206E FDEC                movea.l    A0, [A6 - 0x214]
00000EC2  2050                     movea.l    A0, [A0]
00000EC4  216E FCE2 00C2           move.l     [A0 + 0xC2], [A6 - 0x31E]
00000ECA  486E FFF4                pea.l      [A6 - 0xC]
00000ECE  7023                     moveq.l    D0, 0x23
00000ED0  3F00                     move.w     -[A7], D0
00000ED2  7222                     moveq.l    D1, 0x22
00000ED4  3F01                     move.w     -[A7], D1
00000ED6  A880                     syscall    SetPt
00000ED8  598F                     subq.l     A7, 4
00000EDA  3F2C 012A                move.w     -[A7], [A4 + 0x12A]
00000EDE  558F                     subq.l     A7, 2
00000EE0  4EBA F14C                jsr        [PC - 0xEB4 /* 0000002E */]
00000EE4  487A F51E                pea.l      [PC - 0xAE2 /* 00000404, value 0x4E56FFF8 */]
00000EE8  2F2E FFF4                move.l     -[A7], [A6 - 0xC]
00000EEC  2F0B                     move.l     -[A7], A3
00000EEE  486C 013E                pea.l      [A4 + 0x13E]
00000EF2  486C 011E                pea.l      [A4 + 0x11E]
00000EF6  4EBA F30A                jsr        [PC - 0xCF6 /* 00000202 */]
00000EFA  295F 013A                move.l     [A4 + 0x13A], [A7]+
00000EFE  2F0C                     move.l     -[A7], A4
00000F00  4EBA F360                jsr        [PC - 0xCA0 /* 00000262 */]
00000F04  4A00                     tst.b      D0
00000F06  4FEF 0010                lea.l      A7, [A7 + 0x10]
00000F0A  6662                     bne        +0x64 /* 00000F6E */
00000F0C  7020                     moveq.l    D0, 0x20
00000F0E  A322                     syscall    NewHandleClear, flags=3
00000F10  2948 0130                move.l     [A4 + 0x130], A0
00000F14  3978 0220 011E           move.w     [A4 + 0x11E], [0x00000220 /* MemErr */]
00000F1A  2F0C                     move.l     -[A7], A4
00000F1C  4EBA F344                jsr        [PC - 0xCBC /* 00000262 */]
00000F20  4A00                     tst.b      D0
00000F22  584F                     addq.w     A7, 4
00000F24  6708                     beq        +0xA /* 00000F2E */
00000F26  7000                     moveq.l    D0, 0x00
00000F28  2940 0130                move.l     [A4 + 0x130], D0
00000F2C  6040                     bra        +0x42 /* 00000F6E */
label00000F2E:
00000F2E  2F0C                     move.l     -[A7], A4
00000F30  4EBA F3DA                jsr        [PC - 0xC26 /* 0000030C */]
00000F34  2F0C                     move.l     -[A7], A4
00000F36  4EBA F32A                jsr        [PC - 0xCD6 /* 00000262 */]
00000F3A  4A00                     tst.b      D0
00000F3C  504F                     addq.w     A7, 8
00000F3E  662E                     bne        +0x30 /* 00000F6E */
00000F40  598F                     subq.l     A7, 4
00000F42  487A 0038                pea.l      [PC + 0x38 /* 00000F7C, value 0x9534943 '\tSIC', pstring "SICN undo" */]
00000F46  A906                     syscall    NewString
00000F48  206E FDEC                movea.l    A0, [A6 - 0x214]
00000F4C  2050                     movea.l    A0, [A0]
00000F4E  215F 0008                move.l     [A0 + 0x8], [A7]+
00000F52  202C 012C                move.l     D0, [A4 + 0x12C]
00000F56  B0AC 0130                cmp.l      D0, [A4 + 0x130]
00000F5A  660E                     bne        +0x10 /* 00000F6A */
00000F5C  197C 0001 0134           move.b     [A4 + 0x134], 0x1
00000F62  2F0C                     move.l     -[A7], A4
00000F64  4EBA FCC2                jsr        [PC - 0x33E /* 00000C28 */]
00000F68  584F                     addq.w     A7, 4
label00000F6A:
00000F6A  204B                     movea.l    A0, A3
00000F6C  A02A                     syscall    HUnlock
label00000F6E:
00000F6E  4CEE 1808 FCD6           movem.l    D3,A3,A4, [A6 - 0x32A]
00000F74  4E5E                     unlink     A6
00000F76  205F                     movea.l    A0, [A7]+
00000F78  504F                     addq.w     A7, 8
00000F7A  4ED0                     jmp        [A0]
00000F7C  0953                     bchg       [A3], D4
00000F7E  4943                     chk.w      D4, D3
00000F80  4E20                     .invalid   // invalid opcode 4
00000F82  756E                     moveq.l    D2, 0x6E
00000F84  646F                     bcc        +0x71 /* 00000FF5 */
00000F86  0000 4E56                ori.b      D0, 0x56 /* 'V' */
// begin alternate branch 00000F88-00000F8E
label00000F88:
00000F88  4E56 0000                link       A6, 0
00000F8C  4E5E                     unlink     A6
// end alternate branch 00000F88-00000F8E
label00000F88: // (misaligned)
00000F8A  0000 4E5E                ori.b      D0, 0x5E /* '^' */
00000F8E  205F                     movea.l    A0, [A7]+
00000F90  504F                     addq.w     A7, 8
00000F92  4ED0                     jmp        [A0]
fn00000F94:
00000F94  4E56 FF00                link       A6, -0x0100
00000F98  48E7 0118                movem.l    -[A7], D7,A3,A4
00000F9C  47EE FF00                lea.l      A3, [A6 - 0x100]
00000FA0  286E 0008                movea.l    A4, [A6 + 0x8]
00000FA4  2E3C FFFF FF03           move.l     D7, 0xFFFFFF03
00000FAA  206C 0126                movea.l    A0, [A4 + 0x126]
00000FAE  2050                     movea.l    A0, [A0]
00000FB0  4A28 0062                tst.b      [A0 + 0x62]
00000FB4  673C                     beq        +0x3E /* 00000FF2 */
00000FB6  7001                     moveq.l    D0, 0x01
00000FB8  3F00                     move.w     -[A7], D0
00000FBA  487A 0040                pea.l      [PC + 0x40 /* 00000FFC, value 0xC534943, pstring "SICN strings" */]
00000FBE  2F0B                     move.l     -[A7], A3
00000FC0  4EBA F0AC                jsr        [PC - 0xF54 /* 0000006E */]
00000FC4  598F                     subq.l     A7, 4
00000FC6  3F3C 0080                move.w     -[A7], 0x80
00000FCA  A949                     syscall    GetMenuHandle
00000FCC  7001                     moveq.l    D0, 0x01
00000FCE  3F00                     move.w     -[A7], D0
00000FD0  2F0B                     move.l     -[A7], A3
00000FD2  A947                     syscall    SetMenuItemText/SetItem
00000FD4  558F                     subq.l     A7, 2
00000FD6  2F2C 0114                move.l     -[A7], [A4 + 0x114]
00000FDA  A9A6                     syscall    GetResAttrs
00000FDC  7002                     moveq.l    D0, 0x02
00000FDE  C05F                     and.w      D0, [A7]+
00000FE0  6706                     beq        +0x8 /* 00000FE8 */
00000FE2  0687 0000 0040           addi.l     D7, 0x40 /* '@' */
label00000FE8:
00000FE8  3F3C 0080                move.w     -[A7], 0x80
00000FEC  2F07                     move.l     -[A7], D7
00000FEE  4EBA F0CE                jsr        [PC - 0xF32 /* 000000BE */]
label00000FF2:
00000FF2  4CEE 1880 FEF4           movem.l    D7,A3,A4, [A6 - 0x10C]
00000FF8  4E5E                     unlink     A6
00000FFA  4E75                     rts
00000FFC  0C53 4943                cmpi.w     [A3], 0x4943 /* 'IC' */
00001000  4E20                     .invalid   // invalid opcode 4
00001002  7374                     moveq.l    D1, 0x74
00001004  7269                     moveq.l    D1, 0x69
00001006  6E67                     bgt        +0x69 /* 0000106F */
00001008  7300                     moveq.l    D1, 0x00
fn0000100A:
0000100A  4E56 0000                link       A6, 0
0000100E  48E7 0F00                movem.l    -[A7], D4,D5,D6,D7
00001012  4246                     clr.w      D6
00001014  558F                     subq.l     A7, 2
00001016  4EBA F0D2                jsr        [PC - 0xF2E /* 000000EA */]
0000101A  3E1F                     move.w     D7, [A7]+
0000101C  0C47 FFFF                cmpi.w     D7, 0xFFFF
00001020  672C                     beq        +0x2E /* 0000104E */
00001022  558F                     subq.l     A7, 2
00001024  A994                     syscall    CurResFile
00001026  381F                     move.w     D4, [A7]+
00001028  3F07                     move.w     -[A7], D7
0000102A  A998                     syscall    UseResFile
0000102C  558F                     subq.l     A7, 2
0000102E  3F07                     move.w     -[A7], D7
00001030  2F3C 5349 434E           move.l     -[A7], 0x5349434E /* 'SICN' */
00001036  4EBA F01E                jsr        [PC - 0xFE2 /* 00000056 */]
0000103A  3A1F                     move.w     D5, [A7]+
0000103C  7A01                     moveq.l    D5, 0x01
0000103E  6702                     beq        +0x4 /* 00001042 */
00001040  7C01                     moveq.l    D6, 0x01
label00001042:
00001042  0C45 0001                cmpi.w     D5, 0x1
00001046  6F02                     ble        +0x4 /* 0000104A */
00001048  7C02                     moveq.l    D6, 0x02
label0000104A:
0000104A  3F04                     move.w     -[A7], D4
0000104C  A998                     syscall    UseResFile
label0000104E:
0000104E  3006                     move.w     D0, D6
00001050  4CEE 00F0 FFF0           movem.l    D4,D5,D6,D7, [A6 - 0x10]
00001056  4E5E                     unlink     A6
00001058  4E75                     rts
fn0000105A:
0000105A  4E56 F9FC                link       A6, -0x0604
0000105E  48E7 1718                movem.l    -[A7], D3,D5,D6,D7,A3,A4
00001062  47EE FEFC                lea.l      A3, [A6 - 0x104]
00001066  286E 0008                movea.l    A4, [A6 + 0x8]
0000106A  4A2C 0134                tst.b      [A4 + 0x134]
0000106E  6700 017E                beq        +0x180 /* 000011EE */
00001072  206C 0126                movea.l    A0, [A4 + 0x126]
00001076  2050                     movea.l    A0, [A0]
00001078  4A28 0062                tst.b      [A0 + 0x62]
0000107C  670C                     beq        +0xE /* 0000108A */
0000107E  206C 0126                movea.l    A0, [A4 + 0x126]
00001082  2050                     movea.l    A0, [A0]
00001084  3068 0072                movea.w    A0, [A0 + 0x72]
00001088  6004                     bra        +0x6 /* 0000108E */
label0000108A:
0000108A  307C 0001                movea.w    A0, 0x1
label0000108E:
0000108E  3A08                     move.w     D5, A0
00001090  0C45 0001                cmpi.w     D5, 0x1
00001094  57C3                     seq        D3
00001096  4403                     neg.b      D3
00001098  6708                     beq        +0xA /* 000010A2 */
0000109A  203C FFFF F979           move.l     D0, 0xFFFFF979
000010A0  6006                     bra        +0x8 /* 000010A8 */
label000010A2:
000010A2  203C FFFF F97B           move.l     D0, 0xFFFFF97B
label000010A8:
000010A8  2C00                     move.l     D6, D0
000010AA  558F                     subq.l     A7, 2
000010AC  486E FFFC                pea.l      [A6 - 0x4]
000010B0  2F2C 013A                move.l     -[A7], [A4 + 0x13A]
000010B4  4EBA F158                jsr        [PC - 0xEA8 /* 0000020E */]
000010B8  1E1F                     move.b     D7, [A7]+
000010BA  7000                     moveq.l    D0, 0x00
000010BC  1007                     move.b     D0, D7
000010BE  4A80                     tst.l      D0
000010C0  6606                     bne        +0x8 /* 000010C8 */
000010C2  0486 0000 0058           subi.l     D6, 0x58 /* 'X' */
label000010C8:
000010C8  7000                     moveq.l    D0, 0x00
000010CA  1007                     move.b     D0, D7
000010CC  5840                     addq.w     D0, 4
000010CE  3F00                     move.w     -[A7], D0
000010D0  487A 0192                pea.l      [PC + 0x192 /* 00001264, value 0x16534943, pstring "SICN edit menu strings" */]
000010D4  486E FAFC                pea.l      [A6 - 0x504]
000010D8  4EBA EF94                jsr        [PC - 0x106C /* 0000006E */]
000010DC  7000                     moveq.l    D0, 0x00
000010DE  1007                     move.b     D0, D7
000010E0  5240                     addq.w     D0, 1
000010E2  3F00                     move.w     -[A7], D0
000010E4  487A 0166                pea.l      [PC + 0x166 /* 0000124C, value 0x16534943, pstring "SICN edit menu strings" */]
000010E8  486E FBFC                pea.l      [A6 - 0x404]
000010EC  4EBA EF80                jsr        [PC - 0x1080 /* 0000006E */]
000010F0  7000                     moveq.l    D0, 0x00
000010F2  1007                     move.b     D0, D7
000010F4  D07C 000B                add.w      D0, 0xB
000010F8  3F00                     move.w     -[A7], D0
000010FA  487A 0138                pea.l      [PC + 0x138 /* 00001234, value 0x16534943, pstring "SICN edit menu strings" */]
000010FE  486E FDFC                pea.l      [A6 - 0x204]
00001102  4EBA EF6A                jsr        [PC - 0x1096 /* 0000006E */]
00001106  598F                     subq.l     A7, 4
00001108  7003                     moveq.l    D0, 0x03
0000110A  3F00                     move.w     -[A7], D0
0000110C  A949                     syscall    GetMenuHandle
0000110E  7003                     moveq.l    D0, 0x03
00001110  3F00                     move.w     -[A7], D0
00001112  486E FAFC                pea.l      [A6 - 0x504]
00001116  A947                     syscall    SetMenuItemText/SetItem
00001118  598F                     subq.l     A7, 4
0000111A  7003                     moveq.l    D0, 0x03
0000111C  3F00                     move.w     -[A7], D0
0000111E  A949                     syscall    GetMenuHandle
00001120  7004                     moveq.l    D0, 0x04
00001122  3F00                     move.w     -[A7], D0
00001124  486E FBFC                pea.l      [A6 - 0x404]
00001128  A947                     syscall    SetMenuItemText/SetItem
0000112A  598F                     subq.l     A7, 4
0000112C  7003                     moveq.l    D0, 0x03
0000112E  3F00                     move.w     -[A7], D0
00001130  A949                     syscall    GetMenuHandle
00001132  7006                     moveq.l    D0, 0x06
00001134  3F00                     move.w     -[A7], D0
00001136  486E FDFC                pea.l      [A6 - 0x204]
0000113A  A947                     syscall    SetMenuItemText/SetItem
0000113C  7000                     moveq.l    D0, 0x00
0000113E  1007                     move.b     D0, D7
00001140  0C40 0001                cmpi.w     D0, 0x1
00001144  6604                     bne        +0x6 /* 0000114A */
00001146  7E0F                     moveq.l    D7, 0x0F
00001148  6008                     bra        +0xA /* 00001152 */
label0000114A:
0000114A  0486 0000 0100           subi.l     D6, 0x100
00001150  7E0E                     moveq.l    D7, 0x0E
label00001152:
00001152  3F07                     move.w     -[A7], D7
00001154  487A 00C6                pea.l      [PC + 0xC6 /* 0000121C, value 0x16534943, pstring "SICN edit menu strings" */]
00001158  2F0B                     move.l     -[A7], A3
0000115A  4EBA EF12                jsr        [PC - 0x10EE /* 0000006E */]
0000115E  598F                     subq.l     A7, 4
00001160  7003                     moveq.l    D0, 0x03
00001162  3F00                     move.w     -[A7], D0
00001164  A949                     syscall    GetMenuHandle
00001166  7008                     moveq.l    D0, 0x08
00001168  3F00                     move.w     -[A7], D0
0000116A  2F0B                     move.l     -[A7], A3
0000116C  A947                     syscall    SetMenuItemText/SetItem
0000116E  558F                     subq.l     A7, 2
00001170  206C 013A                movea.l    A0, [A4 + 0x13A]
00001174  2050                     movea.l    A0, [A0]
00001176  4868 0048                pea.l      [A0 + 0x48]
0000117A  A8AE                     syscall    EmptyRect
0000117C  4A1F                     tst.b      [A7]+
0000117E  6606                     bne        +0x8 /* 00001186 */
00001180  0686 0000 0200           addi.l     D6, 0x200
label00001186:
00001186  4EBA FE82                jsr        [PC - 0x17E /* 0000100A */]
0000118A  3E00                     move.w     D7, D0
0000118C  6606                     bne        +0x8 /* 00001194 */
0000118E  0486 0000 0020           subi.l     D6, 0x20 /* ' ' */
label00001194:
00001194  3007                     move.w     D0, D7
00001196  5E40                     addq.w     D0, 7
00001198  3F00                     move.w     -[A7], D0
0000119A  487A 0068                pea.l      [PC + 0x68 /* 00001204, value 0x16534943, pstring "SICN edit menu strings" */]
0000119E  486E FCFC                pea.l      [A6 - 0x304]
000011A2  4EBA EECA                jsr        [PC - 0x1136 /* 0000006E */]
000011A6  598F                     subq.l     A7, 4
000011A8  7003                     moveq.l    D0, 0x03
000011AA  3F00                     move.w     -[A7], D0
000011AC  A949                     syscall    GetMenuHandle
000011AE  7005                     moveq.l    D0, 0x05
000011B0  3F00                     move.w     -[A7], D0
000011B2  486E FCFC                pea.l      [A6 - 0x304]
000011B6  A947                     syscall    SetMenuItemText/SetItem
000011B8  0C45 0064                cmpi.w     D5, 0x64 /* 'd' */
000011BC  6D26                     blt        +0x28 /* 000011E4 */
000011BE  3005                     move.w     D0, D5
000011C0  907C 0063                sub.w      D0, 0x63 /* 'c' */
000011C4  3F00                     move.w     -[A7], D0
000011C6  487A 0030                pea.l      [PC + 0x30 /* 000011F8, value 0x9534943 '\tSIC', pstring "SICN undo" */]
000011CA  486E F9FC                pea.l      [A6 - 0x604]
000011CE  4EBA EE9E                jsr        [PC - 0x1162 /* 0000006E */]
000011D2  598F                     subq.l     A7, 4
000011D4  7003                     moveq.l    D0, 0x03
000011D6  3F00                     move.w     -[A7], D0
000011D8  A949                     syscall    GetMenuHandle
000011DA  7001                     moveq.l    D0, 0x01
000011DC  3F00                     move.w     -[A7], D0
000011DE  486E F9FC                pea.l      [A6 - 0x604]
000011E2  A947                     syscall    SetMenuItemText/SetItem
label000011E4:
000011E4  7003                     moveq.l    D0, 0x03
000011E6  3F00                     move.w     -[A7], D0
000011E8  2F06                     move.l     -[A7], D6
000011EA  4EBA EED2                jsr        [PC - 0x112E /* 000000BE */]
label000011EE:
000011EE  4CEE 18E8 F9E4           movem.l    D3,D5,D6,D7,A3,A4, [A6 - 0x61C]
000011F4  4E5E                     unlink     A6
000011F6  4E75                     rts
000011F8  0953                     bchg       [A3], D4
000011FA  4943                     chk.w      D4, D3
000011FC  4E20                     .invalid   // invalid opcode 4
000011FE  756E                     moveq.l    D2, 0x6E
00001200  646F                     bcc        +0x71 /* 00001271 */
00001202  0000 1653                ori.b      D0, 0x53 /* 'S' */
00001206  4943                     chk.w      D4, D3
00001208  4E20                     .invalid   // invalid opcode 4
0000120A  6564                     bcs        +0x66 /* 00001270 */
0000120C  6974                     bvs        +0x76 /* 00001282 */
0000120E  206D 656E                movea.l    A0, [A5 + 0x656E]
00001212  7520                     moveq.l    D2, 0x20
00001214  7374                     moveq.l    D1, 0x74
00001216  7269                     moveq.l    D1, 0x69
00001218  6E67                     bgt        +0x69 /* 00001281 */
0000121A  7300                     moveq.l    D1, 0x00
0000121C  1653                     movea.b    A3, [A3]
0000121E  4943                     chk.w      D4, D3
00001220  4E20                     .invalid   // invalid opcode 4
00001222  6564                     bcs        +0x66 /* 00001288 */
00001224  6974                     bvs        +0x76 /* 0000129A */
00001226  206D 656E                movea.l    A0, [A5 + 0x656E]
0000122A  7520                     moveq.l    D2, 0x20
0000122C  7374                     moveq.l    D1, 0x74
0000122E  7269                     moveq.l    D1, 0x69
00001230  6E67                     bgt        +0x69 /* 00001299 */
00001232  7300                     moveq.l    D1, 0x00
00001234  1653                     movea.b    A3, [A3]
00001236  4943                     chk.w      D4, D3
00001238  4E20                     .invalid   // invalid opcode 4
0000123A  6564                     bcs        +0x66 /* 000012A0 */
0000123C  6974                     bvs        +0x76 /* 000012B2 */
0000123E  206D 656E                movea.l    A0, [A5 + 0x656E]
00001242  7520                     moveq.l    D2, 0x20
00001244  7374                     moveq.l    D1, 0x74
00001246  7269                     moveq.l    D1, 0x69
00001248  6E67                     bgt        +0x69 /* 000012B1 */
0000124A  7300                     moveq.l    D1, 0x00
0000124C  1653                     movea.b    A3, [A3]
0000124E  4943                     chk.w      D4, D3
00001250  4E20                     .invalid   // invalid opcode 4
00001252  6564                     bcs        +0x66 /* 000012B8 */
00001254  6974                     bvs        +0x76 /* 000012CA */
00001256  206D 656E                movea.l    A0, [A5 + 0x656E]
0000125A  7520                     moveq.l    D2, 0x20
0000125C  7374                     moveq.l    D1, 0x74
0000125E  7269                     moveq.l    D1, 0x69
00001260  6E67                     bgt        +0x69 /* 000012C9 */
00001262  7300                     moveq.l    D1, 0x00
00001264  1653                     movea.b    A3, [A3]
00001266  4943                     chk.w      D4, D3
00001268  4E20                     .invalid   // invalid opcode 4
0000126A  6564                     bcs        +0x66 /* 000012D0 */
0000126C  6974                     bvs        +0x76 /* 000012E2 */
0000126E  206D 656E                movea.l    A0, [A5 + 0x656E]
// begin alternate branch 00001270-00001272
label00001270:
00001270  656E                     bcs        +0x70 /* 000012E0 */
// end alternate branch 00001270-00001272
label00001270: // (misaligned)
00001272  7520                     moveq.l    D2, 0x20
00001274  7374                     moveq.l    D1, 0x74
00001276  7269                     moveq.l    D1, 0x69
00001278  6E67                     bgt        +0x69 /* 000012E1 */
0000127A  7300                     moveq.l    D1, 0x00
fn0000127C:
0000127C  4E56 FF00                link       A6, -0x0100
00001280  2F0C                     move.l     -[A7], A4
label00001282:
00001282  49EE FF00                lea.l      A4, [A6 - 0x100]
00001286  7004                     moveq.l    D0, 0x04
label00001288:
00001288  3F00                     move.w     -[A7], D0
0000128A  487A 00F8                pea.l      [PC + 0xF8 /* 00001384, value 0x16534943, pstring "SICN edit menu strings" */]
0000128E  2F0C                     move.l     -[A7], A4
00001290  4EBA EDDC                jsr        [PC - 0x1224 /* 0000006E */]
00001294  598F                     subq.l     A7, 4
00001296  7003                     moveq.l    D0, 0x03
00001298  3F00                     move.w     -[A7], D0
label0000129A:
0000129A  A949                     syscall    GetMenuHandle
0000129C  7003                     moveq.l    D0, 0x03
0000129E  3F00                     move.w     -[A7], D0
label000012A0:
000012A0  2F0C                     move.l     -[A7], A4
000012A2  A947                     syscall    SetMenuItemText/SetItem
000012A4  7001                     moveq.l    D0, 0x01
000012A6  3F00                     move.w     -[A7], D0
000012A8  487A 00C2                pea.l      [PC + 0xC2 /* 0000136C, value 0x16534943, pstring "SICN edit menu strings" */]
000012AC  2F0C                     move.l     -[A7], A4
000012AE  4EBA EDBE                jsr        [PC - 0x1242 /* 0000006E */]
label000012B2:
000012B2  598F                     subq.l     A7, 4
000012B4  7003                     moveq.l    D0, 0x03
000012B6  3F00                     move.w     -[A7], D0
label000012B8:
000012B8  A949                     syscall    GetMenuHandle
000012BA  7004                     moveq.l    D0, 0x04
000012BC  3F00                     move.w     -[A7], D0
000012BE  2F0C                     move.l     -[A7], A4
000012C0  A947                     syscall    SetMenuItemText/SetItem
000012C2  7007                     moveq.l    D0, 0x07
000012C4  3F00                     move.w     -[A7], D0
000012C6  487A 008C                pea.l      [PC + 0x8C /* 00001354, value 0x16534943, pstring "SICN edit menu strings" */]
label000012CA:
000012CA  2F0C                     move.l     -[A7], A4
000012CC  4EBA EDA0                jsr        [PC - 0x1260 /* 0000006E */]
label000012D0:
000012D0  598F                     subq.l     A7, 4
000012D2  7003                     moveq.l    D0, 0x03
000012D4  3F00                     move.w     -[A7], D0
000012D6  A949                     syscall    GetMenuHandle
000012D8  7005                     moveq.l    D0, 0x05
000012DA  3F00                     move.w     -[A7], D0
000012DC  2F0C                     move.l     -[A7], A4
000012DE  A947                     syscall    SetMenuItemText/SetItem
label000012E0:
000012E0  700B                     moveq.l    D0, 0x0B
label000012E2:
000012E2  3F00                     move.w     -[A7], D0
000012E4  487A 0056                pea.l      [PC + 0x56 /* 0000133C, value 0x16534943, pstring "SICN edit menu strings" */]
000012E8  2F0C                     move.l     -[A7], A4
000012EA  4EBA ED82                jsr        [PC - 0x127E /* 0000006E */]
000012EE  598F                     subq.l     A7, 4
000012F0  7003                     moveq.l    D0, 0x03
000012F2  3F00                     move.w     -[A7], D0
000012F4  A949                     syscall    GetMenuHandle
000012F6  7006                     moveq.l    D0, 0x06
000012F8  3F00                     move.w     -[A7], D0
000012FA  2F0C                     move.l     -[A7], A4
000012FC  A947                     syscall    SetMenuItemText/SetItem
000012FE  700E                     moveq.l    D0, 0x0E
00001300  3F00                     move.w     -[A7], D0
00001302  487A 0020                pea.l      [PC + 0x20 /* 00001324, value 0x16534943, pstring "SICN edit menu strings" */]
00001306  2F0C                     move.l     -[A7], A4
00001308  4EBA ED64                jsr        [PC - 0x129C /* 0000006E */]
0000130C  598F                     subq.l     A7, 4
0000130E  7003                     moveq.l    D0, 0x03
00001310  3F00                     move.w     -[A7], D0
00001312  A949                     syscall    GetMenuHandle
00001314  7008                     moveq.l    D0, 0x08
00001316  3F00                     move.w     -[A7], D0
00001318  2F0C                     move.l     -[A7], A4
0000131A  A947                     syscall    SetMenuItemText/SetItem
0000131C  286E FEFC                movea.l    A4, [A6 - 0x104]
00001320  4E5E                     unlink     A6
00001322  4E75                     rts
00001324  1653                     movea.b    A3, [A3]
00001326  4943                     chk.w      D4, D3
00001328  4E20                     .invalid   // invalid opcode 4
0000132A  6564                     bcs        +0x66 /* 00001390 */
0000132C  6974                     bvs        +0x76 /* 000013A2 */
0000132E  206D 656E                movea.l    A0, [A5 + 0x656E]
00001332  7520                     moveq.l    D2, 0x20
00001334  7374                     moveq.l    D1, 0x74
00001336  7269                     moveq.l    D1, 0x69
00001338  6E67                     bgt        +0x69 /* 000013A1 */
0000133A  7300                     moveq.l    D1, 0x00
0000133C  1653                     movea.b    A3, [A3]
0000133E  4943                     chk.w      D4, D3
00001340  4E20                     .invalid   // invalid opcode 4
00001342  6564                     bcs        +0x66 /* 000013A8 */
00001344  6974                     bvs        +0x76 /* 000013BA */
00001346  206D 656E                movea.l    A0, [A5 + 0x656E]
0000134A  7520                     moveq.l    D2, 0x20
0000134C  7374                     moveq.l    D1, 0x74
0000134E  7269                     moveq.l    D1, 0x69
00001350  6E67                     bgt        +0x69 /* 000013B9 */
00001352  7300                     moveq.l    D1, 0x00
00001354  1653                     movea.b    A3, [A3]
00001356  4943                     chk.w      D4, D3
00001358  4E20                     .invalid   // invalid opcode 4
0000135A  6564                     bcs        +0x66 /* 000013C0 */
0000135C  6974                     bvs        +0x76 /* 000013D2 */
0000135E  206D 656E                movea.l    A0, [A5 + 0x656E]
00001362  7520                     moveq.l    D2, 0x20
00001364  7374                     moveq.l    D1, 0x74
00001366  7269                     moveq.l    D1, 0x69
00001368  6E67                     bgt        +0x69 /* 000013D1 */
0000136A  7300                     moveq.l    D1, 0x00
0000136C  1653                     movea.b    A3, [A3]
0000136E  4943                     chk.w      D4, D3
00001370  4E20                     .invalid   // invalid opcode 4
00001372  6564                     bcs        +0x66 /* 000013D8 */
00001374  6974                     bvs        +0x76 /* 000013EA */
00001376  206D 656E                movea.l    A0, [A5 + 0x656E]
0000137A  7520                     moveq.l    D2, 0x20
0000137C  7374                     moveq.l    D1, 0x74
0000137E  7269                     moveq.l    D1, 0x69
00001380  6E67                     bgt        +0x69 /* 000013E9 */
00001382  7300                     moveq.l    D1, 0x00
00001384  1653                     movea.b    A3, [A3]
00001386  4943                     chk.w      D4, D3
00001388  4E20                     .invalid   // invalid opcode 4
0000138A  6564                     bcs        +0x66 /* 000013F0 */
0000138C  6974                     bvs        +0x76 /* 00001402 */
0000138E  206D 656E                movea.l    A0, [A5 + 0x656E]
// begin alternate branch 00001390-00001392
label00001390:
00001390  656E                     bcs        +0x70 /* 00001400 */
// end alternate branch 00001390-00001392
label00001390: // (misaligned)
00001392  7520                     moveq.l    D2, 0x20
00001394  7374                     moveq.l    D1, 0x74
00001396  7269                     moveq.l    D1, 0x69
00001398  6E67                     bgt        +0x69 /* 00001401 */
0000139A  7300                     moveq.l    D1, 0x00
fn0000139C:
0000139C  4E56 0000                link       A6, 0
000013A0  48E7 0018                movem.l    -[A7], A3,A4
// begin alternate branch 000013A2-000013AC
label000013A2:
000013A2  0018 286E                ori.b      [A0]+, 0x6E /* 'n' */
000013A6  000C 266C                ori.b      A4, 0x6C /* 'l' */
label000013A8: // (misaligned)
000013AA  0126                     btst       -[A6], D0
// end alternate branch 000013A2-000013AC
label000013A2: // (misaligned)
000013A4  286E 000C                movea.l    A4, [A6 + 0xC]
label000013A8:
000013A8  266C 0126                movea.l    A3, [A4 + 0x126]
000013AC  2053                     movea.l    A0, [A3]
000013AE  4A28 0062                tst.b      [A0 + 0x62]
000013B2  670E                     beq        +0x10 /* 000013C2 */
000013B4  2F0C                     move.l     -[A7], A4
000013B6  4EBA FBDC                jsr        [PC - 0x424 /* 00000F94 */]
label000013BA:
000013BA  2F0C                     move.l     -[A7], A4
000013BC  4EBA FC9C                jsr        [PC - 0x364 /* 0000105A */]
label000013C0:
000013C0  504F                     addq.w     A7, 8
label000013C2:
000013C2  4CEE 1800 FFF8           movem.l    A3,A4, [A6 - 0x8]
000013C8  4E5E                     unlink     A6
000013CA  4E75                     rts
000013CC  4E56 0000                link       A6, 0
000013D0  4E5E                     unlink     A6
label000013D2:
000013D2  205F                     movea.l    A0, [A7]+
000013D4  504F                     addq.w     A7, 8
000013D6  4ED0                     jmp        [A0]
label000013D8:
000013D8  4E56 0000                link       A6, 0
000013DC  4E5E                     unlink     A6
000013DE  205F                     movea.l    A0, [A7]+
000013E0  504F                     addq.w     A7, 8
000013E2  4ED0                     jmp        [A0]
000013E4  4E56 FFFE                link       A6, -0x0002
000013E8  48E7 0108                movem.l    -[A7], D7,A4
// begin alternate branch 000013EA-000013EC
label000013EA:
000013EA  0108                     btst       A0, D0
// end alternate branch 000013EA-000013EC
label000013EA: // (misaligned)
000013EC  206E 0008                movea.l    A0, [A6 + 0x8]
label000013F0:
000013F0  2850                     movea.l    A4, [A0]
000013F2  3D7C 0072 FFFE           move.w     [A6 - 0x2], 0x72 /* 'r' */
000013F8  486E FFFE                pea.l      [A6 - 0x2]
000013FC  2F0C                     move.l     -[A7], A4
000013FE  4EBA F22C                jsr        [PC - 0xDD4 /* 0000062C */]
// begin alternate branch 00001400-00001404
label00001400:
00001400  F22C 1E00                .fmovecr   0xF22C, 0x1E00 // unimplemented
// end alternate branch 00001400-00001404
label00001400: // (misaligned)
label00001402:
00001402  1E00                     move.b     D7, D0
00001404  504F                     addq.w     A7, 8
00001406  6726                     beq        +0x28 /* 0000142E */
00001408  4AAC 0146                tst.l      [A4 + 0x146]
0000140C  6706                     beq        +0x8 /* 00001414 */
0000140E  206C 0146                movea.l    A0, [A4 + 0x146]
00001412  A023                     syscall    DisposHandle/DisposeHandle
label00001414:
00001414  296E 000C 0146           move.l     [A4 + 0x146], [A6 + 0xC]
0000141A  396E FFFE 014A           move.w     [A4 + 0x14A], [A6 - 0x2]
00001420  2F0C                     move.l     -[A7], A4
00001422  4EBA 07B2                jsr        [PC + 0x7B2 /* 00001BD6 */]
00001426  197C 0001 014C           move.b     [A4 + 0x14C], 0x1
0000142C  584F                     addq.w     A7, 4
label0000142E:
0000142E  1D47 0010                move.b     [A6 + 0x10], D7
00001432  4CEE 1080 FFF6           movem.l    D7,A4, [A6 - 0xA]
00001438  4E5E                     unlink     A6
0000143A  205F                     movea.l    A0, [A7]+
0000143C  504F                     addq.w     A7, 8
0000143E  4ED0                     jmp        [A0]
fn00001440:
00001440  4E56 FFD6                link       A6, -0x002A
00001444  48E7 0018                movem.l    -[A7], A3,A4
00001448  286E 0008                movea.l    A4, [A6 + 0x8]
0000144C  598F                     subq.l     A7, 4
0000144E  4EBA ECAE                jsr        [PC - 0x1352 /* 000000FE */]
00001452  2D5F FFD6                move.l     [A6 - 0x2A], [A7]+
00001456  206C 0126                movea.l    A0, [A4 + 0x126]
0000145A  2050                     movea.l    A0, [A0]
0000145C  2068 0004                movea.l    A0, [A0 + 0x4]
00001460  2D48 FFFC                move.l     [A6 - 0x4], A0
00001464  2050                     movea.l    A0, [A0]
00001466  2668 0002                movea.l    A3, [A0 + 0x2]
0000146A  486E FFDA                pea.l      [A6 - 0x26]
0000146E  A898                     syscall    GetPenState
00001470  4A2C 0134                tst.b      [A4 + 0x134]
00001474  671C                     beq        +0x1E /* 00001492 */
00001476  41EE FFEC                lea.l      A0, [A6 - 0x14]
0000147A  43EC 013E                lea.l      A1, [A4 + 0x13E]
0000147E  20D9                     move.l     [A0]+, [A1]+
00001480  20D9                     move.l     [A0]+, [A1]+
00001482  2053                     movea.l    A0, [A3]
00001484  43EE FFF4                lea.l      A1, [A6 - 0xC]
00001488  41E8 0054                lea.l      A0, [A0 + 0x54]
0000148C  22D8                     move.l     [A1]+, [A0]+
0000148E  22D8                     move.l     [A1]+, [A0]+
00001490  601A                     bra        +0x1C /* 000014AC */
label00001492:
00001492  2053                     movea.l    A0, [A3]
00001494  43EE FFEC                lea.l      A1, [A6 - 0x14]
00001498  41E8 0054                lea.l      A0, [A0 + 0x54]
0000149C  22D8                     move.l     [A1]+, [A0]+
0000149E  22D8                     move.l     [A1]+, [A0]+
000014A0  41EE FFF4                lea.l      A0, [A6 - 0xC]
000014A4  43EC 013E                lea.l      A1, [A4 + 0x13E]
000014A8  20D9                     move.l     [A0]+, [A1]+
000014AA  20D9                     move.l     [A0]+, [A1]+
label000014AC:
000014AC  7002                     moveq.l    D0, 0x02
000014AE  3F00                     move.w     -[A7], D0
000014B0  3F00                     move.w     -[A7], D0
000014B2  A89B                     syscall    PenSize
000014B4  486E FFEC                pea.l      [A6 - 0x14]
000014B8  70FD                     moveq.l    D0, 0xFFFFFFFD
000014BA  3F00                     move.w     -[A7], D0
000014BC  3F00                     move.w     -[A7], D0
000014BE  A8A9                     syscall    InsetRect
000014C0  486E FFEC                pea.l      [A6 - 0x14]
000014C4  A8A1                     syscall    FrameRect
000014C6  206E FFD6                movea.l    A0, [A6 - 0x2A]
000014CA  4868 0076                pea.l      [A0 + 0x76]
000014CE  A89D                     syscall    PenPat
000014D0  486E FFF4                pea.l      [A6 - 0xC]
000014D4  70FD                     moveq.l    D0, 0xFFFFFFFD
000014D6  3F00                     move.w     -[A7], D0
000014D8  3F00                     move.w     -[A7], D0
000014DA  A8A9                     syscall    InsetRect
000014DC  486E FFF4                pea.l      [A6 - 0xC]
000014E0  A8A1                     syscall    FrameRect
000014E2  486E FFDA                pea.l      [A6 - 0x26]
000014E6  A899                     syscall    SetPenState
000014E8  4CEE 1800 FFCE           movem.l    A3,A4, [A6 - 0x32]
000014EE  4E5E                     unlink     A6
000014F0  4E75                     rts
label000014F2:
000014F2  4E56 FFF2                link       A6, -0x000E
000014F6  48E7 1718                movem.l    -[A7], D3,D5,D6,D7,A3,A4
000014FA  266E 000C                movea.l    A3, [A6 + 0xC]
000014FE  4205                     clr.b      D5
00001500  4206                     clr.b      D6
00001502  2F2E 0008                move.l     -[A7], [A6 + 0x8]
00001506  4EBA EB46                jsr        [PC - 0x14BA /* 0000004E */]
0000150A  206E 0008                movea.l    A0, [A6 + 0x8]
0000150E  A029                     syscall    HLock
00001510  206E 0008                movea.l    A0, [A6 + 0x8]
00001514  2850                     movea.l    A4, [A0]
00001516  2D6C 0126 FFFA           move.l     [A6 - 0x6], [A4 + 0x126]
0000151C  2D6B 000A FFF6           move.l     [A6 - 0xA], [A3 + 0xA]
00001522  2F2C 0104                move.l     -[A7], [A4 + 0x104]
00001526  A873                     syscall    SetPort
00001528  486E FFF6                pea.l      [A6 - 0xA]
0000152C  A871                     syscall    GlobalToLocal
0000152E  7001                     moveq.l    D0, 0x01
00001530  B053                     cmp.w      D0, [A3]
00001532  665C                     bne        +0x5E /* 00001590 */
00001534  558F                     subq.l     A7, 2
00001536  2F2E FFF6                move.l     -[A7], [A6 - 0xA]
0000153A  486C 013E                pea.l      [A4 + 0x13E]
0000153E  A8AD                     syscall    PtInRect
00001540  1E1F                     move.b     D7, [A7]+
00001542  BE2C 0134                cmp.b      D7, [A4 + 0x134]
00001546  6748                     beq        +0x4A /* 00001590 */
00001548  4A07                     tst.b      D7
0000154A  6618                     bne        +0x1A /* 00001564 */
0000154C  558F                     subq.l     A7, 2
0000154E  486E FFF2                pea.l      [A6 - 0xE]
00001552  2F2C 013A                move.l     -[A7], [A4 + 0x13A]
00001556  4EBA ECB6                jsr        [PC - 0x134A /* 0000020E */]
0000155A  7000                     moveq.l    D0, 0x00
0000155C  101F                     move.b     D0, [A7]+
0000155E  0C40 0001                cmpi.w     D0, 0x1
00001562  662C                     bne        +0x2E /* 00001590 */
label00001564:
00001564  206C 0104                movea.l    A0, [A4 + 0x104]
00001568  4868 0010                pea.l      [A0 + 0x10]
0000156C  A928                     syscall    InvalRect
0000156E  1947 0134                move.b     [A4 + 0x134], D7
00001572  2F0C                     move.l     -[A7], A4
00001574  4EBA F6B2                jsr        [PC - 0x94E /* 00000C28 */]
00001578  4A2C 0134                tst.b      [A4 + 0x134]
0000157C  584F                     addq.w     A7, 4
0000157E  6610                     bne        +0x12 /* 00001590 */
00001580  2F0C                     move.l     -[A7], A4
00001582  4EBA FCF8                jsr        [PC - 0x308 /* 0000127C */]
00001586  4A07                     tst.b      D7
00001588  57C3                     seq        D3
0000158A  4403                     neg.b      D3
0000158C  1C03                     move.b     D6, D3
0000158E  584F                     addq.w     A7, 4
label00001590:
00001590  558F                     subq.l     A7, 2
00001592  2F0B                     move.l     -[A7], A3
00001594  487A FE4E                pea.l      [PC - 0x1B2 /* 000013E4, value 0x4E56FFFE */]
00001598  2F2C 013A                move.l     -[A7], [A4 + 0x13A]
0000159C  486E FFFF                pea.l      [A6 - 0x1]
000015A0  486C 011E                pea.l      [A4 + 0x11E]
000015A4  4EBA EC64                jsr        [PC - 0x139C /* 0000020A */]
000015A8  1E1F                     move.b     D7, [A7]+
000015AA  6714                     beq        +0x16 /* 000015C0 */
000015AC  2F0C                     move.l     -[A7], A4
000015AE  4EBA ED5C                jsr        [PC - 0x12A4 /* 0000030C */]
000015B2  2F0C                     move.l     -[A7], A4
000015B4  4EBA ECAC                jsr        [PC - 0x1354 /* 00000262 */]
000015B8  4A00                     tst.b      D0
000015BA  504F                     addq.w     A7, 8
000015BC  6600 00EE                bne        +0xF0 /* 000016AC */
label000015C0:
000015C0  4A2E FFFF                tst.b      [A6 - 0x1]
000015C4  670C                     beq        +0xE /* 000015D2 */
000015C6  206C 0126                movea.l    A0, [A4 + 0x126]
000015CA  2050                     movea.l    A0, [A0]
000015CC  316C 014A 0072           move.w     [A0 + 0x72], [A4 + 0x14A]
label000015D2:
000015D2  4A07                     tst.b      D7
000015D4  6622                     bne        +0x24 /* 000015F8 */
000015D6  4A2E FFFF                tst.b      [A6 - 0x1]
000015DA  661C                     bne        +0x1E /* 000015F8 */
000015DC  4A06                     tst.b      D6
000015DE  6618                     bne        +0x1A /* 000015F8 */
000015E0  558F                     subq.l     A7, 2
000015E2  2F0B                     move.l     -[A7], A3
000015E4  487A FDE6                pea.l      [PC - 0x21A /* 000013CC, value 0x4E560000 'NV\0\0', cstring "NV" */]
000015E8  487A FDEE                pea.l      [PC - 0x212 /* 000013D8, value 0x4E560000 'NV\0\0', cstring "NV" */]
000015EC  2F2E FFFA                move.l     -[A7], [A6 - 0x6]
000015F0  4EBA EC4C                jsr        [PC - 0x13B4 /* 0000023E */]
000015F4  395F 011E                move.w     [A4 + 0x11E], [A7]+
label000015F8:
000015F8  3013                     move.w     D0, [A3]
000015FA  5740                     subq.w     D0, 3
000015FC  6762                     beq        +0x64 /* 00001660 */
000015FE  5740                     subq.w     D0, 3
00001600  674A                     beq        +0x4C /* 0000164C */
00001602  5540                     subq.w     D0, 2
00001604  667C                     bne        +0x7E /* 00001682 */
00001606  3F3C 0080                move.w     -[A7], 0x80
0000160A  2F3C FFFF FF41           move.l     -[A7], 0xFFFFFF41
00001610  4EBA EAAC                jsr        [PC - 0x1554 /* 000000BE */]
00001614  206E FFFA                movea.l    A0, [A6 - 0x6]
00001618  2050                     movea.l    A0, [A0]
0000161A  4A28 0062                tst.b      [A0 + 0x62]
0000161E  6622                     bne        +0x24 /* 00001642 */
00001620  2F0C                     move.l     -[A7], A4
00001622  4EBA EEE8                jsr        [PC - 0x1118 /* 0000050C */]
00001626  4A00                     tst.b      D0
00001628  584F                     addq.w     A7, 4
0000162A  660C                     bne        +0xE /* 00001638 */
0000162C  7000                     moveq.l    D0, 0x00
0000162E  2F00                     move.l     -[A7], D0
00001630  2F0C                     move.l     -[A7], A4
00001632  4EBA EC6C                jsr        [PC - 0x1394 /* 000002A0 */]
00001636  504F                     addq.w     A7, 8
label00001638:
00001638  70FF                     moveq.l    D0, 0xFFFFFFFF
0000163A  3F00                     move.w     -[A7], D0
0000163C  4EBA EB14                jsr        [PC - 0x14EC /* 00000152 */]
00001640  7A01                     moveq.l    D5, 0x01
label00001642:
00001642  7000                     moveq.l    D0, 0x00
00001644  1F00                     move.b     -[A7], D0
00001646  4EBA EA5E                jsr        [PC - 0x15A2 /* 000000A6 */]
0000164A  6036                     bra        +0x38 /* 00001682 */
label0000164C:
0000164C  202B 0002                move.l     D0, [A3 + 0x2]
00001650  B0AC 0104                cmp.l      D0, [A4 + 0x104]
00001654  662C                     bne        +0x2E /* 00001682 */
00001656  2F0C                     move.l     -[A7], A4
00001658  4EBA FDE6                jsr        [PC - 0x21A /* 00001440 */]
0000165C  584F                     addq.w     A7, 4
0000165E  6022                     bra        +0x24 /* 00001682 */
label00001660:
00001660  4A2C 0134                tst.b      [A4 + 0x134]
00001664  671C                     beq        +0x1E /* 00001682 */
00001666  203C 0000 00FF           move.l     D0, 0xFF
0000166C  C0AB 0002                and.l      D0, [A3 + 0x2]
00001670  7208                     moveq.l    D1, 0x08
00001672  B280                     cmp.l      D1, D0
00001674  660C                     bne        +0xE /* 00001682 */
00001676  2F0C                     move.l     -[A7], A4
00001678  7006                     moveq.l    D0, 0x06
0000167A  2F00                     move.l     -[A7], D0
0000167C  4EBA 00EE                jsr        [PC + 0xEE /* 0000176C */]
00001680  504F                     addq.w     A7, 8
label00001682:
00001682  2F0C                     move.l     -[A7], A4
00001684  4EBA F418                jsr        [PC - 0xBE8 /* 00000A9E */]
00001688  2F0C                     move.l     -[A7], A4
0000168A  4EBA EBD6                jsr        [PC - 0x142A /* 00000262 */]
0000168E  4A00                     tst.b      D0
00001690  504F                     addq.w     A7, 8
00001692  6618                     bne        +0x1A /* 000016AC */
00001694  4A53                     tst.w      [A3]
00001696  670E                     beq        +0x10 /* 000016A6 */
00001698  2F0C                     move.l     -[A7], A4
0000169A  7000                     moveq.l    D0, 0x00
0000169C  1005                     move.b     D0, D5
0000169E  2F00                     move.l     -[A7], D0
000016A0  4EBA FCFA                jsr        [PC - 0x306 /* 0000139C */]
000016A4  504F                     addq.w     A7, 8
label000016A6:
000016A6  206E 0008                movea.l    A0, [A6 + 0x8]
000016AA  A02A                     syscall    HUnlock
label000016AC:
000016AC  4CEE 18E8 FFDA           movem.l    D3,D5,D6,D7,A3,A4, [A6 - 0x26]
000016B2  4E5E                     unlink     A6
000016B4  205F                     movea.l    A0, [A7]+
000016B6  504F                     addq.w     A7, 8
000016B8  4ED0                     jmp        [A0]
fn000016BA:
000016BA  4E56 0000                link       A6, 0
000016BE  2F0C                     move.l     -[A7], A4
000016C0  286E 000C                movea.l    A4, [A6 + 0xC]
000016C4  302E 000A                move.w     D0, [A6 + 0xA]
000016C8  5940                     subq.w     D0, 4
000016CA  670E                     beq        +0x10 /* 000016DA */
000016CC  5340                     subq.w     D0, 1
000016CE  6758                     beq        +0x5A /* 00001728 */
000016D0  5140                     subq.w     D0, 8
000016D2  6700 0088                beq        +0x8A /* 0000175C */
000016D6  6000 008C                bra        +0x8E /* 00001764 */
label000016DA:
000016DA  7002                     moveq.l    D0, 0x02
000016DC  3F00                     move.w     -[A7], D0
000016DE  7204                     moveq.l    D1, 0x04
000016E0  3F01                     move.w     -[A7], D1
000016E2  2F2C 0118                move.l     -[A7], [A4 + 0x118]
000016E6  4EBA EA0E                jsr        [PC - 0x15F2 /* 000000F6 */]
000016EA  558F                     subq.l     A7, 2
000016EC  4EBA EA54                jsr        [PC - 0x15AC /* 00000142 */]
000016F0  4A1F                     tst.b      [A7]+
000016F2  6670                     bne        +0x72 /* 00001764 */
000016F4  558F                     subq.l     A7, 2
000016F6  4EBA EA56                jsr        [PC - 0x15AA /* 0000014E */]
000016FA  4A1F                     tst.b      [A7]+
000016FC  6708                     beq        +0xA /* 00001706 */
000016FE  397C FFFF 011E           move.w     [A4 + 0x11E], 0xFFFF
00001704  605E                     bra        +0x60 /* 00001764 */
label00001706:
00001706  2F0C                     move.l     -[A7], A4
00001708  4EBA EE02                jsr        [PC - 0x11FE /* 0000050C */]
0000170C  4A00                     tst.b      D0
0000170E  584F                     addq.w     A7, 4
00001710  6708                     beq        +0xA /* 0000171A */
00001712  397C FFFF 011E           move.w     [A4 + 0x11E], 0xFFFF
00001718  604A                     bra        +0x4C /* 00001764 */
label0000171A:
0000171A  7001                     moveq.l    D0, 0x01
0000171C  2F00                     move.l     -[A7], D0
0000171E  2F0C                     move.l     -[A7], A4
00001720  4EBA EB7E                jsr        [PC - 0x1482 /* 000002A0 */]
00001724  504F                     addq.w     A7, 8
00001726  603C                     bra        +0x3E /* 00001764 */
label00001728:
00001728  7002                     moveq.l    D0, 0x02
0000172A  3F00                     move.w     -[A7], D0
0000172C  7205                     moveq.l    D1, 0x05
0000172E  3F01                     move.w     -[A7], D1
00001730  2F2C 0118                move.l     -[A7], [A4 + 0x118]
00001734  4EBA E9C0                jsr        [PC - 0x1640 /* 000000F6 */]
00001738  558F                     subq.l     A7, 2
0000173A  4EBA EA06                jsr        [PC - 0x15FA /* 00000142 */]
0000173E  4A1F                     tst.b      [A7]+
00001740  6622                     bne        +0x24 /* 00001764 */
00001742  2F0C                     move.l     -[A7], A4
00001744  4EBA EDC6                jsr        [PC - 0x123A /* 0000050C */]
00001748  4A00                     tst.b      D0
0000174A  584F                     addq.w     A7, 4
0000174C  6616                     bne        +0x18 /* 00001764 */
0000174E  7001                     moveq.l    D0, 0x01
00001750  2F00                     move.l     -[A7], D0
00001752  2F0C                     move.l     -[A7], A4
00001754  4EBA EB4A                jsr        [PC - 0x14B6 /* 000002A0 */]
00001758  504F                     addq.w     A7, 8
0000175A  6008                     bra        +0xA /* 00001764 */
label0000175C:
0000175C  7000                     moveq.l    D0, 0x00
0000175E  2F00                     move.l     -[A7], D0
00001760  4EBA EA0C                jsr        [PC - 0x15F4 /* 0000016E */]
label00001764:
00001764  286E FFFC                movea.l    A4, [A6 - 0x4]
00001768  4E5E                     unlink     A6
0000176A  4E75                     rts
fn0000176C:
0000176C  4E56 FFFE                link       A6, -0x0002
00001770  2F0C                     move.l     -[A7], A4
00001772  286E 000C                movea.l    A4, [A6 + 0xC]
00001776  3D7C 0001 FFFE           move.w     [A6 - 0x2], 0x1
0000177C  302E 000A                move.w     D0, [A6 + 0xA]
00001780  5740                     subq.w     D0, 3
00001782  6B00 0140                bmi        +0x142 /* 000018C4 */
00001786  0C40 0006                cmpi.w     D0, 0x6
0000178A  6E00 0138                bgt        +0x13A /* 000018C4 */
0000178E  D040                     add.w      D0, D0
00001790  303B 0006                move.w     D0, [PC + D0.w + 0x6]
00001794  4EFB 0000                jmp        [PC + D0.w]
00001798  0010 0050                ori.b      [A0], 0x50 /* 'P' */
0000179C  005C 0094                ori.w      [A4]+, 0x94
000017A0  012E 00C8                btst       [A6 + 0xC8], D0
000017A4  00FC                     .incomplete
000017A6  3D7C 0068 FFFE           move.w     [A6 - 0x2], 0x68 /* 'h' */
000017AC  486E FFFE                pea.l      [A6 - 0x2]
000017B0  2F0C                     move.l     -[A7], A4
000017B2  4EBA EE78                jsr        [PC - 0x1188 /* 0000062C */]
000017B6  4A00                     tst.b      D0
000017B8  504F                     addq.w     A7, 8
000017BA  6700 00FC                beq        +0xFE /* 000018B8 */
000017BE  2F0C                     move.l     -[A7], A4
000017C0  4EBA F11C                jsr        [PC - 0xEE4 /* 000008DE */]
000017C4  2F2C 013A                move.l     -[A7], [A4 + 0x13A]
000017C8  4EBA EA48                jsr        [PC - 0x15B8 /* 00000212 */]
000017CC  2F0C                     move.l     -[A7], A4
000017CE  4EBA EB3C                jsr        [PC - 0x14C4 /* 0000030C */]
000017D2  2F0C                     move.l     -[A7], A4
000017D4  4EBA 0400                jsr        [PC + 0x400 /* 00001BD6 */]
000017D8  197C 0001 014C           move.b     [A4 + 0x14C], 0x1
000017DE  4FEF 000C                lea.l      A7, [A7 + 0xC]
000017E2  6000 00D4                bra        +0xD6 /* 000018B8 */
000017E6  2F0C                     move.l     -[A7], A4
000017E8  4EBA F0F4                jsr        [PC - 0xF0C /* 000008DE */]
000017EC  584F                     addq.w     A7, 4
000017EE  6000 00C8                bra        +0xCA /* 000018B8 */
000017F2  3D7C 006A FFFE           move.w     [A6 - 0x2], 0x6A /* 'j' */
000017F8  486E FFFE                pea.l      [A6 - 0x2]
000017FC  2F0C                     move.l     -[A7], A4
000017FE  4EBA EE2C                jsr        [PC - 0x11D4 /* 0000062C */]
00001802  4A00                     tst.b      D0
00001804  504F                     addq.w     A7, 8
00001806  6700 00B0                beq        +0xB2 /* 000018B8 */
0000180A  2F0C                     move.l     -[A7], A4
0000180C  4EBA F1FE                jsr        [PC - 0xE02 /* 00000A0C */]
00001810  2F0C                     move.l     -[A7], A4
00001812  4EBA EAF8                jsr        [PC - 0x1508 /* 0000030C */]
00001816  2F0C                     move.l     -[A7], A4
00001818  4EBA 03BC                jsr        [PC + 0x3BC /* 00001BD6 */]
0000181C  197C 0001 014C           move.b     [A4 + 0x14C], 0x1
00001822  4FEF 000C                lea.l      A7, [A7 + 0xC]
00001826  6000 0090                bra        +0x92 /* 000018B8 */
0000182A  3D7C 006C FFFE           move.w     [A6 - 0x2], 0x6C /* 'l' */
00001830  486E FFFE                pea.l      [A6 - 0x2]
00001834  2F0C                     move.l     -[A7], A4
00001836  4EBA EDF4                jsr        [PC - 0x120C /* 0000062C */]
0000183A  4A00                     tst.b      D0
0000183C  504F                     addq.w     A7, 8
0000183E  6778                     beq        +0x7A /* 000018B8 */
00001840  2F2C 013A                move.l     -[A7], [A4 + 0x13A]
00001844  4EBA E9CC                jsr        [PC - 0x1634 /* 00000212 */]
00001848  2F0C                     move.l     -[A7], A4
0000184A  4EBA EAC0                jsr        [PC - 0x1540 /* 0000030C */]
0000184E  2F0C                     move.l     -[A7], A4
00001850  4EBA 0384                jsr        [PC + 0x384 /* 00001BD6 */]
00001854  197C 0001 014C           move.b     [A4 + 0x14C], 0x1
0000185A  504F                     addq.w     A7, 8
0000185C  605A                     bra        +0x5C /* 000018B8 */
0000185E  3D7C 006E FFFE           move.w     [A6 - 0x2], 0x6E /* 'n' */
00001864  486E FFFE                pea.l      [A6 - 0x2]
00001868  2F0C                     move.l     -[A7], A4
0000186A  4EBA EDC0                jsr        [PC - 0x1240 /* 0000062C */]
0000186E  4A00                     tst.b      D0
00001870  504F                     addq.w     A7, 8
00001872  6744                     beq        +0x46 /* 000018B8 */
00001874  2F0C                     move.l     -[A7], A4
00001876  4EBA EF0A                jsr        [PC - 0x10F6 /* 00000782 */]
0000187A  2F0C                     move.l     -[A7], A4
0000187C  4EBA EA8E                jsr        [PC - 0x1572 /* 0000030C */]
00001880  2F0C                     move.l     -[A7], A4
00001882  4EBA 0352                jsr        [PC + 0x352 /* 00001BD6 */]
00001886  197C 0001 014C           move.b     [A4 + 0x14C], 0x1
0000188C  4FEF 000C                lea.l      A7, [A7 + 0xC]
00001890  6026                     bra        +0x28 /* 000018B8 */
00001892  3D7C 0070 FFFE           move.w     [A6 - 0x2], 0x70 /* 'p' */
00001898  486E FFFE                pea.l      [A6 - 0x2]
0000189C  2F0C                     move.l     -[A7], A4
0000189E  4EBA ED8C                jsr        [PC - 0x1274 /* 0000062C */]
000018A2  4A00                     tst.b      D0
000018A4  504F                     addq.w     A7, 8
000018A6  6710                     beq        +0x12 /* 000018B8 */
000018A8  2F2C 013A                move.l     -[A7], [A4 + 0x13A]
000018AC  4EBA E97C                jsr        [PC - 0x1684 /* 0000022A */]
000018B0  2F0C                     move.l     -[A7], A4
000018B2  4EBA EA58                jsr        [PC - 0x15A8 /* 0000030C */]
000018B6  584F                     addq.w     A7, 4
label000018B8:
000018B8  206C 0126                movea.l    A0, [A4 + 0x126]
000018BC  2050                     movea.l    A0, [A0]
000018BE  316E FFFE 0072           move.w     [A0 + 0x72], [A6 - 0x2]
label000018C4:
000018C4  286E FFFA                movea.l    A4, [A6 - 0x6]
000018C8  4E5E                     unlink     A6
000018CA  4E75                     rts
fn000018CC:
000018CC  4E56 FFFE                link       A6, -0x0002
000018D0  2F0C                     move.l     -[A7], A4
000018D2  286E 000C                movea.l    A4, [A6 + 0xC]
000018D6  302E 000A                move.w     D0, [A6 + 0xA]
000018DA  5340                     subq.w     D0, 1
000018DC  670E                     beq        +0x10 /* 000018EC */
000018DE  5B40                     subq.w     D0, 5
000018E0  6766                     beq        +0x68 /* 00001948 */
000018E2  5540                     subq.w     D0, 2
000018E4  6700 00DC                beq        +0xDE /* 000019C2 */
000018E8  6000 00E4                bra        +0xE6 /* 000019CE */
label000018EC:
000018EC  3D7C 0066 FFFE           move.w     [A6 - 0x2], 0x66 /* 'f' */
000018F2  486E FFFE                pea.l      [A6 - 0x2]
000018F6  2F0C                     move.l     -[A7], A4
000018F8  4EBA ED32                jsr        [PC - 0x12CE /* 0000062C */]
000018FC  4A00                     tst.b      D0
000018FE  504F                     addq.w     A7, 8
00001900  6700 00CC                beq        +0xCE /* 000019CE */
00001904  558F                     subq.l     A7, 2
00001906  7001                     moveq.l    D0, 0x01
00001908  3F00                     move.w     -[A7], D0
0000190A  487A EAC4                pea.l      [PC - 0x153C /* 000003D0, value 0x4E560000 'NV\0\0', cstring "NV" */]
0000190E  2F2C 013A                move.l     -[A7], [A4 + 0x13A]
00001912  486C 011E                pea.l      [A4 + 0x11E]
00001916  4EBA E8FE                jsr        [PC - 0x1702 /* 00000216 */]
0000191A  4A6C 011E                tst.w      [A4 + 0x11E]
0000191E  544F                     addq.w     A7, 2
00001920  6600 00AC                bne        +0xAE /* 000019CE */
00001924  2F0C                     move.l     -[A7], A4
00001926  4EBA E9E4                jsr        [PC - 0x161C /* 0000030C */]
0000192A  206C 0126                movea.l    A0, [A4 + 0x126]
0000192E  2050                     movea.l    A0, [A0]
00001930  316E FFFE 0072           move.w     [A0 + 0x72], [A6 - 0x2]
00001936  2F0C                     move.l     -[A7], A4
00001938  4EBA 029C                jsr        [PC + 0x29C /* 00001BD6 */]
0000193C  197C 0001 014C           move.b     [A4 + 0x14C], 0x1
00001942  504F                     addq.w     A7, 8
00001944  6000 0088                bra        +0x8A /* 000019CE */
label00001948:
00001948  558F                     subq.l     A7, 2
0000194A  2F2C 0104                move.l     -[A7], [A4 + 0x104]
0000194E  2F2C 0114                move.l     -[A7], [A4 + 0x114]
00001952  4EBA E7AE                jsr        [PC - 0x1852 /* 00000102 */]
00001956  4A1F                     tst.b      [A7]+
00001958  6774                     beq        +0x76 /* 000019CE */
0000195A  558F                     subq.l     A7, 2
0000195C  2F2C 0118                move.l     -[A7], [A4 + 0x118]
00001960  2F2C 0114                move.l     -[A7], [A4 + 0x114]
00001964  4EBA E734                jsr        [PC - 0x18CC /* 0000009A */]
00001968  4A1F                     tst.b      [A7]+
0000196A  6738                     beq        +0x3A /* 000019A4 */
0000196C  598F                     subq.l     A7, 4
0000196E  2F2C 0114                move.l     -[A7], [A4 + 0x114]
00001972  4EBA 05E8                jsr        [PC + 0x5E8 /* 00001F5C */]
00001976  201F                     move.l     D0, [A7]+
00001978  7220                     moveq.l    D1, 0x20
0000197A  4EBA 04FC                jsr        [PC + 0x4FC /* 00001E78 */]
0000197E  3940 012A                move.w     [A4 + 0x12A], D0
00001982  7000                     moveq.l    D0, 0x00
00001984  2F00                     move.l     -[A7], D0
00001986  2F00                     move.l     -[A7], D0
00001988  2F0C                     move.l     -[A7], A4
0000198A  4EBA EAF6                jsr        [PC - 0x150A /* 00000482 */]
0000198E  422C 014C                clr.b      [A4 + 0x14C]
00001992  4AAC 0146                tst.l      [A4 + 0x146]
00001996  4FEF 000C                lea.l      A7, [A7 + 0xC]
0000199A  6732                     beq        +0x34 /* 000019CE */
0000199C  206C 0146                movea.l    A0, [A4 + 0x146]
000019A0  A023                     syscall    DisposHandle/DisposeHandle
000019A2  602A                     bra        +0x2C /* 000019CE */
label000019A4:
000019A4  2054                     movea.l    A0, [A4]
000019A6  2050                     movea.l    A0, [A0]
000019A8  117C 0001 0108           move.b     [A0 + 0x108], 0x1
000019AE  3F2C 0110                move.w     -[A7], [A4 + 0x110]
000019B2  2F2C 0114                move.l     -[A7], [A4 + 0x114]
000019B6  4EBA E7DA                jsr        [PC - 0x1826 /* 00000192 */]
000019BA  397C FFFF 011E           move.w     [A4 + 0x11E], 0xFFFF
000019C0  600C                     bra        +0xE /* 000019CE */
label000019C2:
000019C2  2F2C 0114                move.l     -[A7], [A4 + 0x114]
000019C6  2F2C 0118                move.l     -[A7], [A4 + 0x118]
000019CA  4EBA E716                jsr        [PC - 0x18EA /* 000000E2 */]
label000019CE:
000019CE  286E FFFA                movea.l    A4, [A6 - 0x6]
000019D2  4E5E                     unlink     A6
000019D4  4E75                     rts
label000019D6:
000019D6  4E56 FFFC                link       A6, -0x0004
000019DA  48E7 0318                movem.l    -[A7], D6,D7,A3,A4
000019DE  266E 0008                movea.l    A3, [A6 + 0x8]
000019E2  3C2E 000E                move.w     D6, [A6 + 0xE]
000019E6  3E2E 000C                move.w     D7, [A6 + 0xC]
000019EA  2F0B                     move.l     -[A7], A3
000019EC  4EBA E660                jsr        [PC - 0x19A0 /* 0000004E */]
000019F0  204B                     movea.l    A0, A3
000019F2  A029                     syscall    HLock
000019F4  2853                     movea.l    A4, [A3]
000019F6  2F2C 0104                move.l     -[A7], [A4 + 0x104]
000019FA  A873                     syscall    SetPort
000019FC  3006                     move.w     D0, D6
000019FE  5540                     subq.w     D0, 2
00001A00  670E                     beq        +0x10 /* 00001A10 */
00001A02  5340                     subq.w     D0, 1
00001A04  672A                     beq        +0x2C /* 00001A30 */
00001A06  0440 007D                subi.w     D0, 0x7D /* '}' */
00001A0A  6714                     beq        +0x16 /* 00001A20 */
00001A0C  6000 00C0                bra        +0xC2 /* 00001ACE */
label00001A10:
00001A10  2F0C                     move.l     -[A7], A4
00001A12  48C7                     ext.l      D7
00001A14  2F07                     move.l     -[A7], D7
00001A16  4EBA FCA2                jsr        [PC - 0x35E /* 000016BA */]
00001A1A  504F                     addq.w     A7, 8
00001A1C  6000 00F0                bra        +0xF2 /* 00001B0E */
label00001A20:
00001A20  2F0C                     move.l     -[A7], A4
00001A22  48C7                     ext.l      D7
00001A24  2F07                     move.l     -[A7], D7
00001A26  4EBA FEA4                jsr        [PC - 0x15C /* 000018CC */]
00001A2A  504F                     addq.w     A7, 8
00001A2C  6000 00E0                bra        +0xE2 /* 00001B0E */
label00001A30:
00001A30  0C47 0001                cmpi.w     D7, 0x1
00001A34  6640                     bne        +0x42 /* 00001A76 */
00001A36  206C 0126                movea.l    A0, [A4 + 0x126]
00001A3A  2050                     movea.l    A0, [A0]
00001A3C  7064                     moveq.l    D0, 0x64
00001A3E  B068 0072                cmp.w      D0, [A0 + 0x72]
00001A42  6F26                     ble        +0x28 /* 00001A6A */
00001A44  558F                     subq.l     A7, 2
00001A46  3F06                     move.w     -[A7], D6
00001A48  3F07                     move.w     -[A7], D7
00001A4A  487A F980                pea.l      [PC - 0x680 /* 000013CC, value 0x4E560000 'NV\0\0', cstring "NV" */]
00001A4E  487A F988                pea.l      [PC - 0x678 /* 000013D8, value 0x4E560000 'NV\0\0', cstring "NV" */]
00001A52  2F2C 0126                move.l     -[A7], [A4 + 0x126]
00001A56  4EBA E7EA                jsr        [PC - 0x1816 /* 00000242 */]
00001A5A  395F 011E                move.w     [A4 + 0x11E], [A7]+
00001A5E  2F0C                     move.l     -[A7], A4
00001A60  4EBA F03C                jsr        [PC - 0xFC4 /* 00000A9E */]
00001A64  584F                     addq.w     A7, 4
00001A66  6000 00A6                bra        +0xA8 /* 00001B0E */
label00001A6A:
00001A6A  2F0C                     move.l     -[A7], A4
00001A6C  4EBA ECA2                jsr        [PC - 0x135E /* 00000710 */]
00001A70  584F                     addq.w     A7, 4
00001A72  6000 009A                bra        +0x9C /* 00001B0E */
label00001A76:
00001A76  4A2C 0134                tst.b      [A4 + 0x134]
00001A7A  6710                     beq        +0x12 /* 00001A8C */
00001A7C  2F0C                     move.l     -[A7], A4
00001A7E  48C7                     ext.l      D7
00001A80  2F07                     move.l     -[A7], D7
00001A82  4EBA FCE8                jsr        [PC - 0x318 /* 0000176C */]
00001A86  504F                     addq.w     A7, 8
00001A88  6000 0084                bra        +0x86 /* 00001B0E */
label00001A8C:
00001A8C  202C 012C                move.l     D0, [A4 + 0x12C]
00001A90  B0AC 0130                cmp.l      D0, [A4 + 0x130]
00001A94  6778                     beq        +0x7A /* 00001B0E */
00001A96  558F                     subq.l     A7, 2
00001A98  3F06                     move.w     -[A7], D6
00001A9A  3F07                     move.w     -[A7], D7
00001A9C  487A F92E                pea.l      [PC - 0x6D2 /* 000013CC, value 0x4E560000 'NV\0\0', cstring "NV" */]
00001AA0  487A F936                pea.l      [PC - 0x6CA /* 000013D8, value 0x4E560000 'NV\0\0', cstring "NV" */]
00001AA4  2F2C 0126                move.l     -[A7], [A4 + 0x126]
00001AA8  4EBA E798                jsr        [PC - 0x1868 /* 00000242 */]
00001AAC  395F 011E                move.w     [A4 + 0x11E], [A7]+
00001AB0  206C 0126                movea.l    A0, [A4 + 0x126]
00001AB4  2050                     movea.l    A0, [A0]
00001AB6  2068 0044                movea.l    A0, [A0 + 0x44]
00001ABA  2D48 FFFC                move.l     [A6 - 0x4], A0
00001ABE  2050                     movea.l    A0, [A0]
00001AC0  4A10                     tst.b      [A0]
00001AC2  674A                     beq        +0x4C /* 00001B0E */
00001AC4  2F0C                     move.l     -[A7], A4
00001AC6  4EBA EFD6                jsr        [PC - 0x102A /* 00000A9E */]
00001ACA  584F                     addq.w     A7, 4
00001ACC  6040                     bra        +0x42 /* 00001B0E */
label00001ACE:
00001ACE  202C 012C                move.l     D0, [A4 + 0x12C]
00001AD2  B0AC 0130                cmp.l      D0, [A4 + 0x130]
00001AD6  6736                     beq        +0x38 /* 00001B0E */
00001AD8  558F                     subq.l     A7, 2
00001ADA  3F06                     move.w     -[A7], D6
00001ADC  3F07                     move.w     -[A7], D7
00001ADE  487A F8EC                pea.l      [PC - 0x714 /* 000013CC, value 0x4E560000 'NV\0\0', cstring "NV" */]
00001AE2  487A F8F4                pea.l      [PC - 0x70C /* 000013D8, value 0x4E560000 'NV\0\0', cstring "NV" */]
00001AE6  2F2C 0126                move.l     -[A7], [A4 + 0x126]
00001AEA  4EBA E756                jsr        [PC - 0x18AA /* 00000242 */]
00001AEE  395F 011E                move.w     [A4 + 0x11E], [A7]+
00001AF2  206C 0126                movea.l    A0, [A4 + 0x126]
00001AF6  2050                     movea.l    A0, [A0]
00001AF8  2068 0044                movea.l    A0, [A0 + 0x44]
00001AFC  2D48 FFFC                move.l     [A6 - 0x4], A0
00001B00  2050                     movea.l    A0, [A0]
00001B02  4A10                     tst.b      [A0]
00001B04  6708                     beq        +0xA /* 00001B0E */
00001B06  2F0C                     move.l     -[A7], A4
00001B08  4EBA EF94                jsr        [PC - 0x106C /* 00000A9E */]
00001B0C  584F                     addq.w     A7, 4
label00001B0E:
00001B0E  2F0C                     move.l     -[A7], A4
00001B10  4EBA E750                jsr        [PC - 0x18B0 /* 00000262 */]
00001B14  4A00                     tst.b      D0
00001B16  584F                     addq.w     A7, 4
00001B18  6610                     bne        +0x12 /* 00001B2A */
00001B1A  2F0C                     move.l     -[A7], A4
00001B1C  7000                     moveq.l    D0, 0x00
00001B1E  2F00                     move.l     -[A7], D0
00001B20  4EBA F87A                jsr        [PC - 0x786 /* 0000139C */]
00001B24  204B                     movea.l    A0, A3
00001B26  A02A                     syscall    HUnlock
00001B28  504F                     addq.w     A7, 8
label00001B2A:
00001B2A  4CEE 18C0 FFEC           movem.l    D6,D7,A3,A4, [A6 - 0x14]
00001B30  4E5E                     unlink     A6
00001B32  205F                     movea.l    A0, [A7]+
00001B34  504F                     addq.w     A7, 8
00001B36  4ED0                     jmp        [A0]
label00001B38:
00001B38  4E56 FFFC                link       A6, -0x0004
00001B3C  48E7 0318                movem.l    -[A7], D6,D7,A3,A4
00001B40  3E2E 000C                move.w     D7, [A6 + 0xC]
00001B44  286E 0008                movea.l    A4, [A6 + 0x8]
00001B48  2054                     movea.l    A0, [A4]
00001B4A  2D50 FFFC                move.l     [A6 - 0x4], [A0]
00001B4E  204C                     movea.l    A0, A4
00001B50  A069                     syscall    HGetState
00001B52  1C00                     move.b     D6, D0
00001B54  204C                     movea.l    A0, A4
00001B56  A029                     syscall    HLock
00001B58  2654                     movea.l    A3, [A4]
00001B5A  3747 011C                move.w     [A3 + 0x11C], D7
00001B5E  2F2B 0114                move.l     -[A7], [A3 + 0x114]
00001B62  2F0B                     move.l     -[A7], A3
00001B64  4EBA EFE8                jsr        [PC - 0x1018 /* 00000B4E */]
00001B68  204C                     movea.l    A0, A4
00001B6A  1006                     move.b     D0, D6
00001B6C  A06A                     syscall    HSetState
00001B6E  206E FFFC                movea.l    A0, [A6 - 0x4]
00001B72  2050                     movea.l    A0, [A0]
00001B74  117C 0001 0108           move.b     [A0 + 0x108], 0x1
00001B7A  3F2E 000E                move.w     -[A7], [A6 + 0xE]
00001B7E  3F07                     move.w     -[A7], D7
00001B80  206E FFFC                movea.l    A0, [A6 - 0x4]
00001B84  2050                     movea.l    A0, [A0]
00001B86  2068 0104                movea.l    A0, [A0 + 0x104]
00001B8A  2F28 0098                move.l     -[A7], [A0 + 0x98]
00001B8E  206E FFFC                movea.l    A0, [A6 - 0x4]
00001B92  2050                     movea.l    A0, [A0]
00001B94  2068 0104                movea.l    A0, [A0 + 0x104]
00001B98  3F28 006C                move.w     -[A7], [A0 + 0x6C]
00001B9C  4EBA E554                jsr        [PC - 0x1AAC /* 000000F2 */]
00001BA0  4CEE 18C0 FFEC           movem.l    D6,D7,A3,A4, [A6 - 0x14]
00001BA6  4E5E                     unlink     A6
00001BA8  205F                     movea.l    A0, [A7]+
00001BAA  504F                     addq.w     A7, 8
00001BAC  4ED0                     jmp        [A0]
label00001BAE:
00001BAE  4E56 0000                link       A6, 0
00001BB2  2F03                     move.l     -[A7], D3
00001BB4  206E 0008                movea.l    A0, [A6 + 0x8]
00001BB8  2050                     movea.l    A0, [A0]
00001BBA  202E 000C                move.l     D0, [A6 + 0xC]
00001BBE  B0A8 0114                cmp.l      D0, [A0 + 0x114]
00001BC2  57C3                     seq        D3
00001BC4  4403                     neg.b      D3
00001BC6  1D43 0010                move.b     [A6 + 0x10], D3
00001BCA  262E FFFC                move.l     D3, [A6 - 0x4]
00001BCE  4E5E                     unlink     A6
00001BD0  205F                     movea.l    A0, [A7]+
00001BD2  504F                     addq.w     A7, 8
00001BD4  4ED0                     jmp        [A0]
fn00001BD6:
00001BD6  4E56 0000                link       A6, 0
00001BDA  2F0C                     move.l     -[A7], A4
00001BDC  286E 0008                movea.l    A4, [A6 + 0x8]
00001BE0  2F2C 010C                move.l     -[A7], [A4 + 0x10C]
00001BE4  2F2C 0118                move.l     -[A7], [A4 + 0x118]
00001BE8  4EBA E4E4                jsr        [PC - 0x1B1C /* 000000CE */]
00001BEC  2054                     movea.l    A0, [A4]
00001BEE  2050                     movea.l    A0, [A0]
00001BF0  117C 0001 0108           move.b     [A0 + 0x108], 0x1
00001BF6  2F2C 0114                move.l     -[A7], [A4 + 0x114]
00001BFA  4EBA E4E2                jsr        [PC - 0x1B1E /* 000000DE */]
00001BFE  286E FFFC                movea.l    A4, [A6 - 0x4]
00001C02  4E5E                     unlink     A6
00001C04  4E75                     rts
fn00001C06:
00001C06  4E56 0000                link       A6, 0
00001C0A  48E7 1118                movem.l    -[A7], D3,D7,A3,A4
00001C0E  286E 0008                movea.l    A4, [A6 + 0x8]
00001C12  7E01                     moveq.l    D7, 0x01
00001C14  266C 0122                movea.l    A3, [A4 + 0x122]
00001C18  296C 0114 0122           move.l     [A4 + 0x122], [A4 + 0x114]
00001C1E  558F                     subq.l     A7, 2
00001C20  486C 0122                pea.l      [A4 + 0x122]
00001C24  4EBA 0344                jsr        [PC + 0x344 /* 00001F6A */]
00001C28  4A5F                     tst.w      [A7]+
00001C2A  57C3                     seq        D3
00001C2C  4403                     neg.b      D3
00001C2E  662A                     bne        +0x2C /* 00001C5A */
00001C30  558F                     subq.l     A7, 2
00001C32  7004                     moveq.l    D0, 0x04
00001C34  1F00                     move.b     -[A7], D0
00001C36  487A 003A                pea.l      [PC + 0x3A /* 00001C72, value 0x15426974, pstring "BitTool alert strings" */]
00001C3A  7206                     moveq.l    D1, 0x06
00001C3C  3F01                     move.w     -[A7], D1
00001C3E  4EBA E4C6                jsr        [PC - 0x1B3A /* 00000106 */]
00001C42  1E1F                     move.b     D7, [A7]+
00001C44  6710                     beq        +0x12 /* 00001C56 */
00001C46  7000                     moveq.l    D0, 0x00
00001C48  2940 0122                move.l     [A4 + 0x122], D0
00001C4C  206E 000C                movea.l    A0, [A6 + 0xC]
00001C50  30BC 0001                move.w     [A0], 0x1
00001C54  6004                     bra        +0x6 /* 00001C5A */
label00001C56:
00001C56  294B 0122                move.l     [A4 + 0x122], A3
label00001C5A:
00001C5A  4A07                     tst.b      D7
00001C5C  6708                     beq        +0xA /* 00001C66 */
00001C5E  200B                     move.l     D0, A3
00001C60  6704                     beq        +0x6 /* 00001C66 */
00001C62  204B                     movea.l    A0, A3
00001C64  A023                     syscall    DisposHandle/DisposeHandle
label00001C66:
00001C66  1007                     move.b     D0, D7
00001C68  4CEE 1888 FFF0           movem.l    D3,D7,A3,A4, [A6 - 0x10]
00001C6E  4E5E                     unlink     A6
00001C70  4E75                     rts
00001C72  1542 6974                move.b     [A2 + 0x6974], D2
00001C76  546F 6F6C                addq.w     [A7 + 0x6F6C], 2
00001C7A  2061                     movea.l    A0, -[A1]
00001C7C  6C65                     bge        +0x67 /* 00001CE3 */
00001C7E  7274                     moveq.l    D1, 0x74
00001C80  2073 7472                movea.l    A0, [A3 + D7.w * 4 + 0x72]
00001C84  696E                     bvs        +0x70 /* 00001CF4 */
00001C86  6773                     beq        +0x75 /* 00001CFB */
00001C88  0000 4E56                ori.b      D0, 0x56 /* 'V' */
// begin alternate branch 00001C8A-00001C8E
fn00001C8A:
00001C8A  4E56 FF00                link       A6, -0x0100
// end alternate branch 00001C8A-00001C8E
fn00001C8A: // (misaligned)
00001C8C  FF00                     .extension 0xF00 <<F/4-5/7>> // unimplemented
00001C8E  2F0C                     move.l     -[A7], A4
00001C90  49EE FF00                lea.l      A4, [A6 - 0x100]
00001C94  3F2E 000E                move.w     -[A7], [A6 + 0xE]
00001C98  2F0C                     move.l     -[A7], A4
00001C9A  4EBA E4E6                jsr        [PC - 0x1B1A /* 00000182 */]
00001C9E  2F0C                     move.l     -[A7], A4
00001CA0  7000                     moveq.l    D0, 0x00
00001CA2  2F00                     move.l     -[A7], D0
00001CA4  2F00                     move.l     -[A7], D0
00001CA6  2F00                     move.l     -[A7], D0
00001CA8  A98B                     syscall    ParamText
00001CAA  558F                     subq.l     A7, 2
00001CAC  7002                     moveq.l    D0, 0x02
00001CAE  1F00                     move.b     -[A7], D0
00001CB0  487A 001E                pea.l      [PC + 0x1E /* 00001CD0, value 0x15426974, pstring "BitTool alert strings" */]
00001CB4  3F2E 000A                move.w     -[A7], [A6 + 0xA]
00001CB8  4EBA E44C                jsr        [PC - 0x1BB4 /* 00000106 */]
00001CBC  7000                     moveq.l    D0, 0x00
00001CBE  2F00                     move.l     -[A7], D0
00001CC0  2F00                     move.l     -[A7], D0
00001CC2  2F00                     move.l     -[A7], D0
00001CC4  2F00                     move.l     -[A7], D0
00001CC6  A98B                     syscall    ParamText
00001CC8  286E FEFC                movea.l    A4, [A6 - 0x104]
00001CCC  4E5E                     unlink     A6
00001CCE  4E75                     rts
00001CD0  1542 6974                move.b     [A2 + 0x6974], D2
00001CD4  546F 6F6C                addq.w     [A7 + 0x6F6C], 2
00001CD8  2061                     movea.l    A0, -[A1]
00001CDA  6C65                     bge        +0x67 /* 00001D41 */
00001CDC  7274                     moveq.l    D1, 0x74
00001CDE  2073 7472                movea.l    A0, [A3 + D7.w * 4 + 0x72]
00001CE2  696E                     bvs        +0x70 /* 00001D52 */
00001CE4  6773                     beq        +0x75 /* 00001D59 */
00001CE6  0000 4E56                ori.b      D0, 0x56 /* 'V' */
// begin alternate branch 00001CE8-00001CEC
fn00001CE8:
00001CE8  4E56 FFF4                link       A6, -0x000C
// end alternate branch 00001CE8-00001CEC
fn00001CE8: // (misaligned)
00001CEA  FFF4                     .invalid   <<F/7/7>>
00001CEC  48E7 1718                movem.l    -[A7], D3,D5,D6,D7,A3,A4
00001CF0  266E 000C                movea.l    A3, [A6 + 0xC]
label00001CF4:
00001CF4  286E 0008                movea.l    A4, [A6 + 0x8]
00001CF8  2D6C 0114 FFFC           move.l     [A6 - 0x4], [A4 + 0x114]
00001CFE  7C01                     moveq.l    D6, 0x01
00001D00  4AAC 0122                tst.l      [A4 + 0x122]
00001D04  6700 00C4                beq        +0xC6 /* 00001DCA */
00001D08  558F                     subq.l     A7, 2
00001D0A  486E FFFC                pea.l      [A6 - 0x4]
00001D0E  4EBA 025A                jsr        [PC + 0x25A /* 00001F6A */]
00001D12  3E1F                     move.w     D7, [A7]+
00001D14  672C                     beq        +0x2E /* 00001D42 */
00001D16  7000                     moveq.l    D0, 0x00
00001D18  2D40 FFFC                move.l     [A6 - 0x4], D0
00001D1C  3213                     move.w     D1, [A3]
00001D1E  0801 0000                btst.b     D1, 0x0
00001D22  6704                     beq        +0x6 /* 00001D28 */
00001D24  7A06                     moveq.l    D5, 0x06
00001D26  6002                     bra        +0x4 /* 00001D2A */
label00001D28:
00001D28  7A07                     moveq.l    D5, 0x07
label00001D2A:
00001D2A  558F                     subq.l     A7, 2
00001D2C  7004                     moveq.l    D0, 0x04
00001D2E  1F00                     move.b     -[A7], D0
00001D30  487A 00D0                pea.l      [PC + 0xD0 /* 00001E02, value 0x15426974, pstring "BitTool alert strings" */]
00001D34  3F05                     move.w     -[A7], D5
00001D36  4EBA E3CE                jsr        [PC - 0x1C32 /* 00000106 */]
00001D3A  1C1F                     move.b     D6, [A7]+
00001D3C  6704                     beq        +0x6 /* 00001D42 */
00001D3E  36BC 0001                move.w     [A3], 0x1
label00001D42:
00001D42  4A06                     tst.b      D6
00001D44  677A                     beq        +0x7C /* 00001DC0 */
00001D46  2F2C 0122                move.l     -[A7], [A4 + 0x122]
00001D4A  4EBA E302                jsr        [PC - 0x1CFE /* 0000004E */]
00001D4E  206C 0122                movea.l    A0, [A4 + 0x122]
label00001D52:
00001D52  A029                     syscall    HLock
00001D54  206C 0122                movea.l    A0, [A4 + 0x122]
00001D58  2050                     movea.l    A0, [A0]
00001D5A  226C 0114                movea.l    A1, [A4 + 0x114]
00001D5E  2D48 FFF8                move.l     [A6 - 0x8], A0
00001D62  2D49 FFF4                move.l     [A6 - 0xC], A1
00001D66  598F                     subq.l     A7, 4
00001D68  2F2C 0122                move.l     -[A7], [A4 + 0x122]
00001D6C  4EBA 01EE                jsr        [PC + 0x1EE /* 00001F5C */]
00001D70  201F                     move.l     D0, [A7]+
00001D72  206E FFF8                movea.l    A0, [A6 - 0x8]
00001D76  226E FFF4                movea.l    A1, [A6 - 0xC]
00001D7A  A9E2                     syscall    PtrToXHand
00001D7C  3E00                     move.w     D7, D0
00001D7E  206C 0122                movea.l    A0, [A4 + 0x122]
00001D82  A02A                     syscall    HUnlock
00001D84  4A47                     tst.w      D7
00001D86  6620                     bne        +0x22 /* 00001DA8 */
00001D88  206C 0122                movea.l    A0, [A4 + 0x122]
00001D8C  A023                     syscall    DisposHandle/DisposeHandle
00001D8E  296E FFFC 0122           move.l     [A4 + 0x122], [A6 - 0x4]
00001D94  7001                     moveq.l    D0, 0x01
00001D96  B053                     cmp.w      D0, [A3]
00001D98  6704                     beq        +0x6 /* 00001D9E */
00001D9A  0A53 0001                xori.w     [A3], 0x1
label00001D9E:
00001D9E  2F0C                     move.l     -[A7], A4
00001DA0  4EBA FE34                jsr        [PC - 0x1CC /* 00001BD6 */]
00001DA4  584F                     addq.w     A7, 4
00001DA6  6018                     bra        +0x1A /* 00001DC0 */
label00001DA8:
00001DA8  48C7                     ext.l      D7
00001DAA  2F07                     move.l     -[A7], D7
00001DAC  7001                     moveq.l    D0, 0x01
00001DAE  C053                     and.w      D0, [A3]
00001DB0  6704                     beq        +0x6 /* 00001DB6 */
00001DB2  7002                     moveq.l    D0, 0x02
00001DB4  6002                     bra        +0x4 /* 00001DB8 */
label00001DB6:
00001DB6  7003                     moveq.l    D0, 0x03
label00001DB8:
00001DB8  2F00                     move.l     -[A7], D0
00001DBA  4EBA FECE                jsr        [PC - 0x132 /* 00001C8A */]
00001DBE  504F                     addq.w     A7, 8
label00001DC0:
00001DC0  4A47                     tst.w      D7
00001DC2  57C3                     seq        D3
00001DC4  4403                     neg.b      D3
00001DC6  1003                     move.b     D0, D3
00001DC8  6016                     bra        +0x18 /* 00001DE0 */
label00001DCA:
00001DCA  558F                     subq.l     A7, 2
00001DCC  7002                     moveq.l    D0, 0x02
00001DCE  1F00                     move.b     -[A7], D0
00001DD0  487A 0018                pea.l      [PC + 0x18 /* 00001DEA, value 0x15426974, pstring "BitTool alert strings" */]
00001DD4  7208                     moveq.l    D1, 0x08
00001DD6  3F01                     move.w     -[A7], D1
00001DD8  4EBA E32C                jsr        [PC - 0x1CD4 /* 00000106 */]
00001DDC  7000                     moveq.l    D0, 0x00
00001DDE  544F                     addq.w     A7, 2
label00001DE0:
00001DE0  4CEE 18E8 FFDC           movem.l    D3,D5,D6,D7,A3,A4, [A6 - 0x24]
00001DE6  4E5E                     unlink     A6
00001DE8  4E75                     rts
00001DEA  1542 6974                move.b     [A2 + 0x6974], D2
00001DEE  546F 6F6C                addq.w     [A7 + 0x6F6C], 2
00001DF2  2061                     movea.l    A0, -[A1]
00001DF4  6C65                     bge        +0x67 /* 00001E5B */
00001DF6  7274                     moveq.l    D1, 0x74
00001DF8  2073 7472                movea.l    A0, [A3 + D7.w * 4 + 0x72]
00001DFC  696E                     bvs        +0x70 /* 00001E6C */
00001DFE  6773                     beq        +0x75 /* 00001E73 */
00001E00  0000 1542                ori.b      D0, 0x42 /* 'B' */
00001E04  6974                     bvs        +0x76 /* 00001E7A */
00001E06  546F 6F6C                addq.w     [A7 + 0x6F6C], 2
00001E0A  2061                     movea.l    A0, -[A1]
00001E0C  6C65                     bge        +0x67 /* 00001E73 */
00001E0E  7274                     moveq.l    D1, 0x74
00001E10  2073 7472                movea.l    A0, [A3 + D7.w * 4 + 0x72]
00001E14  696E                     bvs        +0x70 /* 00001E84 */
00001E16  6773                     beq        +0x75 /* 00001E8B */
00001E18  0000 4CEF                ori.b      D0, 0xEF
// begin alternate branch 00001E1A-00001E22
fn00001E1A:
00001E1A  4CEF 0300 0004           movem.l    A0,A1, [A7 + 0x4]
00001E20  2008                     move.l     D0, A0
// end alternate branch 00001E1A-00001E22
fn00001E1A: // (misaligned)
00001E1C  0300                     btst       D0, D1
00001E1E  0004 2008                ori.b      D4, 0x8
label00001E22:
00001E22  10D9                     move.b     [A0]+, [A1]+
00001E24  66FC                     bne        -0x2 /* 00001E22 */
00001E26  4E75                     rts
00001E28  8673 7472 6370 7900 0000 dc.b       "strcpy"
fn00001E32:
00001E32  4CEF 0300 0004           movem.l    A0,A1, [A7 + 0x4]
00001E38  222F 000C                move.l     D1, [A7 + 0xC]
00001E3C  7001                     moveq.l    D0, 0x01
00001E3E  6004                     bra        +0x6 /* 00001E44 */
label00001E40:
00001E40  4841                     swap.w     D1
label00001E42:
00001E42  10D9                     move.b     [A0]+, [A1]+
label00001E44:
00001E44  57C9 FFFC                dbeq       D1, -0x6 /* 00001E42 */
00001E48  670C                     beq        +0xE /* 00001E56 */
00001E4A  4841                     swap.w     D1
00001E4C  51C9 FFF2                dbf        D1, -0x10 /* 00001E40 */
00001E50  600E                     bra        +0x10 /* 00001E60 */
label00001E52:
00001E52  4841                     swap.w     D1
label00001E54:
00001E54  4218                     clr.b      [A0]+
label00001E56:
00001E56  51C9 FFFC                dbf        D1, -0x6 /* 00001E54 */
00001E5A  4841                     swap.w     D1
00001E5C  51C9 FFF4                dbf        D1, -0xE /* 00001E52 */
label00001E60:
00001E60  202F 0004                move.l     D0, [A7 + 0x4]
00001E64  4E75                     rts
00001E66  8773 7472 6E63 7079 0000 dc.b       "strncpy"
// begin alternate branch 00001E6C-00001E84
label00001E6C:
00001E6C  7079                     moveq.l    D0, 0x79
00001E6E  0000 222F                ori.b      D0, 0x2F /* '/' */
00001E72  0004 202F                ori.b      D4, 0x2F /* '/' */
00001E76  0008 41FA                ori.b      A0, 0xFA
fn00001E78: // (misaligned)
label00001E7A:
00001E7A  000A 327C                ori.b      A2, 0x7C /* '|' */
00001E7E  0002 4EF0                ori.b      D2, 0xF0
00001E82  92FE                     sub.w      A1, <<invalid special address>>
// end alternate branch 00001E6C-00001E84
label00001E6C: // (misaligned)
00001E70  222F 0004                move.l     D1, [A7 + 0x4]
00001E74  202F 0008                move.l     D0, [A7 + 0x8]
fn00001E78:
00001E78  41FA 000A                lea.l      A0, [PC + 0xA /* 00001E84, value 0x60064C41 */]
label00001E7A: // (misaligned)
00001E7C  327C 0002                movea.w    A1, 0x2
00001E80  4EF0 92FE                jmp        [A0 + A1.w * 2 - 0x2]
label00001E84:
00001E84  6006                     bra        +0x8 /* 00001E8C */
00001E86  4C41 0801                divs.l     D1:D0, D1
00001E8A  4E75                     rts
label00001E8C:
00001E8C  4EBA 0024                jsr        [PC + 0x24 /* 00001EB2 */]
00001E90  2001                     move.l     D0, D1
00001E92  4E75                     rts
00001E94  222F 0004                move.l     D1, [A7 + 0x4]
00001E98  202F 0008                move.l     D0, [A7 + 0x8]
00001E9C  41FA 000A                lea.l      A0, [PC + 0xA /* 00001EA8, value 0x60084C41 */]
00001EA0  327C 0002                movea.w    A1, 0x2
00001EA4  4EF0 92FE                jmp        [A0 + A1.w * 2 - 0x2]
00001EA8  6008                     bra        +0xA /* 00001EB2 */
00001EAA  4C41 0801                divs.l     D1:D0, D1
00001EAE  C340                     exg        D1, D0
00001EB0  4E75                     rts
fn00001EB2:
00001EB2  4A80                     tst.l      D0
00001EB4  6B14                     bmi        +0x16 /* 00001ECA */
00001EB6  4A81                     tst.l      D1
00001EB8  6B06                     bmi        +0x8 /* 00001EC0 */
00001EBA  4EBA 0046                jsr        [PC + 0x46 /* 00001F02 */]
00001EBE  4E75                     rts
label00001EC0:
00001EC0  4481                     neg.l      D1
00001EC2  4EBA 003E                jsr        [PC + 0x3E /* 00001F02 */]
00001EC6  4481                     neg.l      D1
00001EC8  4E75                     rts
label00001ECA:
00001ECA  4480                     neg.l      D0
00001ECC  4A81                     tst.l      D1
00001ECE  6B0A                     bmi        +0xC /* 00001EDA */
00001ED0  4EBA 0030                jsr        [PC + 0x30 /* 00001F02 */]
00001ED4  4480                     neg.l      D0
00001ED6  4481                     neg.l      D1
00001ED8  4E75                     rts
label00001EDA:
00001EDA  4481                     neg.l      D1
00001EDC  4EBA 0024                jsr        [PC + 0x24 /* 00001F02 */]
00001EE0  4480                     neg.l      D0
00001EE2  4E75                     rts
00001EE4  222F 0004                move.l     D1, [A7 + 0x4]
00001EE8  202F 0008                move.l     D0, [A7 + 0x8]
00001EEC  41FA 000A                lea.l      A0, [PC + 0xA /* 00001EF8, value 0x60084C41 */]
00001EF0  327C 0002                movea.w    A1, 0x2
00001EF4  4EF0 92FE                jmp        [A0 + A1.w * 2 - 0x2]
00001EF8  6008                     bra        +0xA /* 00001F02 */
00001EFA  4C41 0001                divu.l     D1:D0, D1
00001EFE  C340                     exg        D1, D0
00001F00  4E75                     rts
fn00001F02:
00001F02  3F01                     move.w     -[A7], D1
00001F04  4841                     swap.w     D1
00001F06  4A41                     tst.w      D1
00001F08  661C                     bne        +0x1E /* 00001F26 */
00001F0A  2200                     move.l     D1, D0
00001F0C  4241                     clr.w      D1
00001F0E  4841                     swap.w     D1
00001F10  670A                     beq        +0xC /* 00001F1C */
00001F12  82D7                     divu.w     D1, [A7]
00001F14  4841                     swap.w     D1
00001F16  4840                     swap.w     D0
00001F18  3001                     move.w     D0, D1
00001F1A  4840                     swap.w     D0
label00001F1C:
00001F1C  80DF                     divu.w     D0, [A7]+
00001F1E  3200                     move.w     D1, D0
00001F20  4240                     clr.w      D0
00001F22  4840                     swap.w     D0
00001F24  4E75                     rts
label00001F26:
00001F26  4841                     swap.w     D1
00001F28  3E82                     move.w     [A7], D2
00001F2A  2F03                     move.l     -[A7], D3
00001F2C  3400                     move.w     D2, D0
00001F2E  2601                     move.l     D3, D1
00001F30  7201                     moveq.l    D1, 0x01
00001F32  4240                     clr.w      D0
00001F34  4840                     swap.w     D0
00001F36  660C                     bne        +0xE /* 00001F44 */
00001F38  4840                     swap.w     D0
00001F3A  3002                     move.w     D0, D2
00001F3C  7200                     moveq.l    D1, 0x00
00001F3E  6016                     bra        +0x18 /* 00001F56 */
label00001F40:
00001F40  D241                     add.w      D1, D1
00001F42  6512                     bcs        +0x14 /* 00001F56 */
label00001F44:
00001F44  D442                     add.w      D2, D2
00001F46  D180                     addx.l     D0, D0
00001F48  B083                     cmp.l      D0, D3
00001F4A  65F4                     bcs        -0xA /* 00001F40 */
00001F4C  9083                     sub.l      D0, D3
00001F4E  D241                     add.w      D1, D1
00001F50  08C1 0000                bset.b     D1, 0x0
00001F54  64EE                     bcc        -0x10 /* 00001F44 */
label00001F56:
00001F56  261F                     move.l     D3, [A7]+
00001F58  341F                     move.w     D2, [A7]+
00001F5A  4E75                     rts
fn00001F5C:
00001F5C  225F                     movea.l    A1, [A7]+
00001F5E  205F                     movea.l    A0, [A7]+
00001F60  A025                     syscall    GetHandleSize
00001F62  2E80                     move.l     [A7], D0
00001F64  6A02                     bpl        +0x4 /* 00001F68 */
00001F66  4297                     clr.l      [A7]
label00001F68:
00001F68  4ED1                     jmp        [A1]
fn00001F6A:
00001F6A  206F 0004                movea.l    A0, [A7 + 0x4]
00001F6E  2050                     movea.l    A0, [A0]
00001F70  A9E1                     syscall    HandToHand
00001F72  226F 0004                movea.l    A1, [A7 + 0x4]
00001F76  2288                     move.l     [A1], A0
00001F78  3F40 0008                move.w     [A7 + 0x8], D0
00001F7C  2E9F                     move.l     [A7], [A7]+
00001F7E  4E75                     rts
fn00001F80:
00001F80  206F 000C                movea.l    A0, [A7 + 0xC]
00001F84  202F 0004                move.l     D0, [A7 + 0x4]
00001F88  A9E3                     syscall    PtrToHand
00001F8A  3F40 0010                move.w     [A7 + 0x10], D0
00001F8E  226F 0008                movea.l    A1, [A7 + 0x8]
00001F92  2288                     move.l     [A1], A0
00001F94  205F                     movea.l    A0, [A7]+
00001F96  4FEF 000C                lea.l      A7, [A7 + 0xC]
00001F9A  4ED0                     jmp        [A0]
