# near model CODE resource
# jump table entries: 0-92 (93 of them)
export_1:
fn00000000:
00000000  4E56 0000                link       A6, 0
00000004  42A7                     clr.l      -[A7]
00000006  3F2E 000A                move.w     -[A7], [A6 + 0xA]
0000000A  1F2E 0008                move.b     -[A7], [A6 + 0x8]
0000000E  4EAD 053A                jsr        [A5 + 0x53A /* export_163, CODE:3 @ 00002554 */]
00000012  42A7                     clr.l      -[A7]
00000014  3F3C A89F                move.w     -[A7], 0xA89F
00000018  4EAD 052A                jsr        [A5 + 0x52A /* export_161, CODE:3 @ 00002540 */]
0000001C  201F                     move.l     D0, [A7]+
0000001E  B09F                     cmp.l      D0, [A7]+
00000020  56C0                     sne        D0
00000022  4400                     neg.b      D0
00000024  1D40 000C                move.b     [A6 + 0xC], D0
00000028  4E5E                     unlink     A6
0000002A  2E9F                     move.l     [A7], [A7]+
0000002C  4E75                     rts
export_2:
0000002E  4E56 0000                link       A6, 0
00000032  4A6D F7CA                tst.w      [A5 - 0x836]
00000036  6C06                     bge        +0x8 /* 0000003E */
00000038  422E 0008                clr.b      [A6 + 0x8]
0000003C  6012                     bra        +0x14 /* 00000050 */
label0000003E:
0000003E  2F3C A860 0000           move.l     -[A7], 0xA8600000
00000044  1F3C 0001                move.b     -[A7], 0x1
00000048  4EBA FFB6                jsr        [PC - 0x4A /* 00000000 */]
0000004C  1D5F 0008                move.b     [A6 + 0x8], [A7]+
label00000050:
00000050  4E5E                     unlink     A6
00000052  4E75                     rts
export_3:
fn00000054:
00000054  4E56 0000                link       A6, 0
00000058  102E 0008                move.b     D0, [A6 + 0x8]
0000005C  6708                     beq        +0xA /* 00000066 */
0000005E  422D FDA7                clr.b      [A5 - 0x259]
00000062  A937                     syscall    DrawMenuBar
00000064  6006                     bra        +0x8 /* 0000006C */
label00000066:
00000066  1B7C 0001 FDA7           move.b     [A5 - 0x259], 0x1
label0000006C:
0000006C  4E5E                     unlink     A6
0000006E  205F                     movea.l    A0, [A7]+
00000070  544F                     addq.w     A7, 2
00000072  4ED0                     jmp        [A0]
00000074  4E56 0000                link       A6, 0
00000078  4267                     clr.w      -[A7]
0000007A  1F3C 0003                move.b     -[A7], 0x3
0000007E  487A 0010                pea.l      [PC + 0x10 /* 00000090, value 0x9416C65 '\tAle', pstring "Alert str" */]
00000082  3F3C 0036                move.w     -[A7], 0x36 /* '6' */
00000086  4EBA 2A42                jsr        [PC + 0x2A42 /* 00002ACA */]
0000008A  101F                     move.b     D0, [A7]+
0000008C  4E5E                     unlink     A6
0000008E  4E75                     rts
00000090  0941                     bchg       D1, D4
00000092  6C65                     bge        +0x67 /* 000000F9 */
00000094  7274                     moveq.l    D1, 0x74
00000096  2073 7472                movea.l    A0, [A3 + D7.w * 4 + 0x72]
0000009A  4E56 0000                link       A6, 0
0000009E  1B7C 0001 F956           move.b     [A5 - 0x6AA], 0x1
000000A4  4E5E                     unlink     A6
000000A6  4E75                     rts
000000A8  4E56 0000                link       A6, 0
000000AC  422D F956                clr.b      [A5 - 0x6AA]
000000B0  4E5E                     unlink     A6
000000B2  4E75                     rts
000000B4  4E56 0000                link       A6, 0
000000B8  1D6D F956 0008           move.b     [A6 + 0x8], [A5 - 0x6AA]
000000BE  4E5E                     unlink     A6
000000C0  4E75                     rts
export_4:
000000C2  4E56 FFF4                link       A6, -0x000C
000000C6  48E7 0118                movem.l    -[A7], D7,A3,A4
000000CA  42A7                     clr.l      -[A7]
000000CC  2F2E 0010                move.l     -[A7], [A6 + 0x10]
000000D0  4EBA 4510                jsr        [PC + 0x4510 /* 000045E2 */]
000000D4  265F                     movea.l    A3, [A7]+
000000D6  B7FC 0000 3039           cmpa.l     A3, 0x3039 /* '09' */
000000DC  6726                     beq        +0x28 /* 00000104 */
000000DE  287C 0000 0A50           movea.l    A4, 0xA50 /* '\nP' */
000000E4  2E14                     move.l     D7, [A4]
000000E6  2053                     movea.l    A0, [A3]
000000E8  28A8 017C                move.l     [A4], [A0 + 0x17C]
000000EC  206E 0010                movea.l    A0, [A6 + 0x10]
000000F0  2050                     movea.l    A0, [A0]
000000F2  3F28 0110                move.w     -[A7], [A0 + 0x110]
000000F6  2F2E 000C                move.l     -[A7], [A6 + 0xC]
000000FA  2F2E 0008                move.l     -[A7], [A6 + 0x8]
000000FE  4EBA 616C                jsr        [PC + 0x616C /* 0000626C */]
00000102  2887                     move.l     [A4], D7
label00000104:
00000104  4CDF 1880                movem.l    D7,A3,A4, [A7]+
00000108  4E5E                     unlink     A6
0000010A  205F                     movea.l    A0, [A7]+
0000010C  DEFC 000C                add.w      A7, 0xC
00000110  4ED0                     jmp        [A0]
00000112  4E56 FFFE                link       A6, -0x0002
00000116  2F07                     move.l     -[A7], D7
00000118  7E01                     moveq.l    D7, 0x01
0000011A  42A7                     clr.l      -[A7]
0000011C  4EBA 1C9A                jsr        [PC + 0x1C9A /* 00001DB8 */]
00000120  201F                     move.l     D0, [A7]+
00000122  B0AE 000C                cmp.l      D0, [A6 + 0xC]
00000126  6648                     bne        +0x4A /* 00000170 */
00000128  7000                     moveq.l    D0, 0x00
0000012A  2F00                     move.l     -[A7], D0
0000012C  4267                     clr.w      -[A7]
0000012E  2F2E 0008                move.l     -[A7], [A6 + 0x8]
00000132  A9A6                     syscall    GetResAttrs
00000134  321F                     move.w     D1, [A7]+
00000136  201F                     move.l     D0, [A7]+
00000138  3001                     move.w     D0, D1
0000013A  C0BC 0000 0002           and.l      D0, 0x2
00000140  7202                     moveq.l    D1, 0x02
00000142  B280                     cmp.l      D1, D0
00000144  56C0                     sne        D0
00000146  4A00                     tst.b      D0
00000148  6624                     bne        +0x26 /* 0000016E */
0000014A  2F00                     move.l     -[A7], D0
0000014C  4267                     clr.w      -[A7]
0000014E  1F3C 0004                move.b     -[A7], 0x4
00000152  487A 002A                pea.l      [PC + 0x2A /* 0000017E, value 0xD416C65 '\rAle', pstring "Alert strings" */]
00000156  3F3C 0001                move.w     -[A7], 0x1
0000015A  4EBA 296E                jsr        [PC + 0x296E /* 00002ACA */]
0000015E  121F                     move.b     D1, [A7]+
00000160  201F                     move.l     D0, [A7]+
00000162  0A01 0001                xori.b     D1, 0x1
00000166  8001                     or.b       D0, D1
00000168  0240 0001                andi.w     D0, 0x1
0000016C  6702                     beq        +0x4 /* 00000170 */
label0000016E:
0000016E  4207                     clr.b      D7
label00000170:
00000170  1D47 0010                move.b     [A6 + 0x10], D7
00000174  2E1F                     move.l     D7, [A7]+
00000176  4E5E                     unlink     A6
00000178  205F                     movea.l    A0, [A7]+
0000017A  504F                     addq.w     A7, 8
0000017C  4ED0                     jmp        [A0]
0000017E  0D41                     bchg       D1, D6
00000180  6C65                     bge        +0x67 /* 000001E7 */
00000182  7274                     moveq.l    D1, 0x74
00000184  2073 7472                movea.l    A0, [A3 + D7.w * 4 + 0x72]
00000188  696E                     bvs        +0x70 /* 000001F8 */
0000018A  6773                     beq        +0x75 /* 000001FF */
fn0000018C:
0000018C  4E56 FFF4                link       A6, -0x000C
00000190  48E7 0118                movem.l    -[A7], D7,A3,A4
00000194  1D7C 0001 0008           move.b     [A6 + 0x8], 0x1
0000019A  42A7                     clr.l      -[A7]
0000019C  4EBA 1C1A                jsr        [PC + 0x1C1A /* 00001DB8 */]
000001A0  265F                     movea.l    A3, [A7]+
000001A2  0C6B 0080 006C           cmpi.w     [A3 + 0x6C], 0x80
000001A8  6D34                     blt        +0x36 /* 000001DE */
000001AA  286B 0098                movea.l    A4, [A3 + 0x98]
000001AE  2054                     movea.l    A0, [A4]
000001B0  4A28 010A                tst.b      [A0 + 0x10A]
000001B4  6728                     beq        +0x2A /* 000001DE */
000001B6  42A7                     clr.l      -[A7]
000001B8  2F0C                     move.l     -[A7], A4
000001BA  4EBA 4426                jsr        [PC + 0x4426 /* 000045E2 */]
000001BE  2E1F                     move.l     D7, [A7]+
000001C0  0C87 0000 3039           cmpi.l     D7, 0x3039 /* '09' */
000001C6  6702                     beq        +0x4 /* 000001CA */
000001C8  2847                     movea.l    A4, D7
label000001CA:
000001CA  2F3C 0005 0002           move.l     -[A7], 0x50002
000001D0  2054                     movea.l    A0, [A4]
000001D2  2F28 0104                move.l     -[A7], [A0 + 0x104]
000001D6  4EBA 18BE                jsr        [PC + 0x18BE /* 00001A96 */]
000001DA  422E 0008                clr.b      [A6 + 0x8]
label000001DE:
000001DE  4CDF 1880                movem.l    D7,A3,A4, [A7]+
000001E2  4E5E                     unlink     A6
000001E4  4E75                     rts
export_5:
fn000001E6:
000001E6  4E56 FFFE                link       A6, -0x0002
000001EA  2F07                     move.l     -[A7], D7
000001EC  1D7C 0001 0010           move.b     [A6 + 0x10], 0x1
000001F2  4267                     clr.w      -[A7]
000001F4  3F2E 0008                move.w     -[A7], [A6 + 0x8]
label000001F8:
000001F8  4EAD 0322                jsr        [A5 + 0x322 /* export_96, CODE:2 @ 00000178 */]
000001FC  101F                     move.b     D0, [A7]+
000001FE  6744                     beq        +0x46 /* 00000244 */
00000200  2F2E 000A                move.l     -[A7], [A6 + 0xA]
00000204  487A 0048                pea.l      [PC + 0x48 /* 0000024E, value 0x941 '\tA', cstring "" */]
00000208  487A 0044                pea.l      [PC + 0x44 /* 0000024E, value 0x941 '\tA', cstring "" */]
0000020C  487A 0040                pea.l      [PC + 0x40 /* 0000024E, value 0x941 '\tA', cstring "" */]
00000210  A98B                     syscall    ParamText
00000212  102E 000E                move.b     D0, [A6 + 0xE]
00000216  6704                     beq        +0x6 /* 0000021C */
00000218  7E10                     moveq.l    D7, 0x10
0000021A  6002                     bra        +0x4 /* 0000021E */
label0000021C:
0000021C  7E11                     moveq.l    D7, 0x11
label0000021E:
0000021E  4267                     clr.w      -[A7]
00000220  1F3C 0003                move.b     -[A7], 0x3
00000224  487A 002A                pea.l      [PC + 0x2A /* 00000250, value 0x9416C65 '\tAle', pstring "Alert str" */]
00000228  3F07                     move.w     -[A7], D7
0000022A  4EBA 289E                jsr        [PC + 0x289E /* 00002ACA */]
0000022E  1D5F 0010                move.b     [A6 + 0x10], [A7]+
00000232  487A 001A                pea.l      [PC + 0x1A /* 0000024E, value 0x941 '\tA', cstring "" */]
00000236  487A 0016                pea.l      [PC + 0x16 /* 0000024E, value 0x941 '\tA', cstring "" */]
0000023A  487A 0012                pea.l      [PC + 0x12 /* 0000024E, value 0x941 '\tA', cstring "" */]
0000023E  487A 000E                pea.l      [PC + 0xE /* 0000024E, value 0x941 '\tA', cstring "" */]
00000242  A98B                     syscall    ParamText
label00000244:
00000244  2E1F                     move.l     D7, [A7]+
00000246  4E5E                     unlink     A6
00000248  205F                     movea.l    A0, [A7]+
0000024A  504F                     addq.w     A7, 8
0000024C  4ED0                     jmp        [A0]
0000024E  0000 0941                ori.b      D0, 0x41 /* 'A' */
00000252  6C65                     bge        +0x67 /* 000002B9 */
00000254  7274                     moveq.l    D1, 0x74
00000256  2073 7472                movea.l    A0, [A3 + D7.w * 4 + 0x72]
export_6:
fn0000025A:
0000025A  4E56 FFFE                link       A6, -0x0002
0000025E  2F07                     move.l     -[A7], D7
00000260  4267                     clr.w      -[A7]
00000262  2F2E 000A                move.l     -[A7], [A6 + 0xA]
00000266  3F2E 0008                move.w     -[A7], [A6 + 0x8]
0000026A  4EAD 0DBA                jsr        [A5 + 0xDBA /* export_435, CODE:16 @ 00000E2C */]
0000026E  1E1F                     move.b     D7, [A7]+
00000270  1007                     move.b     D0, D7
00000272  6704                     beq        +0x6 /* 00000278 */
00000274  4EBA 30CC                jsr        [PC + 0x30CC /* 00003342 */]
label00000278:
00000278  1D47 000E                move.b     [A6 + 0xE], D7
0000027C  2E1F                     move.l     D7, [A7]+
0000027E  4E5E                     unlink     A6
00000280  205F                     movea.l    A0, [A7]+
00000282  5C4F                     addq.w     A7, 6
00000284  4ED0                     jmp        [A0]
export_7:
fn00000286:
00000286  4E56 FE7A                link       A6, -0x0186
0000028A  48E7 0F18                movem.l    -[A7], D4,D5,D6,D7,A3,A4
0000028E  282E 000C                move.l     D4, [A6 + 0xC]
00000292  3A2E 0010                move.w     D5, [A6 + 0x10]
00000296  42A7                     clr.l      -[A7]
00000298  4EBA 1B1E                jsr        [PC + 0x1B1E /* 00001DB8 */]
0000029C  265F                     movea.l    A3, [A7]+
0000029E  4207                     clr.b      D7
label000002A0:
000002A0  200B                     move.l     D0, A3
000002A2  6700 00E6                beq        +0xE8 /* 0000038A */
000002A6  0C6B 2711 006C           cmpi.w     [A3 + 0x6C], 0x2711
000002AC  6600 00D4                bne        +0xD6 /* 00000382 */
000002B0  2C2B 0098                move.l     D6, [A3 + 0x98]
000002B4  2046                     movea.l    A0, D6
000002B6  2850                     movea.l    A4, [A0]
000002B8  BA6C 016A                cmp.w      D5, [A4 + 0x16A]
000002BC  57C0                     seq        D0
000002BE  4A00                     tst.b      D0
000002C0  672E                     beq        +0x30 /* 000002F0 */
000002C2  B8AC 016C                cmp.l      D4, [A4 + 0x16C]
000002C6  57C1                     seq        D1
000002C8  C001                     and.b      D0, D1
000002CA  6724                     beq        +0x26 /* 000002F0 */
000002CC  2F00                     move.l     -[A7], D0
000002CE  4267                     clr.w      -[A7]
000002D0  486C 0128                pea.l      [A4 + 0x128]
000002D4  2F2E 0008                move.l     -[A7], [A6 + 0x8]
000002D8  4267                     clr.w      -[A7]
000002DA  1F3C 0001                move.b     -[A7], 0x1
000002DE  4EAD 055A                jsr        [A5 + 0x55A /* export_167, CODE:3 @ 00002590 */]
000002E2  121F                     move.b     D1, [A7]+
000002E4  201F                     move.l     D0, [A7]+
000002E6  C001                     and.b      D0, D1
000002E8  6706                     beq        +0x8 /* 000002F0 */
000002EA  7E01                     moveq.l    D7, 0x01
000002EC  6000 009C                bra        +0x9E /* 0000038A */
label000002F0:
000002F0  BA6C 016A                cmp.w      D5, [A4 + 0x16A]
000002F4  6600 008C                bne        +0x8E /* 00000382 */
000002F8  7000                     moveq.l    D0, 0x00
000002FA  2D40 FF88                move.l     [A6 - 0x78], D0
000002FE  426E FF98                clr.w      [A6 - 0x68]
00000302  2D6E 0008 FF8E           move.l     [A6 - 0x72], [A6 + 0x8]
00000308  3D45 FF92                move.w     [A6 - 0x6E], D5
0000030C  2D44 FFAC                move.l     [A6 - 0x54], D4
00000310  4267                     clr.w      -[A7]
00000312  486E FF7C                pea.l      [A6 - 0x84]
00000316  4267                     clr.w      -[A7]
00000318  4EAD 063A                jsr        [A5 + 0x63A /* export_195, CODE:3 @ 00002A26 */]
0000031C  3D5F FF7A                move.w     [A6 - 0x86], [A7]+
00000320  302E FF94                move.w     D0, [A6 - 0x6C]
00000324  48C0                     ext.l      D0
00000326  B0AC 0170                cmp.l      D0, [A4 + 0x170]
0000032A  6656                     bne        +0x58 /* 00000382 */
0000032C  7E01                     moveq.l    D7, 0x01
0000032E  2944 016C                move.l     [A4 + 0x16C], D4
00000332  206E 0008                movea.l    A0, [A6 + 0x8]
00000336  486C 0128                pea.l      [A4 + 0x128]
0000033A  2F08                     move.l     -[A7], A0
0000033C  4EAD 03BA                jsr        [A5 + 0x3BA /* export_115, CODE:3 @ 00000252 */]
00000340  101F                     move.b     D0, [A7]+
00000342  6746                     beq        +0x48 /* 0000038A */
00000344  1F3C 0001                move.b     -[A7], 0x1
00000348  3F05                     move.w     -[A7], D5
0000034A  2F04                     move.l     -[A7], D4
0000034C  2F2E 0008                move.l     -[A7], [A6 + 0x8]
00000350  486E FE7A                pea.l      [A6 - 0x186]
00000354  4EAD 0D9A                jsr        [A5 + 0xD9A /* export_431, CODE:16 @ 000007EA */]
00000358  204C                     movea.l    A0, A4
0000035A  5888                     addq.l     A0, 4
0000035C  43EE FE7A                lea.l      A1, [A6 - 0x186]
00000360  707F                     moveq.l    D0, 0x7F
label00000362:
00000362  30D9                     move.w     [A0]+, [A1]+
00000364  51C8 FFFC                dbf        D0, -0x6 /* 00000362 */
00000368  206E 0008                movea.l    A0, [A6 + 0x8]
0000036C  43EC 0128                lea.l      A1, [A4 + 0x128]
00000370  7020                     moveq.l    D0, 0x20
label00000372:
00000372  32D8                     move.w     [A1]+, [A0]+
00000374  51C8 FFFC                dbf        D0, -0x6 /* 00000372 */
00000378  2F0B                     move.l     -[A7], A3
0000037A  2F2E 0008                move.l     -[A7], [A6 + 0x8]
0000037E  A91A                     syscall    SetWTitle
00000380  6008                     bra        +0xA /* 0000038A */
label00000382:
00000382  266B 0090                movea.l    A3, [A3 + 0x90]
00000386  6000 FF18                bra        -0xE6 /* 000002A0 */
label0000038A:
0000038A  2D4B 0012                move.l     [A6 + 0x12], A3
0000038E  4CDF 18F0                movem.l    D4,D5,D6,D7,A3,A4, [A7]+
00000392  4E5E                     unlink     A6
00000394  205F                     movea.l    A0, [A7]+
00000396  DEFC 000A                add.w      A7, 0xA /* '\n' */
0000039A  4ED0                     jmp        [A0]
fn0000039C:
0000039C  4E56 FFAC                link       A6, -0x0054
000003A0  2F0C                     move.l     -[A7], A4
000003A2  287C 0000 0214           movea.l    A4, 0x214
000003A8  7000                     moveq.l    D0, 0x00
000003AA  2D40 FFBC                move.l     [A6 - 0x44], D0
000003AE  7000                     moveq.l    D0, 0x00
000003B0  2D40 FFC2                move.l     [A6 - 0x3E], D0
000003B4  3014                     move.w     D0, [A4]
000003B6  4440                     neg.w      D0
000003B8  3D40 FFC6                move.w     [A6 - 0x3A], D0
000003BC  426E FFCC                clr.w      [A6 - 0x34]
000003C0  4267                     clr.w      -[A7]
000003C2  486E FFB0                pea.l      [A6 - 0x50]
000003C6  4267                     clr.w      -[A7]
000003C8  4EAD 056A                jsr        [A5 + 0x56A /* export_169, CODE:3 @ 000025E8 */]
000003CC  4A5F                     tst.w      [A7]+
000003CE  671E                     beq        +0x20 /* 000003EE */
000003D0  3D7C 0001 FFCC           move.w     [A6 - 0x34], 0x1
000003D6  4267                     clr.w      -[A7]
000003D8  486E FFB0                pea.l      [A6 - 0x50]
000003DC  4267                     clr.w      -[A7]
000003DE  4EAD 056A                jsr        [A5 + 0x56A /* export_169, CODE:3 @ 000025E8 */]
000003E2  4A5F                     tst.w      [A7]+
000003E4  6608                     bne        +0xA /* 000003EE */
000003E6  302E FFC6                move.w     D0, [A6 - 0x3A]
000003EA  4440                     neg.w      D0
000003EC  3880                     move.w     [A4], D0
label000003EE:
000003EE  285F                     movea.l    A4, [A7]+
000003F0  4E5E                     unlink     A6
000003F2  4E75                     rts
fn000003F4:
000003F4  4E56 FE7A                link       A6, -0x0186
000003F8  48E7 0308                movem.l    -[A7], D6,D7,A4
000003FC  206E 000A                movea.l    A0, [A6 + 0xA]
00000400  43EE FF00                lea.l      A1, [A6 - 0x100]
00000404  707F                     moveq.l    D0, 0x7F
label00000406:
00000406  32D8                     move.w     [A1]+, [A0]+
00000408  51C8 FFFC                dbf        D0, -0x6 /* 00000406 */
0000040C  1D7C 0001 000E           move.b     [A6 + 0xE], 0x1
00000412  7000                     moveq.l    D0, 0x00
00000414  2D40 FEF0                move.l     [A6 - 0x110], D0
00000418  42A7                     clr.l      -[A7]
0000041A  3F2E 0008                move.w     -[A7], [A6 + 0x8]
0000041E  486E FEF6                pea.l      [A6 - 0x10A]
00000422  486E FEEC                pea.l      [A6 - 0x114]
00000426  486E FEF0                pea.l      [A6 - 0x110]
0000042A  4EAD 06BA                jsr        [A5 + 0x6BA /* export_211, CODE:3 @ 00002E9A */]
0000042E  4267                     clr.w      -[A7]
00000430  4EBA 2AE2                jsr        [PC + 0x2AE2 /* 00002F14 */]
00000434  101F                     move.b     D0, [A7]+
00000436  6700 01AC                beq        +0x1AE /* 000005E4 */
0000043A  7C01                     moveq.l    D6, 0x01
0000043C  41EE FF00                lea.l      A0, [A6 - 0x100]
00000440  2D48 FE8E                move.l     [A6 - 0x172], A0
00000444  3D6E 0008 FE92           move.w     [A6 - 0x16E], [A6 + 0x8]
0000044A  426E FE98                clr.w      [A6 - 0x168]
0000044E  7000                     moveq.l    D0, 0x00
00000450  2D40 FE88                move.l     [A6 - 0x178], D0
00000454  2D6E FEEC FEAC           move.l     [A6 - 0x154], [A6 - 0x114]
0000045A  4267                     clr.w      -[A7]
0000045C  486E FE7C                pea.l      [A6 - 0x184]
00000460  4267                     clr.w      -[A7]
00000462  4EAD 0612                jsr        [A5 + 0x612 /* export_190, CODE:3 @ 0000297C */]
00000466  3E1F                     move.w     D7, [A7]+
00000468  664C                     bne        +0x4E /* 000004B6 */
0000046A  082E 0004 FE9A           btst.b     [A6 - 0x166], 0x4
00000470  6744                     beq        +0x46 /* 000004B6 */
00000472  4206                     clr.b      D6
00000474  4267                     clr.w      -[A7]
00000476  3F2E FEF6                move.w     -[A7], [A6 - 0x10A]
0000047A  2F2E FEEC                move.l     -[A7], [A6 - 0x114]
0000047E  486E FF00                pea.l      [A6 - 0x100]
00000482  4EAD 0692                jsr        [A5 + 0x692 /* export_206, CODE:3 @ 00002D02 */]
00000486  3E1F                     move.w     D7, [A7]+
00000488  70D1                     moveq.l    D0, 0xFFFFFFD1
0000048A  B047                     cmp.w      D0, D7
0000048C  6616                     bne        +0x18 /* 000004A4 */
0000048E  4267                     clr.w      -[A7]
00000490  3F07                     move.w     -[A7], D7
00000492  3F3C 002A                move.w     -[A7], 0x2A /* '*' */
00000496  487A 0158                pea.l      [PC + 0x158 /* 000005F0, value 0x9416C65 '\tAle', pstring "Alert str" */]
0000049A  4EBA 2BCE                jsr        [PC + 0x2BCE /* 0000306A */]
0000049E  1D5F 000E                move.b     [A6 + 0xE], [A7]+
000004A2  6012                     bra        +0x14 /* 000004B6 */
label000004A4:
000004A4  4267                     clr.w      -[A7]
000004A6  3F07                     move.w     -[A7], D7
000004A8  4267                     clr.w      -[A7]
000004AA  4EBA 2A68                jsr        [PC + 0x2A68 /* 00002F14 */]
000004AE  101F                     move.b     D0, [A7]+
000004B0  6604                     bne        +0x6 /* 000004B6 */
000004B2  422E 000E                clr.b      [A6 + 0xE]
label000004B6:
000004B6  1006                     move.b     D0, D6
000004B8  6700 011C                beq        +0x11E /* 000005D6 */
000004BC  4267                     clr.w      -[A7]
000004BE  42A7                     clr.l      -[A7]
000004C0  486E FEF4                pea.l      [A6 - 0x10C]
000004C4  4EAD 05A2                jsr        [A5 + 0x5A2 /* export_176, CODE:3 @ 000026E4 */]
000004C8  3E1F                     move.w     D7, [A7]+
000004CA  42A7                     clr.l      -[A7]
000004CC  42A7                     clr.l      -[A7]
000004CE  3F2E FEF6                move.w     -[A7], [A6 - 0x10A]
000004D2  2F2E FEEC                move.l     -[A7], [A6 - 0x114]
000004D6  4EAD 067A                jsr        [A5 + 0x67A /* export_203, CODE:3 @ 00002B8A */]
000004DA  4267                     clr.w      -[A7]
000004DC  4EBA 2A36                jsr        [PC + 0x2A36 /* 00002F14 */]
000004E0  101F                     move.b     D0, [A7]+
000004E2  6700 00F2                beq        +0xF4 /* 000005D6 */
000004E6  4267                     clr.w      -[A7]
000004E8  3F2E FEF6                move.w     -[A7], [A6 - 0x10A]
000004EC  2F2E FEEC                move.l     -[A7], [A6 - 0x114]
000004F0  486E FF00                pea.l      [A6 - 0x100]
000004F4  1F3C 0003                move.b     -[A7], 0x3
000004F8  486E FEF8                pea.l      [A6 - 0x108]
000004FC  4EAD 0682                jsr        [A5 + 0x682 /* export_204, CODE:3 @ 00002BC6 */]
00000500  3E1F                     move.w     D7, [A7]+
00000502  70D5                     moveq.l    D0, 0xFFFFFFD5
00000504  B047                     cmp.w      D0, D7
00000506  6700 00CE                beq        +0xD0 /* 000005D6 */
0000050A  4A47                     tst.w      D7
0000050C  6600 008E                bne        +0x90 /* 0000059C */
00000510  4267                     clr.w      -[A7]
00000512  3F2E FEF8                move.w     -[A7], [A6 - 0x108]
00000516  4EBA 4024                jsr        [PC + 0x4024 /* 0000453C */]
0000051A  101F                     move.b     D0, [A7]+
0000051C  671C                     beq        +0x1E /* 0000053A */
0000051E  4267                     clr.w      -[A7]
00000520  1F3C 0001                move.b     -[A7], 0x1
00000524  487A 00CA                pea.l      [PC + 0xCA /* 000005F0, value 0x9416C65 '\tAle', pstring "Alert str" */]
00000528  3F3C 0015                move.w     -[A7], 0x15
0000052C  4EBA 259C                jsr        [PC + 0x259C /* 00002ACA */]
00000530  101F                     move.b     D0, [A7]+
00000532  422E 000E                clr.b      [A6 + 0xE]
00000536  6000 009E                bra        +0xA0 /* 000005D6 */
label0000053A:
0000053A  42A7                     clr.l      -[A7]
0000053C  3F2E FEF6                move.w     -[A7], [A6 - 0x10A]
00000540  2F2E FEEC                move.l     -[A7], [A6 - 0x114]
00000544  486E FF00                pea.l      [A6 - 0x100]
00000548  4EBA FD3C                jsr        [PC - 0x2C4 /* 00000286 */]
0000054C  285F                     movea.l    A4, [A7]+
0000054E  200C                     move.l     D0, A4
00000550  670E                     beq        +0x10 /* 00000560 */
00000552  2F3C 0000 0002           move.l     -[A7], 0x2
00000558  2F2C 0098                move.l     -[A7], [A4 + 0x98]
0000055C  4EAD 036A                jsr        [A5 + 0x36A /* export_105, CODE:2 @ 00001AEE */]
label00000560:
00000560  102D F956                move.b     D0, [A5 - 0x6AA]
00000564  6670                     bne        +0x72 /* 000005D6 */
00000566  42A7                     clr.l      -[A7]
00000568  3F2E FEF8                move.w     -[A7], [A6 - 0x108]
0000056C  4EAD 0582                jsr        [A5 + 0x582 /* export_172, CODE:3 @ 0000264C */]
00000570  4267                     clr.w      -[A7]
00000572  4EBA 29A0                jsr        [PC + 0x29A0 /* 00002F14 */]
00000576  101F                     move.b     D0, [A7]+
00000578  675C                     beq        +0x5E /* 000005D6 */
0000057A  42A7                     clr.l      -[A7]
0000057C  3F2E FEF6                move.w     -[A7], [A6 - 0x10A]
00000580  2F2E FEEC                move.l     -[A7], [A6 - 0x114]
00000584  486E FF00                pea.l      [A6 - 0x100]
00000588  4EAD 0692                jsr        [A5 + 0x692 /* export_206, CODE:3 @ 00002D02 */]
0000058C  4267                     clr.w      -[A7]
0000058E  4EBA 2984                jsr        [PC + 0x2984 /* 00002F14 */]
00000592  101F                     move.b     D0, [A7]+
00000594  6640                     bne        +0x42 /* 000005D6 */
00000596  422E 000E                clr.b      [A6 + 0xE]
0000059A  603A                     bra        +0x3C /* 000005D6 */
label0000059C:
0000059C  70CF                     moveq.l    D0, 0xFFFFFFCF
0000059E  B047                     cmp.w      D0, D7
000005A0  6722                     beq        +0x24 /* 000005C4 */
000005A2  42A7                     clr.l      -[A7]
000005A4  3F2E FEF6                move.w     -[A7], [A6 - 0x10A]
000005A8  2F2E FEEC                move.l     -[A7], [A6 - 0x114]
000005AC  486E FF00                pea.l      [A6 - 0x100]
000005B0  4EAD 0692                jsr        [A5 + 0x692 /* export_206, CODE:3 @ 00002D02 */]
000005B4  4267                     clr.w      -[A7]
000005B6  4EBA 295C                jsr        [PC + 0x295C /* 00002F14 */]
000005BA  101F                     move.b     D0, [A7]+
000005BC  6618                     bne        +0x1A /* 000005D6 */
000005BE  422E 000E                clr.b      [A6 + 0xE]
000005C2  6012                     bra        +0x14 /* 000005D6 */
label000005C4:
000005C4  4267                     clr.w      -[A7]
000005C6  3F07                     move.w     -[A7], D7
000005C8  3F3C 0012                move.w     -[A7], 0x12
000005CC  4EBA 2946                jsr        [PC + 0x2946 /* 00002F14 */]
000005D0  101F                     move.b     D0, [A7]+
000005D2  422E 000E                clr.b      [A6 + 0xE]
label000005D6:
000005D6  4267                     clr.w      -[A7]
000005D8  42A7                     clr.l      -[A7]
000005DA  3F2E FEF4                move.w     -[A7], [A6 - 0x10C]
000005DE  4EAD 05AA                jsr        [A5 + 0x5AA /* export_177, CODE:3 @ 00002706 */]
000005E2  3E1F                     move.w     D7, [A7]+
label000005E4:
000005E4  4CDF 10C0                movem.l    D6,D7,A4, [A7]+
000005E8  4E5E                     unlink     A6
000005EA  205F                     movea.l    A0, [A7]+
000005EC  5C4F                     addq.w     A7, 6
000005EE  4ED0                     jmp        [A0]
000005F0  0941                     bchg       D1, D4
000005F2  6C65                     bge        +0x67 /* 00000659 */
000005F4  7274                     moveq.l    D1, 0x74
000005F6  2073 7472                movea.l    A0, [A3 + D7.w * 4 + 0x72]
fn000005FA:
000005FA  4E56 FEE4                link       A6, -0x011C
000005FE  48E7 0308                movem.l    -[A7], D6,D7,A4
00000602  4A6D F7C6                tst.w      [A5 - 0x83A]
00000606  57C0                     seq        D0
00000608  0C6D 0700 F7CC           cmpi.w     [A5 - 0x834], 0x700
0000060E  5CC1                     sge        D1
00000610  C001                     and.b      D0, D1
00000612  6712                     beq        +0x14 /* 00000626 */
00000614  3C3C 0E75                move.w     D6, 0xE75
00000618  3D7C FFFF FFFE           move.w     [A6 - 0x2], 0xFFFF
0000061E  3D7C FFFF FFFC           move.w     [A6 - 0x4], 0xFFFF
00000624  6012                     bra        +0x14 /* 00000638 */
label00000626:
00000626  3C3C 0BB9                move.w     D6, 0xBB9
0000062A  42A7                     clr.l      -[A7]
0000062C  3F06                     move.w     -[A7], D6
0000062E  486E FFFC                pea.l      [A6 - 0x4]
00000632  4EBA 3E22                jsr        [PC + 0x3E22 /* 00004456 */]
00000636  285F                     movea.l    A4, [A7]+
label00000638:
00000638  2F3C 0081 002B           move.l     -[A7], 0x81002B
0000063E  486E FEEC                pea.l      [A6 - 0x114]
00000642  4EBA 56B8                jsr        [PC + 0x56B8 /* 00005CFC */]
00000646  4EBA FD54                jsr        [PC - 0x2AC /* 0000039C */]
0000064A  2F2E FFFC                move.l     -[A7], [A6 - 0x4]
0000064E  487A 0068                pea.l      [PC + 0x68 /* 000006B8, value 0x4E56 'NV', cstring "" */]
00000652  486E FEEC                pea.l      [A6 - 0x114]
00000656  42A7                     clr.l      -[A7]
00000658  486D F7D8                pea.l      [A5 - 0x828]
0000065C  3F06                     move.w     -[A7], D6
0000065E  487A 36F2                pea.l      [PC + 0x36F2 /* 00003D52, value 0x4E560000 'NV\0\0', cstring "NV" */]
00000662  3F3C 0003                move.w     -[A7], 0x3
00000666  A9EA                     syscall    Pack3
00000668  7E01                     moveq.l    D7, 0x01
0000066A  102D F7D8                move.b     D0, [A5 - 0x828]
0000066E  673C                     beq        +0x3E /* 000006AC */
00000670  41EE FEEC                lea.l      A0, [A6 - 0x114]
00000674  43ED F7E2                lea.l      A1, [A5 - 0x81E]
00000678  701F                     moveq.l    D0, 0x1F
label0000067A:
0000067A  30D9                     move.w     [A0]+, [A1]+
0000067C  51C8 FFFC                dbf        D0, -0x6 /* 0000067A */
00000680  4267                     clr.w      -[A7]
00000682  486E FEEC                pea.l      [A6 - 0x114]
00000686  3F2D F7DE                move.w     -[A7], [A5 - 0x822]
0000068A  4EBA FD68                jsr        [PC - 0x298 /* 000003F4 */]
0000068E  1E1F                     move.b     D7, [A7]+
00000690  1007                     move.b     D0, D7
00000692  6710                     beq        +0x12 /* 000006A4 */
00000694  4267                     clr.w      -[A7]
00000696  486E FEEC                pea.l      [A6 - 0x114]
0000069A  3F2D F7DE                move.w     -[A7], [A5 - 0x822]
0000069E  4EBA FBBA                jsr        [PC - 0x446 /* 0000025A */]
000006A2  1E1F                     move.b     D7, [A7]+
label000006A4:
000006A4  3F2D F7DE                move.w     -[A7], [A5 - 0x822]
000006A8  4EBA 3500                jsr        [PC + 0x3500 /* 00003BAA */]
label000006AC:
000006AC  1007                     move.b     D0, D7
000006AE  6788                     beq        -0x76 /* 00000638 */
000006B0  4CDF 10C0                movem.l    D6,D7,A4, [A7]+
000006B4  4E5E                     unlink     A6
000006B6  4E75                     rts
000006B8  0000 4E56                ori.b      D0, 0x56 /* 'V' */
000006BC  0000 70FF                ori.b      D0, 0xFF
000006C0  B06D F828                cmp.w      D0, [A5 - 0x7D8]
000006C4  56C0                     sne        D0
000006C6  4A00                     tst.b      D0
000006C8  671A                     beq        +0x1C /* 000006E4 */
000006CA  206E 0008                movea.l    A0, [A6 + 0x8]
000006CE  3228 0018                move.w     D1, [A0 + 0x18]
000006D2  B26D F828                cmp.w      D1, [A5 - 0x7D8]
000006D6  57C1                     seq        D1
000006D8  C001                     and.b      D0, D1
000006DA  6708                     beq        +0xA /* 000006E4 */
000006DC  1D7C 0001 000C           move.b     [A6 + 0xC], 0x1
000006E2  6004                     bra        +0x6 /* 000006E8 */
label000006E4:
000006E4  422E 000C                clr.b      [A6 + 0xC]
label000006E8:
000006E8  4E5E                     unlink     A6
000006EA  2E9F                     move.l     [A7], [A7]+
000006EC  4E75                     rts
000006EE  4E56 0000                link       A6, 0
000006F2  4267                     clr.w      -[A7]
000006F4  3F2D FDAE                move.w     -[A7], [A5 - 0x252]
000006F8  3F3C 0003                move.w     -[A7], 0x3
000006FC  2F2E 0010                move.l     -[A7], [A6 + 0x10]
00000700  2F2E 000C                move.l     -[A7], [A6 + 0xC]
00000704  2F2E 0008                move.l     -[A7], [A6 + 0x8]
00000708  4EBA 36FC                jsr        [PC + 0x36FC /* 00003E06 */]
0000070C  1D5F 0014                move.b     [A6 + 0x14], [A7]+
00000710  4E5E                     unlink     A6
00000712  205F                     movea.l    A0, [A7]+
00000714  DEFC 000C                add.w      A7, 0xC
00000718  4ED0                     jmp        [A0]
export_8:
fn0000071A:
0000071A  4E56 FFE8                link       A6, -0x0018
0000071E  2F0C                     move.l     -[A7], A4
00000720  42A7                     clr.l      -[A7]
00000722  3F2E 000E                move.w     -[A7], [A6 + 0xE]
00000726  486E FFFC                pea.l      [A6 - 0x4]
0000072A  4EBA 3D2A                jsr        [PC + 0x3D2A /* 00004456 */]
0000072E  285F                     movea.l    A4, [A7]+
00000730  200C                     move.l     D0, A4
00000732  56C0                     sne        D0
00000734  4A00                     tst.b      D0
00000736  673C                     beq        +0x3E /* 00000774 */
00000738  4A94                     tst.l      [A4]
0000073A  56C1                     sne        D1
0000073C  C001                     and.b      D0, D1
0000073E  6734                     beq        +0x36 /* 00000774 */
00000740  4EBA FC5A                jsr        [PC - 0x3A6 /* 0000039C */]
00000744  3B6E 0008 FDAE           move.w     [A5 - 0x252], [A6 + 0x8]
0000074A  2F2E FFFC                move.l     -[A7], [A6 - 0x4]
0000074E  487A 002E                pea.l      [PC + 0x2E /* 0000077E, value 0x4E56 'NV', cstring "" */]
00000752  487A FF66                pea.l      [PC - 0x9A /* 000006BA, value 0x4E560000 'NV\0\0', cstring "NV" */]
00000756  3F3C FFFF                move.w     -[A7], 0xFFFF
0000075A  486E FFEC                pea.l      [A6 - 0x14]
0000075E  2F2E 000A                move.l     -[A7], [A6 + 0xA]
00000762  486D F7D8                pea.l      [A5 - 0x828]
00000766  3F2E 000E                move.w     -[A7], [A6 + 0xE]
0000076A  487A FF82                pea.l      [PC - 0x7E /* 000006EE, value 0x4E560000 'NV\0\0', cstring "NV" */]
0000076E  3F3C 0004                move.w     -[A7], 0x4
00000772  A9EA                     syscall    Pack3
label00000774:
00000774  285F                     movea.l    A4, [A7]+
00000776  4E5E                     unlink     A6
00000778  205F                     movea.l    A0, [A7]+
0000077A  504F                     addq.w     A7, 8
0000077C  4ED0                     jmp        [A0]
0000077E  0000 4E56                ori.b      D0, 0x56 /* 'V' */
// begin alternate branch 00000780-00000786
fn00000780:
00000780  4E56 FEFE                link       A6, -0x0102
00000784  4267                     clr.w      -[A7]
// end alternate branch 00000780-00000786
fn00000780: // (misaligned)
00000782  FEFE 4267                .extension 0xEFE <<F/2-3/7>> // unimplemented
00000786  2F3C 616C 6973           move.l     -[A7], 0x616C6973 /* 'alis' */
0000078C  486D FD8E                pea.l      [A5 - 0x272]
00000790  4EAD 0732                jsr        [A5 + 0x732 /* export_226, CODE:3 @ 0000344C */]
00000794  4A5F                     tst.w      [A7]+
00000796  57C0                     seq        D0
00000798  4A00                     tst.b      D0
0000079A  6712                     beq        +0x14 /* 000007AE */
0000079C  082D 0000 FD91           btst.b     [A5 - 0x26F], 0x0
000007A2  56C1                     sne        D1
000007A4  C001                     and.b      D0, D1
000007A6  6706                     beq        +0x8 /* 000007AE */
000007A8  4EBA 646C                jsr        [PC + 0x646C /* 00006C16 */]
000007AC  600E                     bra        +0x10 /* 000007BC */
label000007AE:
000007AE  3F3C F060                move.w     -[A7], 0xF060
000007B2  42A7                     clr.l      -[A7]
000007B4  3F3C 0001                move.w     -[A7], 0x1
000007B8  4EBA FF60                jsr        [PC - 0xA0 /* 0000071A */]
label000007BC:
000007BC  102D F7D8                move.b     D0, [A5 - 0x828]
000007C0  672A                     beq        +0x2C /* 000007EC */
000007C2  41EE FF00                lea.l      A0, [A6 - 0x100]
000007C6  43ED F7E2                lea.l      A1, [A5 - 0x81E]
000007CA  701F                     moveq.l    D0, 0x1F
label000007CC:
000007CC  30D9                     move.w     [A0]+, [A1]+
000007CE  51C8 FFFC                dbf        D0, -0x6 /* 000007CC */
000007D2  4267                     clr.w      -[A7]
000007D4  486E FF00                pea.l      [A6 - 0x100]
000007D8  3F2D F7DE                move.w     -[A7], [A5 - 0x822]
000007DC  4EBA FA7C                jsr        [PC - 0x584 /* 0000025A */]
000007E0  1D5F FEFF                move.b     [A6 - 0x101], [A7]+
000007E4  3F2D F7DE                move.w     -[A7], [A5 - 0x822]
000007E8  4EBA 33C0                jsr        [PC + 0x33C0 /* 00003BAA */]
label000007EC:
000007EC  4E5E                     unlink     A6
000007EE  4E75                     rts
000007F0  4E56 0000                link       A6, 0
000007F4  700B                     moveq.l    D0, 0x0B
000007F6  B06E 000C                cmp.w      D0, [A6 + 0xC]
000007FA  660E                     bne        +0x10 /* 0000080A */
000007FC  3D7C 0003 000E           move.w     [A6 + 0xE], 0x3
00000802  1B7C 0001 FDB1           move.b     [A5 - 0x24F], 0x1
00000808  6006                     bra        +0x8 /* 00000810 */
label0000080A:
0000080A  3D6E 000C 000E           move.w     [A6 + 0xE], [A6 + 0xC]
label00000810:
00000810  4E5E                     unlink     A6
00000812  205F                     movea.l    A0, [A7]+
00000814  5C4F                     addq.w     A7, 6
00000816  4ED0                     jmp        [A0]
export_9:
00000818  4E56 FEFE                link       A6, -0x0102
0000081C  4A6D F7C6                tst.w      [A5 - 0x83A]
00000820  57C0                     seq        D0
00000822  0C6D 0700 F7CC           cmpi.w     [A5 - 0x834], 0x700
00000828  5CC1                     sge        D1
0000082A  C001                     and.b      D0, D1
0000082C  670C                     beq        +0xE /* 0000083A */
0000082E  4267                     clr.w      -[A7]
00000830  4EBA 6490                jsr        [PC + 0x6490 /* 00006CC2 */]
00000834  1B5F FDB1                move.b     [A5 - 0x24F], [A7]+
00000838  6014                     bra        +0x16 /* 0000084E */
label0000083A:
0000083A  422D FDB1                clr.b      [A5 - 0x24F]
0000083E  3F3C 0BB8                move.w     -[A7], 0xBB8
00000842  487A FFAC                pea.l      [PC - 0x54 /* 000007F0, value 0x4E560000 'NV\0\0', cstring "NV" */]
00000846  3F3C 0001                move.w     -[A7], 0x1
0000084A  4EBA FECE                jsr        [PC - 0x132 /* 0000071A */]
label0000084E:
0000084E  102D FDB1                move.b     D0, [A5 - 0x24F]
00000852  6706                     beq        +0x8 /* 0000085A */
00000854  4EBA FDA4                jsr        [PC - 0x25C /* 000005FA */]
00000858  6030                     bra        +0x32 /* 0000088A */
label0000085A:
0000085A  102D F7D8                move.b     D0, [A5 - 0x828]
0000085E  672A                     beq        +0x2C /* 0000088A */
00000860  41EE FF00                lea.l      A0, [A6 - 0x100]
00000864  43ED F7E2                lea.l      A1, [A5 - 0x81E]
00000868  701F                     moveq.l    D0, 0x1F
label0000086A:
0000086A  30D9                     move.w     [A0]+, [A1]+
0000086C  51C8 FFFC                dbf        D0, -0x6 /* 0000086A */
00000870  4267                     clr.w      -[A7]
00000872  486E FF00                pea.l      [A6 - 0x100]
00000876  3F2D F7DE                move.w     -[A7], [A5 - 0x822]
0000087A  4EBA F9DE                jsr        [PC - 0x622 /* 0000025A */]
0000087E  1D5F FEFF                move.b     [A6 - 0x101], [A7]+
00000882  3F2D F7DE                move.w     -[A7], [A5 - 0x822]
00000886  4EBA 3322                jsr        [PC + 0x3322 /* 00003BAA */]
label0000088A:
0000088A  4E5E                     unlink     A6
0000088C  4E75                     rts
0000088E  4E56 FFF0                link       A6, -0x0010
00000892  48E7 0300                movem.l    -[A7], D6,D7
00000896  3E2E 000C                move.w     D7, [A6 + 0xC]
0000089A  7001                     moveq.l    D0, 0x01
0000089C  B047                     cmp.w      D0, D7
0000089E  6602                     bne        +0x4 /* 000008A2 */
000008A0  7E0B                     moveq.l    D7, 0x0B
label000008A2:
000008A2  700C                     moveq.l    D0, 0x0C
000008A4  B047                     cmp.w      D0, D7
000008A6  6602                     bne        +0x4 /* 000008AA */
000008A8  7E67                     moveq.l    D7, 0x67
label000008AA:
000008AA  700B                     moveq.l    D0, 0x0B
000008AC  B047                     cmp.w      D0, D7
000008AE  6608                     bne        +0xA /* 000008B8 */
000008B0  7E01                     moveq.l    D7, 0x01
000008B2  1B7C 0001 FDB1           move.b     [A5 - 0x24F], 0x1
label000008B8:
000008B8  7064                     moveq.l    D0, 0x64
000008BA  B047                     cmp.w      D0, D7
000008BC  663A                     bne        +0x3C /* 000008F8 */
000008BE  2F2E 0008                move.l     -[A7], [A6 + 0x8]
000008C2  3F3C 000C                move.w     -[A7], 0xC
000008C6  486E FFF8                pea.l      [A6 - 0x8]
000008CA  486E FFFC                pea.l      [A6 - 0x4]
000008CE  486E FFF0                pea.l      [A6 - 0x10]
000008D2  A98D                     syscall    GetDialogItem/GetDItem
000008D4  4240                     clr.w      D0
000008D6  102D F7E2                move.b     D0, [A5 - 0x81E]
000008DA  4A40                     tst.w      D0
000008DC  57C0                     seq        D0
000008DE  4AAD F7DA                tst.l      [A5 - 0x826]
000008E2  56C1                     sne        D1
000008E4  C001                     and.b      D0, D1
000008E6  6704                     beq        +0x6 /* 000008EC */
000008E8  4246                     clr.w      D6
000008EA  6004                     bra        +0x6 /* 000008F0 */
label000008EC:
000008EC  3C3C 00FF                move.w     D6, 0xFF
label000008F0:
000008F0  2F2E FFFC                move.l     -[A7], [A6 - 0x4]
000008F4  3F06                     move.w     -[A7], D6
000008F6  A95D                     syscall    HiliteControl
label000008F8:
000008F8  3D47 000E                move.w     [A6 + 0xE], D7
000008FC  4CDF 00C0                movem.l    D6,D7, [A7]+
00000900  4E5E                     unlink     A6
00000902  205F                     movea.l    A0, [A7]+
00000904  5C4F                     addq.w     A7, 6
00000906  4ED0                     jmp        [A0]
fn00000908:
00000908  4E56 FEF2                link       A6, -0x010E
0000090C  4267                     clr.w      -[A7]
0000090E  2F3C 616C 6973           move.l     -[A7], 0x616C6973 /* 'alis' */
00000914  486D FD8E                pea.l      [A5 - 0x272]
00000918  4EAD 0732                jsr        [A5 + 0x732 /* export_226, CODE:3 @ 0000344C */]
0000091C  4A5F                     tst.w      [A7]+
0000091E  6610                     bne        +0x12 /* 00000930 */
00000920  082D 0000 FD91           btst.b     [A5 - 0x26F], 0x0
00000926  6708                     beq        +0xA /* 00000930 */
00000928  4EBA 678C                jsr        [PC + 0x678C /* 000070B6 */]
0000092C  6000 00E0                bra        +0xE2 /* 00000A0E */
label00000930:
00000930  422D FDB1                clr.b      [A5 - 0x24F]
00000934  3F3C 0BBA                move.w     -[A7], 0xBBA
00000938  487A FF54                pea.l      [PC - 0xAC /* 0000088E, value 0x4E56FFF0 */]
0000093C  3F3C 000B                move.w     -[A7], 0xB
00000940  4EBA FDD8                jsr        [PC - 0x228 /* 0000071A */]
00000944  102D F7D8                move.b     D0, [A5 - 0x828]
00000948  6700 00C4                beq        +0xC6 /* 00000A0E */
0000094C  C02D FDB1                and.b      D0, [A5 - 0x24F]
00000950  6700 00BC                beq        +0xBE /* 00000A0E */
00000954  4240                     clr.w      D0
00000956  102D F7E2                move.b     D0, [A5 - 0x81E]
0000095A  4A40                     tst.w      D0
0000095C  57C0                     seq        D0
0000095E  4A00                     tst.b      D0
00000960  6746                     beq        +0x48 /* 000009A8 */
00000962  4AAD F7DA                tst.l      [A5 - 0x826]
00000966  56C1                     sne        D1
00000968  C001                     and.b      D0, D1
0000096A  673C                     beq        +0x3E /* 000009A8 */
0000096C  4267                     clr.w      -[A7]
0000096E  2F2D F7DA                move.l     -[A7], [A5 - 0x826]
00000972  3F2D F7DE                move.w     -[A7], [A5 - 0x822]
00000976  486E FF00                pea.l      [A6 - 0x100]
0000097A  486E FEF4                pea.l      [A6 - 0x10C]
0000097E  4EAD 0D1A                jsr        [A5 + 0xD1A /* export_415, CODE:14 @ 00000546 */]
00000982  101F                     move.b     D0, [A7]+
00000984  6700 0088                beq        +0x8A /* 00000A0E */
00000988  42A7                     clr.l      -[A7]
0000098A  486E FF00                pea.l      [A6 - 0x100]
0000098E  3F2D F7DE                move.w     -[A7], [A5 - 0x822]
00000992  4EBA F852                jsr        [PC - 0x7AE /* 000001E6 */]
00000996  101F                     move.b     D0, [A7]+
00000998  6774                     beq        +0x76 /* 00000A0E */
0000099A  2F2D F7DA                move.l     -[A7], [A5 - 0x826]
0000099E  3F2D F7DE                move.w     -[A7], [A5 - 0x822]
000009A2  4EAD 0D22                jsr        [A5 + 0xD22 /* export_416, CODE:14 @ 00000628 */]
000009A6  6066                     bra        +0x68 /* 00000A0E */
label000009A8:
000009A8  4240                     clr.w      D0
000009AA  102D F7E2                move.b     D0, [A5 - 0x81E]
000009AE  4A40                     tst.w      D0
000009B0  675C                     beq        +0x5E /* 00000A0E */
000009B2  41EE FF00                lea.l      A0, [A6 - 0x100]
000009B6  43ED F7E2                lea.l      A1, [A5 - 0x81E]
000009BA  701F                     moveq.l    D0, 0x1F
label000009BC:
000009BC  30D9                     move.w     [A0]+, [A1]+
000009BE  51C8 FFFC                dbf        D0, -0x6 /* 000009BC */
000009C2  4267                     clr.w      -[A7]
000009C4  1F3C 0001                move.b     -[A7], 0x1
000009C8  486E FF00                pea.l      [A6 - 0x100]
000009CC  3F2D F7DE                move.w     -[A7], [A5 - 0x822]
000009D0  4EBA F814                jsr        [PC - 0x7EC /* 000001E6 */]
000009D4  101F                     move.b     D0, [A7]+
000009D6  6736                     beq        +0x38 /* 00000A0E */
000009D8  7000                     moveq.l    D0, 0x00
000009DA  2D40 FEFC                move.l     [A6 - 0x104], D0
000009DE  42A7                     clr.l      -[A7]
000009E0  3F2D F7DE                move.w     -[A7], [A5 - 0x822]
000009E4  486E FEF2                pea.l      [A6 - 0x10E]
000009E8  486E FEF8                pea.l      [A6 - 0x108]
000009EC  486E FEFC                pea.l      [A6 - 0x104]
000009F0  4EAD 06BA                jsr        [A5 + 0x6BA /* export_211, CODE:3 @ 00002E9A */]
000009F4  4267                     clr.w      -[A7]
000009F6  4EBA 251C                jsr        [PC + 0x251C /* 00002F14 */]
000009FA  101F                     move.b     D0, [A7]+
000009FC  6710                     beq        +0x12 /* 00000A0E */
000009FE  486E FF00                pea.l      [A6 - 0x100]
00000A02  3F2E FEF2                move.w     -[A7], [A6 - 0x10E]
00000A06  2F2E FEF8                move.l     -[A7], [A6 - 0x108]
00000A0A  4EAD 0D52                jsr        [A5 + 0xD52 /* export_422, CODE:15 @ 00000210 */]
label00000A0E:
00000A0E  4E5E                     unlink     A6
00000A10  4E75                     rts
export_10:
fn00000A12:
00000A12  4E56 FEFE                link       A6, -0x0102
00000A16  2F07                     move.l     -[A7], D7
00000A18  206E 0008                movea.l    A0, [A6 + 0x8]
00000A1C  4240                     clr.w      D0
00000A1E  1010                     move.b     D0, [A0]
00000A20  7228                     moveq.l    D1, 0x28
00000A22  B240                     cmp.w      D1, D0
00000A24  6C24                     bge        +0x26 /* 00000A4A */
00000A26  7E14                     moveq.l    D7, 0x14
00000A28  2F2E 0008                move.l     -[A7], [A6 + 0x8]
00000A2C  3F07                     move.w     -[A7], D7
00000A2E  206E 0008                movea.l    A0, [A6 + 0x8]
00000A32  4240                     clr.w      D0
00000A34  1010                     move.b     D0, [A0]
00000A36  907C 0028                sub.w      D0, 0x28 /* '(' */
00000A3A  3F00                     move.w     -[A7], D0
00000A3C  4EAD 03B2                jsr        [A5 + 0x3B2 /* export_114, CODE:3 @ 0000021C */]
00000A40  206E 0008                movea.l    A0, [A6 + 0x8]
00000A44  11BC 00C9 7000           move.b     [A0 + D7.w], 0xC9
label00000A4A:
00000A4A  206E 0008                movea.l    A0, [A6 + 0x8]
00000A4E  4240                     clr.w      D0
00000A50  1028 0001                move.b     D0, [A0 + 0x1]
00000A54  722D                     moveq.l    D1, 0x2D
00000A56  B240                     cmp.w      D1, D0
00000A58  6628                     bne        +0x2A /* 00000A82 */
00000A5A  206E 0008                movea.l    A0, [A6 + 0x8]
00000A5E  2F08                     move.l     -[A7], A0
00000A60  487A 0028                pea.l      [PC + 0x28 /* 00000A8A, value 0x1204E56 */]
00000A64  2F2E 0008                move.l     -[A7], [A6 + 0x8]
00000A68  486E FEFE                pea.l      [A6 - 0x102]
00000A6C  3F3C 0002                move.w     -[A7], 0x2
00000A70  4EAD 03AA                jsr        [A5 + 0x3AA /* export_113, CODE:3 @ 000001C2 */]
00000A74  205F                     movea.l    A0, [A7]+
00000A76  43EE FEFE                lea.l      A1, [A6 - 0x102]
00000A7A  707F                     moveq.l    D0, 0x7F
label00000A7C:
00000A7C  30D9                     move.w     [A0]+, [A1]+
00000A7E  51C8 FFFC                dbf        D0, -0x6 /* 00000A7C */
label00000A82:
00000A82  2E1F                     move.l     D7, [A7]+
00000A84  4E5E                     unlink     A6
00000A86  2E9F                     move.l     [A7], [A7]+
00000A88  4E75                     rts
00000A8A  0120                     btst       -[A0], D0
fn00000A8C:
00000A8C  4E56 FFF8                link       A6, -0x0008
00000A90  48E7 0318                movem.l    -[A7], D6,D7,A3,A4
00000A94  42A7                     clr.l      -[A7]
00000A96  4EBA 1320                jsr        [PC + 0x1320 /* 00001DB8 */]
00000A9A  265F                     movea.l    A3, [A7]+
00000A9C  4247                     clr.w      D7
00000A9E  4206                     clr.b      D6
label00000AA0:
00000AA0  200B                     move.l     D0, A3
00000AA2  6752                     beq        +0x54 /* 00000AF6 */
00000AA4  0C6B 0080 006C           cmpi.w     [A3 + 0x6C], 0x80
00000AAA  6D44                     blt        +0x46 /* 00000AF0 */
00000AAC  206B 0098                movea.l    A0, [A3 + 0x98]
00000AB0  2850                     movea.l    A4, [A0]
00000AB2  7006                     moveq.l    D0, 0x06
00000AB4  B02C 010A                cmp.b      D0, [A4 + 0x10A]
00000AB8  6736                     beq        +0x38 /* 00000AF0 */
00000ABA  4A2C 010A                tst.b      [A4 + 0x10A]
00000ABE  6604                     bne        +0x6 /* 00000AC4 */
00000AC0  5447                     addq.w     D7, 2
00000AC2  602C                     bra        +0x2E /* 00000AF0 */
label00000AC4:
00000AC4  1006                     move.b     D0, D6
00000AC6  0A00 0001                xori.b     D0, 0x1
00000ACA  4A00                     tst.b      D0
00000ACC  6720                     beq        +0x22 /* 00000AEE */
00000ACE  7203                     moveq.l    D1, 0x03
00000AD0  B22C 010A                cmp.b      D1, [A4 + 0x10A]
00000AD4  57C1                     seq        D1
00000AD6  4A01                     tst.b      D1
00000AD8  660E                     bne        +0x10 /* 00000AE8 */
00000ADA  7402                     moveq.l    D2, 0x02
00000ADC  B42C 010A                cmp.b      D2, [A4 + 0x10A]
00000AE0  57C2                     seq        D2
00000AE2  8202                     or.b       D1, D2
00000AE4  C001                     and.b      D0, D1
00000AE6  6706                     beq        +0x8 /* 00000AEE */
label00000AE8:
00000AE8  5447                     addq.w     D7, 2
00000AEA  7C01                     moveq.l    D6, 0x01
00000AEC  6002                     bra        +0x4 /* 00000AF0 */
label00000AEE:
00000AEE  5247                     addq.w     D7, 1
label00000AF0:
00000AF0  266B 0090                movea.l    A3, [A3 + 0x90]
00000AF4  60AA                     bra        -0x54 /* 00000AA0 */
label00000AF6:
00000AF6  3D47 0008                move.w     [A6 + 0x8], D7
00000AFA  4CDF 18C0                movem.l    D6,D7,A3,A4, [A7]+
00000AFE  4E5E                     unlink     A6
00000B00  4E75                     rts
fn00000B02:
00000B02  4E56 FCEE                link       A6, -0x0312
00000B06  48E7 0F18                movem.l    -[A7], D4,D5,D6,D7,A3,A4
00000B0A  206E 0008                movea.l    A0, [A6 + 0x8]
00000B0E  43EE FF00                lea.l      A1, [A6 - 0x100]
00000B12  707F                     moveq.l    D0, 0x7F
label00000B14:
00000B14  32D8                     move.w     [A1]+, [A0]+
00000B16  51C8 FFFC                dbf        D0, -0x6 /* 00000B14 */
00000B1A  206D FFFC                movea.l    A0, [A5 - 0x4]
00000B1E  2050                     movea.l    A0, [A0]
00000B20  2D48 FCEE                move.l     [A6 - 0x312], A0
00000B24  266E 0010                movea.l    A3, [A6 + 0x10]
label00000B28:
00000B28  200B                     move.l     D0, A3
00000B2A  6700 01B2                beq        +0x1B4 /* 00000CDE */
00000B2E  2C2B 0098                move.l     D6, [A3 + 0x98]
00000B32  0C6B 0080 006C           cmpi.w     [A3 + 0x6C], 0x80
00000B38  5CC0                     sge        D0
00000B3A  4A00                     tst.b      D0
00000B3C  6700 0198                beq        +0x19A /* 00000CD6 */
00000B40  2046                     movea.l    A0, D6
00000B42  2050                     movea.l    A0, [A0]
00000B44  4A28 010A                tst.b      [A0 + 0x10A]
00000B48  56C1                     sne        D1
00000B4A  C001                     and.b      D0, D1
00000B4C  6700 0188                beq        +0x18A /* 00000CD6 */
00000B50  2046                     movea.l    A0, D6
00000B52  2050                     movea.l    A0, [A0]
00000B54  7206                     moveq.l    D1, 0x06
00000B56  B228 010A                cmp.b      D1, [A0 + 0x10A]
00000B5A  56C1                     sne        D1
00000B5C  C001                     and.b      D0, D1
00000B5E  6700 0176                beq        +0x178 /* 00000CD6 */
00000B62  2046                     movea.l    A0, D6
00000B64  2050                     movea.l    A0, [A0]
00000B66  226E 0014                movea.l    A1, [A6 + 0x14]
00000B6A  2010                     move.l     D0, [A0]
00000B6C  B0A9 0098                cmp.l      D0, [A1 + 0x98]
00000B70  6600 0164                bne        +0x166 /* 00000CD6 */
00000B74  206E 000C                movea.l    A0, [A6 + 0xC]
00000B78  5250                     addq.w     [A0], 1
00000B7A  206E FCEE                movea.l    A0, [A6 - 0x312]
00000B7E  226E 000C                movea.l    A1, [A6 + 0xC]
00000B82  3011                     move.w     D0, [A1]
00000B84  C1FC 0006                muls.w     D0, 0x6
00000B88  49F0 00FA                lea.l      A4, [A0 + D0.w - 0x6]
00000B8C  18BC 0002                move.b     [A4], 0x2
00000B90  294B 0002                move.l     [A4 + 0x2], A3
00000B94  422C 0001                clr.b      [A4 + 0x1]
00000B98  2F2E 0018                move.l     -[A7], [A6 + 0x18]
00000B9C  487A 0152                pea.l      [PC + 0x152 /* 00000CF0, value 0x1784E56 */]
00000BA0  A933                     syscall    AppendMenu
00000BA2  284B                     movea.l    A4, A3
00000BA4  206C 0086                movea.l    A0, [A4 + 0x86]
00000BA8  2050                     movea.l    A0, [A0]
00000BAA  4240                     clr.w      D0
00000BAC  1010                     move.b     D0, [A0]
00000BAE  3A00                     move.w     D5, D0
00000BB0  4204                     clr.b      D4
00000BB2  7E04                     moveq.l    D7, 0x04
label00000BB4:
00000BB4  1004                     move.b     D0, D4
00000BB6  0A00 0001                xori.b     D0, 0x1
00000BBA  4A00                     tst.b      D0
00000BBC  6700 0082                beq        +0x84 /* 00000C40 */
00000BC0  BA47                     cmp.w      D5, D7
00000BC2  5EC1                     sgt        D1
00000BC4  C001                     and.b      D0, D1
00000BC6  6778                     beq        +0x7A /* 00000C40 */
00000BC8  206C 0086                movea.l    A0, [A4 + 0x86]
00000BCC  2050                     movea.l    A0, [A0]
00000BCE  4240                     clr.w      D0
00000BD0  1030 7000                move.b     D0, [A0 + D7.w]
00000BD4  7266                     moveq.l    D1, 0x66
00000BD6  B240                     cmp.w      D1, D0
00000BD8  57C0                     seq        D0
00000BDA  4A00                     tst.b      D0
00000BDC  675C                     beq        +0x5E /* 00000C3A */
00000BDE  206C 0086                movea.l    A0, [A4 + 0x86]
00000BE2  2050                     movea.l    A0, [A0]
00000BE4  3207                     move.w     D1, D7
00000BE6  5241                     addq.w     D1, 1
00000BE8  4242                     clr.w      D2
00000BEA  1430 1000                move.b     D2, [A0 + D1.w]
00000BEE  7272                     moveq.l    D1, 0x72
00000BF0  B242                     cmp.w      D1, D2
00000BF2  57C1                     seq        D1
00000BF4  C001                     and.b      D0, D1
00000BF6  6742                     beq        +0x44 /* 00000C3A */
00000BF8  206C 0086                movea.l    A0, [A4 + 0x86]
00000BFC  2050                     movea.l    A0, [A0]
00000BFE  3207                     move.w     D1, D7
00000C00  5441                     addq.w     D1, 2
00000C02  4242                     clr.w      D2
00000C04  1430 1000                move.b     D2, [A0 + D1.w]
00000C08  726F                     moveq.l    D1, 0x6F
00000C0A  B242                     cmp.w      D1, D2
00000C0C  57C1                     seq        D1
00000C0E  C001                     and.b      D0, D1
00000C10  6728                     beq        +0x2A /* 00000C3A */
00000C12  206C 0086                movea.l    A0, [A4 + 0x86]
00000C16  2050                     movea.l    A0, [A0]
00000C18  3207                     move.w     D1, D7
00000C1A  5641                     addq.w     D1, 3
00000C1C  4242                     clr.w      D2
00000C1E  1430 1000                move.b     D2, [A0 + D1.w]
00000C22  726D                     moveq.l    D1, 0x6D
00000C24  B242                     cmp.w      D1, D2
00000C26  57C1                     seq        D1
00000C28  C001                     and.b      D0, D1
00000C2A  670E                     beq        +0x10 /* 00000C3A */
00000C2C  7801                     moveq.l    D4, 0x01
00000C2E  206C 0086                movea.l    A0, [A4 + 0x86]
00000C32  2050                     movea.l    A0, [A0]
00000C34  3007                     move.w     D0, D7
00000C36  5340                     subq.w     D0, 1
00000C38  1080                     move.b     [A0], D0
label00000C3A:
00000C3A  5247                     addq.w     D7, 1
00000C3C  6000 FF76                bra        -0x88 /* 00000BB4 */
label00000C40:
00000C40  2F2C 0086                move.l     -[A7], [A4 + 0x86]
00000C44  205F                     movea.l    A0, [A7]+
00000C46  A029                     syscall    HLock
00000C48  486E FF00                pea.l      [A6 - 0x100]
00000C4C  206C 0086                movea.l    A0, [A4 + 0x86]
00000C50  2F10                     move.l     -[A7], [A0]
00000C52  486E FCF2                pea.l      [A6 - 0x30E]
00000C56  3F3C 0002                move.w     -[A7], 0x2
00000C5A  4EAD 03AA                jsr        [A5 + 0x3AA /* export_113, CODE:3 @ 000001C2 */]
00000C5E  41EE FDF2                lea.l      A0, [A6 - 0x20E]
00000C62  43EE FCF2                lea.l      A1, [A6 - 0x30E]
00000C66  707F                     moveq.l    D0, 0x7F
label00000C68:
00000C68  30D9                     move.w     [A0]+, [A1]+
00000C6A  51C8 FFFC                dbf        D0, -0x6 /* 00000C68 */
00000C6E  2F2C 0086                move.l     -[A7], [A4 + 0x86]
00000C72  205F                     movea.l    A0, [A7]+
00000C74  A02A                     syscall    HUnlock
00000C76  486E FDF2                pea.l      [A6 - 0x20E]
00000C7A  4EBA FD96                jsr        [PC - 0x26A /* 00000A12 */]
00000C7E  2F2E 0018                move.l     -[A7], [A6 + 0x18]
00000C82  206E 000C                movea.l    A0, [A6 + 0xC]
00000C86  3F10                     move.w     -[A7], [A0]
00000C88  486E FDF2                pea.l      [A6 - 0x20E]
00000C8C  A947                     syscall    SetMenuItemText/SetItem
00000C8E  206C 0086                movea.l    A0, [A4 + 0x86]
00000C92  2050                     movea.l    A0, [A0]
00000C94  1085                     move.b     [A0], D5
00000C96  B7EE 0010                cmpa.l     A3, [A6 + 0x10]
00000C9A  6610                     bne        +0x12 /* 00000CAC */
00000C9C  2F2E 0018                move.l     -[A7], [A6 + 0x18]
00000CA0  206E 000C                movea.l    A0, [A6 + 0xC]
00000CA4  3F10                     move.w     -[A7], [A0]
00000CA6  1F3C 0001                move.b     -[A7], 0x1
00000CAA  A945                     syscall    CheckItem
label00000CAC:
00000CAC  2F2E 0018                move.l     -[A7], [A6 + 0x18]
00000CB0  2F0B                     move.l     -[A7], A3
00000CB2  2F2E 0010                move.l     -[A7], [A6 + 0x10]
00000CB6  2F2E 000C                move.l     -[A7], [A6 + 0xC]
00000CBA  486E FF00                pea.l      [A6 - 0x100]
00000CBE  487A 002C                pea.l      [PC + 0x2C /* 00000CEC, value 0x3202020, pstring "   " */]
00000CC2  486E FCF2                pea.l      [A6 - 0x30E]
00000CC6  3F3C 0002                move.w     -[A7], 0x2
00000CCA  4EAD 03AA                jsr        [A5 + 0x3AA /* export_113, CODE:3 @ 000001C2 */]
00000CCE  486E FCF2                pea.l      [A6 - 0x30E]
00000CD2  4EBA FE2E                jsr        [PC - 0x1D2 /* 00000B02 */]
label00000CD6:
00000CD6  266B 0090                movea.l    A3, [A3 + 0x90]
00000CDA  6000 FE4C                bra        -0x1B2 /* 00000B28 */
label00000CDE:
00000CDE  4CDF 18F0                movem.l    D4,D5,D6,D7,A3,A4, [A7]+
00000CE2  4E5E                     unlink     A6
00000CE4  205F                     movea.l    A0, [A7]+
00000CE6  DEFC 0014                add.w      A7, 0x14
00000CEA  4ED0                     jmp        [A0]
00000CEC  0320                     btst       -[A0], D1
00000CEE  2020                     move.l     D0, -[A0]
00000CF0  0178 4E56                bchg       [0x00004E56], D0
// begin alternate branch 00000CF2-00000CFA
fn00000CF2:
00000CF2  4E56 FEF6                link       A6, -0x010A
00000CF6  48E7 0318                movem.l    -[A7], D6,D7,A3,A4
// end alternate branch 00000CF2-00000CFA
fn00000CF2: // (misaligned)
00000CF4  FEF6 48E7                .extension 0xEF6 <<F/2-3/7>> // unimplemented
00000CF8  0318                     btst       [A0]+, D1
00000CFA  2C2E 000C                move.l     D6, [A6 + 0xC]
00000CFE  286E 0008                movea.l    A4, [A6 + 0x8]
00000D02  206D FFFC                movea.l    A0, [A5 - 0x4]
00000D06  2650                     movea.l    A3, [A0]
00000D08  526C FEEE                addq.w     [A4 - 0x112], 1
00000D0C  302C FEEE                move.w     D0, [A4 - 0x112]
00000D10  C1FC 0006                muls.w     D0, 0x6
00000D14  41F3 00FA                lea.l      A0, [A3 + D0.w - 0x6]
00000D18  2D48 FEFA                move.l     [A6 - 0x106], A0
00000D1C  10AE 0010                move.b     [A0], [A6 + 0x10]
00000D20  206E FEFA                movea.l    A0, [A6 - 0x106]
00000D24  4228 0001                clr.b      [A0 + 0x1]
00000D28  206E FEFA                movea.l    A0, [A6 - 0x106]
00000D2C  2146 0002                move.l     [A0 + 0x2], D6
00000D30  2046                     movea.l    A0, D6
00000D32  2068 0086                movea.l    A0, [A0 + 0x86]
00000D36  2050                     movea.l    A0, [A0]
00000D38  43EE FEFE                lea.l      A1, [A6 - 0x102]
00000D3C  707F                     moveq.l    D0, 0x7F
label00000D3E:
00000D3E  32D8                     move.w     [A1]+, [A0]+
00000D40  51C8 FFFC                dbf        D0, -0x6 /* 00000D3E */
00000D44  486E FEFE                pea.l      [A6 - 0x102]
00000D48  4EBA FCC8                jsr        [PC - 0x338 /* 00000A12 */]
00000D4C  102E 0012                move.b     D0, [A6 + 0x12]
00000D50  676E                     beq        +0x70 /* 00000DC0 */
00000D52  3D7C 0001 FEF8           move.w     [A6 - 0x108], 0x1
00000D58  302C FEEE                move.w     D0, [A4 - 0x112]
00000D5C  5340                     subq.w     D0, 1
00000D5E  3D40 FEF6                move.w     [A6 - 0x10A], D0
00000D62  3E2E FEF8                move.w     D7, [A6 - 0x108]
00000D66  6052                     bra        +0x54 /* 00000DBA */
label00000D68:
00000D68  3007                     move.w     D0, D7
00000D6A  C1FC 0006                muls.w     D0, 0x6
00000D6E  1233 00FA                move.b     D1, [A3 + D0.w - 0x6]
00000D72  B22E 0010                cmp.b      D1, [A6 + 0x10]
00000D76  663E                     bne        +0x40 /* 00000DB6 */
00000D78  2F2D F7AC                move.l     -[A7], [A5 - 0x854]
00000D7C  3F07                     move.w     -[A7], D7
00000D7E  486C FF00                pea.l      [A4 - 0x100]
00000D82  A946                     syscall    GetMenuItemText/GetItem
00000D84  4267                     clr.w      -[A7]
00000D86  486C FF00                pea.l      [A4 - 0x100]
00000D8A  486E FEFE                pea.l      [A6 - 0x102]
00000D8E  4267                     clr.w      -[A7]
00000D90  1F3C 0001                move.b     -[A7], 0x1
00000D94  4EAD 055A                jsr        [A5 + 0x55A /* export_167, CODE:3 @ 00002590 */]
00000D98  101F                     move.b     D0, [A7]+
00000D9A  671A                     beq        +0x1C /* 00000DB6 */
00000D9C  3007                     move.w     D0, D7
00000D9E  C1FC 0006                muls.w     D0, 0x6
00000DA2  17BC 0001 00FB           move.b     [A3 + D0.w - 0x5], 0x1
00000DA8  302C FEEE                move.w     D0, [A4 - 0x112]
00000DAC  C1FC 0006                muls.w     D0, 0x6
00000DB0  17BC 0001 00FB           move.b     [A3 + D0.w - 0x5], 0x1
label00000DB6:
00000DB6  5247                     addq.w     D7, 1
00000DB8  6906                     bvs        +0x8 /* 00000DC0 */
label00000DBA:
00000DBA  BE6E FEF6                cmp.w      D7, [A6 - 0x10A]
00000DBE  6FA8                     ble        -0x56 /* 00000D68 */
label00000DC0:
00000DC0  2F2D F7AC                move.l     -[A7], [A5 - 0x854]
00000DC4  487A 0034                pea.l      [PC + 0x34 /* 00000DFA, value 0x1784E56 */]
00000DC8  A933                     syscall    AppendMenu
00000DCA  2F2D F7AC                move.l     -[A7], [A5 - 0x854]
00000DCE  3F2C FEEE                move.w     -[A7], [A4 - 0x112]
00000DD2  486E FEFE                pea.l      [A6 - 0x102]
00000DD6  A947                     syscall    SetMenuItemText/SetItem
00000DD8  BCAC FEF8                cmp.l      D6, [A4 - 0x108]
00000DDC  660E                     bne        +0x10 /* 00000DEC */
00000DDE  2F2D F7AC                move.l     -[A7], [A5 - 0x854]
00000DE2  3F2C FEEE                move.w     -[A7], [A4 - 0x112]
00000DE6  1F3C 0001                move.b     -[A7], 0x1
00000DEA  A945                     syscall    CheckItem
label00000DEC:
00000DEC  4CDF 18C0                movem.l    D6,D7,A3,A4, [A7]+
00000DF0  4E5E                     unlink     A6
00000DF2  205F                     movea.l    A0, [A7]+
00000DF4  DEFC 000C                add.w      A7, 0xC
00000DF8  4ED0                     jmp        [A0]
00000DFA  0178 4E56                bchg       [0x00004E56], D0
// begin alternate branch 00000DFC-00000E04
fn00000DFC:
00000DFC  4E56 FEE0                link       A6, -0x0120
00000E00  48E7 1F18                movem.l    -[A7], D3,D4,D5,D6,D7,A3,A4
// end alternate branch 00000DFC-00000E04
fn00000DFC: // (misaligned)
00000DFE  FEE0 48E7                .extension 0xEE0 <<F/2-3/7>> // unimplemented
00000E02  1F18                     move.b     -[A7], [A0]+
00000E04  4267                     clr.w      -[A7]
00000E06  4EBA FC84                jsr        [PC - 0x37C /* 00000A8C */]
00000E0A  3A1F                     move.w     D5, [A7]+
00000E0C  4AAD FFFC                tst.l      [A5 - 0x4]
00000E10  6616                     bne        +0x18 /* 00000E28 */
00000E12  42A7                     clr.l      -[A7]
00000E14  3005                     move.w     D0, D5
00000E16  C1FC 0006                muls.w     D0, 0x6
00000E1A  48C0                     ext.l      D0
00000E1C  2F00                     move.l     -[A7], D0
00000E1E  4EAD 04FA                jsr        [A5 + 0x4FA /* export_155, CODE:3 @ 000024FC */]
00000E22  2B5F FFFC                move.l     [A5 - 0x4], [A7]+
00000E26  6012                     bra        +0x14 /* 00000E3A */
label00000E28:
00000E28  2F2D FFFC                move.l     -[A7], [A5 - 0x4]
00000E2C  3005                     move.w     D0, D5
00000E2E  C1FC 0006                muls.w     D0, 0x6
00000E32  48C0                     ext.l      D0
00000E34  2F00                     move.l     -[A7], D0
00000E36  4EAD 0512                jsr        [A5 + 0x512 /* export_158, CODE:3 @ 0000251E */]
label00000E3A:
00000E3A  2F2D FFFC                move.l     -[A7], [A5 - 0x4]
00000E3E  4EBA 4AD4                jsr        [PC + 0x4AD4 /* 00005914 */]
00000E42  2F2D FFFC                move.l     -[A7], [A5 - 0x4]
00000E46  205F                     movea.l    A0, [A7]+
00000E48  A029                     syscall    HLock
00000E4A  206D FFFC                movea.l    A0, [A5 - 0x4]
00000E4E  2050                     movea.l    A0, [A0]
00000E50  2D48 FEE8                move.l     [A6 - 0x118], A0
00000E54  3D7C 0001 FEE6           move.w     [A6 - 0x11A], 0x1
00000E5A  4267                     clr.w      -[A7]
00000E5C  2F2D F7AC                move.l     -[A7], [A5 - 0x854]
00000E60  A950                     syscall    CountMItems
00000E62  3D5F FEE4                move.w     [A6 - 0x11C], [A7]+
00000E66  3D6E FEE6 FEEE           move.w     [A6 - 0x112], [A6 - 0x11A]
00000E6C  6010                     bra        +0x12 /* 00000E7E */
label00000E6E:
00000E6E  2F2D F7AC                move.l     -[A7], [A5 - 0x854]
00000E72  3F3C 0001                move.w     -[A7], 0x1
00000E76  A952                     syscall    DeleteMenuItem/DelMenuItem
00000E78  526E FEEE                addq.w     [A6 - 0x112], 1
00000E7C  690A                     bvs        +0xC /* 00000E88 */
label00000E7E:
00000E7E  302E FEEE                move.w     D0, [A6 - 0x112]
00000E82  B06E FEE4                cmp.w      D0, [A6 - 0x11C]
00000E86  6FE6                     ble        -0x18 /* 00000E6E */
label00000E88:
00000E88  426E FEEE                clr.w      [A6 - 0x112]
00000E8C  42A7                     clr.l      -[A7]
00000E8E  4EBA 0F28                jsr        [PC + 0xF28 /* 00001DB8 */]
00000E92  2D5F FEF8                move.l     [A6 - 0x108], [A7]+
00000E96  266E FEF8                movea.l    A3, [A6 - 0x108]
label00000E9A:
00000E9A  200B                     move.l     D0, A3
00000E9C  675C                     beq        +0x5E /* 00000EFA */
label00000E9E:
00000E9E  200B                     move.l     D0, A3
00000EA0  56C0                     sne        D0
00000EA2  4A00                     tst.b      D0
00000EA4  673A                     beq        +0x3C /* 00000EE0 */
00000EA6  0C6B 0080 006C           cmpi.w     [A3 + 0x6C], 0x80
00000EAC  5DC1                     slt        D1
00000EAE  4A01                     tst.b      D1
00000EB0  6628                     bne        +0x2A /* 00000EDA */
00000EB2  206B 0098                movea.l    A0, [A3 + 0x98]
00000EB6  2050                     movea.l    A0, [A0]
00000EB8  7403                     moveq.l    D2, 0x03
00000EBA  B428 010A                cmp.b      D2, [A0 + 0x10A]
00000EBE  56C2                     sne        D2
00000EC0  4A02                     tst.b      D2
00000EC2  671C                     beq        +0x1E /* 00000EE0 */
00000EC4  206B 0098                movea.l    A0, [A3 + 0x98]
00000EC8  2050                     movea.l    A0, [A0]
00000ECA  7602                     moveq.l    D3, 0x02
00000ECC  B628 010A                cmp.b      D3, [A0 + 0x10A]
00000ED0  56C3                     sne        D3
00000ED2  C403                     and.b      D2, D3
00000ED4  8202                     or.b       D1, D2
00000ED6  C001                     and.b      D0, D1
00000ED8  6706                     beq        +0x8 /* 00000EE0 */
label00000EDA:
00000EDA  266B 0090                movea.l    A3, [A3 + 0x90]
00000EDE  60BE                     bra        -0x40 /* 00000E9E */
label00000EE0:
00000EE0  200B                     move.l     D0, A3
00000EE2  6602                     bne        +0x4 /* 00000EE6 */
00000EE4  6014                     bra        +0x16 /* 00000EFA */
label00000EE6:
00000EE6  4267                     clr.w      -[A7]
00000EE8  1F3C 0002                move.b     -[A7], 0x2
00000EEC  2F0B                     move.l     -[A7], A3
00000EEE  2F0E                     move.l     -[A7], A6
00000EF0  4EBA FE00                jsr        [PC - 0x200 /* 00000CF2 */]
00000EF4  266B 0090                movea.l    A3, [A3 + 0x90]
00000EF8  60A0                     bra        -0x5E /* 00000E9A */
label00000EFA:
00000EFA  4A6E FEEE                tst.w      [A6 - 0x112]
00000EFE  6728                     beq        +0x2A /* 00000F28 */
00000F00  526E FEEE                addq.w     [A6 - 0x112], 1
00000F04  2F2D F7AC                move.l     -[A7], [A5 - 0x854]
00000F08  487A 013A                pea.l      [PC + 0x13A /* 00001044, value 0x12D4E56 */]
00000F0C  A933                     syscall    AppendMenu
00000F0E  206E FEE8                movea.l    A0, [A6 - 0x118]
00000F12  302E FEEE                move.w     D0, [A6 - 0x112]
00000F16  C1FC 0006                muls.w     D0, 0x6
00000F1A  49F0 00FA                lea.l      A4, [A0 + D0.w - 0x6]
00000F1E  38BC 0100                move.w     [A4], 0x100
00000F22  7000                     moveq.l    D0, 0x00
00000F24  2940 0002                move.l     [A4 + 0x2], D0
label00000F28:
00000F28  7801                     moveq.l    D4, 0x01
00000F2A  2E2E FEF8                move.l     D7, [A6 - 0x108]
label00000F2E:
00000F2E  4A87                     tst.l      D7
00000F30  6700 0098                beq        +0x9A /* 00000FCA */
label00000F34:
00000F34  4A87                     tst.l      D7
00000F36  56C0                     sne        D0
00000F38  4A00                     tst.b      D0
00000F3A  672A                     beq        +0x2C /* 00000F66 */
00000F3C  2047                     movea.l    A0, D7
00000F3E  0C68 0080 006C           cmpi.w     [A0 + 0x6C], 0x80
00000F44  5DC1                     slt        D1
00000F46  4A01                     tst.b      D1
00000F48  6614                     bne        +0x16 /* 00000F5E */
00000F4A  2047                     movea.l    A0, D7
00000F4C  2068 0098                movea.l    A0, [A0 + 0x98]
00000F50  2050                     movea.l    A0, [A0]
00000F52  4A28 010A                tst.b      [A0 + 0x10A]
00000F56  56C2                     sne        D2
00000F58  8202                     or.b       D1, D2
00000F5A  C001                     and.b      D0, D1
00000F5C  6708                     beq        +0xA /* 00000F66 */
label00000F5E:
00000F5E  2047                     movea.l    A0, D7
00000F60  2E28 0090                move.l     D7, [A0 + 0x90]
00000F64  60CE                     bra        -0x30 /* 00000F34 */
label00000F66:
00000F66  4A87                     tst.l      D7
00000F68  6602                     bne        +0x4 /* 00000F6C */
00000F6A  605E                     bra        +0x60 /* 00000FCA */
label00000F6C:
00000F6C  1004                     move.b     D0, D4
00000F6E  6704                     beq        +0x6 /* 00000F74 */
00000F70  4204                     clr.b      D4
00000F72  6028                     bra        +0x2A /* 00000F9C */
label00000F74:
00000F74  526E FEEE                addq.w     [A6 - 0x112], 1
00000F78  2F2D F7AC                move.l     -[A7], [A5 - 0x854]
00000F7C  487A 00C6                pea.l      [PC + 0xC6 /* 00001044, value 0x12D4E56 */]
00000F80  A933                     syscall    AppendMenu
00000F82  206E FEE8                movea.l    A0, [A6 - 0x118]
00000F86  302E FEEE                move.w     D0, [A6 - 0x112]
00000F8A  C1FC 0006                muls.w     D0, 0x6
00000F8E  49F0 00FA                lea.l      A4, [A0 + D0.w - 0x6]
00000F92  38BC 0100                move.w     [A4], 0x100
00000F96  7000                     moveq.l    D0, 0x00
00000F98  2940 0002                move.l     [A4 + 0x2], D0
label00000F9C:
00000F9C  1F3C 0001                move.b     -[A7], 0x1
00000FA0  4267                     clr.w      -[A7]
00000FA2  2F07                     move.l     -[A7], D7
00000FA4  2F0E                     move.l     -[A7], A6
00000FA6  4EBA FD4A                jsr        [PC - 0x2B6 /* 00000CF2 */]
00000FAA  2F2D F7AC                move.l     -[A7], [A5 - 0x854]
00000FAE  2F07                     move.l     -[A7], D7
00000FB0  2F2E FEF8                move.l     -[A7], [A6 - 0x108]
00000FB4  486E FEEE                pea.l      [A6 - 0x112]
00000FB8  487A 0086                pea.l      [PC + 0x86 /* 00001040, value 0x3202020, pstring "   " */]
00000FBC  4EBA FB44                jsr        [PC - 0x4BC /* 00000B02 */]
00000FC0  2047                     movea.l    A0, D7
00000FC2  2E28 0090                move.l     D7, [A0 + 0x90]
00000FC6  6000 FF66                bra        -0x98 /* 00000F2E */
label00000FCA:
00000FCA  3D7C 0001 FEE2           move.w     [A6 - 0x11E], 0x1
00000FD0  3D6E FEEE FEE0           move.w     [A6 - 0x120], [A6 - 0x112]
00000FD6  3C2E FEE2                move.w     D6, [A6 - 0x11E]
00000FDA  604A                     bra        +0x4C /* 00001026 */
label00000FDC:
00000FDC  206E FEE8                movea.l    A0, [A6 - 0x118]
00000FE0  3006                     move.w     D0, D6
00000FE2  C1FC 0006                muls.w     D0, 0x6
00000FE6  1230 00FB                move.b     D1, [A0 + D0.w - 0x5]
00000FEA  6736                     beq        +0x38 /* 00001022 */
00000FEC  206E FEE8                movea.l    A0, [A6 - 0x118]
00000FF0  3006                     move.w     D0, D6
00000FF2  C1FC 0006                muls.w     D0, 0x6
00000FF6  2070 00FC                movea.l    A0, [A0 + D0.w - 0x4]
00000FFA  2068 0098                movea.l    A0, [A0 + 0x98]
00000FFE  2050                     movea.l    A0, [A0]
00001000  43EE FF00                lea.l      A1, [A6 - 0x100]
00001004  5888                     addq.l     A0, 4
00001006  707F                     moveq.l    D0, 0x7F
label00001008:
00001008  32D8                     move.w     [A1]+, [A0]+
0000100A  51C8 FFFC                dbf        D0, -0x6 /* 00001008 */
0000100E  486E FF00                pea.l      [A6 - 0x100]
00001012  4EBA F9FE                jsr        [PC - 0x602 /* 00000A12 */]
00001016  2F2D F7AC                move.l     -[A7], [A5 - 0x854]
0000101A  3F06                     move.w     -[A7], D6
0000101C  486E FF00                pea.l      [A6 - 0x100]
00001020  A947                     syscall    SetMenuItemText/SetItem
label00001022:
00001022  5246                     addq.w     D6, 1
00001024  6906                     bvs        +0x8 /* 0000102C */
label00001026:
00001026  BC6E FEE0                cmp.w      D6, [A6 - 0x120]
0000102A  6FB0                     ble        -0x4E /* 00000FDC */
label0000102C:
0000102C  2F2D FFFC                move.l     -[A7], [A5 - 0x4]
00001030  205F                     movea.l    A0, [A7]+
00001032  A02A                     syscall    HUnlock
00001034  422D FDAD                clr.b      [A5 - 0x253]
00001038  4CDF 18F8                movem.l    D3,D4,D5,D6,D7,A3,A4, [A7]+
0000103C  4E5E                     unlink     A6
0000103E  4E75                     rts
00001040  0320                     btst       -[A0], D1
00001042  2020                     move.l     D0, -[A0]
00001044  012D 4E56                btst       [A5 + 0x4E56], D0
// begin alternate branch 00001046-0000104A
fn00001046:
00001046  4E56 FFF8                link       A6, -0x0008
// end alternate branch 00001046-0000104A
fn00001046: // (misaligned)
00001048  FFF8                     .invalid   <<F/7/7>>
0000104A  48E7 0300                movem.l    -[A7], D6,D7
0000104E  3D7C 0001 FFFA           move.w     [A6 - 0x6], 0x1
00001054  4267                     clr.w      -[A7]
00001056  2F2D F7AC                move.l     -[A7], [A5 - 0x854]
0000105A  A950                     syscall    CountMItems
0000105C  3D5F FFF8                move.w     [A6 - 0x8], [A7]+
00001060  3E2E FFFA                move.w     D7, [A6 - 0x6]
00001064  6032                     bra        +0x34 /* 00001098 */
label00001066:
00001066  206D FFFC                movea.l    A0, [A5 - 0x4]
0000106A  2050                     movea.l    A0, [A0]
0000106C  3007                     move.w     D0, D7
0000106E  C1FC 0006                muls.w     D0, 0x6
00001072  48E7 8080                movem.l    -[A7], D0,A0
00001076  42A7                     clr.l      -[A7]
00001078  4EBA 0D3E                jsr        [PC + 0xD3E /* 00001DB8 */]
0000107C  221F                     move.l     D1, [A7]+
0000107E  4CDF 0101                movem.l    D0,A0, [A7]+
00001082  B2B0 00FC                cmp.l      D1, [A0 + D0.w - 0x4]
00001086  57C6                     seq        D6
00001088  4406                     neg.b      D6
0000108A  2F2D F7AC                move.l     -[A7], [A5 - 0x854]
0000108E  3F07                     move.w     -[A7], D7
00001090  1F06                     move.b     -[A7], D6
00001092  A945                     syscall    CheckItem
00001094  5247                     addq.w     D7, 1
00001096  6906                     bvs        +0x8 /* 0000109E */
label00001098:
00001098  BE6E FFF8                cmp.w      D7, [A6 - 0x8]
0000109C  6FC8                     ble        -0x36 /* 00001066 */
label0000109E:
0000109E  4CDF 00C0                movem.l    D6,D7, [A7]+
000010A2  4E5E                     unlink     A6
000010A4  4E75                     rts
fn000010A6:
000010A6  4E56 FCF6                link       A6, -0x030A
000010AA  48E7 0708                movem.l    -[A7], D5,D6,D7,A4
000010AE  3A2E 0008                move.w     D5, [A6 + 0x8]
000010B2  2F2D F7AC                move.l     -[A7], [A5 - 0x854]
000010B6  3F05                     move.w     -[A7], D5
000010B8  486E FD00                pea.l      [A6 - 0x300]
000010BC  A946                     syscall    GetMenuItemText/GetItem
000010BE  206D FFFC                movea.l    A0, [A5 - 0x4]
000010C2  2050                     movea.l    A0, [A0]
000010C4  3005                     move.w     D0, D5
000010C6  C1FC 0006                muls.w     D0, 0x6
000010CA  2870 00FC                movea.l    A4, [A0 + D0.w - 0x4]
000010CE  200C                     move.l     D0, A4
000010D0  6754                     beq        +0x56 /* 00001126 */
000010D2  7E01                     moveq.l    D7, 0x01
000010D4  4206                     clr.b      D6
label000010D6:
000010D6  2F2D F7AC                move.l     -[A7], [A5 - 0x854]
000010DA  3F07                     move.w     -[A7], D7
000010DC  486E FCF8                pea.l      [A6 - 0x308]
000010E0  A943                     syscall    GetItmMark
000010E2  4A6E FCF8                tst.w      [A6 - 0x308]
000010E6  670C                     beq        +0xE /* 000010F4 */
000010E8  2F2D F7AC                move.l     -[A7], [A5 - 0x854]
000010EC  3F07                     move.w     -[A7], D7
000010EE  4267                     clr.w      -[A7]
000010F0  A945                     syscall    CheckItem
000010F2  7C01                     moveq.l    D6, 0x01
label000010F4:
000010F4  5247                     addq.w     D7, 1
000010F6  1006                     move.b     D0, D6
000010F8  661A                     bne        +0x1C /* 00001114 */
000010FA  2F00                     move.l     -[A7], D0
000010FC  4267                     clr.w      -[A7]
000010FE  2F2D F7AC                move.l     -[A7], [A5 - 0x854]
00001102  A950                     syscall    CountMItems
00001104  321F                     move.w     D1, [A7]+
00001106  201F                     move.l     D0, [A7]+
00001108  B247                     cmp.w      D1, D7
0000110A  5DC1                     slt        D1
0000110C  8001                     or.b       D0, D1
0000110E  0240 0001                andi.w     D0, 0x1
00001112  67C2                     beq        -0x3C /* 000010D6 */
label00001114:
00001114  2F2D F7AC                move.l     -[A7], [A5 - 0x854]
00001118  3F05                     move.w     -[A7], D5
0000111A  1F3C 0001                move.b     -[A7], 0x1
0000111E  A945                     syscall    CheckItem
00001120  2F0C                     move.l     -[A7], A4
00001122  4EBA 0CD6                jsr        [PC + 0xCD6 /* 00001DFA */]
label00001126:
00001126  4CDF 10E0                movem.l    D5,D6,D7,A4, [A7]+
0000112A  4E5E                     unlink     A6
0000112C  205F                     movea.l    A0, [A7]+
0000112E  544F                     addq.w     A7, 2
00001130  4ED0                     jmp        [A0]
export_11:
fn00001132:
00001132  4E56 FFFA                link       A6, -0x0006
00001136  48E7 0318                movem.l    -[A7], D6,D7,A3,A4
0000113A  1C2D F956                move.b     D6, [A5 - 0x6AA]
0000113E  422D F956                clr.b      [A5 - 0x6AA]
00001142  42A7                     clr.l      -[A7]
00001144  4EBA 0C72                jsr        [PC + 0xC72 /* 00001DB8 */]
00001148  265F                     movea.l    A3, [A7]+
label0000114A:
0000114A  200B                     move.l     D0, A3
0000114C  6752                     beq        +0x54 /* 000011A0 */
0000114E  4207                     clr.b      D7
00001150  0C6B 0080 006C           cmpi.w     [A3 + 0x6C], 0x80
00001156  6D34                     blt        +0x36 /* 0000118C */
00001158  4AAB 0098                tst.l      [A3 + 0x98]
0000115C  672E                     beq        +0x30 /* 0000118C */
0000115E  206B 0098                movea.l    A0, [A3 + 0x98]
00001162  2050                     movea.l    A0, [A0]
00001164  4A28 010A                tst.b      [A0 + 0x10A]
00001168  6622                     bne        +0x24 /* 0000118C */
0000116A  206B 0098                movea.l    A0, [A3 + 0x98]
0000116E  2850                     movea.l    A4, [A0]
00001170  102C 019E                move.b     D0, [A4 + 0x19E]
00001174  6716                     beq        +0x18 /* 0000118C */
00001176  7E01                     moveq.l    D7, 0x01
00001178  2F3C 0004 0002           move.l     -[A7], 0x40002
0000117E  2F2B 0098                move.l     -[A7], [A3 + 0x98]
00001182  204C                     movea.l    A0, A4
00001184  3F28 0112                move.w     -[A7], [A0 + 0x112]
00001188  4EBA 47C8                jsr        [PC + 0x47C8 /* 00005952 */]
label0000118C:
0000118C  1007                     move.b     D0, D7
0000118E  670A                     beq        +0xC /* 0000119A */
00001190  42A7                     clr.l      -[A7]
00001192  4EBA 0C24                jsr        [PC + 0xC24 /* 00001DB8 */]
00001196  265F                     movea.l    A3, [A7]+
00001198  60B0                     bra        -0x4E /* 0000114A */
label0000119A:
0000119A  266B 0090                movea.l    A3, [A3 + 0x90]
0000119E  60AA                     bra        -0x54 /* 0000114A */
label000011A0:
000011A0  1B46 F956                move.b     [A5 - 0x6AA], D6
000011A4  4CDF 18C0                movem.l    D6,D7,A3,A4, [A7]+
000011A8  4E5E                     unlink     A6
000011AA  4E75                     rts
fn000011AC:
000011AC  4E56 FFFC                link       A6, -0x0004
000011B0  48E7 0018                movem.l    -[A7], A3,A4
000011B4  42A7                     clr.l      -[A7]
000011B6  4EBA 0C00                jsr        [PC + 0xC00 /* 00001DB8 */]
000011BA  265F                     movea.l    A3, [A7]+
label000011BC:
000011BC  200B                     move.l     D0, A3
000011BE  675C                     beq        +0x5E /* 0000121C */
000011C0  0C6B 0080 006C           cmpi.w     [A3 + 0x6C], 0x80
000011C6  6D4E                     blt        +0x50 /* 00001216 */
000011C8  4AAB 0098                tst.l      [A3 + 0x98]
000011CC  6748                     beq        +0x4A /* 00001216 */
000011CE  206B 0098                movea.l    A0, [A3 + 0x98]
000011D2  2050                     movea.l    A0, [A0]
000011D4  4A28 010A                tst.b      [A0 + 0x10A]
000011D8  663C                     bne        +0x3E /* 00001216 */
000011DA  206B 0098                movea.l    A0, [A3 + 0x98]
000011DE  2850                     movea.l    A4, [A0]
000011E0  102C 019F                move.b     D0, [A4 + 0x19F]
000011E4  6730                     beq        +0x32 /* 00001216 */
000011E6  4267                     clr.w      -[A7]
000011E8  3F2C 0110                move.w     -[A7], [A4 + 0x110]
000011EC  4EBA 334E                jsr        [PC + 0x334E /* 0000453C */]
000011F0  101F                     move.b     D0, [A7]+
000011F2  0A00 0001                xori.b     D0, 0x1
000011F6  4A00                     tst.b      D0
000011F8  671C                     beq        +0x1E /* 00001216 */
000011FA  322C 0110                move.w     D1, [A4 + 0x110]
000011FE  B26D F93A                cmp.w      D1, [A5 - 0x6C6]
00001202  56C1                     sne        D1
00001204  C001                     and.b      D0, D1
00001206  670E                     beq        +0x10 /* 00001216 */
00001208  3F2C 0110                move.w     -[A7], [A4 + 0x110]
0000120C  A99A                     syscall    CloseResFile
0000120E  2F2B 0098                move.l     -[A7], [A3 + 0x98]
00001212  4EAD 0332                jsr        [A5 + 0x332 /* export_98, CODE:2 @ 00000236 */]
label00001216:
00001216  266B 0090                movea.l    A3, [A3 + 0x90]
0000121A  60A0                     bra        -0x5E /* 000011BC */
label0000121C:
0000121C  4CDF 1800                movem.l    A3,A4, [A7]+
00001220  4E5E                     unlink     A6
00001222  4E75                     rts
fn00001224:
00001224  4E56 FEE6                link       A6, -0x011A
00001228  48E7 0F18                movem.l    -[A7], D4,D5,D6,D7,A3,A4
0000122C  7000                     moveq.l    D0, 0x00
0000122E  2B40 F830                move.l     [A5 - 0x7D0], D0
00001232  422D F836                clr.b      [A5 - 0x7CA]
00001236  3E2E 000A                move.w     D7, [A6 + 0xA]
0000123A  3D6E 0008 FFFA           move.w     [A6 - 0x6], [A6 + 0x8]
00001240  7C01                     moveq.l    D6, 0x01
00001242  42A7                     clr.l      -[A7]
00001244  4EBA 0B72                jsr        [PC + 0xB72 /* 00001DB8 */]
00001248  265F                     movea.l    A3, [A7]+
0000124A  302E FFFA                move.w     D0, [A6 - 0x6]
0000124E  5340                     subq.w     D0, 1
00001250  6724                     beq        +0x26 /* 00001276 */
00001252  5340                     subq.w     D0, 1
00001254  6700 00EC                beq        +0xEE /* 00001342 */
00001258  5340                     subq.w     D0, 1
0000125A  6700 0282                beq        +0x284 /* 000014DE */
0000125E  0440 007D                subi.w     D0, 0x7D /* '}' */
00001262  6700 0254                beq        +0x256 /* 000014B8 */
00001266  5740                     subq.w     D0, 3
00001268  6700 0288                beq        +0x28A /* 000014F2 */
0000126C  5340                     subq.w     D0, 1
0000126E  6700 028A                beq        +0x28C /* 000014FA */
00001272  6000 028E                bra        +0x290 /* 00001502 */
label00001276:
00001276  7002                     moveq.l    D0, 0x02
00001278  B047                     cmp.w      D0, D7
0000127A  6C3E                     bge        +0x40 /* 000012BA */
0000127C  4267                     clr.w      -[A7]
0000127E  4EBA 49D8                jsr        [PC + 0x49D8 /* 00005C58 */]
00001282  A998                     syscall    UseResFile
00001284  42A7                     clr.l      -[A7]
00001286  3F2E FFFA                move.w     -[A7], [A6 - 0x6]
0000128A  A949                     syscall    GetMenuHandle
0000128C  3F07                     move.w     -[A7], D7
0000128E  486E FEF8                pea.l      [A6 - 0x108]
00001292  A946                     syscall    GetMenuItemText/GetItem
00001294  2F2D F82A                move.l     -[A7], [A5 - 0x7D6]
00001298  205F                     movea.l    A0, [A7]+
0000129A  A01F                     syscall    DisposPtr/DisposePtr
0000129C  1B7C 0001 F82F           move.b     [A5 - 0x7D1], 0x1
000012A2  4267                     clr.w      -[A7]
000012A4  486E FEF8                pea.l      [A6 - 0x108]
000012A8  A9B6                     syscall    OpenDeskAcc
000012AA  3D5F FFFC                move.w     [A6 - 0x4], [A7]+
000012AE  4267                     clr.w      -[A7]
000012B0  A938                     syscall    HiliteMenu
000012B2  4EBA 45D8                jsr        [PC + 0x45D8 /* 0000588C */]
000012B6  6000 026A                bra        +0x26C /* 00001522 */
label000012BA:
000012BA  4278 0A9A                clr.w      [0x00000A9A /* ACount */]
000012BE  102D F943                move.b     D0, [A5 - 0x6BD]
000012C2  6776                     beq        +0x78 /* 0000133A */
000012C4  C02D F944                and.b      D0, [A5 - 0x6BC]
000012C8  6770                     beq        +0x72 /* 0000133A */
000012CA  102D F945                move.b     D0, [A5 - 0x6BB]
000012CE  6758                     beq        +0x5A /* 00001328 */
000012D0  102D FDBF                move.b     D0, [A5 - 0x241]
000012D4  6706                     beq        +0x8 /* 000012DC */
000012D6  383C 00A8                move.w     D4, 0xA8
000012DA  6004                     bra        +0x6 /* 000012E0 */
label000012DC:
000012DC  383C 00A7                move.w     D4, 0xA7
label000012E0:
000012E0  3F3C FFFF                move.w     -[A7], 0xFFFF
000012E4  4EBA 281E                jsr        [PC + 0x281E /* 00003B04 */]
000012E8  2F3C 414C 5254           move.l     -[A7], 0x414C5254 /* 'ALRT' */
000012EE  3F04                     move.w     -[A7], D4
000012F0  4EBA 305C                jsr        [PC + 0x305C /* 0000434E */]
000012F4  4EAD 0CBA                jsr        [A5 + 0xCBA /* export_403, CODE:12 @ 00000BFC */]
000012F8  4267                     clr.w      -[A7]
000012FA  3F04                     move.w     -[A7], D4
000012FC  42A7                     clr.l      -[A7]
000012FE  A985                     syscall    Alert
00001300  7001                     moveq.l    D0, 0x01
00001302  B05F                     cmp.w      D0, [A7]+
00001304  6612                     bne        +0x14 /* 00001318 */
00001306  102D FDBF                move.b     D0, [A5 - 0x241]
0000130A  670C                     beq        +0xE /* 00001318 */
0000130C  102D FDBF                move.b     D0, [A5 - 0x241]
00001310  0A00 0001                xori.b     D0, 0x1
00001314  1B40 FDBF                move.b     [A5 - 0x241], D0
label00001318:
00001318  4EAD 0CC2                jsr        [A5 + 0xCC2 /* export_404, CODE:12 @ 00000C72 */]
0000131C  4EBA 2806                jsr        [PC + 0x2806 /* 00003B24 */]
00001320  4278 0A9A                clr.w      [0x00000A9A /* ACount */]
00001324  6000 01DC                bra        +0x1DE /* 00001502 */
label00001328:
00001328  42A7                     clr.l      -[A7]
0000132A  3F3C 0091                move.w     -[A7], 0x91
0000132E  4EBA 1900                jsr        [PC + 0x1900 /* 00002C30 */]
00001332  3D5F FFFC                move.w     [A6 - 0x4], [A7]+
00001336  6000 01CA                bra        +0x1CC /* 00001502 */
label0000133A:
0000133A  4EAD 0ACA                jsr        [A5 + 0xACA /* export_341, CODE:8 @ 0000095E */]
0000133E  6000 01C2                bra        +0x1C4 /* 00001502 */
label00001342:
00001342  4206                     clr.b      D6
00001344  3007                     move.w     D0, D7
00001346  5340                     subq.w     D0, 1
00001348  6B00 01B8                bmi        +0x1BA /* 00001502 */
0000134C  0C40 0010                cmpi.w     D0, 0x10
00001350  6E00 01B0                bgt        +0x1B2 /* 00001502 */
00001354  D040                     add.w      D0, D0
00001356  303B 0006                move.w     D0, [PC + D0.w + 0x6]
0000135A  4EFB 0000                jmp        [PC + D0.w]
0000135E  0024 002C                ori.b      -[A4], 0x2C /* ',' */
00001362  01A6                     bclr       -[A6], D0
00001364  0034 007E 00EA           ori.b      [A4 + D0.w - 0x16], 0x7E /* '~' */
0000136A  01A6                     bclr       -[A6], D0
0000136C  008A 00D2 00DA           ori.l      A2, 0xD200DA
00001372  01A6                     bclr       -[A6], D0
00001374  0114                     btst       [A4], D0
00001376  0120                     btst       -[A0], D0
00001378  01A6                     bclr       -[A6], D0
0000137A  00E2                     .incomplete
0000137C  01A6                     bclr       -[A6], D0
0000137E  0126                     btst       -[A6], D0
00001380  4EBA F278                jsr        [PC - 0xD88 /* 000005FA */]
00001384  6000 017C                bra        +0x17E /* 00001502 */
00001388  4EBA F3F6                jsr        [PC - 0xC0A /* 00000780 */]
0000138C  6000 0174                bra        +0x176 /* 00001502 */
00001390  4A6B 006C                tst.w      [A3 + 0x6C]
00001394  6C0E                     bge        +0x10 /* 000013A4 */
00001396  3F2B 006C                move.w     -[A7], [A3 + 0x6C]
0000139A  A9B7                     syscall    CloseDeskAcc
0000139C  4267                     clr.w      -[A7]
0000139E  A938                     syscall    HiliteMenu
000013A0  6000 0180                bra        +0x182 /* 00001522 */
label000013A4:
000013A4  102D F944                move.b     D0, [A5 - 0x6BC]
000013A8  672A                     beq        +0x2C /* 000013D4 */
000013AA  2A0B                     move.l     D5, A3
000013AC  42A7                     clr.l      -[A7]
000013AE  2045                     movea.l    A0, D5
000013B0  2F28 0098                move.l     -[A7], [A0 + 0x98]
000013B4  4EBA 322C                jsr        [PC + 0x322C /* 000045E2 */]
000013B8  285F                     movea.l    A4, [A7]+
000013BA  B9FC 0000 3039           cmpa.l     A4, 0x3039 /* '09' */
000013C0  6700 0140                beq        +0x142 /* 00001502 */
000013C4  2F3C 0004 0002           move.l     -[A7], 0x40002
000013CA  2F0C                     move.l     -[A7], A4
000013CC  4EBA 4712                jsr        [PC + 0x4712 /* 00005AE0 */]
000013D0  6000 0130                bra        +0x132 /* 00001502 */
label000013D4:
000013D4  7C01                     moveq.l    D6, 0x01
000013D6  6000 012A                bra        +0x12C /* 00001502 */
000013DA  4267                     clr.w      -[A7]
000013DC  4EBA EDAE                jsr        [PC - 0x1252 /* 0000018C */]
000013E0  1C1F                     move.b     D6, [A7]+
000013E2  6000 011E                bra        +0x120 /* 00001502 */
000013E6  2A0B                     move.l     D5, A3
000013E8  6700 0118                beq        +0x11A /* 00001502 */
000013EC  42A7                     clr.l      -[A7]
000013EE  2045                     movea.l    A0, D5
000013F0  2F28 0098                move.l     -[A7], [A0 + 0x98]
000013F4  4EBA 31EC                jsr        [PC + 0x31EC /* 000045E2 */]
000013F8  285F                     movea.l    A4, [A7]+
000013FA  B9FC 0000 3039           cmpa.l     A4, 0x3039 /* '09' */
00001400  6700 0100                beq        +0x102 /* 00001502 */
00001404  2F0C                     move.l     -[A7], A4
00001406  205F                     movea.l    A0, [A7]+
00001408  A029                     syscall    HLock
0000140A  2054                     movea.l    A0, [A4]
0000140C  2D48 FEE6                move.l     [A6 - 0x11A], A0
00001410  4868 0128                pea.l      [A0 + 0x128]
00001414  206E FEE6                movea.l    A0, [A6 - 0x11A]
00001418  3F28 016A                move.w     -[A7], [A0 + 0x16A]
0000141C  2F28 016C                move.l     -[A7], [A0 + 0x16C]
00001420  4EAD 0D52                jsr        [A5 + 0xD52 /* export_422, CODE:15 @ 00000210 */]
00001424  2F0C                     move.l     -[A7], A4
00001426  205F                     movea.l    A0, [A7]+
00001428  A02A                     syscall    HUnlock
0000142A  6000 00D6                bra        +0xD8 /* 00001502 */
0000142E  4EBA F4D8                jsr        [PC - 0xB28 /* 00000908 */]
00001432  6000 00CE                bra        +0xD0 /* 00001502 */
00001436  4EAD 0E9A                jsr        [A5 + 0xE9A /* export_463, CODE:22 @ 00002CBC */]
0000143A  6000 00C6                bra        +0xC8 /* 00001502 */
0000143E  4EAD 0E22                jsr        [A5 + 0xE22 /* export_448, CODE:19 @ 00000300 */]
00001442  6000 00BE                bra        +0xC0 /* 00001502 */
00001446  2A0B                     move.l     D5, A3
00001448  42A7                     clr.l      -[A7]
0000144A  2045                     movea.l    A0, D5
0000144C  2F28 0098                move.l     -[A7], [A0 + 0x98]
00001450  4EBA 3190                jsr        [PC + 0x3190 /* 000045E2 */]
00001454  285F                     movea.l    A4, [A7]+
00001456  B9FC 0000 3039           cmpa.l     A4, 0x3039 /* '09' */
0000145C  6700 00A4                beq        +0xA6 /* 00001502 */
00001460  2F3C 0006 0002           move.l     -[A7], 0x60002
00001466  2F0C                     move.l     -[A7], A4
00001468  4EAD 036A                jsr        [A5 + 0x36A /* export_105, CODE:2 @ 00001AEE */]
0000146C  6000 0094                bra        +0x96 /* 00001502 */
00001470  1F3C 0001                move.b     -[A7], 0x1
00001474  4EAD 0DEA                jsr        [A5 + 0xDEA /* export_441, CODE:17 @ 00000000 */]
00001478  6000 0088                bra        +0x8A /* 00001502 */
0000147C  7C01                     moveq.l    D6, 0x01
0000147E  6000 0082                bra        +0x84 /* 00001502 */
00001482  3F3C 0004                move.w     -[A7], 0x4
00001486  4EBA 26AC                jsr        [PC + 0x26AC /* 00003B34 */]
0000148A  1B7C 0001 F93F           move.b     [A5 - 0x6C1], 0x1
00001490  2F3C 0004 0002           move.l     -[A7], 0x40002
00001496  2F3C 0000 3039           move.l     -[A7], 0x3039 /* '09' */
0000149C  4EBA 4642                jsr        [PC + 0x4642 /* 00005AE0 */]
000014A0  102D F956                move.b     D0, [A5 - 0x6AA]
000014A4  675C                     beq        +0x5E /* 00001502 */
000014A6  422D F93F                clr.b      [A5 - 0x6C1]
000014AA  4EBA FC86                jsr        [PC - 0x37A /* 00001132 */]
000014AE  3F3C FFFF                move.w     -[A7], 0xFFFF
000014B2  4EBA 2680                jsr        [PC + 0x2680 /* 00003B34 */]
000014B6  604A                     bra        +0x4C /* 00001502 */
label000014B8:
000014B8  3007                     move.w     D0, D7
000014BA  5740                     subq.w     D0, 3
000014BC  6712                     beq        +0x14 /* 000014D0 */
000014BE  5340                     subq.w     D0, 1
000014C0  6702                     beq        +0x4 /* 000014C4 */
000014C2  603E                     bra        +0x40 /* 00001502 */
label000014C4:
000014C4  422D F943                clr.b      [A5 - 0x6BD]
000014C8  3B7C 0100 F944           move.w     [A5 - 0x6BC], 0x100
000014CE  6032                     bra        +0x34 /* 00001502 */
label000014D0:
000014D0  1B7C 0001 F943           move.b     [A5 - 0x6BD], 0x1
000014D6  1B7C 0001 F944           move.b     [A5 - 0x6BC], 0x1
000014DC  6024                     bra        +0x26 /* 00001502 */
label000014DE:
000014DE  4267                     clr.w      -[A7]
000014E0  3007                     move.w     D0, D7
000014E2  5340                     subq.w     D0, 1
000014E4  3F00                     move.w     -[A7], D0
000014E6  A9C2                     syscall    SysEdit
000014E8  101F                     move.b     D0, [A7]+
000014EA  6716                     beq        +0x18 /* 00001502 */
000014EC  4267                     clr.w      -[A7]
000014EE  A938                     syscall    HiliteMenu
000014F0  6030                     bra        +0x32 /* 00001522 */
label000014F2:
000014F2  3F07                     move.w     -[A7], D7
000014F4  4EBA FBB0                jsr        [PC - 0x450 /* 000010A6 */]
000014F8  6008                     bra        +0xA /* 00001502 */
label000014FA:
000014FA  3F07                     move.w     -[A7], D7
000014FC  4EBA 3374                jsr        [PC + 0x3374 /* 00004872 */]
00001500  4206                     clr.b      D6
label00001502:
00001502  102D F93F                move.b     D0, [A5 - 0x6C1]
00001506  0A00 0001                xori.b     D0, 0x1
0000150A  4A00                     tst.b      D0
0000150C  6710                     beq        +0x12 /* 0000151E */
0000150E  C006                     and.b      D0, D6
00001510  670C                     beq        +0xE /* 0000151E */
00001512  3F2E FFFA                move.w     -[A7], [A6 - 0x6]
00001516  3F07                     move.w     -[A7], D7
00001518  2F0B                     move.l     -[A7], A3
0000151A  4EBA 057A                jsr        [PC + 0x57A /* 00001A96 */]
label0000151E:
0000151E  4267                     clr.w      -[A7]
00001520  A938                     syscall    HiliteMenu
label00001522:
00001522  4CDF 18F0                movem.l    D4,D5,D6,D7,A3,A4, [A7]+
00001526  4E5E                     unlink     A6
00001528  2E9F                     move.l     [A7], [A7]+
0000152A  4E75                     rts
fn0000152C:
0000152C  4E56 FFD8                link       A6, -0x0028
00001530  48E7 0F18                movem.l    -[A7], D4,D5,D6,D7,A3,A4
00001534  283C 0000 02A6           move.l     D4, 0x2A6
0000153A  2044                     movea.l    A0, D4
0000153C  2D50 FFF8                move.l     [A6 - 0x8], [A0]
00001540  2D7C 0000 02AA FFF4      move.l     [A6 - 0xC], 0x2AA
00001548  206E FFF4                movea.l    A0, [A6 - 0xC]
0000154C  2650                     movea.l    A3, [A0]
0000154E  42A7                     clr.l      -[A7]
00001550  4EBA 4706                jsr        [PC + 0x4706 /* 00005C58 */]
00001554  4EAD 08AA                jsr        [A5 + 0x8AA /* export_273, CODE:4 @ 00000222 */]
00001558  3A1F                     move.w     D5, [A7]+
0000155A  4267                     clr.w      -[A7]
0000155C  A99B                     syscall    SetResLoad
0000155E  3D7C 0001 FFDE           move.w     [A6 - 0x22], 0x1
00001564  3D45 FFDC                move.w     [A6 - 0x24], D5
00001568  3E2E FFDE                move.w     D7, [A6 - 0x22]
0000156C  607A                     bra        +0x7C /* 000015E8 */
label0000156E:
0000156E  4267                     clr.w      -[A7]
00001570  4EBA 46E6                jsr        [PC + 0x46E6 /* 00005C58 */]
00001574  486E FFE0                pea.l      [A6 - 0x20]
00001578  3F07                     move.w     -[A7], D7
0000157A  4EAD 08B2                jsr        [A5 + 0x8B2 /* export_274, CODE:4 @ 0000026E */]
0000157E  203C 4452 5652           move.l     D0, 0x44525652 /* 'DRVR' */
00001584  B0AE FFE0                cmp.l      D0, [A6 - 0x20]
00001588  675A                     beq        +0x5C /* 000015E4 */
0000158A  42A7                     clr.l      -[A7]
0000158C  4EBA 46CA                jsr        [PC + 0x46CA /* 00005C58 */]
00001590  2F2E FFE0                move.l     -[A7], [A6 - 0x20]
00001594  4EAD 08BA                jsr        [A5 + 0x8BA /* export_275, CODE:4 @ 000002A8 */]
00001598  3D5F FFEE                move.w     [A6 - 0x12], [A7]+
0000159C  3D7C 0001 FFDA           move.w     [A6 - 0x26], 0x1
000015A2  3D6E FFEE FFD8           move.w     [A6 - 0x28], [A6 - 0x12]
000015A8  3C2E FFDA                move.w     D6, [A6 - 0x26]
000015AC  6030                     bra        +0x32 /* 000015DE */
label000015AE:
000015AE  42A7                     clr.l      -[A7]
000015B0  4267                     clr.w      -[A7]
000015B2  4EBA 46A4                jsr        [PC + 0x46A4 /* 00005C58 */]
000015B6  2F2E FFE0                move.l     -[A7], [A6 - 0x20]
000015BA  3F06                     move.w     -[A7], D6
000015BC  4EAD 08C2                jsr        [A5 + 0x8C2 /* export_276, CODE:4 @ 000002E4 */]
000015C0  285F                     movea.l    A4, [A7]+
000015C2  206E FFF8                movea.l    A0, [A6 - 0x8]
000015C6  B9D0                     cmpa.l     A4, [A0]
000015C8  5EC0                     sgt        D0
000015CA  4A00                     tst.b      D0
000015CC  670C                     beq        +0xE /* 000015DA */
000015CE  B9D3                     cmpa.l     A4, [A3]
000015D0  5DC1                     slt        D1
000015D2  C001                     and.b      D0, D1
000015D4  6704                     beq        +0x6 /* 000015DA */
000015D6  2F0C                     move.l     -[A7], A4
000015D8  A9A3                     syscall    ReleaseResource
label000015DA:
000015DA  5246                     addq.w     D6, 1
000015DC  6906                     bvs        +0x8 /* 000015E4 */
label000015DE:
000015DE  BC6E FFD8                cmp.w      D6, [A6 - 0x28]
000015E2  6FCA                     ble        -0x34 /* 000015AE */
label000015E4:
000015E4  5247                     addq.w     D7, 1
000015E6  6906                     bvs        +0x8 /* 000015EE */
label000015E8:
000015E8  BE6E FFDC                cmp.w      D7, [A6 - 0x24]
000015EC  6F80                     ble        -0x7E /* 0000156E */
label000015EE:
000015EE  1F3C 0001                move.b     -[A7], 0x1
000015F2  A99B                     syscall    SetResLoad
000015F4  A8FE                     syscall    InitFonts
000015F6  4CDF 18F0                movem.l    D4,D5,D6,D7,A3,A4, [A7]+
000015FA  4E5E                     unlink     A6
000015FC  4E75                     rts
export_12:
fn000015FE:
000015FE  4E56 FFF8                link       A6, -0x0008
00001602  48E7 0018                movem.l    -[A7], A3,A4
00001606  42A7                     clr.l      -[A7]
00001608  4EBA 07AE                jsr        [PC + 0x7AE /* 00001DB8 */]
0000160C  285F                     movea.l    A4, [A7]+
label0000160E:
0000160E  200C                     move.l     D0, A4
00001610  671C                     beq        +0x1E /* 0000162E */
00001612  4A6C 006C                tst.w      [A4 + 0x6C]
00001616  6C10                     bge        +0x12 /* 00001628 */
00001618  3F2C 006C                move.w     -[A7], [A4 + 0x6C]
0000161C  A9B7                     syscall    CloseDeskAcc
0000161E  42A7                     clr.l      -[A7]
00001620  4EBA 0796                jsr        [PC + 0x796 /* 00001DB8 */]
00001624  285F                     movea.l    A4, [A7]+
00001626  60E6                     bra        -0x18 /* 0000160E */
label00001628:
00001628  286C 0090                movea.l    A4, [A4 + 0x90]
0000162C  60E0                     bra        -0x1E /* 0000160E */
label0000162E:
0000162E  207C 0000 08E0           movea.l    A0, 0x8E0
00001634  20AD FDB6                move.l     [A0], [A5 - 0x24A]
00001638  207C 0000 033C           movea.l    A0, 0x33C
0000163E  20AD FDB2                move.l     [A0], [A5 - 0x24E]
00001642  4EBA 4248                jsr        [PC + 0x4248 /* 0000588C */]
00001646  4267                     clr.w      -[A7]
00001648  A99B                     syscall    SetResLoad
0000164A  42A7                     clr.l      -[A7]
0000164C  2F3C 5041 5443           move.l     -[A7], 0x50415443 /* 'PATC' */
00001652  3F3C 0003                move.w     -[A7], 0x3
00001656  A9A0                     syscall    GetResource
00001658  265F                     movea.l    A3, [A7]+
0000165A  2F2D FDD8                move.l     -[A7], [A5 - 0x228]
0000165E  3F3C A9F0                move.w     -[A7], 0xA9F0
00001662  4EAD 0532                jsr        [A5 + 0x532 /* export_162, CODE:3 @ 0000254A */]
00001666  7002                     moveq.l    D0, 0x02
00001668  B06D F7CA                cmp.w      D0, [A5 - 0x836]
0000166C  6D0C                     blt        +0xE /* 0000167A */
0000166E  2F2D FDD4                move.l     -[A7], [A5 - 0x22C]
00001672  3F3C A023                move.w     -[A7], 0xA023
00001676  4EAD 0532                jsr        [A5 + 0x532 /* export_162, CODE:3 @ 0000254A */]
label0000167A:
0000167A  200B                     move.l     D0, A3
0000167C  6704                     beq        +0x6 /* 00001682 */
0000167E  2F0B                     move.l     -[A7], A3
00001680  A9A3                     syscall    ReleaseResource
label00001682:
00001682  2F2D FD9A                move.l     -[A7], [A5 - 0x266]
00001686  3F3C A91C                move.w     -[A7], 0xA91C
0000168A  4EAD 0532                jsr        [A5 + 0x532 /* export_162, CODE:3 @ 0000254A */]
0000168E  1F3C 0001                move.b     -[A7], 0x1
00001692  A99B                     syscall    SetResLoad
00001694  4EBA FE96                jsr        [PC - 0x16A /* 0000152C */]
00001698  4CDF 1800                movem.l    A3,A4, [A7]+
0000169C  4E5E                     unlink     A6
0000169E  4E75                     rts
export_13:
fn000016A0:
000016A0  4E56 FDF2                link       A6, -0x020E
000016A4  48E7 0718                movem.l    -[A7], D5,D6,D7,A3,A4
000016A8  422E FF00                clr.b      [A6 - 0x100]
000016AC  42A7                     clr.l      -[A7]
000016AE  4EBA 0708                jsr        [PC + 0x708 /* 00001DB8 */]
000016B2  265F                     movea.l    A3, [A7]+
000016B4  200B                     move.l     D0, A3
000016B6  6700 014E                beq        +0x150 /* 00001806 */
000016BA  0C6B 0080 006C           cmpi.w     [A3 + 0x6C], 0x80
000016C0  6C38                     bge        +0x3A /* 000016FA */
000016C2  3F3C 0080                move.w     -[A7], 0x80
000016C6  2F3C FFFF FE00           move.l     -[A7], 0xFFFFFE00
000016CC  4EBA 41DA                jsr        [PC + 0x41DA /* 000058A8 */]
000016D0  3F3C 0002                move.w     -[A7], 0x2
000016D4  2F3C 0002 061F           move.l     -[A7], 0x2061F
000016DA  4EBA 41CC                jsr        [PC + 0x41CC /* 000058A8 */]
000016DE  3F3C 0003                move.w     -[A7], 0x3
000016E2  2F3C FFFF F87B           move.l     -[A7], 0xFFFFF87B
000016E8  4EBA 41BE                jsr        [PC + 0x41BE /* 000058A8 */]
000016EC  3F3C 0083                move.w     -[A7], 0x83
000016F0  42A7                     clr.l      -[A7]
000016F2  4EBA 41B4                jsr        [PC + 0x41B4 /* 000058A8 */]
000016F6  6000 0142                bra        +0x144 /* 0000183A */
label000016FA:
000016FA  3F3C 0083                move.w     -[A7], 0x83
000016FE  70FF                     moveq.l    D0, 0xFFFFFFFF
00001700  2F00                     move.l     -[A7], D0
00001702  4EBA 41A4                jsr        [PC + 0x41A4 /* 000058A8 */]
00001706  42A7                     clr.l      -[A7]
00001708  2F2B 0098                move.l     -[A7], [A3 + 0x98]
0000170C  4EBA 2ED4                jsr        [PC + 0x2ED4 /* 000045E2 */]
00001710  2E1F                     move.l     D7, [A7]+
00001712  0C87 0000 3039           cmpi.l     D7, 0x3039 /* '09' */
00001718  6644                     bne        +0x46 /* 0000175E */
0000171A  2C2B 0098                move.l     D6, [A3 + 0x98]
0000171E  2046                     movea.l    A0, D6
00001720  2050                     movea.l    A0, [A0]
00001722  1028 0120                move.b     D0, [A0 + 0x120]
00001726  671A                     beq        +0x1C /* 00001742 */
00001728  3F3C 0002                move.w     -[A7], 0x2
0000172C  2F3C 0002 B77F           move.l     -[A7], 0x2B77F
00001732  4EBA 4174                jsr        [PC + 0x4174 /* 000058A8 */]
00001736  2F2D F7B8                move.l     -[A7], [A5 - 0x848]
0000173A  3F3C 0006                move.w     -[A7], 0x6
0000173E  A93A                     syscall    DisableItem
00001740  600E                     bra        +0x10 /* 00001750 */
label00001742:
00001742  3F3C 0002                move.w     -[A7], 0x2
00001746  2F3C 0002 B71F           move.l     -[A7], 0x2B71F
0000174C  4EBA 415A                jsr        [PC + 0x415A /* 000058A8 */]
label00001750:
00001750  2F2D F7B8                move.l     -[A7], [A5 - 0x848]
00001754  3F3C 0008                move.w     -[A7], 0x8
00001758  A93A                     syscall    DisableItem
0000175A  6000 00DE                bra        +0xE0 /* 0000183A */
label0000175E:
0000175E  2F07                     move.l     -[A7], D7
00001760  205F                     movea.l    A0, [A7]+
00001762  A029                     syscall    HLock
00001764  2047                     movea.l    A0, D7
00001766  2850                     movea.l    A4, [A0]
00001768  4267                     clr.w      -[A7]
0000176A  3F2C 0110                move.w     -[A7], [A4 + 0x110]
0000176E  A9F6                     syscall    GetResFileAttrs
00001770  3A1F                     move.w     D5, [A7]+
00001772  7000                     moveq.l    D0, 0x00
00001774  3005                     move.w     D0, D5
00001776  C0BC 0000 0020           and.l      D0, 0x20 /* ' ' */
0000177C  7220                     moveq.l    D1, 0x20
0000177E  B280                     cmp.l      D1, D0
00001780  57C0                     seq        D0
00001782  4A00                     tst.b      D0
00001784  671C                     beq        +0x1E /* 000017A2 */
00001786  122C 0199                move.b     D1, [A4 + 0x199]
0000178A  0A01 0001                xori.b     D1, 0x1
0000178E  C001                     and.b      D0, D1
00001790  6710                     beq        +0x12 /* 000017A2 */
00001792  3F3C 0002                move.w     -[A7], 0x2
00001796  2F3C 0002 B77F           move.l     -[A7], 0x2B77F
0000179C  4EBA 410A                jsr        [PC + 0x410A /* 000058A8 */]
000017A0  600E                     bra        +0x10 /* 000017B0 */
label000017A2:
000017A2  3F3C 0002                move.w     -[A7], 0x2
000017A6  2F3C 0002 B71F           move.l     -[A7], 0x2B71F
000017AC  4EBA 40FA                jsr        [PC + 0x40FA /* 000058A8 */]
label000017B0:
000017B0  102C 0199                move.b     D0, [A4 + 0x199]
000017B4  670A                     beq        +0xC /* 000017C0 */
000017B6  2F2D F7B0                move.l     -[A7], [A5 - 0x850]
000017BA  3F3C 0006                move.w     -[A7], 0x6
000017BE  A93A                     syscall    DisableItem
label000017C0:
000017C0  2F2D F7B8                move.l     -[A7], [A5 - 0x848]
000017C4  3F3C 0008                move.w     -[A7], 0x8
000017C8  A939                     syscall    EnableItem
000017CA  3F3C 0014                move.w     -[A7], 0x14
000017CE  487A 00A6                pea.l      [PC + 0xA6 /* 00001876, value 0x44D6973, pstring "Misc" */]
000017D2  486E FF00                pea.l      [A6 - 0x100]
000017D6  4EBA 4502                jsr        [PC + 0x4502 /* 00005CDA */]
000017DA  486E FF00                pea.l      [A6 - 0x100]
000017DE  486C 0128                pea.l      [A4 + 0x128]
000017E2  486E FDF2                pea.l      [A6 - 0x20E]
000017E6  3F3C 0002                move.w     -[A7], 0x2
000017EA  4EAD 03AA                jsr        [A5 + 0x3AA /* export_113, CODE:3 @ 000001C2 */]
000017EE  41EE FF00                lea.l      A0, [A6 - 0x100]
000017F2  43EE FDF2                lea.l      A1, [A6 - 0x20E]
000017F6  707F                     moveq.l    D0, 0x7F
label000017F8:
000017F8  30D9                     move.w     [A0]+, [A1]+
000017FA  51C8 FFFC                dbf        D0, -0x6 /* 000017F8 */
000017FE  2F07                     move.l     -[A7], D7
00001800  205F                     movea.l    A0, [A7]+
00001802  A02A                     syscall    HUnlock
00001804  6034                     bra        +0x36 /* 0000183A */
label00001806:
00001806  3F3C 0080                move.w     -[A7], 0x80
0000180A  2F3C FFFF FE00           move.l     -[A7], 0xFFFFFE00
00001810  4EBA 4096                jsr        [PC + 0x4096 /* 000058A8 */]
00001814  3F3C 0002                move.w     -[A7], 0x2
00001818  2F3C 0002 960F           move.l     -[A7], 0x2960F
0000181E  4EBA 4088                jsr        [PC + 0x4088 /* 000058A8 */]
00001822  3F3C 0003                move.w     -[A7], 0x3
00001826  2F3C FFFF F800           move.l     -[A7], 0xFFFFF800
0000182C  4EBA 407A                jsr        [PC + 0x407A /* 000058A8 */]
00001830  3F3C 0083                move.w     -[A7], 0x83
00001834  42A7                     clr.l      -[A7]
00001836  4EBA 4070                jsr        [PC + 0x4070 /* 000058A8 */]
label0000183A:
0000183A  4A2E FF00                tst.b      [A6 - 0x100]
0000183E  6610                     bne        +0x12 /* 00001850 */
00001840  3F3C 0020                move.w     -[A7], 0x20 /* ' ' */
00001844  487A 0030                pea.l      [PC + 0x30 /* 00001876, value 0x44D6973, pstring "Misc" */]
00001848  486E FF00                pea.l      [A6 - 0x100]
0000184C  4EBA 448C                jsr        [PC + 0x448C /* 00005CDA */]
label00001850:
00001850  2F2D F7B8                move.l     -[A7], [A5 - 0x848]
00001854  3F3C 0008                move.w     -[A7], 0x8
00001858  486E FF00                pea.l      [A6 - 0x100]
0000185C  A947                     syscall    SetMenuItemText/SetItem
0000185E  102D FDAD                move.b     D0, [A5 - 0x253]
00001862  6706                     beq        +0x8 /* 0000186A */
00001864  4EBA F596                jsr        [PC - 0xA6A /* 00000DFC */]
00001868  6004                     bra        +0x6 /* 0000186E */
label0000186A:
0000186A  4EBA F7DA                jsr        [PC - 0x826 /* 00001046 */]
label0000186E:
0000186E  4CDF 18E0                movem.l    D5,D6,D7,A3,A4, [A7]+
00001872  4E5E                     unlink     A6
00001874  4E75                     rts
00001876  044D 6973                subi.w     A5, 0x6973 /* 'is' */
0000187A  6300 4E56                bls        +0x4E58 /* 000066D2 */
// begin alternate branch 0000187C-00001880
export_14:
fn0000187C:
0000187C  4E56 FFFE                link       A6, -0x0002
// end alternate branch 0000187C-00001880
export_14: // at 0000187C (misaligned)
fn0000187C: // (misaligned)
0000187E  FFFE                     .invalid   <<F/7/7>>
00001880  2F07                     move.l     -[A7], D7
00001882  7EFF                     moveq.l    D7, 0xFFFFFFFF
00001884  102D F944                move.b     D0, [A5 - 0x6BC]
00001888  671C                     beq        +0x1E /* 000018A6 */
0000188A  C02D F943                and.b      D0, [A5 - 0x6BD]
0000188E  6716                     beq        +0x18 /* 000018A6 */
00001890  2F3C 0080 0000           move.l     -[A7], 0x800000
00001896  3F3C 0003                move.w     -[A7], 0x3
0000189A  4EBA 4340                jsr        [PC + 0x4340 /* 00005BDC */]
0000189E  101F                     move.b     D0, [A7]+
000018A0  6734                     beq        +0x36 /* 000018D6 */
000018A2  7E03                     moveq.l    D7, 0x03
000018A4  6030                     bra        +0x32 /* 000018D6 */
label000018A6:
000018A6  102D F944                move.b     D0, [A5 - 0x6BC]
000018AA  6716                     beq        +0x18 /* 000018C2 */
000018AC  2F3C 0080 0000           move.l     -[A7], 0x800000
000018B2  3F3C 0004                move.w     -[A7], 0x4
000018B6  4EBA 4324                jsr        [PC + 0x4324 /* 00005BDC */]
000018BA  101F                     move.b     D0, [A7]+
000018BC  6718                     beq        +0x1A /* 000018D6 */
000018BE  7E04                     moveq.l    D7, 0x04
000018C0  6014                     bra        +0x16 /* 000018D6 */
label000018C2:
000018C2  2F3C 0080 0000           move.l     -[A7], 0x800000
000018C8  3F3C 0002                move.w     -[A7], 0x2
000018CC  4EBA 430E                jsr        [PC + 0x430E /* 00005BDC */]
000018D0  101F                     move.b     D0, [A7]+
000018D2  6702                     beq        +0x4 /* 000018D6 */
000018D4  7E02                     moveq.l    D7, 0x02
label000018D6:
000018D6  70FF                     moveq.l    D0, 0xFFFFFFFF
000018D8  B047                     cmp.w      D0, D7
000018DA  6710                     beq        +0x12 /* 000018EC */
000018DC  3F3C 0080                move.w     -[A7], 0x80
000018E0  3F07                     move.w     -[A7], D7
000018E2  42A7                     clr.l      -[A7]
000018E4  4EBA 04D2                jsr        [PC + 0x4D2 /* 00001DB8 */]
000018E8  4EBA 01AC                jsr        [PC + 0x1AC /* 00001A96 */]
label000018EC:
000018EC  70FF                     moveq.l    D0, 0xFFFFFFFF
000018EE  B047                     cmp.w      D0, D7
000018F0  56C0                     sne        D0
000018F2  4400                     neg.b      D0
000018F4  1D40 0008                move.b     [A6 + 0x8], D0
000018F8  2E1F                     move.l     D7, [A7]+
000018FA  4E5E                     unlink     A6
000018FC  4E75                     rts
fn000018FE:
000018FE  4E56 FFFC                link       A6, -0x0004
00001902  48E7 0308                movem.l    -[A7], D6,D7,A4
00001906  286E 0008                movea.l    A4, [A6 + 0x8]
0000190A  203C 0000 FF00           move.l     D0, 0xFF00
00001910  C094                     and.l      D0, [A4]
00001912  E088                     lsr        D0, 8
00001914  3C00                     move.w     D6, D0
00001916  4247                     clr.w      D7
00001918  3006                     move.w     D0, D6
0000191A  5F40                     subq.w     D0, 7
0000191C  6756                     beq        +0x58 /* 00001974 */
0000191E  5340                     subq.w     D0, 1
00001920  6762                     beq        +0x64 /* 00001984 */
00001922  5B40                     subq.w     D0, 5
00001924  677E                     beq        +0x80 /* 000019A4 */
00001926  0440 001B                subi.w     D0, 0x1B
0000192A  6768                     beq        +0x6A /* 00001994 */
0000192C  0440 001F                subi.w     D0, 0x1F
00001930  673E                     beq        +0x40 /* 00001970 */
00001932  0440 001C                subi.w     D0, 0x1C
00001936  6728                     beq        +0x2A /* 00001960 */
00001938  0440 0010                subi.w     D0, 0x10
0000193C  6776                     beq        +0x78 /* 000019B4 */
0000193E  5340                     subq.w     D0, 1
00001940  6726                     beq        +0x28 /* 00001968 */
00001942  5540                     subq.w     D0, 2
00001944  671E                     beq        +0x20 /* 00001964 */
00001946  5340                     subq.w     D0, 1
00001948  6774                     beq        +0x76 /* 000019BE */
0000194A  5340                     subq.w     D0, 1
0000194C  670E                     beq        +0x10 /* 0000195C */
0000194E  5340                     subq.w     D0, 1
00001950  671A                     beq        +0x1C /* 0000196C */
00001952  5340                     subq.w     D0, 1
00001954  6702                     beq        +0x4 /* 00001958 */
00001956  606E                     bra        +0x70 /* 000019C6 */
label00001958:
00001958  7E7A                     moveq.l    D7, 0x7A
0000195A  606A                     bra        +0x6C /* 000019C6 */
label0000195C:
0000195C  7E78                     moveq.l    D7, 0x78
0000195E  6066                     bra        +0x68 /* 000019C6 */
label00001960:
00001960  7E63                     moveq.l    D7, 0x63
00001962  6062                     bra        +0x64 /* 000019C6 */
label00001964:
00001964  7E76                     moveq.l    D7, 0x76
00001966  605E                     bra        +0x60 /* 000019C6 */
label00001968:
00001968  7E1E                     moveq.l    D7, 0x1E
0000196A  605A                     bra        +0x5C /* 000019C6 */
label0000196C:
0000196C  7E1F                     moveq.l    D7, 0x1F
0000196E  6056                     bra        +0x58 /* 000019C6 */
label00001970:
00001970  7E08                     moveq.l    D7, 0x08
00001972  6052                     bra        +0x54 /* 000019C6 */
label00001974:
00001974  102D F943                move.b     D0, [A5 - 0x6BD]
00001978  674C                     beq        +0x4E /* 000019C6 */
0000197A  C02D F944                and.b      D0, [A5 - 0x6BC]
0000197E  6746                     beq        +0x48 /* 000019C6 */
00001980  7E78                     moveq.l    D7, 0x78
00001982  6042                     bra        +0x44 /* 000019C6 */
label00001984:
00001984  102D F943                move.b     D0, [A5 - 0x6BD]
00001988  673C                     beq        +0x3E /* 000019C6 */
0000198A  C02D F944                and.b      D0, [A5 - 0x6BC]
0000198E  6736                     beq        +0x38 /* 000019C6 */
00001990  7E63                     moveq.l    D7, 0x63
00001992  6032                     bra        +0x34 /* 000019C6 */
label00001994:
00001994  102D F943                move.b     D0, [A5 - 0x6BD]
00001998  672C                     beq        +0x2E /* 000019C6 */
0000199A  C02D F944                and.b      D0, [A5 - 0x6BC]
0000199E  6726                     beq        +0x28 /* 000019C6 */
000019A0  7E6B                     moveq.l    D7, 0x6B
000019A2  6022                     bra        +0x24 /* 000019C6 */
label000019A4:
000019A4  102D F943                move.b     D0, [A5 - 0x6BD]
000019A8  671C                     beq        +0x1E /* 000019C6 */
000019AA  C02D F944                and.b      D0, [A5 - 0x6BC]
000019AE  6716                     beq        +0x18 /* 000019C6 */
000019B0  7E77                     moveq.l    D7, 0x77
000019B2  6012                     bra        +0x14 /* 000019C6 */
label000019B4:
000019B4  1B7C 0001 F945           move.b     [A5 - 0x6BB], 0x1
000019BA  7E1E                     moveq.l    D7, 0x1E
000019BC  6008                     bra        +0xA /* 000019C6 */
label000019BE:
000019BE  1B7C 0001 F945           move.b     [A5 - 0x6BB], 0x1
000019C4  7E1F                     moveq.l    D7, 0x1F
label000019C6:
000019C6  4A47                     tst.w      D7
000019C8  672C                     beq        +0x2E /* 000019F6 */
000019CA  7008                     moveq.l    D0, 0x08
000019CC  B047                     cmp.w      D0, D7
000019CE  6606                     bne        +0x8 /* 000019D6 */
000019D0  422D F943                clr.b      [A5 - 0x6BD]
000019D4  6006                     bra        +0x8 /* 000019DC */
label000019D6:
000019D6  1B7C 0001 F943           move.b     [A5 - 0x6BD], 0x1
label000019DC:
000019DC  1B7C 0001 F942           move.b     [A5 - 0x6BE], 0x1
000019E2  203C 0000 00FF           move.l     D0, 0xFF
000019E8  4680                     not.l      D0
000019EA  C094                     and.l      D0, [A4]
000019EC  7200                     moveq.l    D1, 0x00
000019EE  3207                     move.w     D1, D7
000019F0  8081                     or.l       D0, D1
000019F2  2880                     move.l     [A4], D0
000019F4  600A                     bra        +0xC /* 00001A00 */
label000019F6:
000019F6  203C 0000 00FF           move.l     D0, 0xFF
000019FC  C094                     and.l      D0, [A4]
000019FE  3E00                     move.w     D7, D0
label00001A00:
00001A00  3D47 000C                move.w     [A6 + 0xC], D7
00001A04  4CDF 10C0                movem.l    D6,D7,A4, [A7]+
00001A08  4E5E                     unlink     A6
00001A0A  2E9F                     move.l     [A7], [A7]+
00001A0C  4E75                     rts
export_15:
fn00001A0E:
00001A0E  4E56 FFEA                link       A6, -0x0016
00001A12  48E7 0308                movem.l    -[A7], D6,D7,A4
00001A16  206E 000C                movea.l    A0, [A6 + 0xC]
00001A1A  43EE FFF0                lea.l      A1, [A6 - 0x10]
00001A1E  7007                     moveq.l    D0, 0x07
label00001A20:
00001A20  32D8                     move.w     [A1]+, [A0]+
00001A22  51C8 FFFC                dbf        D0, -0x6 /* 00001A20 */
00001A26  4AAE 0008                tst.l      [A6 + 0x8]
00001A2A  675E                     beq        +0x60 /* 00001A8A */
00001A2C  286E 0008                movea.l    A4, [A6 + 0x8]
00001A30  0C6C 0080 006C           cmpi.w     [A4 + 0x6C], 0x80
00001A36  6D52                     blt        +0x54 /* 00001A8A */
00001A38  206C 0098                movea.l    A0, [A4 + 0x98]
00001A3C  2050                     movea.l    A0, [A0]
00001A3E  7006                     moveq.l    D0, 0x06
00001A40  B028 010A                cmp.b      D0, [A0 + 0x10A]
00001A44  6610                     bne        +0x12 /* 00001A56 */
00001A46  206C 0098                movea.l    A0, [A4 + 0x98]
00001A4A  2050                     movea.l    A0, [A0]
00001A4C  2068 0114                movea.l    A0, [A0 + 0x114]
00001A50  2E28 0098                move.l     D7, [A0 + 0x98]
00001A54  6004                     bra        +0x6 /* 00001A5A */
label00001A56:
00001A56  2E2C 0098                move.l     D7, [A4 + 0x98]
label00001A5A:
00001A5A  4267                     clr.w      -[A7]
00001A5C  2F07                     move.l     -[A7], D7
00001A5E  4EAD 0662                jsr        [A5 + 0x662 /* export_200, CODE:3 @ 00002AEC */]
00001A62  1C1F                     move.b     D6, [A7]+
00001A64  486E FFF0                pea.l      [A6 - 0x10]
00001A68  2F07                     move.l     -[A7], D7
00001A6A  2047                     movea.l    A0, D7
00001A6C  2050                     movea.l    A0, [A0]
00001A6E  3F28 0112                move.w     -[A7], [A0 + 0x112]
00001A72  4EBA 3EDC                jsr        [PC + 0x3EDC /* 00005950 */]
00001A76  7000                     moveq.l    D0, 0x00
00001A78  1006                     move.b     D0, D6
00001A7A  C0BC 0000 0080           and.l      D0, 0x80
00001A80  4A80                     tst.l      D0
00001A82  6706                     beq        +0x8 /* 00001A8A */
00001A84  2F07                     move.l     -[A7], D7
00001A86  205F                     movea.l    A0, [A7]+
00001A88  A029                     syscall    HLock
label00001A8A:
00001A8A  4CDF 10C0                movem.l    D6,D7,A4, [A7]+
00001A8E  4E5E                     unlink     A6
00001A90  205F                     movea.l    A0, [A7]+
00001A92  504F                     addq.w     A7, 8
00001A94  4ED0                     jmp        [A0]
export_16:
fn00001A96:
00001A96  4E56 FFE0                link       A6, -0x0020
00001A9A  48E7 0F18                movem.l    -[A7], D4,D5,D6,D7,A3,A4
00001A9E  282E 0008                move.l     D4, [A6 + 0x8]
00001AA2  6700 010A                beq        +0x10C /* 00001BAE */
00001AA6  2844                     movea.l    A4, D4
00001AA8  0C6C 0080 006C           cmpi.w     [A4 + 0x6C], 0x80
00001AAE  6D00 00FE                blt        +0x100 /* 00001BAE */
00001AB2  206C 0098                movea.l    A0, [A4 + 0x98]
00001AB6  2050                     movea.l    A0, [A0]
00001AB8  7006                     moveq.l    D0, 0x06
00001ABA  B028 010A                cmp.b      D0, [A0 + 0x10A]
00001ABE  6610                     bne        +0x12 /* 00001AD0 */
00001AC0  206C 0098                movea.l    A0, [A4 + 0x98]
00001AC4  2050                     movea.l    A0, [A0]
00001AC6  2068 0114                movea.l    A0, [A0 + 0x114]
00001ACA  2E28 0098                move.l     D7, [A0 + 0x98]
00001ACE  6004                     bra        +0x6 /* 00001AD4 */
label00001AD0:
00001AD0  2E2C 0098                move.l     D7, [A4 + 0x98]
label00001AD4:
00001AD4  4267                     clr.w      -[A7]
00001AD6  2F07                     move.l     -[A7], D7
00001AD8  4EAD 0662                jsr        [A5 + 0x662 /* export_200, CODE:3 @ 00002AEC */]
00001ADC  1D5F FFFF                move.b     [A6 - 0x1], [A7]+
00001AE0  7A01                     moveq.l    D5, 0x01
00001AE2  7002                     moveq.l    D0, 0x02
00001AE4  B06E 000E                cmp.w      D0, [A6 + 0xE]
00001AE8  57C0                     seq        D0
00001AEA  4A00                     tst.b      D0
00001AEC  674E                     beq        +0x50 /* 00001B3C */
00001AEE  7204                     moveq.l    D1, 0x04
00001AF0  B26E 000C                cmp.w      D1, [A6 + 0xC]
00001AF4  57C1                     seq        D1
00001AF6  C001                     and.b      D0, D1
00001AF8  6742                     beq        +0x44 /* 00001B3C */
00001AFA  2044                     movea.l    A0, D4
00001AFC  2068 0076                movea.l    A0, [A0 + 0x76]
00001B00  2050                     movea.l    A0, [A0]
00001B02  43EE FFE2                lea.l      A1, [A6 - 0x1E]
00001B06  5488                     addq.l     A0, 2
00001B08  7003                     moveq.l    D0, 0x03
label00001B0A:
00001B0A  32D8                     move.w     [A1]+, [A0]+
00001B0C  51C8 FFFC                dbf        D0, -0x6 /* 00001B0A */
00001B10  2B44 F7BC                move.l     [A5 - 0x844], D4
00001B14  422D F7C0                clr.b      [A5 - 0x840]
00001B18  2047                     movea.l    A0, D7
00001B1A  2050                     movea.l    A0, [A0]
00001B1C  2650                     movea.l    A3, [A0]
00001B1E  200B                     move.l     D0, A3
00001B20  56C0                     sne        D0
00001B22  4A00                     tst.b      D0
00001B24  6714                     beq        +0x16 /* 00001B3A */
00001B26  B7FC 0000 3039           cmpa.l     A3, 0x3039 /* '09' */
00001B2C  56C1                     sne        D1
00001B2E  C001                     and.b      D0, D1
00001B30  6708                     beq        +0xA /* 00001B3A */
00001B32  2053                     movea.l    A0, [A3]
00001B34  2C28 0104                move.l     D6, [A0 + 0x104]
00001B38  6002                     bra        +0x4 /* 00001B3C */
label00001B3A:
00001B3A  7C00                     moveq.l    D6, 0x00
label00001B3C:
00001B3C  2F2E 000C                move.l     -[A7], [A6 + 0xC]
00001B40  2F07                     move.l     -[A7], D7
00001B42  2047                     movea.l    A0, D7
00001B44  2050                     movea.l    A0, [A0]
00001B46  3F28 0112                move.w     -[A7], [A0 + 0x112]
00001B4A  4EBA 3E06                jsr        [PC + 0x3E06 /* 00005952 */]
00001B4E  7002                     moveq.l    D0, 0x02
00001B50  B06E 000E                cmp.w      D0, [A6 + 0xE]
00001B54  57C0                     seq        D0
00001B56  4A00                     tst.b      D0
00001B58  6736                     beq        +0x38 /* 00001B90 */
00001B5A  7204                     moveq.l    D1, 0x04
00001B5C  B26E 000C                cmp.w      D1, [A6 + 0xC]
00001B60  57C1                     seq        D1
00001B62  C001                     and.b      D0, D1
00001B64  672A                     beq        +0x2C /* 00001B90 */
00001B66  102D F956                move.b     D0, [A5 - 0x6AA]
00001B6A  6624                     bne        +0x26 /* 00001B90 */
00001B6C  4205                     clr.b      D5
00001B6E  4A86                     tst.l      D6
00001B70  56C0                     sne        D0
00001B72  122D F7C0                move.b     D1, [A5 - 0x840]
00001B76  0A01 0001                xori.b     D1, 0x1
00001B7A  C001                     and.b      D0, D1
00001B7C  6712                     beq        +0x14 /* 00001B90 */
00001B7E  2F06                     move.l     -[A7], D6
00001B80  486E FFEA                pea.l      [A6 - 0x16]
00001B84  2F04                     move.l     -[A7], D4
00001B86  486E FFE2                pea.l      [A6 - 0x1E]
00001B8A  4267                     clr.w      -[A7]
00001B8C  4EBA 353A                jsr        [PC + 0x353A /* 000050C8 */]
label00001B90:
00001B90  1005                     move.b     D0, D5
00001B92  671A                     beq        +0x1C /* 00001BAE */
00001B94  7200                     moveq.l    D1, 0x00
00001B96  122E FFFF                move.b     D1, [A6 - 0x1]
00001B9A  C2BC 0000 0080           and.l      D1, 0x80
00001BA0  4A81                     tst.l      D1
00001BA2  56C1                     sne        D1
00001BA4  C001                     and.b      D0, D1
00001BA6  6706                     beq        +0x8 /* 00001BAE */
00001BA8  2F07                     move.l     -[A7], D7
00001BAA  205F                     movea.l    A0, [A7]+
00001BAC  A029                     syscall    HLock
label00001BAE:
00001BAE  4CDF 18F0                movem.l    D4,D5,D6,D7,A3,A4, [A7]+
00001BB2  4E5E                     unlink     A6
00001BB4  205F                     movea.l    A0, [A7]+
00001BB6  504F                     addq.w     A7, 8
00001BB8  4ED0                     jmp        [A0]
fn00001BBA:
00001BBA  4E56 0000                link       A6, 0
00001BBE  206E 0008                movea.l    A0, [A6 + 0x8]
00001BC2  317C 0001 FFB8           move.w     [A0 - 0x48], 0x1
00001BC8  206E 0008                movea.l    A0, [A6 + 0x8]
00001BCC  7000                     moveq.l    D0, 0x00
00001BCE  2140 FFBA                move.l     [A0 - 0x46], D0
00001BD2  4E5E                     unlink     A6
00001BD4  2E9F                     move.l     [A7], [A7]+
00001BD6  4E75                     rts
fn00001BD8:
00001BD8  4E56 0000                link       A6, 0
00001BDC  2F0C                     move.l     -[A7], A4
00001BDE  286E 0008                movea.l    A4, [A6 + 0x8]
00001BE2  302C FFB8                move.w     D0, [A4 - 0x48]
00001BE6  E540                     asl        D0.w, 2
00001BE8  29AE 000C 00BA           move.l     [A4 + D0.w - 0x46], [A6 + 0xC]
00001BEE  526C FFB8                addq.w     [A4 - 0x48], 1
00001BF2  285F                     movea.l    A4, [A7]+
00001BF4  4E5E                     unlink     A6
00001BF6  205F                     movea.l    A0, [A7]+
00001BF8  504F                     addq.w     A7, 8
00001BFA  4ED0                     jmp        [A0]
fn00001BFC:
00001BFC  4E56 0000                link       A6, 0
00001C00  2F0C                     move.l     -[A7], A4
00001C02  286E 0008                movea.l    A4, [A6 + 0x8]
00001C06  536C FFB8                subq.w     [A4 - 0x48], 1
00001C0A  4A6C FFB8                tst.w      [A4 - 0x48]
00001C0E  6C04                     bge        +0x6 /* 00001C14 */
00001C10  426C FFB8                clr.w      [A4 - 0x48]
label00001C14:
00001C14  302C FFB8                move.w     D0, [A4 - 0x48]
00001C18  E540                     asl        D0.w, 2
00001C1A  2D74 00BA 000C           move.l     [A6 + 0xC], [A4 + D0.w - 0x46]
00001C20  285F                     movea.l    A4, [A7]+
00001C22  4E5E                     unlink     A6
00001C24  2E9F                     move.l     [A7], [A7]+
00001C26  4E75                     rts
export_17:
fn00001C28:
00001C28  4E56 FFB8                link       A6, -0x0048
00001C2C  48E7 0118                movem.l    -[A7], D7,A3,A4
00001C30  206E 0008                movea.l    A0, [A6 + 0x8]
00001C34  43EE FFF0                lea.l      A1, [A6 - 0x10]
00001C38  7007                     moveq.l    D0, 0x07
label00001C3A:
00001C3A  32D8                     move.w     [A1]+, [A0]+
00001C3C  51C8 FFFC                dbf        D0, -0x6 /* 00001C3A */
00001C40  266E FFF2                movea.l    A3, [A6 - 0xE]
00001C44  0C6B 0080 006C           cmpi.w     [A3 + 0x6C], 0x80
00001C4A  6D00 0162                blt        +0x164 /* 00001DAE */
00001C4E  206B 0098                movea.l    A0, [A3 + 0x98]
00001C52  2050                     movea.l    A0, [A0]
00001C54  1E28 010A                move.b     D7, [A0 + 0x10A]
00001C58  7005                     moveq.l    D0, 0x05
00001C5A  B007                     cmp.b      D0, D7
00001C5C  57C0                     seq        D0
00001C5E  4A00                     tst.b      D0
00001C60  660C                     bne        +0xE /* 00001C6E */
00001C62  7206                     moveq.l    D1, 0x06
00001C64  B207                     cmp.b      D1, D7
00001C66  57C1                     seq        D1
00001C68  8001                     or.b       D0, D1
00001C6A  6700 0118                beq        +0x11A /* 00001D84 */
label00001C6E:
00001C6E  7006                     moveq.l    D0, 0x06
00001C70  B007                     cmp.b      D0, D7
00001C72  663C                     bne        +0x3E /* 00001CB0 */
00001C74  102E FFFF                move.b     D0, [A6 - 0x1]
00001C78  0240 0001                andi.w     D0, 0x1
00001C7C  6726                     beq        +0x28 /* 00001CA4 */
00001C7E  2F0B                     move.l     -[A7], A3
00001C80  A920                     syscall    BringToFront
00001C82  2F0B                     move.l     -[A7], A3
00001C84  1F3C 0001                move.b     -[A7], 0x1
00001C88  A908                     syscall    ShowHide
00001C8A  2F0B                     move.l     -[A7], A3
00001C8C  1F3C 0001                move.b     -[A7], 0x1
00001C90  A91C                     syscall    HiliteWindow
00001C92  206B 0098                movea.l    A0, [A3 + 0x98]
00001C96  2050                     movea.l    A0, [A0]
00001C98  2F28 0114                move.l     -[A7], [A0 + 0x114]
00001C9C  1F3C 0001                move.b     -[A7], 0x1
00001CA0  A91C                     syscall    HiliteWindow
00001CA2  600C                     bra        +0xE /* 00001CB0 */
label00001CA4:
00001CA4  7E05                     moveq.l    D7, 0x05
00001CA6  206B 0098                movea.l    A0, [A3 + 0x98]
00001CAA  2050                     movea.l    A0, [A0]
00001CAC  2668 0114                movea.l    A3, [A0 + 0x114]
label00001CB0:
00001CB0  7006                     moveq.l    D0, 0x06
00001CB2  B007                     cmp.b      D0, D7
00001CB4  6700 00B0                beq        +0xB2 /* 00001D66 */
00001CB8  2F0E                     move.l     -[A7], A6
00001CBA  4EBA FEFE                jsr        [PC - 0x102 /* 00001BBA */]
00001CBE  2878 09D6                movea.l    A4, [0x000009D6 /* WindowList */]
label00001CC2:
00001CC2  200C                     move.l     D0, A4
00001CC4  675E                     beq        +0x60 /* 00001D24 */
00001CC6  0C6C 0080 006C           cmpi.w     [A4 + 0x6C], 0x80
00001CCC  5CC0                     sge        D0
00001CCE  4A00                     tst.b      D0
00001CD0  674C                     beq        +0x4E /* 00001D1E */
00001CD2  4AAC 0098                tst.l      [A4 + 0x98]
00001CD6  56C1                     sne        D1
00001CD8  C001                     and.b      D0, D1
00001CDA  6742                     beq        +0x44 /* 00001D1E */
00001CDC  206C 0098                movea.l    A0, [A4 + 0x98]
00001CE0  2050                     movea.l    A0, [A0]
00001CE2  7206                     moveq.l    D1, 0x06
00001CE4  B228 010A                cmp.b      D1, [A0 + 0x10A]
00001CE8  57C1                     seq        D1
00001CEA  C001                     and.b      D0, D1
00001CEC  6730                     beq        +0x32 /* 00001D1E */
00001CEE  206C 0098                movea.l    A0, [A4 + 0x98]
00001CF2  2050                     movea.l    A0, [A0]
00001CF4  B7E8 0114                cmpa.l     A3, [A0 + 0x114]
00001CF8  57C1                     seq        D1
00001CFA  C001                     and.b      D0, D1
00001CFC  6720                     beq        +0x22 /* 00001D1E */
00001CFE  102E FFFF                move.b     D0, [A6 - 0x1]
00001D02  0240 0001                andi.w     D0, 0x1
00001D06  670A                     beq        +0xC /* 00001D12 */
00001D08  2F0C                     move.l     -[A7], A4
00001D0A  2F0E                     move.l     -[A7], A6
00001D0C  4EBA FECA                jsr        [PC - 0x136 /* 00001BD8 */]
00001D10  600C                     bra        +0xE /* 00001D1E */
label00001D12:
00001D12  2F0C                     move.l     -[A7], A4
00001D14  4267                     clr.w      -[A7]
00001D16  A908                     syscall    ShowHide
00001D18  2F0B                     move.l     -[A7], A3
00001D1A  4267                     clr.w      -[A7]
00001D1C  A91C                     syscall    HiliteWindow
label00001D1E:
00001D1E  286C 0090                movea.l    A4, [A4 + 0x90]
00001D22  609E                     bra        -0x60 /* 00001CC2 */
label00001D24:
00001D24  42A7                     clr.l      -[A7]
00001D26  2F0E                     move.l     -[A7], A6
00001D28  4EBA FED2                jsr        [PC - 0x12E /* 00001BFC */]
00001D2C  285F                     movea.l    A4, [A7]+
label00001D2E:
00001D2E  200C                     move.l     D0, A4
00001D30  6734                     beq        +0x36 /* 00001D66 */
00001D32  206C 0098                movea.l    A0, [A4 + 0x98]
00001D36  2050                     movea.l    A0, [A0]
00001D38  1028 0109                move.b     D0, [A0 + 0x109]
00001D3C  6714                     beq        +0x16 /* 00001D52 */
00001D3E  2F0C                     move.l     -[A7], A4
00001D40  A920                     syscall    BringToFront
00001D42  2F0C                     move.l     -[A7], A4
00001D44  1F3C 0001                move.b     -[A7], 0x1
00001D48  A908                     syscall    ShowHide
00001D4A  2F0C                     move.l     -[A7], A4
00001D4C  1F3C 0001                move.b     -[A7], 0x1
00001D50  A91C                     syscall    HiliteWindow
label00001D52:
00001D52  2F0B                     move.l     -[A7], A3
00001D54  1F3C 0001                move.b     -[A7], 0x1
00001D58  A91C                     syscall    HiliteWindow
00001D5A  42A7                     clr.l      -[A7]
00001D5C  2F0E                     move.l     -[A7], A6
00001D5E  4EBA FE9C                jsr        [PC - 0x164 /* 00001BFC */]
00001D62  285F                     movea.l    A4, [A7]+
00001D64  60C8                     bra        -0x36 /* 00001D2E */
label00001D66:
00001D66  3F3C 0003                move.w     -[A7], 0x3
00001D6A  2F3C FFFF F87B           move.l     -[A7], 0xFFFFF87B
00001D70  4EBA 3B36                jsr        [PC + 0x3B36 /* 000058A8 */]
00001D74  3F3C 0080                move.w     -[A7], 0x80
00001D78  2F3C FFFF FF41           move.l     -[A7], 0xFFFFFF41
00001D7E  4EBA 3B28                jsr        [PC + 0x3B28 /* 000058A8 */]
00001D82  601C                     bra        +0x1E /* 00001DA0 */
label00001D84:
00001D84  3F3C 0003                move.w     -[A7], 0x3
00001D88  2F3C FFFF FF79           move.l     -[A7], 0xFFFFFF79
00001D8E  4EBA 3B18                jsr        [PC + 0x3B18 /* 000058A8 */]
00001D92  3F3C 0080                move.w     -[A7], 0x80
00001D96  2F3C FFFF FF5F           move.l     -[A7], 0xFFFFFF5F
00001D9C  4EBA 3B0A                jsr        [PC + 0x3B0A /* 000058A8 */]
label00001DA0:
00001DA0  4EBA 2960                jsr        [PC + 0x2960 /* 00004702 */]
00001DA4  486E FFF0                pea.l      [A6 - 0x10]
00001DA8  2F0B                     move.l     -[A7], A3
00001DAA  4EBA FC62                jsr        [PC - 0x39E /* 00001A0E */]
label00001DAE:
00001DAE  4CDF 1880                movem.l    D7,A3,A4, [A7]+
00001DB2  4E5E                     unlink     A6
00001DB4  2E9F                     move.l     [A7], [A7]+
00001DB6  4E75                     rts
export_18:
fn00001DB8:
00001DB8  4E56 FFFC                link       A6, -0x0004
00001DBC  2F0C                     move.l     -[A7], A4
00001DBE  42A7                     clr.l      -[A7]
00001DC0  A924                     syscall    FrontWindow
00001DC2  285F                     movea.l    A4, [A7]+
label00001DC4:
00001DC4  200C                     move.l     D0, A4
00001DC6  56C0                     sne        D0
00001DC8  4A00                     tst.b      D0
00001DCA  6724                     beq        +0x26 /* 00001DF0 */
00001DCC  0C6C 0080 006C           cmpi.w     [A4 + 0x6C], 0x80
00001DD2  5CC1                     sge        D1
00001DD4  C001                     and.b      D0, D1
00001DD6  6718                     beq        +0x1A /* 00001DF0 */
00001DD8  206C 0098                movea.l    A0, [A4 + 0x98]
00001DDC  2050                     movea.l    A0, [A0]
00001DDE  7206                     moveq.l    D1, 0x06
00001DE0  B228 010A                cmp.b      D1, [A0 + 0x10A]
00001DE4  57C1                     seq        D1
00001DE6  C001                     and.b      D0, D1
00001DE8  6706                     beq        +0x8 /* 00001DF0 */
00001DEA  286C 0090                movea.l    A4, [A4 + 0x90]
00001DEE  60D4                     bra        -0x2A /* 00001DC4 */
label00001DF0:
00001DF0  2D4C 0008                move.l     [A6 + 0x8], A4
00001DF4  285F                     movea.l    A4, [A7]+
00001DF6  4E5E                     unlink     A6
00001DF8  4E75                     rts
export_19:
fn00001DFA:
00001DFA  4E56 0000                link       A6, 0
00001DFE  48E7 1008                movem.l    -[A7], D3,A4
00001E02  286E 0008                movea.l    A4, [A6 + 0x8]
00001E06  42A7                     clr.l      -[A7]
00001E08  4EBA FFAE                jsr        [PC - 0x52 /* 00001DB8 */]
00001E0C  B9DF                     cmpa.l     A4, [A7]+
00001E0E  56C0                     sne        D0
00001E10  4A00                     tst.b      D0
00001E12  6732                     beq        +0x34 /* 00001E46 */
00001E14  0C6C 0080 006C           cmpi.w     [A4 + 0x6C], 0x80
00001E1A  5DC1                     slt        D1
00001E1C  4A01                     tst.b      D1
00001E1E  6622                     bne        +0x24 /* 00001E42 */
00001E20  0C6C 0080 006C           cmpi.w     [A4 + 0x6C], 0x80
00001E26  5CC2                     sge        D2
00001E28  4A02                     tst.b      D2
00001E2A  671A                     beq        +0x1C /* 00001E46 */
00001E2C  206C 0098                movea.l    A0, [A4 + 0x98]
00001E30  2050                     movea.l    A0, [A0]
00001E32  7606                     moveq.l    D3, 0x06
00001E34  B628 010A                cmp.b      D3, [A0 + 0x10A]
00001E38  56C3                     sne        D3
00001E3A  C403                     and.b      D2, D3
00001E3C  8202                     or.b       D1, D2
00001E3E  C001                     and.b      D0, D1
00001E40  6704                     beq        +0x6 /* 00001E46 */
label00001E42:
00001E42  2F0C                     move.l     -[A7], A4
00001E44  A91F                     syscall    SelectWindow
label00001E46:
00001E46  4CDF 1008                movem.l    D3,A4, [A7]+
00001E4A  4E5E                     unlink     A6
00001E4C  2E9F                     move.l     [A7], [A7]+
00001E4E  4E75                     rts
00001E50  4E56 FFFC                link       A6, -0x0004
00001E54  2F07                     move.l     -[A7], D7
00001E56  42A7                     clr.l      -[A7]
00001E58  2E8D                     move.l     [A7], A5
00001E5A  2A78 0904                movea.l    A5, [0x00000904 /* CurrentA5 */]
00001E5E  2E1F                     move.l     D7, [A7]+
00001E60  2F2D FD9E                move.l     -[A7], [A5 - 0x262]
00001E64  3F3C A91F                move.w     -[A7], 0xA91F
00001E68  4EAD 0532                jsr        [A5 + 0x532 /* export_162, CODE:3 @ 0000254A */]
00001E6C  2F2E 0008                move.l     -[A7], [A6 + 0x8]
00001E70  4EBA FF88                jsr        [PC - 0x78 /* 00001DFA */]
00001E74  42A7                     clr.l      -[A7]
00001E76  2F07                     move.l     -[A7], D7
00001E78  2F4D 0004                move.l     [A7 + 0x4], A5
00001E7C  2A5F                     movea.l    A5, [A7]+
00001E7E  2E1F                     move.l     D7, [A7]+
00001E80  2E1F                     move.l     D7, [A7]+
00001E82  4E5E                     unlink     A6
00001E84  2E9F                     move.l     [A7], [A7]+
00001E86  4E75                     rts
00001E88  4E56 FFFC                link       A6, -0x0004
00001E8C  2F07                     move.l     -[A7], D7
00001E8E  42A7                     clr.l      -[A7]
00001E90  2E8D                     move.l     [A7], A5
00001E92  2A78 0904                movea.l    A5, [0x00000904 /* CurrentA5 */]
00001E96  2E1F                     move.l     D7, [A7]+
00001E98  2F2D FDA2                move.l     -[A7], [A5 - 0x25E]
00001E9C  3F3C A91B                move.w     -[A7], 0xA91B
00001EA0  4EAD 0532                jsr        [A5 + 0x532 /* export_162, CODE:3 @ 0000254A */]
00001EA4  2F2E 000E                move.l     -[A7], [A6 + 0xE]
00001EA8  2F2E 000A                move.l     -[A7], [A6 + 0xA]
00001EAC  4267                     clr.w      -[A7]
00001EAE  A91B                     syscall    MoveWindow
00001EB0  42A7                     clr.l      -[A7]
00001EB2  2F07                     move.l     -[A7], D7
00001EB4  2F4D 0004                move.l     [A7 + 0x4], A5
00001EB8  2A5F                     movea.l    A5, [A7]+
00001EBA  2E1F                     move.l     D7, [A7]+
00001EBC  2E1F                     move.l     D7, [A7]+
00001EBE  4E5E                     unlink     A6
00001EC0  205F                     movea.l    A0, [A7]+
00001EC2  DEFC 000A                add.w      A7, 0xA /* '\n' */
00001EC6  4ED0                     jmp        [A0]
fn00001EC8:
00001EC8  4E56 FFF8                link       A6, -0x0008
00001ECC  206E 0008                movea.l    A0, [A6 + 0x8]
00001ED0  43EE FFF8                lea.l      A1, [A6 - 0x8]
00001ED4  7003                     moveq.l    D0, 0x03
label00001ED6:
00001ED6  32D8                     move.w     [A1]+, [A0]+
00001ED8  51C8 FFFC                dbf        D0, -0x6 /* 00001ED6 */
00001EDC  42A7                     clr.l      -[A7]
00001EDE  3F3C A91B                move.w     -[A7], 0xA91B
00001EE2  4EAD 052A                jsr        [A5 + 0x52A /* export_161, CODE:3 @ 00002540 */]
00001EE6  2B5F FDA2                move.l     [A5 - 0x25E], [A7]+
00001EEA  42A7                     clr.l      -[A7]
00001EEC  3F3C A91F                move.w     -[A7], 0xA91F
00001EF0  4EAD 052A                jsr        [A5 + 0x52A /* export_161, CODE:3 @ 00002540 */]
00001EF4  2B5F FD9E                move.l     [A5 - 0x262], [A7]+
00001EF8  487A FF56                pea.l      [PC - 0xAA /* 00001E50, value 0x4E56FFFC */]
00001EFC  3F3C A91F                move.w     -[A7], 0xA91F
00001F00  4EAD 0532                jsr        [A5 + 0x532 /* export_162, CODE:3 @ 0000254A */]
00001F04  487A FF82                pea.l      [PC - 0x7E /* 00001E88, value 0x4E56FFFC */]
00001F08  3F3C A91B                move.w     -[A7], 0xA91B
00001F0C  4EAD 0532                jsr        [A5 + 0x532 /* export_162, CODE:3 @ 0000254A */]
00001F10  2F2E 0010                move.l     -[A7], [A6 + 0x10]
00001F14  2F2E 000C                move.l     -[A7], [A6 + 0xC]
00001F18  486E FFF8                pea.l      [A6 - 0x8]
00001F1C  A925                     syscall    DragWindow
00001F1E  2F2D FDA2                move.l     -[A7], [A5 - 0x25E]
00001F22  3F3C A91B                move.w     -[A7], 0xA91B
00001F26  4EAD 0532                jsr        [A5 + 0x532 /* export_162, CODE:3 @ 0000254A */]
00001F2A  2F2D FD9E                move.l     -[A7], [A5 - 0x262]
00001F2E  3F3C A91F                move.w     -[A7], 0xA91F
00001F32  4EAD 0532                jsr        [A5 + 0x532 /* export_162, CODE:3 @ 0000254A */]
00001F36  4E5E                     unlink     A6
00001F38  205F                     movea.l    A0, [A7]+
00001F3A  DEFC 000C                add.w      A7, 0xC
00001F3E  4ED0                     jmp        [A0]
export_20:
00001F40  4E56 FFE4                link       A6, -0x001C
00001F44  48E7 0108                movem.l    -[A7], D7,A4
00001F48  286E 000A                movea.l    A4, [A6 + 0xA]
00001F4C  42A7                     clr.l      -[A7]
00001F4E  2E8D                     move.l     [A7], A5
00001F50  2A78 0904                movea.l    A5, [0x00000904 /* CurrentA5 */]
00001F54  2E1F                     move.l     D7, [A7]+
00001F56  102E 0008                move.b     D0, [A6 + 0x8]
00001F5A  0A00 0001                xori.b     D0, 0x1
00001F5E  4A00                     tst.b      D0
00001F60  6740                     beq        +0x42 /* 00001FA2 */
00001F62  220C                     move.l     D1, A4
00001F64  56C1                     sne        D1
00001F66  C001                     and.b      D0, D1
00001F68  4A00                     tst.b      D0
00001F6A  6736                     beq        +0x38 /* 00001FA2 */
00001F6C  0C6C 0080 006C           cmpi.w     [A4 + 0x6C], 0x80
00001F72  5CC1                     sge        D1
00001F74  C001                     and.b      D0, D1
00001F76  4A00                     tst.b      D0
00001F78  6728                     beq        +0x2A /* 00001FA2 */
00001F7A  4AAC 0098                tst.l      [A4 + 0x98]
00001F7E  56C1                     sne        D1
00001F80  C001                     and.b      D0, D1
00001F82  4A00                     tst.b      D0
00001F84  671C                     beq        +0x1E /* 00001FA2 */
00001F86  206C 0098                movea.l    A0, [A4 + 0x98]
00001F8A  2050                     movea.l    A0, [A0]
00001F8C  7206                     moveq.l    D1, 0x06
00001F8E  B228 010A                cmp.b      D1, [A0 + 0x10A]
00001F92  57C1                     seq        D1
00001F94  C001                     and.b      D0, D1
00001F96  670A                     beq        +0xC /* 00001FA2 */
00001F98  206C 0098                movea.l    A0, [A4 + 0x98]
00001F9C  2050                     movea.l    A0, [A0]
00001F9E  2868 0114                movea.l    A4, [A0 + 0x114]
label00001FA2:
00001FA2  2F2D FD9A                move.l     -[A7], [A5 - 0x266]
00001FA6  3F3C A91C                move.w     -[A7], 0xA91C
00001FAA  4EAD 0532                jsr        [A5 + 0x532 /* export_162, CODE:3 @ 0000254A */]
00001FAE  2F0C                     move.l     -[A7], A4
00001FB0  1F2E 0008                move.b     -[A7], [A6 + 0x8]
00001FB4  A91C                     syscall    HiliteWindow
00001FB6  487A FF88                pea.l      [PC - 0x78 /* 00001F40, value 0x4E56FFE4 */]
00001FBA  3F3C A91C                move.w     -[A7], 0xA91C
00001FBE  4EAD 0532                jsr        [A5 + 0x532 /* export_162, CODE:3 @ 0000254A */]
00001FC2  42A7                     clr.l      -[A7]
00001FC4  2F07                     move.l     -[A7], D7
00001FC6  2F4D 0004                move.l     [A7 + 0x4], A5
00001FCA  2A5F                     movea.l    A5, [A7]+
00001FCC  2E1F                     move.l     D7, [A7]+
00001FCE  4CDF 1080                movem.l    D7,A4, [A7]+
00001FD2  4E5E                     unlink     A6
00001FD4  205F                     movea.l    A0, [A7]+
00001FD6  5C4F                     addq.w     A7, 6
00001FD8  4ED0                     jmp        [A0]
fn00001FDA:
00001FDA  4E56 0000                link       A6, 0
00001FDE  2F2E 0008                move.l     -[A7], [A6 + 0x8]
00001FE2  A920                     syscall    BringToFront
00001FE4  4E5E                     unlink     A6
00001FE6  2E9F                     move.l     [A7], [A7]+
00001FE8  4E75                     rts
fn00001FEA:
00001FEA  4E56 FFEC                link       A6, -0x0014
00001FEE  48E7 0318                movem.l    -[A7], D6,D7,A3,A4
00001FF2  206E 0008                movea.l    A0, [A6 + 0x8]
00001FF6  43EE FFF8                lea.l      A1, [A6 - 0x8]
00001FFA  7003                     moveq.l    D0, 0x03
label00001FFC:
00001FFC  32D8                     move.w     [A1]+, [A0]+
00001FFE  51C8 FFFC                dbf        D0, -0x6 /* 00001FFC */
00002002  286E 0010                movea.l    A4, [A6 + 0x10]
00002006  7E01                     moveq.l    D7, 0x01
00002008  42A7                     clr.l      -[A7]
0000200A  4EBA FDAC                jsr        [PC - 0x254 /* 00001DB8 */]
0000200E  265F                     movea.l    A3, [A7]+
00002010  0C6C 0080 006C           cmpi.w     [A4 + 0x6C], 0x80
00002016  6D54                     blt        +0x56 /* 0000206C */
00002018  206C 0098                movea.l    A0, [A4 + 0x98]
0000201C  2050                     movea.l    A0, [A0]
0000201E  1C28 010A                move.b     D6, [A0 + 0x10A]
00002022  7006                     moveq.l    D0, 0x06
00002024  B006                     cmp.b      D0, D6
00002026  57C0                     seq        D0
00002028  4A00                     tst.b      D0
0000202A  671A                     beq        +0x1C /* 00002046 */
0000202C  206C 0098                movea.l    A0, [A4 + 0x98]
00002030  2050                     movea.l    A0, [A0]
00002032  B7E8 0114                cmpa.l     A3, [A0 + 0x114]
00002036  57C1                     seq        D1
00002038  C001                     and.b      D0, D1
0000203A  670A                     beq        +0xC /* 00002046 */
0000203C  2F0C                     move.l     -[A7], A4
0000203E  4EBA FF9A                jsr        [PC - 0x66 /* 00001FDA */]
00002042  4207                     clr.b      D7
00002044  6026                     bra        +0x28 /* 0000206C */
label00002046:
00002046  B7CC                     cmpa.l     A3, A4
00002048  57C0                     seq        D0
0000204A  4A00                     tst.b      D0
0000204C  671E                     beq        +0x20 /* 0000206C */
0000204E  7205                     moveq.l    D1, 0x05
00002050  B206                     cmp.b      D1, D6
00002052  57C1                     seq        D1
00002054  C001                     and.b      D0, D1
00002056  6714                     beq        +0x16 /* 0000206C */
00002058  2F00                     move.l     -[A7], D0
0000205A  42A7                     clr.l      -[A7]
0000205C  A924                     syscall    FrontWindow
0000205E  221F                     move.l     D1, [A7]+
00002060  201F                     move.l     D0, [A7]+
00002062  B28C                     cmp.l      D1, A4
00002064  56C1                     sne        D1
00002066  C001                     and.b      D0, D1
00002068  6702                     beq        +0x4 /* 0000206C */
0000206A  4207                     clr.b      D7
label0000206C:
0000206C  1007                     move.b     D0, D7
0000206E  670E                     beq        +0x10 /* 0000207E */
00002070  2F0C                     move.l     -[A7], A4
00002072  2F2E 000C                move.l     -[A7], [A6 + 0xC]
00002076  486E FFF8                pea.l      [A6 - 0x8]
0000207A  A925                     syscall    DragWindow
0000207C  600E                     bra        +0x10 /* 0000208C */
label0000207E:
0000207E  2F0C                     move.l     -[A7], A4
00002080  2F2E 000C                move.l     -[A7], [A6 + 0xC]
00002084  486E FFF8                pea.l      [A6 - 0x8]
00002088  4EBA FE3E                jsr        [PC - 0x1C2 /* 00001EC8 */]
label0000208C:
0000208C  4CDF 18C0                movem.l    D6,D7,A3,A4, [A7]+
00002090  4E5E                     unlink     A6
00002092  205F                     movea.l    A0, [A7]+
00002094  DEFC 000C                add.w      A7, 0xC
00002098  4ED0                     jmp        [A0]
0000209A  4E56 0000                link       A6, 0
0000209E  70FF                     moveq.l    D0, 0xFFFFFFFF
000020A0  2B40 F94C                move.l     [A5 - 0x6B4], D0
000020A4  4E5E                     unlink     A6
000020A6  4E75                     rts
fn000020A8:
000020A8  4E56 0000                link       A6, 0
000020AC  48E7 0018                movem.l    -[A7], A3,A4
000020B0  266E 0008                movea.l    A3, [A6 + 0x8]
000020B4  422E 000C                clr.b      [A6 + 0xC]
000020B8  200B                     move.l     D0, A3
000020BA  56C0                     sne        D0
000020BC  4A00                     tst.b      D0
000020BE  674A                     beq        +0x4C /* 0000210A */
000020C0  0C6B 0080 006C           cmpi.w     [A3 + 0x6C], 0x80
000020C6  5CC1                     sge        D1
000020C8  C001                     and.b      D0, D1
000020CA  673E                     beq        +0x40 /* 0000210A */
000020CC  4AAB 0098                tst.l      [A3 + 0x98]
000020D0  56C1                     sne        D1
000020D2  C001                     and.b      D0, D1
000020D4  6734                     beq        +0x36 /* 0000210A */
000020D6  206B 0098                movea.l    A0, [A3 + 0x98]
000020DA  2850                     movea.l    A4, [A0]
000020DC  7005                     moveq.l    D0, 0x05
000020DE  B02C 010A                cmp.b      D0, [A4 + 0x10A]
000020E2  57C0                     seq        D0
000020E4  4A00                     tst.b      D0
000020E6  6722                     beq        +0x24 /* 0000210A */
000020E8  223C 4449 544C           move.l     D1, 0x4449544C /* 'DITL' */
000020EE  B2AC 010C                cmp.l      D1, [A4 + 0x10C]
000020F2  57C1                     seq        D1
000020F4  C001                     and.b      D0, D1
000020F6  6712                     beq        +0x14 /* 0000210A */
000020F8  0C6C 008F 0112           cmpi.w     [A4 + 0x112], 0x8F
000020FE  57C1                     seq        D1
00002100  C001                     and.b      D0, D1
00002102  6706                     beq        +0x8 /* 0000210A */
00002104  1D7C 0001 000C           move.b     [A6 + 0xC], 0x1
label0000210A:
0000210A  4CDF 1800                movem.l    A3,A4, [A7]+
0000210E  4E5E                     unlink     A6
00002110  2E9F                     move.l     [A7], [A7]+
00002112  4E75                     rts
fn00002114:
00002114  4E56 0000                link       A6, 0
00002118  2F0C                     move.l     -[A7], A4
0000211A  286E 000C                movea.l    A4, [A6 + 0xC]
0000211E  422E 0010                clr.b      [A6 + 0x10]
00002122  0C6C 0080 006C           cmpi.w     [A4 + 0x6C], 0x80
00002128  5CC0                     sge        D0
0000212A  4A00                     tst.b      D0
0000212C  6750                     beq        +0x52 /* 0000217E */
0000212E  4AAC 0098                tst.l      [A4 + 0x98]
00002132  56C1                     sne        D1
00002134  C001                     and.b      D0, D1
00002136  6746                     beq        +0x48 /* 0000217E */
00002138  206C 0098                movea.l    A0, [A4 + 0x98]
0000213C  2050                     movea.l    A0, [A0]
0000213E  4A28 010A                tst.b      [A0 + 0x10A]
00002142  57C1                     seq        D1
00002144  4A01                     tst.b      D1
00002146  6614                     bne        +0x16 /* 0000215C */
00002148  206C 0098                movea.l    A0, [A4 + 0x98]
0000214C  2050                     movea.l    A0, [A0]
0000214E  7401                     moveq.l    D2, 0x01
00002150  B428 010A                cmp.b      D2, [A0 + 0x10A]
00002154  57C2                     seq        D2
00002156  8202                     or.b       D1, D2
00002158  C001                     and.b      D0, D1
0000215A  6722                     beq        +0x24 /* 0000217E */
label0000215C:
0000215C  4267                     clr.w      -[A7]
0000215E  2F2E 0008                move.l     -[A7], [A6 + 0x8]
00002162  206C 0098                movea.l    A0, [A4 + 0x98]
00002166  2050                     movea.l    A0, [A0]
00002168  2068 0124                movea.l    A0, [A0 + 0x124]
0000216C  2050                     movea.l    A0, [A0]
0000216E  2068 001C                movea.l    A0, [A0 + 0x1C]
00002172  2050                     movea.l    A0, [A0]
00002174  4868 0008                pea.l      [A0 + 0x8]
00002178  A8AD                     syscall    PtInRect
0000217A  1D5F 0010                move.b     [A6 + 0x10], [A7]+
label0000217E:
0000217E  285F                     movea.l    A4, [A7]+
00002180  4E5E                     unlink     A6
00002182  205F                     movea.l    A0, [A7]+
00002184  504F                     addq.w     A7, 8
00002186  4ED0                     jmp        [A0]
fn00002188:
00002188  4E56 FFFE                link       A6, -0x0002
0000218C  422E 000C                clr.b      [A6 + 0xC]
00002190  206E 0008                movea.l    A0, [A6 + 0x8]
00002194  7017                     moveq.l    D0, 0x17
00002196  B050                     cmp.w      D0, [A0]
00002198  6702                     beq        +0x4 /* 0000219C */
0000219A  603C                     bra        +0x3E /* 000021D8 */
label0000219C:
0000219C  206E 0008                movea.l    A0, [A6 + 0x8]
000021A0  203C 6165 7674           move.l     D0, 0x61657674 /* 'aevt' */
000021A6  B0A8 0002                cmp.l      D0, [A0 + 0x2]
000021AA  56C0                     sne        D0
000021AC  4A00                     tst.b      D0
000021AE  6712                     beq        +0x14 /* 000021C2 */
000021B0  223C 5253 4544           move.l     D1, 0x52534544 /* 'RSED' */
000021B6  B2A8 0002                cmp.l      D1, [A0 + 0x2]
000021BA  56C1                     sne        D1
000021BC  C001                     and.b      D0, D1
000021BE  6702                     beq        +0x4 /* 000021C2 */
000021C0  6016                     bra        +0x18 /* 000021D8 */
label000021C2:
000021C2  4267                     clr.w      -[A7]
000021C4  2F2E 0008                move.l     -[A7], [A6 + 0x8]
000021C8  303C 021B                move.w     D0, 0x21B
000021CC  A816                     syscall    Pack8
000021CE  3D5F FFFE                move.w     [A6 - 0x2], [A7]+
000021D2  1D7C 0001 000C           move.b     [A6 + 0xC], 0x1
label000021D8:
000021D8  4E5E                     unlink     A6
000021DA  2E9F                     move.l     [A7], [A7]+
000021DC  4E75                     rts
fn000021DE:
000021DE  4E56 FFFC                link       A6, -0x0004
000021E2  48E7 0018                movem.l    -[A7], A3,A4
000021E6  206E 0008                movea.l    A0, [A6 + 0x8]
000021EA  2668 FFF2                movea.l    A3, [A0 - 0xE]
000021EE  200B                     move.l     D0, A3
000021F0  56C0                     sne        D0
000021F2  4A00                     tst.b      D0
000021F4  6770                     beq        +0x72 /* 00002266 */
000021F6  0C6B 0080 006C           cmpi.w     [A3 + 0x6C], 0x80
000021FC  5CC1                     sge        D1
000021FE  C001                     and.b      D0, D1
00002200  6764                     beq        +0x66 /* 00002266 */
00002202  4AAB 0098                tst.l      [A3 + 0x98]
00002206  56C1                     sne        D1
00002208  C001                     and.b      D0, D1
0000220A  675A                     beq        +0x5C /* 00002266 */
0000220C  206B 0098                movea.l    A0, [A3 + 0x98]
00002210  2850                     movea.l    A4, [A0]
00002212  7005                     moveq.l    D0, 0x05
00002214  B02C 010A                cmp.b      D0, [A4 + 0x10A]
00002218  57C0                     seq        D0
0000221A  4A00                     tst.b      D0
0000221C  6748                     beq        +0x4A /* 00002266 */
0000221E  223C 4D45 4E55           move.l     D1, 0x4D454E55 /* 'MENU' */
00002224  B2AC 010C                cmp.l      D1, [A4 + 0x10C]
00002228  57C1                     seq        D1
0000222A  4A01                     tst.b      D1
0000222C  6622                     bne        +0x24 /* 00002250 */
0000222E  243C 636D 6E75           move.l     D2, 0x636D6E75 /* 'cmnu' */
00002234  B4AC 010C                cmp.l      D2, [A4 + 0x10C]
00002238  57C2                     seq        D2
0000223A  8202                     or.b       D1, D2
0000223C  6612                     bne        +0x14 /* 00002250 */
0000223E  243C 434D 4E55           move.l     D2, 0x434D4E55 /* 'CMNU' */
00002244  B4AC 010C                cmp.l      D2, [A4 + 0x10C]
00002248  57C2                     seq        D2
0000224A  8202                     or.b       D1, D2
0000224C  C001                     and.b      D0, D1
0000224E  6716                     beq        +0x18 /* 00002266 */
label00002250:
00002250  0C6C 00A5 0112           cmpi.w     [A4 + 0x112], 0xA5
00002256  660E                     bne        +0x10 /* 00002266 */
00002258  206E 0008                movea.l    A0, [A6 + 0x8]
0000225C  2F28 0008                move.l     -[A7], [A0 + 0x8]
00002260  2F0B                     move.l     -[A7], A3
00002262  4EBA F7AA                jsr        [PC - 0x856 /* 00001A0E */]
label00002266:
00002266  4CDF 1800                movem.l    A3,A4, [A7]+
0000226A  4E5E                     unlink     A6
0000226C  2E9F                     move.l     [A7], [A7]+
0000226E  4E75                     rts
fn00002270:
00002270  4E56 FFC4                link       A6, -0x003C
00002274  48E7 0F18                movem.l    -[A7], D4,D5,D6,D7,A3,A4
00002278  42A7                     clr.l      -[A7]
0000227A  4EBA FB3C                jsr        [PC - 0x4C4 /* 00001DB8 */]
0000227E  2D5F FFEE                move.l     [A6 - 0x12], [A7]+
00002282  2D6E FFEE FFF2           move.l     [A6 - 0xE], [A6 - 0x12]
00002288  206E 0008                movea.l    A0, [A6 + 0x8]
0000228C  7005                     moveq.l    D0, 0x05
0000228E  B050                     cmp.w      D0, [A0]
00002290  6604                     bne        +0x6 /* 00002296 */
00002292  30BC 0003                move.w     [A0], 0x3
label00002296:
00002296  7000                     moveq.l    D0, 0x00
00002298  206E 0008                movea.l    A0, [A6 + 0x8]
0000229C  3028 000E                move.w     D0, [A0 + 0xE]
000022A0  C0BC 0000 0100           and.l      D0, 0x100
000022A6  0C80 0000 0100           cmpi.l     D0, 0x100
000022AC  57C0                     seq        D0
000022AE  4400                     neg.b      D0
000022B0  1B40 F943                move.b     [A5 - 0x6BD], D0
000022B4  7000                     moveq.l    D0, 0x00
000022B6  206E 0008                movea.l    A0, [A6 + 0x8]
000022BA  3028 000E                move.w     D0, [A0 + 0xE]
000022BE  C0BC 0000 0200           and.l      D0, 0x200
000022C4  0C80 0000 0200           cmpi.l     D0, 0x200
000022CA  57C0                     seq        D0
000022CC  4400                     neg.b      D0
000022CE  1B40 F945                move.b     [A5 - 0x6BB], D0
000022D2  7000                     moveq.l    D0, 0x00
000022D4  206E 0008                movea.l    A0, [A6 + 0x8]
000022D8  3028 000E                move.w     D0, [A0 + 0xE]
000022DC  C0BC 0000 0800           and.l      D0, 0x800
000022E2  0C80 0000 0800           cmpi.l     D0, 0x800
000022E8  57C0                     seq        D0
000022EA  4400                     neg.b      D0
000022EC  1B40 F944                move.b     [A5 - 0x6BC], D0
000022F0  422D F942                clr.b      [A5 - 0x6BE]
000022F4  206E 0008                movea.l    A0, [A6 + 0x8]
000022F8  3010                     move.w     D0, [A0]
000022FA  5340                     subq.w     D0, 1
000022FC  6722                     beq        +0x24 /* 00002320 */
000022FE  5540                     subq.w     D0, 2
00002300  6700 03D0                beq        +0x3D2 /* 000026D2 */
00002304  5740                     subq.w     D0, 3
00002306  6700 038C                beq        +0x38E /* 00002694 */
0000230A  5340                     subq.w     D0, 1
0000230C  6700 0422                beq        +0x424 /* 00002730 */
00002310  5340                     subq.w     D0, 1
00002312  6700 0374                beq        +0x376 /* 00002688 */
00002316  5F40                     subq.w     D0, 7
00002318  6700 0446                beq        +0x448 /* 00002760 */
0000231C  6000 04B0                bra        +0x4B2 /* 000027CE */
label00002320:
00002320  4267                     clr.w      -[A7]
00002322  206E 0008                movea.l    A0, [A6 + 0x8]
00002326  2F28 000A                move.l     -[A7], [A0 + 0xA]
0000232A  486E FFEE                pea.l      [A6 - 0x12]
0000232E  A92C                     syscall    FindWindow
00002330  3A1F                     move.w     D5, [A7]+
00002332  3005                     move.w     D0, D5
00002334  5340                     subq.w     D0, 1
00002336  6B00 04A2                bmi        +0x4A4 /* 000027DA */
0000233A  0C40 0007                cmpi.w     D0, 0x7
0000233E  6E00 049A                bgt        +0x49C /* 000027DA */
00002342  D040                     add.w      D0, D0
00002344  303B 0006                move.w     D0, [PC + D0.w + 0x6]
00002348  4EFB 0000                jmp        [PC + D0.w]
0000234C  0012 0078                ori.b      [A2], 0x78 /* 'x' */
00002350  0162                     bchg       -[A2], D0
00002352  0050 0162                ori.w      [A0], 0x162
00002356  0092 013A 013A           ori.l      [A2], 0x13A013A
0000235C  2F0E                     move.l     -[A7], A6
0000235E  4EBA FE7E                jsr        [PC - 0x182 /* 000021DE */]
00002362  102D FDA7                move.b     D0, [A5 - 0x259]
00002366  6706                     beq        +0x8 /* 0000236E */
00002368  422D FDA7                clr.b      [A5 - 0x259]
0000236C  A937                     syscall    DrawMenuBar
label0000236E:
0000236E  42A7                     clr.l      -[A7]
00002370  206E 0008                movea.l    A0, [A6 + 0x8]
00002374  2F28 000A                move.l     -[A7], [A0 + 0xA]
00002378  A93D                     syscall    MenuSelect
0000237A  2E1F                     move.l     D7, [A7]+
0000237C  2007                     move.l     D0, D7
0000237E  4840                     swap.w     D0
00002380  4A40                     tst.w      D0
00002382  6700 0456                beq        +0x458 /* 000027DA */
00002386  1B7C 0001 F7C3           move.b     [A5 - 0x83D], 0x1
0000238C  2F07                     move.l     -[A7], D7
0000238E  4EBA EE94                jsr        [PC - 0x116C /* 00001224 */]
00002392  422D F7C3                clr.b      [A5 - 0x83D]
00002396  6000 0442                bra        +0x444 /* 000027DA */
0000239A  41EE FFF6                lea.l      A0, [A6 - 0xA]
0000239E  43ED FBE0                lea.l      A1, [A5 - 0x420]
000023A2  7003                     moveq.l    D0, 0x03
label000023A4:
000023A4  30D9                     move.w     [A0]+, [A1]+
000023A6  51C8 FFFC                dbf        D0, -0x6 /* 000023A4 */
000023AA  2F2E FFEE                move.l     -[A7], [A6 - 0x12]
000023AE  206E 0008                movea.l    A0, [A6 + 0x8]
000023B2  2F28 000A                move.l     -[A7], [A0 + 0xA]
000023B6  486E FFF6                pea.l      [A6 - 0xA]
000023BA  4EBA FC2E                jsr        [PC - 0x3D2 /* 00001FEA */]
000023BE  6000 041A                bra        +0x41C /* 000027DA */
000023C2  4267                     clr.w      -[A7]
000023C4  4EBA 3892                jsr        [PC + 0x3892 /* 00005C58 */]
000023C8  A998                     syscall    UseResFile
000023CA  2F2E 0008                move.l     -[A7], [A6 + 0x8]
000023CE  2F2E FFEE                move.l     -[A7], [A6 - 0x12]
000023D2  A9B3                     syscall    SystemClick
000023D4  4EBA 34B6                jsr        [PC + 0x34B6 /* 0000588C */]
000023D8  6000 0400                bra        +0x402 /* 000027DA */
000023DC  206E FFF2                movea.l    A0, [A6 - 0xE]
000023E0  0C68 0080 006C           cmpi.w     [A0 + 0x6C], 0x80
000023E6  6D00 03F2                blt        +0x3F4 /* 000027DA */
000023EA  4267                     clr.w      -[A7]
000023EC  2F2E FFEE                move.l     -[A7], [A6 - 0x12]
000023F0  206E 0008                movea.l    A0, [A6 + 0x8]
000023F4  2F28 000A                move.l     -[A7], [A0 + 0xA]
000023F8  A91E                     syscall    TrackGoAway
000023FA  101F                     move.b     D0, [A7]+
000023FC  6700 03DC                beq        +0x3DE /* 000027DA */
00002400  206E FFEE                movea.l    A0, [A6 - 0x12]
00002404  0C68 0080 006C           cmpi.w     [A0 + 0x6C], 0x80
0000240A  5CC1                     sge        D1
0000240C  C001                     and.b      D0, D1
0000240E  6700 03CA                beq        +0x3CC /* 000027DA */
00002412  4206                     clr.b      D6
00002414  102D F944                move.b     D0, [A5 - 0x6BC]
00002418  6726                     beq        +0x28 /* 00002440 */
0000241A  42A7                     clr.l      -[A7]
0000241C  206E FFEE                movea.l    A0, [A6 - 0x12]
00002420  2F28 0098                move.l     -[A7], [A0 + 0x98]
00002424  4EBA 21BC                jsr        [PC + 0x21BC /* 000045E2 */]
00002428  265F                     movea.l    A3, [A7]+
0000242A  B7FC 0000 3039           cmpa.l     A3, 0x3039 /* '09' */
00002430  670E                     beq        +0x10 /* 00002440 */
00002432  2F3C 0004 0002           move.l     -[A7], 0x40002
00002438  2F0B                     move.l     -[A7], A3
0000243A  4EBA 36A4                jsr        [PC + 0x36A4 /* 00005AE0 */]
0000243E  7C01                     moveq.l    D6, 0x01
label00002440:
00002440  1006                     move.b     D0, D6
00002442  6600 0396                bne        +0x398 /* 000027DA */
00002446  206E FFEE                movea.l    A0, [A6 - 0x12]
0000244A  2068 0098                movea.l    A0, [A0 + 0x98]
0000244E  2050                     movea.l    A0, [A0]
00002450  7006                     moveq.l    D0, 0x06
00002452  B028 010A                cmp.b      D0, [A0 + 0x10A]
00002456  661A                     bne        +0x1C /* 00002472 */
00002458  206E FFEE                movea.l    A0, [A6 - 0x12]
0000245C  2068 0098                movea.l    A0, [A0 + 0x98]
00002460  2050                     movea.l    A0, [A0]
00002462  4228 0109                clr.b      [A0 + 0x109]
00002466  2F2E FFEE                move.l     -[A7], [A6 - 0x12]
0000246A  4267                     clr.w      -[A7]
0000246C  A908                     syscall    ShowHide
0000246E  6000 036A                bra        +0x36C /* 000027DA */
label00002472:
00002472  2F3C 0004 0002           move.l     -[A7], 0x40002
00002478  2F2E FFF2                move.l     -[A7], [A6 - 0xE]
0000247C  4EBA F618                jsr        [PC - 0x9E8 /* 00001A96 */]
00002480  6000 0358                bra        +0x35A /* 000027DA */
00002484  4267                     clr.w      -[A7]
00002486  2F2E FFEE                move.l     -[A7], [A6 - 0x12]
0000248A  206E 0008                movea.l    A0, [A6 + 0x8]
0000248E  2F28 000A                move.l     -[A7], [A0 + 0xA]
00002492  3F05                     move.w     -[A7], D5
00002494  A83B                     syscall    TrackBox
00002496  101F                     move.b     D0, [A7]+
00002498  6700 0340                beq        +0x342 /* 000027DA */
0000249C  2F2E 0008                move.l     -[A7], [A6 + 0x8]
000024A0  2F2E FFEE                move.l     -[A7], [A6 - 0x12]
000024A4  4EBA F568                jsr        [PC - 0xA98 /* 00001A0E */]
000024A8  6000 0330                bra        +0x332 /* 000027DA */
000024AC  206E FFF2                movea.l    A0, [A6 - 0xE]
000024B0  0C68 0080 006C           cmpi.w     [A0 + 0x6C], 0x80
000024B6  6D1A                     blt        +0x1C /* 000024D2 */
000024B8  206E FFEE                movea.l    A0, [A6 - 0x12]
000024BC  2068 0098                movea.l    A0, [A0 + 0x98]
000024C0  2050                     movea.l    A0, [A0]
000024C2  7006                     moveq.l    D0, 0x06
000024C4  B028 010A                cmp.b      D0, [A0 + 0x10A]
000024C8  6608                     bne        +0xA /* 000024D2 */
000024CA  2F2E FFEE                move.l     -[A7], [A6 - 0x12]
000024CE  4EBA FB0A                jsr        [PC - 0x4F6 /* 00001FDA */]
label000024D2:
000024D2  4206                     clr.b      D6
000024D4  7003                     moveq.l    D0, 0x03
000024D6  B045                     cmp.w      D0, D5
000024D8  57C0                     seq        D0
000024DA  4A00                     tst.b      D0
000024DC  676C                     beq        +0x6E /* 0000254A */
000024DE  222E FFEE                move.l     D1, [A6 - 0x12]
000024E2  B2AD FDDC                cmp.l      D1, [A5 - 0x224]
000024E6  57C1                     seq        D1
000024E8  C001                     and.b      D0, D1
000024EA  675E                     beq        +0x60 /* 0000254A */
000024EC  206E 0008                movea.l    A0, [A6 + 0x8]
000024F0  2228 0006                move.l     D1, [A0 + 0x6]
000024F4  92AD FDE4                sub.l      D1, [A5 - 0x21C]
000024F8  48E7 C000                movem.l    -[A7], D0,D1
000024FC  42A7                     clr.l      -[A7]
000024FE  2EB8 02F0                move.l     [A7], [0x000002F0 /* DoubleTime */]
00002502  241F                     move.l     D2, [A7]+
00002504  4CDF 0003                movem.l    D0,D1, [A7]+
00002508  B481                     cmp.l      D2, D1
0000250A  5EC1                     sgt        D1
0000250C  C001                     and.b      D0, D1
0000250E  673A                     beq        +0x3C /* 0000254A */
00002510  2F00                     move.l     -[A7], D0
00002512  4267                     clr.w      -[A7]
00002514  206E 0008                movea.l    A0, [A6 + 0x8]
00002518  2F28 000A                move.l     -[A7], [A0 + 0xA]
0000251C  2F2D FDE0                move.l     -[A7], [A5 - 0x220]
00002520  4EBA 33C6                jsr        [PC + 0x33C6 /* 000058E8 */]
00002524  321F                     move.w     D1, [A7]+
00002526  201F                     move.l     D0, [A7]+
00002528  7406                     moveq.l    D2, 0x06
0000252A  B441                     cmp.w      D2, D1
0000252C  5EC1                     sgt        D1
0000252E  C001                     and.b      D0, D1
00002530  6718                     beq        +0x1A /* 0000254A */
00002532  206E FFEE                movea.l    A0, [A6 - 0x12]
00002536  0C68 0080 006C           cmpi.w     [A0 + 0x6C], 0x80
0000253C  5CC1                     sge        D1
0000253E  C001                     and.b      D0, D1
00002540  6708                     beq        +0xA /* 0000254A */
00002542  4267                     clr.w      -[A7]
00002544  4EBA F336                jsr        [PC - 0xCCA /* 0000187C */]
00002548  1C1F                     move.b     D6, [A7]+
label0000254A:
0000254A  1006                     move.b     D0, D6
0000254C  6600 011C                bne        +0x11E /* 0000266A */
00002550  202E FFEE                move.l     D0, [A6 - 0x12]
00002554  B0AE FFF2                cmp.l      D0, [A6 - 0xE]
00002558  56C0                     sne        D0
0000255A  4A00                     tst.b      D0
0000255C  6730                     beq        +0x32 /* 0000258E */
0000255E  206E FFEE                movea.l    A0, [A6 - 0x12]
00002562  0C68 0080 006C           cmpi.w     [A0 + 0x6C], 0x80
00002568  5DC1                     slt        D1
0000256A  4A01                     tst.b      D1
0000256C  6618                     bne        +0x1A /* 00002586 */
0000256E  206E FFEE                movea.l    A0, [A6 - 0x12]
00002572  2068 0098                movea.l    A0, [A0 + 0x98]
00002576  2050                     movea.l    A0, [A0]
00002578  7406                     moveq.l    D2, 0x06
0000257A  B428 010A                cmp.b      D2, [A0 + 0x10A]
0000257E  56C2                     sne        D2
00002580  8202                     or.b       D1, D2
00002582  C001                     and.b      D0, D1
00002584  6708                     beq        +0xA /* 0000258E */
label00002586:
00002586  2F2E FFEE                move.l     -[A7], [A6 - 0x12]
0000258A  4EBA F86E                jsr        [PC - 0x792 /* 00001DFA */]
label0000258E:
0000258E  206E FFEE                movea.l    A0, [A6 - 0x12]
00002592  0C68 0080 006C           cmpi.w     [A0 + 0x6C], 0x80
00002598  5CC0                     sge        D0
0000259A  4A00                     tst.b      D0
0000259C  6700 00C2                beq        +0xC4 /* 00002660 */
000025A0  222E FFEE                move.l     D1, [A6 - 0x12]
000025A4  B2AE FFF2                cmp.l      D1, [A6 - 0xE]
000025A8  57C1                     seq        D1
000025AA  4A01                     tst.b      D1
000025AC  6642                     bne        +0x44 /* 000025F0 */
000025AE  206E FFEE                movea.l    A0, [A6 - 0x12]
000025B2  2068 0098                movea.l    A0, [A0 + 0x98]
000025B6  2050                     movea.l    A0, [A0]
000025B8  4A28 010A                tst.b      [A0 + 0x10A]
000025BC  57C2                     seq        D2
000025BE  8202                     or.b       D1, D2
000025C0  662E                     bne        +0x30 /* 000025F0 */
000025C2  206E FFEE                movea.l    A0, [A6 - 0x12]
000025C6  2068 0098                movea.l    A0, [A0 + 0x98]
000025CA  2050                     movea.l    A0, [A0]
000025CC  7401                     moveq.l    D2, 0x01
000025CE  B428 010A                cmp.b      D2, [A0 + 0x10A]
000025D2  57C2                     seq        D2
000025D4  8202                     or.b       D1, D2
000025D6  6618                     bne        +0x1A /* 000025F0 */
000025D8  206E FFEE                movea.l    A0, [A6 - 0x12]
000025DC  2068 0098                movea.l    A0, [A0 + 0x98]
000025E0  2050                     movea.l    A0, [A0]
000025E2  7406                     moveq.l    D2, 0x06
000025E4  B428 010A                cmp.b      D2, [A0 + 0x10A]
000025E8  57C2                     seq        D2
000025EA  8202                     or.b       D1, D2
000025EC  C001                     and.b      D0, D1
000025EE  6770                     beq        +0x72 /* 00002660 */
label000025F0:
000025F0  2F2E FFEE                move.l     -[A7], [A6 - 0x12]
000025F4  A873                     syscall    SetPort
000025F6  206E 0008                movea.l    A0, [A6 + 0x8]
000025FA  2D68 000A FFE4           move.l     [A6 - 0x1C], [A0 + 0xA]
00002600  486E FFE4                pea.l      [A6 - 0x1C]
00002604  A871                     syscall    GlobalToLocal
00002606  4267                     clr.w      -[A7]
00002608  2F2E FFEE                move.l     -[A7], [A6 - 0x12]
0000260C  4EBA FA9A                jsr        [PC - 0x566 /* 000020A8 */]
00002610  101F                     move.b     D0, [A7]+
00002612  663E                     bne        +0x40 /* 00002652 */
00002614  4267                     clr.w      -[A7]
00002616  2F2E FFEE                move.l     -[A7], [A6 - 0x12]
0000261A  2F2E FFE4                move.l     -[A7], [A6 - 0x1C]
0000261E  4EBA FAF4                jsr        [PC - 0x50C /* 00002114 */]
00002622  101F                     move.b     D0, [A7]+
00002624  6622                     bne        +0x24 /* 00002648 */
00002626  2F00                     move.l     -[A7], D0
00002628  4267                     clr.w      -[A7]
0000262A  2F2E FFE4                move.l     -[A7], [A6 - 0x1C]
0000262E  2F2E FFEE                move.l     -[A7], [A6 - 0x12]
00002632  486E FFE0                pea.l      [A6 - 0x20]
00002636  A96C                     syscall    FindControl
00002638  321F                     move.w     D1, [A7]+
0000263A  201F                     move.l     D0, [A7]+
0000263C  4A41                     tst.w      D1
0000263E  56C1                     sne        D1
00002640  8001                     or.b       D0, D1
00002642  0240 0001                andi.w     D0, 0x1
00002646  670A                     beq        +0xC /* 00002652 */
label00002648:
00002648  206E 0008                movea.l    A0, [A6 + 0x8]
0000264C  70FF                     moveq.l    D0, 0xFFFFFFFF
0000264E  2140 0006                move.l     [A0 + 0x6], D0
label00002652:
00002652  2F2E 0008                move.l     -[A7], [A6 + 0x8]
00002656  2F2E FFEE                move.l     -[A7], [A6 - 0x12]
0000265A  4EBA F3B2                jsr        [PC - 0xC4E /* 00001A0E */]
0000265E  600A                     bra        +0xC /* 0000266A */
label00002660:
00002660  206E 0008                movea.l    A0, [A6 + 0x8]
00002664  70FF                     moveq.l    D0, 0xFFFFFFFF
00002666  2140 0006                move.l     [A0 + 0x6], D0
label0000266A:
0000266A  206E 0008                movea.l    A0, [A6 + 0x8]
0000266E  2B68 0006 FDE4           move.l     [A5 - 0x21C], [A0 + 0x6]
00002674  206E 0008                movea.l    A0, [A6 + 0x8]
00002678  2B68 000A FDE0           move.l     [A5 - 0x220], [A0 + 0xA]
0000267E  2B6E FFEE FDDC           move.l     [A5 - 0x224], [A6 - 0x12]
00002684  6000 0154                bra        +0x156 /* 000027DA */
label00002688:
00002688  2F2E 0008                move.l     -[A7], [A6 + 0x8]
0000268C  4EBA F59A                jsr        [PC - 0xA66 /* 00001C28 */]
00002690  6000 0148                bra        +0x14A /* 000027DA */
label00002694:
00002694  206E 0008                movea.l    A0, [A6 + 0x8]
00002698  2D68 0002 FFEE           move.l     [A6 - 0x12], [A0 + 0x2]
0000269E  486E FFEA                pea.l      [A6 - 0x16]
000026A2  A874                     syscall    GetPort
000026A4  2F2E FFEE                move.l     -[A7], [A6 - 0x12]
000026A8  A873                     syscall    SetPort
000026AA  2F2E FFEE                move.l     -[A7], [A6 - 0x12]
000026AE  A922                     syscall    BeginUpdate
000026B0  2F2E 0008                move.l     -[A7], [A6 + 0x8]
000026B4  2F2E FFEE                move.l     -[A7], [A6 - 0x12]
000026B8  4EBA F354                jsr        [PC - 0xCAC /* 00001A0E */]
000026BC  102D F956                move.b     D0, [A5 - 0x6AA]
000026C0  6606                     bne        +0x8 /* 000026C8 */
000026C2  2F2E FFEE                move.l     -[A7], [A6 - 0x12]
000026C6  A923                     syscall    EndUpdate
label000026C8:
000026C8  2F2E FFEA                move.l     -[A7], [A6 - 0x16]
000026CC  A873                     syscall    SetPort
000026CE  6000 010A                bra        +0x10C /* 000027DA */
label000026D2:
000026D2  4267                     clr.w      -[A7]
000026D4  206E 0008                movea.l    A0, [A6 + 0x8]
000026D8  4868 0002                pea.l      [A0 + 0x2]
000026DC  4EBA F220                jsr        [PC - 0xDE0 /* 000018FE */]
000026E0  381F                     move.w     D4, [A7]+
000026E2  102D F943                move.b     D0, [A5 - 0x6BD]
000026E6  6738                     beq        +0x3A /* 00002720 */
000026E8  3204                     move.w     D1, D4
000026EA  6B18                     bmi        +0x1A /* 00002704 */
000026EC  B27C 001F                cmp.w      D1, 0x1F
000026F0  6E12                     bgt        +0x14 /* 00002704 */
000026F2  41FA 0154                lea.l      A0, [PC + 0x154 /* 00002848, value 0x4E56FEF6 */]
000026F6  3401                     move.w     D2, D1
000026F8  E64A                     lsr        D2.w, 3
000026FA  4442                     neg.w      D2
000026FC  0330 20FF                btst       [A0 + D2.w - 0x1], D1
00002700  0A3C 0004                xori.b     ccr, 4
label00002704:
00002704  56C1                     sne        D1
00002706  C001                     and.b      D0, D1
00002708  6716                     beq        +0x18 /* 00002720 */
0000270A  42A7                     clr.l      -[A7]
0000270C  3F04                     move.w     -[A7], D4
0000270E  A93E                     syscall    MenuKey
00002710  2E1F                     move.l     D7, [A7]+
00002712  6700 00C6                beq        +0xC8 /* 000027DA */
00002716  2F07                     move.l     -[A7], D7
00002718  4EBA EB0A                jsr        [PC - 0x14F6 /* 00001224 */]
0000271C  6000 00BC                bra        +0xBE /* 000027DA */
label00002720:
00002720  2F2E 0008                move.l     -[A7], [A6 + 0x8]
00002724  2F2E FFEE                move.l     -[A7], [A6 - 0x12]
00002728  4EBA F2E4                jsr        [PC - 0xD1C /* 00001A0E */]
0000272C  6000 00AC                bra        +0xAE /* 000027DA */
label00002730:
00002730  206E 0008                movea.l    A0, [A6 + 0x8]
00002734  2028 0002                move.l     D0, [A0 + 0x2]
00002738  4840                     swap.w     D0
0000273A  4A40                     tst.w      D0
0000273C  6700 009C                beq        +0x9E /* 000027DA */
00002740  42A7                     clr.l      -[A7]
00002742  2F3C 0040 0080           move.l     -[A7], 0x400080
00002748  206E 0008                movea.l    A0, [A6 + 0x8]
0000274C  2F28 0002                move.l     -[A7], [A0 + 0x2]
00002750  4EAD 073A                jsr        [A5 + 0x73A /* export_227, CODE:3 @ 00003664 */]
00002754  4267                     clr.w      -[A7]
00002756  4EBA 07BC                jsr        [PC + 0x7BC /* 00002F14 */]
0000275A  1D5F FFDE                move.b     [A6 - 0x22], [A7]+
0000275E  607A                     bra        +0x7C /* 000027DA */
label00002760:
00002760  286E 0008                movea.l    A4, [A6 + 0x8]
00002764  203C FF00 0000           move.l     D0, 0xFF000000
0000276A  C0AC 0002                and.l      D0, [A4 + 0x2]
0000276E  0C80 0100 0000           cmpi.l     D0, 0x1000000
00002774  6664                     bne        +0x66 /* 000027DA */
00002776  102C 0005                move.b     D0, [A4 + 0x5]
0000277A  0240 0001                andi.w     D0, 0x1
0000277E  671E                     beq        +0x20 /* 0000279E */
00002780  422D FFFA                clr.b      [A5 - 0x6]
00002784  3F3C FFFF                move.w     -[A7], 0xFFFF
00002788  4EBA 13AA                jsr        [PC + 0x13AA /* 00003B34 */]
0000278C  7000                     moveq.l    D0, 0x00
0000278E  302C 000E                move.w     D0, [A4 + 0xE]
00002792  80BC 0000 0001           or.l       D0, 0x1
00002798  3940 000E                move.w     [A4 + 0xE], D0
0000279C  6016                     bra        +0x18 /* 000027B4 */
label0000279E:
0000279E  1B7C 0001 FFFA           move.b     [A5 - 0x6], 0x1
000027A4  7000                     moveq.l    D0, 0x00
000027A6  302C 000E                move.w     D0, [A4 + 0xE]
000027AA  C0BC FFFF FFFE           and.l      D0, 0xFFFFFFFE
000027B0  3940 000E                move.w     [A4 + 0xE], D0
label000027B4:
000027B4  4AAE FFEE                tst.l      [A6 - 0x12]
000027B8  6720                     beq        +0x22 /* 000027DA */
000027BA  38BC 0008                move.w     [A4], 0x8
000027BE  296E FFEE 0002           move.l     [A4 + 0x2], [A6 - 0x12]
000027C4  2F2E 0008                move.l     -[A7], [A6 + 0x8]
000027C8  4EBA F45E                jsr        [PC - 0xBA2 /* 00001C28 */]
000027CC  600C                     bra        +0xE /* 000027DA */
label000027CE:
000027CE  2F2E 0008                move.l     -[A7], [A6 + 0x8]
000027D2  2F2E FFEE                move.l     -[A7], [A6 - 0x12]
000027D6  4EBA F236                jsr        [PC - 0xDCA /* 00001A0E */]
label000027DA:
000027DA  206E 0008                movea.l    A0, [A6 + 0x8]
000027DE  4A50                     tst.w      [A0]
000027E0  56C0                     sne        D0
000027E2  4A00                     tst.b      D0
000027E4  6754                     beq        +0x56 /* 0000283A */
000027E6  122D F93F                move.b     D1, [A5 - 0x6C1]
000027EA  0A01 0001                xori.b     D1, 0x1
000027EE  C001                     and.b      D0, D1
000027F0  6748                     beq        +0x4A /* 0000283A */
000027F2  4EBA EEAC                jsr        [PC - 0x1154 /* 000016A0 */]
000027F6  102D FDA7                move.b     D0, [A5 - 0x259]
000027FA  673E                     beq        +0x40 /* 0000283A */
000027FC  42A7                     clr.l      -[A7]
000027FE  4EBA F5B8                jsr        [PC - 0xA48 /* 00001DB8 */]
00002802  2D5F FFEE                move.l     [A6 - 0x12], [A7]+
00002806  206E FFEE                movea.l    A0, [A6 - 0x12]
0000280A  0C68 0080 006C           cmpi.w     [A0 + 0x6C], 0x80
00002810  5DC0                     slt        D0
00002812  4A00                     tst.b      D0
00002814  661E                     bne        +0x20 /* 00002834 */
00002816  2F00                     move.l     -[A7], D0
00002818  2F3C FFFF 0000           move.l     -[A7], 0xFFFF0000
0000281E  486E FFC4                pea.l      [A6 - 0x3C]
00002822  A971                     syscall    EventAvail
00002824  121F                     move.b     D1, [A7]+
00002826  201F                     move.l     D0, [A7]+
00002828  0A01 0001                xori.b     D1, 0x1
0000282C  8001                     or.b       D0, D1
0000282E  0240 0001                andi.w     D0, 0x1
00002832  6706                     beq        +0x8 /* 0000283A */
label00002834:
00002834  422D FDA7                clr.b      [A5 - 0x259]
00002838  A937                     syscall    DrawMenuBar
label0000283A:
0000283A  4CDF 18F0                movem.l    D4,D5,D6,D7,A3,A4, [A7]+
0000283E  4E5E                     unlink     A6
00002840  2E9F                     move.l     [A7], [A7]+
00002842  4E75                     rts
00002844  F000 2008                ploadw     0x08, D0
export_21:
fn00002848:
00002848  4E56 FEF6                link       A6, -0x010A
0000284C  48E7 0708                movem.l    -[A7], D5,D6,D7,A4
00002850  1A2E 000C                move.b     D5, [A6 + 0xC]
00002854  286E 0008                movea.l    A4, [A6 + 0x8]
label00002858:
00002858  B9FC 0000 3039           cmpa.l     A4, 0x3039 /* '09' */
0000285E  56C0                     sne        D0
00002860  4A00                     tst.b      D0
00002862  6720                     beq        +0x22 /* 00002884 */
00002864  220C                     move.l     D1, A4
00002866  56C1                     sne        D1
00002868  C001                     and.b      D0, D1
0000286A  6718                     beq        +0x1A /* 00002884 */
0000286C  2054                     movea.l    A0, [A4]
0000286E  2068 0104                movea.l    A0, [A0 + 0x104]
00002872  0C68 2711 006C           cmpi.w     [A0 + 0x6C], 0x2711
00002878  56C1                     sne        D1
0000287A  C001                     and.b      D0, D1
0000287C  6706                     beq        +0x8 /* 00002884 */
0000287E  2054                     movea.l    A0, [A4]
00002880  2850                     movea.l    A4, [A0]
00002882  60D4                     bra        -0x2A /* 00002858 */
label00002884:
00002884  B9FC 0000 3039           cmpa.l     A4, 0x3039 /* '09' */
0000288A  56C0                     sne        D0
0000288C  4A00                     tst.b      D0
0000288E  6700 009E                beq        +0xA0 /* 0000292E */
00002892  220C                     move.l     D1, A4
00002894  56C1                     sne        D1
00002896  C001                     and.b      D0, D1
00002898  6700 0094                beq        +0x96 /* 0000292E */
0000289C  2F3C 0081 0001           move.l     -[A7], 0x810001
000028A2  486E FEFC                pea.l      [A6 - 0x104]
000028A6  4EBA 3454                jsr        [PC + 0x3454 /* 00005CFC */]
000028AA  486E FEFC                pea.l      [A6 - 0x104]
000028AE  2054                     movea.l    A0, [A4]
000028B0  4868 0128                pea.l      [A0 + 0x128]
000028B4  4EBA 3352                jsr        [PC + 0x3352 /* 00005C08 */]
000028B8  1005                     move.b     D0, D5
000028BA  670C                     beq        +0xE /* 000028C8 */
000028BC  2F2E 0012                move.l     -[A7], [A6 + 0x12]
000028C0  486E FEFC                pea.l      [A6 - 0x104]
000028C4  4EBA 3342                jsr        [PC + 0x3342 /* 00005C08 */]
label000028C8:
000028C8  206E 000E                movea.l    A0, [A6 + 0xE]
000028CC  4A10                     tst.b      [A0]
000028CE  675E                     beq        +0x60 /* 0000292E */
000028D0  7A01                     moveq.l    D5, 0x01
000028D2  4240                     clr.w      D0
000028D4  1010                     move.b     D0, [A0]
000028D6  4241                     clr.w      D1
000028D8  122E FEFC                move.b     D1, [A6 - 0x104]
000028DC  B240                     cmp.w      D1, D0
000028DE  6E3E                     bgt        +0x40 /* 0000291E */
000028E0  206E 000E                movea.l    A0, [A6 + 0xE]
000028E4  4246                     clr.w      D6
000028E6  1C10                     move.b     D6, [A0]
000028E8  4247                     clr.w      D7
000028EA  1E2E FEFC                move.b     D7, [A6 - 0x104]
label000028EE:
000028EE  4A47                     tst.w      D7
000028F0  56C0                     sne        D0
000028F2  4A00                     tst.b      D0
000028F4  6722                     beq        +0x24 /* 00002918 */
000028F6  206E 000E                movea.l    A0, [A6 + 0xE]
000028FA  4241                     clr.w      D1
000028FC  1230 6000                move.b     D1, [A0 + D6.w]
00002900  4242                     clr.w      D2
00002902  41EE FEFC                lea.l      A0, [A6 - 0x104]
00002906  1430 7000                move.b     D2, [A0 + D7.w]
0000290A  B441                     cmp.w      D2, D1
0000290C  57C1                     seq        D1
0000290E  C001                     and.b      D0, D1
00002910  6706                     beq        +0x8 /* 00002918 */
00002912  5346                     subq.w     D6, 1
00002914  5347                     subq.w     D7, 1
00002916  60D6                     bra        -0x28 /* 000028EE */
label00002918:
00002918  4A47                     tst.w      D7
0000291A  6602                     bne        +0x4 /* 0000291E */
0000291C  4205                     clr.b      D5
label0000291E:
0000291E  1005                     move.b     D0, D5
00002920  670C                     beq        +0xE /* 0000292E */
00002922  2F2E 000E                move.l     -[A7], [A6 + 0xE]
00002926  486E FEFC                pea.l      [A6 - 0x104]
0000292A  4EBA 32DC                jsr        [PC + 0x32DC /* 00005C08 */]
label0000292E:
0000292E  4CDF 10E0                movem.l    D5,D6,D7,A4, [A7]+
00002932  4E5E                     unlink     A6
00002934  205F                     movea.l    A0, [A7]+
00002936  DEFC 000E                add.w      A7, 0xE
0000293A  4ED0                     jmp        [A0]
export_22:
fn0000293C:
0000293C  4E56 FFEA                link       A6, -0x0016
00002940  48E7 0F18                movem.l    -[A7], D4,D5,D6,D7,A3,A4
00002944  282E 000C                move.l     D4, [A6 + 0xC]
00002948  2C2E 0008                move.l     D6, [A6 + 0x8]
0000294C  422E 0014                clr.b      [A6 + 0x14]
00002950  4A86                     tst.l      D6
00002952  57C0                     seq        D0
00002954  4A00                     tst.b      D0
00002956  6600 0112                bne        +0x114 /* 00002A6A */
0000295A  0C86 0000 3039           cmpi.l     D6, 0x3039 /* '09' */
00002960  57C1                     seq        D1
00002962  8001                     or.b       D0, D1
00002964  6704                     beq        +0x6 /* 0000296A */
00002966  6000 0102                bra        +0x104 /* 00002A6A */
label0000296A:
0000296A  2044                     movea.l    A0, D4
0000296C  4A10                     tst.b      [A0]
0000296E  57C0                     seq        D0
00002970  4A00                     tst.b      D0
00002972  6724                     beq        +0x26 /* 00002998 */
00002974  2046                     movea.l    A0, D6
00002976  2050                     movea.l    A0, [A0]
00002978  2068 0104                movea.l    A0, [A0 + 0x104]
0000297C  0C68 2711 006C           cmpi.w     [A0 + 0x6C], 0x2711
00002982  57C1                     seq        D1
00002984  C001                     and.b      D0, D1
00002986  6710                     beq        +0x12 /* 00002998 */
00002988  2044                     movea.l    A0, D4
0000298A  2246                     movea.l    A1, D6
0000298C  2251                     movea.l    A1, [A1]
0000298E  5889                     addq.l     A1, 4
00002990  707F                     moveq.l    D0, 0x7F
label00002992:
00002992  30D9                     move.w     [A0]+, [A1]+
00002994  51C8 FFFC                dbf        D0, -0x6 /* 00002992 */
label00002998:
00002998  42A7                     clr.l      -[A7]
0000299A  4EBA F41C                jsr        [PC - 0xBE4 /* 00001DB8 */]
0000299E  285F                     movea.l    A4, [A7]+
000029A0  4207                     clr.b      D7
000029A2  42A7                     clr.l      -[A7]
000029A4  2F06                     move.l     -[A7], D6
000029A6  4EBA 1C3A                jsr        [PC + 0x1C3A /* 000045E2 */]
000029AA  2A1F                     move.l     D5, [A7]+
label000029AC:
000029AC  200C                     move.l     D0, A4
000029AE  56C0                     sne        D0
000029B0  4A00                     tst.b      D0
000029B2  6700 009E                beq        +0xA0 /* 00002A52 */
000029B6  1207                     move.b     D1, D7
000029B8  0A01 0001                xori.b     D1, 0x1
000029BC  C001                     and.b      D0, D1
000029BE  6700 0092                beq        +0x94 /* 00002A52 */
000029C2  266C 0098                movea.l    A3, [A4 + 0x98]
000029C6  0C6C 0080 006C           cmpi.w     [A4 + 0x6C], 0x80
000029CC  5CC0                     sge        D0
000029CE  4A00                     tst.b      D0
000029D0  6772                     beq        +0x74 /* 00002A44 */
000029D2  220B                     move.l     D1, A3
000029D4  56C1                     sne        D1
000029D6  C001                     and.b      D0, D1
000029D8  676A                     beq        +0x6C /* 00002A44 */
000029DA  2053                     movea.l    A0, [A3]
000029DC  2244                     movea.l    A1, D4
000029DE  4868 0004                pea.l      [A0 + 0x4]
000029E2  2F09                     move.l     -[A7], A1
000029E4  4EAD 03C2                jsr        [A5 + 0x3C2 /* export_116, CODE:3 @ 0000025A */]
000029E8  C01F                     and.b      D0, [A7]+
000029EA  4A00                     tst.b      D0
000029EC  6756                     beq        +0x58 /* 00002A44 */
000029EE  2053                     movea.l    A0, [A3]
000029F0  7206                     moveq.l    D1, 0x06
000029F2  B228 010A                cmp.b      D1, [A0 + 0x10A]
000029F6  56C1                     sne        D1
000029F8  C001                     and.b      D0, D1
000029FA  6748                     beq        +0x4A /* 00002A44 */
000029FC  7005                     moveq.l    D0, 0x05
000029FE  B028 010A                cmp.b      D0, [A0 + 0x10A]
00002A02  672E                     beq        +0x30 /* 00002A32 */
00002A04  206C 0086                movea.l    A0, [A4 + 0x86]
00002A08  2050                     movea.l    A0, [A0]
00002A0A  226E 0010                movea.l    A1, [A6 + 0x10]
00002A0E  2F08                     move.l     -[A7], A0
00002A10  2F09                     move.l     -[A7], A1
00002A12  4EAD 03C2                jsr        [A5 + 0x3C2 /* export_116, CODE:3 @ 0000025A */]
00002A16  101F                     move.b     D0, [A7]+
00002A18  672A                     beq        +0x2C /* 00002A44 */
00002A1A  2045                     movea.l    A0, D5
00002A1C  2050                     movea.l    A0, [A0]
00002A1E  2253                     movea.l    A1, [A3]
00002A20  3228 0110                move.w     D1, [A0 + 0x110]
00002A24  B269 0110                cmp.w      D1, [A1 + 0x110]
00002A28  57C1                     seq        D1
00002A2A  C001                     and.b      D0, D1
00002A2C  6716                     beq        +0x18 /* 00002A44 */
00002A2E  7E01                     moveq.l    D7, 0x01
00002A30  6012                     bra        +0x14 /* 00002A44 */
label00002A32:
00002A32  2053                     movea.l    A0, [A3]
00002A34  2246                     movea.l    A1, D6
00002A36  2251                     movea.l    A1, [A1]
00002A38  3028 0110                move.w     D0, [A0 + 0x110]
00002A3C  B069 0110                cmp.w      D0, [A1 + 0x110]
00002A40  6602                     bne        +0x4 /* 00002A44 */
00002A42  7E01                     moveq.l    D7, 0x01
label00002A44:
00002A44  1007                     move.b     D0, D7
00002A46  6600 FF64                bne        -0x9A /* 000029AC */
00002A4A  286C 0090                movea.l    A4, [A4 + 0x90]
00002A4E  6000 FF5C                bra        -0xA2 /* 000029AC */
label00002A52:
00002A52  1007                     move.b     D0, D7
00002A54  6710                     beq        +0x12 /* 00002A66 */
00002A56  42A7                     clr.l      -[A7]
00002A58  4EBA F35E                jsr        [PC - 0xCA2 /* 00001DB8 */]
00002A5C  B9DF                     cmpa.l     A4, [A7]+
00002A5E  6706                     beq        +0x8 /* 00002A66 */
00002A60  2F0C                     move.l     -[A7], A4
00002A62  4EBA F396                jsr        [PC - 0xC6A /* 00001DFA */]
label00002A66:
00002A66  1D47 0014                move.b     [A6 + 0x14], D7
label00002A6A:
00002A6A  4CDF 18F0                movem.l    D4,D5,D6,D7,A3,A4, [A7]+
00002A6E  4E5E                     unlink     A6
00002A70  205F                     movea.l    A0, [A7]+
00002A72  DEFC 000C                add.w      A7, 0xC
00002A76  4ED0                     jmp        [A0]
00002A78  4E56 0000                link       A6, 0
00002A7C  4A6D FDAA                tst.w      [A5 - 0x256]
00002A80  6D20                     blt        +0x22 /* 00002AA2 */
00002A82  4267                     clr.w      -[A7]
00002A84  3F2D FDA8                move.w     -[A7], [A5 - 0x258]
00002A88  3F2D FDAA                move.w     -[A7], [A5 - 0x256]
00002A8C  2F2E 0010                move.l     -[A7], [A6 + 0x10]
00002A90  2F2E 000C                move.l     -[A7], [A6 + 0xC]
00002A94  2F2E 0008                move.l     -[A7], [A6 + 0x8]
00002A98  4EBA 136C                jsr        [PC + 0x136C /* 00003E06 */]
00002A9C  1D5F 0014                move.b     [A6 + 0x14], [A7]+
00002AA0  601E                     bra        +0x20 /* 00002AC0 */
label00002AA2:
00002AA2  42A7                     clr.l      -[A7]
00002AA4  302D FDAA                move.w     D0, [A5 - 0x256]
00002AA8  4440                     neg.w      D0
00002AAA  3F00                     move.w     -[A7], D0
00002AAC  2F2E 0010                move.l     -[A7], [A6 + 0x10]
00002AB0  2F2E 000C                move.l     -[A7], [A6 + 0xC]
00002AB4  2F2E 0008                move.l     -[A7], [A6 + 0x8]
00002AB8  4EBA 1162                jsr        [PC + 0x1162 /* 00003C1C */]
00002ABC  1D5F 0014                move.b     [A6 + 0x14], [A7]+
label00002AC0:
00002AC0  4E5E                     unlink     A6
00002AC2  205F                     movea.l    A0, [A7]+
00002AC4  DEFC 000C                add.w      A7, 0xC
00002AC8  4ED0                     jmp        [A0]
export_23:
fn00002ACA:
00002ACA  4E56 FDE4                link       A6, -0x021C
00002ACE  48E7 0718                movem.l    -[A7], D5,D6,D7,A3,A4
00002AD2  206E 000A                movea.l    A0, [A6 + 0xA]
00002AD6  43EE FF00                lea.l      A1, [A6 - 0x100]
00002ADA  707F                     moveq.l    D0, 0x7F
label00002ADC:
00002ADC  32D8                     move.w     [A1]+, [A0]+
00002ADE  51C8 FFFC                dbf        D0, -0x6 /* 00002ADC */
00002AE2  1C2E 000E                move.b     D6, [A6 + 0xE]
00002AE6  422E 0010                clr.b      [A6 + 0x10]
00002AEA  4267                     clr.w      -[A7]
00002AEC  A994                     syscall    CurResFile
00002AEE  3A1F                     move.w     D5, [A7]+
00002AF0  4EBA 2D9A                jsr        [PC + 0x2D9A /* 0000588C */]
00002AF4  3F2E 0008                move.w     -[A7], [A6 + 0x8]
00002AF8  486E FF00                pea.l      [A6 - 0x100]
00002AFC  486E FDFE                pea.l      [A6 - 0x202]
00002B00  4EBA 31D8                jsr        [PC + 0x31D8 /* 00005CDA */]
00002B04  4A2E FDFE                tst.b      [A6 - 0x202]
00002B08  6700 0114                beq        +0x116 /* 00002C1E */
00002B0C  3F3C FFFF                move.w     -[A7], 0xFFFF
00002B10  4EBA 0FF2                jsr        [PC + 0xFF2 /* 00003B04 */]
00002B14  1006                     move.b     D0, D6
00002B16  4880                     ext.w      D0
00002B18  6716                     beq        +0x18 /* 00002B30 */
00002B1A  5340                     subq.w     D0, 1
00002B1C  6718                     beq        +0x1A /* 00002B36 */
00002B1E  5340                     subq.w     D0, 1
00002B20  671A                     beq        +0x1C /* 00002B3C */
00002B22  5340                     subq.w     D0, 1
00002B24  671C                     beq        +0x1E /* 00002B42 */
00002B26  5340                     subq.w     D0, 1
00002B28  671E                     beq        +0x20 /* 00002B48 */
00002B2A  5740                     subq.w     D0, 3
00002B2C  6720                     beq        +0x22 /* 00002B4E */
00002B2E  6022                     bra        +0x24 /* 00002B52 */
label00002B30:
00002B30  3E3C 07D0                move.w     D7, 0x7D0
00002B34  601C                     bra        +0x1E /* 00002B52 */
label00002B36:
00002B36  3E3C 07D1                move.w     D7, 0x7D1
00002B3A  6016                     bra        +0x18 /* 00002B52 */
label00002B3C:
00002B3C  3E3C 07D2                move.w     D7, 0x7D2
00002B40  6010                     bra        +0x12 /* 00002B52 */
label00002B42:
00002B42  3E3C 07D3                move.w     D7, 0x7D3
00002B46  600A                     bra        +0xC /* 00002B52 */
label00002B48:
00002B48  3E3C 07D4                move.w     D7, 0x7D4
00002B4C  6004                     bra        +0x6 /* 00002B52 */
label00002B4E:
00002B4E  3E3C 07D3                move.w     D7, 0x7D3
label00002B52:
00002B52  2F3C 444C 4F47           move.l     -[A7], 0x444C4F47 /* 'DLOG' */
00002B58  3F07                     move.w     -[A7], D7
00002B5A  4EBA 17F2                jsr        [PC + 0x17F2 /* 0000434E */]
00002B5E  102D F7D1                move.b     D0, [A5 - 0x82F]
00002B62  670C                     beq        +0xE /* 00002B70 */
00002B64  42A7                     clr.l      -[A7]
00002B66  AA32                     syscall    GetGDevice
00002B68  265F                     movea.l    A3, [A7]+
00002B6A  42A7                     clr.l      -[A7]
00002B6C  AA2A                     syscall    GetMainDevice
00002B6E  AA31                     syscall    SetGDevice
label00002B70:
00002B70  42A7                     clr.l      -[A7]
00002B72  3F07                     move.w     -[A7], D7
00002B74  42A7                     clr.l      -[A7]
00002B76  70FF                     moveq.l    D0, 0xFFFFFFFF
00002B78  2F00                     move.l     -[A7], D0
00002B7A  A97C                     syscall    GetNewDialog
00002B7C  285F                     movea.l    A4, [A7]+
00002B7E  102D F7D1                move.b     D0, [A5 - 0x82F]
00002B82  6704                     beq        +0x6 /* 00002B88 */
00002B84  2F0B                     move.l     -[A7], A3
00002B86  AA31                     syscall    SetGDevice
label00002B88:
00002B88  2F0C                     move.l     -[A7], A4
00002B8A  3F3C 0002                move.w     -[A7], 0x2
00002B8E  486E FDF4                pea.l      [A6 - 0x20C]
00002B92  486E FDF0                pea.l      [A6 - 0x210]
00002B96  486E FDE8                pea.l      [A6 - 0x218]
00002B9A  A98D                     syscall    GetDialogItem/GetDItem
00002B9C  2F2E FDF0                move.l     -[A7], [A6 - 0x210]
00002BA0  486E FDFE                pea.l      [A6 - 0x202]
00002BA4  A98F                     syscall    SetDialogItemText/SetIText
00002BA6  2F0C                     move.l     -[A7], A4
00002BA8  A915                     syscall    ShowWindow
00002BAA  7007                     moveq.l    D0, 0x07
00002BAC  B006                     cmp.b      D0, D6
00002BAE  6608                     bne        +0xA /* 00002BB8 */
00002BB0  3B7C 0003 FDA8           move.w     [A5 - 0x258], 0x3
00002BB6  6006                     bra        +0x8 /* 00002BBE */
label00002BB8:
00002BB8  3B7C 0001 FDA8           move.w     [A5 - 0x258], 0x1
label00002BBE:
00002BBE  7003                     moveq.l    D0, 0x03
00002BC0  B006                     cmp.b      D0, D6
00002BC2  57C0                     seq        D0
00002BC4  4A00                     tst.b      D0
00002BC6  660A                     bne        +0xC /* 00002BD2 */
00002BC8  7207                     moveq.l    D1, 0x07
00002BCA  B206                     cmp.b      D1, D6
00002BCC  57C1                     seq        D1
00002BCE  8001                     or.b       D0, D1
00002BD0  6708                     beq        +0xA /* 00002BDA */
label00002BD2:
00002BD2  3B7C 0003 FDAA           move.w     [A5 - 0x256], 0x3
00002BD8  6012                     bra        +0x14 /* 00002BEC */
label00002BDA:
00002BDA  7004                     moveq.l    D0, 0x04
00002BDC  B006                     cmp.b      D0, D6
00002BDE  6608                     bne        +0xA /* 00002BE8 */
00002BE0  3B7C FFFD FDAA           move.w     [A5 - 0x256], 0xFFFD
00002BE6  6004                     bra        +0x6 /* 00002BEC */
label00002BE8:
00002BE8  426D FDAA                clr.w      [A5 - 0x256]
label00002BEC:
00002BEC  487A FE8A                pea.l      [PC - 0x176 /* 00002A78, value 0x4E560000 'NV\0\0', cstring "NV" */]
00002BF0  486E FDF6                pea.l      [A6 - 0x20A]
00002BF4  A991                     syscall    ModalDialog
00002BF6  7001                     moveq.l    D0, 0x01
00002BF8  B06E FDF6                cmp.w      D0, [A6 - 0x20A]
00002BFC  57C0                     seq        D0
00002BFE  4400                     neg.b      D0
00002C00  1D40 0010                move.b     [A6 + 0x10], D0
00002C04  2F0C                     move.l     -[A7], A4
00002C06  A983                     syscall    DisposeDialog
00002C08  4EBA 0F1A                jsr        [PC + 0xF1A /* 00003B24 */]
00002C0C  487A 0020                pea.l      [PC + 0x20 /* 00002C2E, value 0x4E56 'NV', cstring "" */]
00002C10  487A 001C                pea.l      [PC + 0x1C /* 00002C2E, value 0x4E56 'NV', cstring "" */]
00002C14  487A 0018                pea.l      [PC + 0x18 /* 00002C2E, value 0x4E56 'NV', cstring "" */]
00002C18  487A 0014                pea.l      [PC + 0x14 /* 00002C2E, value 0x4E56 'NV', cstring "" */]
00002C1C  A98B                     syscall    ParamText
label00002C1E:
00002C1E  3F05                     move.w     -[A7], D5
00002C20  A998                     syscall    UseResFile
00002C22  4CDF 18E0                movem.l    D5,D6,D7,A3,A4, [A7]+
00002C26  4E5E                     unlink     A6
00002C28  205F                     movea.l    A0, [A7]+
00002C2A  504F                     addq.w     A7, 8
00002C2C  4ED0                     jmp        [A0]
00002C2E  0000 4E56                ori.b      D0, 0x56 /* 'V' */
// begin alternate branch 00002C30-00002C34
export_24:
fn00002C30:
00002C30  4E56 FFFE                link       A6, -0x0002
// end alternate branch 00002C30-00002C34
export_24: // at 00002C30 (misaligned)
fn00002C30: // (misaligned)
00002C32  FFFE                     .invalid   <<F/7/7>>
00002C34  48E7 0300                movem.l    -[A7], D6,D7
00002C38  3E2E 0008                move.w     D7, [A6 + 0x8]
00002C3C  7007                     moveq.l    D0, 0x07
00002C3E  B047                     cmp.w      D0, D7
00002C40  57C0                     seq        D0
00002C42  4A00                     tst.b      D0
00002C44  6712                     beq        +0x14 /* 00002C58 */
00002C46  206D F936                movea.l    A0, [A5 - 0x6CA]
00002C4A  2050                     movea.l    A0, [A0]
00002C4C  4A50                     tst.w      [A0]
00002C4E  57C1                     seq        D1
00002C50  C001                     and.b      D0, D1
00002C52  6704                     beq        +0x6 /* 00002C58 */
00002C54  6000 00D4                bra        +0xD6 /* 00002D2A */
label00002C58:
00002C58  4267                     clr.w      -[A7]
00002C5A  A994                     syscall    CurResFile
00002C5C  3C1F                     move.w     D6, [A7]+
00002C5E  4EBA 2C2C                jsr        [PC + 0x2C2C /* 0000588C */]
00002C62  3F3C FFFF                move.w     -[A7], 0xFFFF
00002C66  4EBA 0E9C                jsr        [PC + 0xE9C /* 00003B04 */]
00002C6A  2F3C 414C 5254           move.l     -[A7], 0x414C5254 /* 'ALRT' */
00002C70  3F07                     move.w     -[A7], D7
00002C72  4EBA 16DA                jsr        [PC + 0x16DA /* 0000434E */]
00002C76  102E 000A                move.b     D0, [A6 + 0xA]
00002C7A  4880                     ext.w      D0
00002C7C  6B00 008E                bmi        +0x90 /* 00002D0C */
00002C80  0C40 0006                cmpi.w     D0, 0x6
00002C84  6E00 0086                bgt        +0x88 /* 00002D0C */
00002C88  D040                     add.w      D0, D0
00002C8A  303B 0006                move.w     D0, [PC + D0.w + 0x6]
00002C8E  4EFB 0000                jmp        [PC + D0.w]
00002C92  0010 001E                ori.b      [A0], 0x1E
00002C96  002C 003A 0048           ori.b      [A4 + 0x48], 0x3A /* ':' */
00002C9C  005E 006E                ori.w      [A6]+, 0x6E /* 'n' */
00002CA0  4267                     clr.w      -[A7]
00002CA2  3F07                     move.w     -[A7], D7
00002CA4  42A7                     clr.l      -[A7]
00002CA6  A985                     syscall    Alert
00002CA8  3D5F 000C                move.w     [A6 + 0xC], [A7]+
00002CAC  605E                     bra        +0x60 /* 00002D0C */
00002CAE  4267                     clr.w      -[A7]
00002CB0  3F07                     move.w     -[A7], D7
00002CB2  42A7                     clr.l      -[A7]
00002CB4  A986                     syscall    StopAlert
00002CB6  3D5F 000C                move.w     [A6 + 0xC], [A7]+
00002CBA  6050                     bra        +0x52 /* 00002D0C */
00002CBC  4267                     clr.w      -[A7]
00002CBE  3F07                     move.w     -[A7], D7
00002CC0  42A7                     clr.l      -[A7]
00002CC2  A987                     syscall    NoteAlert
00002CC4  3D5F 000C                move.w     [A6 + 0xC], [A7]+
00002CC8  6042                     bra        +0x44 /* 00002D0C */
00002CCA  4267                     clr.w      -[A7]
00002CCC  3F07                     move.w     -[A7], D7
00002CCE  42A7                     clr.l      -[A7]
00002CD0  A988                     syscall    CautionAlert
00002CD2  3D5F 000C                move.w     [A6 + 0xC], [A7]+
00002CD6  6034                     bra        +0x36 /* 00002D0C */
00002CD8  3B7C FFFE FDAA           move.w     [A5 - 0x256], 0xFFFE
00002CDE  4267                     clr.w      -[A7]
00002CE0  3F07                     move.w     -[A7], D7
00002CE2  487A FD94                pea.l      [PC - 0x26C /* 00002A78, value 0x4E560000 'NV\0\0', cstring "NV" */]
00002CE6  A988                     syscall    CautionAlert
00002CE8  3D5F 000C                move.w     [A6 + 0xC], [A7]+
00002CEC  601E                     bra        +0x20 /* 00002D0C */
00002CEE  4267                     clr.w      -[A7]
00002CF0  3F07                     move.w     -[A7], D7
00002CF2  487A 0EFC                pea.l      [PC + 0xEFC /* 00003BF0, value 0x4E560000 'NV\0\0', cstring "NV" */]
00002CF6  A988                     syscall    CautionAlert
00002CF8  3D5F 000C                move.w     [A6 + 0xC], [A7]+
00002CFC  600E                     bra        +0x10 /* 00002D0C */
00002CFE  4267                     clr.w      -[A7]
00002D00  3F07                     move.w     -[A7], D7
00002D02  487A 0EEC                pea.l      [PC + 0xEEC /* 00003BF0, value 0x4E560000 'NV\0\0', cstring "NV" */]
00002D06  A986                     syscall    StopAlert
00002D08  3D5F 000C                move.w     [A6 + 0xC], [A7]+
label00002D0C:
00002D0C  4EBA 0E16                jsr        [PC + 0xE16 /* 00003B24 */]
00002D10  4278 0A9A                clr.w      [0x00000A9A /* ACount */]
00002D14  3F06                     move.w     -[A7], D6
00002D16  A998                     syscall    UseResFile
00002D18  487A 001A                pea.l      [PC + 0x1A /* 00002D34, value 0x4E56 'NV', cstring "" */]
00002D1C  487A 0016                pea.l      [PC + 0x16 /* 00002D34, value 0x4E56 'NV', cstring "" */]
00002D20  487A 0012                pea.l      [PC + 0x12 /* 00002D34, value 0x4E56 'NV', cstring "" */]
00002D24  487A 000E                pea.l      [PC + 0xE /* 00002D34, value 0x4E56 'NV', cstring "" */]
00002D28  A98B                     syscall    ParamText
label00002D2A:
00002D2A  4CDF 00C0                movem.l    D6,D7, [A7]+
00002D2E  4E5E                     unlink     A6
00002D30  2E9F                     move.l     [A7], [A7]+
00002D32  4E75                     rts
00002D34  0000 4E56                ori.b      D0, 0x56 /* 'V' */
// begin alternate branch 00002D36-00002D42
fn00002D36:
00002D36  4E56 0000                link       A6, 0
00002D3A  302E 0008                move.w     D0, [A6 + 0x8]
00002D3E  0440 EC78                subi.w     D0, 0xEC78
// end alternate branch 00002D36-00002D42
fn00002D36: // (misaligned)
00002D38  0000 302E                ori.b      D0, 0x2E /* '.' */
00002D3C  0008 0440                ori.b      A0, 0x40 /* '@' */
00002D40  EC78                     ror        D0.w, D6
00002D42  6700 00E8                beq        +0xEA /* 00002E2C */
00002D46  0440 12C1                subi.w     D0, 0x12C1
00002D4A  6700 00D8                beq        +0xDA /* 00002E24 */
00002D4E  5340                     subq.w     D0, 1
00002D50  6700 00CA                beq        +0xCC /* 00002E1C */
00002D54  5540                     subq.w     D0, 2
00002D56  6700 00BC                beq        +0xBE /* 00002E14 */
00002D5A  5540                     subq.w     D0, 2
00002D5C  6700 00AE                beq        +0xB0 /* 00002E0C */
00002D60  5340                     subq.w     D0, 1
00002D62  6700 00A0                beq        +0xA2 /* 00002E04 */
00002D66  5340                     subq.w     D0, 1
00002D68  6700 0092                beq        +0x94 /* 00002DFC */
00002D6C  5D40                     subq.w     D0, 6
00002D6E  6700 00C4                beq        +0xC6 /* 00002E34 */
00002D72  0440 004E                subi.w     D0, 0x4E /* 'N' */
00002D76  674C                     beq        +0x4E /* 00002DC4 */
00002D78  0440 002F                subi.w     D0, 0x2F /* '/' */
00002D7C  6734                     beq        +0x36 /* 00002DB2 */
00002D7E  0440 000C                subi.w     D0, 0xC
00002D82  6748                     beq        +0x4A /* 00002DCC */
00002D84  5540                     subq.w     D0, 2
00002D86  676C                     beq        +0x6E /* 00002DF4 */
00002D88  5540                     subq.w     D0, 2
00002D8A  6726                     beq        +0x28 /* 00002DB2 */
00002D8C  5340                     subq.w     D0, 1
00002D8E  6718                     beq        +0x1A /* 00002DA8 */
00002D90  5340                     subq.w     D0, 1
00002D92  6750                     beq        +0x52 /* 00002DE4 */
00002D94  5340                     subq.w     D0, 1
00002D96  673C                     beq        +0x3E /* 00002DD4 */
00002D98  5740                     subq.w     D0, 3
00002D9A  6750                     beq        +0x52 /* 00002DEC */
00002D9C  5940                     subq.w     D0, 4
00002D9E  673C                     beq        +0x3E /* 00002DDC */
00002DA0  5340                     subq.w     D0, 1
00002DA2  6718                     beq        +0x1A /* 00002DBC */
00002DA4  6000 0096                bra        +0x98 /* 00002E3C */
label00002DA8:
00002DA8  3D7C 0002 000A           move.w     [A6 + 0xA], 0x2
00002DAE  6000 0092                bra        +0x94 /* 00002E42 */
label00002DB2:
00002DB2  3D7C 0004 000A           move.w     [A6 + 0xA], 0x4
00002DB8  6000 0088                bra        +0x8A /* 00002E42 */
label00002DBC:
00002DBC  3D7C 0003 000A           move.w     [A6 + 0xA], 0x3
00002DC2  607E                     bra        +0x80 /* 00002E42 */
label00002DC4:
00002DC4  3D7C 0005 000A           move.w     [A6 + 0xA], 0x5
00002DCA  6076                     bra        +0x78 /* 00002E42 */
label00002DCC:
00002DCC  3D7C 0006 000A           move.w     [A6 + 0xA], 0x6
00002DD2  606E                     bra        +0x70 /* 00002E42 */
label00002DD4:
00002DD4  3D7C 0007 000A           move.w     [A6 + 0xA], 0x7
00002DDA  6066                     bra        +0x68 /* 00002E42 */
label00002DDC:
00002DDC  3D7C 0008 000A           move.w     [A6 + 0xA], 0x8
00002DE2  605E                     bra        +0x60 /* 00002E42 */
label00002DE4:
00002DE4  3D7C 0010 000A           move.w     [A6 + 0xA], 0x10
00002DEA  6056                     bra        +0x58 /* 00002E42 */
label00002DEC:
00002DEC  3D7C 0011 000A           move.w     [A6 + 0xA], 0x11
00002DF2  604E                     bra        +0x50 /* 00002E42 */
label00002DF4:
00002DF4  3D7C 0012 000A           move.w     [A6 + 0xA], 0x12
00002DFA  6046                     bra        +0x48 /* 00002E42 */
label00002DFC:
00002DFC  3D7C 0009 000A           move.w     [A6 + 0xA], 0x9 /* '\t' */
00002E02  603E                     bra        +0x40 /* 00002E42 */
label00002E04:
00002E04  3D7C 000B 000A           move.w     [A6 + 0xA], 0xB
00002E0A  6036                     bra        +0x38 /* 00002E42 */
label00002E0C:
00002E0C  3D7C 000C 000A           move.w     [A6 + 0xA], 0xC
00002E12  602E                     bra        +0x30 /* 00002E42 */
label00002E14:
00002E14  3D7C 000D 000A           move.w     [A6 + 0xA], 0xD /* '\r' */
00002E1A  6026                     bra        +0x28 /* 00002E42 */
label00002E1C:
00002E1C  3D7C 000E 000A           move.w     [A6 + 0xA], 0xE
00002E22  601E                     bra        +0x20 /* 00002E42 */
label00002E24:
00002E24  3D7C 000F 000A           move.w     [A6 + 0xA], 0xF
00002E2A  6016                     bra        +0x18 /* 00002E42 */
label00002E2C:
00002E2C  3D7C 000A 000A           move.w     [A6 + 0xA], 0xA /* '\n' */
00002E32  600E                     bra        +0x10 /* 00002E42 */
label00002E34:
00002E34  3D7C 0013 000A           move.w     [A6 + 0xA], 0x13
00002E3A  6006                     bra        +0x8 /* 00002E42 */
label00002E3C:
00002E3C  3D7C 0001 000A           move.w     [A6 + 0xA], 0x1
label00002E42:
00002E42  4E5E                     unlink     A6
00002E44  205F                     movea.l    A0, [A7]+
00002E46  544F                     addq.w     A7, 2
00002E48  4ED0                     jmp        [A0]
export_25:
00002E4A  4E56 FDF8                link       A6, -0x0208
00002E4E  48E7 0108                movem.l    -[A7], D7,A4
00002E52  42A7                     clr.l      -[A7]
00002E54  2F3C 0000 0100           move.l     -[A7], 0x100
00002E5A  4EAD 04FA                jsr        [A5 + 0x4FA /* export_155, CODE:3 @ 000024FC */]
00002E5E  285F                     movea.l    A4, [A7]+
00002E60  200C                     move.l     D0, A4
00002E62  660A                     bne        +0xC /* 00002E6E */
00002E64  206E 0008                movea.l    A0, [A6 + 0x8]
00002E68  4210                     clr.b      [A0]
00002E6A  6000 009C                bra        +0x9E /* 00002F08 */
label00002E6E:
00002E6E  2F0C                     move.l     -[A7], A4
00002E70  205F                     movea.l    A0, [A7]+
00002E72  A029                     syscall    HLock
00002E74  4267                     clr.w      -[A7]
00002E76  3F2E 000C                move.w     -[A7], [A6 + 0xC]
00002E7A  4EBA FEBA                jsr        [PC - 0x146 /* 00002D36 */]
00002E7E  3F3C 0084                move.w     -[A7], 0x84
00002E82  2F14                     move.l     -[A7], [A4]
00002E84  4EBA 2E76                jsr        [PC + 0x2E76 /* 00005CFC */]
00002E88  2F0C                     move.l     -[A7], A4
00002E8A  205F                     movea.l    A0, [A7]+
00002E8C  A02A                     syscall    HUnlock
00002E8E  302E 000C                move.w     D0, [A6 + 0xC]
00002E92  48C0                     ext.l      D0
00002E94  2F00                     move.l     -[A7], D0
00002E96  486E FEFE                pea.l      [A6 - 0x102]
00002E9A  4EAD 074A                jsr        [A5 + 0x74A /* export_229, CODE:3 @ 0000367E */]
00002E9E  2D7C 025E 3320 FDFE      move.l     [A6 - 0x202], 0x25E3320
00002EA6  42A7                     clr.l      -[A7]
00002EA8  2F0C                     move.l     -[A7], A4
00002EAA  7001                     moveq.l    D0, 0x01
00002EAC  2F00                     move.l     -[A7], D0
00002EAE  486E FDFF                pea.l      [A6 - 0x201]
00002EB2  4240                     clr.w      D0
00002EB4  102E FDFE                move.b     D0, [A6 - 0x202]
00002EB8  48C0                     ext.l      D0
00002EBA  2F00                     move.l     -[A7], D0
00002EBC  486E FEFF                pea.l      [A6 - 0x101]
00002EC0  4240                     clr.w      D0
00002EC2  102E FEFE                move.b     D0, [A6 - 0x102]
00002EC6  48C0                     ext.l      D0
00002EC8  2F00                     move.l     -[A7], D0
00002ECA  A9E0                     syscall    Munger
00002ECC  201F                     move.l     D0, [A7]+
00002ECE  3E00                     move.w     D7, D0
00002ED0  6D1A                     blt        +0x1C /* 00002EEC */
00002ED2  2054                     movea.l    A0, [A4]
00002ED4  2248                     movea.l    A1, A0
00002ED6  4240                     clr.w      D0
00002ED8  1011                     move.b     D0, [A1]
00002EDA  4241                     clr.w      D1
00002EDC  122E FEFE                move.b     D1, [A6 - 0x102]
00002EE0  D240                     add.w      D1, D0
00002EE2  4240                     clr.w      D0
00002EE4  102E FDFE                move.b     D0, [A6 - 0x202]
00002EE8  9240                     sub.w      D1, D0
00002EEA  1081                     move.b     [A0], D1
label00002EEC:
00002EEC  2F14                     move.l     -[A7], [A4]
00002EEE  2F2E 0008                move.l     -[A7], [A6 + 0x8]
00002EF2  2054                     movea.l    A0, [A4]
00002EF4  4240                     clr.w      D0
00002EF6  1010                     move.b     D0, [A0]
00002EF8  5240                     addq.w     D0, 1
00002EFA  48C0                     ext.l      D0
00002EFC  2F00                     move.l     -[A7], D0
00002EFE  4EAD 0522                jsr        [A5 + 0x522 /* export_160, CODE:3 @ 00002532 */]
00002F02  2F0C                     move.l     -[A7], A4
00002F04  205F                     movea.l    A0, [A7]+
00002F06  A023                     syscall    DisposHandle/DisposeHandle
label00002F08:
00002F08  4CDF 1080                movem.l    D7,A4, [A7]+
00002F0C  4E5E                     unlink     A6
00002F0E  205F                     movea.l    A0, [A7]+
00002F10  5C4F                     addq.w     A7, 6
00002F12  4ED0                     jmp        [A0]
export_26:
fn00002F14:
00002F14  4E56 FEFE                link       A6, -0x0102
00002F18  48E7 0700                movem.l    -[A7], D5,D6,D7
00002F1C  3A2E 000A                move.w     D5, [A6 + 0xA]
00002F20  3C2E 0008                move.w     D6, [A6 + 0x8]
00002F24  4A45                     tst.w      D5
00002F26  660A                     bne        +0xC /* 00002F32 */
00002F28  1D7C 0001 000C           move.b     [A6 + 0xC], 0x1
00002F2E  6000 009E                bra        +0xA0 /* 00002FCE */
label00002F32:
00002F32  102D FD99                move.b     D0, [A5 - 0x267]
00002F36  6732                     beq        +0x34 /* 00002F6A */
00002F38  4AAD FDC0                tst.l      [A5 - 0x240]
00002F3C  671E                     beq        +0x20 /* 00002F5C */
00002F3E  2F2D FDC0                move.l     -[A7], [A5 - 0x240]
00002F42  205F                     movea.l    A0, [A7]+
00002F44  A023                     syscall    DisposHandle/DisposeHandle
00002F46  4267                     clr.w      -[A7]
00002F48  3F05                     move.w     -[A7], D5
00002F4A  3F3C FFFE                move.w     -[A7], 0xFFFE
00002F4E  487A 0096                pea.l      [PC + 0x96 /* 00002FE6, value 0x4E56 'NV', cstring "" */]
00002F52  4EBA 0116                jsr        [PC + 0x116 /* 0000306A */]
00002F56  1D5F 000C                move.b     [A6 + 0xC], [A7]+
00002F5A  6006                     bra        +0x8 /* 00002F62 */
label00002F5C:
00002F5C  4EBA E6A0                jsr        [PC - 0x1960 /* 000015FE */]
00002F60  A9F4                     syscall    ExitToShell
label00002F62:
00002F62  7000                     moveq.l    D0, 0x00
00002F64  2B40 FDC0                move.l     [A5 - 0x240], D0
00002F68  6064                     bra        +0x66 /* 00002FCE */
label00002F6A:
00002F6A  41EE FEFE                lea.l      A0, [A6 - 0x102]
00002F6E  43FA 0070                lea.l      A1, [PC + 0x70 /* 00002FE0, value 0x44D6973, pstring "Misc" */]
00002F72  7002                     moveq.l    D0, 0x02
label00002F74:
00002F74  30D9                     move.w     [A0]+, [A1]+
00002F76  51C8 FFFC                dbf        D0, -0x6 /* 00002F74 */
00002F7A  4A46                     tst.w      D6
00002F7C  6D32                     blt        +0x34 /* 00002FB0 */
00002F7E  4267                     clr.w      -[A7]
00002F80  3F05                     move.w     -[A7], D5
00002F82  4EBA FDB2                jsr        [PC - 0x24E /* 00002D36 */]
00002F86  3E1F                     move.w     D7, [A7]+
00002F88  7001                     moveq.l    D0, 0x01
00002F8A  B047                     cmp.w      D0, D7
00002F8C  57C0                     seq        D0
00002F8E  4A00                     tst.b      D0
00002F90  670C                     beq        +0xE /* 00002F9E */
00002F92  4A46                     tst.w      D6
00002F94  56C1                     sne        D1
00002F96  C001                     and.b      D0, D1
00002F98  6704                     beq        +0x6 /* 00002F9E */
00002F9A  3E06                     move.w     D7, D6
00002F9C  6014                     bra        +0x16 /* 00002FB2 */
label00002F9E:
00002F9E  41EE FEFE                lea.l      A0, [A6 - 0x102]
00002FA2  43FA 0034                lea.l      A1, [PC + 0x34 /* 00002FD8, value 0x6457272, pstring "Errors" */]
00002FA6  7003                     moveq.l    D0, 0x03
label00002FA8:
00002FA8  30D9                     move.w     [A0]+, [A1]+
00002FAA  51C8 FFFC                dbf        D0, -0x6 /* 00002FA8 */
00002FAE  6002                     bra        +0x4 /* 00002FB2 */
label00002FB0:
00002FB0  3E06                     move.w     D7, D6
label00002FB2:
00002FB2  1B7C 0001 FD99           move.b     [A5 - 0x267], 0x1
00002FB8  4267                     clr.w      -[A7]
00002FBA  3F05                     move.w     -[A7], D5
00002FBC  3F07                     move.w     -[A7], D7
00002FBE  486E FEFE                pea.l      [A6 - 0x102]
00002FC2  4EBA 00A6                jsr        [PC + 0xA6 /* 0000306A */]
00002FC6  1D5F 000C                move.b     [A6 + 0xC], [A7]+
00002FCA  422D FD99                clr.b      [A5 - 0x267]
label00002FCE:
00002FCE  4CDF 00E0                movem.l    D5,D6,D7, [A7]+
00002FD2  4E5E                     unlink     A6
00002FD4  2E9F                     move.l     [A7], [A7]+
00002FD6  4E75                     rts
00002FD8  0645 7272                addi.w     D5, 0x7272 /* 'rr' */
00002FDC  6F72                     ble        +0x74 /* 00003050 */
00002FDE  7300                     moveq.l    D1, 0x00
00002FE0  044D 6973                subi.w     A5, 0x6973 /* 'is' */
00002FE4  6300 0000                bls        +0x2 /* 00002FE6 */
// begin alternate branch 00002FE6-00002FEC
label00002FE6:
00002FE6  0000 4E56                ori.b      D0, 0x56 /* 'V' */
00002FEA  FFFE                     .invalid   <<F/7/7>>
// end alternate branch 00002FE6-00002FEC
label00002FE6: // (misaligned)
00002FE8  4E56 FFFE                link       A6, -0x0002
00002FEC  48E7 0118                movem.l    -[A7], D7,A3,A4
00002FF0  266E 0010                movea.l    A3, [A6 + 0x10]
00002FF4  286E 000C                movea.l    A4, [A6 + 0xC]
00002FF8  422E 0014                clr.b      [A6 + 0x14]
00002FFC  3014                     move.w     D0, [A4]
00002FFE  5740                     subq.w     D0, 3
00003000  6706                     beq        +0x8 /* 00003008 */
00003002  5740                     subq.w     D0, 3
00003004  6744                     beq        +0x46 /* 0000304A */
00003006  6052                     bra        +0x54 /* 0000305A */
label00003008:
00003008  203C 0000 00FF           move.l     D0, 0xFF
0000300E  C0AC 0002                and.l      D0, [A4 + 0x2]
00003012  3E00                     move.w     D7, D0
00003014  6B18                     bmi        +0x1A /* 0000302E */
00003016  B07C 000F                cmp.w      D0, 0xF
0000301A  6E12                     bgt        +0x14 /* 0000302E */
0000301C  41FA 004C                lea.l      A0, [PC + 0x4C /* 0000306A, value 0x4E56FDE8 */]
00003020  3200                     move.w     D1, D0
00003022  E649                     lsr        D1.w, 3
00003024  4441                     neg.w      D1
00003026  0130 10FF                btst       [A0 + D1.w - 0x1], D0
0000302A  0A3C 0004                xori.b     ccr, 4
label0000302E:
0000302E  662A                     bne        +0x2C /* 0000305A */
00003030  1D7C 0001 0014           move.b     [A6 + 0x14], 0x1
00003036  206E 0008                movea.l    A0, [A6 + 0x8]
0000303A  30BC 0001                move.w     [A0], 0x1
0000303E  2F0B                     move.l     -[A7], A3
00003040  3F3C 0001                move.w     -[A7], 0x1
00003044  4EAD 031A                jsr        [A5 + 0x31A /* export_95, CODE:2 @ 00000138 */]
00003048  6010                     bra        +0x12 /* 0000305A */
label0000304A:
0000304A  B7EC 0002                cmpa.l     A3, [A4 + 0x2]
0000304E  660A                     bne        +0xC /* 0000305A */
label00003050:
00003050  2F0B                     move.l     -[A7], A3
00003052  3F3C 0001                move.w     -[A7], 0x1
00003056  4EAD 030A                jsr        [A5 + 0x30A /* export_93, CODE:2 @ 00000000 */]
label0000305A:
0000305A  4CDF 1880                movem.l    D7,A3,A4, [A7]+
0000305E  4E5E                     unlink     A6
00003060  205F                     movea.l    A0, [A7]+
00003062  DEFC 000C                add.w      A7, 0xC
00003066  4ED0                     jmp        [A0]
00003068  2008                     move.l     D0, A0
export_27:
fn0000306A:
0000306A  4E56 FDE8                link       A6, -0x0218
0000306E  48E7 0F08                movem.l    -[A7], D4,D5,D6,D7,A4
00003072  206E 0008                movea.l    A0, [A6 + 0x8]
00003076  43EE FF00                lea.l      A1, [A6 - 0x100]
0000307A  707F                     moveq.l    D0, 0x7F
label0000307C:
0000307C  32D8                     move.w     [A1]+, [A0]+
0000307E  51C8 FFFC                dbf        D0, -0x6 /* 0000307C */
00003082  382E 000C                move.w     D4, [A6 + 0xC]
00003086  3A2E 000E                move.w     D5, [A6 + 0xE]
0000308A  57C0                     seq        D0
0000308C  4400                     neg.b      D0
0000308E  1D40 0010                move.b     [A6 + 0x10], D0
00003092  4A45                     tst.w      D5
00003094  6C00 0100                bge        +0x102 /* 00003196 */
00003098  4267                     clr.w      -[A7]
0000309A  A994                     syscall    CurResFile
0000309C  3E1F                     move.w     D7, [A7]+
0000309E  4267                     clr.w      -[A7]
000030A0  4EBA 32F0                jsr        [PC + 0x32F0 /* 00006392 */]
000030A4  1C1F                     move.b     D6, [A7]+
000030A6  1F3C 0001                move.b     -[A7], 0x1
000030AA  A99B                     syscall    SetResLoad
000030AC  4EBA 27DE                jsr        [PC + 0x27DE /* 0000588C */]
000030B0  70FF                     moveq.l    D0, 0xFFFFFFFF
000030B2  B045                     cmp.w      D0, D5
000030B4  6710                     beq        +0x12 /* 000030C6 */
000030B6  3005                     move.w     D0, D5
000030B8  48C0                     ext.l      D0
000030BA  2F00                     move.l     -[A7], D0
000030BC  486E FE00                pea.l      [A6 - 0x200]
000030C0  4EAD 074A                jsr        [A5 + 0x74A /* export_229, CODE:3 @ 0000367E */]
000030C4  6006                     bra        +0x8 /* 000030CC */
label000030C6:
000030C6  3D7C 013F FE00           move.w     [A6 - 0x200], 0x13F
label000030CC:
000030CC  487A 00D4                pea.l      [PC + 0xD4 /* 000031A2, value 0x4E56 'NV', cstring "" */]
000030D0  487A 00D0                pea.l      [PC + 0xD0 /* 000031A2, value 0x4E56 'NV', cstring "" */]
000030D4  487A 00CC                pea.l      [PC + 0xCC /* 000031A2, value 0x4E56 'NV', cstring "" */]
000030D8  486E FE00                pea.l      [A6 - 0x200]
000030DC  A98B                     syscall    ParamText
000030DE  4A44                     tst.w      D4
000030E0  6C14                     bge        +0x16 /* 000030F6 */
000030E2  3004                     move.w     D0, D4
000030E4  4440                     neg.w      D0
000030E6  3F00                     move.w     -[A7], D0
000030E8  3F3C 0080                move.w     -[A7], 0x80
000030EC  486E FE00                pea.l      [A6 - 0x200]
000030F0  4EBA 2C0A                jsr        [PC + 0x2C0A /* 00005CFC */]
000030F4  600E                     bra        +0x10 /* 00003104 */
label000030F6:
000030F6  3F04                     move.w     -[A7], D4
000030F8  486E FF00                pea.l      [A6 - 0x100]
000030FC  486E FE00                pea.l      [A6 - 0x200]
00003100  4EBA 2BD8                jsr        [PC + 0x2BD8 /* 00005CDA */]
label00003104:
00003104  3F3C FFFF                move.w     -[A7], 0xFFFF
00003108  4EBA 0A2A                jsr        [PC + 0xA2A /* 00003B34 */]
0000310C  2F3C 444C 4F47           move.l     -[A7], 0x444C4F47 /* 'DLOG' */
00003112  3F3C 04B0                move.w     -[A7], 0x4B0
00003116  4EBA 1236                jsr        [PC + 0x1236 /* 0000434E */]
0000311A  42A7                     clr.l      -[A7]
0000311C  3F3C 04B0                move.w     -[A7], 0x4B0
00003120  42A7                     clr.l      -[A7]
00003122  70FF                     moveq.l    D0, 0xFFFFFFFF
00003124  2F00                     move.l     -[A7], D0
00003126  A97C                     syscall    GetNewDialog
00003128  285F                     movea.l    A4, [A7]+
0000312A  200C                     move.l     D0, A4
0000312C  6618                     bne        +0x1A /* 00003146 */
0000312E  2F3C FF80 0000           move.l     -[A7], 0xFF800000
00003134  3F3C FFFF                move.w     -[A7], 0xFFFF
00003138  487A 0068                pea.l      [PC + 0x68 /* 000031A2, value 0x4E56 'NV', cstring "" */]
0000313C  4EBA FF2C                jsr        [PC - 0xD4 /* 0000306A */]
00003140  1D5F 0010                move.b     [A6 + 0x10], [A7]+
00003144  6030                     bra        +0x32 /* 00003176 */
label00003146:
00003146  2F0C                     move.l     -[A7], A4
00003148  3F3C 0002                move.w     -[A7], 0x2
0000314C  486E FDF2                pea.l      [A6 - 0x20E]
00003150  486E FDF8                pea.l      [A6 - 0x208]
00003154  486E FDEA                pea.l      [A6 - 0x216]
00003158  A98D                     syscall    GetDialogItem/GetDItem
0000315A  2F2E FDF8                move.l     -[A7], [A6 - 0x208]
0000315E  486E FE00                pea.l      [A6 - 0x200]
00003162  A98F                     syscall    SetDialogItemText/SetIText
00003164  2F0C                     move.l     -[A7], A4
00003166  A915                     syscall    ShowWindow
00003168  487A FE7E                pea.l      [PC - 0x182 /* 00002FE8, value 0x4E56FFFE */]
0000316C  486E FDF4                pea.l      [A6 - 0x20C]
00003170  A991                     syscall    ModalDialog
00003172  2F0C                     move.l     -[A7], A4
00003174  A983                     syscall    DisposeDialog
label00003176:
00003176  487A 002A                pea.l      [PC + 0x2A /* 000031A2, value 0x4E56 'NV', cstring "" */]
0000317A  487A 0026                pea.l      [PC + 0x26 /* 000031A2, value 0x4E56 'NV', cstring "" */]
0000317E  487A 0022                pea.l      [PC + 0x22 /* 000031A2, value 0x4E56 'NV', cstring "" */]
00003182  487A 001E                pea.l      [PC + 0x1E /* 000031A2, value 0x4E56 'NV', cstring "" */]
00003186  A98B                     syscall    ParamText
00003188  1B7C 0001 F956           move.b     [A5 - 0x6AA], 0x1
0000318E  1F06                     move.b     -[A7], D6
00003190  A99B                     syscall    SetResLoad
00003192  3F07                     move.w     -[A7], D7
00003194  A998                     syscall    UseResFile
label00003196:
00003196  4CDF 10F0                movem.l    D4,D5,D6,D7,A4, [A7]+
0000319A  4E5E                     unlink     A6
0000319C  205F                     movea.l    A0, [A7]+
0000319E  504F                     addq.w     A7, 8
000031A0  4ED0                     jmp        [A0]
000031A2  0000 4E56                ori.b      D0, 0x56 /* 'V' */
// begin alternate branch 000031A4-000031AA
export_28:
fn000031A4:
000031A4  4E56 0000                link       A6, 0
000031A8  4267                     clr.w      -[A7]
// end alternate branch 000031A4-000031AA
export_28: // at 000031A4 (misaligned)
fn000031A4: // (misaligned)
000031A6  0000 4267                ori.b      D0, 0x67 /* 'g' */
000031AA  2F2E 0008                move.l     -[A7], [A6 + 0x8]
000031AE  487A 0010                pea.l      [PC + 0x10 /* 000031C0, value 0x44D6973, pstring "Misc" */]
000031B2  4EBA FEB6                jsr        [PC - 0x14A /* 0000306A */]
000031B6  1D5F 000C                move.b     [A6 + 0xC], [A7]+
000031BA  4E5E                     unlink     A6
000031BC  2E9F                     move.l     [A7], [A7]+
000031BE  4E75                     rts
000031C0  044D 6973                subi.w     A5, 0x6973 /* 'is' */
000031C4  6300 4E56                bls        +0x4E58 /* 0000801C */
// begin alternate branch 000031C6-000031CA
export_29:
000031C6  4E56 FFFE                link       A6, -0x0002
// end alternate branch 000031C6-000031CA
export_29: // at 000031C6 (misaligned)
000031C8  FFFE                     .invalid   <<F/7/7>>
000031CA  48E7 0300                movem.l    -[A7], D6,D7
000031CE  3C2E 0008                move.w     D6, [A6 + 0x8]
000031D2  42A7                     clr.l      -[A7]
000031D4  A9AF                     syscall    ResError
000031D6  3F06                     move.w     -[A7], D6
000031D8  4EBA FD3A                jsr        [PC - 0x2C6 /* 00002F14 */]
000031DC  1E1F                     move.b     D7, [A7]+
000031DE  1007                     move.b     D0, D7
000031E0  672C                     beq        +0x2E /* 0000320E */
000031E2  4AAE 000A                tst.l      [A6 + 0xA]
000031E6  6610                     bne        +0x12 /* 000031F8 */
000031E8  2F3C FFFF 0000           move.l     -[A7], 0xFFFF0000
000031EE  3F06                     move.w     -[A7], D6
000031F0  4EBA FFB2                jsr        [PC - 0x4E /* 000031A4 */]
000031F4  1E1F                     move.b     D7, [A7]+
000031F6  6016                     bra        +0x18 /* 0000320E */
label000031F8:
000031F8  206E 000A                movea.l    A0, [A6 + 0xA]
000031FC  4A90                     tst.l      [A0]
000031FE  660E                     bne        +0x10 /* 0000320E */
00003200  2F3C FFFF 0000           move.l     -[A7], 0xFFFF0000
00003206  3F06                     move.w     -[A7], D6
00003208  4EBA FF9A                jsr        [PC - 0x66 /* 000031A4 */]
0000320C  1E1F                     move.b     D7, [A7]+
label0000320E:
0000320E  1D47 000E                move.b     [A6 + 0xE], D7
00003212  4CDF 00C0                movem.l    D6,D7, [A7]+
00003216  4E5E                     unlink     A6
00003218  205F                     movea.l    A0, [A7]+
0000321A  5C4F                     addq.w     A7, 6
0000321C  4ED0                     jmp        [A0]
export_30:
0000321E  4E56 0000                link       A6, 0
00003222  206E 0010                movea.l    A0, [A6 + 0x10]
00003226  10AD F943                move.b     [A0], [A5 - 0x6BD]
0000322A  206E 000C                movea.l    A0, [A6 + 0xC]
0000322E  10AD F945                move.b     [A0], [A5 - 0x6BB]
00003232  206E 0008                movea.l    A0, [A6 + 0x8]
00003236  10AD F944                move.b     [A0], [A5 - 0x6BC]
0000323A  4E5E                     unlink     A6
0000323C  205F                     movea.l    A0, [A7]+
0000323E  DEFC 000C                add.w      A7, 0xC
00003242  4ED0                     jmp        [A0]
export_31:
00003244  4E56 FFFC                link       A6, -0x0004
00003248  48E7 0308                movem.l    -[A7], D6,D7,A4
0000324C  286E 0008                movea.l    A4, [A6 + 0x8]
00003250  2F0C                     move.l     -[A7], A4
00003252  A9A2                     syscall    LoadResource
00003254  4267                     clr.w      -[A7]
00003256  2F0C                     move.l     -[A7], A4
00003258  A9A6                     syscall    GetResAttrs
0000325A  3E1F                     move.w     D7, [A7]+
0000325C  7000                     moveq.l    D0, 0x00
0000325E  3007                     move.w     D0, D7
00003260  7201                     moveq.l    D1, 0x01
00003262  4681                     not.l      D1
00003264  C081                     and.l      D0, D1
00003266  3E00                     move.w     D7, D0
00003268  2F0C                     move.l     -[A7], A4
0000326A  3007                     move.w     D0, D7
0000326C  48C0                     ext.l      D0
0000326E  80BC 0000 0002           or.l       D0, 0x2
00003274  3F00                     move.w     -[A7], D0
00003276  A9A7                     syscall    SetResAttrs
00003278  4267                     clr.w      -[A7]
0000327A  2F0C                     move.l     -[A7], A4
0000327C  A9A4                     syscall    HomeResFile
0000327E  3C1F                     move.w     D6, [A7]+
00003280  6608                     bne        +0xA /* 0000328A */
00003282  4267                     clr.w      -[A7]
00003284  4EBA 29D2                jsr        [PC + 0x29D2 /* 00005C58 */]
00003288  3C1F                     move.w     D6, [A7]+
label0000328A:
0000328A  4267                     clr.w      -[A7]
0000328C  3F06                     move.w     -[A7], D6
0000328E  A9F6                     syscall    GetResFileAttrs
00003290  3E1F                     move.w     D7, [A7]+
00003292  3F06                     move.w     -[A7], D6
00003294  3007                     move.w     D0, D7
00003296  48C0                     ext.l      D0
00003298  80BC 0000 0020           or.l       D0, 0x20 /* ' ' */
0000329E  3F00                     move.w     -[A7], D0
000032A0  A9F7                     syscall    SetResFileAttrs
000032A2  4CDF 10C0                movem.l    D6,D7,A4, [A7]+
000032A6  4E5E                     unlink     A6
000032A8  2E9F                     move.l     [A7], [A7]+
000032AA  4E75                     rts
export_32:
000032AC  4E56 FFFC                link       A6, -0x0004
000032B0  102D F82F                move.b     D0, [A5 - 0x7D1]
000032B4  6608                     bne        +0xA /* 000032BE */
000032B6  2F2D F82A                move.l     -[A7], [A5 - 0x7D6]
000032BA  205F                     movea.l    A0, [A7]+
000032BC  A01F                     syscall    DisposPtr/DisposePtr
label000032BE:
000032BE  422D F82F                clr.b      [A5 - 0x7D1]
000032C2  2B6E 0008 F82A           move.l     [A5 - 0x7D6], [A6 + 0x8]
000032C8  206D F82A                movea.l    A0, [A5 - 0x7D6]
000032CC  30BC FB2E                move.w     [A0], 0xFB2E
000032D0  486E FFFC                pea.l      [A6 - 0x4]
000032D4  A874                     syscall    GetPort
000032D6  202E FFFC                move.l     D0, [A6 - 0x4]
000032DA  B0AE 0008                cmp.l      D0, [A6 + 0x8]
000032DE  6612                     bne        +0x14 /* 000032F2 */
000032E0  42A7                     clr.l      -[A7]
000032E2  4EBA EAD4                jsr        [PC - 0x152C /* 00001DB8 */]
000032E6  4A9F                     tst.l      [A7]+
000032E8  6708                     beq        +0xA /* 000032F2 */
000032EA  42A7                     clr.l      -[A7]
000032EC  4EBA EACA                jsr        [PC - 0x1536 /* 00001DB8 */]
000032F0  A873                     syscall    SetPort
label000032F2:
000032F2  1B7C 0001 FDAD           move.b     [A5 - 0x253], 0x1
000032F8  4E5E                     unlink     A6
000032FA  2E9F                     move.l     [A7], [A7]+
000032FC  4E75                     rts
export_33:
fn000032FE:
000032FE  4E56 FFFE                link       A6, -0x0002
00003302  102D F82F                move.b     D0, [A5 - 0x7D1]
00003306  6704                     beq        +0x6 /* 0000330C */
00003308  4EBA 0038                jsr        [PC + 0x38 /* 00003342 */]
label0000330C:
0000330C  102D F82F                move.b     D0, [A5 - 0x7D1]
00003310  671A                     beq        +0x1C /* 0000332C */
00003312  2F3C FF94 0000           move.l     -[A7], 0xFF940000
00003318  3F3C 0015                move.w     -[A7], 0x15
0000331C  4EBA FE86                jsr        [PC - 0x17A /* 000031A4 */]
00003320  1D5F FFFF                move.b     [A6 - 0x1], [A7]+
00003324  7000                     moveq.l    D0, 0x00
00003326  2D40 0008                move.l     [A6 + 0x8], D0
0000332A  6006                     bra        +0x8 /* 00003332 */
label0000332C:
0000332C  2D6D F82A 0008           move.l     [A6 + 0x8], [A5 - 0x7D6]
label00003332:
00003332  1B7C 0001 FDAD           move.b     [A5 - 0x253], 0x1
00003338  1B7C 0001 F82F           move.b     [A5 - 0x7D1], 0x1
0000333E  4E5E                     unlink     A6
00003340  4E75                     rts
export_34:
fn00003342:
00003342  4E56 0000                link       A6, 0
00003346  102D F82F                move.b     D0, [A5 - 0x7D1]
0000334A  6720                     beq        +0x22 /* 0000336C */
0000334C  42A7                     clr.l      -[A7]
0000334E  2F3C 0000 00B4           move.l     -[A7], 0xB4
00003354  4EAD 04EA                jsr        [A5 + 0x4EA /* export_153, CODE:3 @ 000024E8 */]
00003358  2B5F F82A                move.l     [A5 - 0x7D6], [A7]+
0000335C  6704                     beq        +0x6 /* 00003362 */
0000335E  422D F82F                clr.b      [A5 - 0x7D1]
label00003362:
00003362  206D F82A                movea.l    A0, [A5 - 0x7D6]
00003366  30BC FB2E                move.w     [A0], 0xFB2E
0000336A  602A                     bra        +0x2C /* 00003396 */
label0000336C:
0000336C  206D F82A                movea.l    A0, [A5 - 0x7D6]
00003370  0C50 FB2E                cmpi.w     [A0], 0xFB2E
00003374  6620                     bne        +0x22 /* 00003396 */
00003376  2F2D F82A                move.l     -[A7], [A5 - 0x7D6]
0000337A  205F                     movea.l    A0, [A7]+
0000337C  A01F                     syscall    DisposPtr/DisposePtr
0000337E  42A7                     clr.l      -[A7]
00003380  2F3C 0000 00B4           move.l     -[A7], 0xB4
00003386  4EAD 04EA                jsr        [A5 + 0x4EA /* export_153, CODE:3 @ 000024E8 */]
0000338A  2B5F F82A                move.l     [A5 - 0x7D6], [A7]+
0000338E  206D F82A                movea.l    A0, [A5 - 0x7D6]
00003392  30BC FB2E                move.w     [A0], 0xFB2E
label00003396:
00003396  4E5E                     unlink     A6
00003398  4E75                     rts
fn0000339A:
0000339A  4E56 FFF6                link       A6, -0x000A
0000339E  48E7 0118                movem.l    -[A7], D7,A3,A4
000033A2  422D F956                clr.b      [A5 - 0x6AA]
000033A6  422D F7C1                clr.b      [A5 - 0x83F]
000033AA  42A7                     clr.l      -[A7]
000033AC  2EB8 02AA                move.l     [A7], [0x000002AA /* ApplZone */]
000033B0  205F                     movea.l    A0, [A7]+
000033B2  A01B                     syscall    SetZone
000033B4  267C 0000 0118           movea.l    A3, 0x118
000033BA  4247                     clr.w      D7
000033BC  2053                     movea.l    A0, [A3]
000033BE  2868 0008                movea.l    A4, [A0 + 0x8]
label000033C2:
000033C2  200C                     move.l     D0, A4
000033C4  56C0                     sne        D0
000033C6  4A00                     tst.b      D0
000033C8  672C                     beq        +0x2E /* 000033F6 */
000033CA  7214                     moveq.l    D1, 0x14
000033CC  B247                     cmp.w      D1, D7
000033CE  5EC1                     sgt        D1
000033D0  C001                     and.b      D0, D1
000033D2  6722                     beq        +0x24 /* 000033F6 */
000033D4  5247                     addq.w     D7, 1
000033D6  200C                     move.l     D0, A4
000033D8  5EC0                     sgt        D0
000033DA  4A00                     tst.b      D0
000033DC  6712                     beq        +0x14 /* 000033F0 */
000033DE  220C                     move.l     D1, A4
000033E0  0241 0001                andi.w     D1, 0x1
000033E4  0A01 0001                xori.b     D1, 0x1
000033E8  C001                     and.b      D0, D1
000033EA  6704                     beq        +0x6 /* 000033F0 */
000033EC  2854                     movea.l    A4, [A4]
000033EE  60D2                     bra        -0x2C /* 000033C2 */
label000033F0:
000033F0  7000                     moveq.l    D0, 0x00
000033F2  2840                     movea.l    A4, D0
000033F4  60CC                     bra        -0x32 /* 000033C2 */
label000033F6:
000033F6  7014                     moveq.l    D0, 0x14
000033F8  B047                     cmp.w      D0, D7
000033FA  6F02                     ble        +0x4 /* 000033FE */
000033FC  A036                     syscall    MoreMasters
label000033FE:
000033FE  4EBA FF42                jsr        [PC - 0xBE /* 00003342 */]
00003402  4CDF 1880                movem.l    D7,A3,A4, [A7]+
00003406  4E5E                     unlink     A6
00003408  4E75                     rts
export_35:
fn0000340A:
0000340A  4E56 FFE8                link       A6, -0x0018
0000340E  48E7 0F18                movem.l    -[A7], D4,D5,D6,D7,A3,A4
00003412  42A7                     clr.l      -[A7]
00003414  A01C                     syscall    FreeMem
00003416  2E80                     move.l     [A7], D0
00003418  2E1F                     move.l     D7, [A7]+
0000341A  0C87 0000 9C40           cmpi.l     D7, 0x9C40
00003420  6F5A                     ble        +0x5C /* 0000347C */
00003422  422D FDD3                clr.b      [A5 - 0x22D]
00003426  102D FDC9                move.b     D0, [A5 - 0x237]
0000342A  6700 0144                beq        +0x146 /* 00003570 */
0000342E  0C87 0001 3880           cmpi.l     D7, 0x13880
00003434  5EC0                     sgt        D0
00003436  4A00                     tst.b      D0
00003438  6700 0136                beq        +0x138 /* 00003570 */
0000343C  4AAD FDC4                tst.l      [A5 - 0x23C]
00003440  57C1                     seq        D1
00003442  C001                     and.b      D0, D1
00003444  6700 012A                beq        +0x12C /* 00003570 */
00003448  2F00                     move.l     -[A7], D0
0000344A  42A7                     clr.l      -[A7]
0000344C  A975                     syscall    TickCount
0000344E  221F                     move.l     D1, [A7]+
00003450  201F                     move.l     D0, [A7]+
00003452  92AD FDCA                sub.l      D1, [A5 - 0x236]
00003456  0C81 0000 04B0           cmpi.l     D1, 0x4B0
0000345C  5EC1                     sgt        D1
0000345E  C001                     and.b      D0, D1
00003460  6700 010E                beq        +0x110 /* 00003570 */
00003464  42A7                     clr.l      -[A7]
00003466  2F3C 0000 2710           move.l     -[A7], 0x2710
0000346C  4EAD 04FA                jsr        [A5 + 0x4FA /* export_155, CODE:3 @ 000024FC */]
00003470  2B5F FDC4                move.l     [A5 - 0x23C], [A7]+
00003474  422D FDC9                clr.b      [A5 - 0x237]
00003478  6000 00F6                bra        +0xF8 /* 00003570 */
label0000347C:
0000347C  7000                     moveq.l    D0, 0x00
0000347E  2640                     movea.l    A3, D0
00003480  42A7                     clr.l      -[A7]
00003482  4EBA E934                jsr        [PC - 0x16CC /* 00001DB8 */]
00003486  4A9F                     tst.l      [A7]+
00003488  6750                     beq        +0x52 /* 000034DA */
0000348A  42A7                     clr.l      -[A7]
0000348C  4EBA E92A                jsr        [PC - 0x16D6 /* 00001DB8 */]
00003490  285F                     movea.l    A4, [A7]+
00003492  0C6C 0080 006C           cmpi.w     [A4 + 0x6C], 0x80
00003498  6D40                     blt        +0x42 /* 000034DA */
0000349A  0C6C 2712 006C           cmpi.w     [A4 + 0x6C], 0x2712
000034A0  56C0                     sne        D0
000034A2  4A00                     tst.b      D0
000034A4  6734                     beq        +0x36 /* 000034DA */
000034A6  0C6C 2713 006C           cmpi.w     [A4 + 0x6C], 0x2713
000034AC  56C1                     sne        D1
000034AE  C001                     and.b      D0, D1
000034B0  6728                     beq        +0x2A /* 000034DA */
000034B2  0C6C 2714 006C           cmpi.w     [A4 + 0x6C], 0x2714
000034B8  56C1                     sne        D1
000034BA  C001                     and.b      D0, D1
000034BC  671C                     beq        +0x1E /* 000034DA */
000034BE  0C6C 2711 006C           cmpi.w     [A4 + 0x6C], 0x2711
000034C4  57C1                     seq        D1
000034C6  C001                     and.b      D0, D1
000034C8  6710                     beq        +0x12 /* 000034DA */
000034CA  42A7                     clr.l      -[A7]
000034CC  2F3C 5253 5343           move.l     -[A7], 0x52535343 /* 'RSSC' */
000034D2  3F2C 006C                move.w     -[A7], [A4 + 0x6C]
000034D6  A9A0                     syscall    GetResource
000034D8  265F                     movea.l    A3, [A7]+
label000034DA:
000034DA  200B                     move.l     D0, A3
000034DC  6706                     beq        +0x8 /* 000034E4 */
000034DE  2F0B                     move.l     -[A7], A3
000034E0  205F                     movea.l    A0, [A7]+
000034E2  A04A                     syscall    HNoPurge
label000034E4:
000034E4  42A7                     clr.l      -[A7]
000034E6  486E FFF8                pea.l      [A6 - 0x8]
000034EA  4EAD 04E2                jsr        [A5 + 0x4E2 /* export_152, CODE:3 @ 000024DA */]
000034EE  2A1F                     move.l     D5, [A7]+
000034F0  200B                     move.l     D0, A3
000034F2  6706                     beq        +0x8 /* 000034FA */
000034F4  2F0B                     move.l     -[A7], A3
000034F6  205F                     movea.l    A0, [A7]+
000034F8  A049                     syscall    HPurge
label000034FA:
000034FA  42A7                     clr.l      -[A7]
000034FC  A01C                     syscall    FreeMem
000034FE  2E80                     move.l     [A7], D0
00003500  0C9F 0000 9C40           cmpi.l     [A7]+, 0x9C40
00003506  6C68                     bge        +0x6A /* 00003570 */
00003508  42A7                     clr.l      -[A7]
0000350A  A975                     syscall    TickCount
0000350C  2C1F                     move.l     D6, [A7]+
0000350E  102D FDD3                move.b     D0, [A5 - 0x22D]
00003512  0A00 0001                xori.b     D0, 0x1
00003516  4A00                     tst.b      D0
00003518  6738                     beq        +0x3A /* 00003552 */
0000351A  2206                     move.l     D1, D6
0000351C  92AD FDCE                sub.l      D1, [A5 - 0x232]
00003520  0C81 0000 0E10           cmpi.l     D1, 0xE10
00003526  5EC1                     sgt        D1
00003528  C001                     and.b      D0, D1
0000352A  6726                     beq        +0x28 /* 00003552 */
0000352C  4267                     clr.w      -[A7]
0000352E  1F3C 0001                move.b     -[A7], 0x1
00003532  487A 0074                pea.l      [PC + 0x74 /* 000035A8, value 0x13416C65, pstring "Alert Str - preload" */]
00003536  3F3C 0002                move.w     -[A7], 0x2
0000353A  4EBA F58E                jsr        [PC - 0xA72 /* 00002ACA */]
0000353E  101F                     move.b     D0, [A7]+
00003540  2B46 FDCE                move.l     [A5 - 0x232], D6
00003544  1B7C 0001 FDD3           move.b     [A5 - 0x22D], 0x1
0000354A  1B7C 0001 F956           move.b     [A5 - 0x6AA], 0x1
00003550  601A                     bra        +0x1C /* 0000356C */
label00003552:
00003552  102D FDC8                move.b     D0, [A5 - 0x238]
00003556  6714                     beq        +0x16 /* 0000356C */
00003558  4267                     clr.w      -[A7]
0000355A  1F3C 0001                move.b     -[A7], 0x1
0000355E  487A 0048                pea.l      [PC + 0x48 /* 000035A8, value 0x13416C65, pstring "Alert Str - preload" */]
00003562  3F3C 0001                move.w     -[A7], 0x1
00003566  4EBA F562                jsr        [PC - 0xA9E /* 00002ACA */]
0000356A  101F                     move.b     D0, [A7]+
label0000356C:
0000356C  422D FDC8                clr.b      [A5 - 0x238]
label00003570:
00003570  102E 0008                move.b     D0, [A6 + 0x8]
00003574  0A00 0001                xori.b     D0, 0x1
00003578  4A00                     tst.b      D0
0000357A  6720                     beq        +0x22 /* 0000359C */
0000357C  C02D FDBF                and.b      D0, [A5 - 0x241]
00003580  671A                     beq        +0x1C /* 0000359C */
00003582  42A7                     clr.l      -[A7]
00003584  486E FFF8                pea.l      [A6 - 0x8]
00003588  4EAD 04E2                jsr        [A5 + 0x4E2 /* export_152, CODE:3 @ 000024DA */]
0000358C  2A1F                     move.l     D5, [A7]+
0000358E  42A7                     clr.l      -[A7]
00003590  42A7                     clr.l      -[A7]
00003592  4EAD 04FA                jsr        [A5 + 0x4FA /* export_155, CODE:3 @ 000024FC */]
00003596  2817                     move.l     D4, [A7]
00003598  205F                     movea.l    A0, [A7]+
0000359A  A023                     syscall    DisposHandle/DisposeHandle
label0000359C:
0000359C  4CDF 18F0                movem.l    D4,D5,D6,D7,A3,A4, [A7]+
000035A0  4E5E                     unlink     A6
000035A2  205F                     movea.l    A0, [A7]+
000035A4  544F                     addq.w     A7, 2
000035A6  4ED0                     jmp        [A0]
000035A8  1341 6C65                move.b     [A1 + 0x6C65], D1
000035AC  7274                     moveq.l    D1, 0x74
000035AE  2053                     movea.l    A0, [A3]
000035B0  7472                     moveq.l    D2, 0x72
000035B2  202D 2070                move.l     D0, [A5 + 0x2070]
000035B6  7265                     moveq.l    D1, 0x65
000035B8  6C6F                     bge        +0x71 /* 00003629 */
000035BA  6164                     bsr        +0x66 /* 00003620 */
export_36:
000035BC  4E56 FFFA                link       A6, -0x0006
000035C0  48E7 0300                movem.l    -[A7], D6,D7
000035C4  4207                     clr.b      D7
000035C6  7000                     moveq.l    D0, 0x00
000035C8  2D40 000C                move.l     [A6 + 0xC], D0
000035CC  42A7                     clr.l      -[A7]
000035CE  2E8D                     move.l     [A7], A5
000035D0  2A78 0904                movea.l    A5, [0x00000904 /* CurrentA5 */]
000035D4  2C1F                     move.l     D6, [A7]+
000035D6  102D FDC9                move.b     D0, [A5 - 0x237]
000035DA  662A                     bne        +0x2C /* 00003606 */
000035DC  1B7C 0001 FDC9           move.b     [A5 - 0x237], 0x1
000035E2  4AAD FDC4                tst.l      [A5 - 0x23C]
000035E6  6718                     beq        +0x1A /* 00003600 */
000035E8  2F2D FDC4                move.l     -[A7], [A5 - 0x23C]
000035EC  205F                     movea.l    A0, [A7]+
000035EE  A023                     syscall    DisposHandle/DisposeHandle
000035F0  7E01                     moveq.l    D7, 0x01
000035F2  7000                     moveq.l    D0, 0x00
000035F4  2B40 FDC4                move.l     [A5 - 0x23C], D0
000035F8  42A7                     clr.l      -[A7]
000035FA  A975                     syscall    TickCount
000035FC  2B5F FDCA                move.l     [A5 - 0x236], [A7]+
label00003600:
00003600  1B7C 0001 FDC8           move.b     [A5 - 0x238], 0x1
label00003606:
00003606  1007                     move.b     D0, D7
00003608  6708                     beq        +0xA /* 00003612 */
0000360A  7001                     moveq.l    D0, 0x01
0000360C  2D40 000C                move.l     [A6 + 0xC], D0
00003610  6006                     bra        +0x8 /* 00003618 */
label00003612:
00003612  7000                     moveq.l    D0, 0x00
00003614  2D40 000C                move.l     [A6 + 0xC], D0
label00003618:
00003618  1B7C 0001 F956           move.b     [A5 - 0x6AA], 0x1
0000361E  42A7                     clr.l      -[A7]
fn00003620:
00003620  2F06                     move.l     -[A7], D6
00003622  2F4D 0004                move.l     [A7 + 0x4], A5
00003626  2A5F                     movea.l    A5, [A7]+
00003628  2C1F                     move.l     D6, [A7]+
0000362A  4CDF 00C0                movem.l    D6,D7, [A7]+
0000362E  4E5E                     unlink     A6
00003630  2E9F                     move.l     [A7], [A7]+
00003632  4E75                     rts
00003634  4EAD 03CA                jsr        [A5 + 0x3CA /* export_117, CODE:3 @ 0000028A */]
00003638  4E56 0000                link       A6, 0
0000363C  2C5F                     movea.l    A6, [A7]+
0000363E  4EAD 03D2                jsr        [A5 + 0x3D2 /* export_118, CODE:3 @ 0000028C */]
00003642  4A80                     tst.l      D0
00003644  6702                     beq        +0x4 /* 00003648 */
00003646  4E75                     rts
label00003648:
00003648  486D 08FA                pea.l      [A5 + 0x8FA /* export_283, CODE:5 @ 00000000 */]
0000364C  A9F1                     syscall    UnloadSeg
0000364E  4EAD 0AA2                jsr        [A5 + 0xAA2 /* export_336, CODE:8 @ 00000098 */]
00003652  4EAD 0AC2                jsr        [A5 + 0xAC2 /* export_340, CODE:8 @ 0000064C */]
00003656  4267                     clr.w      -[A7]
00003658  4EAD 0ABA                jsr        [A5 + 0xABA /* export_339, CODE:8 @ 000005EA */]
0000365C  101F                     move.b     D0, [A7]+
0000365E  6700 01E2                beq        +0x1E4 /* 00003842 */
00003662  1B7C 0001 F82F           move.b     [A5 - 0x7D1], 0x1
00003668  4EBA FD30                jsr        [PC - 0x2D0 /* 0000339A */]
0000366C  4EAD 0AAA                jsr        [A5 + 0xAAA /* export_337, CODE:8 @ 00000274 */]
00003670  42A7                     clr.l      -[A7]
00003672  486D F946                pea.l      [A5 - 0x6BA]
00003676  A970                     syscall    GetNextEvent
00003678  101F                     move.b     D0, [A7]+
0000367A  4267                     clr.w      -[A7]
0000367C  2F3C 6576 6E74           move.l     -[A7], 0x65766E74 /* 'evnt' */
00003682  486D FD8E                pea.l      [A5 - 0x272]
00003686  4EAD 0732                jsr        [A5 + 0x732 /* export_226, CODE:3 @ 0000344C */]
0000368A  4A5F                     tst.w      [A7]+
0000368C  57C0                     seq        D0
0000368E  4A00                     tst.b      D0
00003690  6712                     beq        +0x14 /* 000036A4 */
00003692  082D 0000 FD91           btst.b     [A5 - 0x26F], 0x0
00003698  56C1                     sne        D1
0000369A  C001                     and.b      D0, D1
0000369C  6706                     beq        +0x8 /* 000036A4 */
0000369E  422D F957                clr.b      [A5 - 0x6A9]
000036A2  600A                     bra        +0xC /* 000036AE */
label000036A4:
000036A4  4267                     clr.w      -[A7]
000036A6  4EAD 0AB2                jsr        [A5 + 0xAB2 /* export_338, CODE:8 @ 0000050C */]
000036AA  1B5F F957                move.b     [A5 - 0x6A9], [A7]+
label000036AE:
000036AE  486D 0AAA                pea.l      [A5 + 0xAAA /* export_337, CODE:8 @ 00000274 */]
000036B2  A9F1                     syscall    UnloadSeg
000036B4  486D 0CCA                pea.l      [A5 + 0xCCA /* export_405, CODE:13 @ 0000020C */]
000036B8  A9F1                     syscall    UnloadSeg
000036BA  486D 0D52                pea.l      [A5 + 0xD52 /* export_422, CODE:15 @ 00000210 */]
000036BE  A9F1                     syscall    UnloadSeg
000036C0  486D 0DBA                pea.l      [A5 + 0xDBA /* export_435, CODE:16 @ 00000E2C */]
000036C4  A9F1                     syscall    UnloadSeg
000036C6  486D 0A92                pea.l      [A5 + 0xA92 /* export_334, CODE:7 @ 00006672 */]
000036CA  A9F1                     syscall    UnloadSeg
000036CC  486D 0E9A                pea.l      [A5 + 0xE9A /* export_463, CODE:22 @ 00002CBC */]
000036D0  A9F1                     syscall    UnloadSeg
000036D2  486D 0E52                pea.l      [A5 + 0xE52 /* export_454, CODE:20 @ 000003AC */]
000036D6  A9F1                     syscall    UnloadSeg
000036D8  486D 0E02                pea.l      [A5 + 0xE02 /* export_444, CODE:17 @ 0000065C */]
000036DC  A9F1                     syscall    UnloadSeg
000036DE  486D 0E22                pea.l      [A5 + 0xE22 /* export_448, CODE:19 @ 00000300 */]
000036E2  A9F1                     syscall    UnloadSeg
000036E4  486D 0EBA                pea.l      [A5 + 0xEBA /* export_467, CODE:24 @ 00000682 */]
000036E8  A9F1                     syscall    UnloadSeg
000036EA  486D 0E0A                pea.l      [A5 + 0xE0A /* export_445, CODE:18 @ 00000166 */]
000036EE  A9F1                     syscall    UnloadSeg
000036F0  486D 0CAA                pea.l      [A5 + 0xCAA /* export_401, CODE:12 @ 00000000 */]
000036F4  A9F1                     syscall    UnloadSeg
000036F6  486D 0AD2                pea.l      [A5 + 0xAD2 /* export_342, CODE:9 @ 00000000 */]
000036FA  A9F1                     syscall    UnloadSeg
000036FC  486D 0B6A                pea.l      [A5 + 0xB6A /* export_361, CODE:10 @ 00000000 */]
00003700  A9F1                     syscall    UnloadSeg
00003702  486D 0C4A                pea.l      [A5 + 0xC4A /* export_389, CODE:11 @ 00000000 */]
00003706  A9F1                     syscall    UnloadSeg
00003708  486D 0EAA                pea.l      [A5 + 0xEAA /* export_465, CODE:23 @ 00000092 */]
0000370C  A9F1                     syscall    UnloadSeg
0000370E  486D 090A                pea.l      [A5 + 0x90A /* export_285, CODE:6 @ 000000BE */]
00003712  A9F1                     syscall    UnloadSeg
00003714  4A6D F946                tst.w      [A5 - 0x6BA]
00003718  6704                     beq        +0x6 /* 0000371E */
0000371A  4EBA FC7E                jsr        [PC - 0x382 /* 0000339A */]
label0000371E:
0000371E  102D F957                move.b     D0, [A5 - 0x6A9]
00003722  6648                     bne        +0x4A /* 0000376C */
00003724  102D FFFB                move.b     D0, [A5 - 0x5]
00003728  672C                     beq        +0x2E /* 00003756 */
0000372A  102D FFFA                move.b     D0, [A5 - 0x6]
0000372E  6708                     beq        +0xA /* 00003738 */
00003730  701E                     moveq.l    D0, 0x1E
00003732  2B40 FFF6                move.l     [A5 - 0xA], D0
00003736  6006                     bra        +0x8 /* 0000373E */
label00003738:
00003738  7002                     moveq.l    D0, 0x02
0000373A  2B40 FFF6                move.l     [A5 - 0xA], D0
label0000373E:
0000373E  2F3C FFFF 0000           move.l     -[A7], 0xFFFF0000
00003744  486D F946                pea.l      [A5 - 0x6BA]
00003748  2F2D FFF6                move.l     -[A7], [A5 - 0xA]
0000374C  42A7                     clr.l      -[A7]
0000374E  A860                     syscall    WaitNextEvent
00003750  101F                     move.b     D0, [A7]+
00003752  6618                     bne        +0x1A /* 0000376C */
00003754  6016                     bra        +0x18 /* 0000376C */
label00003756:
00003756  A9B4                     syscall    SystemTask
00003758  2F3C FFFF 0000           move.l     -[A7], 0xFFFF0000
0000375E  486D F946                pea.l      [A5 - 0x6BA]
00003762  A970                     syscall    GetNextEvent
00003764  101F                     move.b     D0, [A7]+
00003766  6604                     bne        +0x6 /* 0000376C */
00003768  426D F946                clr.w      [A5 - 0x6BA]
label0000376C:
0000376C  422D F957                clr.b      [A5 - 0x6A9]
00003770  102D FFFA                move.b     D0, [A5 - 0x6]
00003774  0A00 0001                xori.b     D0, 0x1
00003778  4A00                     tst.b      D0
0000377A  660E                     bne        +0x10 /* 0000378A */
0000377C  4A6D F946                tst.w      [A5 - 0x6BA]
00003780  56C1                     sne        D1
00003782  8001                     or.b       D0, D1
00003784  0240 0001                andi.w     D0, 0x1
00003788  671A                     beq        +0x1C /* 000037A4 */
label0000378A:
0000378A  4267                     clr.w      -[A7]
0000378C  486D F946                pea.l      [A5 - 0x6BA]
00003790  4EBA E9F6                jsr        [PC - 0x160A /* 00002188 */]
00003794  101F                     move.b     D0, [A7]+
00003796  6608                     bne        +0xA /* 000037A0 */
00003798  486D F946                pea.l      [A5 - 0x6BA]
0000379C  4EBA EAD2                jsr        [PC - 0x152E /* 00002270 */]
label000037A0:
000037A0  4EBA 20EA                jsr        [PC + 0x20EA /* 0000588C */]
label000037A4:
000037A4  102D F93F                move.b     D0, [A5 - 0x6C1]
000037A8  660E                     bne        +0x10 /* 000037B8 */
000037AA  4A6D F946                tst.w      [A5 - 0x6BA]
000037AE  57C0                     seq        D0
000037B0  4400                     neg.b      D0
000037B2  1F00                     move.b     -[A7], D0
000037B4  4EBA FC54                jsr        [PC - 0x3AC /* 0000340A */]
label000037B8:
000037B8  102D F93F                move.b     D0, [A5 - 0x6C1]
000037BC  6700 FEF0                beq        -0x10E /* 000036AE */
000037C0  4EBA D9EA                jsr        [PC - 0x2616 /* 000011AC */]
000037C4  70FF                     moveq.l    D0, 0xFFFFFFFF
000037C6  B06D F828                cmp.w      D0, [A5 - 0x7D8]
000037CA  6706                     beq        +0x8 /* 000037D2 */
000037CC  3F2D F828                move.w     -[A7], [A5 - 0x7D8]
000037D0  A99A                     syscall    CloseResFile
label000037D2:
000037D2  4267                     clr.w      -[A7]
000037D4  2F3C 666F 6C64           move.l     -[A7], 0x666F6C64 /* 'fold' */
000037DA  486D FD8E                pea.l      [A5 - 0x272]
000037DE  4EAD 0732                jsr        [A5 + 0x732 /* export_226, CODE:3 @ 0000344C */]
000037E2  4A5F                     tst.w      [A7]+
000037E4  57C0                     seq        D0
000037E6  4A00                     tst.b      D0
000037E8  6744                     beq        +0x46 /* 0000382E */
000037EA  082D 0000 FD91           btst.b     [A5 - 0x26F], 0x0
000037F0  56C1                     sne        D1
000037F2  C001                     and.b      D0, D1
000037F4  6738                     beq        +0x3A /* 0000382E */
000037F6  2F3C 8000 0000           move.l     -[A7], 0x80000000
000037FC  2F3C 7465 6D70           move.l     -[A7], 0x74656D70 /* 'temp' */
00003802  1F3C 0001                move.b     -[A7], 0x1
00003806  486D FD96                pea.l      [A5 - 0x26A]
0000380A  486D FD92                pea.l      [A5 - 0x26E]
0000380E  7000                     moveq.l    D0, 0x00
00003810  A823                     syscall    AliasDispatch
00003812  3B5F FDE8                move.w     [A5 - 0x218], [A7]+
00003816  4267                     clr.w      -[A7]
00003818  3F2D FD96                move.w     -[A7], [A5 - 0x26A]
0000381C  2F2D FD92                move.l     -[A7], [A5 - 0x26E]
00003820  487A 0030                pea.l      [PC + 0x30 /* 00003852, value 0xD526573 '\rRes', pstring "ResEdit.Scrap" */]
00003824  4EAD 0692                jsr        [A5 + 0x692 /* export_206, CODE:3 @ 00002D02 */]
00003828  3B5F FDE8                move.w     [A5 - 0x218], [A7]+
0000382C  6010                     bra        +0x12 /* 0000383E */
label0000382E:
0000382E  4267                     clr.w      -[A7]
00003830  487A 0020                pea.l      [PC + 0x20 /* 00003852, value 0xD526573 '\rRes', pstring "ResEdit.Scrap" */]
00003834  4267                     clr.w      -[A7]
00003836  4EAD 05C2                jsr        [A5 + 0x5C2 /* export_180, CODE:3 @ 00002784 */]
0000383A  3B5F FDE8                move.w     [A5 - 0x218], [A7]+
label0000383E:
0000383E  4EBA DDBE                jsr        [PC - 0x2242 /* 000015FE */]
label00003842:
00003842  A9F4                     syscall    ExitToShell
00003844  4EAD 03DA                jsr        [A5 + 0x3DA /* export_119, CODE:3 @ 000002EE */]
00003848  4EAD 03E2                jsr        [A5 + 0x3E2 /* export_120, CODE:3 @ 000002F4 */]
0000384C  4E75                     rts
0000384E  4E5E                     unlink     A6
00003850  4E75                     rts
00003852  0D52                     bchg       [A2], D6
00003854  6573                     bcs        +0x75 /* 000038C9 */
00003856  4564                     chk.w      D2, -[A4]
00003858  6974                     bvs        +0x76 /* 000038CE */
0000385A  2E53                     movea.l    A7, [A3]
0000385C  6372                     bls        +0x74 /* 000038D0 */
0000385E  6170                     bsr        +0x72 /* 000038D0 */
export_37:
00003860  4E56 FFF2                link       A6, -0x000E
00003864  2F0C                     move.l     -[A7], A4
00003866  2F2E 000A                move.l     -[A7], [A6 + 0xA]
0000386A  3F2E 0008                move.w     -[A7], [A6 + 0x8]
0000386E  486E FFFE                pea.l      [A6 - 0x2]
00003872  486E FFFA                pea.l      [A6 - 0x6]
00003876  486E FFF2                pea.l      [A6 - 0xE]
0000387A  A98D                     syscall    GetDialogItem/GetDItem
0000387C  486E FFF2                pea.l      [A6 - 0xE]
00003880  A8A1                     syscall    FrameRect
00003882  286E 000A                movea.l    A4, [A6 + 0xA]
00003886  2F2C 0018                move.l     -[A7], [A4 + 0x18]
0000388A  206C 0098                movea.l    A0, [A4 + 0x98]
0000388E  2050                     movea.l    A0, [A0]
00003890  2F28 011E                move.l     -[A7], [A0 + 0x11E]
00003894  3F3C 0064                move.w     -[A7], 0x64 /* 'd' */
00003898  A9E7                     syscall    Pack0/ListManager
0000389A  285F                     movea.l    A4, [A7]+
0000389C  4E5E                     unlink     A6
0000389E  205F                     movea.l    A0, [A7]+
000038A0  5C4F                     addq.w     A7, 6
000038A2  4ED0                     jmp        [A0]
export_38:
000038A4  4E56 0000                link       A6, 0
000038A8  4267                     clr.w      -[A7]
000038AA  2F2E 000C                move.l     -[A7], [A6 + 0xC]
000038AE  2F2E 0008                move.l     -[A7], [A6 + 0x8]
000038B2  42A7                     clr.l      -[A7]
000038B4  4EAD 0672                jsr        [A5 + 0x672 /* export_202, CODE:3 @ 00002B00 */]
000038B8  3D5F 0010                move.w     [A6 + 0x10], [A7]+
000038BC  4E5E                     unlink     A6
000038BE  205F                     movea.l    A0, [A7]+
000038C0  504F                     addq.w     A7, 8
000038C2  4ED0                     jmp        [A0]
000038C4  4E56 FFF0                link       A6, -0x0010
000038C8  48E7 0318                movem.l    -[A7], D6,D7,A3,A4
000038CC  4267                     clr.w      -[A7]
label000038CE:
000038CE  4EAD 09CA                jsr        [A5 + 0x9CA /* export_309, CODE:7 @ 000019B0 */]
// begin alternate branch 000038D0-000038D2
fn000038D0:
000038D0  09CA                     .incomplete
// end alternate branch 000038D0-000038D2
fn000038D0: // (misaligned)
000038D2  101F                     move.b     D0, [A7]+
000038D4  6760                     beq        +0x62 /* 00003936 */
000038D6  42A7                     clr.l      -[A7]
000038D8  A9F9                     syscall    InfoScrap
000038DA  265F                     movea.l    A3, [A7]+
000038DC  302B 0008                move.w     D0, [A3 + 0x8]
000038E0  B06D F826                cmp.w      D0, [A5 - 0x7DA]
000038E4  6748                     beq        +0x4A /* 0000392E */
000038E6  4EAD 09D2                jsr        [A5 + 0x9D2 /* export_310, CODE:7 @ 00001AA2 */]
000038EA  7E01                     moveq.l    D7, 0x01
label000038EC:
000038EC  42A7                     clr.l      -[A7]
000038EE  3F07                     move.w     -[A7], D7
000038F0  486E FFF4                pea.l      [A6 - 0xC]
000038F4  4EAD 09C2                jsr        [A5 + 0x9C2 /* export_308, CODE:7 @ 000017B0 */]
000038F8  285F                     movea.l    A4, [A7]+
000038FA  5247                     addq.w     D7, 1
000038FC  200C                     move.l     D0, A4
000038FE  6724                     beq        +0x26 /* 00003924 */
00003900  4267                     clr.w      -[A7]
00003902  3F2D F828                move.w     -[A7], [A5 - 0x7D8]
00003906  2F2E FFF4                move.l     -[A7], [A6 - 0xC]
0000390A  4EAD 08A2                jsr        [A5 + 0x8A2 /* export_272, CODE:4 @ 000001AA */]
0000390E  3C1F                     move.w     D6, [A7]+
00003910  3F2D F828                move.w     -[A7], [A5 - 0x7D8]
00003914  2F0C                     move.l     -[A7], A4
00003916  2F2E FFF4                move.l     -[A7], [A6 - 0xC]
0000391A  3F06                     move.w     -[A7], D6
0000391C  487A 0026                pea.l      [PC + 0x26 /* 00003944, value 0x4E56 'NV', cstring "" */]
00003920  4EAD 08E2                jsr        [A5 + 0x8E2 /* export_280, CODE:4 @ 00000434 */]
label00003924:
00003924  200C                     move.l     D0, A4
00003926  66C4                     bne        -0x3A /* 000038EC */
00003928  3B6B 0008 F826           move.w     [A5 - 0x7DA], [A3 + 0x8]
label0000392E:
0000392E  3D6D F828 0008           move.w     [A6 + 0x8], [A5 - 0x7D8]
00003934  6006                     bra        +0x8 /* 0000393C */
label00003936:
00003936  3D7C FFFF 0008           move.w     [A6 + 0x8], 0xFFFF
label0000393C:
0000393C  4CDF 18C0                movem.l    D6,D7,A3,A4, [A7]+
00003940  4E5E                     unlink     A6
00003942  4E75                     rts
00003944  0000 4E56                ori.b      D0, 0x56 /* 'V' */
// begin alternate branch 00003946-0000394A
export_39:
fn00003946:
00003946  4E56 FFF4                link       A6, -0x000C
// end alternate branch 00003946-0000394A
export_39: // at 00003946 (misaligned)
fn00003946: // (misaligned)
00003948  FFF4                     .invalid   <<F/7/7>>
0000394A  48E7 0018                movem.l    -[A7], A3,A4
0000394E  266E 0008                movea.l    A3, [A6 + 0x8]
00003952  41EE FFF8                lea.l      A0, [A6 - 0x8]
00003956  43EB 0010                lea.l      A1, [A3 + 0x10]
0000395A  7003                     moveq.l    D0, 0x03
label0000395C:
0000395C  30D9                     move.w     [A0]+, [A1]+
0000395E  51C8 FFFC                dbf        D0, -0x6 /* 0000395C */
00003962  302E FFFC                move.w     D0, [A6 - 0x4]
00003966  907C 000F                sub.w      D0, 0xF
0000396A  3D40 FFF8                move.w     [A6 - 0x8], D0
0000396E  302E FFFE                move.w     D0, [A6 - 0x2]
00003972  907C 000F                sub.w      D0, 0xF
00003976  3D40 FFFA                move.w     [A6 - 0x6], D0
0000397A  486E FFF8                pea.l      [A6 - 0x8]
0000397E  A8A3                     syscall    EraseRect
00003980  41EE FFF8                lea.l      A0, [A6 - 0x8]
00003984  43EB 0010                lea.l      A1, [A3 + 0x10]
00003988  7003                     moveq.l    D0, 0x03
label0000398A:
0000398A  30D9                     move.w     [A0]+, [A1]+
0000398C  51C8 FFFC                dbf        D0, -0x6 /* 0000398A */
00003990  302E FFFE                move.w     D0, [A6 - 0x2]
00003994  907C 000F                sub.w      D0, 0xF
00003998  3D40 FFFA                move.w     [A6 - 0x6], D0
0000399C  3D6E 000C FFF8           move.w     [A6 - 0x8], [A6 + 0xC]
000039A2  42A7                     clr.l      -[A7]
000039A4  A8D8                     syscall    NewRgn
000039A6  285F                     movea.l    A4, [A7]+
000039A8  2F0C                     move.l     -[A7], A4
000039AA  A87A                     syscall    GetClip
000039AC  486E FFF8                pea.l      [A6 - 0x8]
000039B0  A87B                     syscall    ClipRect
000039B2  2F0B                     move.l     -[A7], A3
000039B4  A904                     syscall    DrawGrowIcon
000039B6  2F0C                     move.l     -[A7], A4
000039B8  A879                     syscall    SetClip
000039BA  2F0C                     move.l     -[A7], A4
000039BC  A8D9                     syscall    DisposRgn/DisposeRgn
000039BE  4CDF 1800                movem.l    A3,A4, [A7]+
000039C2  4E5E                     unlink     A6
000039C4  205F                     movea.l    A0, [A7]+
000039C6  5C4F                     addq.w     A7, 6
000039C8  4ED0                     jmp        [A0]
export_40:
000039CA  4E56 FFF6                link       A6, -0x000A
000039CE  48E7 0118                movem.l    -[A7], D7,A3,A4
000039D2  266E 0008                movea.l    A3, [A6 + 0x8]
000039D6  2053                     movea.l    A0, [A3]
000039D8  2F28 001C                move.l     -[A7], [A0 + 0x1C]
000039DC  A958                     syscall    HideControl
000039DE  2053                     movea.l    A0, [A3]
000039E0  3E10                     move.w     D7, [A0]
000039E2  206E 000C                movea.l    A0, [A6 + 0xC]
000039E6  49E8 0010                lea.l      A4, [A0 + 0x10]
000039EA  2053                     movea.l    A0, [A3]
000039EC  2F28 001C                move.l     -[A7], [A0 + 0x1C]
000039F0  302C 0006                move.w     D0, [A4 + 0x6]
000039F4  907C 000F                sub.w      D0, 0xF
000039F8  3F00                     move.w     -[A7], D0
000039FA  2053                     movea.l    A0, [A3]
000039FC  3010                     move.w     D0, [A0]
000039FE  5340                     subq.w     D0, 1
00003A00  3F00                     move.w     -[A7], D0
00003A02  A959                     syscall    MoveControl
00003A04  2053                     movea.l    A0, [A3]
00003A06  2F28 001C                move.l     -[A7], [A0 + 0x1C]
00003A0A  3F3C 0010                move.w     -[A7], 0x10
00003A0E  302C 0004                move.w     D0, [A4 + 0x4]
00003A12  9050                     sub.w      D0, [A0]
00003A14  907C 000D                sub.w      D0, 0xD /* '\r' */
00003A18  3F00                     move.w     -[A7], D0
00003A1A  A95C                     syscall    SizeControl
00003A1C  4A47                     tst.w      D7
00003A1E  6720                     beq        +0x22 /* 00003A40 */
00003A20  3D54 FFF6                move.w     [A6 - 0xA], [A4]
00003A24  302C 0006                move.w     D0, [A4 + 0x6]
00003A28  907C 000F                sub.w      D0, 0xF
00003A2C  3D40 FFF8                move.w     [A6 - 0x8], D0
00003A30  3D6C 0006 FFFC           move.w     [A6 - 0x4], [A4 + 0x6]
00003A36  3D47 FFFA                move.w     [A6 - 0x6], D7
00003A3A  486E FFF6                pea.l      [A6 - 0xA]
00003A3E  A928                     syscall    InvalRect
label00003A40:
00003A40  2053                     movea.l    A0, [A3]
00003A42  2F28 001C                move.l     -[A7], [A0 + 0x1C]
00003A46  A957                     syscall    ShowControl
00003A48  3F07                     move.w     -[A7], D7
00003A4A  2F2E 000C                move.l     -[A7], [A6 + 0xC]
00003A4E  4EBA FEF6                jsr        [PC - 0x10A /* 00003946 */]
00003A52  4CDF 1880                movem.l    D7,A3,A4, [A7]+
00003A56  4E5E                     unlink     A6
00003A58  205F                     movea.l    A0, [A7]+
00003A5A  504F                     addq.w     A7, 8
00003A5C  4ED0                     jmp        [A0]
export_41:
00003A5E  4E56 FEE4                link       A6, -0x011C
00003A62  48E7 0708                movem.l    -[A7], D5,D6,D7,A4
00003A66  286E 0008                movea.l    A4, [A6 + 0x8]
00003A6A  422E 000C                clr.b      [A6 + 0xC]
00003A6E  2F0C                     move.l     -[A7], A4
00003A70  486E FFFE                pea.l      [A6 - 0x2]
00003A74  486E FEE4                pea.l      [A6 - 0x11C]
00003A78  486E FEE8                pea.l      [A6 - 0x118]
00003A7C  A9A8                     syscall    GetResInfo
00003A7E  4267                     clr.w      -[A7]
00003A80  2F0C                     move.l     -[A7], A4
00003A82  A9A4                     syscall    HomeResFile
00003A84  3E1F                     move.w     D7, [A7]+
00003A86  4267                     clr.w      -[A7]
00003A88  2F0C                     move.l     -[A7], A4
00003A8A  A9A6                     syscall    GetResAttrs
00003A8C  3C1F                     move.w     D6, [A7]+
00003A8E  7000                     moveq.l    D0, 0x00
00003A90  3006                     move.w     D0, D6
00003A92  C0BC 0000 0001           and.l      D0, 0x1
00003A98  4A80                     tst.l      D0
00003A9A  6746                     beq        +0x48 /* 00003AE2 */
00003A9C  3F07                     move.w     -[A7], D7
00003A9E  486E FFEA                pea.l      [A6 - 0x16]
00003AA2  486E FFF8                pea.l      [A6 - 0x8]
00003AA6  2F2E FEE4                move.l     -[A7], [A6 - 0x11C]
00003AAA  3F2E FFFE                move.w     -[A7], [A6 - 0x2]
00003AAE  4EBA 284C                jsr        [PC + 0x284C /* 000062FC */]
00003AB2  4267                     clr.w      -[A7]
00003AB4  3F07                     move.w     -[A7], D7
00003AB6  486E FFEA                pea.l      [A6 - 0x16]
00003ABA  486E FFFA                pea.l      [A6 - 0x6]
00003ABE  4EAD 0EAA                jsr        [A5 + 0xEAA /* export_465, CODE:23 @ 00000092 */]
00003AC2  1A1F                     move.b     D5, [A7]+
00003AC4  1005                     move.b     D0, D5
00003AC6  671A                     beq        +0x1C /* 00003AE2 */
00003AC8  7200                     moveq.l    D1, 0x00
00003ACA  322E FFFA                move.w     D1, [A6 - 0x6]
00003ACE  C2BC 0000 0001           and.l      D1, 0x1
00003AD4  4A81                     tst.l      D1
00003AD6  56C1                     sne        D1
00003AD8  C001                     and.b      D0, D1
00003ADA  6706                     beq        +0x8 /* 00003AE2 */
00003ADC  1D7C 0001 000C           move.b     [A6 + 0xC], 0x1
label00003AE2:
00003AE2  4CDF 10E0                movem.l    D5,D6,D7,A4, [A7]+
00003AE6  4E5E                     unlink     A6
00003AE8  2E9F                     move.l     [A7], [A7]+
00003AEA  4E75                     rts
fn00003AEC:
00003AEC  4E56 0000                link       A6, 0
00003AF0  206E 0008                movea.l    A0, [A6 + 0x8]
00003AF4  43ED FBE0                lea.l      A1, [A5 - 0x420]
00003AF8  7003                     moveq.l    D0, 0x03
label00003AFA:
00003AFA  30D9                     move.w     [A0]+, [A1]+
00003AFC  51C8 FFFC                dbf        D0, -0x6 /* 00003AFA */
00003B00  4E5E                     unlink     A6
00003B02  4E75                     rts
export_42:
fn00003B04:
00003B04  4E56 FFFE                link       A6, -0x0002
00003B08  3D6D F99A FFFE           move.w     [A6 - 0x2], [A5 - 0x666]
00003B0E  3F2E 0008                move.w     -[A7], [A6 + 0x8]
00003B12  4EBA 0020                jsr        [PC + 0x20 /* 00003B34 */]
00003B16  3B6E FFFE F99A           move.w     [A5 - 0x666], [A6 - 0x2]
00003B1C  4E5E                     unlink     A6
00003B1E  205F                     movea.l    A0, [A7]+
00003B20  544F                     addq.w     A7, 2
00003B22  4ED0                     jmp        [A0]
export_43:
fn00003B24:
00003B24  4E56 0000                link       A6, 0
00003B28  3F2D F99A                move.w     -[A7], [A5 - 0x666]
00003B2C  4EBA 0006                jsr        [PC + 0x6 /* 00003B34 */]
00003B30  4E5E                     unlink     A6
00003B32  4E75                     rts
export_44:
fn00003B34:
00003B34  4E56 FFFA                link       A6, -0x0006
00003B38  48E7 0308                movem.l    -[A7], D6,D7,A4
00003B3C  3E2E 0008                move.w     D7, [A6 + 0x8]
00003B40  70FF                     moveq.l    D0, 0xFFFFFFFF
00003B42  B047                     cmp.w      D0, D7
00003B44  6608                     bne        +0xA /* 00003B4E */
00003B46  486D FBE8                pea.l      [A5 - 0x418]
00003B4A  A851                     syscall    SetCursor
00003B4C  604C                     bra        +0x4E /* 00003B9A */
label00003B4E:
00003B4E  4267                     clr.w      -[A7]
00003B50  A994                     syscall    CurResFile
00003B52  3C1F                     move.w     D6, [A7]+
00003B54  4EBA 1D36                jsr        [PC + 0x1D36 /* 0000588C */]
00003B58  7004                     moveq.l    D0, 0x04
00003B5A  B047                     cmp.w      D0, D7
00003B5C  662C                     bne        +0x2E /* 00003B8A */
00003B5E  4AAD F99C                tst.l      [A5 - 0x664]
00003B62  57C0                     seq        D0
00003B64  4A00                     tst.b      D0
00003B66  660C                     bne        +0xE /* 00003B74 */
00003B68  206D F99C                movea.l    A0, [A5 - 0x664]
00003B6C  4A90                     tst.l      [A0]
00003B6E  57C1                     seq        D1
00003B70  8001                     or.b       D0, D1
00003B72  670C                     beq        +0xE /* 00003B80 */
label00003B74:
00003B74  42A7                     clr.l      -[A7]
00003B76  3F3C 0004                move.w     -[A7], 0x4
00003B7A  A9B9                     syscall    GetCursor
00003B7C  2B5F F99C                move.l     [A5 - 0x664], [A7]+
label00003B80:
00003B80  206D F99C                movea.l    A0, [A5 - 0x664]
00003B84  2F10                     move.l     -[A7], [A0]
00003B86  A851                     syscall    SetCursor
00003B88  600C                     bra        +0xE /* 00003B96 */
label00003B8A:
00003B8A  42A7                     clr.l      -[A7]
00003B8C  3F07                     move.w     -[A7], D7
00003B8E  A9B9                     syscall    GetCursor
00003B90  285F                     movea.l    A4, [A7]+
00003B92  2F14                     move.l     -[A7], [A4]
00003B94  A851                     syscall    SetCursor
label00003B96:
00003B96  3F06                     move.w     -[A7], D6
00003B98  A998                     syscall    UseResFile
label00003B9A:
00003B9A  3B47 F99A                move.w     [A5 - 0x666], D7
00003B9E  4CDF 10C0                movem.l    D6,D7,A4, [A7]+
00003BA2  4E5E                     unlink     A6
00003BA4  205F                     movea.l    A0, [A7]+
00003BA6  544F                     addq.w     A7, 2
00003BA8  4ED0                     jmp        [A0]
export_45:
fn00003BAA:
00003BAA  4E56 FFEE                link       A6, -0x0012
00003BAE  2F3C 0001 0000           move.l     -[A7], 0x10000
00003BB4  486E FFEE                pea.l      [A6 - 0x12]
00003BB8  4EAD 072A                jsr        [A5 + 0x72A /* export_225, CODE:3 @ 000032E2 */]
00003BBC  3D5F FFFE                move.w     [A6 - 0x2], [A7]+
00003BC0  302E FFFC                move.w     D0, [A6 - 0x4]
00003BC4  B06E 0008                cmp.w      D0, [A6 + 0x8]
00003BC8  56C0                     sne        D0
00003BCA  4A00                     tst.b      D0
00003BCC  671A                     beq        +0x1C /* 00003BE8 */
00003BCE  72FF                     moveq.l    D1, 0xFFFFFFFF
00003BD0  B26E 0008                cmp.w      D1, [A6 + 0x8]
00003BD4  56C1                     sne        D1
00003BD6  C001                     and.b      D0, D1
00003BD8  670E                     beq        +0x10 /* 00003BE8 */
00003BDA  4267                     clr.w      -[A7]
00003BDC  3F2E 0008                move.w     -[A7], [A6 + 0x8]
00003BE0  4EAD 06B2                jsr        [A5 + 0x6B2 /* export_210, CODE:3 @ 00002E6C */]
00003BE4  3D5F FFFE                move.w     [A6 - 0x2], [A7]+
label00003BE8:
00003BE8  4E5E                     unlink     A6
00003BEA  205F                     movea.l    A0, [A7]+
00003BEC  544F                     addq.w     A7, 2
00003BEE  4ED0                     jmp        [A0]
00003BF0  4E56 0000                link       A6, 0
00003BF4  4267                     clr.w      -[A7]
00003BF6  1F3C 0001                move.b     -[A7], 0x1
00003BFA  3F3C 0002                move.w     -[A7], 0x2
00003BFE  2F2E 0010                move.l     -[A7], [A6 + 0x10]
00003C02  2F2E 000C                move.l     -[A7], [A6 + 0xC]
00003C06  2F2E 0008                move.l     -[A7], [A6 + 0x8]
00003C0A  4EBA 0010                jsr        [PC + 0x10 /* 00003C1C */]
00003C0E  1D5F 0014                move.b     [A6 + 0x14], [A7]+
00003C12  4E5E                     unlink     A6
00003C14  205F                     movea.l    A0, [A7]+
00003C16  DEFC 000C                add.w      A7, 0xC
00003C1A  4ED0                     jmp        [A0]
fn00003C1C:
00003C1C  4E56 FFFC                link       A6, -0x0004
00003C20  48E7 0718                movem.l    -[A7], D5,D6,D7,A3,A4
00003C24  266E 0010                movea.l    A3, [A6 + 0x10]
00003C28  286E 0008                movea.l    A4, [A6 + 0x8]
00003C2C  2A2E 000C                move.l     D5, [A6 + 0xC]
00003C30  4207                     clr.b      D7
00003C32  2045                     movea.l    A0, D5
00003C34  3010                     move.w     D0, [A0]
00003C36  5740                     subq.w     D0, 3
00003C38  670A                     beq        +0xC /* 00003C44 */
00003C3A  5740                     subq.w     D0, 3
00003C3C  6700 00C4                beq        +0xC6 /* 00003D02 */
00003C40  6000 00D2                bra        +0xD4 /* 00003D14 */
label00003C44:
00003C44  2045                     movea.l    A0, D5
00003C46  203C 0000 00FF           move.l     D0, 0xFF
00003C4C  C0A8 0002                and.l      D0, [A0 + 0x2]
00003C50  3C00                     move.w     D6, D0
00003C52  6B18                     bmi        +0x1A /* 00003C6C */
00003C54  B07C 000F                cmp.w      D0, 0xF
00003C58  6E12                     bgt        +0x14 /* 00003C6C */
00003C5A  41FA 00F6                lea.l      A0, [PC + 0xF6 /* 00003D52, value 0x4E560000 'NV\0\0', cstring "NV" */]
00003C5E  3200                     move.w     D1, D0
00003C60  E649                     lsr        D1.w, 3
00003C62  4441                     neg.w      D1
00003C64  0130 10FF                btst       [A0 + D1.w - 0x1], D0
00003C68  0A3C 0004                xori.b     ccr, 4
label00003C6C:
00003C6C  660A                     bne        +0xC /* 00003C78 */
00003C6E  38AB 00A8                move.w     [A4], [A3 + 0xA8]
00003C72  7E01                     moveq.l    D7, 0x01
00003C74  6000 009E                bra        +0xA0 /* 00003D14 */
label00003C78:
00003C78  3006                     move.w     D0, D6
00003C7A  6B18                     bmi        +0x1A /* 00003C94 */
00003C7C  B07C 007F                cmp.w      D0, 0x7F
00003C80  6E12                     bgt        +0x14 /* 00003C94 */
00003C82  41FA 00CC                lea.l      A0, [PC + 0xCC /* 00003D50, value 0x20084E56 */]
00003C86  3200                     move.w     D1, D0
00003C88  E649                     lsr        D1.w, 3
00003C8A  4441                     neg.w      D1
00003C8C  0130 10FF                btst       [A0 + D1.w - 0x1], D0
00003C90  0A3C 0004                xori.b     ccr, 4
label00003C94:
00003C94  6608                     bne        +0xA /* 00003C9E */
00003C96  38BC 0001                move.w     [A4], 0x1
00003C9A  7E01                     moveq.l    D7, 0x01
00003C9C  6076                     bra        +0x78 /* 00003D14 */
label00003C9E:
00003C9E  3006                     move.w     D0, D6
00003CA0  6B18                     bmi        +0x1A /* 00003CBA */
00003CA2  B07C 006F                cmp.w      D0, 0x6F /* 'o' */
00003CA6  6E12                     bgt        +0x14 /* 00003CBA */
00003CA8  41FA 0096                lea.l      A0, [PC + 0x96 /* 00003D40, value 0x2000000 */]
00003CAC  3200                     move.w     D1, D0
00003CAE  E649                     lsr        D1.w, 3
00003CB0  4441                     neg.w      D1
00003CB2  0130 10FF                btst       [A0 + D1.w - 0x1], D0
00003CB6  0A3C 0004                xori.b     ccr, 4
label00003CBA:
00003CBA  6608                     bne        +0xA /* 00003CC4 */
00003CBC  38AE 0014                move.w     [A4], [A6 + 0x14]
00003CC0  7E01                     moveq.l    D7, 0x01
00003CC2  6050                     bra        +0x52 /* 00003D14 */
label00003CC4:
00003CC4  102E 0016                move.b     D0, [A6 + 0x16]
00003CC8  674A                     beq        +0x4C /* 00003D14 */
00003CCA  7200                     moveq.l    D1, 0x00
00003CCC  2045                     movea.l    A0, D5
00003CCE  3228 000E                move.w     D1, [A0 + 0xE]
00003CD2  C2BC 0000 0100           and.l      D1, 0x100
00003CD8  0C81 0000 0100           cmpi.l     D1, 0x100
00003CDE  57C1                     seq        D1
00003CE0  4A01                     tst.b      D1
00003CE2  670A                     beq        +0xC /* 00003CEE */
00003CE4  742E                     moveq.l    D2, 0x2E
00003CE6  B446                     cmp.w      D2, D6
00003CE8  57C2                     seq        D2
00003CEA  C202                     and.b      D1, D2
00003CEC  660C                     bne        +0xE /* 00003CFA */
label00003CEE:
00003CEE  741B                     moveq.l    D2, 0x1B
00003CF0  B446                     cmp.w      D2, D6
00003CF2  57C2                     seq        D2
00003CF4  8202                     or.b       D1, D2
00003CF6  C001                     and.b      D0, D1
00003CF8  671A                     beq        +0x1C /* 00003D14 */
label00003CFA:
00003CFA  38BC 0003                move.w     [A4], 0x3
00003CFE  7E01                     moveq.l    D7, 0x01
00003D00  6012                     bra        +0x14 /* 00003D14 */
label00003D02:
00003D02  2045                     movea.l    A0, D5
00003D04  B7E8 0002                cmpa.l     A3, [A0 + 0x2]
00003D08  660A                     bne        +0xC /* 00003D14 */
00003D0A  2F0B                     move.l     -[A7], A3
00003D0C  3F2B 00A8                move.w     -[A7], [A3 + 0xA8]
00003D10  4EAD 030A                jsr        [A5 + 0x30A /* export_93, CODE:2 @ 00000000 */]
label00003D14:
00003D14  1007                     move.b     D0, D7
00003D16  6708                     beq        +0xA /* 00003D20 */
00003D18  2F0B                     move.l     -[A7], A3
00003D1A  3F14                     move.w     -[A7], [A4]
00003D1C  4EAD 031A                jsr        [A5 + 0x31A /* export_95, CODE:2 @ 00000138 */]
label00003D20:
00003D20  1D47 0018                move.b     [A6 + 0x18], D7
00003D24  4CDF 18E0                movem.l    D5,D6,D7,A3,A4, [A7]+
00003D28  4E5E                     unlink     A6
00003D2A  205F                     movea.l    A0, [A7]+
00003D2C  DEFC 0010                add.w      A7, 0x10
00003D30  4ED0                     jmp        [A0]
00003D32  4000                     negx.b     D0
00003D34  0000 4000                ori.b      D0, 0x0
00003D38  0000 0000                ori.b      D0, 0x0
00003D3C  0000 0000                ori.b      D0, 0x0
00003D40  0200 0000                andi.b     D0, 0x0
00003D44  0200 0000                andi.b     D0, 0x0
00003D48  0000 0000                ori.b      D0, 0x0
00003D4C  0000 0000                ori.b      D0, 0x0
00003D50  2008                     move.l     D0, A0
export_46:
00003D52  4E56 0000                link       A6, 0
00003D56  2F3C 0001 0000           move.l     -[A7], 0x10000
00003D5C  3F3C 0002                move.w     -[A7], 0x2
00003D60  2F2E 0010                move.l     -[A7], [A6 + 0x10]
00003D64  2F2E 000C                move.l     -[A7], [A6 + 0xC]
00003D68  2F2E 0008                move.l     -[A7], [A6 + 0x8]
00003D6C  4EBA 0098                jsr        [PC + 0x98 /* 00003E06 */]
00003D70  1D5F 0014                move.b     [A6 + 0x14], [A7]+
00003D74  4E5E                     unlink     A6
00003D76  205F                     movea.l    A0, [A7]+
00003D78  DEFC 000C                add.w      A7, 0xC
00003D7C  4ED0                     jmp        [A0]
fn00003D7E:
00003D7E  4E56 FFFE                link       A6, -0x0002
00003D82  206E 0008                movea.l    A0, [A6 + 0x8]
00003D86  2F28 0010                move.l     -[A7], [A0 + 0x10]
00003D8A  4EAD 06FA                jsr        [A5 + 0x6FA /* export_219, CODE:3 @ 000031AC */]
00003D8E  42A7                     clr.l      -[A7]
00003D90  4EAD 0702                jsr        [A5 + 0x702 /* export_220, CODE:3 @ 000031D6 */]
00003D94  4A9F                     tst.l      [A7]+
00003D96  6F14                     ble        +0x16 /* 00003DAC */
00003D98  42A7                     clr.l      -[A7]
00003D9A  A9FC                     syscall    ZeroScrap
00003D9C  201F                     move.l     D0, [A7]+
00003D9E  3D40 FFFE                move.w     [A6 - 0x2], D0
00003DA2  4267                     clr.w      -[A7]
00003DA4  4EAD 0712                jsr        [A5 + 0x712 /* export_222, CODE:3 @ 00003238 */]
00003DA8  3D5F FFFE                move.w     [A6 - 0x2], [A7]+
label00003DAC:
00003DAC  4E5E                     unlink     A6
00003DAE  2E9F                     move.l     [A7], [A7]+
00003DB0  4E75                     rts
fn00003DB2:
00003DB2  4E56 FFFE                link       A6, -0x0002
00003DB6  206E 0008                movea.l    A0, [A6 + 0x8]
00003DBA  2F28 0010                move.l     -[A7], [A0 + 0x10]
00003DBE  4EAD 06F2                jsr        [A5 + 0x6F2 /* export_218, CODE:3 @ 000031B2 */]
00003DC2  42A7                     clr.l      -[A7]
00003DC4  4EAD 0702                jsr        [A5 + 0x702 /* export_220, CODE:3 @ 000031D6 */]
00003DC8  4A9F                     tst.l      [A7]+
00003DCA  6F14                     ble        +0x16 /* 00003DE0 */
00003DCC  42A7                     clr.l      -[A7]
00003DCE  A9FC                     syscall    ZeroScrap
00003DD0  201F                     move.l     D0, [A7]+
00003DD2  3D40 FFFE                move.w     [A6 - 0x2], D0
00003DD6  4267                     clr.w      -[A7]
00003DD8  4EAD 0712                jsr        [A5 + 0x712 /* export_222, CODE:3 @ 00003238 */]
00003DDC  3D5F FFFE                move.w     [A6 - 0x2], [A7]+
label00003DE0:
00003DE0  4E5E                     unlink     A6
00003DE2  2E9F                     move.l     [A7], [A7]+
00003DE4  4E75                     rts
fn00003DE6:
00003DE6  4E56 FFFE                link       A6, -0x0002
00003DEA  4267                     clr.w      -[A7]
00003DEC  4EAD 070A                jsr        [A5 + 0x70A /* export_221, CODE:3 @ 000031E2 */]
00003DF0  3D5F FFFE                move.w     [A6 - 0x2], [A7]+
00003DF4  206E 0008                movea.l    A0, [A6 + 0x8]
00003DF8  2F28 0010                move.l     -[A7], [A0 + 0x10]
00003DFC  4EAD 06E2                jsr        [A5 + 0x6E2 /* export_216, CODE:3 @ 000031A4 */]
00003E00  4E5E                     unlink     A6
00003E02  2E9F                     move.l     [A7], [A7]+
00003E04  4E75                     rts
fn00003E06:
00003E06  4E56 FFDA                link       A6, -0x0026
00003E0A  48E7 0F18                movem.l    -[A7], D4,D5,D6,D7,A3,A4
00003E0E  266E 0008                movea.l    A3, [A6 + 0x8]
00003E12  286E 000C                movea.l    A4, [A6 + 0xC]
00003E16  4206                     clr.b      D6
00003E18  7A01                     moveq.l    D5, 0x01
00003E1A  41ED F946                lea.l      A0, [A5 - 0x6BA]
00003E1E  224C                     movea.l    A1, A4
00003E20  7007                     moveq.l    D0, 0x07
label00003E22:
00003E22  30D9                     move.w     [A0]+, [A1]+
00003E24  51C8 FFFC                dbf        D0, -0x6 /* 00003E22 */
00003E28  2F2E 0010                move.l     -[A7], [A6 + 0x10]
00003E2C  3F2E 0016                move.w     -[A7], [A6 + 0x16]
00003E30  486E FFFA                pea.l      [A6 - 0x6]
00003E34  486E FFF6                pea.l      [A6 - 0xA]
00003E38  486E FFEE                pea.l      [A6 - 0x12]
00003E3C  A98D                     syscall    GetDialogItem/GetDItem
00003E3E  102D F999                move.b     D0, [A5 - 0x667]
00003E42  0A00 0001                xori.b     D0, 0x1
00003E46  4A00                     tst.b      D0
00003E48  6718                     beq        +0x1A /* 00003E62 */
00003E4A  206E FFF6                movea.l    A0, [A6 - 0xA]
00003E4E  2050                     movea.l    A0, [A0]
00003E50  4241                     clr.w      D1
00003E52  1228 0011                move.b     D1, [A0 + 0x11]
00003E56  0C41 00FF                cmpi.w     D1, 0xFF
00003E5A  57C1                     seq        D1
00003E5C  C001                     and.b      D0, D1
00003E5E  4A00                     tst.b      D0
00003E60  661E                     bne        +0x20 /* 00003E80 */
label00003E62:
00003E62  122D F999                move.b     D1, [A5 - 0x667]
00003E66  6730                     beq        +0x32 /* 00003E98 */
00003E68  206E FFF6                movea.l    A0, [A6 - 0xA]
00003E6C  2050                     movea.l    A0, [A0]
00003E6E  4242                     clr.w      D2
00003E70  1428 0011                move.b     D2, [A0 + 0x11]
00003E74  0C42 00FF                cmpi.w     D2, 0xFF
00003E78  56C2                     sne        D2
00003E7A  C202                     and.b      D1, D2
00003E7C  8001                     or.b       D0, D1
00003E7E  6718                     beq        +0x1A /* 00003E98 */
label00003E80:
00003E80  2F2E 0010                move.l     -[A7], [A6 + 0x10]
00003E84  3F2E 0016                move.w     -[A7], [A6 + 0x16]
00003E88  4EAD 030A                jsr        [A5 + 0x30A /* export_93, CODE:2 @ 00000000 */]
00003E8C  102D F999                move.b     D0, [A5 - 0x667]
00003E90  0A00 0001                xori.b     D0, 0x1
00003E94  1B40 F999                move.b     [A5 - 0x667], D0
label00003E98:
00003E98  3014                     move.w     D0, [A4]
00003E9A  5340                     subq.w     D0, 1
00003E9C  6700 0130                beq        +0x132 /* 00003FCE */
00003EA0  5540                     subq.w     D0, 2
00003EA2  670A                     beq        +0xC /* 00003EAE */
00003EA4  5740                     subq.w     D0, 3
00003EA6  6700 019C                beq        +0x19E /* 00004044 */
00003EAA  6000 01C6                bra        +0x1C8 /* 00004072 */
label00003EAE:
00003EAE  203C 0000 00FF           move.l     D0, 0xFF
00003EB4  C0AC 0002                and.l      D0, [A4 + 0x2]
00003EB8  3E00                     move.w     D7, D0
00003EBA  6B18                     bmi        +0x1A /* 00003ED4 */
00003EBC  B07C 000F                cmp.w      D0, 0xF
00003EC0  6E12                     bgt        +0x14 /* 00003ED4 */
00003EC2  41FA 01D4                lea.l      A0, [PC + 0x1D4 /* 00004098, value 0x4E56FFE0 */]
00003EC6  3200                     move.w     D1, D0
00003EC8  E649                     lsr        D1.w, 3
00003ECA  4441                     neg.w      D1
00003ECC  0130 10FF                btst       [A0 + D1.w - 0x1], D0
00003ED0  0A3C 0004                xori.b     ccr, 4
label00003ED4:
00003ED4  661E                     bne        +0x20 /* 00003EF4 */
00003ED6  206E FFF6                movea.l    A0, [A6 - 0xA]
00003EDA  2050                     movea.l    A0, [A0]
00003EDC  4240                     clr.w      D0
00003EDE  1028 0011                move.b     D0, [A0 + 0x11]
00003EE2  0C40 00FF                cmpi.w     D0, 0xFF
00003EE6  6700 018A                beq        +0x18C /* 00004072 */
00003EEA  36AE 0016                move.w     [A3], [A6 + 0x16]
00003EEE  7C01                     moveq.l    D6, 0x01
00003EF0  6000 0180                bra        +0x182 /* 00004072 */
label00003EF4:
00003EF4  7000                     moveq.l    D0, 0x00
00003EF6  302C 000E                move.w     D0, [A4 + 0xE]
00003EFA  C0BC 0000 0100           and.l      D0, 0x100
00003F00  0C80 0000 0100           cmpi.l     D0, 0x100
00003F06  57C0                     seq        D0
00003F08  4A00                     tst.b      D0
00003F0A  670A                     beq        +0xC /* 00003F16 */
00003F0C  722E                     moveq.l    D1, 0x2E
00003F0E  B247                     cmp.w      D1, D7
00003F10  57C1                     seq        D1
00003F12  C001                     and.b      D0, D1
00003F14  660A                     bne        +0xC /* 00003F20 */
label00003F16:
00003F16  721B                     moveq.l    D1, 0x1B
00003F18  B247                     cmp.w      D1, D7
00003F1A  57C1                     seq        D1
00003F1C  8001                     or.b       D0, D1
00003F1E  6712                     beq        +0x14 /* 00003F32 */
label00003F20:
00003F20  4A6E 0014                tst.w      [A6 + 0x14]
00003F24  6700 014C                beq        +0x14E /* 00004072 */
00003F28  36AE 0014                move.w     [A3], [A6 + 0x14]
00003F2C  7C01                     moveq.l    D6, 0x01
00003F2E  6000 0142                bra        +0x144 /* 00004072 */
label00003F32:
00003F32  206E 0010                movea.l    A0, [A6 + 0x10]
00003F36  70FF                     moveq.l    D0, 0xFFFFFFFF
00003F38  B068 00A4                cmp.w      D0, [A0 + 0xA4]
00003F3C  56C0                     sne        D0
00003F3E  4A00                     tst.b      D0
00003F40  6700 0130                beq        +0x132 /* 00004072 */
00003F44  7200                     moveq.l    D1, 0x00
00003F46  322C 000E                move.w     D1, [A4 + 0xE]
00003F4A  C2BC 0000 0100           and.l      D1, 0x100
00003F50  0C81 0000 0100           cmpi.l     D1, 0x100
00003F56  57C1                     seq        D1
00003F58  C001                     and.b      D0, D1
00003F5A  6700 0116                beq        +0x118 /* 00004072 */
00003F5E  7C01                     moveq.l    D6, 0x01
00003F60  4205                     clr.b      D5
00003F62  7058                     moveq.l    D0, 0x58
00003F64  B047                     cmp.w      D0, D7
00003F66  57C0                     seq        D0
00003F68  4A00                     tst.b      D0
00003F6A  660A                     bne        +0xC /* 00003F76 */
00003F6C  7278                     moveq.l    D1, 0x78
00003F6E  B247                     cmp.w      D1, D7
00003F70  57C1                     seq        D1
00003F72  8001                     or.b       D0, D1
00003F74  6708                     beq        +0xA /* 00003F7E */
label00003F76:
00003F76  2F0E                     move.l     -[A7], A6
00003F78  4EBA FE04                jsr        [PC - 0x1FC /* 00003D7E */]
00003F7C  603A                     bra        +0x3C /* 00003FB8 */
label00003F7E:
00003F7E  7056                     moveq.l    D0, 0x56
00003F80  B047                     cmp.w      D0, D7
00003F82  57C0                     seq        D0
00003F84  4A00                     tst.b      D0
00003F86  660A                     bne        +0xC /* 00003F92 */
00003F88  7276                     moveq.l    D1, 0x76
00003F8A  B247                     cmp.w      D1, D7
00003F8C  57C1                     seq        D1
00003F8E  8001                     or.b       D0, D1
00003F90  6708                     beq        +0xA /* 00003F9A */
label00003F92:
00003F92  2F0E                     move.l     -[A7], A6
00003F94  4EBA FE50                jsr        [PC - 0x1B0 /* 00003DE6 */]
00003F98  601E                     bra        +0x20 /* 00003FB8 */
label00003F9A:
00003F9A  7043                     moveq.l    D0, 0x43
00003F9C  B047                     cmp.w      D0, D7
00003F9E  57C0                     seq        D0
00003FA0  4A00                     tst.b      D0
00003FA2  660A                     bne        +0xC /* 00003FAE */
00003FA4  7263                     moveq.l    D1, 0x63
00003FA6  B247                     cmp.w      D1, D7
00003FA8  57C1                     seq        D1
00003FAA  8001                     or.b       D0, D1
00003FAC  6708                     beq        +0xA /* 00003FB6 */
label00003FAE:
00003FAE  2F0E                     move.l     -[A7], A6
00003FB0  4EBA FE00                jsr        [PC - 0x200 /* 00003DB2 */]
00003FB4  6002                     bra        +0x4 /* 00003FB8 */
label00003FB6:
00003FB6  4206                     clr.b      D6
label00003FB8:
00003FB8  1006                     move.b     D0, D6
00003FBA  6700 00B6                beq        +0xB8 /* 00004072 */
00003FBE  206E 0010                movea.l    A0, [A6 + 0x10]
00003FC2  3028 00A4                move.w     D0, [A0 + 0xA4]
00003FC6  5240                     addq.w     D0, 1
00003FC8  3680                     move.w     [A3], D0
00003FCA  6000 00A6                bra        +0xA8 /* 00004072 */
label00003FCE:
00003FCE  4267                     clr.w      -[A7]
00003FD0  2F2D F950                move.l     -[A7], [A5 - 0x6B0]
00003FD4  486E 0010                pea.l      [A6 + 0x10]
00003FD8  A92C                     syscall    FindWindow
00003FDA  7001                     moveq.l    D0, 0x01
00003FDC  B05F                     cmp.w      D0, [A7]+
00003FDE  6600 0092                bne        +0x94 /* 00004072 */
00003FE2  2F3C 0001 0000           move.l     -[A7], 0x10000
00003FE8  486E FFDA                pea.l      [A6 - 0x26]
00003FEC  4EAD 072A                jsr        [A5 + 0x72A /* export_225, CODE:3 @ 000032E2 */]
00003FF0  4A5F                     tst.w      [A7]+
00003FF2  57C0                     seq        D0
00003FF4  4A00                     tst.b      D0
00003FF6  677A                     beq        +0x7C /* 00004072 */
00003FF8  0C6E 0700 FFDE           cmpi.w     [A6 - 0x22], 0x700
00003FFE  5CC1                     sge        D1
00004000  C001                     and.b      D0, D1
00004002  676E                     beq        +0x70 /* 00004072 */
00004004  7C01                     moveq.l    D6, 0x01
00004006  4205                     clr.b      D5
00004008  42A7                     clr.l      -[A7]
0000400A  2F2D F950                move.l     -[A7], [A5 - 0x6B0]
0000400E  A93D                     syscall    MenuSelect
00004010  281F                     move.l     D4, [A7]+
00004012  2004                     move.l     D0, D4
00004014  4840                     swap.w     D0
00004016  7203                     moveq.l    D1, 0x03
00004018  B240                     cmp.w      D1, D0
0000401A  6656                     bne        +0x58 /* 00004072 */
0000401C  2004                     move.l     D0, D4
0000401E  5740                     subq.w     D0, 3
00004020  6712                     beq        +0x14 /* 00004034 */
00004022  5340                     subq.w     D0, 1
00004024  6706                     beq        +0x8 /* 0000402C */
00004026  5340                     subq.w     D0, 1
00004028  6712                     beq        +0x14 /* 0000403C */
0000402A  6046                     bra        +0x48 /* 00004072 */
label0000402C:
0000402C  2F0E                     move.l     -[A7], A6
0000402E  4EBA FD82                jsr        [PC - 0x27E /* 00003DB2 */]
00004032  603E                     bra        +0x40 /* 00004072 */
label00004034:
00004034  2F0E                     move.l     -[A7], A6
00004036  4EBA FD46                jsr        [PC - 0x2BA /* 00003D7E */]
0000403A  6036                     bra        +0x38 /* 00004072 */
label0000403C:
0000403C  2F0E                     move.l     -[A7], A6
0000403E  4EBA FDA6                jsr        [PC - 0x25A /* 00003DE6 */]
00004042  602E                     bra        +0x30 /* 00004072 */
label00004044:
00004044  202C 0002                move.l     D0, [A4 + 0x2]
00004048  B0AE 0010                cmp.l      D0, [A6 + 0x10]
0000404C  6624                     bne        +0x26 /* 00004072 */
0000404E  206E FFF6                movea.l    A0, [A6 - 0xA]
00004052  2050                     movea.l    A0, [A0]
00004054  4240                     clr.w      D0
00004056  1028 0011                move.b     D0, [A0 + 0x11]
0000405A  0C40 00FF                cmpi.w     D0, 0xFF
0000405E  57C0                     seq        D0
00004060  4400                     neg.b      D0
00004062  1B40 F999                move.b     [A5 - 0x667], D0
00004066  2F2E 0010                move.l     -[A7], [A6 + 0x10]
0000406A  3F2E 0016                move.w     -[A7], [A6 + 0x16]
0000406E  4EAD 030A                jsr        [A5 + 0x30A /* export_93, CODE:2 @ 00000000 */]
label00004072:
00004072  1006                     move.b     D0, D6
00004074  670E                     beq        +0x10 /* 00004084 */
00004076  C005                     and.b      D0, D5
00004078  670A                     beq        +0xC /* 00004084 */
0000407A  2F2E 0010                move.l     -[A7], [A6 + 0x10]
0000407E  3F13                     move.w     -[A7], [A3]
00004080  4EAD 031A                jsr        [A5 + 0x31A /* export_95, CODE:2 @ 00000138 */]
label00004084:
00004084  1D46 0018                move.b     [A6 + 0x18], D6
00004088  4CDF 18F0                movem.l    D4,D5,D6,D7,A3,A4, [A7]+
0000408C  4E5E                     unlink     A6
0000408E  205F                     movea.l    A0, [A7]+
00004090  DEFC 0010                add.w      A7, 0x10
00004094  4ED0                     jmp        [A0]
00004096  2008                     move.l     D0, A0
fn00004098:
00004098  4E56 FFE0                link       A6, -0x0020
0000409C  48E7 0308                movem.l    -[A7], D6,D7,A4
000040A0  422E 000C                clr.b      [A6 + 0xC]
000040A4  2F2E 0008                move.l     -[A7], [A6 + 0x8]
000040A8  42A7                     clr.l      -[A7]
000040AA  42A7                     clr.l      -[A7]
000040AC  A8A7                     syscall    SetRect
000040AE  486E FFFC                pea.l      [A6 - 0x4]
000040B2  A874                     syscall    GetPort
000040B4  42A7                     clr.l      -[A7]
000040B6  A924                     syscall    FrontWindow
000040B8  202E FFFC                move.l     D0, [A6 - 0x4]
000040BC  B09F                     cmp.l      D0, [A7]+
000040BE  661A                     bne        +0x1C /* 000040DA */
000040C0  206E FFFC                movea.l    A0, [A6 - 0x4]
000040C4  2068 0072                movea.l    A0, [A0 + 0x72]
000040C8  2050                     movea.l    A0, [A0]
000040CA  43EE FFE8                lea.l      A1, [A6 - 0x18]
000040CE  5488                     addq.l     A0, 2
000040D0  7003                     moveq.l    D0, 0x03
label000040D2:
000040D2  32D8                     move.w     [A1]+, [A0]+
000040D4  51C8 FFFC                dbf        D0, -0x6 /* 000040D2 */
000040D8  6020                     bra        +0x22 /* 000040FA */
label000040DA:
000040DA  206E FFFC                movea.l    A0, [A6 - 0x4]
000040DE  43EE FFE8                lea.l      A1, [A6 - 0x18]
000040E2  41E8 0010                lea.l      A0, [A0 + 0x10]
000040E6  7003                     moveq.l    D0, 0x03
label000040E8:
000040E8  32D8                     move.w     [A1]+, [A0]+
000040EA  51C8 FFFC                dbf        D0, -0x6 /* 000040E8 */
000040EE  486E FFE8                pea.l      [A6 - 0x18]
000040F2  A870                     syscall    LocalToGlobal
000040F4  486E FFEC                pea.l      [A6 - 0x14]
000040F8  A870                     syscall    LocalToGlobal
label000040FA:
000040FA  7E00                     moveq.l    D7, 0x00
000040FC  42A7                     clr.l      -[A7]
000040FE  AA29                     syscall    GetDeviceList
00004100  285F                     movea.l    A4, [A7]+
label00004102:
00004102  200C                     move.l     D0, A4
00004104  6700 00AA                beq        +0xAC /* 000041B0 */
00004108  4267                     clr.w      -[A7]
0000410A  2F0C                     move.l     -[A7], A4
0000410C  3F3C 000D                move.w     -[A7], 0xD /* '\r' */
00004110  AA2C                     syscall    TestDeviceAttribute
00004112  101F                     move.b     D0, [A7]+
00004114  6700 008E                beq        +0x90 /* 000041A4 */
00004118  2F00                     move.l     -[A7], D0
0000411A  4267                     clr.w      -[A7]
0000411C  2F0C                     move.l     -[A7], A4
0000411E  3F3C 000F                move.w     -[A7], 0xF
00004122  AA2C                     syscall    TestDeviceAttribute
00004124  121F                     move.b     D1, [A7]+
00004126  201F                     move.l     D0, [A7]+
00004128  C001                     and.b      D0, D1
0000412A  6778                     beq        +0x7A /* 000041A4 */
0000412C  4267                     clr.w      -[A7]
0000412E  486E FFE8                pea.l      [A6 - 0x18]
00004132  2054                     movea.l    A0, [A4]
00004134  4868 0022                pea.l      [A0 + 0x22]
00004138  486E FFE0                pea.l      [A6 - 0x20]
0000413C  A8AA                     syscall    SectRect
0000413E  101F                     move.b     D0, [A7]+
00004140  6762                     beq        +0x64 /* 000041A4 */
00004142  302E FFE6                move.w     D0, [A6 - 0x1A]
00004146  906E FFE2                sub.w      D0, [A6 - 0x1E]
0000414A  48C0                     ext.l      D0
0000414C  322E FFE4                move.w     D1, [A6 - 0x1C]
00004150  926E FFE0                sub.w      D1, [A6 - 0x20]
00004154  48C1                     ext.l      D1
00004156  2F00                     move.l     -[A7], D0
00004158  2F01                     move.l     -[A7], D1
0000415A  4EAD 0392                jsr        [A5 + 0x392 /* export_110, CODE:3 @ 0000009E */]
0000415E  2C1F                     move.l     D6, [A7]+
00004160  BE86                     cmp.l      D7, D6
00004162  6C40                     bge        +0x42 /* 000041A4 */
00004164  2E06                     move.l     D7, D6
00004166  2054                     movea.l    A0, [A4]
00004168  226E 0008                movea.l    A1, [A6 + 0x8]
0000416C  41E8 0022                lea.l      A0, [A0 + 0x22]
00004170  7003                     moveq.l    D0, 0x03
label00004172:
00004172  32D8                     move.w     [A1]+, [A0]+
00004174  51C8 FFFC                dbf        D0, -0x6 /* 00004172 */
00004178  4267                     clr.w      -[A7]
0000417A  2F0C                     move.l     -[A7], A4
0000417C  3F3C 000B                move.w     -[A7], 0xB
00004180  AA2C                     syscall    TestDeviceAttribute
00004182  101F                     move.b     D0, [A7]+
00004184  671A                     beq        +0x1C /* 000041A0 */
00004186  206E 0008                movea.l    A0, [A6 + 0x8]
0000418A  2F08                     move.l     -[A7], A0
0000418C  4267                     clr.w      -[A7]
0000418E  3EB8 0BAA                move.w     [A7], [0x00000BAA /* MBarHeight */]
00004192  301F                     move.w     D0, [A7]+
00004194  205F                     movea.l    A0, [A7]+
00004196  D150                     add.w      [A0], D0
00004198  1D7C 0001 000C           move.b     [A6 + 0xC], 0x1
0000419E  6004                     bra        +0x6 /* 000041A4 */
label000041A0:
000041A0  422E 000C                clr.b      [A6 + 0xC]
label000041A4:
000041A4  42A7                     clr.l      -[A7]
000041A6  2F0C                     move.l     -[A7], A4
000041A8  AA2B                     syscall    GetNextDevice
000041AA  285F                     movea.l    A4, [A7]+
000041AC  6000 FF54                bra        -0xAA /* 00004102 */
label000041B0:
000041B0  4CDF 10C0                movem.l    D6,D7,A4, [A7]+
000041B4  4E5E                     unlink     A6
000041B6  2E9F                     move.l     [A7], [A7]+
000041B8  4E75                     rts
fn000041BA:
000041BA  4E56 FFF8                link       A6, -0x0008
000041BE  2F0C                     move.l     -[A7], A4
000041C0  486E FFFC                pea.l      [A6 - 0x4]
000041C4  A874                     syscall    GetPort
000041C6  206E FFFC                movea.l    A0, [A6 - 0x4]
000041CA  226E 0008                movea.l    A1, [A6 + 0x8]
000041CE  41E8 0010                lea.l      A0, [A0 + 0x10]
000041D2  7003                     moveq.l    D0, 0x03
label000041D4:
000041D4  32D8                     move.w     [A1]+, [A0]+
000041D6  51C8 FFFC                dbf        D0, -0x6 /* 000041D4 */
000041DA  206E 0008                movea.l    A0, [A6 + 0x8]
000041DE  2F08                     move.l     -[A7], A0
000041E0  A870                     syscall    LocalToGlobal
000041E2  206E 0008                movea.l    A0, [A6 + 0x8]
000041E6  4868 0004                pea.l      [A0 + 0x4]
000041EA  A870                     syscall    LocalToGlobal
000041EC  42A7                     clr.l      -[A7]
000041EE  2F2E 0008                move.l     -[A7], [A6 + 0x8]
000041F2  AA27                     syscall    GetMaxDevice
000041F4  285F                     movea.l    A4, [A7]+
000041F6  200C                     move.l     D0, A4
000041F8  6606                     bne        +0x8 /* 00004200 */
000041FA  42A7                     clr.l      -[A7]
000041FC  AA2A                     syscall    GetMainDevice
000041FE  285F                     movea.l    A4, [A7]+
label00004200:
00004200  2054                     movea.l    A0, [A4]
00004202  226E 0008                movea.l    A1, [A6 + 0x8]
00004206  41E8 0022                lea.l      A0, [A0 + 0x22]
0000420A  7003                     moveq.l    D0, 0x03
label0000420C:
0000420C  32D8                     move.w     [A1]+, [A0]+
0000420E  51C8 FFFC                dbf        D0, -0x6 /* 0000420C */
00004212  42A7                     clr.l      -[A7]
00004214  AA2A                     syscall    GetMainDevice
00004216  B9DF                     cmpa.l     A4, [A7]+
00004218  6612                     bne        +0x14 /* 0000422C */
0000421A  206E 0008                movea.l    A0, [A6 + 0x8]
0000421E  2F08                     move.l     -[A7], A0
00004220  4267                     clr.w      -[A7]
00004222  3EB8 0BAA                move.w     [A7], [0x00000BAA /* MBarHeight */]
00004226  301F                     move.w     D0, [A7]+
00004228  205F                     movea.l    A0, [A7]+
0000422A  D150                     add.w      [A0], D0
label0000422C:
0000422C  285F                     movea.l    A4, [A7]+
0000422E  4E5E                     unlink     A6
00004230  2E9F                     move.l     [A7], [A7]+
00004232  4E75                     rts
export_47:
00004234  4E56 FFEE                link       A6, -0x0012
00004238  2F07                     move.l     -[A7], D7
0000423A  7E01                     moveq.l    D7, 0x01
0000423C  102D F7D1                move.b     D0, [A5 - 0x82F]
00004240  670E                     beq        +0x10 /* 00004250 */
00004242  4267                     clr.w      -[A7]
00004244  486E FFF8                pea.l      [A6 - 0x8]
00004248  4EBA FE4E                jsr        [PC - 0x1B2 /* 00004098 */]
0000424C  1E1F                     move.b     D7, [A7]+
0000424E  6022                     bra        +0x24 /* 00004272 */
label00004250:
00004250  486E FFEE                pea.l      [A6 - 0x12]
00004254  4EBA F896                jsr        [PC - 0x76A /* 00003AEC */]
00004258  205F                     movea.l    A0, [A7]+
0000425A  43EE FFF8                lea.l      A1, [A6 - 0x8]
0000425E  7003                     moveq.l    D0, 0x03
label00004260:
00004260  32D8                     move.w     [A1]+, [A0]+
00004262  51C8 FFFC                dbf        D0, -0x6 /* 00004260 */
00004266  4267                     clr.w      -[A7]
00004268  3EB8 0BAA                move.w     [A7], [0x00000BAA /* MBarHeight */]
0000426C  301F                     move.w     D0, [A7]+
0000426E  D16E FFF8                add.w      [A6 - 0x8], D0
label00004272:
00004272  102E 000C                move.b     D0, [A6 + 0xC]
00004276  6740                     beq        +0x42 /* 000042B8 */
00004278  C007                     and.b      D0, D7
0000427A  673C                     beq        +0x3E /* 000042B8 */
0000427C  302E FFFC                move.w     D0, [A6 - 0x4]
00004280  906E FFF8                sub.w      D0, [A6 - 0x8]
00004284  0C40 0190                cmpi.w     D0, 0x190
00004288  6F04                     ble        +0x6 /* 0000428E */
0000428A  5B6E FFFC                subq.w     [A6 - 0x4], 5
label0000428E:
0000428E  302E FFFE                move.w     D0, [A6 - 0x2]
00004292  906E FFFA                sub.w      D0, [A6 - 0x6]
00004296  0C40 0281                cmpi.w     D0, 0x281
0000429A  6F08                     ble        +0xA /* 000042A4 */
0000429C  046E 0038 FFFE           subi.w     [A6 - 0x2], 0x38 /* '8' */
000042A2  6014                     bra        +0x16 /* 000042B8 */
label000042A4:
000042A4  302E FFFE                move.w     D0, [A6 - 0x2]
000042A8  906E FFFA                sub.w      D0, [A6 - 0x6]
000042AC  0C40 0258                cmpi.w     D0, 0x258
000042B0  6F06                     ble        +0x8 /* 000042B8 */
000042B2  046E 000A FFFE           subi.w     [A6 - 0x2], 0xA /* '\n' */
label000042B8:
000042B8  206E 000E                movea.l    A0, [A6 + 0xE]
000042BC  43EE FFF8                lea.l      A1, [A6 - 0x8]
000042C0  7003                     moveq.l    D0, 0x03
label000042C2:
000042C2  30D9                     move.w     [A0]+, [A1]+
000042C4  51C8 FFFC                dbf        D0, -0x6 /* 000042C2 */
000042C8  2E1F                     move.l     D7, [A7]+
000042CA  4E5E                     unlink     A6
000042CC  205F                     movea.l    A0, [A7]+
000042CE  5C4F                     addq.w     A7, 6
000042D0  4ED0                     jmp        [A0]
fn000042D2:
000042D2  4E56 FFF8                link       A6, -0x0008
000042D6  2F0C                     move.l     -[A7], A4
000042D8  203C 444C 4F47           move.l     D0, 0x444C4F47 /* 'DLOG' */
000042DE  B0AE 000A                cmp.l      D0, [A6 + 0xA]
000042E2  660A                     bne        +0xC /* 000042EE */
000042E4  2D7C 6463 7462 FFF8      move.l     [A6 - 0x8], 0x64637462 /* 'dctb' */
000042EC  601C                     bra        +0x1E /* 0000430A */
label000042EE:
000042EE  203C 414C 5254           move.l     D0, 0x414C5254 /* 'ALRT' */
000042F4  B0AE 000A                cmp.l      D0, [A6 + 0xA]
000042F8  660A                     bne        +0xC /* 00004304 */
000042FA  2D7C 6163 7462 FFF8      move.l     [A6 - 0x8], 0x61637462 /* 'actb' */
00004302  6006                     bra        +0x8 /* 0000430A */
label00004304:
00004304  7000                     moveq.l    D0, 0x00
00004306  2D40 FFF8                move.l     [A6 - 0x8], D0
label0000430A:
0000430A  4AAE 000A                tst.l      [A6 + 0xA]
0000430E  6730                     beq        +0x32 /* 00004340 */
00004310  4267                     clr.w      -[A7]
00004312  A99B                     syscall    SetResLoad
00004314  42A7                     clr.l      -[A7]
00004316  2F2E FFF8                move.l     -[A7], [A6 - 0x8]
0000431A  3F2E 0008                move.w     -[A7], [A6 + 0x8]
0000431E  A9A0                     syscall    GetResource
00004320  285F                     movea.l    A4, [A7]+
00004322  1F3C 0001                move.b     -[A7], 0x1
00004326  A99B                     syscall    SetResLoad
00004328  200C                     move.l     D0, A4
0000432A  56C0                     sne        D0
0000432C  4400                     neg.b      D0
0000432E  1D40 000E                move.b     [A6 + 0xE], D0
00004332  200C                     move.l     D0, A4
00004334  670E                     beq        +0x10 /* 00004344 */
00004336  4A94                     tst.l      [A4]
00004338  670A                     beq        +0xC /* 00004344 */
0000433A  2F0C                     move.l     -[A7], A4
0000433C  A9A3                     syscall    ReleaseResource
0000433E  6004                     bra        +0x6 /* 00004344 */
label00004340:
00004340  422E 000E                clr.b      [A6 + 0xE]
label00004344:
00004344  285F                     movea.l    A4, [A7]+
00004346  4E5E                     unlink     A6
00004348  205F                     movea.l    A0, [A7]+
0000434A  5C4F                     addq.w     A7, 6
0000434C  4ED0                     jmp        [A0]
export_48:
fn0000434E:
0000434E  4E56 0000                link       A6, 0
00004352  4267                     clr.w      -[A7]
00004354  2F2E 000A                move.l     -[A7], [A6 + 0xA]
00004358  3F2E 0008                move.w     -[A7], [A6 + 0x8]
0000435C  4EBA 000A                jsr        [PC + 0xA /* 00004368 */]
00004360  4E5E                     unlink     A6
00004362  205F                     movea.l    A0, [A7]+
00004364  5C4F                     addq.w     A7, 6
00004366  4ED0                     jmp        [A0]
export_49:
fn00004368:
00004368  4E56 FFEA                link       A6, -0x0016
0000436C  48E7 0118                movem.l    -[A7], D7,A3,A4
00004370  42A7                     clr.l      -[A7]
00004372  2F2E 000A                move.l     -[A7], [A6 + 0xA]
00004376  3F2E 0008                move.w     -[A7], [A6 + 0x8]
0000437A  A9A0                     syscall    GetResource
0000437C  265F                     movea.l    A3, [A7]+
0000437E  200B                     move.l     D0, A3
00004380  56C0                     sne        D0
00004382  4A00                     tst.b      D0
00004384  6700 00C4                beq        +0xC6 /* 0000444A */
00004388  4A93                     tst.l      [A3]
0000438A  56C1                     sne        D1
0000438C  C001                     and.b      D0, D1
0000438E  6700 00BA                beq        +0xBC /* 0000444A */
00004392  486E FFEA                pea.l      [A6 - 0x16]
00004396  4EBA F754                jsr        [PC - 0x8AC /* 00003AEC */]
0000439A  205F                     movea.l    A0, [A7]+
0000439C  43EE FFF4                lea.l      A1, [A6 - 0xC]
000043A0  7003                     moveq.l    D0, 0x03
label000043A2:
000043A2  32D8                     move.w     [A1]+, [A0]+
000043A4  51C8 FFFC                dbf        D0, -0x6 /* 000043A2 */
000043A8  4267                     clr.w      -[A7]
000043AA  3EB8 0BAA                move.w     [A7], [0x00000BAA /* MBarHeight */]
000043AE  301F                     move.w     D0, [A7]+
000043B0  D16E FFF4                add.w      [A6 - 0xC], D0
000043B4  102E 000E                move.b     D0, [A6 + 0xE]
000043B8  0A00 0001                xori.b     D0, 0x1
000043BC  4A00                     tst.b      D0
000043BE  6734                     beq        +0x36 /* 000043F4 */
000043C0  C02D F7D1                and.b      D0, [A5 - 0x82F]
000043C4  672E                     beq        +0x30 /* 000043F4 */
000043C6  4267                     clr.w      -[A7]
000043C8  2F2E 000A                move.l     -[A7], [A6 + 0xA]
000043CC  3F2E 0008                move.w     -[A7], [A6 + 0x8]
000043D0  4EBA FF00                jsr        [PC - 0x100 /* 000042D2 */]
000043D4  101F                     move.b     D0, [A7]+
000043D6  670A                     beq        +0xC /* 000043E2 */
000043D8  486E FFF4                pea.l      [A6 - 0xC]
000043DC  4EBA FDDC                jsr        [PC - 0x224 /* 000041BA */]
000043E0  6012                     bra        +0x14 /* 000043F4 */
label000043E2:
000043E2  102D F7C3                move.b     D0, [A5 - 0x83D]
000043E6  660C                     bne        +0xE /* 000043F4 */
000043E8  4267                     clr.w      -[A7]
000043EA  486E FFF4                pea.l      [A6 - 0xC]
000043EE  4EBA FCA8                jsr        [PC - 0x358 /* 00004098 */]
000043F2  1E1F                     move.b     D7, [A7]+
label000043F4:
000043F4  2053                     movea.l    A0, [A3]
000043F6  49D0                     lea.l      A4, [A0]
000043F8  302C 0002                move.w     D0, [A4 + 0x2]
000043FC  916C 0006                sub.w      [A4 + 0x6], D0
00004400  302E FFFA                move.w     D0, [A6 - 0x6]
00004404  906E FFF6                sub.w      D0, [A6 - 0xA]
00004408  906C 0006                sub.w      D0, [A4 + 0x6]
0000440C  48C0                     ext.l      D0
0000440E  81FC 0002                divs.w     D0, 0x2
00004412  322E FFF6                move.w     D1, [A6 - 0xA]
00004416  D240                     add.w      D1, D0
00004418  3941 0002                move.w     [A4 + 0x2], D1
0000441C  302C 0002                move.w     D0, [A4 + 0x2]
00004420  D16C 0006                add.w      [A4 + 0x6], D0
00004424  3014                     move.w     D0, [A4]
00004426  916C 0004                sub.w      [A4 + 0x4], D0
0000442A  302E FFF8                move.w     D0, [A6 - 0x8]
0000442E  906E FFF4                sub.w      D0, [A6 - 0xC]
00004432  906C 0004                sub.w      D0, [A4 + 0x4]
00004436  48C0                     ext.l      D0
00004438  81FC 0003                divs.w     D0, 0x3
0000443C  322E FFF4                move.w     D1, [A6 - 0xC]
00004440  D240                     add.w      D1, D0
00004442  3881                     move.w     [A4], D1
00004444  3014                     move.w     D0, [A4]
00004446  D16C 0004                add.w      [A4 + 0x4], D0
label0000444A:
0000444A  4CDF 1880                movem.l    D7,A3,A4, [A7]+
0000444E  4E5E                     unlink     A6
00004450  205F                     movea.l    A0, [A7]+
00004452  504F                     addq.w     A7, 8
00004454  4ED0                     jmp        [A0]
fn00004456:
00004456  4E56 FFEA                link       A6, -0x0016
0000445A  48E7 0318                movem.l    -[A7], D6,D7,A3,A4
0000445E  2C2E 0008                move.l     D6, [A6 + 0x8]
00004462  42A7                     clr.l      -[A7]
00004464  2F3C 444C 4F47           move.l     -[A7], 0x444C4F47 /* 'DLOG' */
0000446A  3F2E 000C                move.w     -[A7], [A6 + 0xC]
0000446E  A9A0                     syscall    GetResource
00004470  265F                     movea.l    A3, [A7]+
00004472  200B                     move.l     D0, A3
00004474  56C0                     sne        D0
00004476  4A00                     tst.b      D0
00004478  6700 00AC                beq        +0xAE /* 00004526 */
0000447C  4A93                     tst.l      [A3]
0000447E  56C1                     sne        D1
00004480  C001                     and.b      D0, D1
00004482  6700 00A2                beq        +0xA4 /* 00004526 */
00004486  102D F7D1                move.b     D0, [A5 - 0x82F]
0000448A  672E                     beq        +0x30 /* 000044BA */
0000448C  122D F7C3                move.b     D1, [A5 - 0x83D]
00004490  0A01 0001                xori.b     D1, 0x1
00004494  C001                     and.b      D0, D1
00004496  4A00                     tst.b      D0
00004498  6720                     beq        +0x22 /* 000044BA */
0000449A  2F00                     move.l     -[A7], D0
0000449C  42A7                     clr.l      -[A7]
0000449E  A924                     syscall    FrontWindow
000044A0  221F                     move.l     D1, [A7]+
000044A2  201F                     move.l     D0, [A7]+
000044A4  4A81                     tst.l      D1
000044A6  56C1                     sne        D1
000044A8  C001                     and.b      D0, D1
000044AA  670E                     beq        +0x10 /* 000044BA */
000044AC  4267                     clr.w      -[A7]
000044AE  486E FFF4                pea.l      [A6 - 0xC]
000044B2  4EBA FBE4                jsr        [PC - 0x41C /* 00004098 */]
000044B6  1E1F                     move.b     D7, [A7]+
000044B8  6022                     bra        +0x24 /* 000044DC */
label000044BA:
000044BA  486E FFEA                pea.l      [A6 - 0x16]
000044BE  4EBA F62C                jsr        [PC - 0x9D4 /* 00003AEC */]
000044C2  205F                     movea.l    A0, [A7]+
000044C4  43EE FFF4                lea.l      A1, [A6 - 0xC]
000044C8  7003                     moveq.l    D0, 0x03
label000044CA:
000044CA  32D8                     move.w     [A1]+, [A0]+
000044CC  51C8 FFFC                dbf        D0, -0x6 /* 000044CA */
000044D0  4267                     clr.w      -[A7]
000044D2  3EB8 0BAA                move.w     [A7], [0x00000BAA /* MBarHeight */]
000044D6  301F                     move.w     D0, [A7]+
000044D8  D16E FFF4                add.w      [A6 - 0xC], D0
label000044DC:
000044DC  2053                     movea.l    A0, [A3]
000044DE  49D0                     lea.l      A4, [A0]
000044E0  302E FFFA                move.w     D0, [A6 - 0x6]
000044E4  906E FFF6                sub.w      D0, [A6 - 0xA]
000044E8  322C 0006                move.w     D1, [A4 + 0x6]
000044EC  926C 0002                sub.w      D1, [A4 + 0x2]
000044F0  9041                     sub.w      D0, D1
000044F2  48C0                     ext.l      D0
000044F4  81FC 0002                divs.w     D0, 0x2
000044F8  322E FFF6                move.w     D1, [A6 - 0xA]
000044FC  D240                     add.w      D1, D0
000044FE  2046                     movea.l    A0, D6
00004500  3141 0002                move.w     [A0 + 0x2], D1
00004504  302E FFF8                move.w     D0, [A6 - 0x8]
00004508  906E FFF4                sub.w      D0, [A6 - 0xC]
0000450C  322C 0004                move.w     D1, [A4 + 0x4]
00004510  9254                     sub.w      D1, [A4]
00004512  9041                     sub.w      D0, D1
00004514  48C0                     ext.l      D0
00004516  81FC 0003                divs.w     D0, 0x3
0000451A  322E FFF4                move.w     D1, [A6 - 0xC]
0000451E  D240                     add.w      D1, D0
00004520  2046                     movea.l    A0, D6
00004522  3081                     move.w     [A0], D1
00004524  6006                     bra        +0x8 /* 0000452C */
label00004526:
00004526  2046                     movea.l    A0, D6
00004528  7000                     moveq.l    D0, 0x00
0000452A  2080                     move.l     [A0], D0
label0000452C:
0000452C  2D4B 000E                move.l     [A6 + 0xE], A3
00004530  4CDF 18C0                movem.l    D6,D7,A3,A4, [A7]+
00004534  4E5E                     unlink     A6
00004536  205F                     movea.l    A0, [A7]+
00004538  5C4F                     addq.w     A7, 6
0000453A  4ED0                     jmp        [A0]
export_50:
fn0000453C:
0000453C  4E56 0000                link       A6, 0
00004540  302E 0008                move.w     D0, [A6 + 0x8]
00004544  B06D F93C                cmp.w      D0, [A5 - 0x6C4]
00004548  57C0                     seq        D0
0000454A  4A00                     tst.b      D0
0000454C  6620                     bne        +0x22 /* 0000456E */
0000454E  2F00                     move.l     -[A7], D0
00004550  4267                     clr.w      -[A7]
00004552  4EBA 1704                jsr        [PC + 0x1704 /* 00005C58 */]
00004556  321F                     move.w     D1, [A7]+
00004558  201F                     move.l     D0, [A7]+
0000455A  B26E 0008                cmp.w      D1, [A6 + 0x8]
0000455E  57C1                     seq        D1
00004560  8001                     or.b       D0, D1
00004562  660A                     bne        +0xC /* 0000456E */
00004564  4A6E 0008                tst.w      [A6 + 0x8]
00004568  57C1                     seq        D1
0000456A  8001                     or.b       D0, D1
0000456C  6708                     beq        +0xA /* 00004576 */
label0000456E:
0000456E  1D7C 0001 000A           move.b     [A6 + 0xA], 0x1
00004574  6004                     bra        +0x6 /* 0000457A */
label00004576:
00004576  422E 000A                clr.b      [A6 + 0xA]
label0000457A:
0000457A  4E5E                     unlink     A6
0000457C  205F                     movea.l    A0, [A7]+
0000457E  544F                     addq.w     A7, 2
00004580  4ED0                     jmp        [A0]
export_51:
00004582  4E56 FFFC                link       A6, -0x0004
00004586  2F0C                     move.l     -[A7], A4
00004588  7000                     moveq.l    D0, 0x00
0000458A  2D40 000A                move.l     [A6 + 0xA], D0
0000458E  42A7                     clr.l      -[A7]
00004590  A924                     syscall    FrontWindow
00004592  285F                     movea.l    A4, [A7]+
label00004594:
00004594  200C                     move.l     D0, A4
00004596  6740                     beq        +0x42 /* 000045D8 */
00004598  0C6C 0080 006C           cmpi.w     [A4 + 0x6C], 0x80
0000459E  5CC0                     sge        D0
000045A0  4A00                     tst.b      D0
000045A2  672E                     beq        +0x30 /* 000045D2 */
000045A4  4AAC 0098                tst.l      [A4 + 0x98]
000045A8  56C1                     sne        D1
000045AA  C001                     and.b      D0, D1
000045AC  6724                     beq        +0x26 /* 000045D2 */
000045AE  206C 0098                movea.l    A0, [A4 + 0x98]
000045B2  2050                     movea.l    A0, [A0]
000045B4  3228 0110                move.w     D1, [A0 + 0x110]
000045B8  B26E 0008                cmp.w      D1, [A6 + 0x8]
000045BC  57C1                     seq        D1
000045BE  C001                     and.b      D0, D1
000045C0  6710                     beq        +0x12 /* 000045D2 */
000045C2  42A7                     clr.l      -[A7]
000045C4  2F2C 0098                move.l     -[A7], [A4 + 0x98]
000045C8  4EBA 0018                jsr        [PC + 0x18 /* 000045E2 */]
000045CC  2D5F 000A                move.l     [A6 + 0xA], [A7]+
000045D0  6006                     bra        +0x8 /* 000045D8 */
label000045D2:
000045D2  286C 0090                movea.l    A4, [A4 + 0x90]
000045D6  60BC                     bra        -0x42 /* 00004594 */
label000045D8:
000045D8  285F                     movea.l    A4, [A7]+
000045DA  4E5E                     unlink     A6
000045DC  205F                     movea.l    A0, [A7]+
000045DE  544F                     addq.w     A7, 2
000045E0  4ED0                     jmp        [A0]
export_52:
fn000045E2:
000045E2  4E56 0000                link       A6, 0
000045E6  2F0C                     move.l     -[A7], A4
000045E8  286E 0008                movea.l    A4, [A6 + 0x8]
000045EC  2D7C 0000 3039 000C      move.l     [A6 + 0xC], 0x3039 /* '09' */
000045F4  B9FC 0000 3039           cmpa.l     A4, 0x3039 /* '09' */
000045FA  6758                     beq        +0x5A /* 00004654 */
label000045FC:
000045FC  200C                     move.l     D0, A4
000045FE  56C0                     sne        D0
00004600  4A00                     tst.b      D0
00004602  6726                     beq        +0x28 /* 0000462A */
00004604  2054                     movea.l    A0, [A4]
00004606  2068 0104                movea.l    A0, [A0 + 0x104]
0000460A  0C68 2711 006C           cmpi.w     [A0 + 0x6C], 0x2711
00004610  56C1                     sne        D1
00004612  C001                     and.b      D0, D1
00004614  6714                     beq        +0x16 /* 0000462A */
00004616  2054                     movea.l    A0, [A4]
00004618  0C90 0000 3039           cmpi.l     [A0], 0x3039 /* '09' */
0000461E  56C1                     sne        D1
00004620  C001                     and.b      D0, D1
00004622  6706                     beq        +0x8 /* 0000462A */
00004624  2054                     movea.l    A0, [A4]
00004626  2850                     movea.l    A4, [A0]
00004628  60D2                     bra        -0x2C /* 000045FC */
label0000462A:
0000462A  200C                     move.l     D0, A4
0000462C  56C0                     sne        D0
0000462E  4A00                     tst.b      D0
00004630  6722                     beq        +0x24 /* 00004654 */
00004632  B9FC 0000 3039           cmpa.l     A4, 0x3039 /* '09' */
00004638  56C1                     sne        D1
0000463A  C001                     and.b      D0, D1
0000463C  6716                     beq        +0x18 /* 00004654 */
0000463E  2054                     movea.l    A0, [A4]
00004640  2068 0104                movea.l    A0, [A0 + 0x104]
00004644  0C68 2711 006C           cmpi.w     [A0 + 0x6C], 0x2711
0000464A  57C1                     seq        D1
0000464C  C001                     and.b      D0, D1
0000464E  6704                     beq        +0x6 /* 00004654 */
00004650  2D4C 000C                move.l     [A6 + 0xC], A4
label00004654:
00004654  285F                     movea.l    A4, [A7]+
00004656  4E5E                     unlink     A6
00004658  2E9F                     move.l     [A7], [A7]+
0000465A  4E75                     rts
export_53:
0000465C  4E56 FFFC                link       A6, -0x0004
00004660  2F0C                     move.l     -[A7], A4
00004662  42A7                     clr.l      -[A7]
00004664  4EBA D752                jsr        [PC - 0x28AE /* 00001DB8 */]
00004668  285F                     movea.l    A4, [A7]+
label0000466A:
0000466A  200C                     move.l     D0, A4
0000466C  675A                     beq        +0x5C /* 000046C8 */
0000466E  0C6C 0080 006C           cmpi.w     [A4 + 0x6C], 0x80
00004674  6D4C                     blt        +0x4E /* 000046C2 */
00004676  206C 0098                movea.l    A0, [A4 + 0x98]
0000467A  2050                     movea.l    A0, [A0]
0000467C  7001                     moveq.l    D0, 0x01
0000467E  B028 010A                cmp.b      D0, [A0 + 0x10A]
00004682  57C0                     seq        D0
00004684  4A00                     tst.b      D0
00004686  673A                     beq        +0x3C /* 000046C2 */
00004688  206C 0098                movea.l    A0, [A4 + 0x98]
0000468C  2050                     movea.l    A0, [A0]
0000468E  222E 000C                move.l     D1, [A6 + 0xC]
00004692  B2A8 010C                cmp.l      D1, [A0 + 0x10C]
00004696  57C1                     seq        D1
00004698  C001                     and.b      D0, D1
0000469A  6726                     beq        +0x28 /* 000046C2 */
0000469C  206C 0098                movea.l    A0, [A4 + 0x98]
000046A0  2050                     movea.l    A0, [A0]
000046A2  226E 0008                movea.l    A1, [A6 + 0x8]
000046A6  2251                     movea.l    A1, [A1]
000046A8  3228 0110                move.w     D1, [A0 + 0x110]
000046AC  B269 0110                cmp.w      D1, [A1 + 0x110]
000046B0  57C1                     seq        D1
000046B2  C001                     and.b      D0, D1
000046B4  670C                     beq        +0xE /* 000046C2 */
000046B6  206C 0098                movea.l    A0, [A4 + 0x98]
000046BA  2050                     movea.l    A0, [A0]
000046BC  117C 0001 0108           move.b     [A0 + 0x108], 0x1
label000046C2:
000046C2  286C 0090                movea.l    A4, [A4 + 0x90]
000046C6  60A2                     bra        -0x5C /* 0000466A */
label000046C8:
000046C8  285F                     movea.l    A4, [A7]+
000046CA  4E5E                     unlink     A6
000046CC  205F                     movea.l    A0, [A7]+
000046CE  504F                     addq.w     A7, 8
000046D0  4ED0                     jmp        [A0]
export_54:
000046D2  4E56 FFF2                link       A6, -0x000E
000046D6  2F2E 000A                move.l     -[A7], [A6 + 0xA]
000046DA  3F2E 0008                move.w     -[A7], [A6 + 0x8]
000046DE  486E FFFA                pea.l      [A6 - 0x6]
000046E2  486E FFFC                pea.l      [A6 - 0x4]
000046E6  486E FFF2                pea.l      [A6 - 0xE]
000046EA  A98D                     syscall    GetDialogItem/GetDItem
000046EC  486D FC3C                pea.l      [A5 - 0x3C4]
000046F0  A89D                     syscall    PenPat
000046F2  486E FFF2                pea.l      [A6 - 0xE]
000046F6  A8A1                     syscall    FrameRect
000046F8  A89E                     syscall    PenNormal
000046FA  4E5E                     unlink     A6
000046FC  205F                     movea.l    A0, [A7]+
000046FE  5C4F                     addq.w     A7, 6
00004700  4ED0                     jmp        [A0]
fn00004702:
00004702  4E56 FEFC                link       A6, -0x0104
00004706  3F3C 0001                move.w     -[A7], 0x1
0000470A  487A 015C                pea.l      [PC + 0x15C /* 00004868, value 0x9456469 '\tEdi', pstring "Edit menu" */]
0000470E  486E FF00                pea.l      [A6 - 0x100]
00004712  4EBA 15C6                jsr        [PC + 0x15C6 /* 00005CDA */]
00004716  2F2D F7B4                move.l     -[A7], [A5 - 0x84C]
0000471A  3F3C 0001                move.w     -[A7], 0x1
0000471E  486E FF00                pea.l      [A6 - 0x100]
00004722  A947                     syscall    SetMenuItemText/SetItem
00004724  3F3C 0002                move.w     -[A7], 0x2
00004728  487A 013E                pea.l      [PC + 0x13E /* 00004868, value 0x9456469 '\tEdi', pstring "Edit menu" */]
0000472C  486E FF00                pea.l      [A6 - 0x100]
00004730  4EBA 15A8                jsr        [PC + 0x15A8 /* 00005CDA */]
00004734  2F2D F7B4                move.l     -[A7], [A5 - 0x84C]
00004738  3F3C 0003                move.w     -[A7], 0x3
0000473C  486E FF00                pea.l      [A6 - 0x100]
00004740  A947                     syscall    SetMenuItemText/SetItem
00004742  3F3C 0003                move.w     -[A7], 0x3
00004746  487A 0120                pea.l      [PC + 0x120 /* 00004868, value 0x9456469 '\tEdi', pstring "Edit menu" */]
0000474A  486E FF00                pea.l      [A6 - 0x100]
0000474E  4EBA 158A                jsr        [PC + 0x158A /* 00005CDA */]
00004752  2F2D F7B4                move.l     -[A7], [A5 - 0x84C]
00004756  3F3C 0004                move.w     -[A7], 0x4
0000475A  486E FF00                pea.l      [A6 - 0x100]
0000475E  A947                     syscall    SetMenuItemText/SetItem
00004760  3F3C 0004                move.w     -[A7], 0x4
00004764  487A 0102                pea.l      [PC + 0x102 /* 00004868, value 0x9456469 '\tEdi', pstring "Edit menu" */]
00004768  486E FF00                pea.l      [A6 - 0x100]
0000476C  4EBA 156C                jsr        [PC + 0x156C /* 00005CDA */]
00004770  2F2D F7B4                move.l     -[A7], [A5 - 0x84C]
00004774  3F3C 0005                move.w     -[A7], 0x5
00004778  486E FF00                pea.l      [A6 - 0x100]
0000477C  A947                     syscall    SetMenuItemText/SetItem
0000477E  3F3C 0005                move.w     -[A7], 0x5
00004782  487A 00E4                pea.l      [PC + 0xE4 /* 00004868, value 0x9456469 '\tEdi', pstring "Edit menu" */]
00004786  486E FF00                pea.l      [A6 - 0x100]
0000478A  4EBA 154E                jsr        [PC + 0x154E /* 00005CDA */]
0000478E  2F2D F7B4                move.l     -[A7], [A5 - 0x84C]
00004792  3F3C 0006                move.w     -[A7], 0x6
00004796  486E FF00                pea.l      [A6 - 0x100]
0000479A  A947                     syscall    SetMenuItemText/SetItem
0000479C  3F3C 0006                move.w     -[A7], 0x6
000047A0  487A 00C6                pea.l      [PC + 0xC6 /* 00004868, value 0x9456469 '\tEdi', pstring "Edit menu" */]
000047A4  486E FF00                pea.l      [A6 - 0x100]
000047A8  4EBA 1530                jsr        [PC + 0x1530 /* 00005CDA */]
000047AC  2F2D F7B4                move.l     -[A7], [A5 - 0x84C]
000047B0  3F3C 0008                move.w     -[A7], 0x8
000047B4  486E FF00                pea.l      [A6 - 0x100]
000047B8  A947                     syscall    SetMenuItemText/SetItem
000047BA  3F3C 0001                move.w     -[A7], 0x1
000047BE  487A 009A                pea.l      [PC + 0x9A /* 0000485A, value 0xD526573 '\rRes', pstring "Resource menu" */]
000047C2  486E FF00                pea.l      [A6 - 0x100]
000047C6  4EBA 1512                jsr        [PC + 0x1512 /* 00005CDA */]
000047CA  2F2D F7B0                move.l     -[A7], [A5 - 0x850]
000047CE  3F3C 0001                move.w     -[A7], 0x1
000047D2  486E FF00                pea.l      [A6 - 0x100]
000047D6  A947                     syscall    SetMenuItemText/SetItem
000047D8  3F3C 0005                move.w     -[A7], 0x5
000047DC  487A 007C                pea.l      [PC + 0x7C /* 0000485A, value 0xD526573 '\rRes', pstring "Resource menu" */]
000047E0  486E FF00                pea.l      [A6 - 0x100]
000047E4  4EBA 14F4                jsr        [PC + 0x14F4 /* 00005CDA */]
000047E8  2F2D F7B0                move.l     -[A7], [A5 - 0x850]
000047EC  3F3C 0002                move.w     -[A7], 0x2
000047F0  486E FF00                pea.l      [A6 - 0x100]
000047F4  A947                     syscall    SetMenuItemText/SetItem
000047F6  3F3C 0012                move.w     -[A7], 0x12
000047FA  487A 005E                pea.l      [PC + 0x5E /* 0000485A, value 0xD526573 '\rRes', pstring "Resource menu" */]
000047FE  486E FF00                pea.l      [A6 - 0x100]
00004802  4EBA 14D6                jsr        [PC + 0x14D6 /* 00005CDA */]
00004806  2F2D F7B0                move.l     -[A7], [A5 - 0x850]
0000480A  3F3C 0003                move.w     -[A7], 0x3
0000480E  486E FF00                pea.l      [A6 - 0x100]
00004812  A947                     syscall    SetMenuItemText/SetItem
00004814  3F3C 0007                move.w     -[A7], 0x7
00004818  487A 0040                pea.l      [PC + 0x40 /* 0000485A, value 0xD526573 '\rRes', pstring "Resource menu" */]
0000481C  486E FF00                pea.l      [A6 - 0x100]
00004820  4EBA 14B8                jsr        [PC + 0x14B8 /* 00005CDA */]
00004824  2F2D F7B0                move.l     -[A7], [A5 - 0x850]
00004828  3F3C 0004                move.w     -[A7], 0x4
0000482C  486E FF00                pea.l      [A6 - 0x100]
00004830  A947                     syscall    SetMenuItemText/SetItem
00004832  3F3C 000C                move.w     -[A7], 0xC
00004836  487A 0022                pea.l      [PC + 0x22 /* 0000485A, value 0xD526573 '\rRes', pstring "Resource menu" */]
0000483A  486E FF00                pea.l      [A6 - 0x100]
0000483E  4EBA 149A                jsr        [PC + 0x149A /* 00005CDA */]
00004842  2F2D F7B0                move.l     -[A7], [A5 - 0x850]
00004846  3F3C 0006                move.w     -[A7], 0x6
0000484A  486E FF00                pea.l      [A6 - 0x100]
0000484E  A947                     syscall    SetMenuItemText/SetItem
00004850  4267                     clr.w      -[A7]
00004852  4EBA B800                jsr        [PC - 0x4800 /* 00000054 */]
00004856  4E5E                     unlink     A6
00004858  4E75                     rts
0000485A  0D52                     bchg       [A2], D6
0000485C  6573                     bcs        +0x75 /* 000048D1 */
0000485E  6F75                     ble        +0x77 /* 000048D5 */
00004860  7263                     moveq.l    D1, 0x63
00004862  6520                     bcs        +0x22 /* 00004884 */
00004864  6D65                     blt        +0x67 /* 000048CB */
00004866  6E75                     bgt        +0x77 /* 000048DD */
00004868  0945                     bchg       D5, D4
0000486A  6469                     bcc        +0x6B /* 000048D5 */
0000486C  7420                     moveq.l    D2, 0x20
0000486E  6D65                     blt        +0x67 /* 000048D5 */
00004870  6E75                     bgt        +0x77 /* 000048E7 */
fn00004872:
00004872  4E56 FEA8                link       A6, -0x0158
00004876  48E7 0708                movem.l    -[A7], D5,D6,D7,A4
0000487A  206D F9A4                movea.l    A0, [A5 - 0x65C]
0000487E  2050                     movea.l    A0, [A0]
00004880  302E 0008                move.w     D0, [A6 + 0x8]
label00004884:
00004884  B050                     cmp.w      D0, [A0]
00004886  6F08                     ble        +0xA /* 00004890 */
00004888  4EAD 0E3A                jsr        [A5 + 0xE3A /* export_451, CODE:19 @ 00001640 */]
0000488C  6000 00EC                bra        +0xEE /* 0000497A */
label00004890:
00004890  3E2E 0008                move.w     D7, [A6 + 0x8]
00004894  2F2D F9A4                move.l     -[A7], [A5 - 0x65C]
00004898  205F                     movea.l    A0, [A7]+
0000489A  A029                     syscall    HLock
0000489C  206D F9A4                movea.l    A0, [A5 - 0x65C]
000048A0  2850                     movea.l    A4, [A0]
000048A2  4267                     clr.w      -[A7]
000048A4  3007                     move.w     D0, D7
000048A6  C1FC 008C                muls.w     D0, 0x8C
000048AA  41EC FF7A                lea.l      A0, [A4 - 0x86]
000048AE  4870 0000                pea.l      [A0 + D0.w]
000048B2  4EAD 0E2A                jsr        [A5 + 0xE2A /* export_449, CODE:19 @ 0000092A */]
000048B6  3C1F                     move.w     D6, [A7]+
000048B8  6612                     bne        +0x14 /* 000048CC */
000048BA  2F3C FFDD 0000           move.l     -[A7], 0xFFDD0000
000048C0  4267                     clr.w      -[A7]
000048C2  4EBA E650                jsr        [PC - 0x19B0 /* 00002F14 */]
000048C6  1A1F                     move.b     D5, [A7]+
000048C8  6000 00A8                bra        +0xAA /* 00004972 */
label000048CC:
000048CC  4267                     clr.w      -[A7]
000048CE  3F06                     move.w     -[A7], D6
000048D0  3007                     move.w     D0, D7
000048D2  C1FC 008C                muls.w     D0, 0x8C
000048D6  2F34 00BC                move.l     -[A7], [A4 + D0.w - 0x44]
000048DA  2F3C 5253 4544           move.l     -[A7], 0x52534544 /* 'RSED' */
000048E0  486E FFFC                pea.l      [A6 - 0x4]
000048E4  4EAD 06AA                jsr        [A5 + 0x6AA /* export_209, CODE:3 @ 00002E1A */]
000048E8  3B5F F9A2                move.w     [A5 - 0x65E], [A7]+
000048EC  4267                     clr.w      -[A7]
000048EE  3F2D F9A2                move.w     -[A7], [A5 - 0x65E]
000048F2  3F3C 0036                move.w     -[A7], 0x36 /* '6' */
000048F6  4EBA E61C                jsr        [PC - 0x19E4 /* 00002F14 */]
000048FA  101F                     move.b     D0, [A7]+
000048FC  6774                     beq        +0x76 /* 00004972 */
000048FE  3007                     move.w     D0, D7
00004900  C1FC 008C                muls.w     D0, 0x8C
00004904  41EE FEF8                lea.l      A0, [A6 - 0x108]
00004908  43F4 00C4                lea.l      A1, [A4 + D0.w - 0x3C]
0000490C  7020                     moveq.l    D0, 0x20
label0000490E:
0000490E  30D9                     move.w     [A0]+, [A1]+
00004910  51C8 FFFC                dbf        D0, -0x6 /* 0000490E */
00004914  7000                     moveq.l    D0, 0x00
00004916  2D40 FEB4                move.l     [A6 - 0x14C], D0
0000491A  41EE FEF8                lea.l      A0, [A6 - 0x108]
0000491E  2D48 FEBA                move.l     [A6 - 0x146], A0
00004922  3D6E FFFC FEBE           move.w     [A6 - 0x142], [A6 - 0x4]
00004928  422E FEC2                clr.b      [A6 - 0x13E]
0000492C  426E FEC4                clr.w      [A6 - 0x13C]
00004930  4267                     clr.w      -[A7]
00004932  486E FEA8                pea.l      [A6 - 0x158]
00004936  4267                     clr.w      -[A7]
00004938  4EAD 0572                jsr        [A5 + 0x572 /* export_170, CODE:3 @ 000025FA */]
0000493C  3B5F F9A2                move.w     [A5 - 0x65E], [A7]+
00004940  4267                     clr.w      -[A7]
00004942  3F2D F9A2                move.w     -[A7], [A5 - 0x65E]
00004946  4267                     clr.w      -[A7]
00004948  4EBA E5CA                jsr        [PC - 0x1A36 /* 00002F14 */]
0000494C  101F                     move.b     D0, [A7]+
0000494E  671A                     beq        +0x1C /* 0000496A */
00004950  1B7C 0001 F977           move.b     [A5 - 0x689], 0x1
00004956  4267                     clr.w      -[A7]
00004958  486E FEF8                pea.l      [A6 - 0x108]
0000495C  3F2E FFFC                move.w     -[A7], [A6 - 0x4]
00004960  4EBA B8F8                jsr        [PC - 0x4708 /* 0000025A */]
00004964  1A1F                     move.b     D5, [A7]+
00004966  422D F977                clr.b      [A5 - 0x689]
label0000496A:
0000496A  3F2E FFFC                move.w     -[A7], [A6 - 0x4]
0000496E  4EBA F23A                jsr        [PC - 0xDC6 /* 00003BAA */]
label00004972:
00004972  2F2D F9A4                move.l     -[A7], [A5 - 0x65C]
00004976  205F                     movea.l    A0, [A7]+
00004978  A02A                     syscall    HUnlock
label0000497A:
0000497A  4CDF 10E0                movem.l    D5,D6,D7,A4, [A7]+
0000497E  4E5E                     unlink     A6
00004980  205F                     movea.l    A0, [A7]+
00004982  544F                     addq.w     A7, 2
00004984  4ED0                     jmp        [A0]
export_55:
fn00004986:
00004986  4E56 FFFE                link       A6, -0x0002
0000498A  4A6D F7C6                tst.w      [A5 - 0x83A]
0000498E  56C0                     sne        D0
00004990  4A00                     tst.b      D0
00004992  6610                     bne        +0x12 /* 000049A4 */
00004994  122D F7D1                move.b     D1, [A5 - 0x82F]
00004998  0A01 0001                xori.b     D1, 0x1
0000499C  8001                     or.b       D0, D1
0000499E  0240 0001                andi.w     D0, 0x1
000049A2  6722                     beq        +0x24 /* 000049C6 */
label000049A4:
000049A4  422E 000A                clr.b      [A6 + 0xA]
000049A8  102E 0008                move.b     D0, [A6 + 0x8]
000049AC  671E                     beq        +0x20 /* 000049CC */
000049AE  4267                     clr.w      -[A7]
000049B0  1F3C 0001                move.b     -[A7], 0x1
000049B4  487A 001E                pea.l      [PC + 0x1E /* 000049D4, value 0x9416C65 '\tAle', pstring "Alert str" */]
000049B8  3F3C 0001                move.w     -[A7], 0x1
000049BC  4EBA E10C                jsr        [PC - 0x1EF4 /* 00002ACA */]
000049C0  1D5F FFFF                move.b     [A6 - 0x1], [A7]+
000049C4  6006                     bra        +0x8 /* 000049CC */
label000049C6:
000049C6  1D7C 0001 000A           move.b     [A6 + 0xA], 0x1
label000049CC:
000049CC  4E5E                     unlink     A6
000049CE  205F                     movea.l    A0, [A7]+
000049D0  544F                     addq.w     A7, 2
000049D2  4ED0                     jmp        [A0]
000049D4  0941                     bchg       D1, D4
000049D6  6C65                     bge        +0x67 /* 00004A3D */
000049D8  7274                     moveq.l    D1, 0x74
000049DA  2073 7472                movea.l    A0, [A3 + D7.w * 4 + 0x72]
fn000049DE:
000049DE  4E56 FFEE                link       A6, -0x0012
000049E2  48E7 0F18                movem.l    -[A7], D4,D5,D6,D7,A3,A4
000049E6  7000                     moveq.l    D0, 0x00
000049E8  2640                     movea.l    A3, D0
000049EA  7800                     moveq.l    D4, 0x00
000049EC  42A7                     clr.l      -[A7]
000049EE  AA29                     syscall    GetDeviceList
000049F0  285F                     movea.l    A4, [A7]+
000049F2  4246                     clr.w      D6
000049F4  4245                     clr.w      D5
label000049F6:
000049F6  200C                     move.l     D0, A4
000049F8  6700 00A4                beq        +0xA6 /* 00004A9E */
000049FC  4267                     clr.w      -[A7]
000049FE  2F0C                     move.l     -[A7], A4
00004A00  3F3C 000D                move.w     -[A7], 0xD /* '\r' */
00004A04  AA2C                     syscall    TestDeviceAttribute
00004A06  101F                     move.b     D0, [A7]+
00004A08  6700 0088                beq        +0x8A /* 00004A92 */
00004A0C  2F00                     move.l     -[A7], D0
00004A0E  4267                     clr.w      -[A7]
00004A10  2F0C                     move.l     -[A7], A4
00004A12  3F3C 000F                move.w     -[A7], 0xF
00004A16  AA2C                     syscall    TestDeviceAttribute
00004A18  121F                     move.b     D1, [A7]+
00004A1A  201F                     move.l     D0, [A7]+
00004A1C  C001                     and.b      D0, D1
00004A1E  6772                     beq        +0x74 /* 00004A92 */
00004A20  2054                     movea.l    A0, [A4]
00004A22  2068 0016                movea.l    A0, [A0 + 0x16]
00004A26  2050                     movea.l    A0, [A0]
00004A28  3E28 0020                move.w     D7, [A0 + 0x20]
00004A2C  4267                     clr.w      -[A7]
00004A2E  2F0C                     move.l     -[A7], A4
00004A30  4267                     clr.w      -[A7]
00004A32  AA2C                     syscall    TestDeviceAttribute
00004A34  101F                     move.b     D0, [A7]+
00004A36  672E                     beq        +0x30 /* 00004A66 */
00004A38  BC47                     cmp.w      D6, D7
00004A3A  5DC0                     slt        D0
00004A3C  4A00                     tst.b      D0
00004A3E  6620                     bne        +0x22 /* 00004A60 */
00004A40  BC47                     cmp.w      D6, D7
00004A42  57C1                     seq        D1
00004A44  4A01                     tst.b      D1
00004A46  674A                     beq        +0x4C /* 00004A92 */
00004A48  48E7 C000                movem.l    -[A7], D0,D1
00004A4C  42A7                     clr.l      -[A7]
00004A4E  AA2A                     syscall    GetMainDevice
00004A50  241F                     move.l     D2, [A7]+
00004A52  4CDF 0003                movem.l    D0,D1, [A7]+
00004A56  B48C                     cmp.l      D2, A4
00004A58  57C2                     seq        D2
00004A5A  C202                     and.b      D1, D2
00004A5C  8001                     or.b       D0, D1
00004A5E  6732                     beq        +0x34 /* 00004A92 */
label00004A60:
00004A60  3C07                     move.w     D6, D7
00004A62  264C                     movea.l    A3, A4
00004A64  602C                     bra        +0x2E /* 00004A92 */
label00004A66:
00004A66  BA47                     cmp.w      D5, D7
00004A68  5DC0                     slt        D0
00004A6A  4A00                     tst.b      D0
00004A6C  6620                     bne        +0x22 /* 00004A8E */
00004A6E  BA47                     cmp.w      D5, D7
00004A70  57C1                     seq        D1
00004A72  4A01                     tst.b      D1
00004A74  671C                     beq        +0x1E /* 00004A92 */
00004A76  48E7 C000                movem.l    -[A7], D0,D1
00004A7A  42A7                     clr.l      -[A7]
00004A7C  AA2A                     syscall    GetMainDevice
00004A7E  241F                     move.l     D2, [A7]+
00004A80  4CDF 0003                movem.l    D0,D1, [A7]+
00004A84  B48C                     cmp.l      D2, A4
00004A86  57C2                     seq        D2
00004A88  C202                     and.b      D1, D2
00004A8A  8001                     or.b       D0, D1
00004A8C  6704                     beq        +0x6 /* 00004A92 */
label00004A8E:
00004A8E  3A07                     move.w     D5, D7
00004A90  280C                     move.l     D4, A4
label00004A92:
00004A92  42A7                     clr.l      -[A7]
00004A94  2F0C                     move.l     -[A7], A4
00004A96  AA2B                     syscall    GetNextDevice
00004A98  285F                     movea.l    A4, [A7]+
00004A9A  6000 FF5A                bra        -0xA4 /* 000049F6 */
label00004A9E:
00004A9E  BA46                     cmp.w      D5, D6
00004AA0  6E06                     bgt        +0x8 /* 00004AA8 */
00004AA2  2D4B 0008                move.l     [A6 + 0x8], A3
00004AA6  6004                     bra        +0x6 /* 00004AAC */
label00004AA8:
00004AA8  2D44 0008                move.l     [A6 + 0x8], D4
label00004AAC:
00004AAC  4CDF 18F0                movem.l    D4,D5,D6,D7,A3,A4, [A7]+
00004AB0  4E5E                     unlink     A6
00004AB2  4E75                     rts
fn00004AB4:
00004AB4  4E56 FFE0                link       A6, -0x0020
00004AB8  48E7 0F18                movem.l    -[A7], D4,D5,D6,D7,A3,A4
00004ABC  7E01                     moveq.l    D7, 0x01
00004ABE  4206                     clr.b      D6
00004AC0  4AAE 000C                tst.l      [A6 + 0xC]
00004AC4  57C0                     seq        D0
00004AC6  0CAE 0000 3039 000C      cmpi.l     [A6 + 0xC], 0x3039 /* '09' */
00004ACE  57C1                     seq        D1
00004AD0  8001                     or.b       D0, D1
00004AD2  5200                     addq.b     D0, 1
00004AD4  1A00                     move.b     D5, D0
00004AD6  102D F7D1                move.b     D0, [A5 - 0x82F]
00004ADA  6700 00D8                beq        +0xDA /* 00004BB4 */
00004ADE  1005                     move.b     D0, D5
00004AE0  6726                     beq        +0x28 /* 00004B08 */
00004AE2  486E FFF4                pea.l      [A6 - 0xC]
00004AE6  A874                     syscall    GetPort
00004AE8  206E 000C                movea.l    A0, [A6 + 0xC]
00004AEC  2050                     movea.l    A0, [A0]
00004AEE  2F28 0104                move.l     -[A7], [A0 + 0x104]
00004AF2  A873                     syscall    SetPort
00004AF4  4267                     clr.w      -[A7]
00004AF6  486E FFE8                pea.l      [A6 - 0x18]
00004AFA  4EBA F59C                jsr        [PC - 0xA64 /* 00004098 */]
00004AFE  1D5F FFF1                move.b     [A6 - 0xF], [A7]+
00004B02  2F2E FFF4                move.l     -[A7], [A6 - 0xC]
00004B06  A873                     syscall    SetPort
label00004B08:
00004B08  102E 0014                move.b     D0, [A6 + 0x14]
00004B0C  6748                     beq        +0x4A /* 00004B56 */
00004B0E  42A7                     clr.l      -[A7]
00004B10  4EBA FECC                jsr        [PC - 0x134 /* 000049DE */]
00004B14  265F                     movea.l    A3, [A7]+
00004B16  2053                     movea.l    A0, [A3]
00004B18  226E 0008                movea.l    A1, [A6 + 0x8]
00004B1C  41E8 0022                lea.l      A0, [A0 + 0x22]
00004B20  7003                     moveq.l    D0, 0x03
label00004B22:
00004B22  32D8                     move.w     [A1]+, [A0]+
00004B24  51C8 FFFC                dbf        D0, -0x6 /* 00004B22 */
00004B28  42A7                     clr.l      -[A7]
00004B2A  AA2A                     syscall    GetMainDevice
00004B2C  B7DF                     cmpa.l     A3, [A7]+
00004B2E  6614                     bne        +0x16 /* 00004B44 */
00004B30  7C01                     moveq.l    D6, 0x01
00004B32  206E 0008                movea.l    A0, [A6 + 0x8]
00004B36  2F08                     move.l     -[A7], A0
00004B38  4267                     clr.w      -[A7]
00004B3A  3EB8 0BAA                move.w     [A7], [0x00000BAA /* MBarHeight */]
00004B3E  301F                     move.w     D0, [A7]+
00004B40  205F                     movea.l    A0, [A7]+
00004B42  D150                     add.w      [A0], D0
label00004B44:
00004B44  4267                     clr.w      -[A7]
00004B46  2F2E 0008                move.l     -[A7], [A6 + 0x8]
00004B4A  486E FFE8                pea.l      [A6 - 0x18]
00004B4E  A8A6                     syscall    EqualRect
00004B50  1E1F                     move.b     D7, [A7]+
00004B52  6000 0092                bra        +0x94 /* 00004BE6 */
label00004B56:
00004B56  1005                     move.b     D0, D5
00004B58  6728                     beq        +0x2A /* 00004B82 */
00004B5A  206E 0008                movea.l    A0, [A6 + 0x8]
00004B5E  43EE FFE8                lea.l      A1, [A6 - 0x18]
00004B62  7003                     moveq.l    D0, 0x03
label00004B64:
00004B64  30D9                     move.w     [A0]+, [A1]+
00004B66  51C8 FFFC                dbf        D0, -0x6 /* 00004B64 */
00004B6A  7E01                     moveq.l    D7, 0x01
00004B6C  42A7                     clr.l      -[A7]
00004B6E  2F2E 0008                move.l     -[A7], [A6 + 0x8]
00004B72  AA27                     syscall    GetMaxDevice
00004B74  42A7                     clr.l      -[A7]
00004B76  AA2A                     syscall    GetMainDevice
00004B78  201F                     move.l     D0, [A7]+
00004B7A  B09F                     cmp.l      D0, [A7]+
00004B7C  6668                     bne        +0x6A /* 00004BE6 */
00004B7E  7C01                     moveq.l    D6, 0x01
00004B80  6064                     bra        +0x66 /* 00004BE6 */
label00004B82:
00004B82  42A7                     clr.l      -[A7]
00004B84  AA2A                     syscall    GetMainDevice
00004B86  281F                     move.l     D4, [A7]+
00004B88  2044                     movea.l    A0, D4
00004B8A  2050                     movea.l    A0, [A0]
00004B8C  226E 0008                movea.l    A1, [A6 + 0x8]
00004B90  41E8 0022                lea.l      A0, [A0 + 0x22]
00004B94  7003                     moveq.l    D0, 0x03
label00004B96:
00004B96  32D8                     move.w     [A1]+, [A0]+
00004B98  51C8 FFFC                dbf        D0, -0x6 /* 00004B96 */
00004B9C  206E 0008                movea.l    A0, [A6 + 0x8]
00004BA0  2F08                     move.l     -[A7], A0
00004BA2  4267                     clr.w      -[A7]
00004BA4  3EB8 0BAA                move.w     [A7], [0x00000BAA /* MBarHeight */]
00004BA8  301F                     move.w     D0, [A7]+
00004BAA  205F                     movea.l    A0, [A7]+
00004BAC  D150                     add.w      [A0], D0
00004BAE  4207                     clr.b      D7
00004BB0  7C01                     moveq.l    D6, 0x01
00004BB2  6032                     bra        +0x34 /* 00004BE6 */
label00004BB4:
00004BB4  206E 0008                movea.l    A0, [A6 + 0x8]
00004BB8  2F08                     move.l     -[A7], A0
00004BBA  486E FFE0                pea.l      [A6 - 0x20]
00004BBE  4EBA EF2C                jsr        [PC - 0x10D4 /* 00003AEC */]
00004BC2  201F                     move.l     D0, [A7]+
00004BC4  205F                     movea.l    A0, [A7]+
00004BC6  2240                     movea.l    A1, D0
00004BC8  7003                     moveq.l    D0, 0x03
label00004BCA:
00004BCA  30D9                     move.w     [A0]+, [A1]+
00004BCC  51C8 FFFC                dbf        D0, -0x6 /* 00004BCA */
00004BD0  206E 0008                movea.l    A0, [A6 + 0x8]
00004BD4  2F08                     move.l     -[A7], A0
00004BD6  4267                     clr.w      -[A7]
00004BD8  3EB8 0BAA                move.w     [A7], [0x00000BAA /* MBarHeight */]
00004BDC  301F                     move.w     D0, [A7]+
00004BDE  205F                     movea.l    A0, [A7]+
00004BE0  D150                     add.w      [A0], D0
00004BE2  1E05                     move.b     D7, D5
00004BE4  7C01                     moveq.l    D6, 0x01
label00004BE6:
00004BE6  1006                     move.b     D0, D6
00004BE8  672E                     beq        +0x30 /* 00004C18 */
00004BEA  286E 0008                movea.l    A4, [A6 + 0x8]
00004BEE  302C 0006                move.w     D0, [A4 + 0x6]
00004BF2  906C 0002                sub.w      D0, [A4 + 0x2]
00004BF6  0C40 0281                cmpi.w     D0, 0x281
00004BFA  6F08                     ble        +0xA /* 00004C04 */
00004BFC  046C 0038 0006           subi.w     [A4 + 0x6], 0x38 /* '8' */
00004C02  6014                     bra        +0x16 /* 00004C18 */
label00004C04:
00004C04  302C 0006                move.w     D0, [A4 + 0x6]
00004C08  906C 0002                sub.w      D0, [A4 + 0x2]
00004C0C  0C40 0258                cmpi.w     D0, 0x258
00004C10  6F06                     ble        +0x8 /* 00004C18 */
00004C12  046C 000A 0006           subi.w     [A4 + 0x6], 0xA /* '\n' */
label00004C18:
00004C18  1D47 0016                move.b     [A6 + 0x16], D7
00004C1C  4CDF 18F0                movem.l    D4,D5,D6,D7,A3,A4, [A7]+
00004C20  4E5E                     unlink     A6
00004C22  205F                     movea.l    A0, [A7]+
00004C24  DEFC 000E                add.w      A7, 0xE
00004C28  4ED0                     jmp        [A0]
fn00004C2A:
00004C2A  4E56 FFEE                link       A6, -0x0012
00004C2E  48E7 0118                movem.l    -[A7], D7,A3,A4
00004C32  286E 0008                movea.l    A4, [A6 + 0x8]
00004C36  206C 0014                movea.l    A0, [A4 + 0x14]
00004C3A  3028 0002                move.w     D0, [A0 + 0x2]
00004C3E  B06C FFFA                cmp.w      D0, [A4 - 0x6]
00004C42  6E06                     bgt        +0x8 /* 00004C4A */
00004C44  422E 000C                clr.b      [A6 + 0xC]
00004C48  606E                     bra        +0x70 /* 00004CB8 */
label00004C4A:
00004C4A  7E01                     moveq.l    D7, 0x01
00004C4C  486E FFF2                pea.l      [A6 - 0xE]
00004C50  206C 0014                movea.l    A0, [A4 + 0x14]
00004C54  3028 0002                move.w     D0, [A0 + 0x2]
00004C58  5140                     subq.w     D0, 8
00004C5A  3F00                     move.w     -[A7], D0
00004C5C  206C 0014                movea.l    A0, [A4 + 0x14]
00004C60  3010                     move.w     D0, [A0]
00004C62  5140                     subq.w     D0, 8
00004C64  3F00                     move.w     -[A7], D0
00004C66  206C 0014                movea.l    A0, [A4 + 0x14]
00004C6A  3028 0002                move.w     D0, [A0 + 0x2]
00004C6E  5040                     addq.w     D0, 8
00004C70  3F00                     move.w     -[A7], D0
00004C72  3010                     move.w     D0, [A0]
00004C74  5040                     addq.w     D0, 8
00004C76  3F00                     move.w     -[A7], D0
00004C78  A8A7                     syscall    SetRect
00004C7A  207C 0000 09D6           movea.l    A0, 0x9D6
00004C80  2650                     movea.l    A3, [A0]
label00004C82:
00004C82  200B                     move.l     D0, A3
00004C84  672E                     beq        +0x30 /* 00004CB4 */
00004C86  2D6B 0010 FFEE           move.l     [A6 - 0x12], [A3 + 0x10]
00004C8C  2F0B                     move.l     -[A7], A3
00004C8E  A873                     syscall    SetPort
00004C90  486E FFEE                pea.l      [A6 - 0x12]
00004C94  A870                     syscall    LocalToGlobal
00004C96  4267                     clr.w      -[A7]
00004C98  2F2E FFEE                move.l     -[A7], [A6 - 0x12]
00004C9C  486E FFF2                pea.l      [A6 - 0xE]
00004CA0  A8AD                     syscall    PtInRect
00004CA2  101F                     move.b     D0, [A7]+
00004CA4  6708                     beq        +0xA /* 00004CAE */
00004CA6  4207                     clr.b      D7
00004CA8  7000                     moveq.l    D0, 0x00
00004CAA  2640                     movea.l    A3, D0
00004CAC  60D4                     bra        -0x2A /* 00004C82 */
label00004CAE:
00004CAE  266B 0090                movea.l    A3, [A3 + 0x90]
00004CB2  60CE                     bra        -0x30 /* 00004C82 */
label00004CB4:
00004CB4  1D47 000C                move.b     [A6 + 0xC], D7
label00004CB8:
00004CB8  4CDF 1880                movem.l    D7,A3,A4, [A7]+
00004CBC  4E5E                     unlink     A6
00004CBE  2E9F                     move.l     [A7], [A7]+
00004CC0  4E75                     rts
fn00004CC2:
00004CC2  4E56 FFF0                link       A6, -0x0010
00004CC6  48E7 0F00                movem.l    -[A7], D4,D5,D6,D7
00004CCA  206E 0008                movea.l    A0, [A6 + 0x8]
00004CCE  43EE FFF8                lea.l      A1, [A6 - 0x8]
00004CD2  7003                     moveq.l    D0, 0x03
label00004CD4:
00004CD4  32D8                     move.w     [A1]+, [A0]+
00004CD6  51C8 FFFC                dbf        D0, -0x6 /* 00004CD4 */
00004CDA  3A2E 000C                move.w     D5, [A6 + 0xC]
00004CDE  3C2E 000E                move.w     D6, [A6 + 0xE]
00004CE2  486E FFF4                pea.l      [A6 - 0xC]
00004CE6  A874                     syscall    GetPort
00004CE8  4247                     clr.w      D7
00004CEA  4204                     clr.b      D4
label00004CEC:
00004CEC  4267                     clr.w      -[A7]
00004CEE  2F0E                     move.l     -[A7], A6
00004CF0  4EBA FF38                jsr        [PC - 0xC8 /* 00004C2A */]
00004CF4  101F                     move.b     D0, [A7]+
00004CF6  0A00 0001                xori.b     D0, 0x1
00004CFA  0C47 00C8                cmpi.w     D7, 0xC8
00004CFE  5DC1                     slt        D1
00004D00  C001                     and.b      D0, D1
00004D02  6700 0152                beq        +0x154 /* 00004E56 */
00004D06  206E 0014                movea.l    A0, [A6 + 0x14]
00004D0A  3006                     move.w     D0, D6
00004D0C  D168 0002                add.w      [A0 + 0x2], D0
00004D10  206E 0014                movea.l    A0, [A6 + 0x14]
00004D14  3005                     move.w     D0, D5
00004D16  D150                     add.w      [A0], D0
00004D18  206E 0014                movea.l    A0, [A6 + 0x14]
00004D1C  302E 0012                move.w     D0, [A6 + 0x12]
00004D20  D068 0002                add.w      D0, [A0 + 0x2]
00004D24  322E FFFE                move.w     D1, [A6 - 0x2]
00004D28  5B41                     subq.w     D1, 5
00004D2A  B240                     cmp.w      D1, D0
00004D2C  6C70                     bge        +0x72 /* 00004D9E */
00004D2E  4A45                     tst.w      D5
00004D30  665E                     bne        +0x60 /* 00004D90 */
00004D32  206E 0014                movea.l    A0, [A6 + 0x14]
00004D36  302E FFFC                move.w     D0, [A6 - 0x4]
00004D3A  906E FFF8                sub.w      D0, [A6 - 0x8]
00004D3E  48C0                     ext.l      D0
00004D40  81FC 0002                divs.w     D0, 0x2
00004D44  D150                     add.w      [A0], D0
00004D46  206E 0014                movea.l    A0, [A6 + 0x14]
00004D4A  3006                     move.w     D0, D6
00004D4C  E340                     asl        D0.w, 1
00004D4E  9168 0002                sub.w      [A0 + 0x2], D0
00004D52  206E 0014                movea.l    A0, [A6 + 0x14]
00004D56  3028 0002                move.w     D0, [A0 + 0x2]
00004D5A  B06E FFFA                cmp.w      D0, [A6 - 0x6]
00004D5E  6C06                     bge        +0x8 /* 00004D66 */
00004D60  3006                     move.w     D0, D6
00004D62  D168 0002                add.w      [A0 + 0x2], D0
label00004D66:
00004D66  206E 0014                movea.l    A0, [A6 + 0x14]
00004D6A  302E 0012                move.w     D0, [A6 + 0x12]
00004D6E  D068 0002                add.w      D0, [A0 + 0x2]
00004D72  322E FFFE                move.w     D1, [A6 - 0x2]
00004D76  5B41                     subq.w     D1, 5
00004D78  B240                     cmp.w      D1, D0
00004D7A  6C22                     bge        +0x24 /* 00004D9E */
00004D7C  7C14                     moveq.l    D6, 0x14
00004D7E  7A14                     moveq.l    D5, 0x14
00004D80  302E FFFA                move.w     D0, [A6 - 0x6]
00004D84  5A40                     addq.w     D0, 5
00004D86  206E 0014                movea.l    A0, [A6 + 0x14]
00004D8A  3140 0002                move.w     [A0 + 0x2], D0
00004D8E  600E                     bra        +0x10 /* 00004D9E */
label00004D90:
00004D90  302E FFFA                move.w     D0, [A6 - 0x6]
00004D94  5A40                     addq.w     D0, 5
00004D96  206E 0014                movea.l    A0, [A6 + 0x14]
00004D9A  3140 0002                move.w     [A0 + 0x2], D0
label00004D9E:
00004D9E  206E 0014                movea.l    A0, [A6 + 0x14]
00004DA2  302E 0010                move.w     D0, [A6 + 0x10]
00004DA6  D050                     add.w      D0, [A0]
00004DA8  322E FFFC                move.w     D1, [A6 - 0x4]
00004DAC  5B41                     subq.w     D1, 5
00004DAE  B240                     cmp.w      D1, D0
00004DB0  6C00 0088                bge        +0x8A /* 00004E3A */
00004DB4  4A45                     tst.w      D5
00004DB6  6672                     bne        +0x74 /* 00004E2A */
00004DB8  206E 0014                movea.l    A0, [A6 + 0x14]
00004DBC  0668 0014 0002           addi.w     [A0 + 0x2], 0x14
00004DC2  302E FFF8                move.w     D0, [A6 - 0x8]
00004DC6  5A40                     addq.w     D0, 5
00004DC8  D07C 0013                add.w      D0, 0x13
00004DCC  3080                     move.w     [A0], D0
00004DCE  206E 0014                movea.l    A0, [A6 + 0x14]
00004DD2  302E FFFC                move.w     D0, [A6 - 0x4]
00004DD6  906E FFF8                sub.w      D0, [A6 - 0x8]
00004DDA  3210                     move.w     D1, [A0]
00004DDC  9240                     sub.w      D1, D0
00004DDE  D27C 0014                add.w      D1, 0x14
00004DE2  206E 0014                movea.l    A0, [A6 + 0x14]
00004DE6  3081                     move.w     [A0], D1
00004DE8  206E 0014                movea.l    A0, [A6 + 0x14]
00004DEC  3010                     move.w     D0, [A0]
00004DEE  B06E FFF8                cmp.w      D0, [A6 - 0x8]
00004DF2  6C0C                     bge        +0xE /* 00004E00 */
00004DF4  302E FFF8                move.w     D0, [A6 - 0x8]
00004DF8  5A40                     addq.w     D0, 5
00004DFA  D07C 0013                add.w      D0, 0x13
00004DFE  3080                     move.w     [A0], D0
label00004E00:
00004E00  206E 0014                movea.l    A0, [A6 + 0x14]
00004E04  302E 0010                move.w     D0, [A6 + 0x10]
00004E08  D050                     add.w      D0, [A0]
00004E0A  322E FFFC                move.w     D1, [A6 - 0x4]
00004E0E  5B41                     subq.w     D1, 5
00004E10  B240                     cmp.w      D1, D0
00004E12  6C26                     bge        +0x28 /* 00004E3A */
00004E14  7C14                     moveq.l    D6, 0x14
00004E16  7A14                     moveq.l    D5, 0x14
00004E18  302E FFF8                move.w     D0, [A6 - 0x8]
00004E1C  5A40                     addq.w     D0, 5
00004E1E  D07C 0013                add.w      D0, 0x13
00004E22  206E 0014                movea.l    A0, [A6 + 0x14]
00004E26  3080                     move.w     [A0], D0
00004E28  6010                     bra        +0x12 /* 00004E3A */
label00004E2A:
00004E2A  302E FFF8                move.w     D0, [A6 - 0x8]
00004E2E  5A40                     addq.w     D0, 5
00004E30  D07C 0013                add.w      D0, 0x13
00004E34  206E 0014                movea.l    A0, [A6 + 0x14]
00004E38  3080                     move.w     [A0], D0
label00004E3A:
00004E3A  5247                     addq.w     D7, 1
00004E3C  0C47 00C8                cmpi.w     D7, 0xC8
00004E40  6600 FEAA                bne        -0x154 /* 00004CEC */
00004E44  1004                     move.b     D0, D4
00004E46  6600 FEA4                bne        -0x15A /* 00004CEC */
00004E4A  7801                     moveq.l    D4, 0x01
00004E4C  7C0A                     moveq.l    D6, 0x0A
00004E4E  7A0A                     moveq.l    D5, 0x0A
00004E50  4247                     clr.w      D7
00004E52  6000 FE98                bra        -0x166 /* 00004CEC */
label00004E56:
00004E56  2F2E FFF4                move.l     -[A7], [A6 - 0xC]
00004E5A  A873                     syscall    SetPort
00004E5C  4CDF 00F0                movem.l    D4,D5,D6,D7, [A7]+
00004E60  4E5E                     unlink     A6
00004E62  205F                     movea.l    A0, [A7]+
00004E64  DEFC 0010                add.w      A7, 0x10
00004E68  4ED0                     jmp        [A0]
export_56:
fn00004E6A:
00004E6A  4E56 FFD8                link       A6, -0x0028
00004E6E  48E7 0F18                movem.l    -[A7], D4,D5,D6,D7,A3,A4
00004E72  266E 000C                movea.l    A3, [A6 + 0xC]
00004E76  486E FFFC                pea.l      [A6 - 0x4]
00004E7A  A874                     syscall    GetPort
00004E7C  4267                     clr.w      -[A7]
00004E7E  1F2E 0012                move.b     -[A7], [A6 + 0x12]
00004E82  2F0B                     move.l     -[A7], A3
00004E84  2F2E 0008                move.l     -[A7], [A6 + 0x8]
00004E88  486E FFF4                pea.l      [A6 - 0xC]
00004E8C  4EBA FC26                jsr        [PC - 0x3DA /* 00004AB4 */]
00004E90  1D5F FFE7                move.b     [A6 - 0x19], [A7]+
00004E94  49EB 0010                lea.l      A4, [A3 + 0x10]
00004E98  382C 0006                move.w     D4, [A4 + 0x6]
00004E9C  986C 0002                sub.w      D4, [A4 + 0x2]
00004EA0  302C 0004                move.w     D0, [A4 + 0x4]
00004EA4  9054                     sub.w      D0, [A4]
00004EA6  3D40 FFDA                move.w     [A6 - 0x26], D0
00004EAA  102E 0010                move.b     D0, [A6 + 0x10]
00004EAE  4880                     ext.w      D0
00004EB0  6B42                     bmi        +0x44 /* 00004EF4 */
00004EB2  0C40 0005                cmpi.w     D0, 0x5
00004EB6  6E3C                     bgt        +0x3E /* 00004EF4 */
00004EB8  D040                     add.w      D0, D0
00004EBA  303B 0006                move.w     D0, [PC + D0.w + 0x6]
00004EBE  4EFB 0000                jmp        [PC + D0.w]
00004EC2  001A 0014                ori.b      [A2]+, 0x14
00004EC6  001A 001A                ori.b      [A2]+, 0x1A
00004ECA  000E 000E                ori.b      A6, 0xE
00004ECE  7E28                     moveq.l    D7, 0x28
00004ED0  7C14                     moveq.l    D6, 0x14
00004ED2  6024                     bra        +0x26 /* 00004EF8 */
00004ED4  7E14                     moveq.l    D7, 0x14
00004ED6  7C28                     moveq.l    D6, 0x28
00004ED8  601E                     bra        +0x20 /* 00004EF8 */
00004EDA  302E FFFA                move.w     D0, [A6 - 0x6]
00004EDE  906E FFF6                sub.w      D0, [A6 - 0xA]
00004EE2  48C0                     ext.l      D0
00004EE4  81FC 0002                divs.w     D0, 0x2
00004EE8  3D40 FFE0                move.w     [A6 - 0x20], D0
00004EEC  3E2E FFE0                move.w     D7, [A6 - 0x20]
00004EF0  4246                     clr.w      D6
00004EF2  6004                     bra        +0x6 /* 00004EF8 */
label00004EF4:
00004EF4  7E14                     moveq.l    D7, 0x14
00004EF6  7C14                     moveq.l    D6, 0x14
label00004EF8:
00004EF8  102E FFE7                move.b     D0, [A6 - 0x19]
00004EFC  6724                     beq        +0x26 /* 00004F22 */
00004EFE  206E 0008                movea.l    A0, [A6 + 0x8]
00004F02  2050                     movea.l    A0, [A0]
00004F04  2A28 0104                move.l     D5, [A0 + 0x104]
00004F08  2045                     movea.l    A0, D5
00004F0A  2D68 0010 FFE8           move.l     [A6 - 0x18], [A0 + 0x10]
00004F10  2F05                     move.l     -[A7], D5
00004F12  A873                     syscall    SetPort
00004F14  486E FFE8                pea.l      [A6 - 0x18]
00004F18  A870                     syscall    LocalToGlobal
00004F1A  2F2E FFFC                move.l     -[A7], [A6 - 0x4]
00004F1E  A873                     syscall    SetPort
00004F20  6018                     bra        +0x1A /* 00004F3A */
label00004F22:
00004F22  302E FFF4                move.w     D0, [A6 - 0xC]
00004F26  5A40                     addq.w     D0, 5
00004F28  D07C 0013                add.w      D0, 0x13
00004F2C  3D40 FFE8                move.w     [A6 - 0x18], D0
00004F30  302E FFF6                move.w     D0, [A6 - 0xA]
00004F34  5A40                     addq.w     D0, 5
00004F36  3D40 FFEA                move.w     [A6 - 0x16], D0
label00004F3A:
00004F3A  486E FFE8                pea.l      [A6 - 0x18]
00004F3E  3F04                     move.w     -[A7], D4
00004F40  3F2E FFDA                move.w     -[A7], [A6 - 0x26]
00004F44  3F07                     move.w     -[A7], D7
00004F46  3F06                     move.w     -[A7], D6
00004F48  486E FFF4                pea.l      [A6 - 0xC]
00004F4C  4EBA FD74                jsr        [PC - 0x28C /* 00004CC2 */]
00004F50  2F0B                     move.l     -[A7], A3
00004F52  2F2E FFE8                move.l     -[A7], [A6 - 0x18]
00004F56  4267                     clr.w      -[A7]
00004F58  A91B                     syscall    MoveWindow
00004F5A  4AAB 0082                tst.l      [A3 + 0x82]
00004F5E  6722                     beq        +0x24 /* 00004F82 */
00004F60  206B 0082                movea.l    A0, [A3 + 0x82]
00004F64  2850                     movea.l    A4, [A0]
00004F66  41EB 0010                lea.l      A0, [A3 + 0x10]
00004F6A  224C                     movea.l    A1, A4
00004F6C  7003                     moveq.l    D0, 0x03
label00004F6E:
00004F6E  32D8                     move.w     [A1]+, [A0]+
00004F70  51C8 FFFC                dbf        D0, -0x6 /* 00004F6E */
00004F74  204C                     movea.l    A0, A4
00004F76  5088                     addq.l     A0, 8
00004F78  224C                     movea.l    A1, A4
00004F7A  7003                     moveq.l    D0, 0x03
label00004F7C:
00004F7C  30D9                     move.w     [A0]+, [A1]+
00004F7E  51C8 FFFC                dbf        D0, -0x6 /* 00004F7C */
label00004F82:
00004F82  2F2E FFFC                move.l     -[A7], [A6 - 0x4]
00004F86  A873                     syscall    SetPort
00004F88  4CDF 18F0                movem.l    D4,D5,D6,D7,A3,A4, [A7]+
00004F8C  4E5E                     unlink     A6
00004F8E  205F                     movea.l    A0, [A7]+
00004F90  DEFC 000C                add.w      A7, 0xC
00004F94  4ED0                     jmp        [A0]
export_57:
00004F96  4E56 FFFE                link       A6, -0x0002
00004F9A  48E7 0108                movem.l    -[A7], D7,A4
00004F9E  286E 000C                movea.l    A4, [A6 + 0xC]
00004FA2  4AAC 0098                tst.l      [A4 + 0x98]
00004FA6  670C                     beq        +0xE /* 00004FB4 */
00004FA8  206C 0098                movea.l    A0, [A4 + 0x98]
00004FAC  2050                     movea.l    A0, [A0]
00004FAE  1E28 010A                move.b     D7, [A0 + 0x10A]
00004FB2  6002                     bra        +0x4 /* 00004FB6 */
label00004FB4:
00004FB4  7E05                     moveq.l    D7, 0x05
label00004FB6:
00004FB6  4267                     clr.w      -[A7]
00004FB8  1F07                     move.b     -[A7], D7
00004FBA  2F0C                     move.l     -[A7], A4
00004FBC  2F2E 0008                move.l     -[A7], [A6 + 0x8]
00004FC0  4EBA FEA8                jsr        [PC - 0x158 /* 00004E6A */]
00004FC4  4CDF 1080                movem.l    D7,A4, [A7]+
00004FC8  4E5E                     unlink     A6
00004FCA  205F                     movea.l    A0, [A7]+
00004FCC  504F                     addq.w     A7, 8
00004FCE  4ED0                     jmp        [A0]
fn00004FD0:
00004FD0  4E56 0000                link       A6, 0
00004FD4  202E 000C                move.l     D0, [A6 + 0xC]
00004FD8  90AE 0010                sub.l      D0, [A6 + 0x10]
00004FDC  206E 0008                movea.l    A0, [A6 + 0x8]
00004FE0  2F28 FFF2                move.l     -[A7], [A0 - 0xE]
00004FE4  2F00                     move.l     -[A7], D0
00004FE6  4EAD 0392                jsr        [A5 + 0x392 /* export_110, CODE:3 @ 0000009E */]
00004FEA  704E                     moveq.l    D0, 0x4E
00004FEC  2F00                     move.l     -[A7], D0
00004FEE  4EAD 039A                jsr        [A5 + 0x39A /* export_111, CODE:3 @ 000000D2 */]
00004FF2  201F                     move.l     D0, [A7]+
00004FF4  D0AE 0010                add.l      D0, [A6 + 0x10]
00004FF8  3D40 0014                move.w     [A6 + 0x14], D0
00004FFC  4E5E                     unlink     A6
00004FFE  205F                     movea.l    A0, [A7]+
00005000  DEFC 000C                add.w      A7, 0xC
00005004  4ED0                     jmp        [A0]
fn00005006:
00005006  4E56 FFEE                link       A6, -0x0012
0000500A  48E7 0108                movem.l    -[A7], D7,A4
0000500E  286E 0008                movea.l    A4, [A6 + 0x8]
00005012  7000                     moveq.l    D0, 0x00
00005014  2D40 FFF2                move.l     [A6 - 0xE], D0
00005018  3D7C 0001 FFF0           move.w     [A6 - 0x10], 0x1
0000501E  3D6E 000C FFEE           move.w     [A6 - 0x12], [A6 + 0xC]
00005024  3E2E FFF0                move.w     D7, [A6 - 0x10]
00005028  600C                     bra        +0xE /* 00005036 */
label0000502A:
0000502A  3007                     move.w     D0, D7
0000502C  48C0                     ext.l      D0
0000502E  D1AE FFF2                add.l      [A6 - 0xE], D0
00005032  5247                     addq.w     D7, 1
00005034  6906                     bvs        +0x8 /* 0000503C */
label00005036:
00005036  BE6E FFEE                cmp.w      D7, [A6 - 0x12]
0000503A  6FEE                     ble        -0x10 /* 0000502A */
label0000503C:
0000503C  4267                     clr.w      -[A7]
0000503E  302C FFE2                move.w     D0, [A4 - 0x1E]
00005042  48C0                     ext.l      D0
00005044  2F00                     move.l     -[A7], D0
00005046  302C FFEA                move.w     D0, [A4 - 0x16]
0000504A  48C0                     ext.l      D0
0000504C  2F00                     move.l     -[A7], D0
0000504E  2F0E                     move.l     -[A7], A6
00005050  4EBA FF7E                jsr        [PC - 0x82 /* 00004FD0 */]
00005054  3D5F FFFA                move.w     [A6 - 0x6], [A7]+
00005058  4267                     clr.w      -[A7]
0000505A  302C FFE6                move.w     D0, [A4 - 0x1A]
0000505E  48C0                     ext.l      D0
00005060  2F00                     move.l     -[A7], D0
00005062  302C FFEE                move.w     D0, [A4 - 0x12]
00005066  48C0                     ext.l      D0
00005068  2F00                     move.l     -[A7], D0
0000506A  2F0E                     move.l     -[A7], A6
0000506C  4EBA FF62                jsr        [PC - 0x9E /* 00004FD0 */]
00005070  3D5F FFFE                move.w     [A6 - 0x2], [A7]+
00005074  4267                     clr.w      -[A7]
00005076  302C FFE0                move.w     D0, [A4 - 0x20]
0000507A  48C0                     ext.l      D0
0000507C  2F00                     move.l     -[A7], D0
0000507E  302C FFE8                move.w     D0, [A4 - 0x18]
00005082  48C0                     ext.l      D0
00005084  2F00                     move.l     -[A7], D0
00005086  2F0E                     move.l     -[A7], A6
00005088  4EBA FF46                jsr        [PC - 0xBA /* 00004FD0 */]
0000508C  3D5F FFF8                move.w     [A6 - 0x8], [A7]+
00005090  4267                     clr.w      -[A7]
00005092  302C FFE4                move.w     D0, [A4 - 0x1C]
00005096  48C0                     ext.l      D0
00005098  2F00                     move.l     -[A7], D0
0000509A  302C FFEC                move.w     D0, [A4 - 0x14]
0000509E  48C0                     ext.l      D0
000050A0  2F00                     move.l     -[A7], D0
000050A2  2F0E                     move.l     -[A7], A6
000050A4  4EBA FF2A                jsr        [PC - 0xD6 /* 00004FD0 */]
000050A8  3D5F FFFC                move.w     [A6 - 0x4], [A7]+
000050AC  206E 000E                movea.l    A0, [A6 + 0xE]
000050B0  43EE FFF8                lea.l      A1, [A6 - 0x8]
000050B4  7003                     moveq.l    D0, 0x03
label000050B6:
000050B6  30D9                     move.w     [A0]+, [A1]+
000050B8  51C8 FFFC                dbf        D0, -0x6 /* 000050B6 */
000050BC  4CDF 1080                movem.l    D7,A4, [A7]+
000050C0  4E5E                     unlink     A6
000050C2  205F                     movea.l    A0, [A7]+
000050C4  5C4F                     addq.w     A7, 6
000050C6  4ED0                     jmp        [A0]
export_58:
fn000050C8:
000050C8  4E56 FFA2                link       A6, -0x005E
000050CC  48E7 0F18                movem.l    -[A7], D4,D5,D6,D7,A3,A4
000050D0  206E 0012                movea.l    A0, [A6 + 0x12]
000050D4  43EE FFF8                lea.l      A1, [A6 - 0x8]
000050D8  7003                     moveq.l    D0, 0x03
label000050DA:
000050DA  32D8                     move.w     [A1]+, [A0]+
000050DC  51C8 FFFC                dbf        D0, -0x6 /* 000050DA */
000050E0  206E 000A                movea.l    A0, [A6 + 0xA]
000050E4  43EE FFF0                lea.l      A1, [A6 - 0x10]
000050E8  7003                     moveq.l    D0, 0x03
label000050EA:
000050EA  32D8                     move.w     [A1]+, [A0]+
000050EC  51C8 FFFC                dbf        D0, -0x6 /* 000050EA */
000050F0  102D F7C1                move.b     D0, [A5 - 0x83F]
000050F4  0A00 0001                xori.b     D0, 0x1
000050F8  4A00                     tst.b      D0
000050FA  6700 01D6                beq        +0x1D8 /* 000052D2 */
000050FE  206D F936                movea.l    A0, [A5 - 0x6CA]
00005102  2050                     movea.l    A0, [A0]
00005104  1228 0018                move.b     D1, [A0 + 0x18]
00005108  0A01 0001                xori.b     D1, 0x1
0000510C  C001                     and.b      D0, D1
0000510E  6700 01C2                beq        +0x1C4 /* 000052D2 */
00005112  486E FFD8                pea.l      [A6 - 0x28]
00005116  A874                     syscall    GetPort
00005118  102D F7D1                move.b     D0, [A5 - 0x82F]
0000511C  670E                     beq        +0x10 /* 0000512C */
0000511E  486E FFD4                pea.l      [A6 - 0x2C]
00005122  AA48                     syscall    GetCWMgrPort
00005124  2D6E FFD4 FFDC           move.l     [A6 - 0x24], [A6 - 0x2C]
0000512A  6006                     bra        +0x8 /* 00005132 */
label0000512C:
0000512C  486E FFDC                pea.l      [A6 - 0x24]
00005130  A910                     syscall    GetWMgrPort
label00005132:
00005132  4AAE 0016                tst.l      [A6 + 0x16]
00005136  6700 00B4                beq        +0xB6 /* 000051EC */
0000513A  2F2E 0016                move.l     -[A7], [A6 + 0x16]
0000513E  A873                     syscall    SetPort
00005140  206E 0016                movea.l    A0, [A6 + 0x16]
00005144  43EE FFE0                lea.l      A1, [A6 - 0x20]
00005148  41E8 0010                lea.l      A0, [A0 + 0x10]
0000514C  7003                     moveq.l    D0, 0x03
label0000514E:
0000514E  32D8                     move.w     [A1]+, [A0]+
00005150  51C8 FFFC                dbf        D0, -0x6 /* 0000514E */
00005154  302E FFE2                move.w     D0, [A6 - 0x1E]
00005158  D06E FFE6                add.w      D0, [A6 - 0x1A]
0000515C  48C0                     ext.l      D0
0000515E  81FC 0002                divs.w     D0, 0x2
00005162  5140                     subq.w     D0, 8
00005164  3D40 FFE2                move.w     [A6 - 0x1E], D0
00005168  D07C 0010                add.w      D0, 0x10
0000516C  3D40 FFE6                move.w     [A6 - 0x1A], D0
00005170  302E FFE0                move.w     D0, [A6 - 0x20]
00005174  D06E FFE4                add.w      D0, [A6 - 0x1C]
00005178  48C0                     ext.l      D0
0000517A  81FC 0002                divs.w     D0, 0x2
0000517E  5140                     subq.w     D0, 8
00005180  3D40 FFE0                move.w     [A6 - 0x20], D0
00005184  D07C 0010                add.w      D0, 0x10
00005188  3D40 FFE4                move.w     [A6 - 0x1C], D0
0000518C  206E 0016                movea.l    A0, [A6 + 0x16]
00005190  2868 0098                movea.l    A4, [A0 + 0x98]
00005194  2054                     movea.l    A0, [A4]
00005196  7001                     moveq.l    D0, 0x01
00005198  B028 010A                cmp.b      D0, [A0 + 0x10A]
0000519C  57C0                     seq        D0
0000519E  4A28 010A                tst.b      [A0 + 0x10A]
000051A2  57C1                     seq        D1
000051A4  8001                     or.b       D0, D1
000051A6  6736                     beq        +0x38 /* 000051DE */
000051A8  486E FFAA                pea.l      [A6 - 0x56]
000051AC  42A7                     clr.l      -[A7]
000051AE  A880                     syscall    SetPt
000051B0  4267                     clr.w      -[A7]
000051B2  1F3C 0001                move.b     -[A7], 0x1
000051B6  486E FFAA                pea.l      [A6 - 0x56]
000051BA  2054                     movea.l    A0, [A4]
000051BC  2F28 0124                move.l     -[A7], [A0 + 0x124]
000051C0  3F3C 003C                move.w     -[A7], 0x3C /* '<' */
000051C4  A9E7                     syscall    Pack0/ListManager
000051C6  101F                     move.b     D0, [A7]+
000051C8  6714                     beq        +0x16 /* 000051DE */
000051CA  486E FFE0                pea.l      [A6 - 0x20]
000051CE  2F2E FFAA                move.l     -[A7], [A6 - 0x56]
000051D2  2054                     movea.l    A0, [A4]
000051D4  2F28 0124                move.l     -[A7], [A0 + 0x124]
000051D8  3F3C 004C                move.w     -[A7], 0x4C /* 'L' */
000051DC  A9E7                     syscall    Pack0/ListManager
label000051DE:
000051DE  486E FFE0                pea.l      [A6 - 0x20]
000051E2  A870                     syscall    LocalToGlobal
000051E4  486E FFE4                pea.l      [A6 - 0x1C]
000051E8  A870                     syscall    LocalToGlobal
000051EA  6010                     bra        +0x12 /* 000051FC */
label000051EC:
000051EC  41EE FFE0                lea.l      A0, [A6 - 0x20]
000051F0  43EE FFF8                lea.l      A1, [A6 - 0x8]
000051F4  7003                     moveq.l    D0, 0x03
label000051F6:
000051F6  30D9                     move.w     [A0]+, [A1]+
000051F8  51C8 FFFC                dbf        D0, -0x6 /* 000051F6 */
label000051FC:
000051FC  102E 0008                move.b     D0, [A6 + 0x8]
00005200  6728                     beq        +0x2A /* 0000522A */
00005202  2F2E 000E                move.l     -[A7], [A6 + 0xE]
00005206  A873                     syscall    SetPort
00005208  206E 000E                movea.l    A0, [A6 + 0xE]
0000520C  43EE FFE8                lea.l      A1, [A6 - 0x18]
00005210  41E8 0010                lea.l      A0, [A0 + 0x10]
00005214  7003                     moveq.l    D0, 0x03
label00005216:
00005216  32D8                     move.w     [A1]+, [A0]+
00005218  51C8 FFFC                dbf        D0, -0x6 /* 00005216 */
0000521C  486E FFE8                pea.l      [A6 - 0x18]
00005220  A870                     syscall    LocalToGlobal
00005222  486E FFEC                pea.l      [A6 - 0x14]
00005226  A870                     syscall    LocalToGlobal
00005228  6010                     bra        +0x12 /* 0000523A */
label0000522A:
0000522A  41EE FFE8                lea.l      A0, [A6 - 0x18]
0000522E  43EE FFF0                lea.l      A1, [A6 - 0x10]
00005232  7003                     moveq.l    D0, 0x03
label00005234:
00005234  30D9                     move.w     [A0]+, [A1]+
00005236  51C8 FFFC                dbf        D0, -0x6 /* 00005234 */
label0000523A:
0000523A  2F2E FFDC                move.l     -[A7], [A6 - 0x24]
0000523E  A873                     syscall    SetPort
00005240  42A7                     clr.l      -[A7]
00005242  A8D8                     syscall    NewRgn
00005244  265F                     movea.l    A3, [A7]+
00005246  2F0B                     move.l     -[A7], A3
00005248  A87A                     syscall    GetClip
0000524A  206E FFDC                movea.l    A0, [A6 - 0x24]
0000524E  2F28 0018                move.l     -[A7], [A0 + 0x18]
00005252  A879                     syscall    SetClip
00005254  486E FFBE                pea.l      [A6 - 0x42]
00005258  A898                     syscall    GetPenState
0000525A  A89E                     syscall    PenNormal
0000525C  486D FC3C                pea.l      [A5 - 0x3C4]
00005260  A89D                     syscall    PenPat
00005262  3F3C 000A                move.w     -[A7], 0xA /* '\n' */
00005266  A89C                     syscall    PenMode
00005268  102E 0008                move.b     D0, [A6 + 0x8]
0000526C  6708                     beq        +0xA /* 00005276 */
0000526E  7C01                     moveq.l    D6, 0x01
00005270  7A11                     moveq.l    D5, 0x11
00005272  7801                     moveq.l    D4, 0x01
00005274  6006                     bra        +0x8 /* 0000527C */
label00005276:
00005276  7C10                     moveq.l    D6, 0x10
00005278  4245                     clr.w      D5
0000527A  78FF                     moveq.l    D4, 0xFFFFFFFF
label0000527C:
0000527C  3E06                     move.w     D7, D6
label0000527E:
0000527E  7001                     moveq.l    D0, 0x01
00005280  2F00                     move.l     -[A7], D0
00005282  486E FFB2                pea.l      [A6 - 0x4E]
00005286  4EAD 0552                jsr        [A5 + 0x552 /* export_166, CODE:3 @ 00002582 */]
0000528A  3007                     move.w     D0, D7
0000528C  5940                     subq.w     D0, 4
0000528E  6F12                     ble        +0x14 /* 000052A2 */
00005290  486E FFA2                pea.l      [A6 - 0x5E]
00005294  3007                     move.w     D0, D7
00005296  5940                     subq.w     D0, 4
00005298  3F00                     move.w     -[A7], D0
0000529A  2F0E                     move.l     -[A7], A6
0000529C  4EBA FD68                jsr        [PC - 0x298 /* 00005006 */]
000052A0  A8A1                     syscall    FrameRect
label000052A2:
000052A2  700D                     moveq.l    D0, 0x0D
000052A4  B047                     cmp.w      D0, D7
000052A6  6F0E                     ble        +0x10 /* 000052B6 */
000052A8  486E FFA2                pea.l      [A6 - 0x5E]
000052AC  3F07                     move.w     -[A7], D7
000052AE  2F0E                     move.l     -[A7], A6
000052B0  4EBA FD54                jsr        [PC - 0x2AC /* 00005006 */]
000052B4  A8A1                     syscall    FrameRect
label000052B6:
000052B6  DE44                     add.w      D7, D4
000052B8  3007                     move.w     D0, D7
000052BA  9045                     sub.w      D0, D5
000052BC  66C0                     bne        -0x3E /* 0000527E */
000052BE  486E FFBE                pea.l      [A6 - 0x42]
000052C2  A899                     syscall    SetPenState
000052C4  2F0B                     move.l     -[A7], A3
000052C6  A879                     syscall    SetClip
000052C8  2F0B                     move.l     -[A7], A3
000052CA  A8D9                     syscall    DisposRgn/DisposeRgn
000052CC  2F2E FFD8                move.l     -[A7], [A6 - 0x28]
000052D0  A873                     syscall    SetPort
label000052D2:
000052D2  4CDF 18F0                movem.l    D4,D5,D6,D7,A3,A4, [A7]+
000052D6  4E5E                     unlink     A6
000052D8  205F                     movea.l    A0, [A7]+
000052DA  DEFC 0012                add.w      A7, 0x12
000052DE  4ED0                     jmp        [A0]
fn000052E0:
000052E0  4E56 FFE4                link       A6, -0x001C
000052E4  48E7 0F18                movem.l    -[A7], D4,D5,D6,D7,A3,A4
000052E8  266E 0008                movea.l    A3, [A6 + 0x8]
000052EC  1A2E 001E                move.b     D5, [A6 + 0x1E]
000052F0  2F2E 0014                move.l     -[A7], [A6 + 0x14]
000052F4  2F2E 0010                move.l     -[A7], [A6 + 0x10]
000052F8  1F2E 000E                move.b     -[A7], [A6 + 0xE]
000052FC  2F0B                     move.l     -[A7], A3
000052FE  4EBA D548                jsr        [PC - 0x2AB8 /* 00002848 */]
00005302  7002                     moveq.l    D0, 0x02
00005304  B005                     cmp.b      D0, D5
00005306  57C7                     seq        D7
00005308  4407                     neg.b      D7
0000530A  4267                     clr.w      -[A7]
0000530C  1F07                     move.b     -[A7], D7
0000530E  4EBA F676                jsr        [PC - 0x98A /* 00004986 */]
00005312  1C1F                     move.b     D6, [A7]+
00005314  206D F936                movea.l    A0, [A5 - 0x6CA]
00005318  2050                     movea.l    A0, [A0]
0000531A  7001                     moveq.l    D0, 0x01
0000531C  B005                     cmp.b      D0, D5
0000531E  57C0                     seq        D0
00005320  226D F936                movea.l    A1, [A5 - 0x6CA]
00005324  2251                     movea.l    A1, [A1]
00005326  1229 0016                move.b     D1, [A1 + 0x16]
0000532A  0A01 0001                xori.b     D1, 0x1
0000532E  C001                     and.b      D0, D1
00005330  8028 0015                or.b       D0, [A0 + 0x15]
00005334  4A05                     tst.b      D5
00005336  57C1                     seq        D1
00005338  8001                     or.b       D0, D1
0000533A  5200                     addq.b     D0, 1
0000533C  0240 0001                andi.w     D0, 0x1
00005340  1800                     move.b     D4, D0
00005342  1006                     move.b     D0, D6
00005344  0A00 0001                xori.b     D0, 0x1
00005348  2207                     move.l     D1, D7
0000534A  C200                     and.b      D1, D0
0000534C  2F01                     move.l     -[A7], D1
0000534E  4267                     clr.w      -[A7]
00005350  2F2E 0014                move.l     -[A7], [A6 + 0x14]
00005354  2F2E 0010                move.l     -[A7], [A6 + 0x10]
00005358  2F0B                     move.l     -[A7], A3
0000535A  4EBA D5E0                jsr        [PC - 0x2A20 /* 0000293C */]
0000535E  101F                     move.b     D0, [A7]+
00005360  221F                     move.l     D1, [A7]+
00005362  8200                     or.b       D1, D0
00005364  6708                     beq        +0xA /* 0000536E */
00005366  7000                     moveq.l    D0, 0x00
00005368  2840                     movea.l    A4, D0
0000536A  6000 014C                bra        +0x14E /* 000054B8 */
label0000536E:
0000536E  42A7                     clr.l      -[A7]
00005370  4EBA DF8C                jsr        [PC - 0x2074 /* 000032FE */]
00005374  285F                     movea.l    A4, [A7]+
00005376  200C                     move.l     D0, A4
00005378  6700 013E                beq        +0x140 /* 000054B8 */
0000537C  4A6E 0022                tst.w      [A6 + 0x22]
00005380  6600 00C8                bne        +0xCA /* 0000544A */
00005384  4A6E 001A                tst.w      [A6 + 0x1A]
00005388  57C0                     seq        D0
0000538A  4A6E 0018                tst.w      [A6 + 0x18]
0000538E  57C1                     seq        D1
00005390  C001                     and.b      D0, D1
00005392  671E                     beq        +0x20 /* 000053B2 */
00005394  486E FFEC                pea.l      [A6 - 0x14]
00005398  42A7                     clr.l      -[A7]
0000539A  206D F936                movea.l    A0, [A5 - 0x6CA]
0000539E  2050                     movea.l    A0, [A0]
000053A0  3F28 0004                move.w     -[A7], [A0 + 0x4]
000053A4  206D F936                movea.l    A0, [A5 - 0x6CA]
000053A8  2050                     movea.l    A0, [A0]
000053AA  3F28 0006                move.w     -[A7], [A0 + 0x6]
000053AE  A8A7                     syscall    SetRect
000053B0  600C                     bra        +0xE /* 000053BE */
label000053B2:
000053B2  486E FFEC                pea.l      [A6 - 0x14]
000053B6  42A7                     clr.l      -[A7]
000053B8  2F2E 0018                move.l     -[A7], [A6 + 0x18]
000053BC  A8A7                     syscall    SetRect
label000053BE:
000053BE  4A05                     tst.b      D5
000053C0  5EC0                     sgt        D0
000053C2  2206                     move.l     D1, D6
000053C4  C200                     and.b      D1, D0
000053C6  6760                     beq        +0x62 /* 00005428 */
000053C8  42A7                     clr.l      -[A7]
000053CA  2F0C                     move.l     -[A7], A4
000053CC  486E FFEC                pea.l      [A6 - 0x14]
000053D0  2F2E 0014                move.l     -[A7], [A6 + 0x14]
000053D4  4267                     clr.w      -[A7]
000053D6  3F2E 0020                move.w     -[A7], [A6 + 0x20]
000053DA  70FF                     moveq.l    D0, 0xFFFFFFFF
000053DC  2F00                     move.l     -[A7], D0
000053DE  1F3C 0001                move.b     -[A7], 0x1
000053E2  42A7                     clr.l      -[A7]
000053E4  AA45                     syscall    NewCWindow
000053E6  285F                     movea.l    A4, [A7]+
000053E8  2D6D F9A8 FFE4           move.l     [A6 - 0x1C], [A5 - 0x658]
000053EE  0C6D 0602 F7CC           cmpi.w     [A5 - 0x834], 0x602
000053F4  6C0C                     bge        +0xE /* 00005402 */
000053F6  4267                     clr.w      -[A7]
000053F8  486E FFE4                pea.l      [A6 - 0x1C]
000053FC  4EAD 06D2                jsr        [A5 + 0x6D2 /* export_214, CODE:3 @ 00003172 */]
00005400  4A5F                     tst.w      [A7]+
label00005402:
00005402  2F0C                     move.l     -[A7], A4
00005404  2F2E FFE4                move.l     -[A7], [A6 - 0x1C]
00005408  1F3C 0001                move.b     -[A7], 0x1
0000540C  AA95                     syscall    SetPalette/NSetPalette
0000540E  2F0C                     move.l     -[A7], A4
00005410  AA94                     syscall    ActivatePalette
00005412  0C6D 0700 F7CC           cmpi.w     [A5 - 0x834], 0x700
00005418  6C64                     bge        +0x66 /* 0000547E */
0000541A  42A7                     clr.l      -[A7]
0000541C  207C 0000 09EE           movea.l    A0, 0x9EE
00005422  2F10                     move.l     -[A7], [A0]
00005424  A90C                     syscall    PaintOne
00005426  6056                     bra        +0x58 /* 0000547E */
label00005428:
00005428  42A7                     clr.l      -[A7]
0000542A  2F0C                     move.l     -[A7], A4
0000542C  486E FFEC                pea.l      [A6 - 0x14]
00005430  2F2E 0014                move.l     -[A7], [A6 + 0x14]
00005434  4267                     clr.w      -[A7]
00005436  3F2E 0020                move.w     -[A7], [A6 + 0x20]
0000543A  70FF                     moveq.l    D0, 0xFFFFFFFF
0000543C  2F00                     move.l     -[A7], D0
0000543E  1F3C 0001                move.b     -[A7], 0x1
00005442  42A7                     clr.l      -[A7]
00005444  A913                     syscall    NewWindow
00005446  285F                     movea.l    A4, [A7]+
00005448  6034                     bra        +0x36 /* 0000547E */
label0000544A:
0000544A  42A7                     clr.l      -[A7]
0000544C  3F2E 0022                move.w     -[A7], [A6 + 0x22]
00005450  2F0C                     move.l     -[A7], A4
00005452  70FF                     moveq.l    D0, 0xFFFFFFFF
00005454  2F00                     move.l     -[A7], D0
00005456  A97C                     syscall    GetNewDialog
00005458  285F                     movea.l    A4, [A7]+
0000545A  2F0C                     move.l     -[A7], A4
0000545C  2F2E 0014                move.l     -[A7], [A6 + 0x14]
00005460  A91A                     syscall    SetWTitle
00005462  4A6E 001A                tst.w      [A6 + 0x1A]
00005466  56C0                     sne        D0
00005468  4A6E 0018                tst.w      [A6 + 0x18]
0000546C  56C1                     sne        D1
0000546E  8001                     or.b       D0, D1
00005470  670C                     beq        +0xE /* 0000547E */
00005472  2F0C                     move.l     -[A7], A4
00005474  2F2E 0018                move.l     -[A7], [A6 + 0x18]
00005478  1F3C 0001                move.b     -[A7], 0x1
0000547C  A91D                     syscall    SizeWindow
label0000547E:
0000547E  396E 000C 006C           move.w     [A4 + 0x6C], [A6 + 0xC]
00005484  1F04                     move.b     -[A7], D4
00005486  1F2E 0024                move.b     -[A7], [A6 + 0x24]
0000548A  2F0C                     move.l     -[A7], A4
0000548C  2F0B                     move.l     -[A7], A3
0000548E  4EBA F9DA                jsr        [PC - 0x626 /* 00004E6A */]
00005492  102E 001C                move.b     D0, [A6 + 0x1C]
00005496  671C                     beq        +0x1E /* 000054B4 */
00005498  2053                     movea.l    A0, [A3]
0000549A  2F28 0104                move.l     -[A7], [A0 + 0x104]
0000549E  486E FFF4                pea.l      [A6 - 0xC]
000054A2  2F0C                     move.l     -[A7], A4
000054A4  486E FFF4                pea.l      [A6 - 0xC]
000054A8  1F3C 0001                move.b     -[A7], 0x1
000054AC  4EBA FC1A                jsr        [PC - 0x3E6 /* 000050C8 */]
000054B0  2F0C                     move.l     -[A7], A4
000054B2  A915                     syscall    ShowWindow
label000054B4:
000054B4  2F0C                     move.l     -[A7], A4
000054B6  A873                     syscall    SetPort
label000054B8:
000054B8  2D4C 0026                move.l     [A6 + 0x26], A4
000054BC  4CDF 18F0                movem.l    D4,D5,D6,D7,A3,A4, [A7]+
000054C0  4E5E                     unlink     A6
000054C2  205F                     movea.l    A0, [A7]+
000054C4  DEFC 001E                add.w      A7, 0x1E
000054C8  4ED0                     jmp        [A0]
000054CA  4E56 0000                link       A6, 0
000054CE  42A7                     clr.l      -[A7]
000054D0  1F3C 0005                move.b     -[A7], 0x5
000054D4  3F2E 001E                move.w     -[A7], [A6 + 0x1E]
000054D8  4267                     clr.w      -[A7]
000054DA  1F2E 001C                move.b     -[A7], [A6 + 0x1C]
000054DE  1F3C 0001                move.b     -[A7], 0x1
000054E2  2F2E 0018                move.l     -[A7], [A6 + 0x18]
000054E6  2F2E 0014                move.l     -[A7], [A6 + 0x14]
000054EA  2F2E 0010                move.l     -[A7], [A6 + 0x10]
000054EE  1F2E 000E                move.b     -[A7], [A6 + 0xE]
000054F2  3F2E 000C                move.w     -[A7], [A6 + 0xC]
000054F6  2F2E 0008                move.l     -[A7], [A6 + 0x8]
000054FA  4EBA FDE4                jsr        [PC - 0x21C /* 000052E0 */]
000054FE  2D5F 0020                move.l     [A6 + 0x20], [A7]+
00005502  4E5E                     unlink     A6
00005504  205F                     movea.l    A0, [A7]+
00005506  DEFC 0018                add.w      A7, 0x18
0000550A  4ED0                     jmp        [A0]
0000550C  4E56 0000                link       A6, 0
00005510  42A7                     clr.l      -[A7]
00005512  1F3C 0005                move.b     -[A7], 0x5
00005516  2F2E 0020                move.l     -[A7], [A6 + 0x20]
0000551A  1F2E 001E                move.b     -[A7], [A6 + 0x1E]
0000551E  1F2E 001C                move.b     -[A7], [A6 + 0x1C]
00005522  2F2E 0018                move.l     -[A7], [A6 + 0x18]
00005526  2F2E 0014                move.l     -[A7], [A6 + 0x14]
0000552A  2F2E 0010                move.l     -[A7], [A6 + 0x10]
0000552E  1F2E 000E                move.b     -[A7], [A6 + 0xE]
00005532  3F2E 000C                move.w     -[A7], [A6 + 0xC]
00005536  2F2E 0008                move.l     -[A7], [A6 + 0x8]
0000553A  4EBA FDA4                jsr        [PC - 0x25C /* 000052E0 */]
0000553E  2D5F 0024                move.l     [A6 + 0x24], [A7]+
00005542  4E5E                     unlink     A6
00005544  205F                     movea.l    A0, [A7]+
00005546  DEFC 001C                add.w      A7, 0x1C
0000554A  4ED0                     jmp        [A0]
export_59:
0000554C  4E56 FF00                link       A6, -0x0100
00005550  422E FF00                clr.b      [A6 - 0x100]
00005554  42A7                     clr.l      -[A7]
00005556  1F3C 0001                move.b     -[A7], 0x1
0000555A  2F3C 0008 0000           move.l     -[A7], 0x80000
00005560  1F2E 0018                move.b     -[A7], [A6 + 0x18]
00005564  1F2E 0016                move.b     -[A7], [A6 + 0x16]
00005568  2F2E 0012                move.l     -[A7], [A6 + 0x12]
0000556C  2F2E 000E                move.l     -[A7], [A6 + 0xE]
00005570  486E FF00                pea.l      [A6 - 0x100]
00005574  1F3C 0001                move.b     -[A7], 0x1
00005578  3F2E 000C                move.w     -[A7], [A6 + 0xC]
0000557C  2F2E 0008                move.l     -[A7], [A6 + 0x8]
00005580  4EBA FD5E                jsr        [PC - 0x2A2 /* 000052E0 */]
00005584  2D5F 001A                move.l     [A6 + 0x1A], [A7]+
00005588  4E5E                     unlink     A6
0000558A  205F                     movea.l    A0, [A7]+
0000558C  DEFC 0012                add.w      A7, 0x12
00005590  4ED0                     jmp        [A0]
fn00005592:
00005592  4E56 FFDA                link       A6, -0x0026
00005596  48E7 0708                movem.l    -[A7], D5,D6,D7,A4
0000559A  286E 000C                movea.l    A4, [A6 + 0xC]
0000559E  486E FFFC                pea.l      [A6 - 0x4]
000055A2  A874                     syscall    GetPort
000055A4  2054                     movea.l    A0, [A4]
000055A6  2F28 0114                move.l     -[A7], [A0 + 0x114]
000055AA  A873                     syscall    SetPort
000055AC  102D F7D1                move.b     D0, [A5 - 0x82F]
000055B0  670E                     beq        +0x10 /* 000055C0 */
000055B2  4267                     clr.w      -[A7]
000055B4  486E FFEA                pea.l      [A6 - 0x16]
000055B8  4EBA EADE                jsr        [PC - 0x1522 /* 00004098 */]
000055BC  1A1F                     move.b     D5, [A7]+
000055BE  6016                     bra        +0x18 /* 000055D6 */
label000055C0:
000055C0  486E FFDA                pea.l      [A6 - 0x26]
000055C4  4EBA E526                jsr        [PC - 0x1ADA /* 00003AEC */]
000055C8  205F                     movea.l    A0, [A7]+
000055CA  43EE FFEA                lea.l      A1, [A6 - 0x16]
000055CE  7003                     moveq.l    D0, 0x03
label000055D0:
000055D0  32D8                     move.w     [A1]+, [A0]+
000055D2  51C8 FFFC                dbf        D0, -0x6 /* 000055D0 */
label000055D6:
000055D6  2054                     movea.l    A0, [A4]
000055D8  2068 0104                movea.l    A0, [A0 + 0x104]
000055DC  2254                     movea.l    A1, [A4]
000055DE  2269 0104                movea.l    A1, [A1 + 0x104]
000055E2  3E28 0016                move.w     D7, [A0 + 0x16]
000055E6  9E69 0012                sub.w      D7, [A1 + 0x12]
000055EA  2054                     movea.l    A0, [A4]
000055EC  2068 0104                movea.l    A0, [A0 + 0x104]
000055F0  2254                     movea.l    A1, [A4]
000055F2  2269 0104                movea.l    A1, [A1 + 0x104]
000055F6  3C28 0014                move.w     D6, [A0 + 0x14]
000055FA  9C69 0010                sub.w      D6, [A1 + 0x10]
000055FE  2054                     movea.l    A0, [A4]
00005600  2068 0114                movea.l    A0, [A0 + 0x114]
00005604  43EE FFF2                lea.l      A1, [A6 - 0xE]
00005608  41E8 0010                lea.l      A0, [A0 + 0x10]
0000560C  7003                     moveq.l    D0, 0x03
label0000560E:
0000560E  32D8                     move.w     [A1]+, [A0]+
00005610  51C8 FFFC                dbf        D0, -0x6 /* 0000560E */
00005614  486E FFF2                pea.l      [A6 - 0xE]
00005618  A870                     syscall    LocalToGlobal
0000561A  486E FFF6                pea.l      [A6 - 0xA]
0000561E  A870                     syscall    LocalToGlobal
00005620  4A6E 0008                tst.w      [A6 + 0x8]
00005624  665E                     bne        +0x60 /* 00005684 */
00005626  3006                     move.w     D0, D6
00005628  D06E FFF6                add.w      D0, [A6 - 0xA]
0000562C  5A40                     addq.w     D0, 5
0000562E  5840                     addq.w     D0, 4
00005630  B06E FFEE                cmp.w      D0, [A6 - 0x12]
00005634  6C10                     bge        +0x12 /* 00005646 */
00005636  302E FFF6                move.w     D0, [A6 - 0xA]
0000563A  5840                     addq.w     D0, 4
0000563C  D07C 000B                add.w      D0, 0xB
00005640  3D40 FFE2                move.w     [A6 - 0x1E], D0
00005644  604E                     bra        +0x50 /* 00005694 */
label00005646:
00005646  302E FFF2                move.w     D0, [A6 - 0xE]
0000564A  9046                     sub.w      D0, D6
0000564C  5B40                     subq.w     D0, 5
0000564E  5940                     subq.w     D0, 4
00005650  B06E FFEA                cmp.w      D0, [A6 - 0x16]
00005654  6F12                     ble        +0x14 /* 00005668 */
00005656  302E FFF2                move.w     D0, [A6 - 0xE]
0000565A  9046                     sub.w      D0, D6
0000565C  5940                     subq.w     D0, 4
0000565E  907C 0013                sub.w      D0, 0x13
00005662  3D40 FFE2                move.w     [A6 - 0x1E], D0
00005666  602C                     bra        +0x2E /* 00005694 */
label00005668:
00005668  302E FFF6                move.w     D0, [A6 - 0xA]
0000566C  B06E FFEE                cmp.w      D0, [A6 - 0x12]
00005670  6F06                     ble        +0x8 /* 00005678 */
00005672  3D6E FFEE FFF6           move.w     [A6 - 0xA], [A6 - 0x12]
label00005678:
00005678  302E FFF6                move.w     D0, [A6 - 0xA]
0000567C  9046                     sub.w      D0, D6
0000567E  3D40 FFE2                move.w     [A6 - 0x1E], D0
00005682  6010                     bra        +0x12 /* 00005694 */
label00005684:
00005684  302E FFF2                move.w     D0, [A6 - 0xE]
00005688  907C 0013                sub.w      D0, 0x13
0000568C  D07C 000B                add.w      D0, 0xB
00005690  3D40 FFE2                move.w     [A6 - 0x1E], D0
label00005694:
00005694  4A6E 000A                tst.w      [A6 + 0xA]
00005698  665A                     bne        +0x5C /* 000056F4 */
0000569A  3007                     move.w     D0, D7
0000569C  D06E FFF8                add.w      D0, [A6 - 0x8]
000056A0  5A40                     addq.w     D0, 5
000056A2  5840                     addq.w     D0, 4
000056A4  B06E FFF0                cmp.w      D0, [A6 - 0x10]
000056A8  6C0C                     bge        +0xE /* 000056B6 */
000056AA  302E FFF8                move.w     D0, [A6 - 0x8]
000056AE  5840                     addq.w     D0, 4
000056B0  3D40 FFE4                move.w     [A6 - 0x1C], D0
000056B4  6044                     bra        +0x46 /* 000056FA */
label000056B6:
000056B6  302E FFF4                move.w     D0, [A6 - 0xC]
000056BA  9047                     sub.w      D0, D7
000056BC  5B40                     subq.w     D0, 5
000056BE  5940                     subq.w     D0, 4
000056C0  B06E FFEC                cmp.w      D0, [A6 - 0x14]
000056C4  6F0E                     ble        +0x10 /* 000056D4 */
000056C6  302E FFF4                move.w     D0, [A6 - 0xC]
000056CA  9047                     sub.w      D0, D7
000056CC  5940                     subq.w     D0, 4
000056CE  3D40 FFE4                move.w     [A6 - 0x1C], D0
000056D2  6026                     bra        +0x28 /* 000056FA */
label000056D4:
000056D4  302E FFF8                move.w     D0, [A6 - 0x8]
000056D8  B06E FFF0                cmp.w      D0, [A6 - 0x10]
000056DC  6F0A                     ble        +0xC /* 000056E8 */
000056DE  302E FFF0                move.w     D0, [A6 - 0x10]
000056E2  5B40                     subq.w     D0, 5
000056E4  3D40 FFF8                move.w     [A6 - 0x8], D0
label000056E8:
000056E8  302E FFF8                move.w     D0, [A6 - 0x8]
000056EC  9047                     sub.w      D0, D7
000056EE  3D40 FFE4                move.w     [A6 - 0x1C], D0
000056F2  6006                     bra        +0x8 /* 000056FA */
label000056F4:
000056F4  3D6E FFF4 FFE4           move.w     [A6 - 0x1C], [A6 - 0xC]
label000056FA:
000056FA  2D6E FFE2 0010           move.l     [A6 + 0x10], [A6 - 0x1E]
00005700  2F2E FFFC                move.l     -[A7], [A6 - 0x4]
00005704  A873                     syscall    SetPort
00005706  4CDF 10E0                movem.l    D5,D6,D7,A4, [A7]+
0000570A  4E5E                     unlink     A6
0000570C  205F                     movea.l    A0, [A7]+
0000570E  504F                     addq.w     A7, 8
00005710  4ED0                     jmp        [A0]
export_60:
00005712  4E56 FFF4                link       A6, -0x000C
00005716  48E7 0718                movem.l    -[A7], D5,D6,D7,A3,A4
0000571A  2C2E 0010                move.l     D6, [A6 + 0x10]
0000571E  2E2E 000C                move.l     D7, [A6 + 0xC]
00005722  102D F7D1                move.b     D0, [A5 - 0x82F]
00005726  6716                     beq        +0x18 /* 0000573E */
00005728  42A7                     clr.l      -[A7]
0000572A  3F2E 0014                move.w     -[A7], [A6 + 0x14]
0000572E  42A7                     clr.l      -[A7]
00005730  4EBA DBCC                jsr        [PC - 0x2434 /* 000032FE */]
00005734  70FF                     moveq.l    D0, 0xFFFFFFFF
00005736  2F00                     move.l     -[A7], D0
00005738  AA46                     syscall    GetNewCWindow
0000573A  265F                     movea.l    A3, [A7]+
0000573C  6014                     bra        +0x16 /* 00005752 */
label0000573E:
0000573E  42A7                     clr.l      -[A7]
00005740  3F2E 0014                move.w     -[A7], [A6 + 0x14]
00005744  42A7                     clr.l      -[A7]
00005746  4EBA DBB6                jsr        [PC - 0x244A /* 000032FE */]
0000574A  70FF                     moveq.l    D0, 0xFFFFFFFF
0000574C  2F00                     move.l     -[A7], D0
0000574E  A9BD                     syscall    GetNewWindow
00005750  265F                     movea.l    A3, [A7]+
label00005752:
00005752  200B                     move.l     D0, A3
00005754  6700 00D0                beq        +0xD2 /* 00005826 */
00005758  2F06                     move.l     -[A7], D6
0000575A  205F                     movea.l    A0, [A7]+
0000575C  A029                     syscall    HLock
0000575E  2046                     movea.l    A0, D6
00005760  2850                     movea.l    A4, [A0]
00005762  294B 0104                move.l     [A4 + 0x104], A3
00005766  2047                     movea.l    A0, D7
00005768  2050                     movea.l    A0, [A0]
0000576A  226C 0104                movea.l    A1, [A4 + 0x104]
0000576E  3368 0112 006C           move.w     [A1 + 0x6C], [A0 + 0x112]
00005774  206C 0104                movea.l    A0, [A4 + 0x104]
00005778  2146 0098                move.l     [A0 + 0x98], D6
0000577C  2887                     move.l     [A4], D7
0000577E  422C 0004                clr.b      [A4 + 0x4]
00005782  397C 0001 0108           move.w     [A4 + 0x108], 0x1
00005788  197C 0006 010A           move.b     [A4 + 0x10A], 0x6
0000578E  2047                     movea.l    A0, D7
00005790  2050                     movea.l    A0, [A0]
00005792  2968 010C 010C           move.l     [A4 + 0x10C], [A0 + 0x10C]
00005798  2047                     movea.l    A0, D7
0000579A  2050                     movea.l    A0, [A0]
0000579C  3968 0110 0110           move.w     [A4 + 0x110], [A0 + 0x110]
000057A2  2047                     movea.l    A0, D7
000057A4  2050                     movea.l    A0, [A0]
000057A6  3968 0112 0112           move.w     [A4 + 0x112], [A0 + 0x112]
000057AC  2047                     movea.l    A0, D7
000057AE  2050                     movea.l    A0, [A0]
000057B0  2968 0104 0114           move.l     [A4 + 0x114], [A0 + 0x104]
000057B6  4A6E 000A                tst.w      [A6 + 0xA]
000057BA  57C0                     seq        D0
000057BC  4A6E 0008                tst.w      [A6 + 0x8]
000057C0  57C1                     seq        D1
000057C2  8001                     or.b       D0, D1
000057C4  6710                     beq        +0x12 /* 000057D6 */
000057C6  42A7                     clr.l      -[A7]
000057C8  2F06                     move.l     -[A7], D6
000057CA  2F2E 0008                move.l     -[A7], [A6 + 0x8]
000057CE  4EBA FDC2                jsr        [PC - 0x23E /* 00005592 */]
000057D2  2D5F 0008                move.l     [A6 + 0x8], [A7]+
label000057D6:
000057D6  2F0B                     move.l     -[A7], A3
000057D8  2F2E 0008                move.l     -[A7], [A6 + 0x8]
000057DC  4267                     clr.w      -[A7]
000057DE  A91B                     syscall    MoveWindow
000057E0  2F2C 0104                move.l     -[A7], [A4 + 0x104]
000057E4  1F3C 0001                move.b     -[A7], 0x1
000057E8  A908                     syscall    ShowHide
000057EA  102D F7D1                move.b     D0, [A5 - 0x82F]
000057EE  6730                     beq        +0x32 /* 00005820 */
000057F0  42A7                     clr.l      -[A7]
000057F2  2F2C 0114                move.l     -[A7], [A4 + 0x114]
000057F6  AA96                     syscall    GetPalette
000057F8  2A1F                     move.l     D5, [A7]+
000057FA  6724                     beq        +0x26 /* 00005820 */
000057FC  2D45 FFF8                move.l     [A6 - 0x8], D5
00005800  0C6D 0602 F7CC           cmpi.w     [A5 - 0x834], 0x602
00005806  6C0C                     bge        +0xE /* 00005814 */
00005808  4267                     clr.w      -[A7]
0000580A  486E FFF8                pea.l      [A6 - 0x8]
0000580E  4EAD 06D2                jsr        [A5 + 0x6D2 /* export_214, CODE:3 @ 00003172 */]
00005812  4A5F                     tst.w      [A7]+
label00005814:
00005814  2F0B                     move.l     -[A7], A3
00005816  2F2E FFF8                move.l     -[A7], [A6 - 0x8]
0000581A  1F3C 0001                move.b     -[A7], 0x1
0000581E  AA95                     syscall    SetPalette/NSetPalette
label00005820:
00005820  2F06                     move.l     -[A7], D6
00005822  205F                     movea.l    A0, [A7]+
00005824  A02A                     syscall    HUnlock
label00005826:
00005826  2D4B 0016                move.l     [A6 + 0x16], A3
0000582A  4CDF 18E0                movem.l    D5,D6,D7,A3,A4, [A7]+
0000582E  4E5E                     unlink     A6
00005830  205F                     movea.l    A0, [A7]+
00005832  DEFC 000E                add.w      A7, 0xE
00005836  4ED0                     jmp        [A0]
export_61:
00005838  201F                     move.l     D0, [A7]+
0000583A  205F                     movea.l    A0, [A7]+
0000583C  2F00                     move.l     -[A7], D0
0000583E  4ED0                     jmp        [A0]
00005840  9043 616C 6C44 7261 7... dc.b       "CallDrawResource"
export_62:
00005854  201F                     move.l     D0, [A7]+
00005856  205F                     movea.l    A0, [A7]+
00005858  2F00                     move.l     -[A7], D0
0000585A  4ED0                     jmp        [A0]
0000585C  8C43 616C 6C44 7261 7... dc.b       "CallDrawCell"
export_63:
0000586C  205F                     movea.l    A0, [A7]+
0000586E  201F                     move.l     D0, [A7]+
00005870  2255                     movea.l    A1, [A5]
00005872  4869 FF82                pea.l      [A1 - 0x7E]
00005876  4ED0                     jmp        [A0]
00005878  9047 6574 5175 6963 6... dc.b       "GetQuickDrawVars"
export_64:
fn0000588C:
0000588C  302D F93A                move.w     D0, [A5 - 0x6C6]
00005890  6604                     bne        +0x6 /* 00005896 */
00005892  3038 0900                move.w     D0, [0x00000900 /* CurApRefNum */]
label00005896:
00005896  31C0 0A5A                move.w     [0x00000A5A /* CurMap */], D0
0000589A  4E75                     rts
0000589C  8955 7365 4170 7052 6... dc.b       "UseAppRes"
export_65:
fn000058A8:
000058A8  594F                     subq.w     A7, 4
000058AA  3F2F 000C                move.w     -[A7], [A7 + 0xC]
000058AE  A949                     syscall    GetMenuHandle
000058B0  205F                     movea.l    A0, [A7]+
000058B2  2050                     movea.l    A0, [A0]
000058B4  225F                     movea.l    A1, [A7]+
000058B6  201F                     move.l     D0, [A7]+
000058B8  2228 000A                move.l     D1, [A0 + 0xA]
000058BC  2140 000A                move.l     [A0 + 0xA], D0
000058C0  544F                     addq.w     A7, 2
000058C2  2F09                     move.l     -[A7], A1
000058C4  0280 0000 0001           andi.l     D0, 0x1
000058CA  0281 0000 0001           andi.l     D1, 0x1
000058D0  B181                     xor.l      D1, D0
000058D2  6706                     beq        +0x8 /* 000058DA */
000058D4  4267                     clr.w      -[A7]
000058D6  4EBA A77C                jsr        [PC - 0x5884 /* 00000054 */]
label000058DA:
000058DA  4E75                     rts
000058DC  8841 626C 654D 656E 7... dc.b       "AbleMenu"
fn000058E8:
000058E8  205F                     movea.l    A0, [A7]+
000058EA  4C9F 0003                movem.w    D0,D1, [A7]+
000058EE  905F                     sub.w      D0, [A7]+
000058F0  6A02                     bpl        +0x4 /* 000058F4 */
000058F2  4440                     neg.w      D0
label000058F4:
000058F4  925F                     sub.w      D1, [A7]+
000058F6  6A02                     bpl        +0x4 /* 000058FA */
000058F8  4441                     neg.w      D1
label000058FA:
000058FA  B041                     cmp.w      D0, D1
000058FC  6E02                     bgt        +0x4 /* 00005900 */
000058FE  C141                     exg        D0, D1
label00005900:
00005900  E241                     asr        D1.w, 1
00005902  D041                     add.w      D0, D1
00005904  3E80                     move.w     [A7], D0
00005906  4ED0                     jmp        [A0]
00005908  8841 4253 506F 696E 7... dc.b       "ABSPoint"
export_66:
fn00005914:
00005914  205F                     movea.l    A0, [A7]+
00005916  201F                     move.l     D0, [A7]+
00005918  2F08                     move.l     -[A7], A0
0000591A  2F38 0118                move.l     -[A7], [0x00000118 /* TheZone */]
0000591E  2078 02A6                movea.l    A0, [0x000002A6 /* SysZone */]
00005922  B090                     cmp.l      D0, [A0]
00005924  6E08                     bgt        +0xA /* 0000592E */
00005926  307C 0118                movea.w    A0, 0x118
0000592A  20B8 02A6                move.l     [A0], [0x000002A6 /* SysZone */]
label0000592E:
0000592E  2040                     movea.l    A0, D0
00005930  A064                     syscall    MoveHHi
00005932  307C 0118                movea.w    A0, 0x118
00005936  209F                     move.l     [A0], [A7]+
00005938  4E75                     rts
0000593A  8842 7562 626C 6555 7... dc.b       "BubbleUp"
00005946  205F                     movea.l    A0, [A7]+
00005948  325F                     movea.w    A1, [A7]+
0000594A  6018                     bra        +0x1A /* 00005964 */
export_69:
0000594C  610C                     bsr        +0xE /* 0000595A */
export_70:
0000594E  610A                     bsr        +0xC /* 0000595A */
fn00005950:
00005950  6108                     bsr        +0xA /* 0000595A */
fn00005952:
00005952  6106                     bsr        +0x8 /* 0000595A */
export_68:
00005954  6104                     bsr        +0x6 /* 0000595A */
export_67:
00005956  6102                     bsr        +0x4 /* 0000595A */
00005958  4E71                     nop
fn0000595A:
0000595A  41FA FFF2                lea.l      A0, [PC - 0xE /* 0000594E, value 0x610A6108 */]
0000595E  225F                     movea.l    A1, [A7]+
00005960  93C8                     sub.l      A1, A0
00005962  205F                     movea.l    A0, [A7]+
label00005964:
00005964  301F                     move.w     D0, [A7]+
00005966  0C40 2711                cmpi.w     D0, 0x2711
0000596A  6700 00AA                beq        +0xAC /* 00005A16 */
0000596E  0C40 2712                cmpi.w     D0, 0x2712
00005972  6700 00C0                beq        +0xC2 /* 00005A34 */
00005976  0C40 2713                cmpi.w     D0, 0x2713
0000597A  6700 00E0                beq        +0xE2 /* 00005A5C */
0000597E  0C40 2714                cmpi.w     D0, 0x2714
00005982  6700 00F4                beq        +0xF6 /* 00005A78 */
00005986  0C40 2715                cmpi.w     D0, 0x2715
0000598A  6700 0108                beq        +0x10A /* 00005A94 */
0000598E  221F                     move.l     D1, [A7]+
00005990  241F                     move.l     D2, [A7]+
00005992  2F08                     move.l     -[A7], A0
00005994  3F09                     move.w     -[A7], A1
00005996  5D8F                     subq.l     A7, 6
00005998  4267                     clr.w      -[A7]
0000599A  2F02                     move.l     -[A7], D2
0000599C  2F01                     move.l     -[A7], D1
0000599E  3F38 0A5A                move.w     -[A7], [0x00000A5A /* CurMap */]
000059A2  598F                     subq.l     A7, 4
000059A4  2F3C 5253 5343           move.l     -[A7], 0x52535343 /* 'RSSC' */
000059AA  3F00                     move.w     -[A7], D0
000059AC  4EBA FEDE                jsr        [PC - 0x122 /* 0000588C */]
000059B0  A9A0                     syscall    GetResource
000059B2  2017                     move.l     D0, [A7]
000059B4  673C                     beq        +0x3E /* 000059F2 */
000059B6  2F09                     move.l     -[A7], A1
000059B8  2F00                     move.l     -[A7], D0
000059BA  4EBA FF58                jsr        [PC - 0xA8 /* 00005914 */]
000059BE  225F                     movea.l    A1, [A7]+
000059C0  205F                     movea.l    A0, [A7]+
000059C2  A069                     syscall    HGetState
000059C4  31DF 0A5A                move.w     [0x00000A5A /* CurMap */], [A7]+
000059C8  3F40 000A                move.w     [A7 + 0xA], D0
000059CC  2F48 000C                move.l     [A7 + 0xC], A0
000059D0  2210                     move.l     D1, [A0]
000059D2  A029                     syscall    HLock
000059D4  2041                     movea.l    A0, D1
000059D6  D0F1 1804                add.w      A0, [A1 + D1 + 0x4]
000059DA  4E90                     jsr        [A0]
000059DC  321F                     move.w     D1, [A7]+
000059DE  301F                     move.w     D0, [A7]+
000059E0  205F                     movea.l    A0, [A7]+
000059E2  A06A                     syscall    HSetState
000059E4  325F                     movea.w    A1, [A7]+
000059E6  B2FC 000A                cmpa.w     A1, 0xA /* '\n' */
000059EA  6604                     bne        +0x6 /* 000059F0 */
000059EC  3F41 0004                move.w     [A7 + 0x4], D1
label000059F0:
000059F0  4E75                     rts
label000059F2:
000059F2  4FEF 0018                lea.l      A7, [A7 + 0x18]
000059F6  3F09                     move.w     -[A7], A1
000059F8  4267                     clr.w      -[A7]
000059FA  3F38 0A60                move.w     -[A7], [0x00000A60 /* ResErr */]
000059FE  3F3C FFFD                move.w     -[A7], 0xFFFD
00005A02  4EBA D510                jsr        [PC - 0x2AF0 /* 00002F14 */]
00005A06  544F                     addq.w     A7, 2
00005A08  325F                     movea.w    A1, [A7]+
00005A0A  B2FC 000A                cmpa.w     A1, 0xA /* '\n' */
00005A0E  6604                     bne        +0x6 /* 00005A14 */
00005A10  426F 0004                clr.w      [A7 + 0x4]
label00005A14:
00005A14  4E75                     rts
label00005A16:
00005A16  2F08                     move.l     -[A7], A0
00005A18  2009                     move.l     D0, A1
00005A1A  0C80 0000 0004           cmpi.l     D0, 0x4
00005A20  6604                     bne        +0x6 /* 00005A26 */
00005A22  4EED 0DDA                jmp        [A5 + 0xDDA /* export_439, CODE:16 @ 0000199E */]
label00005A26:
00005A26  0C80 0000 0006           cmpi.l     D0, 0x6
00005A2C  6600 009A                bne        +0x9C /* 00005AC8 */
00005A30  4EED 036A                jmp        [A5 + 0x36A /* export_105, CODE:2 @ 00001AEE */]
label00005A34:
00005A34  2F08                     move.l     -[A7], A0
00005A36  2009                     move.l     D0, A1
00005A38  0C80 0000 0004           cmpi.l     D0, 0x4
00005A3E  6604                     bne        +0x6 /* 00005A44 */
00005A40  4EED 0CDA                jmp        [A5 + 0xCDA /* export_407, CODE:13 @ 00000B6C */]
label00005A44:
00005A44  0C80 0000 0006           cmpi.l     D0, 0x6
00005A4A  6604                     bne        +0x6 /* 00005A50 */
00005A4C  4EED 0CE2                jmp        [A5 + 0xCE2 /* export_408, CODE:13 @ 0000134E */]
label00005A50:
00005A50  0C80 0000 000A           cmpi.l     D0, 0xA /* '\n' */
00005A56  6670                     bne        +0x72 /* 00005AC8 */
00005A58  4EED 0CD2                jmp        [A5 + 0xCD2 /* export_406, CODE:13 @ 00000B4A */]
label00005A5C:
00005A5C  2F08                     move.l     -[A7], A0
00005A5E  2009                     move.l     D0, A1
00005A60  0C80 0000 0004           cmpi.l     D0, 0x4
00005A66  6604                     bne        +0x6 /* 00005A6C */
00005A68  4EED 0D5A                jmp        [A5 + 0xD5A /* export_423, CODE:15 @ 00001662 */]
label00005A6C:
00005A6C  0C80 0000 0006           cmpi.l     D0, 0x6
00005A72  6654                     bne        +0x56 /* 00005AC8 */
00005A74  4EED 0D62                jmp        [A5 + 0xD62 /* export_424, CODE:15 @ 00001A4E */]
label00005A78:
00005A78  2F08                     move.l     -[A7], A0
00005A7A  2009                     move.l     D0, A1
00005A7C  0C80 0000 0004           cmpi.l     D0, 0x4
00005A82  6604                     bne        +0x6 /* 00005A88 */
00005A84  4EED 0D2A                jmp        [A5 + 0xD2A /* export_417, CODE:14 @ 00000C22 */]
label00005A88:
00005A88  0C80 0000 0006           cmpi.l     D0, 0x6
00005A8E  6638                     bne        +0x3A /* 00005AC8 */
00005A90  4EED 0D32                jmp        [A5 + 0xD32 /* export_418, CODE:14 @ 00000E72 */]
label00005A94:
00005A94  2F08                     move.l     -[A7], A0
00005A96  2009                     move.l     D0, A1
00005A98  0C80 0000 0004           cmpi.l     D0, 0x4
00005A9E  6604                     bne        +0x6 /* 00005AA4 */
00005AA0  4EED 0A62                jmp        [A5 + 0xA62 /* export_328, CODE:7 @ 00005940 */]
label00005AA4:
00005AA4  0C80 0000 0006           cmpi.l     D0, 0x6
00005AAA  6604                     bne        +0x6 /* 00005AB0 */
00005AAC  4EED 0A92                jmp        [A5 + 0xA92 /* export_334, CODE:7 @ 00006672 */]
label00005AB0:
00005AB0  0C80 0000 0008           cmpi.l     D0, 0x8
00005AB6  6604                     bne        +0x6 /* 00005ABC */
00005AB8  4EED 0A72                jmp        [A5 + 0xA72 /* export_330, CODE:7 @ 00005BAE */]
label00005ABC:
00005ABC  0C80 0000 000A           cmpi.l     D0, 0xA /* '\n' */
00005AC2  6604                     bne        +0x6 /* 00005AC8 */
00005AC4  4EED 0A8A                jmp        [A5 + 0xA8A /* export_333, CODE:7 @ 000062AE */]
label00005AC8:
00005AC8  4FEF 000C                lea.l      A7, [A7 + 0xC]
00005ACC  4ED0                     jmp        [A0]
00005ACE  8E43 616C 6C45 4269 7... dc.b       "CallEBirth_Etc"
export_71:
fn00005AE0:
00005AE0  4E56 0000                link       A6, 0
00005AE4  48E7 0030                movem.l    -[A7], A2,A3
00005AE8  2655                     movea.l    A3, [A5]
00005AEA  2653                     movea.l    A3, [A3]
label00005AEC:
00005AEC  242E 0008                move.l     D2, [A6 + 0x8]
00005AF0  2038 09D6                move.l     D0, [0x000009D6 /* WindowList */]
00005AF4  674C                     beq        +0x4E /* 00005B42 */
label00005AF6:
00005AF6  2440                     movea.l    A2, D0
00005AF8  0C6A 0080 006C           cmpi.w     [A2 + 0x6C], 0x80
00005AFE  6D3C                     blt        +0x3E /* 00005B3C */
00005B00  206A 0098                movea.l    A0, [A2 + 0x98]
00005B04  2250                     movea.l    A1, [A0]
00005B06  0C29 0006 010A           cmpi.b     [A1 + 0x10A], 0x6
00005B0C  672E                     beq        +0x30 /* 00005B3C */
00005B0E  B491                     cmp.l      D2, [A1]
00005B10  662A                     bne        +0x2C /* 00005B3C */
00005B12  2F2E 000C                move.l     -[A7], [A6 + 0xC]
00005B16  2F08                     move.l     -[A7], A0
00005B18  3F2A 006C                move.w     -[A7], [A2 + 0x6C]
00005B1C  6100 FE34                bsr        -0x1CA /* 00005952 */
00005B20  242E 0008                move.l     D2, [A6 + 0x8]
00005B24  4A2D F956                tst.b      [A5 - 0x6AA]
00005B28  6618                     bne        +0x1A /* 00005B42 */
00005B2A  2038 09D6                move.l     D0, [0x000009D6 /* WindowList */]
label00005B2E:
00005B2E  67BC                     beq        -0x42 /* 00005AEC */
00005B30  2040                     movea.l    A0, D0
00005B32  B1CA                     cmpa.l     A0, A2
00005B34  6706                     beq        +0x8 /* 00005B3C */
00005B36  2028 0090                move.l     D0, [A0 + 0x90]
00005B3A  60F2                     bra        -0xC /* 00005B2E */
label00005B3C:
00005B3C  202A 0090                move.l     D0, [A2 + 0x90]
00005B40  66B4                     bne        -0x4A /* 00005AF6 */
label00005B42:
00005B42  2F0B                     move.l     -[A7], A3
00005B44  A873                     syscall    SetPort
00005B46  4CDF 0C00                movem.l    A2,A3, [A7]+
00005B4A  4E5E                     unlink     A6
00005B4C  205F                     movea.l    A0, [A7]+
00005B4E  504F                     addq.w     A7, 8
00005B50  4ED0                     jmp        [A0]
00005B52  8850 6173 734D 656E 7... dc.b       "PassMenu"
00005B5E  4E56 0000                link       A6, 0
00005B62  48E7 0030                movem.l    -[A7], A2,A3
00005B66  2655                     movea.l    A3, [A5]
00005B68  2653                     movea.l    A3, [A3]
label00005B6A:
00005B6A  242E 0008                move.l     D2, [A6 + 0x8]
00005B6E  2038 09D6                move.l     D0, [0x000009D6 /* WindowList */]
00005B72  674C                     beq        +0x4E /* 00005BC0 */
label00005B74:
00005B74  2440                     movea.l    A2, D0
00005B76  0C6A 0080 006C           cmpi.w     [A2 + 0x6C], 0x80
00005B7C  6D3C                     blt        +0x3E /* 00005BBA */
00005B7E  206A 0098                movea.l    A0, [A2 + 0x98]
00005B82  2250                     movea.l    A1, [A0]
00005B84  0C29 0006 010A           cmpi.b     [A1 + 0x10A], 0x6
00005B8A  672E                     beq        +0x30 /* 00005BBA */
00005B8C  B491                     cmp.l      D2, [A1]
00005B8E  662A                     bne        +0x2C /* 00005BBA */
00005B90  2F2E 000C                move.l     -[A7], [A6 + 0xC]
00005B94  2F08                     move.l     -[A7], A0
00005B96  3F2A 006C                move.w     -[A7], [A2 + 0x6C]
00005B9A  6100 FDB4                bsr        -0x24A /* 00005950 */
00005B9E  242E 0008                move.l     D2, [A6 + 0x8]
00005BA2  4A2D F956                tst.b      [A5 - 0x6AA]
00005BA6  6618                     bne        +0x1A /* 00005BC0 */
00005BA8  2038 09D6                move.l     D0, [0x000009D6 /* WindowList */]
label00005BAC:
00005BAC  67BC                     beq        -0x42 /* 00005B6A */
00005BAE  2040                     movea.l    A0, D0
00005BB0  B1CA                     cmpa.l     A0, A2
00005BB2  6706                     beq        +0x8 /* 00005BBA */
00005BB4  2028 0090                move.l     D0, [A0 + 0x90]
00005BB8  60F2                     bra        -0xC /* 00005BAC */
label00005BBA:
00005BBA  202A 0090                move.l     D0, [A2 + 0x90]
00005BBE  66B4                     bne        -0x4A /* 00005B74 */
label00005BC0:
00005BC0  2F0B                     move.l     -[A7], A3
00005BC2  A873                     syscall    SetPort
00005BC4  4CDF 0C00                movem.l    A2,A3, [A7]+
00005BC8  4E5E                     unlink     A6
00005BCA  205F                     movea.l    A0, [A7]+
00005BCC  504F                     addq.w     A7, 8
00005BCE  4ED0                     jmp        [A0]
00005BD0  8950 6173 7345 7665 6... dc.b       "PassEvent"
fn00005BDC:
00005BDC  598F                     subq.l     A7, 4
00005BDE  3F2F 000A                move.w     -[A7], [A7 + 0xA]
00005BE2  A949                     syscall    GetMenuHandle
00005BE4  205F                     movea.l    A0, [A7]+
00005BE6  225F                     movea.l    A1, [A7]+
00005BE8  301F                     move.w     D0, [A7]+
00005BEA  544F                     addq.w     A7, 2
00005BEC  4257                     clr.w      [A7]
00005BEE  2050                     movea.l    A0, [A0]
00005BF0  2228 000A                move.l     D1, [A0 + 0xA]
00005BF4  0101                     btst       D1, D0
00005BF6  6702                     beq        +0x4 /* 00005BFA */
00005BF8  5217                     addq.b     [A7], 1
label00005BFA:
00005BFA  4ED1                     jmp        [A1]
00005BFC  8943 6F6E                pack       D4, D3, 0x6F6E
00005C00  6361                     bls        +0x63 /* 00005C63 */
00005C02  7453                     moveq.l    D2, 0x53
00005C04  7472                     moveq.l    D2, 0x72
00005C06  0000 241F                ori.b      D0, 0x1F
// begin alternate branch 00005C08-00005C0A
export_72:
fn00005C08:
00005C08  241F                     move.l     D2, [A7]+
// end alternate branch 00005C08-00005C0A
export_72: // at 00005C08 (misaligned)
fn00005C08: // (misaligned)
00005C0A  205F                     movea.l    A0, [A7]+
00005C0C  225F                     movea.l    A1, [A7]+
00005C0E  7000                     moveq.l    D0, 0x00
00005C10  7200                     moveq.l    D1, 0x00
00005C12  1018                     move.b     D0, [A0]+
00005C14  1211                     move.b     D1, [A1]
00005C16  D119                     add.b      [A1]+, D0
00005C18  D2C1                     add.w      A1, D1
00005C1A  A02E                     syscall    BlockMove/BlockMoveData
00005C1C  2042                     movea.l    A0, D2
00005C1E  4ED0                     jmp        [A0]
00005C20  8943 6F6E 6361 7453 7... dc.b       "ConcatStr"
export_73:
00005C2C  221F                     move.l     D1, [A7]+
00005C2E  225F                     movea.l    A1, [A7]+
00005C30  205F                     movea.l    A0, [A7]+
00005C32  A025                     syscall    GetHandleSize
00005C34  2400                     move.l     D2, D0
00005C36  6B10                     bmi        +0x12 /* 00005C48 */
00005C38  C149                     exg        A0, A1
00005C3A  A024                     syscall    SetHandleSize
00005C3C  6B0A                     bmi        +0xC /* 00005C48 */
00005C3E  C149                     exg        A0, A1
00005C40  2050                     movea.l    A0, [A0]
00005C42  2251                     movea.l    A1, [A1]
00005C44  2002                     move.l     D0, D2
00005C46  A02E                     syscall    BlockMove/BlockMoveData
label00005C48:
00005C48  2041                     movea.l    A0, D1
00005C4A  4ED0                     jmp        [A0]
00005C4C  8843 6F70 7948 616E 6... dc.b       "CopyHand"
export_74:
fn00005C58:
00005C58  3F78 0A58 0004           move.w     [A7 + 0x4], [0x00000A58 /* SysMap */]
00005C5E  4E75                     rts
00005C60  8A53 7973 5265 7346 6... dc.b       "SysResFile"
00005C6E  225F                     movea.l    A1, [A7]+
00005C70  205F                     movea.l    A0, [A7]+
00005C72  241F                     move.l     D2, [A7]+
00005C74  2202                     move.l     D1, D2
00005C76  A025                     syscall    GetHandleSize
00005C78  B480                     cmp.l      D2, D0
00005C7A  6716                     beq        +0x18 /* 00005C92 */
00005C7C  C141                     exg        D0, D1
00005C7E  A024                     syscall    SetHandleSize
00005C80  6B12                     bmi        +0x14 /* 00005C94 */
00005C82  B282                     cmp.l      D1, D2
00005C84  6E0C                     bgt        +0xE /* 00005C92 */
00005C86  2050                     movea.l    A0, [A0]
00005C88  D1C1                     add.l      A0, D1
00005C8A  9481                     sub.l      D2, D1
label00005C8C:
00005C8C  4218                     clr.b      [A0]+
00005C8E  5382                     subq.l     D2, 1
00005C90  6EFA                     bgt        -0x4 /* 00005C8C */
label00005C92:
00005C92  7000                     moveq.l    D0, 0x00
label00005C94:
00005C94  31C0 0220                move.w     [0x00000220 /* MemErr */], D0
00005C98  4ED1                     jmp        [A1]
00005C9A  8746 6978                pack       D3, D6, 0x6978
00005C9E  4861                     pea.l      -[A1]
00005CA0  6E64                     bgt        +0x66 /* 00005D06 */
00005CA2  0000 42AF                ori.b      D0, 0xAF
// begin alternate branch 00005CA4-00005CAE
export_75:
00005CA4  42AF 0004                clr.l      [A7 + 0x4]
00005CA8  3238 0A5A                move.w     D1, [0x00000A5A /* CurMap */]
00005CAC  6604                     bne        +0x6 /* 00005CB2 */
// end alternate branch 00005CA4-00005CAE
export_75: // at 00005CA4 (misaligned)
00005CA6  0004 3238                ori.b      D4, 0x38 /* '8' */
00005CAA  0A5A 6604                xori.w     [A2]+, 0x6604
00005CAE  3238 0A58                move.w     D1, [0x00000A58 /* SysMap */]
label00005CB2:
00005CB2  2278 0A50                movea.l    A1, [0x00000A50 /* TopMapHndl */]
00005CB6  6008                     bra        +0xA /* 00005CC0 */
label00005CB8:
00005CB8  2028 0010                move.l     D0, [A0 + 0x10]
00005CBC  670E                     beq        +0x10 /* 00005CCC */
00005CBE  2240                     movea.l    A1, D0
label00005CC0:
00005CC0  2051                     movea.l    A0, [A1]
00005CC2  B268 0014                cmp.w      D1, [A0 + 0x14]
00005CC6  66F0                     bne        -0xE /* 00005CB8 */
00005CC8  2F49 0004                move.l     [A7 + 0x4], A1
label00005CCC:
00005CCC  4E75                     rts
00005CCE  8947 6574 4375 724D 6... dc.b       "GetCurMap"
export_76:
fn00005CDA:
00005CDA  3F3C 000A                move.w     -[A7], 0xA /* '\n' */
00005CDE  3F38 0A5A                move.w     -[A7], [0x00000A5A /* CurMap */]
00005CE2  4EBA FBA8                jsr        [PC - 0x458 /* 0000588C */]
00005CE6  598F                     subq.l     A7, 4
00005CE8  2F3C 5354 5223           move.l     -[A7], 0x53545223 /* 'STR#' */
00005CEE  2F2F 0014                move.l     -[A7], [A7 + 0x14]
00005CF2  A9A1                     syscall    GetNamedResource
00005CF4  322F 0014                move.w     D1, [A7 + 0x14]
00005CF8  6000 0020                bra        +0x22 /* 00005D1A */
export_77:
fn00005CFC:
00005CFC  3F3C 0008                move.w     -[A7], 0x8
00005D00  3F38 0A5A                move.w     -[A7], [0x00000A5A /* CurMap */]
00005D04  4EBA FB86                jsr        [PC - 0x47A /* 0000588C */]
// begin alternate branch 00005D06-00005D08
label00005D06:
00005D06  FB86                     .invalid   <<F/6/5>>
// end alternate branch 00005D06-00005D08
label00005D06: // (misaligned)
00005D08  598F                     subq.l     A7, 4
00005D0A  2F3C 5354 5223           move.l     -[A7], 0x53545223 /* 'STR#' */
00005D10  3F2F 0014                move.w     -[A7], [A7 + 0x14]
00005D14  A9A0                     syscall    GetResource
00005D16  322F 0012                move.w     D1, [A7 + 0x12]
label00005D1A:
00005D1A  201F                     move.l     D0, [A7]+
00005D1C  31DF 0A5A                move.w     [0x00000A5A /* CurMap */], [A7]+
00005D20  226F 0006                movea.l    A1, [A7 + 0x6]
00005D24  4211                     clr.b      [A1]
00005D26  4A80                     tst.l      D0
00005D28  6724                     beq        +0x26 /* 00005D4E */
00005D2A  2040                     movea.l    A0, D0
00005D2C  4A90                     tst.l      [A0]
00005D2E  671E                     beq        +0x20 /* 00005D4E */
00005D30  2050                     movea.l    A0, [A0]
00005D32  3018                     move.w     D0, [A0]+
00005D34  7000                     moveq.l    D0, 0x00
label00005D36:
00005D36  5341                     subq.w     D1, 1
00005D38  6706                     beq        +0x8 /* 00005D40 */
00005D3A  1018                     move.b     D0, [A0]+
00005D3C  D0C0                     add.w      A0, D0
00005D3E  60F6                     bra        -0x8 /* 00005D36 */
label00005D40:
00005D40  1010                     move.b     D0, [A0]
00005D42  5240                     addq.w     D0, 1
00005D44  A02E                     syscall    BlockMove/BlockMoveData
label00005D46:
00005D46  321F                     move.w     D1, [A7]+
00005D48  205F                     movea.l    A0, [A7]+
00005D4A  DEC1                     add.w      A7, D1
00005D4C  4ED0                     jmp        [A0]
label00005D4E:
00005D4E  554F                     subq.w     A7, 2
00005D50  3F38 0A60                move.w     -[A7], [0x00000A60 /* ResErr */]
00005D54  3F3C FFFF                move.w     -[A7], 0xFFFF
00005D58  4EBA D1BA                jsr        [PC - 0x2E46 /* 00002F14 */]
00005D5C  544F                     addq.w     A7, 2
00005D5E  60E6                     bra        -0x18 /* 00005D46 */
export_78:
00005D60  201F                     move.l     D0, [A7]+
00005D62  225F                     movea.l    A1, [A7]+
00005D64  21C9 0A78                move.l     [0x00000A78 /* ApplScratch */], A1
00005D68  41ED 094A                lea.l      A0, [A5 + 0x94A /* export_293, CODE:7 @ 00000218 */]
00005D6C  22C8                     move.l     [A1]+, A0
00005D6E  41FA FBA4                lea.l      A0, [PC - 0x45C /* 00005914, value 0x205F201F */]
00005D72  22C8                     move.l     [A1]+, A0
00005D74  41ED 08C2                lea.l      A0, [A5 + 0x8C2 /* export_276, CODE:4 @ 000002E4 */]
00005D78  22C8                     move.l     [A1]+, A0
00005D7A  41ED 08BA                lea.l      A0, [A5 + 0x8BA /* export_275, CODE:4 @ 000002A8 */]
00005D7E  22C8                     move.l     [A1]+, A0
00005D80  41FA FB0A                lea.l      A0, [PC - 0x4F6 /* 0000588C, value 0x302DF93A */]
00005D84  22C8                     move.l     [A1]+, A0
00005D86  41ED 08CA                lea.l      A0, [A5 + 0x8CA /* export_277, CODE:4 @ 00000338 */]
00005D8A  22C8                     move.l     [A1]+, A0
00005D8C  41ED 08D2                lea.l      A0, [A5 + 0x8D2 /* export_278, CODE:4 @ 0000038C */]
00005D90  22C8                     move.l     [A1]+, A0
00005D92  41FA EBF2                lea.l      A0, [PC - 0x140E /* 00004986, value 0x4E56FFFE */]
00005D96  22C8                     move.l     [A1]+, A0
00005D98  41FA FF62                lea.l      A0, [PC - 0x9E /* 00005CFC, value 0x3F3C0008, cstring "?<" */]
00005D9C  22C8                     move.l     [A1]+, A0
00005D9E  41FA FF3A                lea.l      A0, [PC - 0xC6 /* 00005CDA, value 0x3F3C000A '?<\0\n', cstring "?<" */]
00005DA2  22C8                     move.l     [A1]+, A0
00005DA4  41FA DCB8                lea.l      A0, [PC - 0x2348 /* 00003A5E, value 0x4E56FEE4 */]
00005DA8  22C8                     move.l     [A1]+, A0
00005DAA  41ED 09FA                lea.l      A0, [A5 + 0x9FA /* export_315, CODE:7 @ 000027AE */]
00005DAE  22C8                     move.l     [A1]+, A0
00005DB0  41ED 0E52                lea.l      A0, [A5 + 0xE52 /* export_454, CODE:20 @ 000003AC */]
00005DB4  22C8                     move.l     [A1]+, A0
00005DB6  41FA FE50                lea.l      A0, [PC - 0x1B0 /* 00005C08, value 0x241F205F */]
00005DBA  22C8                     move.l     [A1]+, A0
00005DBC  41ED 093A                lea.l      A0, [A5 + 0x93A /* export_291, CODE:7 @ 00000038 */]
00005DC0  22C8                     move.l     [A1]+, A0
00005DC2  41ED 0932                lea.l      A0, [A5 + 0x932 /* export_290, CODE:7 @ 00000000 */]
00005DC6  22C8                     move.l     [A1]+, A0
00005DC8  41ED 0EBA                lea.l      A0, [A5 + 0xEBA /* export_467, CODE:24 @ 00000682 */]
00005DCC  22C8                     move.l     [A1]+, A0
00005DCE  41ED 0E5A                lea.l      A0, [A5 + 0xE5A /* export_455, CODE:20 @ 000004C0 */]
00005DD2  22C8                     move.l     [A1]+, A0
00005DD4  41ED 09B2                lea.l      A0, [A5 + 0x9B2 /* export_306, CODE:7 @ 000014BC */]
00005DD8  22C8                     move.l     [A1]+, A0
00005DDA  41FA FE7C                lea.l      A0, [PC - 0x184 /* 00005C58, value 0x3F780A58 '?x\nX', cstring "?x\
X" */]
00005DDE  22C8                     move.l     [A1]+, A0
00005DE0  41ED 09A2                lea.l      A0, [A5 + 0x9A2 /* export_304, CODE:7 @ 00000F14 */]
00005DE4  22C8                     move.l     [A1]+, A0
00005DE6  41FA FE86                lea.l      A0, [PC - 0x17A /* 00005C6E, value 0x225F205F '\"_ _' */]
00005DEA  22C8                     move.l     [A1]+, A0
00005DEC  41ED 0E4A                lea.l      A0, [A5 + 0xE4A /* export_453, CODE:20 @ 000000C8 */]
00005DF0  22C8                     move.l     [A1]+, A0
00005DF2  41FA A260                lea.l      A0, [PC - 0x5DA0 /* 00000054, value 0x4E560000 'NV\0\0', cstring "NV" */]
00005DF6  22C8                     move.l     [A1]+, A0
00005DF8  41FA BC14                lea.l      A0, [PC - 0x43EC /* 00001A0E, value 0x4E56FFEA */]
00005DFC  22C8                     move.l     [A1]+, A0
00005DFE  41FA FD5E                lea.l      A0, [PC - 0x2A2 /* 00005B5E, value 0x4E560000 'NV\0\0', cstring "NV" */]
00005E02  22C8                     move.l     [A1]+, A0
00005E04  41ED 0972                lea.l      A0, [A5 + 0x972 /* export_298, CODE:7 @ 00000A64 */]
00005E08  22C8                     move.l     [A1]+, A0
00005E0A  41FA D3BA                lea.l      A0, [PC - 0x2C46 /* 000031C6, value 0x4E56FFFE */]
00005E0E  22C8                     move.l     [A1]+, A0
00005E10  41FA D40C                lea.l      A0, [PC - 0x2BF4 /* 0000321E, value 0x4E560000 'NV\0\0', cstring "NV" */]
00005E14  22C8                     move.l     [A1]+, A0
00005E16  41FA FA90                lea.l      A0, [PC - 0x570 /* 000058A8, value 0x594F3F2F 'YO?/', cstring "YO?/" */]
00005E1A  22C8                     move.l     [A1]+, A0
00005E1C  41ED 0A62                lea.l      A0, [A5 + 0xA62 /* export_328, CODE:7 @ 00005940 */]
00005E20  22C8                     move.l     [A1]+, A0
00005E22  41ED 0A72                lea.l      A0, [A5 + 0xA72 /* export_330, CODE:7 @ 00005BAE */]
00005E26  22C8                     move.l     [A1]+, A0
00005E28  41ED 0A92                lea.l      A0, [A5 + 0xA92 /* export_334, CODE:7 @ 00006672 */]
00005E2C  22C8                     move.l     [A1]+, A0
00005E2E  41FA E82C                lea.l      A0, [PC - 0x17D4 /* 0000465C, value 0x4E56FFFC */]
00005E32  22C8                     move.l     [A1]+, A0
00005E34  41ED 09E2                lea.l      A0, [A5 + 0x9E2 /* export_312, CODE:7 @ 00001B6E */]
00005E38  22C8                     move.l     [A1]+, A0
00005E3A  41ED 09DA                lea.l      A0, [A5 + 0x9DA /* export_311, CODE:7 @ 00001AC6 */]
00005E3E  22C8                     move.l     [A1]+, A0
00005E40  41FA E3F2                lea.l      A0, [PC - 0x1C0E /* 00004234, value 0x4E56FFEE */]
00005E44  22C8                     move.l     [A1]+, A0
00005E46  41FA D3FC                lea.l      A0, [PC - 0x2C04 /* 00003244, value 0x4E56FFFC */]
00005E4A  22C8                     move.l     [A1]+, A0
00005E4C  41ED 0CCA                lea.l      A0, [A5 + 0xCCA /* export_405, CODE:13 @ 0000020C */]
00005E50  22C8                     move.l     [A1]+, A0
00005E52  41FA 0280                lea.l      A0, [PC + 0x280 /* 000060D4, value 0x4E56FED4 */]
00005E56  22C8                     move.l     [A1]+, A0
00005E58  41FA DA6A                lea.l      A0, [PC - 0x2596 /* 000038C4, value 0x4E56FFF0 */]
00005E5C  22C8                     move.l     [A1]+, A0
00005E5E  41FA F8B2                lea.l      A0, [PC - 0x74E /* 00005712, value 0x4E56FFF4 */]
00005E62  22C8                     move.l     [A1]+, A0
00005E64  41FA FAEE                lea.l      A0, [PC - 0x512 /* 00005954, value 0x61046102 */]
00005E68  22C8                     move.l     [A1]+, A0
00005E6A  41FA FC74                lea.l      A0, [PC - 0x38C /* 00005AE0, value 0x4E560000 'NV\0\0', cstring "NV" */]
00005E6E  22C8                     move.l     [A1]+, A0
00005E70  41ED 097A                lea.l      A0, [A5 + 0x97A /* export_299, CODE:7 @ 00000A90 */]
00005E74  22C8                     move.l     [A1]+, A0
00005E76  41FA F9F4                lea.l      A0, [PC - 0x60C /* 0000586C, value 0x205F201F */]
00005E7A  22C8                     move.l     [A1]+, A0
00005E7C  41FA A294                lea.l      A0, [PC - 0x5D6C /* 00000112, value 0x4E56FFFE */]
00005E80  22C8                     move.l     [A1]+, A0
00005E82  41FA CC46                lea.l      A0, [PC - 0x33BA /* 00002ACA, value 0x4E56FDE4 */]
00005E86  22C8                     move.l     [A1]+, A0
00005E88  41ED 0E0A                lea.l      A0, [A5 + 0xE0A /* export_445, CODE:18 @ 00000166 */]
00005E8C  22C8                     move.l     [A1]+, A0
00005E8E  41ED 0982                lea.l      A0, [A5 + 0x982 /* export_300, CODE:7 @ 00000ABC */]
00005E92  22C8                     move.l     [A1]+, A0
00005E94  41FA D416                lea.l      A0, [PC - 0x2BEA /* 000032AC, value 0x4E56FFFC */]
00005E98  22C8                     move.l     [A1]+, A0
00005E9A  41ED 0A12                lea.l      A0, [A5 + 0xA12 /* export_318, CODE:7 @ 000039A0 */]
00005E9E  22C8                     move.l     [A1]+, A0
00005EA0  41ED 0A42                lea.l      A0, [A5 + 0xA42 /* export_324, CODE:7 @ 00004A62 */]
00005EA4  22C8                     move.l     [A1]+, A0
00005EA6  41ED 0A32                lea.l      A0, [A5 + 0xA32 /* export_322, CODE:7 @ 00004768 */]
00005EAA  22C8                     move.l     [A1]+, A0
00005EAC  41ED 0D8A                lea.l      A0, [A5 + 0xD8A /* export_429, CODE:16 @ 00000686 */]
00005EB0  22C8                     move.l     [A1]+, A0
00005EB2  41ED 030A                lea.l      A0, [A5 + 0x30A /* export_93, CODE:2 @ 00000000 */]
00005EB6  22C8                     move.l     [A1]+, A0
00005EB8  41ED 031A                lea.l      A0, [A5 + 0x31A /* export_95, CODE:2 @ 00000138 */]
00005EBC  22C8                     move.l     [A1]+, A0
00005EBE  41FA CA7C                lea.l      A0, [PC - 0x3584 /* 0000293C, value 0x4E56FFEA */]
00005EC2  22C8                     move.l     [A1]+, A0
00005EC4  41FA F604                lea.l      A0, [PC - 0x9FC /* 000054CA, value 0x4E560000 'NV\0\0', cstring "NV" */]
00005EC8  22C8                     move.l     [A1]+, A0
00005ECA  41FA C97C                lea.l      A0, [PC - 0x3684 /* 00002848, value 0x4E56FEF6 */]
00005ECE  22C8                     move.l     [A1]+, A0
00005ED0  41FA A1C8                lea.l      A0, [PC - 0x5E38 /* 0000009A, value 0x4E560000 'NV\0\0', cstring "NV" */]
00005ED4  22C8                     move.l     [A1]+, A0
00005ED6  41FA CD58                lea.l      A0, [PC - 0x32A8 /* 00002C30, value 0x4E56FFFE */]
00005EDA  22C8                     move.l     [A1]+, A0
00005EDC  41FA A1D6                lea.l      A0, [PC - 0x5E2A /* 000000B4, value 0x4E560000 'NV\0\0', cstring "NV" */]
00005EE0  22C8                     move.l     [A1]+, A0
00005EE2  41ED 0D82                lea.l      A0, [A5 + 0xD82 /* export_428, CODE:16 @ 000002E8 */]
00005EE6  22C8                     move.l     [A1]+, A0
00005EE8  41FA D02A                lea.l      A0, [PC - 0x2FD6 /* 00002F14, value 0x4E56FEFE */]
00005EEC  22C8                     move.l     [A1]+, A0
00005EEE  41ED 0D72                lea.l      A0, [A5 + 0xD72 /* export_426, CODE:16 @ 0000004E */]
00005EF2  22C8                     move.l     [A1]+, A0
00005EF4  41FA DC3E                lea.l      A0, [PC - 0x23C2 /* 00003B34, value 0x4E56FFFA */]
00005EF8  22C8                     move.l     [A1]+, A0
00005EFA  41ED 0992                lea.l      A0, [A5 + 0x992 /* export_302, CODE:7 @ 00000D26 */]
00005EFE  22C8                     move.l     [A1]+, A0
00005F00  41ED 0952                lea.l      A0, [A5 + 0x952 /* export_294, CODE:7 @ 00000516 */]
00005F04  22C8                     move.l     [A1]+, A0
00005F06  41ED 0A7A                lea.l      A0, [A5 + 0xA7A /* export_331, CODE:7 @ 00006104 */]
00005F0A  22C8                     move.l     [A1]+, A0
00005F0C  41FA F63E                lea.l      A0, [PC - 0x9C2 /* 0000554C, value 0x4E56FF00 */]
00005F10  22C8                     move.l     [A1]+, A0
00005F12  41FA F082                lea.l      A0, [PC - 0xF7E /* 00004F96, value 0x4E56FFFE */]
00005F16  22C8                     move.l     [A1]+, A0
00005F18  41ED 0962                lea.l      A0, [A5 + 0x962 /* export_296, CODE:7 @ 000006CC */]
00005F1C  22C8                     move.l     [A1]+, A0
00005F1E  41ED 0E02                lea.l      A0, [A5 + 0xE02 /* export_444, CODE:17 @ 0000065C */]
00005F22  22C8                     move.l     [A1]+, A0
00005F24  41ED 0DF2                lea.l      A0, [A5 + 0xDF2 /* export_442, CODE:17 @ 000001AE */]
00005F28  22C8                     move.l     [A1]+, A0
00005F2A  41FA C16E                lea.l      A0, [PC - 0x3E92 /* 0000209A, value 0x4E560000 'NV\0\0', cstring "NV" */]
00005F2E  22C8                     move.l     [A1]+, A0
00005F30  41ED 0A2A                lea.l      A0, [A5 + 0xA2A /* export_321, CODE:7 @ 000044B8 */]
00005F34  22C8                     move.l     [A1]+, A0
00005F36  41ED 0E1A                lea.l      A0, [A5 + 0xE1A /* export_447, CODE:19 @ 00000000 */]
00005F3A  22C8                     move.l     [A1]+, A0
00005F3C  41FA CF0C                lea.l      A0, [PC - 0x30F4 /* 00002E4A, value 0x4E56FDF8 */]
00005F40  22C8                     move.l     [A1]+, A0
00005F42  41FA E40A                lea.l      A0, [PC - 0x1BF6 /* 0000434E, value 0x4E560000 'NV\0\0', cstring "NV" */]
00005F46  22C8                     move.l     [A1]+, A0
00005F48  41ED 0CB2                lea.l      A0, [A5 + 0xCB2 /* export_402, CODE:12 @ 000009DA */]
00005F4C  22C8                     move.l     [A1]+, A0
00005F4E  41FA A172                lea.l      A0, [PC - 0x5E8E /* 000000C2, value 0x4E56FFF4 */]
00005F52  22C8                     move.l     [A1]+, A0
00005F54  41ED 088A                lea.l      A0, [A5 + 0x88A /* export_269, CODE:4 @ 00000054 */]
00005F58  22C8                     move.l     [A1]+, A0
00005F5A  41ED 0892                lea.l      A0, [A5 + 0x892 /* export_270, CODE:4 @ 000000E0 */]
00005F5E  22C8                     move.l     [A1]+, A0
00005F60  41ED 089A                lea.l      A0, [A5 + 0x89A /* export_271, CODE:4 @ 00000144 */]
00005F64  22C8                     move.l     [A1]+, A0
00005F66  41ED 08A2                lea.l      A0, [A5 + 0x8A2 /* export_272, CODE:4 @ 000001AA */]
00005F6A  22C8                     move.l     [A1]+, A0
00005F6C  41ED 08AA                lea.l      A0, [A5 + 0x8AA /* export_273, CODE:4 @ 00000222 */]
00005F70  22C8                     move.l     [A1]+, A0
00005F72  41ED 0DE2                lea.l      A0, [A5 + 0xDE2 /* export_440, CODE:16 @ 00001A8E */]
00005F76  22C8                     move.l     [A1]+, A0
00005F78  41ED 0942                lea.l      A0, [A5 + 0x942 /* export_292, CODE:7 @ 000001AC */]
00005F7C  22C8                     move.l     [A1]+, A0
00005F7E  41ED 08B2                lea.l      A0, [A5 + 0x8B2 /* export_274, CODE:4 @ 0000026E */]
00005F82  22C8                     move.l     [A1]+, A0
00005F84  41ED 0E42                lea.l      A0, [A5 + 0xE42 /* export_452, CODE:20 @ 00000000 */]
00005F88  22C8                     move.l     [A1]+, A0
00005F8A  41FA D372                lea.l      A0, [PC - 0x2C8E /* 000032FE, value 0x4E56FFFE */]
00005F8E  22C8                     move.l     [A1]+, A0
00005F90  41ED 08DA                lea.l      A0, [A5 + 0x8DA /* export_279, CODE:4 @ 000003CE */]
00005F94  22C8                     move.l     [A1]+, A0
00005F96  41ED 08E2                lea.l      A0, [A5 + 0x8E2 /* export_280, CODE:4 @ 00000434 */]
00005F9A  22C8                     move.l     [A1]+, A0
00005F9C  41ED 0372                lea.l      A0, [A5 + 0x372 /* export_106, CODE:2 @ 000020DC */]
00005FA0  22C8                     move.l     [A1]+, A0
00005FA2  41ED 037A                lea.l      A0, [A5 + 0x37A /* export_107, CODE:2 @ 0000212C */]
00005FA6  22C8                     move.l     [A1]+, A0
00005FA8  41FA DDA8                lea.l      A0, [PC - 0x2258 /* 00003D52, value 0x4E560000 'NV\0\0', cstring "NV" */]
00005FAC  22C8                     move.l     [A1]+, A0
00005FAE  41ED 0E12                lea.l      A0, [A5 + 0xE12 /* export_446, CODE:18 @ 00000380 */]
00005FB2  22C8                     move.l     [A1]+, A0
00005FB4  41FA F556                lea.l      A0, [PC - 0xAAA /* 0000550C, value 0x4E560000 'NV\0\0', cstring "NV" */]
00005FB8  22C8                     move.l     [A1]+, A0
00005FBA  41FA 11DC                lea.l      A0, [PC + 0x11DC /* 00007198, value 0x4E56FFFC */]
00005FBE  22C8                     move.l     [A1]+, A0
00005FC0  41FA 1232                lea.l      A0, [PC + 0x1232 /* 000071F4, value 0x4E56FFFC */]
00005FC4  22C8                     move.l     [A1]+, A0
00005FC6  41FA A0E0                lea.l      A0, [PC - 0x5F20 /* 000000A8, value 0x4E560000 'NV\0\0', cstring "NV" */]
00005FCA  22C8                     move.l     [A1]+, A0
00005FCC  41FA A0A6                lea.l      A0, [PC - 0x5F5A /* 00000074, value 0x4E560000 'NV\0\0', cstring "NV" */]
00005FD0  22C8                     move.l     [A1]+, A0
00005FD2  41FA A0A0                lea.l      A0, [PC - 0x5F60 /* 00000074, value 0x4E560000 'NV\0\0', cstring "NV" */]
00005FD6  22C8                     move.l     [A1]+, A0
00005FD8  41FA A09A                lea.l      A0, [PC - 0x5F66 /* 00000074, value 0x4E560000 'NV\0\0', cstring "NV" */]
00005FDC  22C8                     move.l     [A1]+, A0
00005FDE  41FA A094                lea.l      A0, [PC - 0x5F6C /* 00000074, value 0x4E560000 'NV\0\0', cstring "NV" */]
00005FE2  22C8                     move.l     [A1]+, A0
00005FE4  41FA A08E                lea.l      A0, [PC - 0x5F72 /* 00000074, value 0x4E560000 'NV\0\0', cstring "NV" */]
00005FE8  22C8                     move.l     [A1]+, A0
00005FEA  41FA A088                lea.l      A0, [PC - 0x5F78 /* 00000074, value 0x4E560000 'NV\0\0', cstring "NV" */]
00005FEE  22C8                     move.l     [A1]+, A0
00005FF0  41FA A082                lea.l      A0, [PC - 0x5F7E /* 00000074, value 0x4E560000 'NV\0\0', cstring "NV" */]
00005FF4  22C8                     move.l     [A1]+, A0
00005FF6  41FA A07C                lea.l      A0, [PC - 0x5F84 /* 00000074, value 0x4E560000 'NV\0\0', cstring "NV" */]
00005FFA  22C8                     move.l     [A1]+, A0
00005FFC  41ED 0C52                lea.l      A0, [A5 + 0xC52 /* export_390, CODE:11 @ 00000272 */]
00006000  22C8                     move.l     [A1]+, A0
00006002  41ED 0C5A                lea.l      A0, [A5 + 0xC5A /* export_391, CODE:11 @ 00000466 */]
00006006  22C8                     move.l     [A1]+, A0
00006008  41ED 0C62                lea.l      A0, [A5 + 0xC62 /* export_392, CODE:11 @ 00000510 */]
0000600C  22C8                     move.l     [A1]+, A0
0000600E  41ED 0C6A                lea.l      A0, [A5 + 0xC6A /* export_393, CODE:11 @ 000005E8 */]
00006012  22C8                     move.l     [A1]+, A0
00006014  41ED 0C72                lea.l      A0, [A5 + 0xC72 /* export_394, CODE:11 @ 00000660 */]
00006018  22C8                     move.l     [A1]+, A0
0000601A  41ED 0C7A                lea.l      A0, [A5 + 0xC7A /* export_395, CODE:11 @ 000006D6 */]
0000601E  22C8                     move.l     [A1]+, A0
00006020  41ED 0C82                lea.l      A0, [A5 + 0xC82 /* export_396, CODE:11 @ 00000816 */]
00006024  22C8                     move.l     [A1]+, A0
00006026  41ED 0C8A                lea.l      A0, [A5 + 0xC8A /* export_397, CODE:11 @ 0000083A */]
0000602A  22C8                     move.l     [A1]+, A0
0000602C  41ED 0C92                lea.l      A0, [A5 + 0xC92 /* export_398, CODE:11 @ 000008BC */]
00006030  22C8                     move.l     [A1]+, A0
00006032  41ED 0C9A                lea.l      A0, [A5 + 0xC9A /* export_399, CODE:11 @ 00000986 */]
00006036  22C8                     move.l     [A1]+, A0
00006038  41ED 0CA2                lea.l      A0, [A5 + 0xCA2 /* export_400, CODE:11 @ 000009F6 */]
0000603C  22C8                     move.l     [A1]+, A0
0000603E  41ED 0AE2                lea.l      A0, [A5 + 0xAE2 /* export_344, CODE:9 @ 00000316 */]
00006042  22C8                     move.l     [A1]+, A0
00006044  41ED 0AF2                lea.l      A0, [A5 + 0xAF2 /* export_346, CODE:9 @ 000007EE */]
00006048  22C8                     move.l     [A1]+, A0
0000604A  41ED 0B02                lea.l      A0, [A5 + 0xB02 /* export_348, CODE:9 @ 0000152E */]
0000604E  22C8                     move.l     [A1]+, A0
00006050  41ED 0AEA                lea.l      A0, [A5 + 0xAEA /* export_345, CODE:9 @ 0000041C */]
00006054  22C8                     move.l     [A1]+, A0
00006056  41ED 0B42                lea.l      A0, [A5 + 0xB42 /* export_356, CODE:9 @ 000039F0 */]
0000605A  22C8                     move.l     [A1]+, A0
0000605C  41ED 0B52                lea.l      A0, [A5 + 0xB52 /* export_358, CODE:9 @ 00004A92 */]
00006060  22C8                     move.l     [A1]+, A0
00006062  41ED 0AFA                lea.l      A0, [A5 + 0xAFA /* export_347, CODE:9 @ 0000147E */]
00006066  22C8                     move.l     [A1]+, A0
00006068  41ED 0C32                lea.l      A0, [A5 + 0xC32 /* export_386, CODE:10 @ 00003666 */]
0000606C  22C8                     move.l     [A1]+, A0
0000606E  41ED 0C3A                lea.l      A0, [A5 + 0xC3A /* export_387, CODE:10 @ 000037E0 */]
00006072  22C8                     move.l     [A1]+, A0
00006074  2040                     movea.l    A0, D0
00006076  4ED0                     jmp        [A0]
00006078  884A 756D 7049 6E69 7... dc.b       "JumpInit"
export_79:
00006084  4E56 0000                link       A6, 0
00006088  42AE 0010                clr.l      [A6 + 0x10]
0000608C  4CEE 0006 0008           movem.l    D1,D2, [A6 + 0x8]
00006092  2038 09D6                move.l     D0, [0x000009D6 /* WindowList */]
00006096  6726                     beq        +0x28 /* 000060BE */
label00006098:
00006098  2240                     movea.l    A1, D0
0000609A  0C69 0080 006C           cmpi.w     [A1 + 0x6C], 0x80
000060A0  6D16                     blt        +0x18 /* 000060B8 */
000060A2  2069 0098                movea.l    A0, [A1 + 0x98]
000060A6  2050                     movea.l    A0, [A0]
000060A8  B290                     cmp.l      D1, [A0]
000060AA  660C                     bne        +0xE /* 000060B8 */
000060AC  B4A8 0118                cmp.l      D2, [A0 + 0x118]
000060B0  6606                     bne        +0x8 /* 000060B8 */
000060B2  2D49 0010                move.l     [A6 + 0x10], A1
000060B6  6006                     bra        +0x8 /* 000060BE */
label000060B8:
000060B8  2029 0090                move.l     D0, [A1 + 0x90]
000060BC  66DA                     bne        -0x24 /* 00006098 */
label000060BE:
000060BE  4E5E                     unlink     A6
000060C0  205F                     movea.l    A0, [A7]+
000060C2  504F                     addq.w     A7, 8
000060C4  4ED0                     jmp        [A0]
000060C6  8A50 6963 6B57 696E 6... dc.b       "PickWindow"
000060D4  4E56 FED4                link       A6, -0x012C
000060D8  2F2E 000C                move.l     -[A7], [A6 + 0xC]
000060DC  4878 09FA                push.l     0x9FA
000060E0  42A7                     clr.l      -[A7]
000060E2  486E FED4                pea.l      [A6 - 0x12C]
000060E6  A9A8                     syscall    GetResInfo
000060E8  4A2E FED4                tst.b      [A6 - 0x12C]
000060EC  672C                     beq        +0x2E /* 0000611A */
000060EE  2F2E 0008                move.l     -[A7], [A6 + 0x8]
000060F2  487A 006C                pea.l      [PC + 0x6C /* 00006160, value 0x1204A46 */]
000060F6  4EBA FB10                jsr        [PC - 0x4F0 /* 00005C08 */]
000060FA  2F2E 0008                move.l     -[A7], [A6 + 0x8]
000060FE  2F17                     move.l     -[A7], [A7]
00006100  2F17                     move.l     -[A7], [A7]
00006102  487A 0050                pea.l      [PC + 0x50 /* 00006154, value 0x1D201D3 */]
00006106  4EBA FB00                jsr        [PC - 0x500 /* 00005C08 */]
0000610A  486E FED4                pea.l      [A6 - 0x12C]
0000610E  4EBA FAF8                jsr        [PC - 0x508 /* 00005C08 */]
00006112  487A 0042                pea.l      [PC + 0x42 /* 00006156, value 0x1D30620 */]
00006116  4EBA FAF0                jsr        [PC - 0x510 /* 00005C08 */]
label0000611A:
0000611A  2F2E 0008                move.l     -[A7], [A6 + 0x8]
0000611E  2F17                     move.l     -[A7], [A7]
00006120  487A 0036                pea.l      [PC + 0x36 /* 00006158, value 0x6204944, pstring " ID = " */]
00006124  4EBA FAE2                jsr        [PC - 0x51E /* 00005C08 */]
00006128  3038 09FA                move.w     D0, [0x000009FA /* TempRect/Scratch8 */]
0000612C  48C0                     ext.l      D0
0000612E  2F00                     move.l     -[A7], D0
00006130  486E FED4                pea.l      [A6 - 0x12C]
00006134  4EAD 074A                jsr        [A5 + 0x74A /* export_229, CODE:3 @ 0000367E */]
00006138  486E FED4                pea.l      [A6 - 0x12C]
0000613C  4EBA FACA                jsr        [PC - 0x536 /* 00005C08 */]
00006140  4E5E                     unlink     A6
00006142  205F                     movea.l    A0, [A7]+
00006144  504F                     addq.w     A7, 8
00006146  4ED0                     jmp        [A0]
00006148  8953 6574 4554 6974 6... dc.b       "SetETitle"
00006154  01D2                     .incomplete
00006156  01D3                     .incomplete
00006158  0620 4944                addi.b     -[A0], 0x44 /* 'D' */
0000615C  203D                     move.l     D0, <<invalid special address>>
0000615E  2020                     move.l     D0, -[A0]
00006160  0120                     btst       -[A0], D0
fn00006162:
00006162  4A46                     tst.w      D6
00006164  6B4E                     bmi        +0x50 /* 000061B4 */
00006166  6604                     bne        +0x6 /* 0000616C */
00006168  3C38 0A58                move.w     D6, [0x00000A58 /* SysMap */]
label0000616C:
0000616C  2878 0A50                movea.l    A4, [0x00000A50 /* TopMapHndl */]
00006170  7000                     moveq.l    D0, 0x00
00006172  6008                     bra        +0xA /* 0000617C */
label00006174:
00006174  202B 0010                move.l     D0, [A3 + 0x10]
00006178  673A                     beq        +0x3C /* 000061B4 */
0000617A  C18C                     exg        D0, A4
label0000617C:
0000617C  2654                     movea.l    A3, [A4]
0000617E  BC6B 0014                cmp.w      D6, [A3 + 0x14]
00006182  66F0                     bne        -0xE /* 00006174 */
00006184  244B                     movea.l    A2, A3
00006186  4E75                     rts
fn00006188:
00006188  2654                     movea.l    A3, [A4]
0000618A  D6EB 0018                add.w      A3, [A3 + 0x18]
0000618E  244B                     movea.l    A2, A3
00006190  3A1A                     move.w     D5, [A2]+
00006192  4E75                     rts
fn00006194:
00006194  61F2                     bsr        -0xC /* 00006188 */
00006196  6B1C                     bmi        +0x1E /* 000061B4 */
label00006198:
00006198  B692                     cmp.l      D3, [A2]
0000619A  6714                     beq        +0x16 /* 000061B0 */
0000619C  504A                     addq.w     A2, 8
0000619E  51CD FFF8                dbf        D5, -0xA /* 00006198 */
000061A2  6010                     bra        +0x12 /* 000061B4 */
fn000061A4:
000061A4  382A 0004                move.w     D4, [A2 + 0x4]
000061A8  346A 0006                movea.w    A2, [A2 + 0x6]
000061AC  D5CB                     add.l      A2, A3
000061AE  4E75                     rts
label000061B0:
000061B0  7000                     moveq.l    D0, 0x00
000061B2  4E75                     rts
label000061B4:
000061B4  70FF                     moveq.l    D0, 0xFFFFFFFF
000061B6  4E75                     rts
fn000061B8:
000061B8  45EA 000C                lea.l      A2, [A2 + 0xC]
000061BC  5344                     subq.w     D4, 1
000061BE  6AF0                     bpl        -0xE /* 000061B0 */
000061C0  5345                     subq.w     D5, 1
000061C2  6BF0                     bmi        -0xE /* 000061B4 */
000061C4  3013                     move.w     D0, [A3]
000061C6  9045                     sub.w      D0, D5
000061C8  E740                     asl        D0.w, 3
000061CA  2633 0002                move.l     D3, [A3 + D0.w + 0x2]
000061CE  3833 0006                move.w     D4, [A3 + D0.w + 0x6]
000061D2  7001                     moveq.l    D0, 0x01
000061D4  4E75                     rts
fn000061D6:
000061D6  618A                     bsr        -0x74 /* 00006162 */
000061D8  2601                     move.l     D3, D1
000061DA  61B8                     bsr        -0x46 /* 00006194 */
000061DC  6B0A                     bmi        +0xC /* 000061E8 */
000061DE  61C4                     bsr        -0x3A /* 000061A4 */
label000061E0:
000061E0  5347                     subq.w     D7, 1
000061E2  6706                     beq        +0x8 /* 000061EA */
000061E4  61D2                     bsr        -0x2C /* 000061B8 */
000061E6  67F8                     beq        -0x6 /* 000061E0 */
label000061E8:
000061E8  70FF                     moveq.l    D0, 0xFFFFFFFF
label000061EA:
000061EA  4E75                     rts
fn000061EC:
000061EC  4278 0A60                clr.w      [0x00000A60 /* ResErr */]
000061F0  205F                     movea.l    A0, [A7]+
000061F2  4E56 FFCE                link       A6, -0x0032
000061F6  48E7 7F7C                movem.l    -[A7], D1,D2,D3,D4,D5,D6,D7,A1,A2,A3,A4,A5
000061FA  2F08                     move.l     -[A7], A0
000061FC  41EE 0008                lea.l      A0, [A6 + 0x8]
00006200  4E75                     rts
label00006202:
00006202  4CDF 3EFE                movem.l    D1,D2,D3,D4,D5,D6,D7,A1,A2,A3,A4,A5, [A7]+
00006206  4E5E                     unlink     A6
00006208  205F                     movea.l    A0, [A7]+
0000620A  DFC0                     add.l      A7, D0
0000620C  2F08                     move.l     -[A7], A0
0000620E  3038 0A60                move.w     D0, [0x00000A60 /* ResErr */]
00006212  6708                     beq        +0xA /* 0000621C */
00006214  2F38 0AF2                move.l     -[A7], [0x00000AF2 /* ResErrProc */]
00006218  6602                     bne        +0x4 /* 0000621C */
0000621A  584F                     addq.w     A7, 4
label0000621C:
0000621C  4E75                     rts
export_83:
0000621E  61CC                     bsr        -0x32 /* 000061EC */
00006220  2218                     move.l     D1, [A0]+
00006222  3E18                     move.w     D7, [A0]+
00006224  2618                     move.l     D3, [A0]+
00006226  2418                     move.l     D2, [A0]+
00006228  3C10                     move.w     D6, [A0]
0000622A  6100 FF36                bsr        -0xC8 /* 00006162 */
0000622E  6100 FF64                bsr        -0x9A /* 00006194 */
00006232  6B14                     bmi        +0x16 /* 00006248 */
00006234  6100 FF6E                bsr        -0x90 /* 000061A4 */
label00006238:
00006238  BE52                     cmp.w      D7, [A2]
0000623A  6606                     bne        +0x8 /* 00006242 */
0000623C  B2AA 0008                cmp.l      D1, [A2 + 0x8]
00006240  670E                     beq        +0x10 /* 00006250 */
label00006242:
00006242  6100 FF74                bsr        -0x8A /* 000061B8 */
00006246  67F0                     beq        -0xE /* 00006238 */
label00006248:
00006248  31FC FF40 0A60           move.w     [0x00000A60 /* ResErr */], 0xFF40
0000624E  6014                     bra        +0x16 /* 00006264 */
label00006250:
00006250  0282 00FF FFFF           andi.l     D2, 0xFFFFFF
00006256  2E3C FF00 0000           move.l     D7, 0xFF000000
0000625C  CFAA 0004                and.l      [A2 + 0x4], D7
00006260  85AA 0004                or.l       [A2 + 0x4], D2
label00006264:
00006264  4EBA F626                jsr        [PC - 0x9DA /* 0000588C */]
00006268  7010                     moveq.l    D0, 0x10
0000626A  6096                     bra        -0x68 /* 00006202 */
export_82:
fn0000626C:
0000626C  6100 FF7E                bsr        -0x80 /* 000061EC */
00006270  3418                     move.w     D2, [A0]+
00006272  3E18                     move.w     D7, [A0]+
00006274  2618                     move.l     D3, [A0]+
00006276  3C10                     move.w     D6, [A0]
00006278  6100 FEE8                bsr        -0x116 /* 00006162 */
0000627C  6100 FF16                bsr        -0xE8 /* 00006194 */
00006280  6B0E                     bmi        +0x10 /* 00006290 */
00006282  6100 FF20                bsr        -0xDE /* 000061A4 */
label00006286:
00006286  BE52                     cmp.w      D7, [A2]
00006288  670E                     beq        +0x10 /* 00006298 */
0000628A  6100 FF2C                bsr        -0xD2 /* 000061B8 */
0000628E  67F6                     beq        -0x8 /* 00006286 */
label00006290:
00006290  31FC FF40 0A60           move.w     [0x00000A60 /* ResErr */], 0xFF40
00006296  6002                     bra        +0x4 /* 0000629A */
label00006298:
00006298  3482                     move.w     [A2], D2
label0000629A:
0000629A  4EBA F5F0                jsr        [PC - 0xA10 /* 0000588C */]
0000629E  700A                     moveq.l    D0, 0x0A
000062A0  6000 FF60                bra        -0x9E /* 00006202 */
export_81:
000062A4  6100 FF46                bsr        -0xB8 /* 000061EC */
000062A8  3E18                     move.w     D7, [A0]+
000062AA  6F0E                     ble        +0x10 /* 000062BA */
000062AC  3418                     move.w     D2, [A0]+
000062AE  2218                     move.l     D1, [A0]+
000062B0  3C18                     move.w     D6, [A0]+
000062B2  6100 FF22                bsr        -0xDC /* 000061D6 */
000062B6  6B02                     bmi        +0x4 /* 000062BA */
000062B8  3482                     move.w     [A2], D2
label000062BA:
000062BA  4EBA F5D0                jsr        [PC - 0xA30 /* 0000588C */]
000062BE  700A                     moveq.l    D0, 0x0A
000062C0  6000 FF40                bra        -0xBE /* 00006202 */
000062C4  6100 FF26                bsr        -0xD8 /* 000061EC */
000062C8  3E18                     move.w     D7, [A0]+
000062CA  2618                     move.l     D3, [A0]+
000062CC  3C10                     move.w     D6, [A0]
000062CE  6100 FE92                bsr        -0x16C /* 00006162 */
000062D2  6100 FEC0                bsr        -0x13E /* 00006194 */
000062D6  6B0E                     bmi        +0x10 /* 000062E6 */
000062D8  6100 FECA                bsr        -0x134 /* 000061A4 */
label000062DC:
000062DC  BE52                     cmp.w      D7, [A2]
000062DE  670E                     beq        +0x10 /* 000062EE */
000062E0  6100 FED6                bsr        -0x128 /* 000061B8 */
000062E4  67F6                     beq        -0x8 /* 000062DC */
label000062E6:
000062E6  31FC FF40 0A60           move.w     [0x00000A60 /* ResErr */], 0xFF40
000062EC  6004                     bra        +0x6 /* 000062F2 */
label000062EE:
000062EE  42AA 0008                clr.l      [A2 + 0x8]
label000062F2:
000062F2  4EBA F598                jsr        [PC - 0xA68 /* 0000588C */]
000062F6  7008                     moveq.l    D0, 0x08
000062F8  6000 FF08                bra        -0xF6 /* 00006202 */
fn000062FC:
000062FC  6100 FEEE                bsr        -0x110 /* 000061EC */
00006300  3E18                     move.w     D7, [A0]+
00006302  2618                     move.l     D3, [A0]+
00006304  3C2E 0016                move.w     D6, [A6 + 0x16]
00006308  6100 FE58                bsr        -0x1A6 /* 00006162 */
0000630C  6100 FE86                bsr        -0x178 /* 00006194 */
00006310  6B14                     bmi        +0x16 /* 00006326 */
00006312  6100 FE90                bsr        -0x16E /* 000061A4 */
00006316  7201                     moveq.l    D1, 0x01
label00006318:
00006318  BE52                     cmp.w      D7, [A2]
0000631A  671E                     beq        +0x20 /* 0000633A */
0000631C  6100 FE9A                bsr        -0x164 /* 000061B8 */
00006320  6604                     bne        +0x6 /* 00006326 */
00006322  5241                     addq.w     D1, 1
00006324  60F2                     bra        -0xC /* 00006318 */
label00006326:
00006326  226E 0012                movea.l    A1, [A6 + 0x12]
0000632A  4299                     clr.l      [A1]+
0000632C  4299                     clr.l      [A1]+
0000632E  4291                     clr.l      [A1]
00006330  7200                     moveq.l    D1, 0x00
00006332  31FC FF40 0A60           move.w     [0x00000A60 /* ResErr */], 0xFF40
00006338  600C                     bra        +0xE /* 00006346 */
label0000633A:
0000633A  226E 0012                movea.l    A1, [A6 + 0x12]
0000633E  204A                     movea.l    A0, A2
00006340  22D8                     move.l     [A1]+, [A0]+
00006342  22D8                     move.l     [A1]+, [A0]+
00006344  2290                     move.l     [A1], [A0]
label00006346:
00006346  226E 000E                movea.l    A1, [A6 + 0xE]
0000634A  3281                     move.w     [A1], D1
0000634C  4EBA F53E                jsr        [PC - 0xAC2 /* 0000588C */]
00006350  7010                     moveq.l    D0, 0x10
00006352  6000 FEAE                bra        -0x150 /* 00006202 */
export_80:
00006356  6100 FE94                bsr        -0x16A /* 000061EC */
0000635A  3C2E 0012                move.w     D6, [A6 + 0x12]
0000635E  3E18                     move.w     D7, [A0]+
00006360  6F16                     ble        +0x18 /* 00006378 */
00006362  2218                     move.l     D1, [A0]+
00006364  6100 FE70                bsr        -0x18E /* 000061D6 */
00006368  6B0E                     bmi        +0x10 /* 00006378 */
0000636A  226E 000E                movea.l    A1, [A6 + 0xE]
0000636E  204A                     movea.l    A0, A2
00006370  22D8                     move.l     [A1]+, [A0]+
00006372  22D8                     move.l     [A1]+, [A0]+
00006374  2290                     move.l     [A1], [A0]
00006376  6010                     bra        +0x12 /* 00006388 */
label00006378:
00006378  226E 000E                movea.l    A1, [A6 + 0xE]
0000637C  4299                     clr.l      [A1]+
0000637E  4299                     clr.l      [A1]+
00006380  4291                     clr.l      [A1]
00006382  31FC FF40 0A60           move.w     [0x00000A60 /* ResErr */], 0xFF40
label00006388:
00006388  4EBA F502                jsr        [PC - 0xAFE /* 0000588C */]
0000638C  700C                     moveq.l    D0, 0x0C
0000638E  6000 FE72                bra        -0x18C /* 00006202 */
export_84:
fn00006392:
00006392  1F78 0A5E 0004           move.b     [A7 + 0x4], [0x00000A5E /* ResLoad */]
00006398  4E75                     rts
export_85:
0000639A  4E56 0000                link       A6, 0
0000639E  4AAE 0008                tst.l      [A6 + 0x8]
000063A2  660A                     bne        +0xC /* 000063AE */
000063A4  3F3C FF94                move.w     -[A7], 0xFF94
000063A8  42A7                     clr.l      -[A7]
000063AA  4EBA 0008                jsr        [PC + 0x8 /* 000063B4 */]
label000063AE:
000063AE  4E5E                     unlink     A6
000063B0  2E9F                     move.l     [A7], [A7]+
000063B2  4E75                     rts
fn000063B4:
000063B4  4E56 FFF4                link       A6, -0x000C
000063B8  48E7 0018                movem.l    -[A7], A3,A4
000063BC  286D F9D8                movea.l    A4, [A5 - 0x628]
000063C0  200C                     move.l     D0, A4
000063C2  6714                     beq        +0x16 /* 000063D8 */
000063C4  396E 000C 002C           move.w     [A4 + 0x2C], [A6 + 0xC]
000063CA  296E 0008 002E           move.l     [A4 + 0x2E], [A6 + 0x8]
000063D0  2F0C                     move.l     -[A7], A4
000063D2  4EBA 0162                jsr        [PC + 0x162 /* 00006536 */]
000063D6  6024                     bra        +0x26 /* 000063FC */
label000063D8:
000063D8  4AAD F9D4                tst.l      [A5 - 0x62C]
000063DC  671C                     beq        +0x1E /* 000063FA */
000063DE  266D F9D4                movea.l    A3, [A5 - 0x62C]
000063E2  7000                     moveq.l    D0, 0x00
000063E4  2B40 F9D4                move.l     [A5 - 0x62C], D0
000063E8  3F2E 000C                move.w     -[A7], [A6 + 0xC]
000063EC  2F2E 0008                move.l     -[A7], [A6 + 0x8]
000063F0  2F0B                     move.l     -[A7], A3
000063F2  205F                     movea.l    A0, [A7]+
000063F4  4E90                     jsr        [A0]
000063F6  A9F4                     syscall    ExitToShell
000063F8  6002                     bra        +0x4 /* 000063FC */
label000063FA:
000063FA  A9FF                     syscall    Debugger
label000063FC:
000063FC  4CDF 1800                movem.l    A3,A4, [A7]+
00006400  4E5E                     unlink     A6
00006402  205F                     movea.l    A0, [A7]+
00006404  5C4F                     addq.w     A7, 6
00006406  4ED0                     jmp        [A0]
fn00006408:
00006408  4E56 0000                link       A6, 0
0000640C  206E 0008                movea.l    A0, [A6 + 0x8]
00006410  2B68 003A F9D8           move.l     [A5 - 0x628], [A0 + 0x3A]
00006416  4E5E                     unlink     A6
00006418  2E9F                     move.l     [A7], [A7]+
0000641A  4E75                     rts
0000641C  3C7C FFFF                movea.w    A6, 0xFFFF
export_86:
00006420  42AD F9D8                clr.l      [A5 - 0x628]
00006424  42AD F9D4                clr.l      [A5 - 0x62C]
00006428  203C 0000 0240           move.l     D0, 0x240
0000642E  A11E                     syscall    NewPtr, flags=1
00006430  6614                     bne        +0x16 /* 00006446 */
00006432  2B48 F9E4                move.l     [A5 - 0x61C], A0
00006436  2B7C FFFF FFB8 F9E0      move.l     [A5 - 0x620], 0xFFFFFFB8
0000643E  2B7C 0000 0240 F9DC      move.l     [A5 - 0x624], 0x240
label00006446:
00006446  4E75                     rts
export_87:
00006448  225F                     movea.l    A1, [A7]+
0000644A  2409                     move.l     D2, A1
0000644C  7201                     moveq.l    D1, 0x01
0000644E  4257                     clr.w      [A7]
00006450  202D F9E4                move.l     D0, [A5 - 0x61C]
00006454  6700 00DE                beq        +0xE0 /* 00006534 */
00006458  2040                     movea.l    A0, D0
0000645A  202D F9E0                move.l     D0, [A5 - 0x620]
0000645E  0680 0000 0048           addi.l     D0, 0x48 /* 'H' */
00006464  2B40 F9E0                move.l     [A5 - 0x620], D0
00006468  B0AD F9DC                cmp.l      D0, [A5 - 0x624]
0000646C  6616                     bne        +0x18 /* 00006484 */
0000646E  2B6D F9E0 F9DC           move.l     [A5 - 0x624], [A5 - 0x620]
00006474  7048                     moveq.l    D0, 0x48
00006476  91AD F9E0                sub.l      [A5 - 0x620], D0
0000647A  3F7C 00C8 0004           move.w     [A7 + 0x4], 0xC8
00006480  4EBA 00A0                jsr        [PC + 0xA0 /* 00006522 */]
label00006484:
00006484  D1C0                     add.l      A0, D0
00006486  2008                     move.l     D0, A0
00006488  3141 0042                move.w     [A0 + 0x42], D1
0000648C  6F16                     ble        +0x18 /* 000064A4 */
0000648E  BCFC FFFF                cmpa.w     A6, 0xFFFF
00006492  6710                     beq        +0x12 /* 000064A4 */
00006494  216E 0004 0044           move.l     [A0 + 0x44], [A6 + 0x4]
0000649A  41FA 002E                lea.l      A0, [PC + 0x2E /* 000064CA, value 0x2F00206D '/\0 m', cstring "/" */]
0000649E  2D48 0004                move.l     [A6 + 0x4], A0
000064A2  2040                     movea.l    A0, D0
label000064A4:
000064A4  48D0 FCF8                movem.l    [A0], D3,D4,D5,D6,D7,A2,A3,A4,A5,A6,A7
000064A8  41E8 002C                lea.l      A0, [A0 + 0x2C]
000064AC  4258                     clr.w      [A0]+
000064AE  4298                     clr.l      [A0]+
000064B0  4298                     clr.l      [A0]+
000064B2  4A41                     tst.w      D1
000064B4  6A04                     bpl        +0x6 /* 000064BA */
000064B6  214E FFFC                move.l     [A0 - 0x4], A6
label000064BA:
000064BA  20C9                     move.l     [A0]+, A1
000064BC  20ED F9D8                move.l     [A0]+, [A5 - 0x628]
000064C0  2B40 F9D8                move.l     [A5 - 0x628], D0
000064C4  20C2                     move.l     [A0]+, D2
000064C6  2042                     movea.l    A0, D2
000064C8  4ED0                     jmp        [A0]
000064CA  2F00                     move.l     -[A7], D0
000064CC  206D F9E4                movea.l    A0, [A5 - 0x61C]
000064D0  2008                     move.l     D0, A0
000064D2  6700 0060                beq        +0x62 /* 00006534 */
000064D6  202D F9E0                move.l     D0, [A5 - 0x620]
000064DA  6B00 0058                bmi        +0x5A /* 00006534 */
000064DE  D1C0                     add.l      A0, D0
000064E0  2F28 0044                move.l     -[A7], [A0 + 0x44]
000064E4  6100 002A                bsr        +0x2C /* 00006510 */
000064E8  225F                     movea.l    A1, [A7]+
000064EA  201F                     move.l     D0, [A7]+
000064EC  4ED1                     jmp        [A1]
export_88:
fn000064EE:
000064EE  206D F9D8                movea.l    A0, [A5 - 0x628]
000064F2  2008                     move.l     D0, A0
000064F4  673E                     beq        +0x40 /* 00006534 */
000064F6  4A68 0042                tst.w      [A0 + 0x42]
000064FA  6F1E                     ble        +0x20 /* 0000651A */
000064FC  202D F9E0                move.l     D0, [A5 - 0x620]
00006500  2268 0024                movea.l    A1, [A0 + 0x24]
00006504  B2FC FFFF                cmpa.w     A1, 0xFFFF
00006508  6706                     beq        +0x8 /* 00006510 */
0000650A  2368 0044 0004           move.l     [A1 + 0x4], [A0 + 0x44]
fn00006510:
00006510  0480 0000 0048           subi.l     D0, 0x48 /* 'H' */
00006516  2B40 F9E0                move.l     [A5 - 0x620], D0
label0000651A:
0000651A  2F08                     move.l     -[A7], A0
0000651C  4EBA FEEA                jsr        [PC - 0x116 /* 00006408 */]
00006520  4E75                     rts
export_89:
fn00006522:
00006522  225F                     movea.l    A1, [A7]+
00006524  7000                     moveq.l    D0, 0x00
00006526  321F                     move.w     D1, [A7]+
00006528  6602                     bne        +0x4 /* 0000652C */
0000652A  4ED1                     jmp        [A1]
label0000652C:
0000652C  3F01                     move.w     -[A7], D1
0000652E  2F00                     move.l     -[A7], D0
00006530  4EBA FE82                jsr        [PC - 0x17E /* 000063B4 */]
label00006534:
00006534  A9FF                     syscall    Debugger
fn00006536:
00006536  6100 FFB6                bsr        -0x48 /* 000064EE */
0000653A  206F 0004                movea.l    A0, [A7 + 0x4]
0000653E  4CD0 FCF8                movem.l    D3,D4,D5,D6,D7,A2,A3,A4,A5,A6,A7, [A0]
00006542  41E8 002C                lea.l      A0, [A0 + 0x2C]
00006546  3018                     move.w     D0, [A0]+
00006548  4A68 0014                tst.w      [A0 + 0x14]
0000654C  6E22                     bgt        +0x24 /* 00006570 */
0000654E  2218                     move.l     D1, [A0]+
00006550  48E7 C000                movem.l    -[A7], D0,D1
00006554  3F00                     move.w     -[A7], D0
00006556  2F01                     move.l     -[A7], D1
00006558  2018                     move.l     D0, [A0]+
0000655A  6702                     beq        +0x4 /* 0000655E */
0000655C  2F00                     move.l     -[A7], D0
label0000655E:
0000655E  2058                     movea.l    A0, [A0]+
00006560  4E90                     jsr        [A0]
00006562  4CDF 0003                movem.l    D0,D1, [A7]+
00006566  3F00                     move.w     -[A7], D0
00006568  2F01                     move.l     -[A7], D1
0000656A  4EBA FE48                jsr        [PC - 0x1B8 /* 000063B4 */]
0000656E  A9FF                     syscall    Debugger
label00006570:
00006570  3E80                     move.w     [A7], D0
00006572  2068 0008                movea.l    A0, [A0 + 0x8]
00006576  4ED0                     jmp        [A0]
fn00006578:
00006578  4E56 FFF2                link       A6, -0x000E
0000657C  48E7 0308                movem.l    -[A7], D6,D7,A4
00006580  286E 0008                movea.l    A4, [A6 + 0x8]
00006584  422E 000C                clr.b      [A6 + 0xC]
00006588  42A7                     clr.l      -[A7]
0000658A  486E FFFA                pea.l      [A6 - 0x6]
0000658E  4EAD 04E2                jsr        [A5 + 0x4E2 /* export_152, CODE:3 @ 000024DA */]
00006592  2E1F                     move.l     D7, [A7]+
00006594  9EBC 0000 2710           sub.l      D7, 0x2710
0000659A  42A7                     clr.l      -[A7]
0000659C  486E FFFA                pea.l      [A6 - 0x6]
000065A0  3F3C 0015                move.w     -[A7], 0x15
000065A4  A88F                     syscall    OSDispatch
000065A6  7002                     moveq.l    D0, 0x02
000065A8  2F00                     move.l     -[A7], D0
000065AA  4EAD 039A                jsr        [A5 + 0x39A /* export_111, CODE:3 @ 000000D2 */]
000065AE  2C1F                     move.l     D6, [A7]+
000065B0  BE86                     cmp.l      D7, D6
000065B2  5DC0                     slt        D0
000065B4  0C86 0000 1000           cmpi.l     D6, 0x1000
000065BA  5EC1                     sgt        D1
000065BC  C001                     and.b      D0, D1
000065BE  6712                     beq        +0x14 /* 000065D2 */
000065C0  42A7                     clr.l      -[A7]
000065C2  2F06                     move.l     -[A7], D6
000065C4  486E FFFE                pea.l      [A6 - 0x2]
000065C8  3F3C 001D                move.w     -[A7], 0x1D
000065CC  A88F                     syscall    OSDispatch
000065CE  289F                     move.l     [A4], [A7]+
000065D0  6012                     bra        +0x14 /* 000065E4 */
label000065D2:
000065D2  0C87 0000 1000           cmpi.l     D7, 0x1000
000065D8  6F16                     ble        +0x18 /* 000065F0 */
000065DA  42A7                     clr.l      -[A7]
000065DC  2F07                     move.l     -[A7], D7
000065DE  4EAD 04FA                jsr        [A5 + 0x4FA /* export_155, CODE:3 @ 000024FC */]
000065E2  289F                     move.l     [A4], [A7]+
label000065E4:
000065E4  4A94                     tst.l      [A4]
000065E6  6602                     bne        +0x4 /* 000065EA */
000065E8  6006                     bra        +0x8 /* 000065F0 */
label000065EA:
000065EA  1D7C 0001 000C           move.b     [A6 + 0xC], 0x1
label000065F0:
000065F0  4CDF 10C0                movem.l    D6,D7,A4, [A7]+
000065F4  4E5E                     unlink     A6
000065F6  2E9F                     move.l     [A7], [A7]+
000065F8  4E75                     rts
fn000065FA:
000065FA  4E56 FD94                link       A6, -0x026C
000065FE  48E7 0300                movem.l    -[A7], D6,D7
00006602  4267                     clr.w      -[A7]
00006604  2F2E 000C                move.l     -[A7], [A6 + 0xC]
00006608  486E FFF0                pea.l      [A6 - 0x10]
0000660C  303C 0007                move.w     D0, 0x7
00006610  AA52                     syscall    HFSPinaforeDispatch/HighLevelFSDispatch
00006612  3E1F                     move.w     D7, [A7]+
00006614  486E FD98                pea.l      [A6 - 0x268]
00006618  2F3C 0037 0081           move.l     -[A7], 0x370081
0000661E  4EAD 071A                jsr        [A5 + 0x71A /* export_223, CODE:3 @ 0000325E */]
00006622  486E FE98                pea.l      [A6 - 0x168]
00006626  2F3C 002B 0081           move.l     -[A7], 0x2B0081
0000662C  4EAD 071A                jsr        [A5 + 0x71A /* export_223, CODE:3 @ 0000325E */]
00006630  486E FD98                pea.l      [A6 - 0x268]
00006634  486E FE98                pea.l      [A6 - 0x168]
00006638  486E FF98                pea.l      [A6 - 0x68]
0000663C  3F3C 0005                move.w     -[A7], 0x5
00006640  A9EA                     syscall    Pack3
00006642  102E FF98                move.b     D0, [A6 - 0x68]
00006646  675C                     beq        +0x5E /* 000066A4 */
00006648  206E 000C                movea.l    A0, [A6 + 0xC]
0000664C  43EE FF9E                lea.l      A1, [A6 - 0x62]
00006650  7022                     moveq.l    D0, 0x22
label00006652:
00006652  30D9                     move.w     [A0]+, [A1]+
00006654  51C8 FFFC                dbf        D0, -0x6 /* 00006652 */
00006658  4267                     clr.w      -[A7]
0000665A  2F2E 000C                move.l     -[A7], [A6 + 0xC]
0000665E  2F2E FFF4                move.l     -[A7], [A6 - 0xC]
00006662  2F2E FFF0                move.l     -[A7], [A6 - 0x10]
00006666  4267                     clr.w      -[A7]
00006668  303C 0004                move.w     D0, 0x4
0000666C  AA52                     syscall    HFSPinaforeDispatch/HighLevelFSDispatch
0000666E  3E1F                     move.w     D7, [A7]+
00006670  6626                     bne        +0x28 /* 00006698 */
00006672  4267                     clr.w      -[A7]
00006674  2F2E 000C                move.l     -[A7], [A6 + 0xC]
00006678  1F3C 0003                move.b     -[A7], 0x3
0000667C  2F2E 0008                move.l     -[A7], [A6 + 0x8]
00006680  303C 0003                move.w     D0, 0x3
00006684  AA52                     syscall    HFSPinaforeDispatch/HighLevelFSDispatch
00006686  3E1F                     move.w     D7, [A7]+
00006688  670E                     beq        +0x10 /* 00006698 */
0000668A  4267                     clr.w      -[A7]
0000668C  2F2E 000C                move.l     -[A7], [A6 + 0xC]
00006690  303C 0006                move.w     D0, 0x6
00006694  AA52                     syscall    HFSPinaforeDispatch/HighLevelFSDispatch
00006696  3C1F                     move.w     D6, [A7]+
label00006698:
00006698  4A47                     tst.w      D7
0000669A  57C0                     seq        D0
0000669C  4400                     neg.b      D0
0000669E  1D40 0010                move.b     [A6 + 0x10], D0
000066A2  600C                     bra        +0xE /* 000066B0 */
label000066A4:
000066A4  422E 0010                clr.b      [A6 + 0x10]
000066A8  206E 000C                movea.l    A0, [A6 + 0xC]
000066AC  4228 0006                clr.b      [A0 + 0x6]
label000066B0:
000066B0  4CDF 00C0                movem.l    D6,D7, [A7]+
000066B4  4E5E                     unlink     A6
000066B6  205F                     movea.l    A0, [A7]+
000066B8  504F                     addq.w     A7, 8
000066BA  4ED0                     jmp        [A0]
fn000066BC:
000066BC  4E56 FFE2                link       A6, -0x001E
000066C0  48E7 0718                movem.l    -[A7], D5,D6,D7,A3,A4
000066C4  266E 000C                movea.l    A3, [A6 + 0xC]
000066C8  422E 0010                clr.b      [A6 + 0x10]
000066CC  42A7                     clr.l      -[A7]
000066CE  2F0B                     move.l     -[A7], A3
000066D0  4EAD 050A                jsr        [A5 + 0x50A /* export_157, CODE:3 @ 00002510 */]
// begin alternate branch 000066D2-000066D4
label000066D2:
000066D2  050A                     btst       A2, D2
// end alternate branch 000066D2-000066D4
label000066D2: // (misaligned)
000066D4  2C1F                     move.l     D6, [A7]+
000066D6  4267                     clr.w      -[A7]
000066D8  3F2E 000A                move.w     -[A7], [A6 + 0xA]
000066DC  486E FFEA                pea.l      [A6 - 0x16]
000066E0  4EAD 05EA                jsr        [A5 + 0x5EA /* export_185, CODE:3 @ 0000286A */]
000066E4  3E1F                     move.w     D7, [A7]+
000066E6  4267                     clr.w      -[A7]
000066E8  3F2E 0008                move.w     -[A7], [A6 + 0x8]
000066EC  486E FFEA                pea.l      [A6 - 0x16]
000066F0  4EAD 05E2                jsr        [A5 + 0x5E2 /* export_184, CODE:3 @ 00002844 */]
000066F4  3E1F                     move.w     D7, [A7]+
000066F6  6704                     beq        +0x6 /* 000066FC */
000066F8  6000 0096                bra        +0x98 /* 00006790 */
label000066FC:
000066FC  2F3C 444C 4F47           move.l     -[A7], 0x444C4F47 /* 'DLOG' */
00006702  3F3C 0294                move.w     -[A7], 0x294
00006706  4EBA DC46                jsr        [PC - 0x23BA /* 0000434E */]
0000670A  42A7                     clr.l      -[A7]
0000670C  3F3C 0294                move.w     -[A7], 0x294
00006710  42A7                     clr.l      -[A7]
00006712  70FF                     moveq.l    D0, 0xFFFFFFFF
00006714  2F00                     move.l     -[A7], D0
00006716  A97C                     syscall    GetNewDialog
00006718  285F                     movea.l    A4, [A7]+
0000671A  2F0C                     move.l     -[A7], A4
0000671C  A981                     syscall    DrawDialog
0000671E  3F3C 0004                move.w     -[A7], 0x4
00006722  4EBA D410                jsr        [PC - 0x2BF0 /* 00003B34 */]
00006726  7001                     moveq.l    D0, 0x01
00006728  2D40 FFE6                move.l     [A6 - 0x1A], D0
0000672C  2F2E FFEA                move.l     -[A7], [A6 - 0x16]
00006730  2F06                     move.l     -[A7], D6
00006732  4EAD 039A                jsr        [A5 + 0x39A /* export_111, CODE:3 @ 000000D2 */]
00006736  201F                     move.l     D0, [A7]+
00006738  5280                     addq.l     D0, 1
0000673A  2D40 FFE2                move.l     [A6 - 0x1E], D0
0000673E  2A2E FFE6                move.l     D5, [A6 - 0x1A]
00006742  6030                     bra        +0x32 /* 00006774 */
label00006744:
00006744  2D46 FFF2                move.l     [A6 - 0xE], D6
00006748  4267                     clr.w      -[A7]
0000674A  3F2E 000A                move.w     -[A7], [A6 + 0xA]
0000674E  486E FFF2                pea.l      [A6 - 0xE]
00006752  2F13                     move.l     -[A7], [A3]
00006754  4EAD 058A                jsr        [A5 + 0x58A /* export_173, CODE:3 @ 00002666 */]
00006758  3E1F                     move.w     D7, [A7]+
0000675A  4267                     clr.w      -[A7]
0000675C  3F2E 0008                move.w     -[A7], [A6 + 0x8]
00006760  486E FFF2                pea.l      [A6 - 0xE]
00006764  2F13                     move.l     -[A7], [A3]
00006766  4EAD 0592                jsr        [A5 + 0x592 /* export_174, CODE:3 @ 0000266A */]
0000676A  3E1F                     move.w     D7, [A7]+
0000676C  6702                     beq        +0x4 /* 00006770 */
0000676E  600A                     bra        +0xC /* 0000677A */
label00006770:
00006770  5285                     addq.l     D5, 1
00006772  6906                     bvs        +0x8 /* 0000677A */
label00006774:
00006774  BAAE FFE2                cmp.l      D5, [A6 - 0x1E]
00006778  6FCA                     ble        -0x34 /* 00006744 */
label0000677A:
0000677A  3F3C FFFF                move.w     -[A7], 0xFFFF
0000677E  4EBA D3B4                jsr        [PC - 0x2C4C /* 00003B34 */]
00006782  2F0C                     move.l     -[A7], A4
00006784  A982                     syscall    CloseDialog
00006786  4A47                     tst.w      D7
00006788  57C0                     seq        D0
0000678A  4400                     neg.b      D0
0000678C  1D40 0010                move.b     [A6 + 0x10], D0
label00006790:
00006790  4CDF 18E0                movem.l    D5,D6,D7,A3,A4, [A7]+
00006794  4E5E                     unlink     A6
00006796  205F                     movea.l    A0, [A7]+
00006798  504F                     addq.w     A7, 8
0000679A  4ED0                     jmp        [A0]
fn0000679C:
0000679C  4E56 FFF4                link       A6, -0x000C
000067A0  48E7 0700                movem.l    -[A7], D5,D6,D7
000067A4  422E 000C                clr.b      [A6 + 0xC]
000067A8  4267                     clr.w      -[A7]
000067AA  486E FFFC                pea.l      [A6 - 0x4]
000067AE  4EBA FDC8                jsr        [PC - 0x238 /* 00006578 */]
000067B2  101F                     move.b     D0, [A7]+
000067B4  6614                     bne        +0x16 /* 000067CA */
000067B6  42A7                     clr.l      -[A7]
000067B8  487A 00DE                pea.l      [PC + 0xDE /* 00006898, value 0xB537461, pstring "StationErry" */]
000067BC  3F3C 0001                move.w     -[A7], 0x1
000067C0  4EBA C308                jsr        [PC - 0x3CF8 /* 00002ACA */]
000067C4  1C1F                     move.b     D6, [A7]+
000067C6  6000 00C6                bra        +0xC8 /* 0000688E */
label000067CA:
000067CA  4267                     clr.w      -[A7]
000067CC  2F2E 0008                move.l     -[A7], [A6 + 0x8]
000067D0  1F3C 0001                move.b     -[A7], 0x1
000067D4  486E FFF6                pea.l      [A6 - 0xA]
000067D8  303C 0003                move.w     D0, 0x3
000067DC  AA52                     syscall    HFSPinaforeDispatch/HighLevelFSDispatch
000067DE  4A5F                     tst.w      [A7]+
000067E0  670C                     beq        +0xE /* 000067EE */
000067E2  2F2E FFFC                move.l     -[A7], [A6 - 0x4]
000067E6  205F                     movea.l    A0, [A7]+
000067E8  A023                     syscall    DisposHandle/DisposeHandle
000067EA  6000 00A2                bra        +0xA4 /* 0000688E */
label000067EE:
000067EE  4267                     clr.w      -[A7]
000067F0  2F2E 0008                move.l     -[A7], [A6 + 0x8]
000067F4  486E FFF8                pea.l      [A6 - 0x8]
000067F8  4EBA FE00                jsr        [PC - 0x200 /* 000065FA */]
000067FC  101F                     move.b     D0, [A7]+
000067FE  6634                     bne        +0x36 /* 00006834 */
00006800  4267                     clr.w      -[A7]
00006802  3F2E FFF6                move.w     -[A7], [A6 - 0xA]
00006806  4EAD 0582                jsr        [A5 + 0x582 /* export_172, CODE:3 @ 0000264C */]
0000680A  3E1F                     move.w     D7, [A7]+
0000680C  2F2E FFFC                move.l     -[A7], [A6 - 0x4]
00006810  205F                     movea.l    A0, [A7]+
00006812  A023                     syscall    DisposHandle/DisposeHandle
00006814  206E 0008                movea.l    A0, [A6 + 0x8]
00006818  4240                     clr.w      D0
0000681A  1028 0006                move.b     D0, [A0 + 0x6]
0000681E  4A40                     tst.w      D0
00006820  676C                     beq        +0x6E /* 0000688E */
00006822  42A7                     clr.l      -[A7]
00006824  487A 0072                pea.l      [PC + 0x72 /* 00006898, value 0xB537461, pstring "StationErry" */]
00006828  3F3C 0002                move.w     -[A7], 0x2
0000682C  4EBA C29C                jsr        [PC - 0x3D64 /* 00002ACA */]
00006830  1C1F                     move.b     D6, [A7]+
00006832  605A                     bra        +0x5C /* 0000688E */
label00006834:
00006834  4267                     clr.w      -[A7]
00006836  2F2E FFFC                move.l     -[A7], [A6 - 0x4]
0000683A  3F2E FFF6                move.w     -[A7], [A6 - 0xA]
0000683E  3F2E FFF8                move.w     -[A7], [A6 - 0x8]
00006842  4EBA FE78                jsr        [PC - 0x188 /* 000066BC */]
00006846  1A1F                     move.b     D5, [A7]+
00006848  4267                     clr.w      -[A7]
0000684A  3F2E FFF6                move.w     -[A7], [A6 - 0xA]
0000684E  4EAD 0582                jsr        [A5 + 0x582 /* export_172, CODE:3 @ 0000264C */]
00006852  3E1F                     move.w     D7, [A7]+
00006854  4267                     clr.w      -[A7]
00006856  3F2E FFF8                move.w     -[A7], [A6 - 0x8]
0000685A  4EAD 0582                jsr        [A5 + 0x582 /* export_172, CODE:3 @ 0000264C */]
0000685E  3E1F                     move.w     D7, [A7]+
00006860  1005                     move.b     D0, D5
00006862  661E                     bne        +0x20 /* 00006882 */
00006864  4267                     clr.w      -[A7]
00006866  2F2E 0008                move.l     -[A7], [A6 + 0x8]
0000686A  303C 0006                move.w     D0, 0x6
0000686E  AA52                     syscall    HFSPinaforeDispatch/HighLevelFSDispatch
00006870  3E1F                     move.w     D7, [A7]+
00006872  42A7                     clr.l      -[A7]
00006874  487A 0022                pea.l      [PC + 0x22 /* 00006898, value 0xB537461, pstring "StationErry" */]
00006878  3F3C 0003                move.w     -[A7], 0x3
0000687C  4EBA C24C                jsr        [PC - 0x3DB4 /* 00002ACA */]
00006880  1C1F                     move.b     D6, [A7]+
label00006882:
00006882  2F2E FFFC                move.l     -[A7], [A6 - 0x4]
00006886  205F                     movea.l    A0, [A7]+
00006888  A023                     syscall    DisposHandle/DisposeHandle
0000688A  1D45 000C                move.b     [A6 + 0xC], D5
label0000688E:
0000688E  4CDF 00E0                movem.l    D5,D6,D7, [A7]+
00006892  4E5E                     unlink     A6
00006894  2E9F                     move.l     [A7], [A7]+
00006896  4E75                     rts
00006898  0B53                     bchg       [A3], D5
0000689A  7461                     moveq.l    D2, 0x61
0000689C  7469                     moveq.l    D2, 0x69
0000689E  6F6E                     ble        +0x70 /* 0000690E */
000068A0  4572 7279                chk.w      D2, [A2 + D7.w * 2 + 0x79]
fn000068A4:
000068A4  4E56 FFA8                link       A6, -0x0058
000068A8  206E 0008                movea.l    A0, [A6 + 0x8]
000068AC  43EE FFBA                lea.l      A1, [A6 - 0x46]
000068B0  7022                     moveq.l    D0, 0x22
label000068B2:
000068B2  32D8                     move.w     [A1]+, [A0]+
000068B4  51C8 FFFC                dbf        D0, -0x6 /* 000068B2 */
000068B8  422E 000C                clr.b      [A6 + 0xC]
000068BC  4267                     clr.w      -[A7]
000068BE  486E FFBA                pea.l      [A6 - 0x46]
000068C2  486E FFAA                pea.l      [A6 - 0x56]
000068C6  303C 0007                move.w     D0, 0x7
000068CA  AA52                     syscall    HFSPinaforeDispatch/HighLevelFSDispatch
000068CC  3D5F FFA8                move.w     [A6 - 0x58], [A7]+
000068D0  6702                     beq        +0x4 /* 000068D4 */
000068D2  602A                     bra        +0x2C /* 000068FE */
label000068D4:
000068D4  203C 5253 4544           move.l     D0, 0x52534544 /* 'RSED' */
000068DA  B0AE FFAE                cmp.l      D0, [A6 - 0x52]
000068DE  57C0                     seq        D0
000068E0  223C 7273 7263           move.l     D1, 0x72737263 /* 'rsrc' */
000068E6  B2AE FFAA                cmp.l      D1, [A6 - 0x56]
000068EA  57C1                     seq        D1
000068EC  C001                     and.b      D0, D1
000068EE  082E 0003 FFB2           btst.b     [A6 - 0x4E], 0x3
000068F4  56C1                     sne        D1
000068F6  C001                     and.b      D0, D1
000068F8  4400                     neg.b      D0
000068FA  1D40 000C                move.b     [A6 + 0xC], D0
label000068FE:
000068FE  4E5E                     unlink     A6
00006900  2E9F                     move.l     [A7], [A7]+
00006902  4E75                     rts
export_90:
00006904  4E56 FFB8                link       A6, -0x0048
00006908  1D7C 0001 0014           move.b     [A6 + 0x14], 0x1
label0000690E:
0000690E  4267                     clr.w      -[A7]
00006910  206E 000C                movea.l    A0, [A6 + 0xC]
00006914  3F10                     move.w     -[A7], [A0]
00006916  206E 0008                movea.l    A0, [A6 + 0x8]
0000691A  2F10                     move.l     -[A7], [A0]
0000691C  2F2E 0010                move.l     -[A7], [A6 + 0x10]
00006920  486E FFBA                pea.l      [A6 - 0x46]
00006924  303C 0001                move.w     D0, 0x1
00006928  AA52                     syscall    HFSPinaforeDispatch/HighLevelFSDispatch
0000692A  3D5F FFB8                move.w     [A6 - 0x48], [A7]+
0000692E  57C0                     seq        D0
00006930  4A00                     tst.b      D0
00006932  6748                     beq        +0x4A /* 0000697C */
00006934  2F00                     move.l     -[A7], D0
00006936  4267                     clr.w      -[A7]
00006938  486E FFBA                pea.l      [A6 - 0x46]
0000693C  4EBA FF66                jsr        [PC - 0x9A /* 000068A4 */]
00006940  121F                     move.b     D1, [A7]+
00006942  201F                     move.l     D0, [A7]+
00006944  C001                     and.b      D0, D1
00006946  6734                     beq        +0x36 /* 0000697C */
00006948  4267                     clr.w      -[A7]
0000694A  486E FFBA                pea.l      [A6 - 0x46]
0000694E  4EBA FE4C                jsr        [PC - 0x1B4 /* 0000679C */]
00006952  101F                     move.b     D0, [A7]+
00006954  6722                     beq        +0x24 /* 00006978 */
00006956  206E 0010                movea.l    A0, [A6 + 0x10]
0000695A  43EE FFC0                lea.l      A1, [A6 - 0x40]
0000695E  701F                     moveq.l    D0, 0x1F
label00006960:
00006960  30D9                     move.w     [A0]+, [A1]+
00006962  51C8 FFFC                dbf        D0, -0x6 /* 00006960 */
00006966  206E 000C                movea.l    A0, [A6 + 0xC]
0000696A  30AE FFBA                move.w     [A0], [A6 - 0x46]
0000696E  206E 0008                movea.l    A0, [A6 + 0x8]
00006972  20AE FFBC                move.l     [A0], [A6 - 0x44]
00006976  6004                     bra        +0x6 /* 0000697C */
label00006978:
00006978  422E 0014                clr.b      [A6 + 0x14]
label0000697C:
0000697C  4E5E                     unlink     A6
0000697E  205F                     movea.l    A0, [A7]+
00006980  DEFC 000C                add.w      A7, 0xC
00006984  4ED0                     jmp        [A0]
00006986  4E56 0000                link       A6, 0
0000698A  70FF                     moveq.l    D0, 0xFFFFFFFF
0000698C  B06D F828                cmp.w      D0, [A5 - 0x7D8]
00006990  56C0                     sne        D0
00006992  206E 000C                movea.l    A0, [A6 + 0xC]
00006996  3228 0018                move.w     D1, [A0 + 0x18]
0000699A  B26D F828                cmp.w      D1, [A5 - 0x7D8]
0000699E  57C1                     seq        D1
000069A0  C001                     and.b      D0, D1
000069A2  4400                     neg.b      D0
000069A4  1D40 0010                move.b     [A6 + 0x10], D0
000069A8  4E5E                     unlink     A6
000069AA  205F                     movea.l    A0, [A7]+
000069AC  504F                     addq.w     A7, 8
000069AE  4ED0                     jmp        [A0]
000069B0  4E56 0000                link       A6, 0
000069B4  206E 0014                movea.l    A0, [A6 + 0x14]
000069B8  203C 7374 6466           move.l     D0, 0x73746466 /* 'stdf' */
000069BE  B0A8 0098                cmp.l      D0, [A0 + 0x98]
000069C2  6622                     bne        +0x24 /* 000069E6 */
000069C4  4267                     clr.w      -[A7]
000069C6  206E 0008                movea.l    A0, [A6 + 0x8]
000069CA  3F28 0058                move.w     -[A7], [A0 + 0x58]
000069CE  3F3C 0002                move.w     -[A7], 0x2
000069D2  2F2E 0014                move.l     -[A7], [A6 + 0x14]
000069D6  2F2E 0010                move.l     -[A7], [A6 + 0x10]
000069DA  2F2E 000C                move.l     -[A7], [A6 + 0xC]
000069DE  4EBA D426                jsr        [PC - 0x2BDA /* 00003E06 */]
000069E2  1D5F 0018                move.b     [A6 + 0x18], [A7]+
label000069E6:
000069E6  4E5E                     unlink     A6
000069E8  205F                     movea.l    A0, [A7]+
000069EA  DEFC 0010                add.w      A7, 0x10
000069EE  4ED0                     jmp        [A0]
fn000069F0:
000069F0  4E56 FFFC                link       A6, -0x0004
000069F4  206E 0008                movea.l    A0, [A6 + 0x8]
000069F8  0828 0007 004E           btst.b     [A0 + 0x4E], 0x7
000069FE  6700 00CA                beq        +0xCC /* 00006ACA */
00006A02  1D7C 0001 000C           move.b     [A6 + 0xC], 0x1
00006A08  206E 0008                movea.l    A0, [A6 + 0x8]
00006A0C  2D68 0002 FFFC           move.l     [A6 - 0x4], [A0 + 0x2]
00006A12  203C 6661 6D6E           move.l     D0, 0x66616D6E /* 'famn' */
00006A18  B0AE FFFC                cmp.l      D0, [A6 - 0x4]
00006A1C  57C0                     seq        D0
00006A1E  4A00                     tst.b      D0
00006A20  6600 00AC                bne        +0xAE /* 00006ACE */
00006A24  223C 6664 7270           move.l     D1, 0x66647270 /* 'fdrp' */
00006A2A  B2AE FFFC                cmp.l      D1, [A6 - 0x4]
00006A2E  57C1                     seq        D1
00006A30  8001                     or.b       D0, D1
00006A32  6600 009A                bne        +0x9C /* 00006ACE */
00006A36  223C 6661 7379           move.l     D1, 0x66617379 /* 'fasy' */
00006A3C  B2AE FFFC                cmp.l      D1, [A6 - 0x4]
00006A40  57C1                     seq        D1
00006A42  8001                     or.b       D0, D1
00006A44  6600 0088                bne        +0x8A /* 00006ACE */
00006A48  223C 6661 616D           move.l     D1, 0x6661616D /* 'faam' */
00006A4E  B2AE FFFC                cmp.l      D1, [A6 - 0x4]
00006A52  57C1                     seq        D1
00006A54  8001                     or.b       D0, D1
00006A56  6676                     bne        +0x78 /* 00006ACE */
00006A58  223C 6661 7374           move.l     D1, 0x66617374 /* 'fast' */
00006A5E  B2AE FFFC                cmp.l      D1, [A6 - 0x4]
00006A62  57C1                     seq        D1
00006A64  8001                     or.b       D0, D1
00006A66  6666                     bne        +0x68 /* 00006ACE */
00006A68  223C 6661 7066           move.l     D1, 0x66617066 /* 'fapf' */
00006A6E  B2AE FFFC                cmp.l      D1, [A6 - 0x4]
00006A72  57C1                     seq        D1
00006A74  8001                     or.b       D0, D1
00006A76  6656                     bne        +0x58 /* 00006ACE */
00006A78  223C 6661 6374           move.l     D1, 0x66616374 /* 'fact' */
00006A7E  B2AE FFFC                cmp.l      D1, [A6 - 0x4]
00006A82  57C1                     seq        D1
00006A84  8001                     or.b       D0, D1
00006A86  6646                     bne        +0x48 /* 00006ACE */
00006A88  223C 6661 6578           move.l     D1, 0x66616578 /* 'faex' */
00006A8E  B2AE FFFC                cmp.l      D1, [A6 - 0x4]
00006A92  57C1                     seq        D1
00006A94  8001                     or.b       D0, D1
00006A96  6636                     bne        +0x38 /* 00006ACE */
00006A98  223C 6661 6574           move.l     D1, 0x66616574 /* 'faet' */
00006A9E  B2AE FFFC                cmp.l      D1, [A6 - 0x4]
00006AA2  57C1                     seq        D1
00006AA4  8001                     or.b       D0, D1
00006AA6  6626                     bne        +0x28 /* 00006ACE */
00006AA8  223C 6661 6472           move.l     D1, 0x66616472 /* 'fadr' */
00006AAE  B2AE FFFC                cmp.l      D1, [A6 - 0x4]
00006AB2  57C1                     seq        D1
00006AB4  8001                     or.b       D0, D1
00006AB6  6616                     bne        +0x18 /* 00006ACE */
00006AB8  223C 6661 7368           move.l     D1, 0x66617368 /* 'fash' */
00006ABE  B2AE FFFC                cmp.l      D1, [A6 - 0x4]
00006AC2  57C1                     seq        D1
00006AC4  8001                     or.b       D0, D1
00006AC6  6702                     beq        +0x4 /* 00006ACA */
00006AC8  6004                     bra        +0x6 /* 00006ACE */
label00006ACA:
00006ACA  422E 000C                clr.b      [A6 + 0xC]
label00006ACE:
00006ACE  4E5E                     unlink     A6
00006AD0  2E9F                     move.l     [A7], [A7]+
00006AD2  4E75                     rts
fn00006AD4:
00006AD4  4E56 FFFC                link       A6, -0x0004
00006AD8  206E 0008                movea.l    A0, [A6 + 0x8]
00006ADC  0828 0007 004E           btst.b     [A0 + 0x4E], 0x7
00006AE2  6742                     beq        +0x44 /* 00006B26 */
00006AE4  1D7C 0001 000C           move.b     [A6 + 0xC], 0x1
00006AEA  206E 0008                movea.l    A0, [A6 + 0x8]
00006AEE  2D68 0002 FFFC           move.l     [A6 - 0x4], [A0 + 0x2]
00006AF4  203C 6864 736B           move.l     D0, 0x6864736B /* 'hdsk' */
00006AFA  B0AE FFFC                cmp.l      D0, [A6 - 0x4]
00006AFE  57C0                     seq        D0
00006B00  4A00                     tst.b      D0
00006B02  6626                     bne        +0x28 /* 00006B2A */
00006B04  223C 666C 7079           move.l     D1, 0x666C7079 /* 'flpy' */
00006B0A  B2AE FFFC                cmp.l      D1, [A6 - 0x4]
00006B0E  57C1                     seq        D1
00006B10  8001                     or.b       D0, D1
00006B12  6616                     bne        +0x18 /* 00006B2A */
00006B14  223C 7372 7672           move.l     D1, 0x73727672 /* 'srvr' */
00006B1A  B2AE FFFC                cmp.l      D1, [A6 - 0x4]
00006B1E  57C1                     seq        D1
00006B20  8001                     or.b       D0, D1
00006B22  6702                     beq        +0x4 /* 00006B26 */
00006B24  6004                     bra        +0x6 /* 00006B2A */
label00006B26:
00006B26  422E 000C                clr.b      [A6 + 0xC]
label00006B2A:
00006B2A  4E5E                     unlink     A6
00006B2C  2E9F                     move.l     [A7], [A7]+
00006B2E  4E75                     rts
fn00006B30:
00006B30  4E56 FFFE                link       A6, -0x0002
00006B34  48E7 0108                movem.l    -[A7], D7,A4
00006B38  286E 0008                movea.l    A4, [A6 + 0x8]
00006B3C  41ED F7E2                lea.l      A0, [A5 - 0x81E]
00006B40  43EC 000C                lea.l      A1, [A4 + 0xC]
00006B44  701F                     moveq.l    D0, 0x1F
label00006B46:
00006B46  30D9                     move.w     [A0]+, [A1]+
00006B48  51C8 FFFC                dbf        D0, -0x6 /* 00006B46 */
00006B4C  1014                     move.b     D0, [A4]
00006B4E  672A                     beq        +0x2C /* 00006B7A */
00006B50  4267                     clr.w      -[A7]
00006B52  3F2C 0006                move.w     -[A7], [A4 + 0x6]
00006B56  2F2C 0008                move.l     -[A7], [A4 + 0x8]
00006B5A  2F3C 5253 4544           move.l     -[A7], 0x52534544 /* 'RSED' */
00006B60  486D F7DE                pea.l      [A5 - 0x822]
00006B64  4EAD 06AA                jsr        [A5 + 0x6AA /* export_209, CODE:3 @ 00002E1A */]
00006B68  3E1F                     move.w     D7, [A7]+
00006B6A  4267                     clr.w      -[A7]
00006B6C  3F07                     move.w     -[A7], D7
00006B6E  4267                     clr.w      -[A7]
00006B70  4EBA C3A2                jsr        [PC - 0x3C5E /* 00002F14 */]
00006B74  1B5F F7D8                move.b     [A5 - 0x828], [A7]+
00006B78  6004                     bra        +0x6 /* 00006B7E */
label00006B7A:
00006B7A  422D F7D8                clr.b      [A5 - 0x828]
label00006B7E:
00006B7E  2B6C 0002 F7DA           move.l     [A5 - 0x826], [A4 + 0x2]
00006B84  4CDF 1080                movem.l    D7,A4, [A7]+
00006B88  4E5E                     unlink     A6
00006B8A  2E9F                     move.l     [A7], [A7]+
00006B8C  4E75                     rts
fn00006B8E:
00006B8E  4E56 FFF0                link       A6, -0x0010
00006B92  48E7 0308                movem.l    -[A7], D6,D7,A4
00006B96  286E 0008                movea.l    A4, [A6 + 0x8]
00006B9A  3E2E 0010                move.w     D7, [A6 + 0x10]
00006B9E  206E 000C                movea.l    A0, [A6 + 0xC]
00006BA2  203C 7374 6466           move.l     D0, 0x73746466 /* 'stdf' */
00006BA8  B0A8 0098                cmp.l      D0, [A0 + 0x98]
00006BAC  6706                     beq        +0x8 /* 00006BB4 */
00006BAE  3D47 0012                move.w     [A6 + 0x12], D7
00006BB2  6054                     bra        +0x56 /* 00006C08 */
label00006BB4:
00006BB4  7068                     moveq.l    D0, 0x68
00006BB6  B047                     cmp.w      D0, D7
00006BB8  57C0                     seq        D0
00006BBA  122C 005A                move.b     D1, [A4 + 0x5A]
00006BBE  0A01 0001                xori.b     D1, 0x1
00006BC2  C001                     and.b      D0, D1
00006BC4  6708                     beq        +0xA /* 00006BCE */
00006BC6  3D7C 0001 0012           move.w     [A6 + 0x12], 0x1
00006BCC  603A                     bra        +0x3C /* 00006C08 */
label00006BCE:
00006BCE  700A                     moveq.l    D0, 0x0A
00006BD0  B047                     cmp.w      D0, D7
00006BD2  6630                     bne        +0x32 /* 00006C04 */
00006BD4  2F2E 000C                move.l     -[A7], [A6 + 0xC]
00006BD8  3F07                     move.w     -[A7], D7
00006BDA  486E FFF8                pea.l      [A6 - 0x8]
00006BDE  486E FFFC                pea.l      [A6 - 0x4]
00006BE2  486E FFF0                pea.l      [A6 - 0x10]
00006BE6  A98D                     syscall    GetDialogItem/GetDItem
00006BE8  102C 005A                move.b     D0, [A4 + 0x5A]
00006BEC  0A00 0001                xori.b     D0, 0x1
00006BF0  1940 005A                move.b     [A4 + 0x5A], D0
00006BF4  6704                     beq        +0x6 /* 00006BFA */
00006BF6  4246                     clr.w      D6
00006BF8  6002                     bra        +0x4 /* 00006BFC */
label00006BFA:
00006BFA  7C01                     moveq.l    D6, 0x01
label00006BFC:
00006BFC  2F2E FFFC                move.l     -[A7], [A6 - 0x4]
00006C00  3F06                     move.w     -[A7], D6
00006C02  A963                     syscall    SetControlValue/SetCtlValue
label00006C04:
00006C04  3D47 0012                move.w     [A6 + 0x12], D7
label00006C08:
00006C08  4CDF 10C0                movem.l    D6,D7,A4, [A7]+
00006C0C  4E5E                     unlink     A6
00006C0E  205F                     movea.l    A0, [A7]+
00006C10  DEFC 000A                add.w      A7, 0xA /* '\n' */
00006C14  4ED0                     jmp        [A0]
export_91:
fn00006C16:
00006C16  4E56 FF38                link       A6, -0x00C8
00006C1A  3D7C FFFF FFFE           move.w     [A6 - 0x2], 0xFFFF
00006C20  3D7C FFFF FFFC           move.w     [A6 - 0x4], 0xFFFF
00006C26  3D7C 0001 FFF8           move.w     [A6 - 0x8], 0x1
00006C2C  1D7C 0001 FFFA           move.b     [A6 - 0x6], 0x1
00006C32  487A FD52                pea.l      [PC - 0x2AE /* 00006986, value 0x4E560000 'NV\0\0', cstring "NV" */]
00006C36  3F3C FFFF                move.w     -[A7], 0xFFFF
00006C3A  486E FF90                pea.l      [A6 - 0x70]
00006C3E  486E FF38                pea.l      [A6 - 0xC8]
00006C42  3F3C 0E78                move.w     -[A7], 0xE78
00006C46  2F2E FFFC                move.l     -[A7], [A6 - 0x4]
00006C4A  487A FF42                pea.l      [PC - 0xBE /* 00006B8E, value 0x4E56FFF0 */]
00006C4E  487A FD60                pea.l      [PC - 0x2A0 /* 000069B0, value 0x4E560000 'NV\0\0', cstring "NV" */]
00006C52  42A7                     clr.l      -[A7]
00006C54  42A7                     clr.l      -[A7]
00006C56  486E FFA0                pea.l      [A6 - 0x60]
00006C5A  3F3C 0008                move.w     -[A7], 0x8
00006C5E  A9EA                     syscall    Pack3
00006C60  486E FF38                pea.l      [A6 - 0xC8]
00006C64  4EBA FECA                jsr        [PC - 0x136 /* 00006B30 */]
00006C68  4E5E                     unlink     A6
00006C6A  4E75                     rts
00006C6C  4E56 0000                link       A6, 0
00006C70  206E 000C                movea.l    A0, [A6 + 0xC]
00006C74  203C 7374 6466           move.l     D0, 0x73746466 /* 'stdf' */
00006C7A  B0A8 0098                cmp.l      D0, [A0 + 0x98]
00006C7E  6708                     beq        +0xA /* 00006C88 */
00006C80  3D6E 0010 0012           move.w     [A6 + 0x12], [A6 + 0x10]
00006C86  6030                     bra        +0x32 /* 00006CB8 */
label00006C88:
00006C88  700B                     moveq.l    D0, 0x0B
00006C8A  B06E 0010                cmp.w      D0, [A6 + 0x10]
00006C8E  6612                     bne        +0x14 /* 00006CA2 */
00006C90  3D7C 0002 0012           move.w     [A6 + 0x12], 0x2
00006C96  206E 0008                movea.l    A0, [A6 + 0x8]
00006C9A  117C 0001 005B           move.b     [A0 + 0x5B], 0x1
00006CA0  6016                     bra        +0x18 /* 00006CB8 */
label00006CA2:
00006CA2  4267                     clr.w      -[A7]
00006CA4  3F2E 0010                move.w     -[A7], [A6 + 0x10]
00006CA8  2F2E 000C                move.l     -[A7], [A6 + 0xC]
00006CAC  2F2E 0008                move.l     -[A7], [A6 + 0x8]
00006CB0  4EBA FEDC                jsr        [PC - 0x124 /* 00006B8E */]
00006CB4  3D5F 0012                move.w     [A6 + 0x12], [A7]+
label00006CB8:
00006CB8  4E5E                     unlink     A6
00006CBA  205F                     movea.l    A0, [A7]+
00006CBC  DEFC 000A                add.w      A7, 0xA /* '\n' */
00006CC0  4ED0                     jmp        [A0]
fn00006CC2:
00006CC2  4E56 FF38                link       A6, -0x00C8
00006CC6  3D7C FFFF FFFE           move.w     [A6 - 0x2], 0xFFFF
00006CCC  3D7C FFFF FFFC           move.w     [A6 - 0x4], 0xFFFF
00006CD2  3D7C 0001 FFF8           move.w     [A6 - 0x8], 0x1
00006CD8  3D7C 0100 FFFA           move.w     [A6 - 0x6], 0x100
00006CDE  487A FCA6                pea.l      [PC - 0x35A /* 00006986, value 0x4E560000 'NV\0\0', cstring "NV" */]
00006CE2  3F3C FFFF                move.w     -[A7], 0xFFFF
00006CE6  486E FF90                pea.l      [A6 - 0x70]
00006CEA  486E FF38                pea.l      [A6 - 0xC8]
00006CEE  3F3C 0E74                move.w     -[A7], 0xE74
00006CF2  2F2E FFFC                move.l     -[A7], [A6 - 0x4]
00006CF6  487A FF74                pea.l      [PC - 0x8C /* 00006C6C, value 0x4E560000 'NV\0\0', cstring "NV" */]
00006CFA  487A FCB4                pea.l      [PC - 0x34C /* 000069B0, value 0x4E560000 'NV\0\0', cstring "NV" */]
00006CFE  42A7                     clr.l      -[A7]
00006D00  42A7                     clr.l      -[A7]
00006D02  486E FFA0                pea.l      [A6 - 0x60]
00006D06  3F3C 0008                move.w     -[A7], 0x8
00006D0A  A9EA                     syscall    Pack3
00006D0C  486E FF38                pea.l      [A6 - 0xC8]
00006D10  4EBA FE1E                jsr        [PC - 0x1E2 /* 00006B30 */]
00006D14  1D6E FFFB 0008           move.b     [A6 + 0x8], [A6 - 0x5]
00006D1A  4E5E                     unlink     A6
00006D1C  4E75                     rts
00006D1E  4E56 0000                link       A6, 0
00006D22  48E7 0118                movem.l    -[A7], D7,A3,A4
00006D26  266E 000C                movea.l    A3, [A6 + 0xC]
00006D2A  286E 0008                movea.l    A4, [A6 + 0x8]
00006D2E  3E2E 0010                move.w     D7, [A6 + 0x10]
00006D32  203C 7374 6466           move.l     D0, 0x73746466 /* 'stdf' */
00006D38  B0AB 0098                cmp.l      D0, [A3 + 0x98]
00006D3C  671A                     beq        +0x1C /* 00006D58 */
00006D3E  203C 6C6F 636B           move.l     D0, 0x6C6F636B /* 'lock' */
00006D44  B0AB 0098                cmp.l      D0, [A3 + 0x98]
00006D48  6608                     bne        +0xA /* 00006D52 */
00006D4A  70FF                     moveq.l    D0, 0xFFFFFFFF
00006D4C  B047                     cmp.w      D0, D7
00006D4E  6602                     bne        +0x4 /* 00006D52 */
00006D50  7E01                     moveq.l    D7, 0x01
label00006D52:
00006D52  3D47 0012                move.w     [A6 + 0x12], D7
00006D56  6034                     bra        +0x36 /* 00006D8C */
label00006D58:
00006D58  700B                     moveq.l    D0, 0x0B
00006D5A  B047                     cmp.w      D0, D7
00006D5C  661E                     bne        +0x20 /* 00006D7C */
00006D5E  102C 0050                move.b     D0, [A4 + 0x50]
00006D62  6606                     bne        +0x8 /* 00006D6A */
00006D64  802C 0051                or.b       D0, [A4 + 0x51]
00006D68  6704                     beq        +0x6 /* 00006D6E */
label00006D6A:
00006D6A  7E67                     moveq.l    D7, 0x67
00006D6C  600E                     bra        +0x10 /* 00006D7C */
label00006D6E:
00006D6E  082C 0007 004E           btst.b     [A4 + 0x4E], 0x7
00006D74  6704                     beq        +0x6 /* 00006D7A */
00006D76  7E68                     moveq.l    D7, 0x68
00006D78  6002                     bra        +0x4 /* 00006D7C */
label00006D7A:
00006D7A  7E01                     moveq.l    D7, 0x01
label00006D7C:
00006D7C  4267                     clr.w      -[A7]
00006D7E  3F07                     move.w     -[A7], D7
00006D80  2F0B                     move.l     -[A7], A3
00006D82  2F0C                     move.l     -[A7], A4
00006D84  4EBA FE08                jsr        [PC - 0x1F8 /* 00006B8E */]
00006D88  3D5F 0012                move.w     [A6 + 0x12], [A7]+
label00006D8C:
00006D8C  4CDF 1880                movem.l    D7,A3,A4, [A7]+
00006D90  4E5E                     unlink     A6
00006D92  205F                     movea.l    A0, [A7]+
00006D94  DEFC 000A                add.w      A7, 0xA /* '\n' */
00006D98  4ED0                     jmp        [A0]
export_92:
00006D9A  4E56 FF8C                link       A6, -0x0074
00006D9E  2F0C                     move.l     -[A7], A4
00006DA0  42A7                     clr.l      -[A7]
00006DA2  3F3C 0E7A                move.w     -[A7], 0xE7A
00006DA6  486E FFFC                pea.l      [A6 - 0x4]
00006DAA  4EBA D6AA                jsr        [PC - 0x2956 /* 00004456 */]
00006DAE  285F                     movea.l    A4, [A7]+
00006DB0  200C                     move.l     D0, A4
00006DB2  56C0                     sne        D0
00006DB4  4A00                     tst.b      D0
00006DB6  6758                     beq        +0x5A /* 00006E10 */
00006DB8  4A94                     tst.l      [A4]
00006DBA  56C1                     sne        D1
00006DBC  C001                     and.b      D0, D1
00006DBE  6750                     beq        +0x52 /* 00006E10 */
00006DC0  3D7C 000B FFF8           move.w     [A6 - 0x8], 0xB
00006DC6  1D7C 0001 FFFA           move.b     [A6 - 0x6], 0x1
00006DCC  487A FBB8                pea.l      [PC - 0x448 /* 00006986, value 0x4E560000 'NV\0\0', cstring "NV" */]
00006DD0  3F3C FFFF                move.w     -[A7], 0xFFFF
00006DD4  486E FF90                pea.l      [A6 - 0x70]
00006DD8  486E FFA0                pea.l      [A6 - 0x60]
00006DDC  3F3C 0E7A                move.w     -[A7], 0xE7A
00006DE0  2F2E FFFC                move.l     -[A7], [A6 - 0x4]
00006DE4  487A FF38                pea.l      [PC - 0xC8 /* 00006D1E, value 0x4E560000 'NV\0\0', cstring "NV" */]
00006DE8  487A FBC6                pea.l      [PC - 0x43A /* 000069B0, value 0x4E560000 'NV\0\0', cstring "NV" */]
00006DEC  42A7                     clr.l      -[A7]
00006DEE  42A7                     clr.l      -[A7]
00006DF0  486E FFA0                pea.l      [A6 - 0x60]
00006DF4  3F3C 0008                move.w     -[A7], 0x8
00006DF8  A9EA                     syscall    Pack3
00006DFA  4240                     clr.w      D0
00006DFC  102E FFAC                move.b     D0, [A6 - 0x54]
00006E00  4A40                     tst.w      D0
00006E02  6604                     bne        +0x6 /* 00006E08 */
00006E04  422E FFA0                clr.b      [A6 - 0x60]
label00006E08:
00006E08  486E FFA0                pea.l      [A6 - 0x60]
00006E0C  4EBA FD22                jsr        [PC - 0x2DE /* 00006B30 */]
label00006E10:
00006E10  285F                     movea.l    A4, [A7]+
00006E12  4E5E                     unlink     A6
00006E14  4E75                     rts
fn00006E16:
00006E16  4E56 FE94                link       A6, -0x016C
00006E1A  206E 000C                movea.l    A0, [A6 + 0xC]
00006E1E  43EE FF00                lea.l      A1, [A6 - 0x100]
00006E22  707F                     moveq.l    D0, 0x7F
label00006E24:
00006E24  32D8                     move.w     [A1]+, [A0]+
00006E26  51C8 FFFC                dbf        D0, -0x6 /* 00006E24 */
00006E2A  41EE FF00                lea.l      A0, [A6 - 0x100]
00006E2E  2D48 FEA6                move.l     [A6 - 0x15A], A0
00006E32  3D6E 0010 FEAA           move.w     [A6 - 0x156], [A6 + 0x10]
00006E38  426E FEB0                clr.w      [A6 - 0x150]
00006E3C  7000                     moveq.l    D0, 0x00
00006E3E  2D40 FEA0                move.l     [A6 - 0x160], D0
00006E42  7000                     moveq.l    D0, 0x00
00006E44  2D40 FEC4                move.l     [A6 - 0x13C], D0
00006E48  42A7                     clr.l      -[A7]
00006E4A  486E FE94                pea.l      [A6 - 0x16C]
00006E4E  4267                     clr.w      -[A7]
00006E50  4EAD 0612                jsr        [A5 + 0x612 /* export_190, CODE:3 @ 0000297C */]
00006E54  4267                     clr.w      -[A7]
00006E56  4EBA C0BC                jsr        [PC - 0x3F44 /* 00002F14 */]
00006E5A  1D5F 0012                move.b     [A6 + 0x12], [A7]+
00006E5E  206E 0008                movea.l    A0, [A6 + 0x8]
00006E62  20AE FEC4                move.l     [A0], [A6 - 0x13C]
00006E66  4E5E                     unlink     A6
00006E68  205F                     movea.l    A0, [A7]+
00006E6A  DEFC 000A                add.w      A7, 0xA /* '\n' */
00006E6E  4ED0                     jmp        [A0]
fn00006E70:
00006E70  4E56 FEB2                link       A6, -0x014E
00006E74  206E 000A                movea.l    A0, [A6 + 0xA]
00006E78  43EE FFBA                lea.l      A1, [A6 - 0x46]
00006E7C  7022                     moveq.l    D0, 0x22
label00006E7E:
00006E7E  32D8                     move.w     [A1]+, [A0]+
00006E80  51C8 FFFC                dbf        D0, -0x6 /* 00006E7E */
00006E84  42A7                     clr.l      -[A7]
00006E86  3F2E FFBA                move.w     -[A7], [A6 - 0x46]
00006E8A  2F2E FFBC                move.l     -[A7], [A6 - 0x44]
00006E8E  2F3C 5253 4544           move.l     -[A7], 0x52534544 /* 'RSED' */
00006E94  486E FFB8                pea.l      [A6 - 0x48]
00006E98  4EAD 06AA                jsr        [A5 + 0x6AA /* export_209, CODE:3 @ 00002E1A */]
00006E9C  4267                     clr.w      -[A7]
00006E9E  4EBA C074                jsr        [PC - 0x3F8C /* 00002F14 */]
00006EA2  101F                     move.b     D0, [A7]+
00006EA4  6602                     bne        +0x4 /* 00006EA8 */
00006EA6  6072                     bra        +0x74 /* 00006F1A */
label00006EA8:
00006EA8  41EE FEB4                lea.l      A0, [A6 - 0x14C]
00006EAC  43EE FFC0                lea.l      A1, [A6 - 0x40]
00006EB0  701F                     moveq.l    D0, 0x1F
label00006EB2:
00006EB2  30D9                     move.w     [A0]+, [A1]+
00006EB4  51C8 FFFC                dbf        D0, -0x6 /* 00006EB2 */
00006EB8  102E 0008                move.b     D0, [A6 + 0x8]
00006EBC  6736                     beq        +0x38 /* 00006EF4 */
00006EBE  42A7                     clr.l      -[A7]
00006EC0  486E FEB4                pea.l      [A6 - 0x14C]
00006EC4  3F2E FFB8                move.w     -[A7], [A6 - 0x48]
00006EC8  4EBA 931C                jsr        [PC - 0x6CE4 /* 000001E6 */]
00006ECC  101F                     move.b     D0, [A7]+
00006ECE  674A                     beq        +0x4C /* 00006F1A */
00006ED0  4267                     clr.w      -[A7]
00006ED2  3F2E FFB8                move.w     -[A7], [A6 - 0x48]
00006ED6  486E FEB4                pea.l      [A6 - 0x14C]
00006EDA  486E FFB4                pea.l      [A6 - 0x4C]
00006EDE  4EBA FF36                jsr        [PC - 0xCA /* 00006E16 */]
00006EE2  101F                     move.b     D0, [A7]+
00006EE4  6734                     beq        +0x36 /* 00006F1A */
00006EE6  2F2E FFB4                move.l     -[A7], [A6 - 0x4C]
00006EEA  3F2E FFB8                move.w     -[A7], [A6 - 0x48]
00006EEE  4EAD 0D22                jsr        [A5 + 0xD22 /* export_416, CODE:14 @ 00000628 */]
00006EF2  6026                     bra        +0x28 /* 00006F1A */
label00006EF4:
00006EF4  4267                     clr.w      -[A7]
00006EF6  1F3C 0001                move.b     -[A7], 0x1
00006EFA  486E FEB4                pea.l      [A6 - 0x14C]
00006EFE  3F2E FFB8                move.w     -[A7], [A6 - 0x48]
00006F02  4EBA 92E2                jsr        [PC - 0x6D1E /* 000001E6 */]
00006F06  101F                     move.b     D0, [A7]+
00006F08  6710                     beq        +0x12 /* 00006F1A */
00006F0A  486E FFC0                pea.l      [A6 - 0x40]
00006F0E  3F2E FFBA                move.w     -[A7], [A6 - 0x46]
00006F12  2F2E FFBC                move.l     -[A7], [A6 - 0x44]
00006F16  4EAD 0D52                jsr        [A5 + 0xD52 /* export_422, CODE:15 @ 00000210 */]
label00006F1A:
00006F1A  4E5E                     unlink     A6
00006F1C  205F                     movea.l    A0, [A7]+
00006F1E  5C4F                     addq.w     A7, 6
00006F20  4ED0                     jmp        [A0]
00006F22  4E56 FFEC                link       A6, -0x0014
00006F26  48E7 0318                movem.l    -[A7], D6,D7,A3,A4
00006F2A  266E 000C                movea.l    A3, [A6 + 0xC]
00006F2E  286E 0008                movea.l    A4, [A6 + 0x8]
00006F32  3E2E 0010                move.w     D7, [A6 + 0x10]
00006F36  203C 7374 6466           move.l     D0, 0x73746466 /* 'stdf' */
00006F3C  B0AB 0098                cmp.l      D0, [A3 + 0x98]
00006F40  6708                     beq        +0xA /* 00006F4A */
00006F42  3D47 0012                move.w     [A6 + 0x12], D7
00006F46  6000 0160                bra        +0x162 /* 000070A8 */
label00006F4A:
00006F4A  7007                     moveq.l    D0, 0x07
00006F4C  B047                     cmp.w      D0, D7
00006F4E  57C0                     seq        D0
00006F50  7264                     moveq.l    D1, 0x64
00006F52  B247                     cmp.w      D1, D7
00006F54  57C1                     seq        D1
00006F56  8001                     or.b       D0, D1
00006F58  6700 00C6                beq        +0xC8 /* 00007020 */
00006F5C  2F0B                     move.l     -[A7], A3
00006F5E  3F3C 000B                move.w     -[A7], 0xB
00006F62  486E FFF4                pea.l      [A6 - 0xC]
00006F66  486E FFF8                pea.l      [A6 - 0x8]
00006F6A  486E FFEC                pea.l      [A6 - 0x14]
00006F6E  A98D                     syscall    GetDialogItem/GetDItem
00006F70  102C 005A                move.b     D0, [A4 + 0x5A]
00006F74  6718                     beq        +0x1A /* 00006F8E */
00006F76  2F00                     move.l     -[A7], D0
00006F78  4267                     clr.w      -[A7]
00006F7A  2F0C                     move.l     -[A7], A4
00006F7C  4EBA FB56                jsr        [PC - 0x4AA /* 00006AD4 */]
00006F80  121F                     move.b     D1, [A7]+
00006F82  201F                     move.l     D0, [A7]+
00006F84  C001                     and.b      D0, D1
00006F86  6706                     beq        +0x8 /* 00006F8E */
00006F88  3C3C 00FF                move.w     D6, 0xFF
00006F8C  603A                     bra        +0x3C /* 00006FC8 */
label00006F8E:
00006F8E  102C 005A                move.b     D0, [A4 + 0x5A]
00006F92  6716                     beq        +0x18 /* 00006FAA */
00006F94  2F00                     move.l     -[A7], D0
00006F96  4267                     clr.w      -[A7]
00006F98  2F0C                     move.l     -[A7], A4
00006F9A  4EBA FA54                jsr        [PC - 0x5AC /* 000069F0 */]
00006F9E  121F                     move.b     D1, [A7]+
00006FA0  201F                     move.l     D0, [A7]+
00006FA2  C001                     and.b      D0, D1
00006FA4  6704                     beq        +0x6 /* 00006FAA */
00006FA6  4246                     clr.w      D6
00006FA8  601E                     bra        +0x20 /* 00006FC8 */
label00006FAA:
00006FAA  4240                     clr.w      D0
00006FAC  102C 000C                move.b     D0, [A4 + 0xC]
00006FB0  4A40                     tst.w      D0
00006FB2  6606                     bne        +0x8 /* 00006FBA */
00006FB4  3C3C 00FF                move.w     D6, 0xFF
00006FB8  600E                     bra        +0x10 /* 00006FC8 */
label00006FBA:
00006FBA  102C 0051                move.b     D0, [A4 + 0x51]
00006FBE  6706                     beq        +0x8 /* 00006FC6 */
00006FC0  3C3C 00FF                move.w     D6, 0xFF
00006FC4  6002                     bra        +0x4 /* 00006FC8 */
label00006FC6:
00006FC6  4246                     clr.w      D6
label00006FC8:
00006FC8  2F2E FFF8                move.l     -[A7], [A6 - 0x8]
00006FCC  3F06                     move.w     -[A7], D6
00006FCE  A95D                     syscall    HiliteControl
00006FD0  2F0B                     move.l     -[A7], A3
00006FD2  3F3C 000C                move.w     -[A7], 0xC
00006FD6  486E FFF4                pea.l      [A6 - 0xC]
00006FDA  486E FFF8                pea.l      [A6 - 0x8]
00006FDE  486E FFEC                pea.l      [A6 - 0x14]
00006FE2  A98D                     syscall    GetDialogItem/GetDItem
00006FE4  102C 0051                move.b     D0, [A4 + 0x51]
00006FE8  802C 0050                or.b       D0, [A4 + 0x50]
00006FEC  6704                     beq        +0x6 /* 00006FF2 */
00006FEE  4246                     clr.w      D6
00006FF0  6026                     bra        +0x28 /* 00007018 */
label00006FF2:
00006FF2  4267                     clr.w      -[A7]
00006FF4  2F0C                     move.l     -[A7], A4
00006FF6  4EBA F9F8                jsr        [PC - 0x608 /* 000069F0 */]
00006FFA  101F                     move.b     D0, [A7]+
00006FFC  6612                     bne        +0x14 /* 00007010 */
00006FFE  2F00                     move.l     -[A7], D0
00007000  4267                     clr.w      -[A7]
00007002  2F0C                     move.l     -[A7], A4
00007004  4EBA FACE                jsr        [PC - 0x532 /* 00006AD4 */]
00007008  121F                     move.b     D1, [A7]+
0000700A  201F                     move.l     D0, [A7]+
0000700C  8001                     or.b       D0, D1
0000700E  6704                     beq        +0x6 /* 00007014 */
label00007010:
00007010  4246                     clr.w      D6
00007012  6004                     bra        +0x6 /* 00007018 */
label00007014:
00007014  3C3C 00FF                move.w     D6, 0xFF
label00007018:
00007018  2F2E FFF8                move.l     -[A7], [A6 - 0x8]
0000701C  3F06                     move.w     -[A7], D6
0000701E  A95D                     syscall    HiliteControl
label00007020:
00007020  700A                     moveq.l    D0, 0x0A
00007022  B047                     cmp.w      D0, D7
00007024  662E                     bne        +0x30 /* 00007054 */
00007026  2F0B                     move.l     -[A7], A3
00007028  3F07                     move.w     -[A7], D7
0000702A  486E FFF4                pea.l      [A6 - 0xC]
0000702E  486E FFFC                pea.l      [A6 - 0x4]
00007032  486E FFEC                pea.l      [A6 - 0x14]
00007036  A98D                     syscall    GetDialogItem/GetDItem
00007038  102C 005A                move.b     D0, [A4 + 0x5A]
0000703C  0A00 0001                xori.b     D0, 0x1
00007040  1940 005A                move.b     [A4 + 0x5A], D0
00007044  6704                     beq        +0x6 /* 0000704A */
00007046  4246                     clr.w      D6
00007048  6002                     bra        +0x4 /* 0000704C */
label0000704A:
0000704A  7C01                     moveq.l    D6, 0x01
label0000704C:
0000704C  2F2E FFFC                move.l     -[A7], [A6 - 0x4]
00007050  3F06                     move.w     -[A7], D6
00007052  A963                     syscall    SetControlValue/SetCtlValue
label00007054:
00007054  7001                     moveq.l    D0, 0x01
00007056  B047                     cmp.w      D0, D7
00007058  6614                     bne        +0x16 /* 0000706E */
0000705A  102C 0051                move.b     D0, [A4 + 0x51]
0000705E  802C 0050                or.b       D0, [A4 + 0x50]
00007062  6708                     beq        +0xA /* 0000706C */
00007064  3D7C 0001 0012           move.w     [A6 + 0x12], 0x1
0000706A  603C                     bra        +0x3E /* 000070A8 */
label0000706C:
0000706C  7E0B                     moveq.l    D7, 0x0B
label0000706E:
0000706E  700B                     moveq.l    D0, 0x0B
00007070  B047                     cmp.w      D0, D7
00007072  6608                     bne        +0xA /* 0000707C */
00007074  7E02                     moveq.l    D7, 0x02
00007076  197C 0001 005B           move.b     [A4 + 0x5B], 0x1
label0000707C:
0000707C  7068                     moveq.l    D0, 0x68
0000707E  B047                     cmp.w      D0, D7
00007080  660E                     bne        +0x10 /* 00007090 */
00007082  102C 005A                move.b     D0, [A4 + 0x5A]
00007086  6602                     bne        +0x4 /* 0000708A */
00007088  7E02                     moveq.l    D7, 0x02
label0000708A:
0000708A  197C 0001 005B           move.b     [A4 + 0x5B], 0x1
label00007090:
00007090  700C                     moveq.l    D0, 0x0C
00007092  B047                     cmp.w      D0, D7
00007094  660E                     bne        +0x10 /* 000070A4 */
00007096  082C 0007 004E           btst.b     [A4 + 0x4E], 0x7
0000709C  6704                     beq        +0x6 /* 000070A2 */
0000709E  7E68                     moveq.l    D7, 0x68
000070A0  6002                     bra        +0x4 /* 000070A4 */
label000070A2:
000070A2  7E67                     moveq.l    D7, 0x67
label000070A4:
000070A4  3D47 0012                move.w     [A6 + 0x12], D7
label000070A8:
000070A8  4CDF 18C0                movem.l    D6,D7,A3,A4, [A7]+
000070AC  4E5E                     unlink     A6
000070AE  205F                     movea.l    A0, [A7]+
000070B0  DEFC 000A                add.w      A7, 0xA /* '\n' */
000070B4  4ED0                     jmp        [A0]
fn000070B6:
000070B6  4E56 FF48                link       A6, -0x00B8
000070BA  3D7C FFFF FFFE           move.w     [A6 - 0x2], 0xFFFF
000070C0  3D7C FFFF FFFC           move.w     [A6 - 0x4], 0xFFFF
000070C6  3D7C 000B FFB2           move.w     [A6 - 0x4E], 0xB
000070CC  3D7C 0100 FFB4           move.w     [A6 - 0x4C], 0x100
000070D2  487A F8B2                pea.l      [PC - 0x74E /* 00006986, value 0x4E560000 'NV\0\0', cstring "NV" */]
000070D6  3F3C FFFF                move.w     -[A7], 0xFFFF
000070DA  486E FF4A                pea.l      [A6 - 0xB6]
000070DE  486E FF5A                pea.l      [A6 - 0xA6]
000070E2  3F3C 0E76                move.w     -[A7], 0xE76
000070E6  2F2E FFFC                move.l     -[A7], [A6 - 0x4]
000070EA  487A FE36                pea.l      [PC - 0x1CA /* 00006F22, value 0x4E56FFEC */]
000070EE  487A F8C0                pea.l      [PC - 0x740 /* 000069B0, value 0x4E560000 'NV\0\0', cstring "NV" */]
000070F2  42A7                     clr.l      -[A7]
000070F4  42A7                     clr.l      -[A7]
000070F6  486E FF5A                pea.l      [A6 - 0xA6]
000070FA  3F3C 0008                move.w     -[A7], 0x8
000070FE  A9EA                     syscall    Pack3
00007100  4240                     clr.w      D0
00007102  102E FF66                move.b     D0, [A6 - 0x9A]
00007106  4A40                     tst.w      D0
00007108  6604                     bne        +0x6 /* 0000710E */
0000710A  422E FF5A                clr.b      [A6 - 0xA6]
label0000710E:
0000710E  102E FFB5                move.b     D0, [A6 - 0x4B]
00007112  6752                     beq        +0x54 /* 00007166 */
00007114  41EE FFB6                lea.l      A0, [A6 - 0x4A]
00007118  43EE FF60                lea.l      A1, [A6 - 0xA0]
0000711C  7022                     moveq.l    D0, 0x22
label0000711E:
0000711E  30D9                     move.w     [A0]+, [A1]+
00007120  51C8 FFFC                dbf        D0, -0x6 /* 0000711E */
00007124  1D6E FFAA FF49           move.b     [A6 - 0xB7], [A6 - 0x56]
0000712A  082E 0007 FFA8           btst.b     [A6 - 0x58], 0x7
00007130  56C0                     sne        D0
00007132  C02E FFB4                and.b      D0, [A6 - 0x4C]
00007136  6722                     beq        +0x24 /* 0000715A */
00007138  42A7                     clr.l      -[A7]
0000713A  486E FFB6                pea.l      [A6 - 0x4A]
0000713E  1F3C 0001                move.b     -[A7], 0x1
00007142  486E FF49                pea.l      [A6 - 0xB7]
00007146  486E FF48                pea.l      [A6 - 0xB8]
0000714A  700C                     moveq.l    D0, 0x0C
0000714C  A823                     syscall    AliasDispatch
0000714E  4267                     clr.w      -[A7]
00007150  4EBA BDC2                jsr        [PC - 0x423E /* 00002F14 */]
00007154  101F                     move.b     D0, [A7]+
00007156  6602                     bne        +0x4 /* 0000715A */
00007158  600C                     bra        +0xE /* 00007166 */
label0000715A:
0000715A  486E FFB6                pea.l      [A6 - 0x4A]
0000715E  1F2E FF49                move.b     -[A7], [A6 - 0xB7]
00007162  4EBA FD0C                jsr        [PC - 0x2F4 /* 00006E70 */]
label00007166:
00007166  4E5E                     unlink     A6
00007168  4E75                     rts
fn0000716A:
0000716A  4E56 FFFC                link       A6, -0x0004
0000716E  2F0C                     move.l     -[A7], A4
00007170  286D FA08                movea.l    A4, [A5 - 0x5F8]
label00007174:
00007174  200C                     move.l     D0, A4
00007176  6714                     beq        +0x16 /* 0000718C */
00007178  2054                     movea.l    A0, [A4]
0000717A  202E 0008                move.l     D0, [A6 + 0x8]
0000717E  B0A8 0004                cmp.l      D0, [A0 + 0x4]
00007182  6602                     bne        +0x4 /* 00007186 */
00007184  6006                     bra        +0x8 /* 0000718C */
label00007186:
00007186  2054                     movea.l    A0, [A4]
00007188  2850                     movea.l    A4, [A0]
0000718A  60E8                     bra        -0x16 /* 00007174 */
label0000718C:
0000718C  2D4C 000C                move.l     [A6 + 0xC], A4
00007190  285F                     movea.l    A4, [A7]+
00007192  4E5E                     unlink     A6
00007194  2E9F                     move.l     [A7], [A7]+
00007196  4E75                     rts
00007198  4E56 FFFC                link       A6, -0x0004
0000719C  2F0C                     move.l     -[A7], A4
0000719E  426E 0010                clr.w      [A6 + 0x10]
000071A2  42A7                     clr.l      -[A7]
000071A4  2F2E 000C                move.l     -[A7], [A6 + 0xC]
000071A8  4EBA FFC0                jsr        [PC - 0x40 /* 0000716A */]
000071AC  285F                     movea.l    A4, [A7]+
000071AE  200C                     move.l     D0, A4
000071B0  662C                     bne        +0x2E /* 000071DE */
000071B2  42A7                     clr.l      -[A7]
000071B4  700C                     moveq.l    D0, 0x0C
000071B6  2F00                     move.l     -[A7], D0
000071B8  4EAD 04FA                jsr        [A5 + 0x4FA /* export_155, CODE:3 @ 000024FC */]
000071BC  285F                     movea.l    A4, [A7]+
000071BE  4267                     clr.w      -[A7]
000071C0  3EB8 0220                move.w     [A7], [0x00000220 /* MemErr */]
000071C4  3D5F 0010                move.w     [A6 + 0x10], [A7]+
000071C8  200C                     move.l     D0, A4
000071CA  6712                     beq        +0x14 /* 000071DE */
000071CC  2054                     movea.l    A0, [A4]
000071CE  216E 000C 0004           move.l     [A0 + 0x4], [A6 + 0xC]
000071D4  2054                     movea.l    A0, [A4]
000071D6  20AD FA08                move.l     [A0], [A5 - 0x5F8]
000071DA  2B4C FA08                move.l     [A5 - 0x5F8], A4
label000071DE:
000071DE  200C                     move.l     D0, A4
000071E0  6708                     beq        +0xA /* 000071EA */
000071E2  2054                     movea.l    A0, [A4]
000071E4  216E 0008 0008           move.l     [A0 + 0x8], [A6 + 0x8]
label000071EA:
000071EA  285F                     movea.l    A4, [A7]+
000071EC  4E5E                     unlink     A6
000071EE  205F                     movea.l    A0, [A7]+
000071F0  504F                     addq.w     A7, 8
000071F2  4ED0                     jmp        [A0]
000071F4  4E56 FFFC                link       A6, -0x0004
000071F8  2F0C                     move.l     -[A7], A4
000071FA  42A7                     clr.l      -[A7]
000071FC  2F2E 000C                move.l     -[A7], [A6 + 0xC]
00007200  4EBA FF68                jsr        [PC - 0x98 /* 0000716A */]
00007204  285F                     movea.l    A4, [A7]+
00007206  200C                     move.l     D0, A4
00007208  670A                     beq        +0xC /* 00007214 */
0000720A  2054                     movea.l    A0, [A4]
0000720C  226E 0008                movea.l    A1, [A6 + 0x8]
00007210  22A8 0008                move.l     [A1], [A0 + 0x8]
label00007214:
00007214  200C                     move.l     D0, A4
00007216  56C0                     sne        D0
00007218  4400                     neg.b      D0
0000721A  1D40 0010                move.b     [A6 + 0x10], D0
0000721E  285F                     movea.l    A4, [A7]+
00007220  4E5E                     unlink     A6
00007222  205F                     movea.l    A0, [A7]+
00007224  504F                     addq.w     A7, 8
00007226  4ED0                     jmp        [A0]
