# near model CODE resource
# jump table entries: 2320-2365 (46 of them)
export_290:
fn00000000:
00000000  4E56 FFFC                link       A6, -0x0004
00000004  48E7 0108                movem.l    -[A7], D7,A4
00000008  206D F936                movea.l    A0, [A5 - 0x6CA]
0000000C  2850                     movea.l    A4, [A0]
0000000E  302D FBE6                move.w     D0, [A5 - 0x41A]
00000012  907C 000A                sub.w      D0, 0xA /* '\n' */
00000016  48C0                     ext.l      D0
00000018  2E00                     move.l     D7, D0
0000001A  302C 0008                move.w     D0, [A4 + 0x8]
0000001E  48C0                     ext.l      D0
00000020  BE80                     cmp.l      D7, D0
00000022  6C06                     bge        +0x8 /* 0000002A */
00000024  3D47 0008                move.w     [A6 + 0x8], D7
00000028  6006                     bra        +0x8 /* 00000030 */
label0000002A:
0000002A  3D6C 0008 0008           move.w     [A6 + 0x8], [A4 + 0x8]
label00000030:
00000030  4CDF 1080                movem.l    D7,A4, [A7]+
00000034  4E5E                     unlink     A6
00000036  4E75                     rts
export_291:
fn00000038:
00000038  4E56 FFFC                link       A6, -0x0004
0000003C  48E7 0108                movem.l    -[A7], D7,A4
00000040  206D F936                movea.l    A0, [A5 - 0x6CA]
00000044  2850                     movea.l    A4, [A0]
00000046  302D FBE4                move.w     D0, [A5 - 0x41C]
0000004A  907C 0028                sub.w      D0, 0x28 /* '(' */
0000004E  48C0                     ext.l      D0
00000050  2E00                     move.l     D7, D0
00000052  302C 000A                move.w     D0, [A4 + 0xA]
00000056  48C0                     ext.l      D0
00000058  BE80                     cmp.l      D7, D0
0000005A  6C06                     bge        +0x8 /* 00000062 */
0000005C  3D47 0008                move.w     [A6 + 0x8], D7
00000060  6006                     bra        +0x8 /* 00000068 */
label00000062:
00000062  3D6C 000A 0008           move.w     [A6 + 0x8], [A4 + 0xA]
label00000068:
00000068  4CDF 1080                movem.l    D7,A4, [A7]+
0000006C  4E5E                     unlink     A6
0000006E  4E75                     rts
fn00000070:
00000070  4E56 FFD8                link       A6, -0x0028
00000074  48E7 0118                movem.l    -[A7], D7,A3,A4
00000078  2E2E 0014                move.l     D7, [A6 + 0x14]
0000007C  2F07                     move.l     -[A7], D7
0000007E  A873                     syscall    SetPort
00000080  2047                     movea.l    A0, D7
00000082  43EE FFD8                lea.l      A1, [A6 - 0x28]
00000086  41E8 0010                lea.l      A0, [A0 + 0x10]
0000008A  7003                     moveq.l    D0, 0x03
label0000008C:
0000008C  32D8                     move.w     [A1]+, [A0]+
0000008E  51C8 FFFC                dbf        D0, -0x6 /* 0000008C */
00000092  7001                     moveq.l    D0, 0x01
00000094  B06E 0012                cmp.w      D0, [A6 + 0x12]
00000098  57C0                     seq        D0
0000009A  4A00                     tst.b      D0
0000009C  6714                     beq        +0x16 /* 000000B2 */
0000009E  4AAE 000E                tst.l      [A6 + 0xE]
000000A2  57C1                     seq        D1
000000A4  C001                     and.b      D0, D1
000000A6  670A                     beq        +0xC /* 000000B2 */
000000A8  4267                     clr.w      -[A7]
000000AA  4EBA 0612                jsr        [PC + 0x612 /* 000006BE */]
000000AE  3D5F FFD8                move.w     [A6 - 0x28], [A7]+
label000000B2:
000000B2  41EE FFE8                lea.l      A0, [A6 - 0x18]
000000B6  43EE FFD8                lea.l      A1, [A6 - 0x28]
000000BA  7003                     moveq.l    D0, 0x03
label000000BC:
000000BC  30D9                     move.w     [A0]+, [A1]+
000000BE  51C8 FFFC                dbf        D0, -0x6 /* 000000BC */
000000C2  046E 000F FFEE           subi.w     [A6 - 0x12], 0xF
000000C8  486E FFF0                pea.l      [A6 - 0x10]
000000CC  42A7                     clr.l      -[A7]
000000CE  3F2E 0012                move.w     -[A7], [A6 + 0x12]
000000D2  4267                     clr.w      -[A7]
000000D4  A8A7                     syscall    SetRect
000000D6  42A7                     clr.l      -[A7]
000000D8  A8D8                     syscall    NewRgn
000000DA  265F                     movea.l    A3, [A7]+
000000DC  2F0B                     move.l     -[A7], A3
000000DE  A87A                     syscall    GetClip
000000E0  41EE FFF8                lea.l      A0, [A6 - 0x8]
000000E4  43EE FFD8                lea.l      A1, [A6 - 0x28]
000000E8  7003                     moveq.l    D0, 0x03
label000000EA:
000000EA  30D9                     move.w     [A0]+, [A1]+
000000EC  51C8 FFFC                dbf        D0, -0x6 /* 000000EA */
000000F0  046E 0010 FFFE           subi.w     [A6 - 0x2], 0x10
000000F6  486E FFF8                pea.l      [A6 - 0x8]
000000FA  A87B                     syscall    ClipRect
000000FC  42A7                     clr.l      -[A7]
000000FE  486E FFE8                pea.l      [A6 - 0x18]
00000102  486E FFF0                pea.l      [A6 - 0x10]
00000106  2F2E 000E                move.l     -[A7], [A6 + 0xE]
0000010A  3F2E 000C                move.w     -[A7], [A6 + 0xC]
0000010E  2F07                     move.l     -[A7], D7
00000110  102D FFFA                move.b     D0, [A5 - 0x6]
00000114  0A00 0001                xori.b     D0, 0x1
00000118  1F00                     move.b     -[A7], D0
0000011A  1F3C 0001                move.b     -[A7], 0x1
0000011E  4267                     clr.w      -[A7]
00000120  1F3C 0001                move.b     -[A7], 0x1
00000124  3F3C 0044                move.w     -[A7], 0x44 /* 'D' */
00000128  A9E7                     syscall    Pack0/ListManager
0000012A  285F                     movea.l    A4, [A7]+
0000012C  2054                     movea.l    A0, [A4]
0000012E  216E 0008 003C           move.l     [A0 + 0x3C], [A6 + 0x8]
00000134  2054                     movea.l    A0, [A4]
00000136  2F28 001C                move.l     -[A7], [A0 + 0x1C]
0000013A  3F3C 0010                move.w     -[A7], 0x10
0000013E  302E FFEC                move.w     D0, [A6 - 0x14]
00000142  906E FFE8                sub.w      D0, [A6 - 0x18]
00000146  907C 000F                sub.w      D0, 0xF
0000014A  5440                     addq.w     D0, 2
0000014C  3F00                     move.w     -[A7], D0
0000014E  A95C                     syscall    SizeControl
00000150  2F0B                     move.l     -[A7], A3
00000152  A879                     syscall    SetClip
00000154  2F0B                     move.l     -[A7], A3
00000156  A8D9                     syscall    DisposRgn/DisposeRgn
00000158  102D FFFA                move.b     D0, [A5 - 0x6]
0000015C  6718                     beq        +0x1A /* 00000176 */
0000015E  2054                     movea.l    A0, [A4]
00000160  4228 0025                clr.b      [A0 + 0x25]
00000164  1F3C 0001                move.b     -[A7], 0x1
00000168  2F0C                     move.l     -[A7], A4
0000016A  3F3C 002C                move.w     -[A7], 0x2C /* ',' */
0000016E  A9E7                     syscall    Pack0/ListManager
00000170  486E FFE8                pea.l      [A6 - 0x18]
00000174  A928                     syscall    InvalRect
label00000176:
00000176  2054                     movea.l    A0, [A4]
00000178  117C 0002 0024           move.b     [A0 + 0x24], 0x2
0000017E  2D4C 001A                move.l     [A6 + 0x1A], A4
00000182  102E 0018                move.b     D0, [A6 + 0x18]
00000186  6716                     beq        +0x18 /* 0000019E */
00000188  2047                     movea.l    A0, D7
0000018A  0C68 2711 006C           cmpi.w     [A0 + 0x6C], 0x2711
00000190  56C1                     sne        D1
00000192  C001                     and.b      D0, D1
00000194  6708                     beq        +0xA /* 0000019E */
00000196  42A7                     clr.l      -[A7]
00000198  2F0C                     move.l     -[A7], A4
0000019A  4EBA 4918                jsr        [PC + 0x4918 /* 00004AB4 */]
label0000019E:
0000019E  4CDF 1880                movem.l    D7,A3,A4, [A7]+
000001A2  4E5E                     unlink     A6
000001A4  205F                     movea.l    A0, [A7]+
000001A6  DEFC 0012                add.w      A7, 0x12
000001AA  4ED0                     jmp        [A0]
export_292:
000001AC  4E56 0000                link       A6, 0
000001B0  42A7                     clr.l      -[A7]
000001B2  1F3C 0001                move.b     -[A7], 0x1
000001B6  2F2E 0010                move.l     -[A7], [A6 + 0x10]
000001BA  3F2E 000E                move.w     -[A7], [A6 + 0xE]
000001BE  2F2E 000A                move.l     -[A7], [A6 + 0xA]
000001C2  3F2E 0008                move.w     -[A7], [A6 + 0x8]
000001C6  42A7                     clr.l      -[A7]
000001C8  4EBA FEA6                jsr        [PC - 0x15A /* 00000070 */]
000001CC  2D5F 0014                move.l     [A6 + 0x14], [A7]+
000001D0  4E5E                     unlink     A6
000001D2  205F                     movea.l    A0, [A7]+
000001D4  DEFC 000C                add.w      A7, 0xC
000001D8  4ED0                     jmp        [A0]
fn000001DA:
000001DA  4E56 FFFE                link       A6, -0x0002
000001DE  48E7 0108                movem.l    -[A7], D7,A4
000001E2  206E 0008                movea.l    A0, [A6 + 0x8]
000001E6  2850                     movea.l    A4, [A0]
000001E8  7004                     moveq.l    D0, 0x04
000001EA  B02C 012A                cmp.b      D0, [A4 + 0x12A]
000001EE  6704                     beq        +0x6 /* 000001F4 */
000001F0  4207                     clr.b      D7
000001F2  6016                     bra        +0x18 /* 0000020A */
label000001F4:
000001F4  4A6C 0138                tst.w      [A4 + 0x138]
000001F8  6604                     bne        +0x6 /* 000001FE */
000001FA  4207                     clr.b      D7
000001FC  600C                     bra        +0xE /* 0000020A */
label000001FE:
000001FE  4A6C 013A                tst.w      [A4 + 0x13A]
00000202  6604                     bne        +0x6 /* 00000208 */
00000204  7E01                     moveq.l    D7, 0x01
00000206  6002                     bra        +0x4 /* 0000020A */
label00000208:
00000208  7E02                     moveq.l    D7, 0x02
label0000020A:
0000020A  1D47 000C                move.b     [A6 + 0xC], D7
0000020E  4CDF 1080                movem.l    D7,A4, [A7]+
00000212  4E5E                     unlink     A6
00000214  2E9F                     move.l     [A7], [A7]+
00000216  4E75                     rts
export_293:
00000218  4E56 FEDA                link       A6, -0x0126
0000021C  48E7 0F18                movem.l    -[A7], D4,D5,D6,D7,A3,A4
00000220  206E 001E                movea.l    A0, [A6 + 0x1E]
00000224  43EE FFF8                lea.l      A1, [A6 - 0x8]
00000228  7003                     moveq.l    D0, 0x03
label0000022A:
0000022A  32D8                     move.w     [A1]+, [A0]+
0000022C  51C8 FFFC                dbf        D0, -0x6 /* 0000022A */
00000230  206E 0014                movea.l    A0, [A6 + 0x14]
00000234  43EE FEF8                lea.l      A1, [A6 - 0x108]
00000238  707F                     moveq.l    D0, 0x7F
label0000023A:
0000023A  32D8                     move.w     [A1]+, [A0]+
0000023C  51C8 FFFC                dbf        D0, -0x6 /* 0000023A */
00000240  266E 001A                movea.l    A3, [A6 + 0x1A]
00000244  286E 0008                movea.l    A4, [A6 + 0x8]
00000248  382E 0012                move.w     D4, [A6 + 0x12]
0000024C  41EE FEDA                lea.l      A0, [A6 - 0x126]
00000250  43EE FFF8                lea.l      A1, [A6 - 0x8]
00000254  7003                     moveq.l    D0, 0x03
label00000256:
00000256  30D9                     move.w     [A0]+, [A1]+
00000258  51C8 FFFC                dbf        D0, -0x6 /* 00000256 */
0000025C  2054                     movea.l    A0, [A4]
0000025E  3028 0010                move.w     D0, [A0 + 0x10]
00000262  D06E FFF8                add.w      D0, [A6 - 0x8]
00000266  3D40 FFFC                move.w     [A6 - 0x4], D0
0000026A  2054                     movea.l    A0, [A4]
0000026C  3028 0012                move.w     D0, [A0 + 0x12]
00000270  D06E FFFA                add.w      D0, [A6 - 0x6]
00000274  3D40 FFFE                move.w     [A6 - 0x2], D0
00000278  7001                     moveq.l    D0, 0x01
0000027A  B06E 0024                cmp.w      D0, [A6 + 0x24]
0000027E  6606                     bne        +0x8 /* 00000286 */
00000280  486E FFF8                pea.l      [A6 - 0x8]
00000284  A8A3                     syscall    EraseRect
label00000286:
00000286  200B                     move.l     D0, A3
00000288  56C0                     sne        D0
0000028A  4A00                     tst.b      D0
0000028C  660E                     bne        +0x10 /* 0000029C */
0000028E  7202                     moveq.l    D1, 0x02
00000290  B26E 0024                cmp.w      D1, [A6 + 0x24]
00000294  57C1                     seq        D1
00000296  8001                     or.b       D0, D1
00000298  6700 01A2                beq        +0x1A4 /* 0000043C */
label0000029C:
0000029C  2F0B                     move.l     -[A7], A3
0000029E  205F                     movea.l    A0, [A7]+
000002A0  A04A                     syscall    HNoPurge
000002A2  486E FEEA                pea.l      [A6 - 0x116]
000002A6  A88B                     syscall    GetFontInfo
000002A8  302E 0010                move.w     D0, [A6 + 0x10]
000002AC  5040                     addq.w     D0, 8
000002AE  322E FEEA                move.w     D1, [A6 - 0x116]
000002B2  D240                     add.w      D1, D0
000002B4  302E FEEC                move.w     D0, [A6 - 0x114]
000002B8  D041                     add.w      D0, D1
000002BA  3C2E FEF0                move.w     D6, [A6 - 0x110]
000002BE  DC40                     add.w      D6, D0
000002C0  2054                     movea.l    A0, [A4]
000002C2  3028 0010                move.w     D0, [A0 + 0x10]
000002C6  9046                     sub.w      D0, D6
000002C8  48C0                     ext.l      D0
000002CA  81FC 0002                divs.w     D0, 0x2
000002CE  D06E FFF8                add.w      D0, [A6 - 0x8]
000002D2  5640                     addq.w     D0, 3
000002D4  3D40 FFF8                move.w     [A6 - 0x8], D0
000002D8  3006                     move.w     D0, D6
000002DA  D06E FFF8                add.w      D0, [A6 - 0x8]
000002DE  3A00                     move.w     D5, D0
000002E0  5745                     subq.w     D5, 3
000002E2  302E 0010                move.w     D0, [A6 + 0x10]
000002E6  D06E FFF8                add.w      D0, [A6 - 0x8]
000002EA  3D40 FFFC                move.w     [A6 - 0x4], D0
000002EE  2054                     movea.l    A0, [A4]
000002F0  3028 0012                move.w     D0, [A0 + 0x12]
000002F4  9044                     sub.w      D0, D4
000002F6  48C0                     ext.l      D0
000002F8  81FC 0002                divs.w     D0, 0x2
000002FC  D16E FFFA                add.w      [A6 - 0x6], D0
00000300  3004                     move.w     D0, D4
00000302  D06E FFFA                add.w      D0, [A6 - 0x6]
00000306  3D40 FFFE                move.w     [A6 - 0x2], D0
0000030A  4A2E FEF8                tst.b      [A6 - 0x108]
0000030E  6610                     bne        +0x12 /* 00000320 */
00000310  302E 0018                move.w     D0, [A6 + 0x18]
00000314  48C0                     ext.l      D0
00000316  2F00                     move.l     -[A7], D0
00000318  486E FEF8                pea.l      [A6 - 0x108]
0000031C  4EAD 074A                jsr        [A5 + 0x74A /* export_229, CODE:3 @ 0000367E */]
label00000320:
00000320  4267                     clr.w      -[A7]
00000322  486E FEF8                pea.l      [A6 - 0x108]
00000326  A88C                     syscall    StringWidth
00000328  3E1F                     move.w     D7, [A7]+
0000032A  7001                     moveq.l    D0, 0x01
0000032C  B06E 0024                cmp.w      D0, [A6 + 0x24]
00000330  6652                     bne        +0x54 /* 00000384 */
00000332  4A93                     tst.l      [A3]
00000334  56C0                     sne        D0
00000336  4A00                     tst.b      D0
00000338  6724                     beq        +0x26 /* 0000035E */
0000033A  2F00                     move.l     -[A7], D0
0000033C  42A7                     clr.l      -[A7]
0000033E  2F0B                     move.l     -[A7], A3
00000340  4EAD 050A                jsr        [A5 + 0x50A /* export_157, CODE:3 @ 00002510 */]
00000344  221F                     move.l     D1, [A7]+
00000346  201F                     move.l     D0, [A7]+
00000348  4A81                     tst.l      D1
0000034A  56C1                     sne        D1
0000034C  C001                     and.b      D0, D1
0000034E  670E                     beq        +0x10 /* 0000035E */
00000350  486E FFF8                pea.l      [A6 - 0x8]
00000354  2F0B                     move.l     -[A7], A3
00000356  2F2E 000C                move.l     -[A7], [A6 + 0xC]
0000035A  4EAD 020A                jsr        [A5 + 0x20A /* export_61, CODE:1 @ 00005838 */]
label0000035E:
0000035E  302E FFFE                move.w     D0, [A6 - 0x2]
00000362  906E FFFA                sub.w      D0, [A6 - 0x6]
00000366  9047                     sub.w      D0, D7
00000368  48C0                     ext.l      D0
0000036A  81FC 0002                divs.w     D0, 0x2
0000036E  D06E FFFA                add.w      D0, [A6 - 0x6]
00000372  3F00                     move.w     -[A7], D0
00000374  3005                     move.w     D0, D5
00000376  906E FEEC                sub.w      D0, [A6 - 0x114]
0000037A  3F00                     move.w     -[A7], D0
0000037C  A893                     syscall    MoveTo
0000037E  486E FEF8                pea.l      [A6 - 0x108]
00000382  A884                     syscall    DrawString
label00000384:
00000384  102E 0022                move.b     D0, [A6 + 0x22]
00000388  6612                     bne        +0x14 /* 0000039C */
0000038A  7202                     moveq.l    D1, 0x02
0000038C  B26E 0024                cmp.w      D1, [A6 + 0x24]
00000390  57C1                     seq        D1
00000392  8001                     or.b       D0, D1
00000394  0240 0001                andi.w     D0, 0x1
00000398  6700 00A2                beq        +0xA4 /* 0000043C */
label0000039C:
0000039C  3F3C 000A                move.w     -[A7], 0xA /* '\n' */
000003A0  A89C                     syscall    PenMode
000003A2  2F3C 0002 0002           move.l     -[A7], 0x20002
000003A8  A89B                     syscall    PenSize
000003AA  41EE FEE2                lea.l      A0, [A6 - 0x11E]
000003AE  43EE FFF8                lea.l      A1, [A6 - 0x8]
000003B2  7003                     moveq.l    D0, 0x03
label000003B4:
000003B4  30D9                     move.w     [A0]+, [A1]+
000003B6  51C8 FFFC                dbf        D0, -0x6 /* 000003B4 */
000003BA  486E FEE2                pea.l      [A6 - 0x11E]
000003BE  2F3C FFFD FFFD           move.l     -[A7], 0xFFFDFFFD
000003C4  A8A9                     syscall    InsetRect
000003C6  486E FEE2                pea.l      [A6 - 0x11E]
000003CA  A8A1                     syscall    FrameRect
000003CC  302E FFF8                move.w     D0, [A6 - 0x8]
000003D0  5740                     subq.w     D0, 3
000003D2  906E FEDA                sub.w      D0, [A6 - 0x126]
000003D6  2054                     movea.l    A0, [A4]
000003D8  3140 000C                move.w     [A0 + 0xC], D0
000003DC  302E FFFA                move.w     D0, [A6 - 0x6]
000003E0  5740                     subq.w     D0, 3
000003E2  906E FEDC                sub.w      D0, [A6 - 0x124]
000003E6  2054                     movea.l    A0, [A4]
000003E8  3140 000E                move.w     [A0 + 0xE], D0
000003EC  302E FFFC                move.w     D0, [A6 - 0x4]
000003F0  5840                     addq.w     D0, 4
000003F2  3D40 FFF8                move.w     [A6 - 0x8], D0
000003F6  3D45 FFFC                move.w     [A6 - 0x4], D5
000003FA  3007                     move.w     D0, D7
000003FC  5840                     addq.w     D0, 4
000003FE  B840                     cmp.w      D4, D0
00000400  6C28                     bge        +0x2A /* 0000042A */
00000402  3007                     move.w     D0, D7
00000404  9044                     sub.w      D0, D4
00000406  48C0                     ext.l      D0
00000408  81FC 0002                divs.w     D0, 0x2
0000040C  3E00                     move.w     D7, D0
0000040E  5447                     addq.w     D7, 2
00000410  3007                     move.w     D0, D7
00000412  916E FFFA                sub.w      [A6 - 0x6], D0
00000416  3007                     move.w     D0, D7
00000418  D16E FFFE                add.w      [A6 - 0x2], D0
0000041C  302E FFFA                move.w     D0, [A6 - 0x6]
00000420  906E FEDC                sub.w      D0, [A6 - 0x124]
00000424  2054                     movea.l    A0, [A4]
00000426  3140 000E                move.w     [A0 + 0xE], D0
label0000042A:
0000042A  207C 0000 0938           movea.l    A0, 0x938 /* '\t8' */
00000430  0890 0007                bclr.b     [A0], 0x7
00000434  486E FFF8                pea.l      [A6 - 0x8]
00000438  A8A4                     syscall    InvertRect
0000043A  A89E                     syscall    PenNormal
label0000043C:
0000043C  4CDF 18F0                movem.l    D4,D5,D6,D7,A3,A4, [A7]+
00000440  4E5E                     unlink     A6
00000442  205F                     movea.l    A0, [A7]+
00000444  DEFC 001E                add.w      A7, 0x1E
00000448  4ED0                     jmp        [A0]
fn0000044A:
0000044A  4E56 FFEE                link       A6, -0x0012
0000044E  48E7 0318                movem.l    -[A7], D6,D7,A3,A4
00000452  286E 0008                movea.l    A4, [A6 + 0x8]
00000456  7000                     moveq.l    D0, 0x00
00000458  2640                     movea.l    A3, D0
0000045A  4267                     clr.w      -[A7]
0000045C  2F3C 524D 4150           move.l     -[A7], 0x524D4150 /* 'RMAP' */
00000462  A99C                     syscall    CountResources
00000464  3C1F                     move.w     D6, [A7]+
00000466  3D7C 0001 FFF0           move.w     [A6 - 0x10], 0x1
0000046C  3D46 FFEE                move.w     [A6 - 0x12], D6
00000470  3E2E FFF0                move.w     D7, [A6 - 0x10]
00000474  6000 008A                bra        +0x8C /* 00000500 */
label00000478:
00000478  4267                     clr.w      -[A7]
0000047A  A99B                     syscall    SetResLoad
0000047C  42A7                     clr.l      -[A7]
0000047E  2F3C 524D 4150           move.l     -[A7], 0x524D4150 /* 'RMAP' */
00000484  3F07                     move.w     -[A7], D7
00000486  A99D                     syscall    GetIndResource
00000488  265F                     movea.l    A3, [A7]+
0000048A  1F3C 0001                move.b     -[A7], 0x1
0000048E  A99B                     syscall    SetResLoad
00000490  2F0B                     move.l     -[A7], A3
00000492  486E FFFE                pea.l      [A6 - 0x2]
00000496  486E FFF2                pea.l      [A6 - 0xE]
0000049A  486C FF00                pea.l      [A4 - 0x100]
0000049E  A9A8                     syscall    GetResInfo
000004A0  4240                     clr.w      D0
000004A2  102C FF01                move.b     D0, [A4 - 0xFF]
000004A6  4241                     clr.w      D1
000004A8  122C FE01                move.b     D1, [A4 - 0x1FF]
000004AC  B240                     cmp.w      D1, D0
000004AE  56C0                     sne        D0
000004B0  4A00                     tst.b      D0
000004B2  663C                     bne        +0x3E /* 000004F0 */
000004B4  4241                     clr.w      D1
000004B6  122C FF02                move.b     D1, [A4 - 0xFE]
000004BA  4242                     clr.w      D2
000004BC  142C FE02                move.b     D2, [A4 - 0x1FE]
000004C0  B441                     cmp.w      D2, D1
000004C2  56C1                     sne        D1
000004C4  8001                     or.b       D0, D1
000004C6  6628                     bne        +0x2A /* 000004F0 */
000004C8  4241                     clr.w      D1
000004CA  122C FF03                move.b     D1, [A4 - 0xFD]
000004CE  4242                     clr.w      D2
000004D0  142C FE03                move.b     D2, [A4 - 0x1FD]
000004D4  B441                     cmp.w      D2, D1
000004D6  56C1                     sne        D1
000004D8  8001                     or.b       D0, D1
000004DA  6614                     bne        +0x16 /* 000004F0 */
000004DC  4241                     clr.w      D1
000004DE  122C FF04                move.b     D1, [A4 - 0xFC]
000004E2  4242                     clr.w      D2
000004E4  142C FE04                move.b     D2, [A4 - 0x1FC]
000004E8  B441                     cmp.w      D2, D1
000004EA  56C1                     sne        D1
000004EC  8001                     or.b       D0, D1
000004EE  6706                     beq        +0x8 /* 000004F6 */
label000004F0:
000004F0  7000                     moveq.l    D0, 0x00
000004F2  2640                     movea.l    A3, D0
000004F4  6006                     bra        +0x8 /* 000004FC */
label000004F6:
000004F6  2F0B                     move.l     -[A7], A3
000004F8  A9A2                     syscall    LoadResource
000004FA  600C                     bra        +0xE /* 00000508 */
label000004FC:
000004FC  5247                     addq.w     D7, 1
000004FE  6908                     bvs        +0xA /* 00000508 */
label00000500:
00000500  BE6E FFEE                cmp.w      D7, [A6 - 0x12]
00000504  6F00 FF72                ble        -0x8C /* 00000478 */
label00000508:
00000508  2D4B 000C                move.l     [A6 + 0xC], A3
0000050C  4CDF 18C0                movem.l    D6,D7,A3,A4, [A7]+
00000510  4E5E                     unlink     A6
00000512  2E9F                     move.l     [A7], [A7]+
00000514  4E75                     rts
export_294:
fn00000516:
00000516  4E56 FDE4                link       A6, -0x021C
0000051A  48E7 1718                movem.l    -[A7], D3,D5,D6,D7,A3,A4
0000051E  2D6E 0008 FDF0           move.l     [A6 - 0x210], [A6 + 0x8]
00000524  2F2E 0008                move.l     -[A7], [A6 + 0x8]
00000528  486E FE00                pea.l      [A6 - 0x200]
0000052C  4EAD 0D8A                jsr        [A5 + 0xD8A /* export_429, CODE:16 @ 00000686 */]
00000530  4267                     clr.w      -[A7]
00000532  A994                     syscall    CurResFile
00000534  3C1F                     move.w     D6, [A7]+
00000536  4267                     clr.w      -[A7]
00000538  2F2E 000C                move.l     -[A7], [A6 + 0xC]
0000053C  A9A4                     syscall    HomeResFile
0000053E  A998                     syscall    UseResFile
00000540  42A7                     clr.l      -[A7]
00000542  2F3C 524D 4150           move.l     -[A7], 0x524D4150 /* 'RMAP' */
00000548  486E FE00                pea.l      [A6 - 0x200]
0000054C  A820                     syscall    Get1NamedResource
0000054E  265F                     movea.l    A3, [A7]+
00000550  200B                     move.l     D0, A3
00000552  6622                     bne        +0x24 /* 00000576 */
00000554  207C 0000 0A50           movea.l    A0, 0xA50 /* '\nP' */
0000055A  2050                     movea.l    A0, [A0]
0000055C  2050                     movea.l    A0, [A0]
0000055E  3A28 0014                move.w     D5, [A0 + 0x14]
00000562  3F05                     move.w     -[A7], D5
00000564  A998                     syscall    UseResFile
00000566  42A7                     clr.l      -[A7]
00000568  2F3C 524D 4150           move.l     -[A7], 0x524D4150 /* 'RMAP' */
0000056E  486E FE00                pea.l      [A6 - 0x200]
00000572  A9A1                     syscall    GetNamedResource
00000574  265F                     movea.l    A3, [A7]+
label00000576:
00000576  4267                     clr.w      -[A7]
00000578  A9AF                     syscall    ResError
0000057A  4A5F                     tst.w      [A7]+
0000057C  57C0                     seq        D0
0000057E  4A00                     tst.b      D0
00000580  6776                     beq        +0x78 /* 000005F8 */
00000582  220B                     move.l     D1, A3
00000584  56C1                     sne        D1
00000586  C001                     and.b      D0, D1
00000588  676E                     beq        +0x70 /* 000005F8 */
0000058A  2F0B                     move.l     -[A7], A3
0000058C  486E FDF4                pea.l      [A6 - 0x20C]
00000590  486E FDEC                pea.l      [A6 - 0x214]
00000594  486E FF00                pea.l      [A6 - 0x100]
00000598  A9A8                     syscall    GetResInfo
0000059A  4240                     clr.w      D0
0000059C  102E FF01                move.b     D0, [A6 - 0xFF]
000005A0  4241                     clr.w      D1
000005A2  122E FE01                move.b     D1, [A6 - 0x1FF]
000005A6  B240                     cmp.w      D1, D0
000005A8  56C0                     sne        D0
000005AA  4A00                     tst.b      D0
000005AC  663C                     bne        +0x3E /* 000005EA */
000005AE  4241                     clr.w      D1
000005B0  122E FF02                move.b     D1, [A6 - 0xFE]
000005B4  4242                     clr.w      D2
000005B6  142E FE02                move.b     D2, [A6 - 0x1FE]
000005BA  B441                     cmp.w      D2, D1
000005BC  56C1                     sne        D1
000005BE  8001                     or.b       D0, D1
000005C0  6628                     bne        +0x2A /* 000005EA */
000005C2  4241                     clr.w      D1
000005C4  122E FF03                move.b     D1, [A6 - 0xFD]
000005C8  4242                     clr.w      D2
000005CA  142E FE03                move.b     D2, [A6 - 0x1FD]
000005CE  B441                     cmp.w      D2, D1
000005D0  56C1                     sne        D1
000005D2  8001                     or.b       D0, D1
000005D4  6614                     bne        +0x16 /* 000005EA */
000005D6  4241                     clr.w      D1
000005D8  122E FF04                move.b     D1, [A6 - 0xFC]
000005DC  4242                     clr.w      D2
000005DE  142E FE04                move.b     D2, [A6 - 0x1FC]
000005E2  B441                     cmp.w      D2, D1
000005E4  56C1                     sne        D1
000005E6  8001                     or.b       D0, D1
000005E8  670E                     beq        +0x10 /* 000005F8 */
label000005EA:
000005EA  2F0B                     move.l     -[A7], A3
000005EC  A9A3                     syscall    ReleaseResource
000005EE  42A7                     clr.l      -[A7]
000005F0  2F0E                     move.l     -[A7], A6
000005F2  4EBA FE56                jsr        [PC - 0x1AA /* 0000044A */]
000005F6  265F                     movea.l    A3, [A7]+
label000005F8:
000005F8  3F06                     move.w     -[A7], D6
000005FA  A998                     syscall    UseResFile
000005FC  4267                     clr.w      -[A7]
000005FE  A9AF                     syscall    ResError
00000600  4A5F                     tst.w      [A7]+
00000602  57C0                     seq        D0
00000604  4A00                     tst.b      D0
00000606  6700 00A2                beq        +0xA4 /* 000006AA */
0000060A  220B                     move.l     D1, A3
0000060C  56C1                     sne        D1
0000060E  C001                     and.b      D0, D1
00000610  6700 0098                beq        +0x9A /* 000006AA */
00000614  42A7                     clr.l      -[A7]
00000616  2F0B                     move.l     -[A7], A3
00000618  4EAD 050A                jsr        [A5 + 0x50A /* export_157, CODE:3 @ 00002510 */]
0000061C  2053                     movea.l    A0, [A3]
0000061E  3028 0006                move.w     D0, [A0 + 0x6]
00000622  E740                     asl        D0.w, 3
00000624  5040                     addq.w     D0, 8
00000626  48C0                     ext.l      D0
00000628  B09F                     cmp.l      D0, [A7]+
0000062A  667A                     bne        +0x7C /* 000006A6 */
0000062C  2F2E 000C                move.l     -[A7], [A6 + 0xC]
00000630  486E FDF4                pea.l      [A6 - 0x20C]
00000634  486E FDEC                pea.l      [A6 - 0x214]
00000638  486E FF00                pea.l      [A6 - 0x100]
0000063C  A9A8                     syscall    GetResInfo
0000063E  2853                     movea.l    A4, [A3]
00000640  102E 0010                move.b     D0, [A6 + 0x10]
00000644  660C                     bne        +0xE /* 00000652 */
00000646  122C 0004                move.b     D1, [A4 + 0x4]
0000064A  0A01 0001                xori.b     D1, 0x1
0000064E  8001                     or.b       D0, D1
00000650  6704                     beq        +0x6 /* 00000656 */
label00000652:
00000652  2D54 FDF0                move.l     [A6 - 0x210], [A4]
label00000656:
00000656  3D7C 0001 FDE6           move.w     [A6 - 0x21A], 0x1
0000065C  3D6C 0006 FDE4           move.w     [A6 - 0x21C], [A4 + 0x6]
00000662  3E2E FDE6                move.w     D7, [A6 - 0x21A]
00000666  6038                     bra        +0x3A /* 000006A0 */
label00000668:
00000668  3007                     move.w     D0, D7
0000066A  E740                     asl        D0.w, 3
0000066C  3234 0000                move.w     D1, [A4 + D0.w]
00000670  B26E FDF4                cmp.w      D1, [A6 - 0x20C]
00000674  57C0                     seq        D0
00000676  4A00                     tst.b      D0
00000678  6722                     beq        +0x24 /* 0000069C */
0000067A  122E 0010                move.b     D1, [A6 + 0x10]
0000067E  6612                     bne        +0x14 /* 00000692 */
00000680  3407                     move.w     D2, D7
00000682  E742                     asl        D2.w, 3
00000684  1634 2006                move.b     D3, [A4 + D2.w + 0x6]
00000688  0A03 0001                xori.b     D3, 0x1
0000068C  8203                     or.b       D1, D3
0000068E  C001                     and.b      D0, D1
00000690  670A                     beq        +0xC /* 0000069C */
label00000692:
00000692  3007                     move.w     D0, D7
00000694  E740                     asl        D0.w, 3
00000696  2D74 0002 FDF0           move.l     [A6 - 0x210], [A4 + D0.w + 0x2]
label0000069C:
0000069C  5247                     addq.w     D7, 1
0000069E  6906                     bvs        +0x8 /* 000006A6 */
label000006A0:
000006A0  BE6E FDE4                cmp.w      D7, [A6 - 0x21C]
000006A4  6FC2                     ble        -0x3C /* 00000668 */
label000006A6:
000006A6  2F0B                     move.l     -[A7], A3
000006A8  A9A3                     syscall    ReleaseResource
label000006AA:
000006AA  2D6E FDF0 0012           move.l     [A6 + 0x12], [A6 - 0x210]
000006B0  4CDF 18E8                movem.l    D3,D5,D6,D7,A3,A4, [A7]+
000006B4  4E5E                     unlink     A6
000006B6  205F                     movea.l    A0, [A7]+
000006B8  DEFC 000A                add.w      A7, 0xA /* '\n' */
000006BC  4ED0                     jmp        [A0]
export_295:
fn000006BE:
000006BE  4E56 0000                link       A6, 0
000006C2  3D6D F972 0008           move.w     [A6 + 0x8], [A5 - 0x68E]
000006C8  4E5E                     unlink     A6
000006CA  4E75                     rts
export_296:
fn000006CC:
000006CC  4E56 0000                link       A6, 0
000006D0  42A7                     clr.l      -[A7]
000006D2  1F3C 0001                move.b     -[A7], 0x1
000006D6  2F2E 0008                move.l     -[A7], [A6 + 0x8]
000006DA  4EBA 000C                jsr        [PC + 0xC /* 000006E8 */]
000006DE  2D5F 000C                move.l     [A6 + 0xC], [A7]+
000006E2  4E5E                     unlink     A6
000006E4  2E9F                     move.l     [A7], [A7]+
000006E6  4E75                     rts
export_297:
fn000006E8:
000006E8  4E56 FFF8                link       A6, -0x0008
000006EC  48E7 1708                movem.l    -[A7], D3,D5,D6,D7,A4
000006F0  1E2D F956                move.b     D7, [A5 - 0x6AA]
000006F4  422D F956                clr.b      [A5 - 0x6AA]
000006F8  7000                     moveq.l    D0, 0x00
000006FA  2D40 000E                move.l     [A6 + 0xE], D0
000006FE  42A7                     clr.l      -[A7]
00000700  4EAD 00B2                jsr        [A5 + 0xB2 /* export_18, CODE:1 @ 00001DB8 */]
00000704  285F                     movea.l    A4, [A7]+
label00000706:
00000706  200C                     move.l     D0, A4
00000708  6700 008A                beq        +0x8C /* 00000794 */
0000070C  0C6C 0080 006C           cmpi.w     [A4 + 0x6C], 0x80
00000712  5CC0                     sge        D0
00000714  4A00                     tst.b      D0
00000716  6774                     beq        +0x76 /* 0000078C */
00000718  206C 0098                movea.l    A0, [A4 + 0x98]
0000071C  2050                     movea.l    A0, [A0]
0000071E  7205                     moveq.l    D1, 0x05
00000720  B228 010A                cmp.b      D1, [A0 + 0x10A]
00000724  57C1                     seq        D1
00000726  4A01                     tst.b      D1
00000728  6620                     bne        +0x22 /* 0000074A */
0000072A  142E 000C                move.b     D2, [A6 + 0xC]
0000072E  675C                     beq        +0x5E /* 0000078C */
00000730  206C 0098                movea.l    A0, [A4 + 0x98]
00000734  2050                     movea.l    A0, [A0]
00000736  7604                     moveq.l    D3, 0x04
00000738  B628 010A                cmp.b      D3, [A0 + 0x10A]
0000073C  57C3                     seq        D3
0000073E  C403                     and.b      D2, D3
00000740  8202                     or.b       D1, D2
00000742  C001                     and.b      D0, D1
00000744  0240 0001                andi.w     D0, 0x1
00000748  6742                     beq        +0x44 /* 0000078C */
label0000074A:
0000074A  4267                     clr.w      -[A7]
0000074C  2F2C 0098                move.l     -[A7], [A4 + 0x98]
00000750  4EAD 0662                jsr        [A5 + 0x662 /* export_200, CODE:3 @ 00002AEC */]
00000754  1C1F                     move.b     D6, [A7]+
00000756  4267                     clr.w      -[A7]
00000758  2F2E 0008                move.l     -[A7], [A6 + 0x8]
0000075C  2F2C 0098                move.l     -[A7], [A4 + 0x98]
00000760  206C 0098                movea.l    A0, [A4 + 0x98]
00000764  2050                     movea.l    A0, [A0]
00000766  3F28 0112                move.w     -[A7], [A0 + 0x112]
0000076A  4EAD 023A                jsr        [A5 + 0x23A /* export_67, CODE:1 @ 00005956 */]
0000076E  1A1F                     move.b     D5, [A7]+
00000770  2F2C 0098                move.l     -[A7], [A4 + 0x98]
00000774  1F06                     move.b     -[A7], D6
00000776  4EAD 066A                jsr        [A5 + 0x66A /* export_201, CODE:3 @ 00002AF6 */]
0000077A  1005                     move.b     D0, D5
0000077C  6706                     beq        +0x8 /* 00000784 */
0000077E  2D4C 000E                move.l     [A6 + 0xE], A4
00000782  6014                     bra        +0x16 /* 00000798 */
label00000784:
00000784  102D F956                move.b     D0, [A5 - 0x6AA]
00000788  6702                     beq        +0x4 /* 0000078C */
0000078A  600C                     bra        +0xE /* 00000798 */
label0000078C:
0000078C  286C 0090                movea.l    A4, [A4 + 0x90]
00000790  6000 FF74                bra        -0x8A /* 00000706 */
label00000794:
00000794  1B47 F956                move.b     [A5 - 0x6AA], D7
label00000798:
00000798  4CDF 10E8                movem.l    D3,D5,D6,D7,A4, [A7]+
0000079C  4E5E                     unlink     A6
0000079E  205F                     movea.l    A0, [A7]+
000007A0  5C4F                     addq.w     A7, 6
000007A2  4ED0                     jmp        [A0]
fn000007A4:
000007A4  4E56 FDF2                link       A6, -0x020E
000007A8  48E7 0108                movem.l    -[A7], D7,A4
000007AC  102E 000E                move.b     D0, [A6 + 0xE]
000007B0  6708                     beq        +0xA /* 000007BA */
000007B2  7000                     moveq.l    D0, 0x00
000007B4  2840                     movea.l    A4, D0
000007B6  6000 00B2                bra        +0xB4 /* 0000086A */
label000007BA:
000007BA  102E 0010                move.b     D0, [A6 + 0x10]
000007BE  6716                     beq        +0x18 /* 000007D6 */
000007C0  42A7                     clr.l      -[A7]
000007C2  1F3C 0001                move.b     -[A7], 0x1
000007C6  2F2E 0012                move.l     -[A7], [A6 + 0x12]
000007CA  2F2E 0008                move.l     -[A7], [A6 + 0x8]
000007CE  4EBA FD46                jsr        [PC - 0x2BA /* 00000516 */]
000007D2  2D5F 0008                move.l     [A6 + 0x8], [A7]+
label000007D6:
000007D6  3D7C 0600 FE00           move.w     [A6 - 0x200], 0x600
000007DC  102E 000C                move.b     D0, [A6 + 0xC]
000007E0  6708                     beq        +0xA /* 000007EA */
000007E2  1D7C 0024 FE02           move.b     [A6 - 0x1FE], 0x24 /* '$' */
000007E8  6006                     bra        +0x8 /* 000007F0 */
label000007EA:
000007EA  1D7C 0040 FE02           move.b     [A6 - 0x1FE], 0x40 /* '@' */
label000007F0:
000007F0  3D7C 0001 FDF2           move.w     [A6 - 0x20E], 0x1
000007F6  3E2E FDF2                move.w     D7, [A6 - 0x20E]
000007FA  6014                     bra        +0x16 /* 00000810 */
label000007FC:
000007FC  3007                     move.w     D0, D7
000007FE  5440                     addq.w     D0, 2
00000800  4241                     clr.w      D1
00000802  1236 7007                move.b     D1, [A6 + D7.w + 0x7]
00000806  41EE FE00                lea.l      A0, [A6 - 0x200]
0000080A  1181 0000                move.b     [A0 + D0.w], D1
0000080E  5247                     addq.w     D7, 1
label00000810:
00000810  7004                     moveq.l    D0, 0x04
00000812  B047                     cmp.w      D0, D7
00000814  6CE6                     bge        -0x18 /* 000007FC */
00000816  4267                     clr.w      -[A7]
00000818  A99B                     syscall    SetResLoad
0000081A  42A7                     clr.l      -[A7]
0000081C  2F3C 5253 5343           move.l     -[A7], 0x52535343 /* 'RSSC' */
00000822  486E FE00                pea.l      [A6 - 0x200]
00000826  A9A1                     syscall    GetNamedResource
00000828  285F                     movea.l    A4, [A7]+
0000082A  1F3C 0001                move.b     -[A7], 0x1
0000082E  A99B                     syscall    SetResLoad
00000830  200C                     move.l     D0, A4
00000832  6736                     beq        +0x38 /* 0000086A */
00000834  2F0C                     move.l     -[A7], A4
00000836  486E FDFE                pea.l      [A6 - 0x202]
0000083A  486E FDF4                pea.l      [A6 - 0x20C]
0000083E  486E FF00                pea.l      [A6 - 0x100]
00000842  A9A8                     syscall    GetResInfo
00000844  486E FF00                pea.l      [A6 - 0x100]
00000848  486E FE00                pea.l      [A6 - 0x200]
0000084C  4EAD 03BA                jsr        [A5 + 0x3BA /* export_115, CODE:3 @ 00000252 */]
00000850  101F                     move.b     D0, [A7]+
00000852  6706                     beq        +0x8 /* 0000085A */
00000854  7000                     moveq.l    D0, 0x00
00000856  2840                     movea.l    A4, D0
00000858  6010                     bra        +0x12 /* 0000086A */
label0000085A:
0000085A  42A7                     clr.l      -[A7]
0000085C  2F3C 5253 5343           move.l     -[A7], 0x52535343 /* 'RSSC' */
00000862  486E FE00                pea.l      [A6 - 0x200]
00000866  A9A1                     syscall    GetNamedResource
00000868  285F                     movea.l    A4, [A7]+
label0000086A:
0000086A  200C                     move.l     D0, A4
0000086C  57C0                     seq        D0
0000086E  4A00                     tst.b      D0
00000870  6750                     beq        +0x52 /* 000008C2 */
00000872  122E 000E                move.b     D1, [A6 + 0xE]
00000876  6616                     bne        +0x18 /* 0000088E */
00000878  243C 474E 524C           move.l     D2, 0x474E524C /* 'GNRL' */
0000087E  B4AE 0008                cmp.l      D2, [A6 + 0x8]
00000882  56C2                     sne        D2
00000884  8202                     or.b       D1, D2
00000886  C001                     and.b      D0, D1
00000888  0240 0001                andi.w     D0, 0x1
0000088C  6734                     beq        +0x36 /* 000008C2 */
label0000088E:
0000088E  223C 4845 5841           move.l     D1, 0x48455841 /* 'HEXA' */
00000894  B2AE 0008                cmp.l      D1, [A6 + 0x8]
00000898  56C1                     sne        D1
0000089A  C001                     and.b      D0, D1
0000089C  4A00                     tst.b      D0
0000089E  6722                     beq        +0x24 /* 000008C2 */
000008A0  122E 000C                move.b     D1, [A6 + 0xC]
000008A4  0A01 0001                xori.b     D1, 0x1
000008A8  C001                     and.b      D0, D1
000008AA  6716                     beq        +0x18 /* 000008C2 */
000008AC  42A7                     clr.l      -[A7]
000008AE  2F2E 0012                move.l     -[A7], [A6 + 0x12]
000008B2  42A7                     clr.l      -[A7]
000008B4  4267                     clr.w      -[A7]
000008B6  2F3C 474E 524C           move.l     -[A7], 0x474E524C /* 'GNRL' */
000008BC  4EBA FEE6                jsr        [PC - 0x11A /* 000007A4 */]
000008C0  285F                     movea.l    A4, [A7]+
label000008C2:
000008C2  2D4C 0016                move.l     [A6 + 0x16], A4
000008C6  200C                     move.l     D0, A4
000008C8  6606                     bne        +0x8 /* 000008D0 */
000008CA  1B7C 0001 F959           move.b     [A5 - 0x6A7], 0x1
label000008D0:
000008D0  4CDF 1080                movem.l    D7,A4, [A7]+
000008D4  4E5E                     unlink     A6
000008D6  205F                     movea.l    A0, [A7]+
000008D8  DEFC 000E                add.w      A7, 0xE
000008DC  4ED0                     jmp        [A0]
fn000008DE:
000008DE  4E56 FEEC                link       A6, -0x0114
000008E2  48E7 0F18                movem.l    -[A7], D4,D5,D6,D7,A3,A4
000008E6  266E 0014                movea.l    A3, [A6 + 0x14]
000008EA  4206                     clr.b      D6
000008EC  102E 0018                move.b     D0, [A6 + 0x18]
000008F0  673A                     beq        +0x3C /* 0000092C */
000008F2  122E 0008                move.b     D1, [A6 + 0x8]
000008F6  0A01 0001                xori.b     D1, 0x1
000008FA  C001                     and.b      D0, D1
000008FC  672E                     beq        +0x30 /* 0000092C */
000008FE  102D F944                move.b     D0, [A5 - 0x6BC]
00000902  671A                     beq        +0x1C /* 0000091E */
00000904  122D F943                move.b     D1, [A5 - 0x6BD]
00000908  0A01 0001                xori.b     D1, 0x1
0000090C  C001                     and.b      D0, D1
0000090E  670E                     beq        +0x10 /* 0000091E */
00000910  422E 000A                clr.b      [A6 + 0xA]
00000914  2D7C 4845 5841 000C      move.l     [A6 + 0xC], 0x48455841 /* 'HEXA' */
0000091C  600E                     bra        +0x10 /* 0000092C */
label0000091E:
0000091E  102D F944                move.b     D0, [A5 - 0x6BC]
00000922  6708                     beq        +0xA /* 0000092C */
00000924  C02D F943                and.b      D0, [A5 - 0x6BD]
00000928  6702                     beq        +0x4 /* 0000092C */
0000092A  7C01                     moveq.l    D6, 0x01
label0000092C:
0000092C  3F3C 0004                move.w     -[A7], 0x4
00000930  4EAD 0182                jsr        [A5 + 0x182 /* export_44, CODE:1 @ 00003B34 */]
00000934  7E01                     moveq.l    D7, 0x01
00000936  4267                     clr.w      -[A7]
00000938  2F0B                     move.l     -[A7], A3
0000093A  3F3C 0010                move.w     -[A7], 0x10
0000093E  4EAD 010A                jsr        [A5 + 0x10A /* export_29, CODE:1 @ 000031C6 */]
00000942  101F                     move.b     D0, [A7]+
00000944  6700 00FE                beq        +0x100 /* 00000A44 */
00000948  102D F7C2                move.b     D0, [A5 - 0x83E]
0000094C  0A00 0001                xori.b     D0, 0x1
00000950  4A00                     tst.b      D0
00000952  675C                     beq        +0x5E /* 000009B0 */
00000954  122E 0008                move.b     D1, [A6 + 0x8]
00000958  0A01 0001                xori.b     D1, 0x1
0000095C  C001                     and.b      D0, D1
0000095E  6750                     beq        +0x52 /* 000009B0 */
00000960  42A7                     clr.l      -[A7]
00000962  4267                     clr.w      -[A7]
00000964  2F0B                     move.l     -[A7], A3
00000966  4EBA FD80                jsr        [PC - 0x280 /* 000006E8 */]
0000096A  2A1F                     move.l     D5, [A7]+
0000096C  102D F956                move.b     D0, [A5 - 0x6AA]
00000970  6704                     beq        +0x6 /* 00000976 */
00000972  4207                     clr.b      D7
00000974  603A                     bra        +0x3C /* 000009B0 */
label00000976:
00000976  4A85                     tst.l      D5
00000978  670A                     beq        +0xC /* 00000984 */
0000097A  2F05                     move.l     -[A7], D5
0000097C  4EAD 00BA                jsr        [A5 + 0xBA /* export_19, CODE:1 @ 00001DFA */]
00000980  4207                     clr.b      D7
00000982  602C                     bra        +0x2E /* 000009B0 */
label00000984:
00000984  4267                     clr.w      -[A7]
00000986  2F0B                     move.l     -[A7], A3
00000988  4EAD 016A                jsr        [A5 + 0x16A /* export_41, CODE:1 @ 00003A5E */]
0000098C  102D F961                move.b     D0, [A5 - 0x69F]
00000990  0A00 0001                xori.b     D0, 0x1
00000994  C01F                     and.b      D0, [A7]+
00000996  6718                     beq        +0x1A /* 000009B0 */
00000998  4267                     clr.w      -[A7]
0000099A  1F3C 0004                move.b     -[A7], 0x4
0000099E  487A 00BA                pea.l      [PC + 0xBA /* 00000A5A, value 0x9416C65 '\tAle', pstring "Alert str" */]
000009A2  3F3C 0022                move.w     -[A7], 0x22 /* '\"' */
000009A6  4EAD 00DA                jsr        [A5 + 0xDA /* export_23, CODE:1 @ 00002ACA */]
000009AA  101F                     move.b     D0, [A7]+
000009AC  6602                     bne        +0x4 /* 000009B0 */
000009AE  4207                     clr.b      D7
label000009B0:
000009B0  1007                     move.b     D0, D7
000009B2  6700 0090                beq        +0x92 /* 00000A44 */
000009B6  42A7                     clr.l      -[A7]
000009B8  2F0B                     move.l     -[A7], A3
000009BA  1F2E 000A                move.b     -[A7], [A6 + 0xA]
000009BE  1F06                     move.b     -[A7], D6
000009C0  1F2E 0008                move.b     -[A7], [A6 + 0x8]
000009C4  2F2E 000C                move.l     -[A7], [A6 + 0xC]
000009C8  4EBA FDDA                jsr        [PC - 0x226 /* 000007A4 */]
000009CC  285F                     movea.l    A4, [A7]+
000009CE  4267                     clr.w      -[A7]
000009D0  2F0C                     move.l     -[A7], A4
000009D2  3F3C 0011                move.w     -[A7], 0x11
000009D6  4EAD 010A                jsr        [A5 + 0x10A /* export_29, CODE:1 @ 000031C6 */]
000009DA  101F                     move.b     D0, [A7]+
000009DC  6766                     beq        +0x68 /* 00000A44 */
000009DE  283C 0000 7FFF           move.l     D4, 0x7FFF
000009E4  4A94                     tst.l      [A4]
000009E6  6608                     bne        +0xA /* 000009F0 */
000009E8  42A7                     clr.l      -[A7]
000009EA  2F0C                     move.l     -[A7], A4
000009EC  A9A5                     syscall    GetResourceSizeOnDisk/SizeResource/SizeRsrc
000009EE  D89F                     add.l      D4, [A7]+
label000009F0:
000009F0  42A7                     clr.l      -[A7]
000009F2  A01C                     syscall    FreeMem
000009F4  2E80                     move.l     [A7], D0
000009F6  B89F                     cmp.l      D4, [A7]+
000009F8  6C30                     bge        +0x32 /* 00000A2A */
000009FA  2F0C                     move.l     -[A7], A4
000009FC  486E FEFA                pea.l      [A6 - 0x106]
00000A00  486E FEF6                pea.l      [A6 - 0x10A]
00000A04  486E FEFC                pea.l      [A6 - 0x104]
00000A08  A9A8                     syscall    GetResInfo
00000A0A  2F0B                     move.l     -[A7], A3
00000A0C  205F                     movea.l    A0, [A7]+
00000A0E  A04A                     syscall    HNoPurge
00000A10  1B7C 0001 F7C2           move.b     [A5 - 0x83E], 0x1
00000A16  2F0B                     move.l     -[A7], A3
00000A18  2F2E 0010                move.l     -[A7], [A6 + 0x10]
00000A1C  3F2E FEFA                move.w     -[A7], [A6 - 0x106]
00000A20  4EAD 024A                jsr        [A5 + 0x24A /* export_69, CODE:1 @ 0000594C */]
00000A24  422D F7C2                clr.b      [A5 - 0x83E]
00000A28  601A                     bra        +0x1C /* 00000A44 */
label00000A2A:
00000A2A  4267                     clr.w      -[A7]
00000A2C  1F3C 0002                move.b     -[A7], 0x2
00000A30  487A 0028                pea.l      [PC + 0x28 /* 00000A5A, value 0x9416C65 '\tAle', pstring "Alert str" */]
00000A34  3F3C 0037                move.w     -[A7], 0x37 /* '7' */
00000A38  4EAD 00DA                jsr        [A5 + 0xDA /* export_23, CODE:1 @ 00002ACA */]
00000A3C  101F                     move.b     D0, [A7]+
00000A3E  1B7C 0001 F956           move.b     [A5 - 0x6AA], 0x1
label00000A44:
00000A44  3F3C FFFF                move.w     -[A7], 0xFFFF
00000A48  4EAD 0182                jsr        [A5 + 0x182 /* export_44, CODE:1 @ 00003B34 */]
00000A4C  4CDF 18F0                movem.l    D4,D5,D6,D7,A3,A4, [A7]+
00000A50  4E5E                     unlink     A6
00000A52  205F                     movea.l    A0, [A7]+
00000A54  DEFC 0012                add.w      A7, 0x12
00000A58  4ED0                     jmp        [A0]
00000A5A  0941                     bchg       D1, D4
00000A5C  6C65                     bge        +0x67 /* 00000AC3 */
00000A5E  7274                     moveq.l    D1, 0x74
00000A60  2073 7472                movea.l    A0, [A3 + D7.w * 4 + 0x72]
export_298:
fn00000A64:
00000A64  4E56 0000                link       A6, 0
00000A68  1F3C 0001                move.b     -[A7], 0x1
00000A6C  2F2E 000C                move.l     -[A7], [A6 + 0xC]
00000A70  2F2E 0008                move.l     -[A7], [A6 + 0x8]
00000A74  206E 0008                movea.l    A0, [A6 + 0x8]
00000A78  2050                     movea.l    A0, [A0]
00000A7A  2F28 0118                move.l     -[A7], [A0 + 0x118]
00000A7E  1F3C 0001                move.b     -[A7], 0x1
00000A82  4267                     clr.w      -[A7]
00000A84  4EBA FE58                jsr        [PC - 0x1A8 /* 000008DE */]
00000A88  4E5E                     unlink     A6
00000A8A  205F                     movea.l    A0, [A7]+
00000A8C  504F                     addq.w     A7, 8
00000A8E  4ED0                     jmp        [A0]
export_299:
00000A90  4E56 0000                link       A6, 0
00000A94  1F3C 0001                move.b     -[A7], 0x1
00000A98  2F2E 000C                move.l     -[A7], [A6 + 0xC]
00000A9C  2F2E 0008                move.l     -[A7], [A6 + 0x8]
00000AA0  206E 0008                movea.l    A0, [A6 + 0x8]
00000AA4  2050                     movea.l    A0, [A0]
00000AA6  2F28 0118                move.l     -[A7], [A0 + 0x118]
00000AAA  4267                     clr.w      -[A7]
00000AAC  1F3C 0001                move.b     -[A7], 0x1
00000AB0  4EBA FE2C                jsr        [PC - 0x1D4 /* 000008DE */]
00000AB4  4E5E                     unlink     A6
00000AB6  205F                     movea.l    A0, [A7]+
00000AB8  504F                     addq.w     A7, 8
00000ABA  4ED0                     jmp        [A0]
export_300:
00000ABC  4E56 0000                link       A6, 0
00000AC0  422D F943                clr.b      [A5 - 0x6BD]
00000AC4  426D F944                clr.w      [A5 - 0x6BC]
00000AC8  1F3C 0001                move.b     -[A7], 0x1
00000ACC  2F2E 0010                move.l     -[A7], [A6 + 0x10]
00000AD0  2F2E 000C                move.l     -[A7], [A6 + 0xC]
00000AD4  2F2E 0008                move.l     -[A7], [A6 + 0x8]
00000AD8  42A7                     clr.l      -[A7]
00000ADA  4EBA FE02                jsr        [PC - 0x1FE /* 000008DE */]
00000ADE  4E5E                     unlink     A6
00000AE0  205F                     movea.l    A0, [A7]+
00000AE2  DEFC 000C                add.w      A7, 0xC
00000AE6  4ED0                     jmp        [A0]
fn00000AE8:
00000AE8  4E56 FFEC                link       A6, -0x0014
00000AEC  48E7 0718                movem.l    -[A7], D5,D6,D7,A3,A4
00000AF0  266E 000C                movea.l    A3, [A6 + 0xC]
00000AF4  286E 0008                movea.l    A4, [A6 + 0x8]
00000AF8  2054                     movea.l    A0, [A4]
00000AFA  3A28 004C                move.w     D5, [A0 + 0x4C]
00000AFE  3E28 004E                move.w     D7, [A0 + 0x4E]
00000B02  5253                     addq.w     [A3], 1
00000B04  7001                     moveq.l    D0, 0x01
00000B06  B047                     cmp.w      D0, D7
00000B08  6618                     bne        +0x1A /* 00000B22 */
00000B0A  2F3C 0001 0000           move.l     -[A7], 0x10000
00000B10  4267                     clr.w      -[A7]
00000B12  2F0C                     move.l     -[A7], A4
00000B14  3F3C 0008                move.w     -[A7], 0x8
00000B18  A9E7                     syscall    Pack0/ListManager
00000B1A  3D5F FFEE                move.w     [A6 - 0x12], [A7]+
00000B1E  6000 00AE                bra        +0xB0 /* 00000BCE */
label00000B22:
00000B22  3005                     move.w     D0, D5
00000B24  C1C7                     muls.w     D0, D7
00000B26  B053                     cmp.w      D0, [A3]
00000B28  6C18                     bge        +0x1A /* 00000B42 */
00000B2A  2F3C 0001 0000           move.l     -[A7], 0x10000
00000B30  3005                     move.w     D0, D5
00000B32  5240                     addq.w     D0, 1
00000B34  3F00                     move.w     -[A7], D0
00000B36  2F0C                     move.l     -[A7], A4
00000B38  3F3C 0008                move.w     -[A7], 0x8
00000B3C  A9E7                     syscall    Pack0/ListManager
00000B3E  3D5F FFEE                move.w     [A6 - 0x12], [A7]+
label00000B42:
00000B42  3D7C 0002 FFF8           move.w     [A6 - 0x8], 0x2
00000B48  3013                     move.w     D0, [A3]
00000B4A  5540                     subq.w     D0, 2
00000B4C  3D40 FFEC                move.w     [A6 - 0x14], D0
00000B50  3C2E FFEC                move.w     D6, [A6 - 0x14]
00000B54  6074                     bra        +0x76 /* 00000BCA */
label00000B56:
00000B56  3006                     move.w     D0, D6
00000B58  48C0                     ext.l      D0
00000B5A  81C7                     divs.w     D0, D7
00000B5C  4840                     swap.w     D0
00000B5E  3D40 FFF0                move.w     [A6 - 0x10], D0
00000B62  3006                     move.w     D0, D6
00000B64  48C0                     ext.l      D0
00000B66  81C7                     divs.w     D0, D7
00000B68  3D40 FFEE                move.w     [A6 - 0x12], D0
00000B6C  486E FFF6                pea.l      [A6 - 0xA]
00000B70  486E FFF8                pea.l      [A6 - 0x8]
00000B74  2F2E FFEE                move.l     -[A7], [A6 - 0x12]
00000B78  2F0C                     move.l     -[A7], A4
00000B7A  3F3C 0038                move.w     -[A7], 0x38 /* '8' */
00000B7E  A9E7                     syscall    Pack0/ListManager
00000B80  3006                     move.w     D0, D6
00000B82  5240                     addq.w     D0, 1
00000B84  48C0                     ext.l      D0
00000B86  81C7                     divs.w     D0, D7
00000B88  4840                     swap.w     D0
00000B8A  3D40 FFF4                move.w     [A6 - 0xC], D0
00000B8E  3006                     move.w     D0, D6
00000B90  5240                     addq.w     D0, 1
00000B92  48C0                     ext.l      D0
00000B94  81C7                     divs.w     D0, D7
00000B96  3D40 FFF2                move.w     [A6 - 0xE], D0
00000B9A  486E FFF6                pea.l      [A6 - 0xA]
00000B9E  3F3C 0002                move.w     -[A7], 0x2
00000BA2  2F2E FFF2                move.l     -[A7], [A6 - 0xE]
00000BA6  2F0C                     move.l     -[A7], A4
00000BA8  3F3C 0058                move.w     -[A7], 0x58 /* 'X' */
00000BAC  A9E7                     syscall    Pack0/ListManager
00000BAE  42A7                     clr.l      -[A7]
00000BB0  486E FFEE                pea.l      [A6 - 0x12]
00000BB4  2F0C                     move.l     -[A7], A4
00000BB6  3F3C 003C                move.w     -[A7], 0x3C /* '<' */
00000BBA  A9E7                     syscall    Pack0/ListManager
00000BBC  2F2E FFF2                move.l     -[A7], [A6 - 0xE]
00000BC0  2F0C                     move.l     -[A7], A4
00000BC2  3F3C 005C                move.w     -[A7], 0x5C /* '\\' */
00000BC6  A9E7                     syscall    Pack0/ListManager
00000BC8  5346                     subq.w     D6, 1
label00000BCA:
00000BCA  4A46                     tst.w      D6
00000BCC  6C88                     bge        -0x76 /* 00000B56 */
label00000BCE:
00000BCE  7000                     moveq.l    D0, 0x00
00000BD0  2D40 FFEE                move.l     [A6 - 0x12], D0
00000BD4  486E 0010                pea.l      [A6 + 0x10]
00000BD8  3F3C 0002                move.w     -[A7], 0x2
00000BDC  2F2E FFEE                move.l     -[A7], [A6 - 0x12]
00000BE0  2F0C                     move.l     -[A7], A4
00000BE2  3F3C 0058                move.w     -[A7], 0x58 /* 'X' */
00000BE6  A9E7                     syscall    Pack0/ListManager
00000BE8  1F3C 0001                move.b     -[A7], 0x1
00000BEC  2F2E FFEE                move.l     -[A7], [A6 - 0x12]
00000BF0  2F0C                     move.l     -[A7], A4
00000BF2  3F3C 005C                move.w     -[A7], 0x5C /* '\\' */
00000BF6  A9E7                     syscall    Pack0/ListManager
00000BF8  4CDF 18E0                movem.l    D5,D6,D7,A3,A4, [A7]+
00000BFC  4E5E                     unlink     A6
00000BFE  205F                     movea.l    A0, [A7]+
00000C00  DEFC 000A                add.w      A7, 0xA /* '\n' */
00000C04  4ED0                     jmp        [A0]
export_301:
fn00000C06:
00000C06  4E56 FFFC                link       A6, -0x0004
00000C0A  7000                     moveq.l    D0, 0x00
00000C0C  2D40 FFFC                move.l     [A6 - 0x4], D0
label00000C10:
00000C10  4267                     clr.w      -[A7]
00000C12  1F3C 0001                move.b     -[A7], 0x1
00000C16  486E FFFC                pea.l      [A6 - 0x4]
00000C1A  2F2E 0008                move.l     -[A7], [A6 + 0x8]
00000C1E  3F3C 003C                move.w     -[A7], 0x3C /* '<' */
00000C22  A9E7                     syscall    Pack0/ListManager
00000C24  101F                     move.b     D0, [A7]+
00000C26  6712                     beq        +0x14 /* 00000C3A */
00000C28  4267                     clr.w      -[A7]
00000C2A  2F2E FFFC                move.l     -[A7], [A6 - 0x4]
00000C2E  2F2E 0008                move.l     -[A7], [A6 + 0x8]
00000C32  3F3C 005C                move.w     -[A7], 0x5C /* '\\' */
00000C36  A9E7                     syscall    Pack0/ListManager
00000C38  60D6                     bra        -0x28 /* 00000C10 */
label00000C3A:
00000C3A  4E5E                     unlink     A6
00000C3C  2E9F                     move.l     [A7], [A7]+
00000C3E  4E75                     rts
fn00000C40:
00000C40  4E56 FFF2                link       A6, -0x000E
00000C44  48E7 0118                movem.l    -[A7], D7,A3,A4
00000C48  4207                     clr.b      D7
00000C4A  206E 0008                movea.l    A0, [A6 + 0x8]
00000C4E  2850                     movea.l    A4, [A0]
00000C50  7000                     moveq.l    D0, 0x00
00000C52  2F00                     move.l     -[A7], D0
00000C54  4267                     clr.w      -[A7]
00000C56  3F2C 0110                move.w     -[A7], [A4 + 0x110]
00000C5A  A9F6                     syscall    GetResFileAttrs
00000C5C  321F                     move.w     D1, [A7]+
00000C5E  201F                     move.l     D0, [A7]+
00000C60  3001                     move.w     D0, D1
00000C62  C0BC 0000 0020           and.l      D0, 0x20 /* ' ' */
00000C68  7220                     moveq.l    D1, 0x20
00000C6A  B280                     cmp.l      D1, D0
00000C6C  6600 00AA                bne        +0xAC /* 00000D18 */
00000C70  7000                     moveq.l    D0, 0x00
00000C72  2D40 FFF2                move.l     [A6 - 0xE], D0
label00000C76:
00000C76  1007                     move.b     D0, D7
00000C78  0A00 0001                xori.b     D0, 0x1
00000C7C  4A00                     tst.b      D0
00000C7E  6700 0098                beq        +0x9A /* 00000D18 */
00000C82  2F00                     move.l     -[A7], D0
00000C84  4267                     clr.w      -[A7]
00000C86  1F3C 0001                move.b     -[A7], 0x1
00000C8A  486E FFF2                pea.l      [A6 - 0xE]
00000C8E  2F2C 0124                move.l     -[A7], [A4 + 0x124]
00000C92  3F3C 003C                move.w     -[A7], 0x3C /* '<' */
00000C96  A9E7                     syscall    Pack0/ListManager
00000C98  121F                     move.b     D1, [A7]+
00000C9A  201F                     move.l     D0, [A7]+
00000C9C  C001                     and.b      D0, D1
00000C9E  6778                     beq        +0x7A /* 00000D18 */
00000CA0  3D7C 0002 FFFC           move.w     [A6 - 0x4], 0x2
00000CA6  486E FFFA                pea.l      [A6 - 0x6]
00000CAA  486E FFFC                pea.l      [A6 - 0x4]
00000CAE  2F2E FFF2                move.l     -[A7], [A6 - 0xE]
00000CB2  2F2C 0124                move.l     -[A7], [A4 + 0x124]
00000CB6  3F3C 0038                move.w     -[A7], 0x38 /* '8' */
00000CBA  A9E7                     syscall    Pack0/ListManager
00000CBC  4267                     clr.w      -[A7]
00000CBE  A99B                     syscall    SetResLoad
00000CC0  42A7                     clr.l      -[A7]
00000CC2  3F2C 0110                move.w     -[A7], [A4 + 0x110]
00000CC6  2F2C 0118                move.l     -[A7], [A4 + 0x118]
00000CCA  3F2E FFFA                move.w     -[A7], [A6 - 0x6]
00000CCE  4EAD 08CA                jsr        [A5 + 0x8CA /* export_277, CODE:4 @ 00000338 */]
00000CD2  265F                     movea.l    A3, [A7]+
00000CD4  1F3C 0001                move.b     -[A7], 0x1
00000CD8  A99B                     syscall    SetResLoad
00000CDA  7000                     moveq.l    D0, 0x00
00000CDC  2F00                     move.l     -[A7], D0
00000CDE  4267                     clr.w      -[A7]
00000CE0  2F0B                     move.l     -[A7], A3
00000CE2  A9A6                     syscall    GetResAttrs
00000CE4  321F                     move.w     D1, [A7]+
00000CE6  201F                     move.l     D0, [A7]+
00000CE8  3001                     move.w     D0, D1
00000CEA  C0BC 0000 0002           and.l      D0, 0x2
00000CF0  7202                     moveq.l    D1, 0x02
00000CF2  B280                     cmp.l      D1, D0
00000CF4  6604                     bne        +0x6 /* 00000CFA */
00000CF6  7E01                     moveq.l    D7, 0x01
00000CF8  601E                     bra        +0x20 /* 00000D18 */
label00000CFA:
00000CFA  4267                     clr.w      -[A7]
00000CFC  1F3C 0001                move.b     -[A7], 0x1
00000D00  1F3C 0001                move.b     -[A7], 0x1
00000D04  486E FFF2                pea.l      [A6 - 0xE]
00000D08  2F2C 0124                move.l     -[A7], [A4 + 0x124]
00000D0C  3F3C 0048                move.w     -[A7], 0x48 /* 'H' */
00000D10  A9E7                     syscall    Pack0/ListManager
00000D12  101F                     move.b     D0, [A7]+
00000D14  6600 FF60                bne        -0x9E /* 00000C76 */
label00000D18:
00000D18  1D47 000C                move.b     [A6 + 0xC], D7
00000D1C  4CDF 1880                movem.l    D7,A3,A4, [A7]+
00000D20  4E5E                     unlink     A6
00000D22  2E9F                     move.l     [A7], [A7]+
00000D24  4E75                     rts
export_302:
00000D26  4E56 0000                link       A6, 0
00000D2A  4267                     clr.w      -[A7]
00000D2C  2F2E 0008                move.l     -[A7], [A6 + 0x8]
00000D30  206E 0008                movea.l    A0, [A6 + 0x8]
00000D34  2050                     movea.l    A0, [A0]
00000D36  2F28 0118                move.l     -[A7], [A0 + 0x118]
00000D3A  4EBA 000C                jsr        [PC + 0xC /* 00000D48 */]
00000D3E  1D5F 000C                move.b     [A6 + 0xC], [A7]+
00000D42  4E5E                     unlink     A6
00000D44  2E9F                     move.l     [A7], [A7]+
00000D46  4E75                     rts
export_303:
fn00000D48:
00000D48  4E56 FEC8                link       A6, -0x0138
00000D4C  48E7 0F18                movem.l    -[A7], D4,D5,D6,D7,A3,A4
00000D50  422E 0010                clr.b      [A6 + 0x10]
00000D54  42A7                     clr.l      -[A7]
00000D56  2F2E 000C                move.l     -[A7], [A6 + 0xC]
00000D5A  4EAD 01C2                jsr        [A5 + 0x1C2 /* export_52, CODE:1 @ 000045E2 */]
00000D5E  2D5F FFFC                move.l     [A6 - 0x4], [A7]+
00000D62  0CAE 0000 3039 FFFC      cmpi.l     [A6 - 0x4], 0x3039 /* '09' */
00000D6A  6700 019C                beq        +0x19E /* 00000F08 */
00000D6E  206E 000C                movea.l    A0, [A6 + 0xC]
00000D72  2050                     movea.l    A0, [A0]
00000D74  3E28 0110                move.w     D7, [A0 + 0x110]
00000D78  206E FFFC                movea.l    A0, [A6 - 0x4]
00000D7C  2050                     movea.l    A0, [A0]
00000D7E  2828 017C                move.l     D4, [A0 + 0x17C]
00000D82  206E FFFC                movea.l    A0, [A6 - 0x4]
00000D86  2050                     movea.l    A0, [A0]
00000D88  2D68 0178 FFF8           move.l     [A6 - 0x8], [A0 + 0x178]
00000D8E  287C 0000 0A50           movea.l    A4, 0xA50 /* '\nP' */
00000D94  2054                     movea.l    A0, [A4]
00000D96  2050                     movea.l    A0, [A0]
00000D98  2244                     movea.l    A1, D4
00000D9A  2251                     movea.l    A1, [A1]
00000D9C  2368 0010 0010           move.l     [A1 + 0x10], [A0 + 0x10]
00000DA2  2054                     movea.l    A0, [A4]
00000DA4  2050                     movea.l    A0, [A0]
00000DA6  226E FFF8                movea.l    A1, [A6 - 0x8]
00000DAA  2251                     movea.l    A1, [A1]
00000DAC  2368 0010 0010           move.l     [A1 + 0x10], [A0 + 0x10]
00000DB2  2A14                     move.l     D5, [A4]
00000DB4  4267                     clr.w      -[A7]
00000DB6  3F07                     move.w     -[A7], D7
00000DB8  2F2E 0008                move.l     -[A7], [A6 + 0x8]
00000DBC  4EAD 08BA                jsr        [A5 + 0x8BA /* export_275, CODE:4 @ 000002A8 */]
00000DC0  3D5F FFE2                move.w     [A6 - 0x1E], [A7]+
00000DC4  2884                     move.l     [A4], D4
00000DC6  4267                     clr.w      -[A7]
00000DC8  3F07                     move.w     -[A7], D7
00000DCA  2F2E 0008                move.l     -[A7], [A6 + 0x8]
00000DCE  4EAD 08BA                jsr        [A5 + 0x8BA /* export_275, CODE:4 @ 000002A8 */]
00000DD2  3D5F FFE4                move.w     [A6 - 0x1C], [A7]+
00000DD6  2885                     move.l     [A4], D5
00000DD8  302E FFE4                move.w     D0, [A6 - 0x1C]
00000DDC  B06E FFE2                cmp.w      D0, [A6 - 0x1E]
00000DE0  6F00 0126                ble        +0x128 /* 00000F08 */
00000DE4  4267                     clr.w      -[A7]
00000DE6  A99B                     syscall    SetResLoad
00000DE8  3D7C 0001 FECA           move.w     [A6 - 0x136], 0x1
00000DEE  3D6E FFE4 FEC8           move.w     [A6 - 0x138], [A6 - 0x1C]
00000DF4  3C2E FECA                move.w     D6, [A6 - 0x136]
00000DF8  6000 0100                bra        +0x102 /* 00000EFA */
label00000DFC:
00000DFC  2884                     move.l     [A4], D4
00000DFE  42B8 0B84                clr.l      [0x00000B84 /* HSCHndl */]
00000E02  3F07                     move.w     -[A7], D7
00000E04  486E FECC                pea.l      [A6 - 0x134]
00000E08  2F2E 0008                move.l     -[A7], [A6 + 0x8]
00000E0C  3F06                     move.w     -[A7], D6
00000E0E  4EAD 02A2                jsr        [A5 + 0x2A2 /* export_80, CODE:1 @ 00006356 */]
00000E12  42A7                     clr.l      -[A7]
00000E14  3F07                     move.w     -[A7], D7
00000E16  2F2E 0008                move.l     -[A7], [A6 + 0x8]
00000E1A  3F06                     move.w     -[A7], D6
00000E1C  4EAD 08C2                jsr        [A5 + 0x8C2 /* export_276, CODE:4 @ 000002E4 */]
00000E20  2D5F FFDC                move.l     [A6 - 0x24], [A7]+
00000E24  42B8 0B84                clr.l      [0x00000B84 /* HSCHndl */]
00000E28  2885                     move.l     [A4], D5
00000E2A  42A7                     clr.l      -[A7]
00000E2C  3F07                     move.w     -[A7], D7
00000E2E  2F2E 0008                move.l     -[A7], [A6 + 0x8]
00000E32  3F2E FECC                move.w     -[A7], [A6 - 0x134]
00000E36  4EAD 08CA                jsr        [A5 + 0x8CA /* export_277, CODE:4 @ 00000338 */]
00000E3A  265F                     movea.l    A3, [A7]+
00000E3C  4267                     clr.w      -[A7]
00000E3E  A9AF                     syscall    ResError
00000E40  0C5F FF40                cmpi.w     [A7]+, 0xFF40
00000E44  6600 00B0                bne        +0xB2 /* 00000EF6 */
00000E48  42B8 0B84                clr.l      [0x00000B84 /* HSCHndl */]
00000E4C  28AE FFF8                move.l     [A4], [A6 - 0x8]
00000E50  3F07                     move.w     -[A7], D7
00000E52  486E FECC                pea.l      [A6 - 0x134]
00000E56  2F2E 0008                move.l     -[A7], [A6 + 0x8]
00000E5A  3F06                     move.w     -[A7], D6
00000E5C  4EAD 02A2                jsr        [A5 + 0x2A2 /* export_80, CODE:1 @ 00006356 */]
00000E60  42A7                     clr.l      -[A7]
00000E62  3F07                     move.w     -[A7], D7
00000E64  2F2E 0008                move.l     -[A7], [A6 + 0x8]
00000E68  3F06                     move.w     -[A7], D6
00000E6A  4EAD 08C2                jsr        [A5 + 0x8C2 /* export_276, CODE:4 @ 000002E4 */]
00000E6E  2D57 FFDC                move.l     [A6 - 0x24], [A7]
00000E72  486E FFE0                pea.l      [A6 - 0x20]
00000E76  486E 0008                pea.l      [A6 + 0x8]
00000E7A  486E FED8                pea.l      [A6 - 0x128]
00000E7E  A9A8                     syscall    GetResInfo
00000E80  4267                     clr.w      -[A7]
00000E82  2F2E FFDC                move.l     -[A7], [A6 - 0x24]
00000E86  A9A6                     syscall    GetResAttrs
00000E88  3D5F FFE8                move.w     [A6 - 0x18], [A7]+
00000E8C  2885                     move.l     [A4], D5
00000E8E  42B8 0B84                clr.l      [0x00000B84 /* HSCHndl */]
00000E92  42A7                     clr.l      -[A7]
00000E94  42A7                     clr.l      -[A7]
00000E96  4EAD 04FA                jsr        [A5 + 0x4FA /* export_155, CODE:3 @ 000024FC */]
00000E9A  265F                     movea.l    A3, [A7]+
00000E9C  3F07                     move.w     -[A7], D7
00000E9E  2F0B                     move.l     -[A7], A3
00000EA0  2F2E 0008                move.l     -[A7], [A6 + 0x8]
00000EA4  3F2E FFE0                move.w     -[A7], [A6 - 0x20]
00000EA8  486E FED8                pea.l      [A6 - 0x128]
00000EAC  4EAD 08E2                jsr        [A5 + 0x8E2 /* export_280, CODE:4 @ 00000434 */]
00000EB0  2F0B                     move.l     -[A7], A3
00000EB2  205F                     movea.l    A0, [A7]+
00000EB4  A02B                     syscall    EmptyHandle
00000EB6  3F07                     move.w     -[A7], D7
00000EB8  2F2E FED0                move.l     -[A7], [A6 - 0x130]
00000EBC  2F2E 0008                move.l     -[A7], [A6 + 0x8]
00000EC0  3F2E FFE0                move.w     -[A7], [A6 - 0x20]
00000EC4  2F0B                     move.l     -[A7], A3
00000EC6  4EAD 02BA                jsr        [A5 + 0x2BA /* export_83, CODE:1 @ 0000621E */]
00000ECA  2884                     move.l     [A4], D4
00000ECC  3F07                     move.w     -[A7], D7
00000ECE  2F2E 0008                move.l     -[A7], [A6 + 0x8]
00000ED2  3F2E FFE0                move.w     -[A7], [A6 - 0x20]
00000ED6  3F06                     move.w     -[A7], D6
00000ED8  4EAD 02AA                jsr        [A5 + 0x2AA /* export_81, CODE:1 @ 000062A4 */]
00000EDC  2885                     move.l     [A4], D5
00000EDE  2F0B                     move.l     -[A7], A3
00000EE0  7000                     moveq.l    D0, 0x00
00000EE2  302E FFE8                move.w     D0, [A6 - 0x18]
00000EE6  7202                     moveq.l    D1, 0x02
00000EE8  4681                     not.l      D1
00000EEA  C081                     and.l      D0, D1
00000EEC  3F00                     move.w     -[A7], D0
00000EEE  A9A7                     syscall    SetResAttrs
00000EF0  1D7C 0001 0010           move.b     [A6 + 0x10], 0x1
label00000EF6:
00000EF6  5246                     addq.w     D6, 1
00000EF8  6908                     bvs        +0xA /* 00000F02 */
label00000EFA:
00000EFA  BC6E FEC8                cmp.w      D6, [A6 - 0x138]
00000EFE  6F00 FEFC                ble        -0x102 /* 00000DFC */
label00000F02:
00000F02  1F3C 0001                move.b     -[A7], 0x1
00000F06  A99B                     syscall    SetResLoad
label00000F08:
00000F08  4CDF 18F0                movem.l    D4,D5,D6,D7,A3,A4, [A7]+
00000F0C  4E5E                     unlink     A6
00000F0E  205F                     movea.l    A0, [A7]+
00000F10  504F                     addq.w     A7, 8
00000F12  4ED0                     jmp        [A0]
export_304:
fn00000F14:
00000F14  4E56 0000                link       A6, 0
00000F18  4267                     clr.w      -[A7]
00000F1A  1F3C 0001                move.b     -[A7], 0x1
00000F1E  2F2E 000C                move.l     -[A7], [A6 + 0xC]
00000F22  2F2E 0008                move.l     -[A7], [A6 + 0x8]
00000F26  4EBA 011A                jsr        [PC + 0x11A /* 00001042 */]
00000F2A  1D5F 0010                move.b     [A6 + 0x10], [A7]+
00000F2E  4E5E                     unlink     A6
00000F30  205F                     movea.l    A0, [A7]+
00000F32  504F                     addq.w     A7, 8
00000F34  4ED0                     jmp        [A0]
fn00000F36:
00000F36  4E56 FFF4                link       A6, -0x000C
00000F3A  48E7 0308                movem.l    -[A7], D6,D7,A4
00000F3E  4267                     clr.w      -[A7]
00000F40  3F2E 001A                move.w     -[A7], [A6 + 0x1A]
00000F44  2F2E 000E                move.l     -[A7], [A6 + 0xE]
00000F48  4EAD 08BA                jsr        [A5 + 0x8BA /* export_275, CODE:4 @ 000002A8 */]
00000F4C  3C1F                     move.w     D6, [A7]+
00000F4E  3D7C 0001 FFF6           move.w     [A6 - 0xA], 0x1
00000F54  3D46 FFF4                move.w     [A6 - 0xC], D6
00000F58  3E2E FFF6                move.w     D7, [A6 - 0xA]
00000F5C  603C                     bra        +0x3E /* 00000F9A */
label00000F5E:
00000F5E  3F2E 001A                move.w     -[A7], [A6 + 0x1A]
00000F62  2F2E 0016                move.l     -[A7], [A6 + 0x16]
00000F66  2F2E 000E                move.l     -[A7], [A6 + 0xE]
00000F6A  3F07                     move.w     -[A7], D7
00000F6C  4EAD 02A2                jsr        [A5 + 0x2A2 /* export_80, CODE:1 @ 00006356 */]
00000F70  206E 0016                movea.l    A0, [A6 + 0x16]
00000F74  3010                     move.w     D0, [A0]
00000F76  B06E 000C                cmp.w      D0, [A6 + 0xC]
00000F7A  57C0                     seq        D0
00000F7C  4A00                     tst.b      D0
00000F7E  6716                     beq        +0x18 /* 00000F96 */
00000F80  2228 0008                move.l     D1, [A0 + 0x8]
00000F84  B2AE 0008                cmp.l      D1, [A6 + 0x8]
00000F88  57C1                     seq        D1
00000F8A  C001                     and.b      D0, D1
00000F8C  6708                     beq        +0xA /* 00000F96 */
00000F8E  206E 0012                movea.l    A0, [A6 + 0x12]
00000F92  3087                     move.w     [A0], D7
00000F94  6014                     bra        +0x16 /* 00000FAA */
label00000F96:
00000F96  5247                     addq.w     D7, 1
00000F98  6906                     bvs        +0x8 /* 00000FA0 */
label00000F9A:
00000F9A  BE6E FFF4                cmp.w      D7, [A6 - 0xC]
00000F9E  6FBE                     ble        -0x40 /* 00000F5E */
label00000FA0:
00000FA0  287C 0000 0A60           movea.l    A4, 0xA60 /* '\n`' */
00000FA6  38BC FF40                move.w     [A4], 0xFF40
label00000FAA:
00000FAA  4CDF 10C0                movem.l    D6,D7,A4, [A7]+
00000FAE  4E5E                     unlink     A6
00000FB0  205F                     movea.l    A0, [A7]+
00000FB2  DEFC 0014                add.w      A7, 0x14
00000FB6  4ED0                     jmp        [A0]
fn00000FB8:
00000FB8  4E56 FFF0                link       A6, -0x0010
00000FBC  48E7 0708                movem.l    -[A7], D5,D6,D7,A4
00000FC0  4267                     clr.w      -[A7]
00000FC2  3F2E 001A                move.w     -[A7], [A6 + 0x1A]
00000FC6  2F2E 000E                move.l     -[A7], [A6 + 0xE]
00000FCA  4EAD 08BA                jsr        [A5 + 0x8BA /* export_275, CODE:4 @ 000002A8 */]
00000FCE  3C1F                     move.w     D6, [A7]+
00000FD0  3D7C 0001 FFF2           move.w     [A6 - 0xE], 0x1
00000FD6  3D46 FFF0                move.w     [A6 - 0x10], D6
00000FDA  3E2E FFF2                move.w     D7, [A6 - 0xE]
00000FDE  6044                     bra        +0x46 /* 00001024 */
label00000FE0:
00000FE0  3F2E 001A                move.w     -[A7], [A6 + 0x1A]
00000FE4  2F2E 0016                move.l     -[A7], [A6 + 0x16]
00000FE8  2F2E 000E                move.l     -[A7], [A6 + 0xE]
00000FEC  3F07                     move.w     -[A7], D7
00000FEE  4EAD 02A2                jsr        [A5 + 0x2A2 /* export_80, CODE:1 @ 00006356 */]
00000FF2  206E 0016                movea.l    A0, [A6 + 0x16]
00000FF6  203C 00FF FFFF           move.l     D0, 0xFFFFFF
00000FFC  C0A8 0004                and.l      D0, [A0 + 0x4]
00001000  2A00                     move.l     D5, D0
00001002  3010                     move.w     D0, [A0]
00001004  B06E 000C                cmp.w      D0, [A6 + 0xC]
00001008  57C0                     seq        D0
0000100A  4A00                     tst.b      D0
0000100C  6712                     beq        +0x14 /* 00001020 */
0000100E  BAAE 0008                cmp.l      D5, [A6 + 0x8]
00001012  57C1                     seq        D1
00001014  C001                     and.b      D0, D1
00001016  6708                     beq        +0xA /* 00001020 */
00001018  206E 0012                movea.l    A0, [A6 + 0x12]
0000101C  3087                     move.w     [A0], D7
0000101E  6014                     bra        +0x16 /* 00001034 */
label00001020:
00001020  5247                     addq.w     D7, 1
00001022  6906                     bvs        +0x8 /* 0000102A */
label00001024:
00001024  BE6E FFF0                cmp.w      D7, [A6 - 0x10]
00001028  6FB6                     ble        -0x48 /* 00000FE0 */
label0000102A:
0000102A  287C 0000 0A60           movea.l    A4, 0xA60 /* '\n`' */
00001030  38BC FF40                move.w     [A4], 0xFF40
label00001034:
00001034  4CDF 10E0                movem.l    D5,D6,D7,A4, [A7]+
00001038  4E5E                     unlink     A6
0000103A  205F                     movea.l    A0, [A7]+
0000103C  DEFC 0014                add.w      A7, 0x14
00001040  4ED0                     jmp        [A0]
export_305:
fn00001042:
00001042  4E56 FEC6                link       A6, -0x013A
00001046  48E7 0F18                movem.l    -[A7], D4,D5,D6,D7,A3,A4
0000104A  286E 0008                movea.l    A4, [A6 + 0x8]
0000104E  282E 000C                move.l     D4, [A6 + 0xC]
00001052  1D7C 0001 0012           move.b     [A6 + 0x12], 0x1
00001058  2044                     movea.l    A0, D4
0000105A  2050                     movea.l    A0, [A0]
0000105C  3E28 0110                move.w     D7, [A0 + 0x110]
00001060  7000                     moveq.l    D0, 0x00
00001062  2F00                     move.l     -[A7], D0
00001064  4267                     clr.w      -[A7]
00001066  2F0C                     move.l     -[A7], A4
00001068  A9A6                     syscall    GetResAttrs
0000106A  321F                     move.w     D1, [A7]+
0000106C  201F                     move.l     D0, [A7]+
0000106E  3001                     move.w     D0, D1
00001070  C0BC 0000 0002           and.l      D0, 0x2
00001076  7202                     moveq.l    D1, 0x02
00001078  B280                     cmp.l      D1, D0
0000107A  6600 0292                bne        +0x294 /* 0000130E */
0000107E  102E 0010                move.b     D0, [A6 + 0x10]
00001082  6716                     beq        +0x18 /* 0000109A */
00001084  1B7C 0001 F940           move.b     [A5 - 0x6C0], 0x1
0000108A  2F3C 0004 0002           move.l     -[A7], 0x40002
00001090  2F04                     move.l     -[A7], D4
00001092  4EAD 025A                jsr        [A5 + 0x25A /* export_71, CODE:1 @ 00005AE0 */]
00001096  422D F940                clr.b      [A5 - 0x6C0]
label0000109A:
0000109A  42A7                     clr.l      -[A7]
0000109C  2F04                     move.l     -[A7], D4
0000109E  4EAD 01C2                jsr        [A5 + 0x1C2 /* export_52, CODE:1 @ 000045E2 */]
000010A2  2A1F                     move.l     D5, [A7]+
000010A4  0C85 0000 3039           cmpi.l     D5, 0x3039 /* '09' */
000010AA  6700 0262                beq        +0x264 /* 0000130E */
000010AE  2045                     movea.l    A0, D5
000010B0  2050                     movea.l    A0, [A0]
000010B2  2D68 017C FFF4           move.l     [A6 - 0xC], [A0 + 0x17C]
000010B8  2045                     movea.l    A0, D5
000010BA  2050                     movea.l    A0, [A0]
000010BC  2D68 0178 FFF8           move.l     [A6 - 0x8], [A0 + 0x178]
000010C2  267C 0000 0A50           movea.l    A3, 0xA50 /* '\nP' */
000010C8  2D53 FFF0                move.l     [A6 - 0x10], [A3]
000010CC  2053                     movea.l    A0, [A3]
000010CE  2050                     movea.l    A0, [A0]
000010D0  226E FFF4                movea.l    A1, [A6 - 0xC]
000010D4  2251                     movea.l    A1, [A1]
000010D6  2368 0010 0010           move.l     [A1 + 0x10], [A0 + 0x10]
000010DC  2053                     movea.l    A0, [A3]
000010DE  2050                     movea.l    A0, [A0]
000010E0  226E FFF8                movea.l    A1, [A6 - 0x8]
000010E4  2251                     movea.l    A1, [A1]
000010E6  2368 0010 0010           move.l     [A1 + 0x10], [A0 + 0x10]
000010EC  2F0C                     move.l     -[A7], A4
000010EE  486E FFE0                pea.l      [A6 - 0x20]
000010F2  486E FECC                pea.l      [A6 - 0x134]
000010F6  486E FEDC                pea.l      [A6 - 0x124]
000010FA  A9A8                     syscall    GetResInfo
000010FC  42A7                     clr.l      -[A7]
000010FE  A9AF                     syscall    ResError
00001100  4267                     clr.w      -[A7]
00001102  4EAD 00F2                jsr        [A5 + 0xF2 /* export_26, CODE:1 @ 00002F14 */]
00001106  1C1F                     move.b     D6, [A7]+
00001108  1006                     move.b     D0, D6
0000110A  6700 0202                beq        +0x204 /* 0000130E */
0000110E  4267                     clr.w      -[A7]
00001110  A99B                     syscall    SetResLoad
00001112  3F07                     move.w     -[A7], D7
00001114  486E FED0                pea.l      [A6 - 0x130]
00001118  486E FFE6                pea.l      [A6 - 0x1A]
0000111C  2F2E FECC                move.l     -[A7], [A6 - 0x134]
00001120  3F2E FFE0                move.w     -[A7], [A6 - 0x20]
00001124  2F0C                     move.l     -[A7], A4
00001126  4EBA FE0E                jsr        [PC - 0x1F2 /* 00000F36 */]
0000112A  26AE FFF4                move.l     [A3], [A6 - 0xC]
0000112E  42B8 0B84                clr.l      [0x00000B84 /* HSCHndl */]
00001132  203C 00FF FFFF           move.l     D0, 0xFFFFFF
00001138  C0AE FED4                and.l      D0, [A6 - 0x12C]
0000113C  2D40 FEC6                move.l     [A6 - 0x13A], D0
00001140  3F07                     move.w     -[A7], D7
00001142  486E FED0                pea.l      [A6 - 0x130]
00001146  486E FFE6                pea.l      [A6 - 0x1A]
0000114A  2F2E FECC                move.l     -[A7], [A6 - 0x134]
0000114E  3F2E FFE0                move.w     -[A7], [A6 - 0x20]
00001152  2F2E FEC6                move.l     -[A7], [A6 - 0x13A]
00001156  4EBA FE60                jsr        [PC - 0x1A0 /* 00000FB8 */]
0000115A  4267                     clr.w      -[A7]
0000115C  A9AF                     syscall    ResError
0000115E  4A5F                     tst.w      [A7]+
00001160  6708                     beq        +0xA /* 0000116A */
00001162  422E 0012                clr.b      [A6 + 0x12]
00001166  6000 0190                bra        +0x192 /* 000012F8 */
label0000116A:
0000116A  26AE FFF8                move.l     [A3], [A6 - 0x8]
0000116E  3F07                     move.w     -[A7], D7
00001170  486E FED0                pea.l      [A6 - 0x130]
00001174  2F2E FECC                move.l     -[A7], [A6 - 0x134]
00001178  3F2E FFE6                move.w     -[A7], [A6 - 0x1A]
0000117C  4EAD 02A2                jsr        [A5 + 0x2A2 /* export_80, CODE:1 @ 00006356 */]
00001180  4267                     clr.w      -[A7]
00001182  A9AF                     syscall    ResError
00001184  4A5F                     tst.w      [A7]+
00001186  6708                     beq        +0xA /* 00001190 */
00001188  422E 0012                clr.b      [A6 + 0x12]
0000118C  6000 016A                bra        +0x16C /* 000012F8 */
label00001190:
00001190  3D6E FED0 FFE2           move.w     [A6 - 0x1E], [A6 - 0x130]
00001196  42A7                     clr.l      -[A7]
00001198  3F07                     move.w     -[A7], D7
0000119A  2F2E FECC                move.l     -[A7], [A6 - 0x134]
0000119E  3F2E FFE2                move.w     -[A7], [A6 - 0x1E]
000011A2  4EAD 08CA                jsr        [A5 + 0x8CA /* export_277, CODE:4 @ 00000338 */]
000011A6  2D5F FFDC                move.l     [A6 - 0x24], [A7]+
000011AA  42B8 0B84                clr.l      [0x00000B84 /* HSCHndl */]
000011AE  2F2E FFDC                move.l     -[A7], [A6 - 0x24]
000011B2  486E FFE2                pea.l      [A6 - 0x1E]
000011B6  486E FECC                pea.l      [A6 - 0x134]
000011BA  486E FEDC                pea.l      [A6 - 0x124]
000011BE  A9A8                     syscall    GetResInfo
000011C0  4267                     clr.w      -[A7]
000011C2  2F2E FFDC                move.l     -[A7], [A6 - 0x24]
000011C6  A9A6                     syscall    GetResAttrs
000011C8  3D5F FFE4                move.w     [A6 - 0x1C], [A7]+
000011CC  302E FFE2                move.w     D0, [A6 - 0x1E]
000011D0  B06E FFE0                cmp.w      D0, [A6 - 0x20]
000011D4  6716                     beq        +0x18 /* 000011EC */
000011D6  26AE FFF4                move.l     [A3], [A6 - 0xC]
000011DA  3F07                     move.w     -[A7], D7
000011DC  2F2E FECC                move.l     -[A7], [A6 - 0x134]
000011E0  3F2E FFE0                move.w     -[A7], [A6 - 0x20]
000011E4  3F2E FFE2                move.w     -[A7], [A6 - 0x1E]
000011E8  4EAD 02B2                jsr        [A5 + 0x2B2 /* export_82, CODE:1 @ 0000626C */]
label000011EC:
000011EC  26AE FFF0                move.l     [A3], [A6 - 0x10]
000011F0  42B8 0B84                clr.l      [0x00000B84 /* HSCHndl */]
000011F4  2045                     movea.l    A0, D5
000011F6  2050                     movea.l    A0, [A0]
000011F8  1028 0199                move.b     D0, [A0 + 0x199]
000011FC  6660                     bne        +0x62 /* 0000125E */
000011FE  2F0C                     move.l     -[A7], A4
00001200  7000                     moveq.l    D0, 0x00
00001202  302E FFE4                move.w     D0, [A6 - 0x1C]
00001206  7208                     moveq.l    D1, 0x08
00001208  4681                     not.l      D1
0000120A  C081                     and.l      D0, D1
0000120C  3F00                     move.w     -[A7], D0
0000120E  A9A7                     syscall    SetResAttrs
00001210  3F07                     move.w     -[A7], D7
00001212  2F0C                     move.l     -[A7], A4
00001214  4EAD 08F2                jsr        [A5 + 0x8F2 /* export_282, CODE:4 @ 000004B6 */]
00001218  42A7                     clr.l      -[A7]
0000121A  A9AF                     syscall    ResError
0000121C  4267                     clr.w      -[A7]
0000121E  4EAD 00F2                jsr        [A5 + 0xF2 /* export_26, CODE:1 @ 00002F14 */]
00001222  1C1F                     move.b     D6, [A7]+
00001224  1006                     move.b     D0, D6
00001226  6736                     beq        +0x38 /* 0000125E */
00001228  4A94                     tst.l      [A4]
0000122A  660A                     bne        +0xC /* 00001236 */
0000122C  2F0C                     move.l     -[A7], A4
0000122E  42A7                     clr.l      -[A7]
00001230  4EAD 051A                jsr        [A5 + 0x51A /* export_159, CODE:3 @ 00002528 */]
00001234  6008                     bra        +0xA /* 0000123E */
label00001236:
00001236  2F0C                     move.l     -[A7], A4
00001238  42A7                     clr.l      -[A7]
0000123A  4EAD 0512                jsr        [A5 + 0x512 /* export_158, CODE:3 @ 0000251E */]
label0000123E:
0000123E  3F07                     move.w     -[A7], D7
00001240  2F0C                     move.l     -[A7], A4
00001242  2F2E FECC                move.l     -[A7], [A6 - 0x134]
00001246  3F2E FFE2                move.w     -[A7], [A6 - 0x1E]
0000124A  486E FEDC                pea.l      [A6 - 0x124]
0000124E  4EAD 08E2                jsr        [A5 + 0x8E2 /* export_280, CODE:4 @ 00000434 */]
00001252  42A7                     clr.l      -[A7]
00001254  A9AF                     syscall    ResError
00001256  4267                     clr.w      -[A7]
00001258  4EAD 00F2                jsr        [A5 + 0xF2 /* export_26, CODE:1 @ 00002F14 */]
0000125C  1C1F                     move.b     D6, [A7]+
label0000125E:
0000125E  1006                     move.b     D0, D6
00001260  6700 0096                beq        +0x98 /* 000012F8 */
00001264  2F0C                     move.l     -[A7], A4
00001266  205F                     movea.l    A0, [A7]+
00001268  A02B                     syscall    EmptyHandle
0000126A  3F07                     move.w     -[A7], D7
0000126C  2F2E FED4                move.l     -[A7], [A6 - 0x12C]
00001270  2F2E FECC                move.l     -[A7], [A6 - 0x134]
00001274  3F2E FFE2                move.w     -[A7], [A6 - 0x1E]
00001278  2F0C                     move.l     -[A7], A4
0000127A  4EAD 02BA                jsr        [A5 + 0x2BA /* export_83, CODE:1 @ 0000621E */]
0000127E  42A7                     clr.l      -[A7]
00001280  A9AF                     syscall    ResError
00001282  4267                     clr.w      -[A7]
00001284  4EAD 00F2                jsr        [A5 + 0xF2 /* export_26, CODE:1 @ 00002F14 */]
00001288  1C1F                     move.b     D6, [A7]+
0000128A  1006                     move.b     D0, D6
0000128C  676A                     beq        +0x6C /* 000012F8 */
0000128E  2F0C                     move.l     -[A7], A4
00001290  7000                     moveq.l    D0, 0x00
00001292  302E FFE4                move.w     D0, [A6 - 0x1C]
00001296  7202                     moveq.l    D1, 0x02
00001298  4681                     not.l      D1
0000129A  C081                     and.l      D0, D1
0000129C  3F00                     move.w     -[A7], D0
0000129E  A9A7                     syscall    SetResAttrs
000012A0  1F3C 0001                move.b     -[A7], 0x1
000012A4  A99B                     syscall    SetResLoad
000012A6  2F0C                     move.l     -[A7], A4
000012A8  A9A2                     syscall    LoadResource
000012AA  2F0C                     move.l     -[A7], A4
000012AC  205F                     movea.l    A0, [A7]+
000012AE  A04A                     syscall    HNoPurge
000012B0  7000                     moveq.l    D0, 0x00
000012B2  302E FFE4                move.w     D0, [A6 - 0x1C]
000012B6  C0BC 0000 0010           and.l      D0, 0x10
000012BC  7210                     moveq.l    D1, 0x10
000012BE  B280                     cmp.l      D1, D0
000012C0  6606                     bne        +0x8 /* 000012C8 */
000012C2  2F0C                     move.l     -[A7], A4
000012C4  205F                     movea.l    A0, [A7]+
000012C6  A02A                     syscall    HUnlock
label000012C8:
000012C8  4267                     clr.w      -[A7]
000012CA  2F04                     move.l     -[A7], D4
000012CC  4EAD 0662                jsr        [A5 + 0x662 /* export_200, CODE:3 @ 00002AEC */]
000012D0  1D5F FECA                move.b     [A6 - 0x136], [A7]+
000012D4  3F2E FFE0                move.w     -[A7], [A6 - 0x20]
000012D8  3F2E FFE2                move.w     -[A7], [A6 - 0x1E]
000012DC  2F04                     move.l     -[A7], D4
000012DE  2044                     movea.l    A0, D4
000012E0  2050                     movea.l    A0, [A0]
000012E2  2068 0104                movea.l    A0, [A0 + 0x104]
000012E6  3F28 006C                move.w     -[A7], [A0 + 0x6C]
000012EA  4EAD 0242                jsr        [A5 + 0x242 /* export_68, CODE:1 @ 00005954 */]
000012EE  2F04                     move.l     -[A7], D4
000012F0  1F2E FECA                move.b     -[A7], [A6 - 0x136]
000012F4  4EAD 066A                jsr        [A5 + 0x66A /* export_201, CODE:3 @ 00002AF6 */]
label000012F8:
000012F8  26AE FFF0                move.l     [A3], [A6 - 0x10]
000012FC  1F3C 0001                move.b     -[A7], 0x1
00001300  A99B                     syscall    SetResLoad
00001302  102E 0010                move.b     D0, [A6 + 0x10]
00001306  6706                     beq        +0x8 /* 0000130E */
00001308  2F05                     move.l     -[A7], D5
0000130A  4EAD 0352                jsr        [A5 + 0x352 /* export_102, CODE:2 @ 000008A0 */]
label0000130E:
0000130E  4CDF 18F0                movem.l    D4,D5,D6,D7,A3,A4, [A7]+
00001312  4E5E                     unlink     A6
00001314  205F                     movea.l    A0, [A7]+
00001316  DEFC 000A                add.w      A7, 0xA /* '\n' */
0000131A  4ED0                     jmp        [A0]
fn0000131C:
0000131C  4E56 FEE8                link       A6, -0x0118
00001320  48E7 0F18                movem.l    -[A7], D4,D5,D6,D7,A3,A4
00001324  282E 0008                move.l     D4, [A6 + 0x8]
00001328  4205                     clr.b      D5
0000132A  2044                     movea.l    A0, D4
0000132C  2850                     movea.l    A4, [A0]
0000132E  4267                     clr.w      -[A7]
00001330  2F04                     move.l     -[A7], D4
00001332  4EBA F90C                jsr        [PC - 0x6F4 /* 00000C40 */]
00001336  101F                     move.b     D0, [A7]+
00001338  6700 0168                beq        +0x16A /* 000014A2 */
0000133C  2F2C 0118                move.l     -[A7], [A4 + 0x118]
00001340  486E FEF4                pea.l      [A6 - 0x10C]
00001344  4EAD 0D8A                jsr        [A5 + 0xD8A /* export_429, CODE:16 @ 00000686 */]
00001348  42A7                     clr.l      -[A7]
0000134A  2F04                     move.l     -[A7], D4
0000134C  4EAD 01C2                jsr        [A5 + 0x1C2 /* export_52, CODE:1 @ 000045E2 */]
00001350  2E1F                     move.l     D7, [A7]+
00001352  0C87 0000 3039           cmpi.l     D7, 0x3039 /* '09' */
00001358  6700 0148                beq        +0x14A /* 000014A2 */
0000135C  7000                     moveq.l    D0, 0x00
0000135E  2D40 FFF8                move.l     [A6 - 0x8], D0
00001362  4267                     clr.w      -[A7]
00001364  1F3C 0001                move.b     -[A7], 0x1
00001368  486E FFF8                pea.l      [A6 - 0x8]
0000136C  2F2C 0124                move.l     -[A7], [A4 + 0x124]
00001370  3F3C 003C                move.w     -[A7], 0x3C /* '<' */
00001374  A9E7                     syscall    Pack0/ListManager
00001376  101F                     move.b     D0, [A7]+
00001378  676C                     beq        +0x6E /* 000013E6 */
0000137A  2D6E FFF8 FFFC           move.l     [A6 - 0x4], [A6 - 0x8]
00001380  4267                     clr.w      -[A7]
00001382  1F3C 0001                move.b     -[A7], 0x1
00001386  1F3C 0001                move.b     -[A7], 0x1
0000138A  486E FFF8                pea.l      [A6 - 0x8]
0000138E  2F2C 0124                move.l     -[A7], [A4 + 0x124]
00001392  3F3C 0048                move.w     -[A7], 0x48 /* 'H' */
00001396  A9E7                     syscall    Pack0/ListManager
00001398  101F                     move.b     D0, [A7]+
0000139A  0A00 0001                xori.b     D0, 0x1
0000139E  4A00                     tst.b      D0
000013A0  6622                     bne        +0x24 /* 000013C4 */
000013A2  2F00                     move.l     -[A7], D0
000013A4  4267                     clr.w      -[A7]
000013A6  1F3C 0001                move.b     -[A7], 0x1
000013AA  486E FFF8                pea.l      [A6 - 0x8]
000013AE  2F2C 0124                move.l     -[A7], [A4 + 0x124]
000013B2  3F3C 003C                move.w     -[A7], 0x3C /* '<' */
000013B6  A9E7                     syscall    Pack0/ListManager
000013B8  121F                     move.b     D1, [A7]+
000013BA  201F                     move.l     D0, [A7]+
000013BC  0A01 0001                xori.b     D1, 0x1
000013C0  8001                     or.b       D0, D1
000013C2  6704                     beq        +0x6 /* 000013C8 */
label000013C4:
000013C4  7C18                     moveq.l    D6, 0x18
000013C6  6002                     bra        +0x4 /* 000013CA */
label000013C8:
000013C8  7C19                     moveq.l    D6, 0x19
label000013CA:
000013CA  486E FEF4                pea.l      [A6 - 0x10C]
000013CE  2047                     movea.l    A0, D7
000013D0  2050                     movea.l    A0, [A0]
000013D2  2068 0104                movea.l    A0, [A0 + 0x104]
000013D6  2068 0086                movea.l    A0, [A0 + 0x86]
000013DA  2F10                     move.l     -[A7], [A0]
000013DC  487A 00DC                pea.l      [PC + 0xDC /* 000014BA, value 0x4E56 'NV', cstring "" */]
000013E0  487A 00D8                pea.l      [PC + 0xD8 /* 000014BA, value 0x4E56 'NV', cstring "" */]
000013E4  A98B                     syscall    ParamText
label000013E6:
000013E6  4267                     clr.w      -[A7]
000013E8  1F3C 0004                move.b     -[A7], 0x4
000013EC  487A 00C2                pea.l      [PC + 0xC2 /* 000014B0, value 0x9416C65 '\tAle', pstring "Alert str" */]
000013F0  3F06                     move.w     -[A7], D6
000013F2  4EAD 00DA                jsr        [A5 + 0xDA /* export_23, CODE:1 @ 00002ACA */]
000013F6  101F                     move.b     D0, [A7]+
000013F8  6700 00A8                beq        +0xAA /* 000014A2 */
000013FC  3F3C 0004                move.w     -[A7], 0x4
00001400  4EAD 0182                jsr        [A5 + 0x182 /* export_44, CODE:1 @ 00003B34 */]
00001404  206C 0104                movea.l    A0, [A4 + 0x104]
00001408  4868 0010                pea.l      [A0 + 0x10]
0000140C  A928                     syscall    InvalRect
0000140E  7000                     moveq.l    D0, 0x00
00001410  2D40 FFF8                move.l     [A6 - 0x8], D0
label00001414:
00001414  4267                     clr.w      -[A7]
00001416  1F3C 0001                move.b     -[A7], 0x1
0000141A  486E FFF8                pea.l      [A6 - 0x8]
0000141E  2F2C 0124                move.l     -[A7], [A4 + 0x124]
00001422  3F3C 003C                move.w     -[A7], 0x3C /* '<' */
00001426  A9E7                     syscall    Pack0/ListManager
00001428  101F                     move.b     D0, [A7]+
0000142A  6776                     beq        +0x78 /* 000014A2 */
0000142C  3D7C 0002 FEF0           move.w     [A6 - 0x110], 0x2
00001432  486E FEF2                pea.l      [A6 - 0x10E]
00001436  486E FEF0                pea.l      [A6 - 0x110]
0000143A  2F2E FFF8                move.l     -[A7], [A6 - 0x8]
0000143E  2F2C 0124                move.l     -[A7], [A4 + 0x124]
00001442  3F3C 0038                move.w     -[A7], 0x38 /* '8' */
00001446  A9E7                     syscall    Pack0/ListManager
00001448  4267                     clr.w      -[A7]
0000144A  A99B                     syscall    SetResLoad
0000144C  42A7                     clr.l      -[A7]
0000144E  3F2C 0110                move.w     -[A7], [A4 + 0x110]
00001452  2F2C 0118                move.l     -[A7], [A4 + 0x118]
00001456  3F2E FEF2                move.w     -[A7], [A6 - 0x10E]
0000145A  4EAD 08CA                jsr        [A5 + 0x8CA /* export_277, CODE:4 @ 00000338 */]
0000145E  265F                     movea.l    A3, [A7]+
00001460  1F3C 0001                move.b     -[A7], 0x1
00001464  A99B                     syscall    SetResLoad
00001466  200B                     move.l     D0, A3
00001468  671A                     beq        +0x1C /* 00001484 */
0000146A  7A01                     moveq.l    D5, 0x01
0000146C  4267                     clr.w      -[A7]
0000146E  2F04                     move.l     -[A7], D4
00001470  2F0B                     move.l     -[A7], A3
00001472  4EBA FAA0                jsr        [PC - 0x560 /* 00000F14 */]
00001476  101F                     move.b     D0, [A7]+
00001478  660A                     bne        +0xC /* 00001484 */
0000147A  3F2C 0110                move.w     -[A7], [A4 + 0x110]
0000147E  2F0B                     move.l     -[A7], A3
00001480  4EAD 088A                jsr        [A5 + 0x88A /* export_269, CODE:4 @ 00000054 */]
label00001484:
00001484  4267                     clr.w      -[A7]
00001486  1F3C 0001                move.b     -[A7], 0x1
0000148A  1F3C 0001                move.b     -[A7], 0x1
0000148E  486E FFF8                pea.l      [A6 - 0x8]
00001492  2F2C 0124                move.l     -[A7], [A4 + 0x124]
00001496  3F3C 0048                move.w     -[A7], 0x48 /* 'H' */
0000149A  A9E7                     syscall    Pack0/ListManager
0000149C  101F                     move.b     D0, [A7]+
0000149E  6600 FF74                bne        -0x8A /* 00001414 */
label000014A2:
000014A2  1D45 000C                move.b     [A6 + 0xC], D5
000014A6  4CDF 18F0                movem.l    D4,D5,D6,D7,A3,A4, [A7]+
000014AA  4E5E                     unlink     A6
000014AC  2E9F                     move.l     [A7], [A7]+
000014AE  4E75                     rts
000014B0  0941                     bchg       D1, D4
000014B2  6C65                     bge        +0x67 /* 00001519 */
000014B4  7274                     moveq.l    D1, 0x74
000014B6  2073 7472                movea.l    A0, [A3 + D7.w * 4 + 0x72]
000014BA  0000 4E56                ori.b      D0, 0x56 /* 'V' */
// begin alternate branch 000014BC-000014C4
export_306:
fn000014BC:
000014BC  4E56 FEF4                link       A6, -0x010C
000014C0  48E7 0318                movem.l    -[A7], D6,D7,A3,A4
// end alternate branch 000014BC-000014C4
export_306: // at 000014BC (misaligned)
fn000014BC: // (misaligned)
000014BE  FEF4 48E7                .extension 0xEF4 <<F/2-3/7>> // unimplemented
000014C2  0318                     btst       [A0]+, D1
000014C4  2E2E 0008                move.l     D7, [A6 + 0x8]
000014C8  4267                     clr.w      -[A7]
000014CA  2F07                     move.l     -[A7], D7
000014CC  4EAD 0662                jsr        [A5 + 0x662 /* export_200, CODE:3 @ 00002AEC */]
000014D0  1C1F                     move.b     D6, [A7]+
000014D2  2F07                     move.l     -[A7], D7
000014D4  4EAD 0232                jsr        [A5 + 0x232 /* export_66, CODE:1 @ 00005914 */]
000014D8  2F07                     move.l     -[A7], D7
000014DA  205F                     movea.l    A0, [A7]+
000014DC  A029                     syscall    HLock
000014DE  2047                     movea.l    A0, D7
000014E0  2850                     movea.l    A4, [A0]
000014E2  4267                     clr.w      -[A7]
000014E4  2F2E 000C                move.l     -[A7], [A6 + 0xC]
000014E8  2F2C 0124                move.l     -[A7], [A4 + 0x124]
000014EC  3F3C 005C                move.w     -[A7], 0x5C /* '\\' */
000014F0  A9E7                     syscall    Pack0/ListManager
000014F2  42A7                     clr.l      -[A7]
000014F4  486E 0010                pea.l      [A6 + 0x10]
000014F8  1F3C 0001                move.b     -[A7], 0x1
000014FC  3F2C 0110                move.w     -[A7], [A4 + 0x110]
00001500  4EBA 0042                jsr        [PC + 0x42 /* 00001544 */]
00001504  265F                     movea.l    A3, [A7]+
00001506  200B                     move.l     D0, A3
00001508  6720                     beq        +0x22 /* 0000152A */
0000150A  2F0B                     move.l     -[A7], A3
0000150C  486E FFFA                pea.l      [A6 - 0x6]
00001510  486E FFF6                pea.l      [A6 - 0xA]
00001514  486E FEF6                pea.l      [A6 - 0x10A]
00001518  A9A8                     syscall    GetResInfo
0000151A  3F2E FFFA                move.w     -[A7], [A6 - 0x6]
0000151E  486C 0128                pea.l      [A4 + 0x128]
00001522  2F2C 0124                move.l     -[A7], [A4 + 0x124]
00001526  4EBA F5C0                jsr        [PC - 0xA40 /* 00000AE8 */]
label0000152A:
0000152A  2F07                     move.l     -[A7], D7
0000152C  1F06                     move.b     -[A7], D6
0000152E  4EAD 066A                jsr        [A5 + 0x66A /* export_201, CODE:3 @ 00002AF6 */]
00001532  2D4B 0014                move.l     [A6 + 0x14], A3
00001536  4CDF 18C0                movem.l    D6,D7,A3,A4, [A7]+
0000153A  4E5E                     unlink     A6
0000153C  205F                     movea.l    A0, [A7]+
0000153E  DEFC 000C                add.w      A7, 0xC
00001542  4ED0                     jmp        [A0]
export_307:
fn00001544:
00001544  4E56 FEE8                link       A6, -0x0118
00001548  48E7 0F18                movem.l    -[A7], D4,D5,D6,D7,A3,A4
0000154C  286E 000C                movea.l    A4, [A6 + 0xC]
00001550  3A2E 0008                move.w     D5, [A6 + 0x8]
00001554  7000                     moveq.l    D0, 0x00
00001556  2D40 0010                move.l     [A6 + 0x10], D0
0000155A  3F3C 0004                move.w     -[A7], 0x4
0000155E  4EAD 0172                jsr        [A5 + 0x172 /* export_42, CODE:1 @ 00003B04 */]
00001562  4267                     clr.w      -[A7]
00001564  2F14                     move.l     -[A7], [A4]
00001566  A9A4                     syscall    HomeResFile
00001568  3E1F                     move.w     D7, [A7]+
0000156A  6608                     bne        +0xA /* 00001574 */
0000156C  4267                     clr.w      -[A7]
0000156E  4EAD 0272                jsr        [A5 + 0x272 /* export_74, CODE:1 @ 00005C58 */]
00001572  3E1F                     move.w     D7, [A7]+
label00001574:
00001574  4A45                     tst.w      D5
00001576  6608                     bne        +0xA /* 00001580 */
00001578  4267                     clr.w      -[A7]
0000157A  4EAD 0272                jsr        [A5 + 0x272 /* export_74, CODE:1 @ 00005C58 */]
0000157E  3A1F                     move.w     D5, [A7]+
label00001580:
00001580  BA47                     cmp.w      D5, D7
00001582  56C0                     sne        D0
00001584  4A00                     tst.b      D0
00001586  660C                     bne        +0xE /* 00001594 */
00001588  802E 000A                or.b       D0, [A6 + 0xA]
0000158C  0240 0001                andi.w     D0, 0x1
00001590  6700 020A                beq        +0x20C /* 0000179C */
label00001594:
00001594  4267                     clr.w      -[A7]
00001596  2F14                     move.l     -[A7], [A4]
00001598  A9A6                     syscall    GetResAttrs
0000159A  3C1F                     move.w     D6, [A7]+
0000159C  2F14                     move.l     -[A7], [A4]
0000159E  486E FFF0                pea.l      [A6 - 0x10]
000015A2  486E FEEA                pea.l      [A6 - 0x116]
000015A6  486E FEEE                pea.l      [A6 - 0x112]
000015AA  A9A8                     syscall    GetResInfo
000015AC  42A7                     clr.l      -[A7]
000015AE  A9AF                     syscall    ResError
000015B0  4267                     clr.w      -[A7]
000015B2  4EAD 00F2                jsr        [A5 + 0xF2 /* export_26, CODE:1 @ 00002F14 */]
000015B6  101F                     move.b     D0, [A7]+
000015B8  6700 01E6                beq        +0x1E8 /* 000017A0 */
000015BC  7000                     moveq.l    D0, 0x00
000015BE  2640                     movea.l    A3, D0
000015C0  102E 000A                move.b     D0, [A6 + 0xA]
000015C4  6710                     beq        +0x12 /* 000015D6 */
000015C6  4267                     clr.w      -[A7]
000015C8  3F05                     move.w     -[A7], D5
000015CA  2F2E FEEA                move.l     -[A7], [A6 - 0x116]
000015CE  4EAD 08A2                jsr        [A5 + 0x8A2 /* export_272, CODE:4 @ 000001AA */]
000015D2  381F                     move.w     D4, [A7]+
000015D4  601E                     bra        +0x20 /* 000015F4 */
label000015D6:
000015D6  382E FFF0                move.w     D4, [A6 - 0x10]
000015DA  42A7                     clr.l      -[A7]
000015DC  3F05                     move.w     -[A7], D5
000015DE  2F2E FEEA                move.l     -[A7], [A6 - 0x116]
000015E2  3F04                     move.w     -[A7], D4
000015E4  4EAD 08CA                jsr        [A5 + 0x8CA /* export_277, CODE:4 @ 00000338 */]
000015E8  265F                     movea.l    A3, [A7]+
000015EA  200B                     move.l     D0, A3
000015EC  6706                     beq        +0x8 /* 000015F4 */
000015EE  2F0B                     move.l     -[A7], A3
000015F0  205F                     movea.l    A0, [A7]+
000015F2  A02A                     syscall    HUnlock
label000015F4:
000015F4  1D7C 0001 FEE8           move.b     [A6 - 0x118], 0x1
000015FA  2054                     movea.l    A0, [A4]
000015FC  4A90                     tst.l      [A0]
000015FE  661A                     bne        +0x1C /* 0000161A */
00001600  42A7                     clr.l      -[A7]
00001602  3F07                     move.w     -[A7], D7
00001604  2F2E FEEA                move.l     -[A7], [A6 - 0x116]
00001608  3F2E FFF0                move.w     -[A7], [A6 - 0x10]
0000160C  4EAD 08CA                jsr        [A5 + 0x8CA /* export_277, CODE:4 @ 00000338 */]
00001610  2897                     move.l     [A4], [A7]
00001612  205F                     movea.l    A0, [A7]+
00001614  A02A                     syscall    HUnlock
00001616  422E FEE8                clr.b      [A6 - 0x118]
label0000161A:
0000161A  207C 0000 0A60           movea.l    A0, 0xA60 /* '\n`' */
00001620  4250                     clr.w      [A0]
00001622  4267                     clr.w      -[A7]
00001624  2F14                     move.l     -[A7], [A4]
00001626  3F3C 000F                move.w     -[A7], 0xF
0000162A  4EAD 010A                jsr        [A5 + 0x10A /* export_29, CODE:1 @ 000031C6 */]
0000162E  101F                     move.b     D0, [A7]+
00001630  6700 016E                beq        +0x170 /* 000017A0 */
00001634  7000                     moveq.l    D0, 0x00
00001636  2F00                     move.l     -[A7], D0
00001638  4267                     clr.w      -[A7]
0000163A  2F14                     move.l     -[A7], [A4]
0000163C  4EAD 0662                jsr        [A5 + 0x662 /* export_200, CODE:3 @ 00002AEC */]
00001640  121F                     move.b     D1, [A7]+
00001642  201F                     move.l     D0, [A7]+
00001644  1001                     move.b     D0, D1
00001646  0800 0006                btst.b     D0, 0x6
0000164A  56C0                     sne        D0
0000164C  4A00                     tst.b      D0
0000164E  6724                     beq        +0x26 /* 00001674 */
00001650  7200                     moveq.l    D1, 0x00
00001652  3206                     move.w     D1, D6
00001654  C2BC 0000 0002           and.l      D1, 0x2
0000165A  4A81                     tst.l      D1
0000165C  57C1                     seq        D1
0000165E  C001                     and.b      D0, D1
00001660  6712                     beq        +0x14 /* 00001674 */
00001662  2F14                     move.l     -[A7], [A4]
00001664  205F                     movea.l    A0, [A7]+
00001666  A04A                     syscall    HNoPurge
00001668  2D54 FFF8                move.l     [A6 - 0x8], [A4]
0000166C  2F2E FFF8                move.l     -[A7], [A6 - 0x8]
00001670  A992                     syscall    DetachResource
00001672  6032                     bra        +0x34 /* 000016A6 */
label00001674:
00001674  2D54 FFF8                move.l     [A6 - 0x8], [A4]
00001678  4267                     clr.w      -[A7]
0000167A  486E FFF8                pea.l      [A6 - 0x8]
0000167E  4EAD 06D2                jsr        [A5 + 0x6D2 /* export_214, CODE:3 @ 00003172 */]
00001682  3D5F FFF4                move.w     [A6 - 0xC], [A7]+
00001686  102E FEE8                move.b     D0, [A6 - 0x118]
0000168A  6604                     bne        +0x6 /* 00001690 */
0000168C  2F14                     move.l     -[A7], [A4]
0000168E  A9A3                     syscall    ReleaseResource
label00001690:
00001690  4267                     clr.w      -[A7]
00001692  3F2E FFF4                move.w     -[A7], [A6 - 0xC]
00001696  3F3C 000F                move.w     -[A7], 0xF
0000169A  4EAD 00F2                jsr        [A5 + 0xF2 /* export_26, CODE:1 @ 00002F14 */]
0000169E  101F                     move.b     D0, [A7]+
000016A0  6604                     bne        +0x6 /* 000016A6 */
000016A2  6000 0100                bra        +0x102 /* 000017A4 */
label000016A6:
000016A6  4267                     clr.w      -[A7]
000016A8  A99B                     syscall    SetResLoad
000016AA  42A7                     clr.l      -[A7]
000016AC  3F07                     move.w     -[A7], D7
000016AE  2F2E FEEA                move.l     -[A7], [A6 - 0x116]
000016B2  3F2E FFF0                move.w     -[A7], [A6 - 0x10]
000016B6  4EAD 08CA                jsr        [A5 + 0x8CA /* export_277, CODE:4 @ 00000338 */]
000016BA  289F                     move.l     [A4], [A7]+
000016BC  1F3C 0001                move.b     -[A7], 0x1
000016C0  A99B                     syscall    SetResLoad
000016C2  422E FEE9                clr.b      [A6 - 0x117]
000016C6  200B                     move.l     D0, A3
000016C8  674A                     beq        +0x4C /* 00001714 */
000016CA  2F0B                     move.l     -[A7], A3
000016CC  42A7                     clr.l      -[A7]
000016CE  2F2E FFF8                move.l     -[A7], [A6 - 0x8]
000016D2  4EAD 050A                jsr        [A5 + 0x50A /* export_157, CODE:3 @ 00002510 */]
000016D6  4EAD 0512                jsr        [A5 + 0x512 /* export_158, CODE:3 @ 0000251E */]
000016DA  42A7                     clr.l      -[A7]
000016DC  3EB8 0220                move.w     [A7], [0x00000220 /* MemErr */]
000016E0  4267                     clr.w      -[A7]
000016E2  4EAD 00F2                jsr        [A5 + 0xF2 /* export_26, CODE:1 @ 00002F14 */]
000016E6  101F                     move.b     D0, [A7]+
000016E8  6744                     beq        +0x46 /* 0000172E */
000016EA  206E FFF8                movea.l    A0, [A6 - 0x8]
000016EE  2F10                     move.l     -[A7], [A0]
000016F0  2F13                     move.l     -[A7], [A3]
000016F2  42A7                     clr.l      -[A7]
000016F4  2F2E FFF8                move.l     -[A7], [A6 - 0x8]
000016F8  4EAD 050A                jsr        [A5 + 0x50A /* export_157, CODE:3 @ 00002510 */]
000016FC  4EAD 0522                jsr        [A5 + 0x522 /* export_160, CODE:3 @ 00002532 */]
00001700  2F2E FFF8                move.l     -[A7], [A6 - 0x8]
00001704  205F                     movea.l    A0, [A7]+
00001706  A023                     syscall    DisposHandle/DisposeHandle
00001708  2D4B FFF8                move.l     [A6 - 0x8], A3
0000170C  1D7C 0001 FEE9           move.b     [A6 - 0x117], 0x1
00001712  601A                     bra        +0x1C /* 0000172E */
label00001714:
00001714  4267                     clr.w      -[A7]
00001716  3F05                     move.w     -[A7], D5
00001718  2F2E FFF8                move.l     -[A7], [A6 - 0x8]
0000171C  2F2E FEEA                move.l     -[A7], [A6 - 0x116]
00001720  3F04                     move.w     -[A7], D4
00001722  486E FEEE                pea.l      [A6 - 0x112]
00001726  4EAD 0892                jsr        [A5 + 0x892 /* export_270, CODE:4 @ 000000E0 */]
0000172A  1D5F FEE9                move.b     [A6 - 0x117], [A7]+
label0000172E:
0000172E  102E FEE9                move.b     D0, [A6 - 0x117]
00001732  675E                     beq        +0x60 /* 00001792 */
00001734  2F2E FFF8                move.l     -[A7], [A6 - 0x8]
00001738  3F04                     move.w     -[A7], D4
0000173A  486E FEEE                pea.l      [A6 - 0x112]
0000173E  A9A9                     syscall    SetResInfo
00001740  7000                     moveq.l    D0, 0x00
00001742  3006                     move.w     D0, D6
00001744  7201                     moveq.l    D1, 0x01
00001746  4681                     not.l      D1
00001748  C081                     and.l      D0, D1
0000174A  3C00                     move.w     D6, D0
0000174C  2F2E FFF8                move.l     -[A7], [A6 - 0x8]
00001750  7000                     moveq.l    D0, 0x00
00001752  3006                     move.w     D0, D6
00001754  80BC 0000 0002           or.l       D0, 0x2
0000175A  3F00                     move.w     -[A7], D0
0000175C  A9A7                     syscall    SetResAttrs
0000175E  BA6D F828                cmp.w      D5, [A5 - 0x7D8]
00001762  6616                     bne        +0x18 /* 0000177A */
00001764  2F2E FFF8                move.l     -[A7], [A6 - 0x8]
00001768  A9B0                     syscall    WriteResource
0000176A  2F2E FFF8                move.l     -[A7], [A6 - 0x8]
0000176E  205F                     movea.l    A0, [A7]+
00001770  A049                     syscall    HPurge
00001772  2F2E FFF8                move.l     -[A7], [A6 - 0x8]
00001776  205F                     movea.l    A0, [A7]+
00001778  A02A                     syscall    HUnlock
label0000177A:
0000177A  42A7                     clr.l      -[A7]
0000177C  A9AF                     syscall    ResError
0000177E  3F3C 0013                move.w     -[A7], 0x13
00001782  4EAD 00F2                jsr        [A5 + 0xF2 /* export_26, CODE:1 @ 00002F14 */]
00001786  101F                     move.b     D0, [A7]+
00001788  6716                     beq        +0x18 /* 000017A0 */
0000178A  2D6E FFF8 0010           move.l     [A6 + 0x10], [A6 - 0x8]
00001790  600E                     bra        +0x10 /* 000017A0 */
label00001792:
00001792  2F2E FFF8                move.l     -[A7], [A6 - 0x8]
00001796  205F                     movea.l    A0, [A7]+
00001798  A023                     syscall    DisposHandle/DisposeHandle
0000179A  6004                     bra        +0x6 /* 000017A0 */
label0000179C:
0000179C  2D54 0010                move.l     [A6 + 0x10], [A4]
label000017A0:
000017A0  4EAD 017A                jsr        [A5 + 0x17A /* export_43, CODE:1 @ 00003B24 */]
label000017A4:
000017A4  4CDF 18F0                movem.l    D4,D5,D6,D7,A3,A4, [A7]+
000017A8  4E5E                     unlink     A6
000017AA  205F                     movea.l    A0, [A7]+
000017AC  504F                     addq.w     A7, 8
000017AE  4ED0                     jmp        [A0]
export_308:
fn000017B0:
000017B0  4E56 FFE4                link       A6, -0x001C
000017B4  48E7 0F18                movem.l    -[A7], D4,D5,D6,D7,A3,A4
000017B8  42A7                     clr.l      -[A7]
000017BA  A9F9                     syscall    InfoScrap
000017BC  265F                     movea.l    A3, [A7]+
000017BE  7000                     moveq.l    D0, 0x00
000017C0  2D40 FFEA                move.l     [A6 - 0x16], D0
000017C4  42A7                     clr.l      -[A7]
000017C6  42A7                     clr.l      -[A7]
000017C8  4EAD 04FA                jsr        [A5 + 0x4FA /* export_155, CODE:3 @ 000024FC */]
000017CC  285F                     movea.l    A4, [A7]+
000017CE  42A7                     clr.l      -[A7]
000017D0  3EB8 0220                move.w     [A7], [0x00000220 /* MemErr */]
000017D4  4267                     clr.w      -[A7]
000017D6  4EAD 00F2                jsr        [A5 + 0xF2 /* export_26, CODE:1 @ 00002F14 */]
000017DA  101F                     move.b     D0, [A7]+
000017DC  6700 00A0                beq        +0xA2 /* 0000187E */
000017E0  3D7C 0001 FFE6           move.w     [A6 - 0x1A], 0x1
000017E6  3D6E 000C FFE4           move.w     [A6 - 0x1C], [A6 + 0xC]
000017EC  3A2E FFE6                move.w     D5, [A6 - 0x1A]
000017F0  6000 0082                bra        +0x84 /* 00001874 */
label000017F4:
000017F4  4267                     clr.w      -[A7]
000017F6  42A7                     clr.l      -[A7]
000017F8  A9FB                     syscall    LoadScrap/LodeScrap
000017FA  201F                     move.l     D0, [A7]+
000017FC  3F00                     move.w     -[A7], D0
000017FE  4267                     clr.w      -[A7]
00001800  4EAD 00F2                jsr        [A5 + 0xF2 /* export_26, CODE:1 @ 00002F14 */]
00001804  1E1F                     move.b     D7, [A7]+
00001806  0A07 0001                xori.b     D7, 0x1
0000180A  1007                     move.b     D0, D7
0000180C  6652                     bne        +0x54 /* 00001860 */
0000180E  282B 0004                move.l     D4, [A3 + 0x4]
00001812  56C0                     sne        D0
00001814  4A00                     tst.b      D0
00001816  6746                     beq        +0x48 /* 0000185E */
00001818  222E FFEA                move.l     D1, [A6 - 0x16]
0000181C  B293                     cmp.l      D1, [A3]
0000181E  5DC1                     slt        D1
00001820  C001                     and.b      D0, D1
00001822  673A                     beq        +0x3C /* 0000185E */
00001824  206E 0008                movea.l    A0, [A6 + 0x8]
00001828  2244                     movea.l    A1, D4
0000182A  202E FFEA                move.l     D0, [A6 - 0x16]
0000182E  D091                     add.l      D0, [A1]
00001830  2240                     movea.l    A1, D0
00001832  2091                     move.l     [A0], [A1]
00001834  42A7                     clr.l      -[A7]
00001836  2F0C                     move.l     -[A7], A4
00001838  206E 0008                movea.l    A0, [A6 + 0x8]
0000183C  2F10                     move.l     -[A7], [A0]
0000183E  486E FFEA                pea.l      [A6 - 0x16]
00001842  A9FD                     syscall    GetScrap
00001844  2C1F                     move.l     D6, [A7]+
00001846  1006                     move.b     D0, D6
00001848  0240 0001                andi.w     D0, 0x1
0000184C  6702                     beq        +0x4 /* 00001850 */
0000184E  5286                     addq.l     D6, 1
label00001850:
00001850  2006                     move.l     D0, D6
00001852  D1AE FFEA                add.l      [A6 - 0x16], D0
00001856  4A86                     tst.l      D6
00001858  6C06                     bge        +0x8 /* 00001860 */
0000185A  7E01                     moveq.l    D7, 0x01
0000185C  6002                     bra        +0x4 /* 00001860 */
label0000185E:
0000185E  7E01                     moveq.l    D7, 0x01
label00001860:
00001860  1007                     move.b     D0, D7
00001862  670C                     beq        +0xE /* 00001870 */
00001864  2F0C                     move.l     -[A7], A4
00001866  205F                     movea.l    A0, [A7]+
00001868  A023                     syscall    DisposHandle/DisposeHandle
0000186A  7000                     moveq.l    D0, 0x00
0000186C  2840                     movea.l    A4, D0
0000186E  6012                     bra        +0x14 /* 00001882 */
label00001870:
00001870  5245                     addq.w     D5, 1
00001872  690E                     bvs        +0x10 /* 00001882 */
label00001874:
00001874  BA6E FFE4                cmp.w      D5, [A6 - 0x1C]
00001878  6F00 FF7A                ble        -0x84 /* 000017F4 */
0000187C  6004                     bra        +0x6 /* 00001882 */
label0000187E:
0000187E  7000                     moveq.l    D0, 0x00
00001880  2840                     movea.l    A4, D0
label00001882:
00001882  2D4C 000E                move.l     [A6 + 0xE], A4
00001886  4CDF 18F0                movem.l    D4,D5,D6,D7,A3,A4, [A7]+
0000188A  4E5E                     unlink     A6
0000188C  205F                     movea.l    A0, [A7]+
0000188E  5C4F                     addq.w     A7, 6
00001890  4ED0                     jmp        [A0]
fn00001892:
00001892  4E56 FFFE                link       A6, -0x0002
00001896  48E7 0108                movem.l    -[A7], D7,A4
0000189A  286E 0008                movea.l    A4, [A6 + 0x8]
0000189E  4A6C FFEA                tst.w      [A4 - 0x16]
000018A2  6706                     beq        +0x8 /* 000018AA */
000018A4  4207                     clr.b      D7
000018A6  6000 00EC                bra        +0xEE /* 00001994 */
label000018AA:
000018AA  4267                     clr.w      -[A7]
000018AC  3F2C FFEC                move.w     -[A7], [A4 - 0x14]
000018B0  2F2C FFDC                move.l     -[A7], [A4 - 0x24]
000018B4  487A 00EC                pea.l      [PC + 0xEC /* 000019A2, value 0xD526573 '\rRes', pstring "ResEdit.Scrap" */]
000018B8  4EAD 0692                jsr        [A5 + 0x692 /* export_206, CODE:3 @ 00002D02 */]
000018BC  395F FFEA                move.w     [A4 - 0x16], [A7]+
000018C0  70D5                     moveq.l    D0, 0xFFFFFFD5
000018C2  B06C FFEA                cmp.w      D0, [A4 - 0x16]
000018C6  57C0                     seq        D0
000018C8  4A00                     tst.b      D0
000018CA  661E                     bne        +0x20 /* 000018EA */
000018CC  2F00                     move.l     -[A7], D0
000018CE  4267                     clr.w      -[A7]
000018D0  3F2C FFEA                move.w     -[A7], [A4 - 0x16]
000018D4  3F3C 0034                move.w     -[A7], 0x34 /* '4' */
000018D8  4EAD 0102                jsr        [A5 + 0x102 /* export_28, CODE:1 @ 000031A4 */]
000018DC  121F                     move.b     D1, [A7]+
000018DE  201F                     move.l     D0, [A7]+
000018E0  8001                     or.b       D0, D1
000018E2  0240 0001                andi.w     D0, 0x1
000018E6  6700 00AC                beq        +0xAE /* 00001994 */
label000018EA:
000018EA  3F2C FFEC                move.w     -[A7], [A4 - 0x14]
000018EE  2F2C FFDC                move.l     -[A7], [A4 - 0x24]
000018F2  487A 00AE                pea.l      [PC + 0xAE /* 000019A2, value 0xD526573 '\rRes', pstring "ResEdit.Scrap" */]
000018F6  4EAD 06CA                jsr        [A5 + 0x6CA /* export_213, CODE:3 @ 0000303C */]
000018FA  4267                     clr.w      -[A7]
000018FC  A9AF                     syscall    ResError
000018FE  70D4                     moveq.l    D0, 0xFFFFFFD4
00001900  B05F                     cmp.w      D0, [A7]+
00001902  6610                     bne        +0x12 /* 00001914 */
00001904  42A7                     clr.l      -[A7]
00001906  A9AF                     syscall    ResError
00001908  3F3C 0035                move.w     -[A7], 0x35 /* '5' */
0000190C  4EAD 0102                jsr        [A5 + 0x102 /* export_28, CODE:1 @ 000031A4 */]
00001910  1E1F                     move.b     D7, [A7]+
00001912  600E                     bra        +0x10 /* 00001922 */
label00001914:
00001914  42A7                     clr.l      -[A7]
00001916  A9AF                     syscall    ResError
00001918  3F3C 0034                move.w     -[A7], 0x34 /* '4' */
0000191C  4EAD 0102                jsr        [A5 + 0x102 /* export_28, CODE:1 @ 000031A4 */]
00001920  1E1F                     move.b     D7, [A7]+
label00001922:
00001922  1007                     move.b     D0, D7
00001924  6726                     beq        +0x28 /* 0000194C */
00001926  4267                     clr.w      -[A7]
00001928  487A 0078                pea.l      [PC + 0x78 /* 000019A2, value 0xD526573 '\rRes', pstring "ResEdit.Scrap" */]
0000192C  A997                     syscall    OpenResFile
0000192E  3B5F F828                move.w     [A5 - 0x7D8], [A7]+
00001932  4267                     clr.w      -[A7]
00001934  A9AF                     syscall    ResError
00001936  395F FFEA                move.w     [A4 - 0x16], [A7]+
0000193A  4EAD 0222                jsr        [A5 + 0x222 /* export_64, CODE:1 @ 0000588C */]
0000193E  42A7                     clr.l      -[A7]
00001940  A9AF                     syscall    ResError
00001942  3F3C 0034                move.w     -[A7], 0x34 /* '4' */
00001946  4EAD 0102                jsr        [A5 + 0x102 /* export_28, CODE:1 @ 000031A4 */]
0000194A  1E1F                     move.b     D7, [A7]+
label0000194C:
0000194C  1007                     move.b     D0, D7
0000194E  6744                     beq        +0x46 /* 00001994 */
00001950  4267                     clr.w      -[A7]
00001952  3F2C FFEC                move.w     -[A7], [A4 - 0x14]
00001956  2F2C FFDC                move.l     -[A7], [A4 - 0x24]
0000195A  487A 0046                pea.l      [PC + 0x46 /* 000019A2, value 0xD526573 '\rRes', pstring "ResEdit.Scrap" */]
0000195E  486C FFEE                pea.l      [A4 - 0x12]
00001962  4EAD 069A                jsr        [A5 + 0x69A /* export_207, CODE:3 @ 00002D42 */]
00001966  4A5F                     tst.w      [A7]+
00001968  662A                     bne        +0x2C /* 00001994 */
0000196A  7000                     moveq.l    D0, 0x00
0000196C  302C FFF6                move.w     D0, [A4 - 0xA]
00001970  80BC 0000 4000           or.l       D0, 0x4000 /* '@\0' */
00001976  3940 FFF6                move.w     [A4 - 0xA], D0
0000197A  4267                     clr.w      -[A7]
0000197C  3F2C FFEC                move.w     -[A7], [A4 - 0x14]
00001980  2F2C FFDC                move.l     -[A7], [A4 - 0x24]
00001984  487A 001C                pea.l      [PC + 0x1C /* 000019A2, value 0xD526573 '\rRes', pstring "ResEdit.Scrap" */]
00001988  486C FFEE                pea.l      [A4 - 0x12]
0000198C  4EAD 06A2                jsr        [A5 + 0x6A2 /* export_208, CODE:3 @ 00002DA0 */]
00001990  395F FFEA                move.w     [A4 - 0x16], [A7]+
label00001994:
00001994  1D47 000C                move.b     [A6 + 0xC], D7
00001998  4CDF 1080                movem.l    D7,A4, [A7]+
0000199C  4E5E                     unlink     A6
0000199E  2E9F                     move.l     [A7], [A7]+
000019A0  4E75                     rts
000019A2  0D52                     bchg       [A2], D6
000019A4  6573                     bcs        +0x75 /* 00001A19 */
000019A6  4564                     chk.w      D2, -[A4]
000019A8  6974                     bvs        +0x76 /* 00001A1E */
000019AA  2E53                     movea.l    A7, [A3]
000019AC  6372                     bls        +0x74 /* 00001A20 */
000019AE  6170                     bsr        +0x72 /* 00001A20 */
export_309:
fn000019B0:
000019B0  4E56 FFCC                link       A6, -0x0034
000019B4  2F07                     move.l     -[A7], D7
000019B6  1D7C 0001 0008           move.b     [A6 + 0x8], 0x1
000019BC  70FF                     moveq.l    D0, 0xFFFFFFFF
000019BE  B06D F828                cmp.w      D0, [A5 - 0x7D8]
000019C2  6600 00D8                bne        +0xDA /* 00001A9C */
000019C6  4267                     clr.w      -[A7]
000019C8  42A7                     clr.l      -[A7]
000019CA  486E FFE8                pea.l      [A6 - 0x18]
000019CE  4EAD 05A2                jsr        [A5 + 0x5A2 /* export_176, CODE:3 @ 000026E4 */]
000019D2  3D5F FFEA                move.w     [A6 - 0x16], [A7]+
000019D6  2F3C 0001 0000           move.l     -[A7], 0x10000
000019DC  486E FFCC                pea.l      [A6 - 0x34]
000019E0  4EAD 072A                jsr        [A5 + 0x72A /* export_225, CODE:3 @ 000032E2 */]
000019E4  3D5F FFEA                move.w     [A6 - 0x16], [A7]+
000019E8  4267                     clr.w      -[A7]
000019EA  2F3C 666F 6C64           move.l     -[A7], 0x666F6C64 /* 'fold' */
000019F0  486E FFE4                pea.l      [A6 - 0x1C]
000019F4  4EAD 0732                jsr        [A5 + 0x732 /* export_226, CODE:3 @ 0000344C */]
000019F8  4A5F                     tst.w      [A7]+
000019FA  57C0                     seq        D0
000019FC  4A00                     tst.b      D0
000019FE  672E                     beq        +0x30 /* 00001A2E */
00001A00  082E 0000 FFE7           btst.b     [A6 - 0x19], 0x0
00001A06  56C1                     sne        D1
00001A08  C001                     and.b      D0, D1
00001A0A  6722                     beq        +0x24 /* 00001A2E */
00001A0C  2F3C 8000 0000           move.l     -[A7], 0x80000000
00001A12  2F3C 7465 6D70           move.l     -[A7], 0x74656D70 /* 'temp' */
00001A18  1F3C 0001                move.b     -[A7], 0x1
00001A1C  486E FFEC                pea.l      [A6 - 0x14]
// begin alternate branch 00001A1E-00001A20
label00001A1E:
00001A1E  FFEC                     .invalid   <<F/7/7>>
// end alternate branch 00001A1E-00001A20
label00001A1E: // (misaligned)
fn00001A20:
00001A20  486E FFDC                pea.l      [A6 - 0x24]
00001A24  7000                     moveq.l    D0, 0x00
00001A26  A823                     syscall    AliasDispatch
00001A28  3D5F FFEA                move.w     [A6 - 0x16], [A7]+
00001A2C  602C                     bra        +0x2E /* 00001A5A */
label00001A2E:
00001A2E  7000                     moveq.l    D0, 0x00
00001A30  2D40 FFE0                move.l     [A6 - 0x20], D0
00001A34  42A7                     clr.l      -[A7]
00001A36  3F2E FFDA                move.w     -[A7], [A6 - 0x26]
00001A3A  486E FFEC                pea.l      [A6 - 0x14]
00001A3E  486E FFDC                pea.l      [A6 - 0x24]
00001A42  486E FFE0                pea.l      [A6 - 0x20]
00001A46  4EAD 06BA                jsr        [A5 + 0x6BA /* export_211, CODE:3 @ 00002E9A */]
00001A4A  4267                     clr.w      -[A7]
00001A4C  4EAD 00F2                jsr        [A5 + 0xF2 /* export_26, CODE:1 @ 00002F14 */]
00001A50  101F                     move.b     D0, [A7]+
00001A52  6606                     bne        +0x8 /* 00001A5A */
00001A54  3D7C FFFF FFEA           move.w     [A6 - 0x16], 0xFFFF
label00001A5A:
00001A5A  4A6E FFEA                tst.w      [A6 - 0x16]
00001A5E  6614                     bne        +0x16 /* 00001A74 */
00001A60  4267                     clr.w      -[A7]
00001A62  42A7                     clr.l      -[A7]
00001A64  3F2E FFEC                move.w     -[A7], [A6 - 0x14]
00001A68  2F2E FFDC                move.l     -[A7], [A6 - 0x24]
00001A6C  4EAD 067A                jsr        [A5 + 0x67A /* export_203, CODE:3 @ 00002B8A */]
00001A70  3D5F FFEA                move.w     [A6 - 0x16], [A7]+
label00001A74:
00001A74  4267                     clr.w      -[A7]
00001A76  2F0E                     move.l     -[A7], A6
00001A78  4EBA FE18                jsr        [PC - 0x1E8 /* 00001892 */]
00001A7C  1E1F                     move.b     D7, [A7]+
00001A7E  1007                     move.b     D0, D7
00001A80  6606                     bne        +0x8 /* 00001A88 */
00001A82  3B7C FFFF F828           move.w     [A5 - 0x7D8], 0xFFFF
label00001A88:
00001A88  1D47 0008                move.b     [A6 + 0x8], D7
00001A8C  4267                     clr.w      -[A7]
00001A8E  42A7                     clr.l      -[A7]
00001A90  3F2E FFE8                move.w     -[A7], [A6 - 0x18]
00001A94  4EAD 05AA                jsr        [A5 + 0x5AA /* export_177, CODE:3 @ 00002706 */]
00001A98  3D5F FFEA                move.w     [A6 - 0x16], [A7]+
label00001A9C:
00001A9C  2E1F                     move.l     D7, [A7]+
00001A9E  4E5E                     unlink     A6
00001AA0  4E75                     rts
export_310:
fn00001AA2:
00001AA2  4E56 FFFE                link       A6, -0x0002
00001AA6  70FF                     moveq.l    D0, 0xFFFFFFFF
00001AA8  B06D F828                cmp.w      D0, [A5 - 0x7D8]
00001AAC  670C                     beq        +0xE /* 00001ABA */
00001AAE  3F2D F828                move.w     -[A7], [A5 - 0x7D8]
00001AB2  A99A                     syscall    CloseResFile
00001AB4  3B7C FFFF F828           move.w     [A5 - 0x7D8], 0xFFFF
label00001ABA:
00001ABA  4267                     clr.w      -[A7]
00001ABC  4EBA FEF2                jsr        [PC - 0x10E /* 000019B0 */]
00001AC0  101F                     move.b     D0, [A7]+
00001AC2  4E5E                     unlink     A6
00001AC4  4E75                     rts
export_311:
fn00001AC6:
00001AC6  4E56 FFFE                link       A6, -0x0002
00001ACA  42A7                     clr.l      -[A7]
00001ACC  A9FC                     syscall    ZeroScrap
00001ACE  201F                     move.l     D0, [A7]+
00001AD0  3D40 FFFE                move.w     [A6 - 0x2], D0
00001AD4  102D F944                move.b     D0, [A5 - 0x6BC]
00001AD8  661C                     bne        +0x1E /* 00001AF6 */
00001ADA  70FF                     moveq.l    D0, 0xFFFFFFFF
00001ADC  B06D F828                cmp.w      D0, [A5 - 0x7D8]
00001AE0  670C                     beq        +0xE /* 00001AEE */
00001AE2  3F2D F828                move.w     -[A7], [A5 - 0x7D8]
00001AE6  A99A                     syscall    CloseResFile
00001AE8  3B7C FFFF F828           move.w     [A5 - 0x7D8], 0xFFFF
label00001AEE:
00001AEE  4267                     clr.w      -[A7]
00001AF0  4EBA FEBE                jsr        [PC - 0x142 /* 000019B0 */]
00001AF4  101F                     move.b     D0, [A7]+
label00001AF6:
00001AF6  4E5E                     unlink     A6
00001AF8  4E75                     rts
fn00001AFA:
00001AFA  4E56 FFE8                link       A6, -0x0018
00001AFE  48E7 0308                movem.l    -[A7], D6,D7,A4
00001B02  203C 4943 4F4E           move.l     D0, 0x49434F4E /* 'ICON' */
00001B08  B0AE 0008                cmp.l      D0, [A6 + 0x8]
00001B0C  6654                     bne        +0x56 /* 00001B62 */
00001B0E  42A7                     clr.l      -[A7]
00001B10  42A7                     clr.l      -[A7]
00001B12  2F3C 5049 4354           move.l     -[A7], 0x50494354 /* 'PICT' */
00001B18  486E FFE8                pea.l      [A6 - 0x18]
00001B1C  A9FD                     syscall    GetScrap
00001B1E  709A                     moveq.l    D0, 0xFFFFFF9A
00001B20  B09F                     cmp.l      D0, [A7]+
00001B22  663E                     bne        +0x40 /* 00001B62 */
00001B24  486E FFF4                pea.l      [A6 - 0xC]
00001B28  42A7                     clr.l      -[A7]
00001B2A  2F3C 0020 0020           move.l     -[A7], 0x200020 /* ' \0 ' */
00001B30  A8A7                     syscall    SetRect
00001B32  42A7                     clr.l      -[A7]
00001B34  486E FFF4                pea.l      [A6 - 0xC]
00001B38  A8F3                     syscall    OpenPicture
00001B3A  285F                     movea.l    A4, [A7]+
00001B3C  486E FFF4                pea.l      [A6 - 0xC]
00001B40  2F2E 000C                move.l     -[A7], [A6 + 0xC]
00001B44  A94B                     syscall    PlotIcon
00001B46  A8F4                     syscall    ClosePicture
00001B48  42A7                     clr.l      -[A7]
00001B4A  2F0C                     move.l     -[A7], A4
00001B4C  4EAD 050A                jsr        [A5 + 0x50A /* export_157, CODE:3 @ 00002510 */]
00001B50  2E1F                     move.l     D7, [A7]+
00001B52  42A7                     clr.l      -[A7]
00001B54  2F07                     move.l     -[A7], D7
00001B56  2F3C 5049 4354           move.l     -[A7], 0x50494354 /* 'PICT' */
00001B5C  2F14                     move.l     -[A7], [A4]
00001B5E  A9FE                     syscall    PutScrap
00001B60  2C1F                     move.l     D6, [A7]+
label00001B62:
00001B62  4CDF 10C0                movem.l    D6,D7,A4, [A7]+
00001B66  4E5E                     unlink     A6
00001B68  205F                     movea.l    A0, [A7]+
00001B6A  504F                     addq.w     A7, 8
00001B6C  4ED0                     jmp        [A0]
export_312:
fn00001B6E:
00001B6E  4E56 FEF0                link       A6, -0x0110
00001B72  48E7 0318                movem.l    -[A7], D6,D7,A3,A4
00001B76  70FF                     moveq.l    D0, 0xFFFFFFFF
00001B78  B06D F828                cmp.w      D0, [A5 - 0x7D8]
00001B7C  6700 00F6                beq        +0xF8 /* 00001C74 */
00001B80  4267                     clr.w      -[A7]
00001B82  206E 0008                movea.l    A0, [A6 + 0x8]
00001B86  2F10                     move.l     -[A7], [A0]
00001B88  A9A4                     syscall    HomeResFile
00001B8A  3E1F                     move.w     D7, [A7]+
00001B8C  70FF                     moveq.l    D0, 0xFFFFFFFF
00001B8E  B047                     cmp.w      D0, D7
00001B90  57C0                     seq        D0
00001B92  4A00                     tst.b      D0
00001B94  6614                     bne        +0x16 /* 00001BAA */
00001B96  2F00                     move.l     -[A7], D0
00001B98  4267                     clr.w      -[A7]
00001B9A  A9AF                     syscall    ResError
00001B9C  321F                     move.w     D1, [A7]+
00001B9E  201F                     move.l     D0, [A7]+
00001BA0  0C41 FF40                cmpi.w     D1, 0xFF40
00001BA4  57C1                     seq        D1
00001BA6  8001                     or.b       D0, D1
00001BA8  673C                     beq        +0x3E /* 00001BE6 */
label00001BAA:
00001BAA  4267                     clr.w      -[A7]
00001BAC  3F2D F828                move.w     -[A7], [A5 - 0x7D8]
00001BB0  206E 0008                movea.l    A0, [A6 + 0x8]
00001BB4  2F10                     move.l     -[A7], [A0]
00001BB6  2F2E 000C                move.l     -[A7], [A6 + 0xC]
00001BBA  4267                     clr.w      -[A7]
00001BBC  3F2D F828                move.w     -[A7], [A5 - 0x7D8]
00001BC0  2F2E 000C                move.l     -[A7], [A6 + 0xC]
00001BC4  4EAD 08A2                jsr        [A5 + 0x8A2 /* export_272, CODE:4 @ 000001AA */]
00001BC8  487A 00B6                pea.l      [PC + 0xB6 /* 00001C80, value 0x4E56 'NV', cstring "" */]
00001BCC  4EAD 0892                jsr        [A5 + 0x892 /* export_270, CODE:4 @ 000000E0 */]
00001BD0  101F                     move.b     D0, [A7]+
00001BD2  6724                     beq        +0x26 /* 00001BF8 */
00001BD4  206E 0008                movea.l    A0, [A6 + 0x8]
00001BD8  2850                     movea.l    A4, [A0]
00001BDA  2F0C                     move.l     -[A7], A4
00001BDC  A9B0                     syscall    WriteResource
00001BDE  2F0C                     move.l     -[A7], A4
00001BE0  205F                     movea.l    A0, [A7]+
00001BE2  A049                     syscall    HPurge
00001BE4  6012                     bra        +0x14 /* 00001BF8 */
label00001BE6:
00001BE6  42A7                     clr.l      -[A7]
00001BE8  2F2E 0008                move.l     -[A7], [A6 + 0x8]
00001BEC  4267                     clr.w      -[A7]
00001BEE  3F2D F828                move.w     -[A7], [A5 - 0x7D8]
00001BF2  4EBA F950                jsr        [PC - 0x6B0 /* 00001544 */]
00001BF6  285F                     movea.l    A4, [A7]+
label00001BF8:
00001BF8  200C                     move.l     D0, A4
00001BFA  6778                     beq        +0x7A /* 00001C74 */
00001BFC  2F0C                     move.l     -[A7], A4
00001BFE  486E FEF8                pea.l      [A6 - 0x108]
00001C02  486E 000C                pea.l      [A6 + 0xC]
00001C06  486E FEFE                pea.l      [A6 - 0x102]
00001C0A  A9A8                     syscall    GetResInfo
00001C0C  4267                     clr.w      -[A7]
00001C0E  3F2D F828                move.w     -[A7], [A5 - 0x7D8]
00001C12  4EAD 08AA                jsr        [A5 + 0x8AA /* export_273, CODE:4 @ 00000222 */]
00001C16  7001                     moveq.l    D0, 0x01
00001C18  B05F                     cmp.w      D0, [A7]+
00001C1A  57C0                     seq        D0
00001C1C  4A00                     tst.b      D0
00001C1E  6748                     beq        +0x4A /* 00001C68 */
00001C20  2F00                     move.l     -[A7], D0
00001C22  4267                     clr.w      -[A7]
00001C24  3F2D F828                move.w     -[A7], [A5 - 0x7D8]
00001C28  2F2E 000C                move.l     -[A7], [A6 + 0xC]
00001C2C  4EAD 08BA                jsr        [A5 + 0x8BA /* export_275, CODE:4 @ 000002A8 */]
00001C30  321F                     move.w     D1, [A7]+
00001C32  201F                     move.l     D0, [A7]+
00001C34  7401                     moveq.l    D2, 0x01
00001C36  B441                     cmp.w      D2, D1
00001C38  57C1                     seq        D1
00001C3A  C001                     and.b      D0, D1
00001C3C  672A                     beq        +0x2C /* 00001C68 */
00001C3E  2F0C                     move.l     -[A7], A4
00001C40  205F                     movea.l    A0, [A7]+
00001C42  A029                     syscall    HLock
00001C44  42A7                     clr.l      -[A7]
00001C46  42A7                     clr.l      -[A7]
00001C48  2F0C                     move.l     -[A7], A4
00001C4A  A9A5                     syscall    GetResourceSizeOnDisk/SizeResource/SizeRsrc
00001C4C  2F2E 000C                move.l     -[A7], [A6 + 0xC]
00001C50  2F14                     move.l     -[A7], [A4]
00001C52  A9FE                     syscall    PutScrap
00001C54  201F                     move.l     D0, [A7]+
00001C56  3C00                     move.w     D6, D0
00001C58  2F0C                     move.l     -[A7], A4
00001C5A  2F2E 000C                move.l     -[A7], [A6 + 0xC]
00001C5E  4EBA FE9A                jsr        [PC - 0x166 /* 00001AFA */]
00001C62  2F0C                     move.l     -[A7], A4
00001C64  205F                     movea.l    A0, [A7]+
00001C66  A02A                     syscall    HUnlock
label00001C68:
00001C68  42A7                     clr.l      -[A7]
00001C6A  A9F9                     syscall    InfoScrap
00001C6C  265F                     movea.l    A3, [A7]+
00001C6E  3B6B 0008 F826           move.w     [A5 - 0x7DA], [A3 + 0x8]
label00001C74:
00001C74  4CDF 18C0                movem.l    D6,D7,A3,A4, [A7]+
00001C78  4E5E                     unlink     A6
00001C7A  205F                     movea.l    A0, [A7]+
00001C7C  504F                     addq.w     A7, 8
00001C7E  4ED0                     jmp        [A0]
00001C80  0000 4E56                ori.b      D0, 0x56 /* 'V' */
// begin alternate branch 00001C82-00001C92
fn00001C82:
00001C82  4E56 0000                link       A6, 0
00001C86  203C 464F 4E54           move.l     D0, 0x464F4E54 /* 'FONT' */
00001C8C  B0AE 000A                cmp.l      D0, [A6 + 0xA]
00001C90  57C0                     seq        D0
// end alternate branch 00001C82-00001C92
fn00001C82: // (misaligned)
00001C84  0000 203C                ori.b      D0, 0x3C /* '<' */
00001C88  464F                     not.w      A7
00001C8A  4E54 B0AE                link       A4, -0x4F52
00001C8E  000A 57C0                ori.b      A2, 0xC0
00001C92  4A00                     tst.b      D0
00001C94  671A                     beq        +0x1C /* 00001CB0 */
00001C96  322E 0008                move.w     D1, [A6 + 0x8]
00001C9A  48C1                     ext.l      D1
00001C9C  83FC 0080                divs.w     D1, 0x80
00001CA0  4841                     swap.w     D1
00001CA2  4A41                     tst.w      D1
00001CA4  57C1                     seq        D1
00001CA6  C001                     and.b      D0, D1
00001CA8  6706                     beq        +0x8 /* 00001CB0 */
00001CAA  422E 000E                clr.b      [A6 + 0xE]
00001CAE  6006                     bra        +0x8 /* 00001CB6 */
label00001CB0:
00001CB0  1D7C 0001 000E           move.b     [A6 + 0xE], 0x1
label00001CB6:
00001CB6  4E5E                     unlink     A6
00001CB8  205F                     movea.l    A0, [A7]+
00001CBA  5C4F                     addq.w     A7, 6
00001CBC  4ED0                     jmp        [A0]
export_313:
fn00001CBE:
00001CBE  4E56 FDB0                link       A6, -0x0250
00001CC2  48E7 0F18                movem.l    -[A7], D4,D5,D6,D7,A3,A4
00001CC6  7000                     moveq.l    D0, 0x00
00001CC8  2840                     movea.l    A4, D0
00001CCA  7000                     moveq.l    D0, 0x00
00001CCC  2D40 FDC6                move.l     [A6 - 0x23A], D0
00001CD0  7000                     moveq.l    D0, 0x00
00001CD2  2D40 FDCA                move.l     [A6 - 0x236], D0
00001CD6  3F3C 0004                move.w     -[A7], 0x4
00001CDA  4EAD 0182                jsr        [A5 + 0x182 /* export_44, CODE:1 @ 00003B34 */]
00001CDE  4267                     clr.w      -[A7]
00001CE0  4EBA FCCE                jsr        [PC - 0x332 /* 000019B0 */]
00001CE4  101F                     move.b     D0, [A7]+
00001CE6  6700 060A                beq        +0x60C /* 000022F2 */
00001CEA  42A7                     clr.l      -[A7]
00001CEC  A9F9                     syscall    InfoScrap
00001CEE  2D5F FDD6                move.l     [A6 - 0x22A], [A7]+
00001CF2  42A7                     clr.l      -[A7]
00001CF4  3F2E 0008                move.w     -[A7], [A6 + 0x8]
00001CF8  4EAD 01BA                jsr        [A5 + 0x1BA /* export_51, CODE:1 @ 00004582 */]
00001CFC  2D5F FDCE                move.l     [A6 - 0x232], [A7]+
00001D00  206E FDD6                movea.l    A0, [A6 - 0x22A]
00001D04  3028 0008                move.w     D0, [A0 + 0x8]
00001D08  B06D F826                cmp.w      D0, [A5 - 0x7DA]
00001D0C  6600 0342                bne        +0x344 /* 00002050 */
00001D10  4267                     clr.w      -[A7]
00001D12  3F2D F828                move.w     -[A7], [A5 - 0x7D8]
00001D16  4EAD 08AA                jsr        [A5 + 0x8AA /* export_273, CODE:4 @ 00000222 */]
00001D1A  381F                     move.w     D4, [A7]+
00001D1C  3D7C 0001 FFE0           move.w     [A6 - 0x20], 0x1
00001D22  422E FFDB                clr.b      [A6 - 0x25]
00001D26  4267                     clr.w      -[A7]
00001D28  A99B                     syscall    SetResLoad
00001D2A  3D7C 0001 FDC4           move.w     [A6 - 0x23C], 0x1
00001D30  3D44 FDC2                move.w     [A6 - 0x23E], D4
00001D34  3E2E FDC4                move.w     D7, [A6 - 0x23C]
00001D38  6000 0114                bra        +0x116 /* 00001E4E */
label00001D3C:
00001D3C  3F2D F828                move.w     -[A7], [A5 - 0x7D8]
00001D40  486E FFF0                pea.l      [A6 - 0x10]
00001D44  3F07                     move.w     -[A7], D7
00001D46  4EAD 08B2                jsr        [A5 + 0x8B2 /* export_274, CODE:4 @ 0000026E */]
00001D4A  102E 000E                move.b     D0, [A6 + 0xE]
00001D4E  6614                     bne        +0x16 /* 00001D64 */
00001D50  222E 000A                move.l     D1, [A6 + 0xA]
00001D54  B2AE FFF0                cmp.l      D1, [A6 - 0x10]
00001D58  57C1                     seq        D1
00001D5A  8001                     or.b       D0, D1
00001D5C  0240 0001                andi.w     D0, 0x1
00001D60  6700 00E8                beq        +0xEA /* 00001E4A */
label00001D64:
00001D64  4267                     clr.w      -[A7]
00001D66  3F2D F828                move.w     -[A7], [A5 - 0x7D8]
00001D6A  2F2E FFF0                move.l     -[A7], [A6 - 0x10]
00001D6E  4EAD 08BA                jsr        [A5 + 0x8BA /* export_275, CODE:4 @ 000002A8 */]
00001D72  3D5F FFFA                move.w     [A6 - 0x6], [A7]+
00001D76  670C                     beq        +0xE /* 00001D84 */
00001D78  2F2E FFF0                move.l     -[A7], [A6 - 0x10]
00001D7C  2F2E FDCE                move.l     -[A7], [A6 - 0x232]
00001D80  4EAD 01CA                jsr        [A5 + 0x1CA /* export_53, CODE:1 @ 0000465C */]
label00001D84:
00001D84  3D7C 0001 FDC0           move.w     [A6 - 0x240], 0x1
00001D8A  3D6E FFFA FDBE           move.w     [A6 - 0x242], [A6 - 0x6]
00001D90  3A2E FDC0                move.w     D5, [A6 - 0x240]
00001D94  6000 00A4                bra        +0xA6 /* 00001E3A */
label00001D98:
00001D98  42A7                     clr.l      -[A7]
00001D9A  3F2D F828                move.w     -[A7], [A5 - 0x7D8]
00001D9E  2F2E FFF0                move.l     -[A7], [A6 - 0x10]
00001DA2  3F05                     move.w     -[A7], D5
00001DA4  4EAD 08C2                jsr        [A5 + 0x8C2 /* export_276, CODE:4 @ 000002E4 */]
00001DA8  2D57 FFEC                move.l     [A6 - 0x14], [A7]
00001DAC  486E FFE2                pea.l      [A6 - 0x1E]
00001DB0  486E FFF0                pea.l      [A6 - 0x10]
00001DB4  486E FDDA                pea.l      [A6 - 0x226]
00001DB8  A9A8                     syscall    GetResInfo
00001DBA  42A7                     clr.l      -[A7]
00001DBC  3F2E 0008                move.w     -[A7], [A6 + 0x8]
00001DC0  2F2E FFF0                move.l     -[A7], [A6 - 0x10]
00001DC4  3F2E FFE2                move.w     -[A7], [A6 - 0x1E]
00001DC8  4EAD 08CA                jsr        [A5 + 0x8CA /* export_277, CODE:4 @ 00000338 */]
00001DCC  265F                     movea.l    A3, [A7]+
00001DCE  200B                     move.l     D0, A3
00001DD0  56C0                     sne        D0
00001DD2  4A00                     tst.b      D0
00001DD4  6760                     beq        +0x62 /* 00001E36 */
00001DD6  2F00                     move.l     -[A7], D0
00001DD8  4267                     clr.w      -[A7]
00001DDA  2F2E FFF0                move.l     -[A7], [A6 - 0x10]
00001DDE  3F2E FFE2                move.w     -[A7], [A6 - 0x1E]
00001DE2  4EBA FE9E                jsr        [PC - 0x162 /* 00001C82 */]
00001DE6  121F                     move.b     D1, [A7]+
00001DE8  201F                     move.l     D0, [A7]+
00001DEA  C001                     and.b      D0, D1
00001DEC  6748                     beq        +0x4A /* 00001E36 */
00001DEE  4267                     clr.w      -[A7]
00001DF0  2F0B                     move.l     -[A7], A3
00001DF2  A9A6                     syscall    GetResAttrs
00001DF4  3D5F FFFE                move.w     [A6 - 0x2], [A7]+
00001DF8  1F3C 0001                move.b     -[A7], 0x1
00001DFC  A99B                     syscall    SetResLoad
00001DFE  7000                     moveq.l    D0, 0x00
00001E00  302E FFFE                move.w     D0, [A6 - 0x2]
00001E04  C0BC 0000 0008           and.l      D0, 0x8
00001E0A  4A80                     tst.l      D0
00001E0C  6708                     beq        +0xA /* 00001E16 */
00001E0E  3D7C 0082 FFFC           move.w     [A6 - 0x4], 0x82
00001E14  6006                     bra        +0x8 /* 00001E1C */
label00001E16:
00001E16  3D7C 0081 FFFC           move.w     [A6 - 0x4], 0x81
label00001E1C:
00001E1C  4267                     clr.w      -[A7]
00001E1E  1F3C 0004                move.b     -[A7], 0x4
00001E22  3F2E FFFC                move.w     -[A7], [A6 - 0x4]
00001E26  4EAD 00E2                jsr        [A5 + 0xE2 /* export_24, CODE:1 @ 00002C30 */]
00001E2A  3D5F FFE0                move.w     [A6 - 0x20], [A7]+
00001E2E  1D7C 0001 FFDB           move.b     [A6 - 0x25], 0x1
00001E34  600C                     bra        +0xE /* 00001E42 */
label00001E36:
00001E36  5245                     addq.w     D5, 1
00001E38  6908                     bvs        +0xA /* 00001E42 */
label00001E3A:
00001E3A  BA6E FDBE                cmp.w      D5, [A6 - 0x242]
00001E3E  6F00 FF58                ble        -0xA6 /* 00001D98 */
label00001E42:
00001E42  102E FFDB                move.b     D0, [A6 - 0x25]
00001E46  6702                     beq        +0x4 /* 00001E4A */
00001E48  600C                     bra        +0xE /* 00001E56 */
label00001E4A:
00001E4A  5247                     addq.w     D7, 1
00001E4C  6908                     bvs        +0xA /* 00001E56 */
label00001E4E:
00001E4E  BE6E FDC2                cmp.w      D7, [A6 - 0x23E]
00001E52  6F00 FEE8                ble        -0x116 /* 00001D3C */
label00001E56:
00001E56  1F3C 0001                move.b     -[A7], 0x1
00001E5A  A99B                     syscall    SetResLoad
00001E5C  7002                     moveq.l    D0, 0x02
00001E5E  B06E FFE0                cmp.w      D0, [A6 - 0x20]
00001E62  6700 048E                beq        +0x490 /* 000022F2 */
00001E66  102E 000E                move.b     D0, [A6 + 0xE]
00001E6A  6714                     beq        +0x16 /* 00001E80 */
00001E6C  42A7                     clr.l      -[A7]
00001E6E  3004                     move.w     D0, D4
00001E70  E540                     asl        D0.w, 2
00001E72  5440                     addq.w     D0, 2
00001E74  48C0                     ext.l      D0
00001E76  2F00                     move.l     -[A7], D0
00001E78  4EAD 04FA                jsr        [A5 + 0x4FA /* export_155, CODE:3 @ 000024FC */]
00001E7C  285F                     movea.l    A4, [A7]+
00001E7E  6014                     bra        +0x16 /* 00001E94 */
label00001E80:
00001E80  42A7                     clr.l      -[A7]
00001E82  302E FFFA                move.w     D0, [A6 - 0x6]
00001E86  E340                     asl        D0.w, 1
00001E88  5440                     addq.w     D0, 2
00001E8A  48C0                     ext.l      D0
00001E8C  2F00                     move.l     -[A7], D0
00001E8E  4EAD 04FA                jsr        [A5 + 0x4FA /* export_155, CODE:3 @ 000024FC */]
00001E92  285F                     movea.l    A4, [A7]+
label00001E94:
00001E94  42A7                     clr.l      -[A7]
00001E96  3EB8 0220                move.w     [A7], [0x00000220 /* MemErr */]
00001E9A  4267                     clr.w      -[A7]
00001E9C  4EAD 00F2                jsr        [A5 + 0xF2 /* export_26, CODE:1 @ 00002F14 */]
00001EA0  101F                     move.b     D0, [A7]+
00001EA2  6714                     beq        +0x16 /* 00001EB8 */
00001EA4  102E 000E                move.b     D0, [A6 + 0xE]
00001EA8  6706                     beq        +0x8 /* 00001EB0 */
00001EAA  2054                     movea.l    A0, [A4]
00001EAC  3084                     move.w     [A0], D4
00001EAE  600C                     bra        +0xE /* 00001EBC */
label00001EB0:
00001EB0  2054                     movea.l    A0, [A4]
00001EB2  30AE FFFA                move.w     [A0], [A6 - 0x6]
00001EB6  6004                     bra        +0x6 /* 00001EBC */
label00001EB8:
00001EB8  7000                     moveq.l    D0, 0x00
00001EBA  2840                     movea.l    A4, D0
label00001EBC:
00001EBC  3D7C 0001 FDBC           move.w     [A6 - 0x244], 0x1
00001EC2  3D44 FDBA                move.w     [A6 - 0x246], D4
00001EC6  3E2E FDBC                move.w     D7, [A6 - 0x244]
00001ECA  6000 0178                bra        +0x17A /* 00002044 */
label00001ECE:
00001ECE  3F2D F828                move.w     -[A7], [A5 - 0x7D8]
00001ED2  486E FFF0                pea.l      [A6 - 0x10]
00001ED6  3F07                     move.w     -[A7], D7
00001ED8  4EAD 08B2                jsr        [A5 + 0x8B2 /* export_274, CODE:4 @ 0000026E */]
00001EDC  102E 000E                move.b     D0, [A6 + 0xE]
00001EE0  6614                     bne        +0x16 /* 00001EF6 */
00001EE2  222E 000A                move.l     D1, [A6 + 0xA]
00001EE6  B2AE FFF0                cmp.l      D1, [A6 - 0x10]
00001EEA  57C1                     seq        D1
00001EEC  8001                     or.b       D0, D1
00001EEE  0240 0001                andi.w     D0, 0x1
00001EF2  6700 014A                beq        +0x14C /* 0000203E */
label00001EF6:
00001EF6  200C                     move.l     D0, A4
00001EF8  56C0                     sne        D0
00001EFA  4A00                     tst.b      D0
00001EFC  6712                     beq        +0x14 /* 00001F10 */
00001EFE  C02E 000E                and.b      D0, [A6 + 0xE]
00001F02  670C                     beq        +0xE /* 00001F10 */
00001F04  2054                     movea.l    A0, [A4]
00001F06  3007                     move.w     D0, D7
00001F08  E540                     asl        D0.w, 2
00001F0A  21AE FFF0 00FE           move.l     [A0 + D0.w - 0x2], [A6 - 0x10]
label00001F10:
00001F10  4267                     clr.w      -[A7]
00001F12  3F2D F828                move.w     -[A7], [A5 - 0x7D8]
00001F16  2F2E FFF0                move.l     -[A7], [A6 - 0x10]
00001F1A  4EAD 08BA                jsr        [A5 + 0x8BA /* export_275, CODE:4 @ 000002A8 */]
00001F1E  3D5F FFFA                move.w     [A6 - 0x6], [A7]+
00001F22  3D7C 0001 FDB8           move.w     [A6 - 0x248], 0x1
00001F28  3D6E FFFA FDB6           move.w     [A6 - 0x24A], [A6 - 0x6]
00001F2E  3A2E FDB8                move.w     D5, [A6 - 0x248]
00001F32  6000 00F8                bra        +0xFA /* 0000202C */
label00001F36:
00001F36  42A7                     clr.l      -[A7]
00001F38  3F2D F828                move.w     -[A7], [A5 - 0x7D8]
00001F3C  2F2E FFF0                move.l     -[A7], [A6 - 0x10]
00001F40  3F05                     move.w     -[A7], D5
00001F42  4EAD 08C2                jsr        [A5 + 0x8C2 /* export_276, CODE:4 @ 000002E4 */]
00001F46  2D57 FFEC                move.l     [A6 - 0x14], [A7]
00001F4A  486E FFE2                pea.l      [A6 - 0x1E]
00001F4E  486E FFF0                pea.l      [A6 - 0x10]
00001F52  486E FDDA                pea.l      [A6 - 0x226]
00001F56  A9A8                     syscall    GetResInfo
00001F58  4267                     clr.w      -[A7]
00001F5A  A99B                     syscall    SetResLoad
00001F5C  42A7                     clr.l      -[A7]
00001F5E  3F2E 0008                move.w     -[A7], [A6 + 0x8]
00001F62  2F2E FFF0                move.l     -[A7], [A6 - 0x10]
00001F66  3F2E FFE2                move.w     -[A7], [A6 - 0x1E]
00001F6A  4EAD 08CA                jsr        [A5 + 0x8CA /* export_277, CODE:4 @ 00000338 */]
00001F6E  265F                     movea.l    A3, [A7]+
00001F70  1F3C 0001                move.b     -[A7], 0x1
00001F74  A99B                     syscall    SetResLoad
00001F76  7003                     moveq.l    D0, 0x03
00001F78  B06E FFE0                cmp.w      D0, [A6 - 0x20]
00001F7C  57C0                     seq        D0
00001F7E  4A00                     tst.b      D0
00001F80  6736                     beq        +0x38 /* 00001FB8 */
00001F82  220B                     move.l     D1, A3
00001F84  56C1                     sne        D1
00001F86  C001                     and.b      D0, D1
00001F88  672E                     beq        +0x30 /* 00001FB8 */
00001F8A  2F00                     move.l     -[A7], D0
00001F8C  4267                     clr.w      -[A7]
00001F8E  2F2E FFF0                move.l     -[A7], [A6 - 0x10]
00001F92  3F2E FFE2                move.w     -[A7], [A6 - 0x1E]
00001F96  4EBA FCEA                jsr        [PC - 0x316 /* 00001C82 */]
00001F9A  121F                     move.b     D1, [A7]+
00001F9C  201F                     move.l     D0, [A7]+
00001F9E  C001                     and.b      D0, D1
00001FA0  6716                     beq        +0x18 /* 00001FB8 */
00001FA2  42A7                     clr.l      -[A7]
00001FA4  486E FFEC                pea.l      [A6 - 0x14]
00001FA8  1F3C 0001                move.b     -[A7], 0x1
00001FAC  3F2E 0008                move.w     -[A7], [A6 + 0x8]
00001FB0  4EBA F592                jsr        [PC - 0xA6E /* 00001544 */]
00001FB4  265F                     movea.l    A3, [A7]+
00001FB6  6012                     bra        +0x14 /* 00001FCA */
label00001FB8:
00001FB8  42A7                     clr.l      -[A7]
00001FBA  486E FFEC                pea.l      [A6 - 0x14]
00001FBE  4267                     clr.w      -[A7]
00001FC0  3F2E 0008                move.w     -[A7], [A6 + 0x8]
00001FC4  4EBA F57E                jsr        [PC - 0xA82 /* 00001544 */]
00001FC8  265F                     movea.l    A3, [A7]+
label00001FCA:
00001FCA  2F2E FFEC                move.l     -[A7], [A6 - 0x14]
00001FCE  A9A3                     syscall    ReleaseResource
00001FD0  200B                     move.l     D0, A3
00001FD2  661C                     bne        +0x1E /* 00001FF0 */
00001FD4  200C                     move.l     D0, A4
00001FD6  6710                     beq        +0x12 /* 00001FE8 */
00001FD8  102E 000E                move.b     D0, [A6 + 0xE]
00001FDC  6706                     beq        +0x8 /* 00001FE4 */
00001FDE  2054                     movea.l    A0, [A4]
00001FE0  3087                     move.w     [A0], D7
00001FE2  6004                     bra        +0x6 /* 00001FE8 */
label00001FE4:
00001FE4  2054                     movea.l    A0, [A4]
00001FE6  3085                     move.w     [A0], D5
label00001FE8:
00001FE8  1B7C 0001 F956           move.b     [A5 - 0x6AA], 0x1
00001FEE  6044                     bra        +0x46 /* 00002034 */
label00001FF0:
00001FF0  200C                     move.l     D0, A4
00001FF2  56C0                     sne        D0
00001FF4  4A00                     tst.b      D0
00001FF6  6728                     beq        +0x2A /* 00002020 */
00001FF8  122E 000E                move.b     D1, [A6 + 0xE]
00001FFC  0A01 0001                xori.b     D1, 0x1
00002000  C001                     and.b      D0, D1
00002002  671C                     beq        +0x1E /* 00002020 */
00002004  2F0B                     move.l     -[A7], A3
00002006  486E FFE2                pea.l      [A6 - 0x1E]
0000200A  486E FFF0                pea.l      [A6 - 0x10]
0000200E  486E FDDA                pea.l      [A6 - 0x226]
00002012  A9A8                     syscall    GetResInfo
00002014  2054                     movea.l    A0, [A4]
00002016  3005                     move.w     D0, D5
00002018  D040                     add.w      D0, D0
0000201A  31AE FFE2 0000           move.w     [A0 + D0.w], [A6 - 0x1E]
label00002020:
00002020  102D F956                move.b     D0, [A5 - 0x6AA]
00002024  6702                     beq        +0x4 /* 00002028 */
00002026  600C                     bra        +0xE /* 00002034 */
label00002028:
00002028  5245                     addq.w     D5, 1
0000202A  6908                     bvs        +0xA /* 00002034 */
label0000202C:
0000202C  BA6E FDB6                cmp.w      D5, [A6 - 0x24A]
00002030  6F00 FF04                ble        -0xFA /* 00001F36 */
label00002034:
00002034  102D F956                move.b     D0, [A5 - 0x6AA]
00002038  6704                     beq        +0x6 /* 0000203E */
0000203A  6000 02B6                bra        +0x2B8 /* 000022F2 */
label0000203E:
0000203E  5247                     addq.w     D7, 1
00002040  6900 02B0                bvs        +0x2B2 /* 000022F2 */
label00002044:
00002044  BE6E FDBA                cmp.w      D7, [A6 - 0x246]
00002048  6F00 FE84                ble        -0x17A /* 00001ECE */
0000204C  6000 02A4                bra        +0x2A6 /* 000022F2 */
label00002050:
00002050  4EBA FA50                jsr        [PC - 0x5B0 /* 00001AA2 */]
00002054  70FF                     moveq.l    D0, 0xFFFFFFFF
00002056  B06D F828                cmp.w      D0, [A5 - 0x7D8]
0000205A  6700 0296                beq        +0x298 /* 000022F2 */
0000205E  7E01                     moveq.l    D7, 0x01
label00002060:
00002060  42A7                     clr.l      -[A7]
00002062  3F07                     move.w     -[A7], D7
00002064  486E FFF0                pea.l      [A6 - 0x10]
00002068  4EBA F746                jsr        [PC - 0x8BA /* 000017B0 */]
0000206C  2D5F FFDC                move.l     [A6 - 0x24], [A7]+
00002070  5247                     addq.w     D7, 1
00002072  4AAE FFDC                tst.l      [A6 - 0x24]
00002076  6700 00CC                beq        +0xCE /* 00002144 */
0000207A  102E 000E                move.b     D0, [A6 + 0xE]
0000207E  663C                     bne        +0x3E /* 000020BC */
00002080  222E 000A                move.l     D1, [A6 + 0xA]
00002084  B2AE FFF0                cmp.l      D1, [A6 - 0x10]
00002088  57C1                     seq        D1
0000208A  8001                     or.b       D0, D1
0000208C  0240 0001                andi.w     D0, 0x1
00002090  662A                     bne        +0x2C /* 000020BC */
00002092  223C 5445 5854           move.l     D1, 0x54455854 /* 'TEXT' */
00002098  B2AE 000A                cmp.l      D1, [A6 + 0xA]
0000209C  57C1                     seq        D1
0000209E  4A01                     tst.b      D1
000020A0  6700 009A                beq        +0x9C /* 0000213C */
000020A4  243C 7374 796C           move.l     D2, 0x7374796C /* 'styl' */
000020AA  B4AE FFF0                cmp.l      D2, [A6 - 0x10]
000020AE  57C2                     seq        D2
000020B0  C202                     and.b      D1, D2
000020B2  8001                     or.b       D0, D1
000020B4  0240 0001                andi.w     D0, 0x1
000020B8  6700 0082                beq        +0x84 /* 0000213C */
label000020BC:
000020BC  4267                     clr.w      -[A7]
000020BE  3F2D F828                move.w     -[A7], [A5 - 0x7D8]
000020C2  2F2E FFF0                move.l     -[A7], [A6 - 0x10]
000020C6  4EAD 08A2                jsr        [A5 + 0x8A2 /* export_272, CODE:4 @ 000001AA */]
000020CA  3D5F FFE2                move.w     [A6 - 0x1E], [A7]+
000020CE  3F2D F828                move.w     -[A7], [A5 - 0x7D8]
000020D2  2F2E FFDC                move.l     -[A7], [A6 - 0x24]
000020D6  2F2E FFF0                move.l     -[A7], [A6 - 0x10]
000020DA  3F2E FFE2                move.w     -[A7], [A6 - 0x1E]
000020DE  487A 022A                pea.l      [PC + 0x22A /* 0000230A, value 0x4E56 'NV', cstring "" */]
000020E2  4EAD 08E2                jsr        [A5 + 0x8E2 /* export_280, CODE:4 @ 00000434 */]
000020E6  42A7                     clr.l      -[A7]
000020E8  486E FFDC                pea.l      [A6 - 0x24]
000020EC  1F3C 0001                move.b     -[A7], 0x1
000020F0  3F2E 0008                move.w     -[A7], [A6 + 0x8]
000020F4  4EBA F44E                jsr        [PC - 0xBB2 /* 00001544 */]
000020F8  265F                     movea.l    A3, [A7]+
000020FA  203C 5445 5854           move.l     D0, 0x54455854 /* 'TEXT' */
00002100  B0AE FFF0                cmp.l      D0, [A6 - 0x10]
00002104  6606                     bne        +0x8 /* 0000210C */
00002106  2D4B FDCA                move.l     [A6 - 0x236], A3
0000210A  6010                     bra        +0x12 /* 0000211C */
label0000210C:
0000210C  203C 7374 796C           move.l     D0, 0x7374796C /* 'styl' */
00002112  B0AE FFF0                cmp.l      D0, [A6 - 0x10]
00002116  6604                     bne        +0x6 /* 0000211C */
00002118  2D4B FDC6                move.l     [A6 - 0x23A], A3
label0000211C:
0000211C  2F2E FFDC                move.l     -[A7], [A6 - 0x24]
00002120  A9A3                     syscall    ReleaseResource
00002122  200B                     move.l     D0, A3
00002124  6608                     bne        +0xA /* 0000212E */
00002126  1B7C 0001 F956           move.b     [A5 - 0x6AA], 0x1
0000212C  601E                     bra        +0x20 /* 0000214C */
label0000212E:
0000212E  2F2E FFF0                move.l     -[A7], [A6 - 0x10]
00002132  2F2E FDCE                move.l     -[A7], [A6 - 0x232]
00002136  4EAD 0DE2                jsr        [A5 + 0xDE2 /* export_440, CODE:16 @ 00001A8E */]
0000213A  6008                     bra        +0xA /* 00002144 */
label0000213C:
0000213C  2F2E FFDC                move.l     -[A7], [A6 - 0x24]
00002140  205F                     movea.l    A0, [A7]+
00002142  A023                     syscall    DisposHandle/DisposeHandle
label00002144:
00002144  4AAE FFDC                tst.l      [A6 - 0x24]
00002148  6600 FF16                bne        -0xE8 /* 00002060 */
label0000214C:
0000214C  4AAE FDC6                tst.l      [A6 - 0x23A]
00002150  56C0                     sne        D0
00002152  4A00                     tst.b      D0
00002154  6700 00E2                beq        +0xE4 /* 00002238 */
00002158  4AAE FDCA                tst.l      [A6 - 0x236]
0000215C  56C1                     sne        D1
0000215E  C001                     and.b      D0, D1
00002160  6700 00D6                beq        +0xD8 /* 00002238 */
00002164  2F2E FDCA                move.l     -[A7], [A6 - 0x236]
00002168  486E FFE2                pea.l      [A6 - 0x1E]
0000216C  486E FFF0                pea.l      [A6 - 0x10]
00002170  486E FDDA                pea.l      [A6 - 0x226]
00002174  A9A8                     syscall    GetResInfo
00002176  2F2E FDC6                move.l     -[A7], [A6 - 0x23A]
0000217A  486E FFE4                pea.l      [A6 - 0x1C]
0000217E  486E FFF0                pea.l      [A6 - 0x10]
00002182  486E FEDA                pea.l      [A6 - 0x126]
00002186  A9A8                     syscall    GetResInfo
00002188  302E FFE2                move.w     D0, [A6 - 0x1E]
0000218C  B06E FFE4                cmp.w      D0, [A6 - 0x1C]
00002190  6700 00A2                beq        +0xA4 /* 00002234 */
00002194  4267                     clr.w      -[A7]
00002196  A99B                     syscall    SetResLoad
00002198  3D6E FFE2 FDB4           move.w     [A6 - 0x24C], [A6 - 0x1E]
0000219E  3C2E FDB4                move.w     D6, [A6 - 0x24C]
000021A2  6060                     bra        +0x62 /* 00002204 */
label000021A4:
000021A4  BC6E FFE4                cmp.w      D6, [A6 - 0x1C]
000021A8  57C0                     seq        D0
000021AA  4A00                     tst.b      D0
000021AC  6620                     bne        +0x22 /* 000021CE */
000021AE  2F00                     move.l     -[A7], D0
000021B0  42A7                     clr.l      -[A7]
000021B2  3F2E 0008                move.w     -[A7], [A6 + 0x8]
000021B6  2F3C 7374 796C           move.l     -[A7], 0x7374796C /* 'styl' */
000021BC  3F06                     move.w     -[A7], D6
000021BE  4EAD 08CA                jsr        [A5 + 0x8CA /* export_277, CODE:4 @ 00000338 */]
000021C2  221F                     move.l     D1, [A7]+
000021C4  201F                     move.l     D0, [A7]+
000021C6  4A81                     tst.l      D1
000021C8  57C1                     seq        D1
000021CA  8001                     or.b       D0, D1
000021CC  6732                     beq        +0x34 /* 00002200 */
label000021CE:
000021CE  BC6E FFE2                cmp.w      D6, [A6 - 0x1E]
000021D2  57C1                     seq        D1
000021D4  4A01                     tst.b      D1
000021D6  6632                     bne        +0x34 /* 0000220A */
000021D8  48E7 C000                movem.l    -[A7], D0,D1
000021DC  42A7                     clr.l      -[A7]
000021DE  3F2E 0008                move.w     -[A7], [A6 + 0x8]
000021E2  2F3C 5445 5854           move.l     -[A7], 0x54455854 /* 'TEXT' */
000021E8  3F06                     move.w     -[A7], D6
000021EA  4EAD 08CA                jsr        [A5 + 0x8CA /* export_277, CODE:4 @ 00000338 */]
000021EE  241F                     move.l     D2, [A7]+
000021F0  4CDF 0003                movem.l    D0,D1, [A7]+
000021F4  4A82                     tst.l      D2
000021F6  57C2                     seq        D2
000021F8  8202                     or.b       D1, D2
000021FA  C001                     and.b      D0, D1
000021FC  6702                     beq        +0x4 /* 00002200 */
000021FE  600A                     bra        +0xC /* 0000220A */
label00002200:
00002200  5246                     addq.w     D6, 1
00002202  6906                     bvs        +0x8 /* 0000220A */
label00002204:
00002204  0C46 7FFF                cmpi.w     D6, 0x7FFF
00002208  6F9A                     ble        -0x64 /* 000021A4 */
label0000220A:
0000220A  BC6E FFE4                cmp.w      D6, [A6 - 0x1C]
0000220E  670C                     beq        +0xE /* 0000221C */
00002210  2F2E FDC6                move.l     -[A7], [A6 - 0x23A]
00002214  3F06                     move.w     -[A7], D6
00002216  486E FEDA                pea.l      [A6 - 0x126]
0000221A  A9A9                     syscall    SetResInfo
label0000221C:
0000221C  BC6E FFE2                cmp.w      D6, [A6 - 0x1E]
00002220  670C                     beq        +0xE /* 0000222E */
00002222  2F2E FDCA                move.l     -[A7], [A6 - 0x236]
00002226  3F06                     move.w     -[A7], D6
00002228  486E FDDA                pea.l      [A6 - 0x226]
0000222C  A9A9                     syscall    SetResInfo
label0000222E:
0000222E  1F3C 0001                move.b     -[A7], 0x1
00002232  A99B                     syscall    SetResLoad
label00002234:
00002234  266E FDCA                movea.l    A3, [A6 - 0x236]
label00002238:
00002238  102D F956                move.b     D0, [A5 - 0x6AA]
0000223C  6600 00A8                bne        +0xAA /* 000022E6 */
00002240  102E 000E                move.b     D0, [A6 + 0xE]
00002244  6720                     beq        +0x22 /* 00002266 */
00002246  4267                     clr.w      -[A7]
00002248  3F2D F828                move.w     -[A7], [A5 - 0x7D8]
0000224C  4EAD 08AA                jsr        [A5 + 0x8AA /* export_273, CODE:4 @ 00000222 */]
00002250  381F                     move.w     D4, [A7]+
00002252  42A7                     clr.l      -[A7]
00002254  3004                     move.w     D0, D4
00002256  E540                     asl        D0.w, 2
00002258  5440                     addq.w     D0, 2
0000225A  48C0                     ext.l      D0
0000225C  2F00                     move.l     -[A7], D0
0000225E  4EAD 04FA                jsr        [A5 + 0x4FA /* export_155, CODE:3 @ 000024FC */]
00002262  285F                     movea.l    A4, [A7]+
00002264  600C                     bra        +0xE /* 00002272 */
label00002266:
00002266  42A7                     clr.l      -[A7]
00002268  7004                     moveq.l    D0, 0x04
0000226A  2F00                     move.l     -[A7], D0
0000226C  4EAD 04FA                jsr        [A5 + 0x4FA /* export_155, CODE:3 @ 000024FC */]
00002270  285F                     movea.l    A4, [A7]+
label00002272:
00002272  42A7                     clr.l      -[A7]
00002274  3EB8 0220                move.w     [A7], [0x00000220 /* MemErr */]
00002278  4267                     clr.w      -[A7]
0000227A  4EAD 00F2                jsr        [A5 + 0xF2 /* export_26, CODE:1 @ 00002F14 */]
0000227E  101F                     move.b     D0, [A7]+
00002280  6760                     beq        +0x62 /* 000022E2 */
00002282  102E 000E                move.b     D0, [A6 + 0xE]
00002286  673A                     beq        +0x3C /* 000022C2 */
00002288  2054                     movea.l    A0, [A4]
0000228A  3084                     move.w     [A0], D4
0000228C  3D7C 0001 FDB2           move.w     [A6 - 0x24E], 0x1
00002292  3D44 FDB0                move.w     [A6 - 0x250], D4
00002296  3E2E FDB2                move.w     D7, [A6 - 0x24E]
0000229A  601E                     bra        +0x20 /* 000022BA */
label0000229C:
0000229C  3F2D F828                move.w     -[A7], [A5 - 0x7D8]
000022A0  486E FFF0                pea.l      [A6 - 0x10]
000022A4  3F07                     move.w     -[A7], D7
000022A6  4EAD 08B2                jsr        [A5 + 0x8B2 /* export_274, CODE:4 @ 0000026E */]
000022AA  2054                     movea.l    A0, [A4]
000022AC  3007                     move.w     D0, D7
000022AE  E540                     asl        D0.w, 2
000022B0  21AE FFF0 00FE           move.l     [A0 + D0.w - 0x2], [A6 - 0x10]
000022B6  5247                     addq.w     D7, 1
000022B8  692C                     bvs        +0x2E /* 000022E6 */
label000022BA:
000022BA  BE6E FDB0                cmp.w      D7, [A6 - 0x250]
000022BE  6FDC                     ble        -0x22 /* 0000229C */
000022C0  6024                     bra        +0x26 /* 000022E6 */
label000022C2:
000022C2  2054                     movea.l    A0, [A4]
000022C4  30BC 0001                move.w     [A0], 0x1
000022C8  2F0B                     move.l     -[A7], A3
000022CA  486E FFE2                pea.l      [A6 - 0x1E]
000022CE  486E FFF0                pea.l      [A6 - 0x10]
000022D2  486E FDDA                pea.l      [A6 - 0x226]
000022D6  A9A8                     syscall    GetResInfo
000022D8  2054                     movea.l    A0, [A4]
000022DA  316E FFE2 0002           move.w     [A0 + 0x2], [A6 - 0x1E]
000022E0  6004                     bra        +0x6 /* 000022E6 */
label000022E2:
000022E2  7000                     moveq.l    D0, 0x00
000022E4  2840                     movea.l    A4, D0
label000022E6:
000022E6  3F2D F828                move.w     -[A7], [A5 - 0x7D8]
000022EA  A99A                     syscall    CloseResFile
000022EC  3B7C FFFF F828           move.w     [A5 - 0x7D8], 0xFFFF
label000022F2:
000022F2  3F3C FFFF                move.w     -[A7], 0xFFFF
000022F6  4EAD 0182                jsr        [A5 + 0x182 /* export_44, CODE:1 @ 00003B34 */]
000022FA  2D4C 0010                move.l     [A6 + 0x10], A4
000022FE  4CDF 18F0                movem.l    D4,D5,D6,D7,A3,A4, [A7]+
00002302  4E5E                     unlink     A6
00002304  205F                     movea.l    A0, [A7]+
00002306  504F                     addq.w     A7, 8
00002308  4ED0                     jmp        [A0]
0000230A  0000 4E56                ori.b      D0, 0x56 /* 'V' */
// begin alternate branch 0000230C-00002310
fn0000230C:
0000230C  4E56 FFF4                link       A6, -0x000C
// end alternate branch 0000230C-00002310
fn0000230C: // (misaligned)
0000230E  FFF4                     .invalid   <<F/7/7>>
00002310  48E7 0308                movem.l    -[A7], D6,D7,A4
00002314  286E 0008                movea.l    A4, [A6 + 0x8]
00002318  2054                     movea.l    A0, [A4]
0000231A  3C28 004E                move.w     D6, [A0 + 0x4E]
0000231E  3006                     move.w     D0, D6
00002320  C1E8 004C                muls.w     D0, [A0 + 0x4C]
00002324  3E00                     move.w     D7, D0
label00002326:
00002326  3D7C 0001 FFFA           move.w     [A6 - 0x6], 0x1
0000232C  5347                     subq.w     D7, 1
0000232E  3007                     move.w     D0, D7
00002330  48C0                     ext.l      D0
00002332  81C6                     divs.w     D0, D6
00002334  4840                     swap.w     D0
00002336  3D40 FFF6                move.w     [A6 - 0xA], D0
0000233A  3007                     move.w     D0, D7
0000233C  48C0                     ext.l      D0
0000233E  81C6                     divs.w     D0, D6
00002340  3D40 FFF4                move.w     [A6 - 0xC], D0
00002344  486E FFF8                pea.l      [A6 - 0x8]
00002348  486E FFFA                pea.l      [A6 - 0x6]
0000234C  2F2E FFF4                move.l     -[A7], [A6 - 0xC]
00002350  2F0C                     move.l     -[A7], A4
00002352  3F3C 0038                move.w     -[A7], 0x38 /* '8' */
00002356  A9E7                     syscall    Pack0/ListManager
00002358  4A6E FFFA                tst.w      [A6 - 0x6]
0000235C  67C8                     beq        -0x36 /* 00002326 */
0000235E  3007                     move.w     D0, D7
00002360  5240                     addq.w     D0, 1
00002362  3D40 000C                move.w     [A6 + 0xC], D0
00002366  4CDF 10C0                movem.l    D6,D7,A4, [A7]+
0000236A  4E5E                     unlink     A6
0000236C  2E9F                     move.l     [A7], [A7]+
0000236E  4E75                     rts
fn00002370:
00002370  4E56 FFE2                link       A6, -0x001E
00002374  48E7 0F18                movem.l    -[A7], D4,D5,D6,D7,A3,A4
00002378  266E 0008                movea.l    A3, [A6 + 0x8]
0000237C  2853                     movea.l    A4, [A3]
0000237E  302C 000E                move.w     D0, [A4 + 0xE]
00002382  D06E 000C                add.w      D0, [A6 + 0xC]
00002386  48C0                     ext.l      D0
00002388  81EC 0012                divs.w     D0, [A4 + 0x12]
0000238C  3C00                     move.w     D6, D0
0000238E  382C 004E                move.w     D4, [A4 + 0x4E]
00002392  B846                     cmp.w      D4, D6
00002394  6608                     bne        +0xA /* 0000239E */
00002396  422E 000E                clr.b      [A6 + 0xE]
0000239A  6000 017E                bra        +0x180 /* 0000251A */
label0000239E:
0000239E  1D7C 0001 000E           move.b     [A6 + 0xE], 0x1
000023A4  4267                     clr.w      -[A7]
000023A6  2F0B                     move.l     -[A7], A3
000023A8  3F3C 002C                move.w     -[A7], 0x2C /* ',' */
000023AC  A9E7                     syscall    Pack0/ListManager
000023AE  2053                     movea.l    A0, [A3]
000023B0  2F08                     move.l     -[A7], A0
000023B2  A8A3                     syscall    EraseRect
000023B4  4267                     clr.w      -[A7]
000023B6  2F0B                     move.l     -[A7], A3
000023B8  4EBA FF52                jsr        [PC - 0xAE /* 0000230C */]
000023BC  3D5F FFFE                move.w     [A6 - 0x2], [A7]+
000023C0  302E FFFE                move.w     D0, [A6 - 0x2]
000023C4  5340                     subq.w     D0, 1
000023C6  48C0                     ext.l      D0
000023C8  81C6                     divs.w     D0, D6
000023CA  3D40 FFFC                move.w     [A6 - 0x4], D0
000023CE  2053                     movea.l    A0, [A3]
000023D0  3A28 0054                move.w     D5, [A0 + 0x54]
000023D4  42A7                     clr.l      -[A7]
000023D6  3005                     move.w     D0, D5
000023D8  5440                     addq.w     D0, 2
000023DA  48C0                     ext.l      D0
000023DC  2F00                     move.l     -[A7], D0
000023DE  4EAD 04FA                jsr        [A5 + 0x4FA /* export_155, CODE:3 @ 000024FC */]
000023E2  2D5F FFE6                move.l     [A6 - 0x1A], [A7]+
000023E6  2053                     movea.l    A0, [A3]
000023E8  4868 0056                pea.l      [A0 + 0x56]
000023EC  206E FFE6                movea.l    A0, [A6 - 0x1A]
000023F0  2F10                     move.l     -[A7], [A0]
000023F2  3005                     move.w     D0, D5
000023F4  5440                     addq.w     D0, 2
000023F6  48C0                     ext.l      D0
000023F8  2F00                     move.l     -[A7], D0
000023FA  4EAD 0522                jsr        [A5 + 0x522 /* export_160, CODE:3 @ 00002532 */]
000023FE  2053                     movea.l    A0, [A3]
00002400  2D68 0050 FFEA           move.l     [A6 - 0x16], [A0 + 0x50]
00002406  4267                     clr.w      -[A7]
00002408  486E FFEA                pea.l      [A6 - 0x16]
0000240C  4EAD 06D2                jsr        [A5 + 0x6D2 /* export_214, CODE:3 @ 00003172 */]
00002410  3E1F                     move.w     D7, [A7]+
00002412  B846                     cmp.w      D4, D6
00002414  6F32                     ble        +0x34 /* 00002448 */
00002416  4267                     clr.w      -[A7]
00002418  2053                     movea.l    A0, [A3]
0000241A  302E FFFC                move.w     D0, [A6 - 0x4]
0000241E  9068 004C                sub.w      D0, [A0 + 0x4C]
00002422  5240                     addq.w     D0, 1
00002424  3F00                     move.w     -[A7], D0
00002426  2053                     movea.l    A0, [A3]
00002428  3F28 004C                move.w     -[A7], [A0 + 0x4C]
0000242C  2F0B                     move.l     -[A7], A3
0000242E  3F3C 0008                move.w     -[A7], 0x8
00002432  A9E7                     syscall    Pack0/ListManager
00002434  3E1F                     move.w     D7, [A7]+
00002436  3004                     move.w     D0, D4
00002438  9046                     sub.w      D0, D6
0000243A  3F00                     move.w     -[A7], D0
0000243C  3F06                     move.w     -[A7], D6
0000243E  2F0B                     move.l     -[A7], A3
00002440  3F3C 0020                move.w     -[A7], 0x20 /* ' ' */
00002444  A9E7                     syscall    Pack0/ListManager
00002446  603A                     bra        +0x3C /* 00002482 */
label00002448:
00002448  4267                     clr.w      -[A7]
0000244A  3006                     move.w     D0, D6
0000244C  9044                     sub.w      D0, D4
0000244E  3F00                     move.w     -[A7], D0
00002450  2053                     movea.l    A0, [A3]
00002452  3F28 004E                move.w     -[A7], [A0 + 0x4E]
00002456  2F0B                     move.l     -[A7], A3
00002458  3F3C 0004                move.w     -[A7], 0x4
0000245C  A9E7                     syscall    Pack0/ListManager
0000245E  3E1F                     move.w     D7, [A7]+
00002460  2053                     movea.l    A0, [A3]
00002462  302E FFFC                move.w     D0, [A6 - 0x4]
00002466  5240                     addq.w     D0, 1
00002468  3E28 004C                move.w     D7, [A0 + 0x4C]
0000246C  9E40                     sub.w      D7, D0
0000246E  6712                     beq        +0x14 /* 00002482 */
00002470  3F07                     move.w     -[A7], D7
00002472  302E FFFC                move.w     D0, [A6 - 0x4]
00002476  5240                     addq.w     D0, 1
00002478  3F00                     move.w     -[A7], D0
0000247A  2F0B                     move.l     -[A7], A3
0000247C  3F3C 0024                move.w     -[A7], 0x24 /* '$' */
00002480  A9E7                     syscall    Pack0/ListManager
label00002482:
00002482  2053                     movea.l    A0, [A3]
00002484  BA68 0054                cmp.w      D5, [A0 + 0x54]
00002488  6F08                     ble        +0xA /* 00002492 */
0000248A  3D68 0054 FFF4           move.w     [A6 - 0xC], [A0 + 0x54]
00002490  6004                     bra        +0x6 /* 00002496 */
label00002492:
00002492  3D45 FFF4                move.w     [A6 - 0xC], D5
label00002496:
00002496  206E FFE6                movea.l    A0, [A6 - 0x1A]
0000249A  2F10                     move.l     -[A7], [A0]
0000249C  2053                     movea.l    A0, [A3]
0000249E  4868 0056                pea.l      [A0 + 0x56]
000024A2  302E FFF4                move.w     D0, [A6 - 0xC]
000024A6  5440                     addq.w     D0, 2
000024A8  48C0                     ext.l      D0
000024AA  2F00                     move.l     -[A7], D0
000024AC  4EAD 0522                jsr        [A5 + 0x522 /* export_160, CODE:3 @ 00002532 */]
000024B0  2F2E FFE6                move.l     -[A7], [A6 - 0x1A]
000024B4  205F                     movea.l    A0, [A7]+
000024B6  A023                     syscall    DisposHandle/DisposeHandle
000024B8  2053                     movea.l    A0, [A3]
000024BA  2F28 0050                move.l     -[A7], [A0 + 0x50]
000024BE  205F                     movea.l    A0, [A7]+
000024C0  A023                     syscall    DisposHandle/DisposeHandle
000024C2  2053                     movea.l    A0, [A3]
000024C4  216E FFEA 0050           move.l     [A0 + 0x50], [A6 - 0x16]
000024CA  3005                     move.w     D0, D5
000024CC  48C0                     ext.l      D0
000024CE  81FC 0002                divs.w     D0, 0x2
000024D2  5240                     addq.w     D0, 1
000024D4  3D40 FFF0                move.w     [A6 - 0x10], D0
000024D8  2853                     movea.l    A4, [A3]
000024DA  302E FFF0                move.w     D0, [A6 - 0x10]
000024DE  D040                     add.w      D0, D0
000024E0  3D74 0054 FFF2           move.w     [A6 - 0xE], [A4 + D0.w + 0x54]
000024E6  302E FFF0                move.w     D0, [A6 - 0x10]
000024EA  5240                     addq.w     D0, 1
000024EC  3D40 FFE4                move.w     [A6 - 0x1C], D0
000024F0  302C 0054                move.w     D0, [A4 + 0x54]
000024F4  48C0                     ext.l      D0
000024F6  81FC 0002                divs.w     D0, 0x2
000024FA  5240                     addq.w     D0, 1
000024FC  3D40 FFE2                move.w     [A6 - 0x1E], D0
00002500  3E2E FFE4                move.w     D7, [A6 - 0x1C]
00002504  600E                     bra        +0x10 /* 00002514 */
label00002506:
00002506  3007                     move.w     D0, D7
00002508  D040                     add.w      D0, D0
0000250A  39AE FFF2 0054           move.w     [A4 + D0.w + 0x54], [A6 - 0xE]
00002510  5247                     addq.w     D7, 1
00002512  6906                     bvs        +0x8 /* 0000251A */
label00002514:
00002514  BE6E FFE2                cmp.w      D7, [A6 - 0x1E]
00002518  6FEC                     ble        -0x12 /* 00002506 */
label0000251A:
0000251A  4CDF 18F0                movem.l    D4,D5,D6,D7,A3,A4, [A7]+
0000251E  4E5E                     unlink     A6
00002520  205F                     movea.l    A0, [A7]+
00002522  5C4F                     addq.w     A7, 6
00002524  4ED0                     jmp        [A0]
fn00002526:
00002526  4E56 FFFA                link       A6, -0x0006
0000252A  48E7 0708                movem.l    -[A7], D5,D6,D7,A4
0000252E  286E 0008                movea.l    A4, [A6 + 0x8]
00002532  3A2E 0012                move.w     D5, [A6 + 0x12]
00002536  4206                     clr.b      D6
00002538  4207                     clr.b      D7
0000253A  206E 000C                movea.l    A0, [A6 + 0xC]
0000253E  0C68 2711 006C           cmpi.w     [A0 + 0x6C], 0x2711
00002544  660E                     bne        +0x10 /* 00002554 */
00002546  2054                     movea.l    A0, [A4]
00002548  7001                     moveq.l    D0, 0x01
0000254A  B068 004E                cmp.w      D0, [A0 + 0x4E]
0000254E  5DC7                     slt        D7
00002550  4407                     neg.b      D7
00002552  6016                     bra        +0x18 /* 0000256A */
label00002554:
00002554  4267                     clr.w      -[A7]
00002556  206E 000C                movea.l    A0, [A6 + 0xC]
0000255A  2F28 0098                move.l     -[A7], [A0 + 0x98]
0000255E  4EBA DC7A                jsr        [PC - 0x2386 /* 000001DA */]
00002562  7002                     moveq.l    D0, 0x02
00002564  B01F                     cmp.b      D0, [A7]+
00002566  57C7                     seq        D7
00002568  4407                     neg.b      D7
label0000256A:
0000256A  1007                     move.b     D0, D7
0000256C  6714                     beq        +0x16 /* 00002582 */
0000256E  4267                     clr.w      -[A7]
00002570  3005                     move.w     D0, D5
00002572  907C 000F                sub.w      D0, 0xF
00002576  3F00                     move.w     -[A7], D0
00002578  2F0C                     move.l     -[A7], A4
0000257A  4EBA FDF4                jsr        [PC - 0x20C /* 00002370 */]
0000257E  1C1F                     move.b     D6, [A7]+
00002580  601E                     bra        +0x20 /* 000025A0 */
label00002582:
00002582  2054                     movea.l    A0, [A4]
00002584  3D68 0010 FFFC           move.w     [A6 - 0x4], [A0 + 0x10]
0000258A  3005                     move.w     D0, D5
0000258C  907C 000F                sub.w      D0, 0xF
00002590  3D40 FFFE                move.w     [A6 - 0x2], D0
00002594  2F2E FFFC                move.l     -[A7], [A6 - 0x4]
00002598  2F0C                     move.l     -[A7], A4
0000259A  3F3C 0014                move.w     -[A7], 0x14
0000259E  A9E7                     syscall    Pack0/ListManager
label000025A0:
000025A0  3005                     move.w     D0, D5
000025A2  907C 000F                sub.w      D0, 0xF
000025A6  3F00                     move.w     -[A7], D0
000025A8  2054                     movea.l    A0, [A4]
000025AA  302E 0010                move.w     D0, [A6 + 0x10]
000025AE  9050                     sub.w      D0, [A0]
000025B0  3F00                     move.w     -[A7], D0
000025B2  2F0C                     move.l     -[A7], A4
000025B4  3F3C 0060                move.w     -[A7], 0x60 /* '`' */
000025B8  A9E7                     syscall    Pack0/ListManager
000025BA  1006                     move.b     D0, D6
000025BC  6706                     beq        +0x8 /* 000025C4 */
000025BE  2054                     movea.l    A0, [A4]
000025C0  2F08                     move.l     -[A7], A0
000025C2  A928                     syscall    InvalRect
label000025C4:
000025C4  4CDF 10E0                movem.l    D5,D6,D7,A4, [A7]+
000025C8  4E5E                     unlink     A6
000025CA  205F                     movea.l    A0, [A7]+
000025CC  DEFC 000C                add.w      A7, 0xC
000025D0  4ED0                     jmp        [A0]
export_314:
fn000025D2:
000025D2  4E56 FFD6                link       A6, -0x002A
000025D6  48E7 0F18                movem.l    -[A7], D4,D5,D6,D7,A3,A4
000025DA  266E 000C                movea.l    A3, [A6 + 0xC]
000025DE  2A2E 0008                move.l     D5, [A6 + 0x8]
000025E2  0C6E 0096 0012           cmpi.w     [A6 + 0x12], 0x96
000025E8  6C06                     bge        +0x8 /* 000025F0 */
000025EA  3D7C 0096 0012           move.w     [A6 + 0x12], 0x96
label000025F0:
000025F0  7040                     moveq.l    D0, 0x40
000025F2  B06E 0010                cmp.w      D0, [A6 + 0x10]
000025F6  6F06                     ble        +0x8 /* 000025FE */
000025F8  3D7C 0040 0010           move.w     [A6 + 0x10], 0x40 /* '@' */
label000025FE:
000025FE  49EB 0010                lea.l      A4, [A3 + 0x10]
00002602  302C 0006                move.w     D0, [A4 + 0x6]
00002606  906C 0002                sub.w      D0, [A4 + 0x2]
0000260A  B06E 0012                cmp.w      D0, [A6 + 0x12]
0000260E  57C0                     seq        D0
00002610  4A00                     tst.b      D0
00002612  6714                     beq        +0x16 /* 00002628 */
00002614  322C 0004                move.w     D1, [A4 + 0x4]
00002618  9254                     sub.w      D1, [A4]
0000261A  B26E 0010                cmp.w      D1, [A6 + 0x10]
0000261E  57C1                     seq        D1
00002620  C001                     and.b      D0, D1
00002622  6704                     beq        +0x6 /* 00002628 */
00002624  6000 017A                bra        +0x17C /* 000027A0 */
label00002628:
00002628  41EE FFE8                lea.l      A0, [A6 - 0x18]
0000262C  43EB 0010                lea.l      A1, [A3 + 0x10]
00002630  7003                     moveq.l    D0, 0x03
label00002632:
00002632  30D9                     move.w     [A0]+, [A1]+
00002634  51C8 FFFC                dbf        D0, -0x6 /* 00002632 */
00002638  302E FFEE                move.w     D0, [A6 - 0x12]
0000263C  907C 000F                sub.w      D0, 0xF
00002640  3D40 FFEA                move.w     [A6 - 0x16], D0
00002644  486E FFE8                pea.l      [A6 - 0x18]
00002648  A8A3                     syscall    EraseRect
0000264A  3D6B 0016 FFDE           move.w     [A6 - 0x22], [A3 + 0x16]
00002650  2F0B                     move.l     -[A7], A3
00002652  2F2E 0010                move.l     -[A7], [A6 + 0x10]
00002656  1F3C 0001                move.b     -[A7], 0x1
0000265A  A91D                     syscall    SizeWindow
0000265C  102E 0016                move.b     D0, [A6 + 0x16]
00002660  6700 009E                beq        +0xA0 /* 00002700 */
00002664  486E FFD6                pea.l      [A6 - 0x2A]
00002668  4267                     clr.w      -[A7]
0000266A  2F0B                     move.l     -[A7], A3
0000266C  4EAD 019A                jsr        [A5 + 0x19A /* export_47, CODE:1 @ 00004234 */]
00002670  205F                     movea.l    A0, [A7]+
00002672  43EE FFF8                lea.l      A1, [A6 - 0x8]
00002676  7003                     moveq.l    D0, 0x03
label00002678:
00002678  32D8                     move.w     [A1]+, [A0]+
0000267A  51C8 FFFC                dbf        D0, -0x6 /* 00002678 */
0000267E  41EE FFE8                lea.l      A0, [A6 - 0x18]
00002682  43EB 0010                lea.l      A1, [A3 + 0x10]
00002686  7003                     moveq.l    D0, 0x03
label00002688:
00002688  30D9                     move.w     [A0]+, [A1]+
0000268A  51C8 FFFC                dbf        D0, -0x6 /* 00002688 */
0000268E  486E FFE8                pea.l      [A6 - 0x18]
00002692  A870                     syscall    LocalToGlobal
00002694  486E FFEC                pea.l      [A6 - 0x14]
00002698  A870                     syscall    LocalToGlobal
0000269A  3E2E FFFE                move.w     D7, [A6 - 0x2]
0000269E  9E6E FFEE                sub.w      D7, [A6 - 0x12]
000026A2  6F02                     ble        +0x4 /* 000026A6 */
000026A4  4247                     clr.w      D7
label000026A6:
000026A6  3C2E FFFC                move.w     D6, [A6 - 0x4]
000026AA  9C6E FFEC                sub.w      D6, [A6 - 0x14]
000026AE  6F02                     ble        +0x4 /* 000026B2 */
000026B0  4246                     clr.w      D6
label000026B2:
000026B2  4A47                     tst.w      D7
000026B4  56C0                     sne        D0
000026B6  4A00                     tst.b      D0
000026B8  6608                     bne        +0xA /* 000026C2 */
000026BA  4A46                     tst.w      D6
000026BC  56C1                     sne        D1
000026BE  8001                     or.b       D0, D1
000026C0  673E                     beq        +0x40 /* 00002700 */
label000026C2:
000026C2  3007                     move.w     D0, D7
000026C4  D16E FFEA                add.w      [A6 - 0x16], D0
000026C8  302E FFEA                move.w     D0, [A6 - 0x16]
000026CC  B06E FFFA                cmp.w      D0, [A6 - 0x6]
000026D0  6C0A                     bge        +0xC /* 000026DC */
000026D2  302E FFFA                move.w     D0, [A6 - 0x6]
000026D6  5240                     addq.w     D0, 1
000026D8  3D40 FFEA                move.w     [A6 - 0x16], D0
label000026DC:
000026DC  3006                     move.w     D0, D6
000026DE  D16E FFE8                add.w      [A6 - 0x18], D0
000026E2  302E FFE8                move.w     D0, [A6 - 0x18]
000026E6  B06E FFF8                cmp.w      D0, [A6 - 0x8]
000026EA  6C0A                     bge        +0xC /* 000026F6 */
000026EC  302E FFF8                move.w     D0, [A6 - 0x8]
000026F0  5240                     addq.w     D0, 1
000026F2  3D40 FFE8                move.w     [A6 - 0x18], D0
label000026F6:
000026F6  2F0B                     move.l     -[A7], A3
000026F8  2F2E FFE8                move.l     -[A7], [A6 - 0x18]
000026FC  4267                     clr.w      -[A7]
000026FE  A91B                     syscall    MoveWindow
label00002700:
00002700  42A7                     clr.l      -[A7]
00002702  A8D8                     syscall    NewRgn
00002704  2817                     move.l     D4, [A7]
00002706  A87A                     syscall    GetClip
00002708  41EE FFE8                lea.l      A0, [A6 - 0x18]
0000270C  43EB 0010                lea.l      A1, [A3 + 0x10]
00002710  7003                     moveq.l    D0, 0x03
label00002712:
00002712  30D9                     move.w     [A0]+, [A1]+
00002714  51C8 FFFC                dbf        D0, -0x6 /* 00002712 */
00002718  302E FFDE                move.w     D0, [A6 - 0x22]
0000271C  B06E FFEE                cmp.w      D0, [A6 - 0x12]
00002720  6C32                     bge        +0x34 /* 00002754 */
00002722  41EE FFF0                lea.l      A0, [A6 - 0x10]
00002726  43EE FFE8                lea.l      A1, [A6 - 0x18]
0000272A  7003                     moveq.l    D0, 0x03
label0000272C:
0000272C  30D9                     move.w     [A0]+, [A1]+
0000272E  51C8 FFFC                dbf        D0, -0x6 /* 0000272C */
00002732  2045                     movea.l    A0, D5
00002734  2050                     movea.l    A0, [A0]
00002736  2245                     movea.l    A1, D5
00002738  2251                     movea.l    A1, [A1]
0000273A  3029 0012                move.w     D0, [A1 + 0x12]
0000273E  C1E8 004E                muls.w     D0, [A0 + 0x4E]
00002742  3D40 FFEE                move.w     [A6 - 0x12], D0
00002746  3D6E FFEE FFF2           move.w     [A6 - 0xE], [A6 - 0x12]
0000274C  486E FFF0                pea.l      [A6 - 0x10]
00002750  A928                     syscall    InvalRect
00002752  6006                     bra        +0x8 /* 0000275A */
label00002754:
00002754  046E 000F FFEE           subi.w     [A6 - 0x12], 0xF
label0000275A:
0000275A  486E FFE8                pea.l      [A6 - 0x18]
0000275E  A87B                     syscall    ClipRect
00002760  2F0B                     move.l     -[A7], A3
00002762  2F05                     move.l     -[A7], D5
00002764  4EAD 0162                jsr        [A5 + 0x162 /* export_40, CODE:1 @ 000039CA */]
00002768  102E 0014                move.b     D0, [A6 + 0x14]
0000276C  660A                     bne        +0xC /* 00002778 */
0000276E  4267                     clr.w      -[A7]
00002770  2F05                     move.l     -[A7], D5
00002772  3F3C 002C                move.w     -[A7], 0x2C /* ',' */
00002776  A9E7                     syscall    Pack0/ListManager
label00002778:
00002778  2F2E 0010                move.l     -[A7], [A6 + 0x10]
0000277C  2F0B                     move.l     -[A7], A3
0000277E  2F05                     move.l     -[A7], D5
00002780  4EBA FDA4                jsr        [PC - 0x25C /* 00002526 */]
00002784  2F04                     move.l     -[A7], D4
00002786  A879                     syscall    SetClip
00002788  2F04                     move.l     -[A7], D4
0000278A  A8D9                     syscall    DisposRgn/DisposeRgn
0000278C  2F0B                     move.l     -[A7], A3
0000278E  2F05                     move.l     -[A7], D5
00002790  4EAD 0162                jsr        [A5 + 0x162 /* export_40, CODE:1 @ 000039CA */]
00002794  1F3C 0001                move.b     -[A7], 0x1
00002798  2F05                     move.l     -[A7], D5
0000279A  3F3C 002C                move.w     -[A7], 0x2C /* ',' */
0000279E  A9E7                     syscall    Pack0/ListManager
label000027A0:
000027A0  4CDF 18F0                movem.l    D4,D5,D6,D7,A3,A4, [A7]+
000027A4  4E5E                     unlink     A6
000027A6  205F                     movea.l    A0, [A7]+
000027A8  DEFC 0010                add.w      A7, 0x10
000027AC  4ED0                     jmp        [A0]
export_315:
fn000027AE:
000027AE  4E56 FFF4                link       A6, -0x000C
000027B2  3D6D FBE4 FFFC           move.w     [A6 - 0x4], [A5 - 0x41C]
000027B8  3D6D FBE6 FFFE           move.w     [A6 - 0x2], [A5 - 0x41A]
000027BE  486E FFF8                pea.l      [A6 - 0x8]
000027C2  206E 000C                movea.l    A0, [A6 + 0xC]
000027C6  4868 0010                pea.l      [A0 + 0x10]
000027CA  486E FFF8                pea.l      [A6 - 0x8]
000027CE  A8AB                     syscall    UnionRect
000027D0  3D6E 0010 FFF8           move.w     [A6 - 0x8], [A6 + 0x10]
000027D6  3D6E 0012 FFFA           move.w     [A6 - 0x6], [A6 + 0x12]
000027DC  42A7                     clr.l      -[A7]
000027DE  2F2E 000C                move.l     -[A7], [A6 + 0xC]
000027E2  2F2D F950                move.l     -[A7], [A5 - 0x6B0]
000027E6  486E FFF8                pea.l      [A6 - 0x8]
000027EA  A92B                     syscall    GrowWindow
000027EC  2D5F FFF4                move.l     [A6 - 0xC], [A7]+
000027F0  6716                     beq        +0x18 /* 00002808 */
000027F2  4267                     clr.w      -[A7]
000027F4  1F3C 0001                move.b     -[A7], 0x1
000027F8  2F2E FFF4                move.l     -[A7], [A6 - 0xC]
000027FC  2F2E 000C                move.l     -[A7], [A6 + 0xC]
00002800  2F2E 0008                move.l     -[A7], [A6 + 0x8]
00002804  4EBA FDCC                jsr        [PC - 0x234 /* 000025D2 */]
label00002808:
00002808  4E5E                     unlink     A6
0000280A  205F                     movea.l    A0, [A7]+
0000280C  DEFC 000C                add.w      A7, 0xC
00002810  4ED0                     jmp        [A0]
fn00002812:
00002812  4E56 FFE4                link       A6, -0x001C
00002816  48E7 0308                movem.l    -[A7], D6,D7,A4
0000281A  206E 0008                movea.l    A0, [A6 + 0x8]
0000281E  2850                     movea.l    A4, [A0]
00002820  4A6C 0120                tst.w      [A4 + 0x120]
00002824  6600 00FA                bne        +0xFC /* 00002920 */
00002828  4A6C 0122                tst.w      [A4 + 0x122]
0000282C  6616                     bne        +0x18 /* 00002844 */
0000282E  2F3C 0040 0096           move.l     -[A7], 0x400096
00002834  2F2C 0104                move.l     -[A7], [A4 + 0x104]
00002838  2F2C 0124                move.l     -[A7], [A4 + 0x124]
0000283C  4EBA FF70                jsr        [PC - 0x90 /* 000027AE */]
00002840  6000 010E                bra        +0x110 /* 00002950 */
label00002844:
00002844  206C 0104                movea.l    A0, [A4 + 0x104]
00002848  43EE FFE8                lea.l      A1, [A6 - 0x18]
0000284C  41E8 0010                lea.l      A0, [A0 + 0x10]
00002850  7003                     moveq.l    D0, 0x03
label00002852:
00002852  32D8                     move.w     [A1]+, [A0]+
00002854  51C8 FFFC                dbf        D0, -0x6 /* 00002852 */
00002858  2F3C 0040 0096           move.l     -[A7], 0x400096
0000285E  2F2C 0104                move.l     -[A7], [A4 + 0x104]
00002862  2F2C 0124                move.l     -[A7], [A4 + 0x124]
00002866  4EBA FF46                jsr        [PC - 0xBA /* 000027AE */]
0000286A  206C 0104                movea.l    A0, [A4 + 0x104]
0000286E  302E FFEE                move.w     D0, [A6 - 0x12]
00002872  B068 0016                cmp.w      D0, [A0 + 0x16]
00002876  6F10                     ble        +0x12 /* 00002888 */
00002878  43EE FFE8                lea.l      A1, [A6 - 0x18]
0000287C  41E8 0010                lea.l      A0, [A0 + 0x10]
00002880  7003                     moveq.l    D0, 0x03
label00002882:
00002882  32D8                     move.w     [A1]+, [A0]+
00002884  51C8 FFFC                dbf        D0, -0x6 /* 00002882 */
label00002888:
00002888  302E FFEE                move.w     D0, [A6 - 0x12]
0000288C  907C 0018                sub.w      D0, 0x18
00002890  3D40 FFEA                move.w     [A6 - 0x16], D0
00002894  206C 0104                movea.l    A0, [A4 + 0x104]
00002898  3D68 0014 FFEC           move.w     [A6 - 0x14], [A0 + 0x14]
0000289E  486E FFE8                pea.l      [A6 - 0x18]
000028A2  A928                     syscall    InvalRect
000028A4  486E FFF0                pea.l      [A6 - 0x10]
000028A8  A88B                     syscall    GetFontInfo
000028AA  7000                     moveq.l    D0, 0x00
000028AC  322E FFF0                move.w     D1, [A6 - 0x10]
000028B0  D27C 0018                add.w      D1, 0x18
000028B4  342E FFF2                move.w     D2, [A6 - 0xE]
000028B8  D441                     add.w      D2, D1
000028BA  322E FFF6                move.w     D1, [A6 - 0xA]
000028BE  D242                     add.w      D1, D2
000028C0  342C 0138                move.w     D2, [A4 + 0x138]
000028C4  9441                     sub.w      D2, D1
000028C6  3002                     move.w     D0, D2
000028C8  E288                     lsr        D0, 1
000028CA  7218                     moveq.l    D1, 0x18
000028CC  D081                     add.l      D0, D1
000028CE  3C00                     move.w     D6, D0
000028D0  426E FFFE                clr.w      [A6 - 0x2]
000028D4  206C 0124                movea.l    A0, [A4 + 0x124]
000028D8  2050                     movea.l    A0, [A0]
000028DA  3D68 0014 FFE6           move.w     [A6 - 0x1A], [A0 + 0x14]
000028E0  206C 0124                movea.l    A0, [A4 + 0x124]
000028E4  2050                     movea.l    A0, [A0]
000028E6  3D68 0018 FFE4           move.w     [A6 - 0x1C], [A0 + 0x18]
000028EC  3E2E FFE6                move.w     D7, [A6 - 0x1A]
000028F0  6026                     bra        +0x28 /* 00002918 */
label000028F2:
000028F2  3D47 FFFC                move.w     [A6 - 0x4], D7
000028F6  486E FFE8                pea.l      [A6 - 0x18]
000028FA  2F2E FFFC                move.l     -[A7], [A6 - 0x4]
000028FE  2F2C 0124                move.l     -[A7], [A4 + 0x124]
00002902  3F3C 004C                move.w     -[A7], 0x4C /* 'L' */
00002906  A9E7                     syscall    Pack0/ListManager
00002908  3006                     move.w     D0, D6
0000290A  D16E FFE8                add.w      [A6 - 0x18], D0
0000290E  486E FFE8                pea.l      [A6 - 0x18]
00002912  A928                     syscall    InvalRect
00002914  5247                     addq.w     D7, 1
00002916  6938                     bvs        +0x3A /* 00002950 */
label00002918:
00002918  BE6E FFE4                cmp.w      D7, [A6 - 0x1C]
0000291C  6FD4                     ble        -0x2A /* 000028F2 */
0000291E  6030                     bra        +0x32 /* 00002950 */
label00002920:
00002920  7004                     moveq.l    D0, 0x04
00002922  B02C 012A                cmp.b      D0, [A4 + 0x12A]
00002926  6714                     beq        +0x16 /* 0000293C */
00002928  2F3C 0040 0096           move.l     -[A7], 0x400096
0000292E  2F2C 0104                move.l     -[A7], [A4 + 0x104]
00002932  2F2C 0124                move.l     -[A7], [A4 + 0x124]
00002936  4EBA FE76                jsr        [PC - 0x18A /* 000027AE */]
0000293A  6014                     bra        +0x16 /* 00002950 */
label0000293C:
0000293C  3F2C 0120                move.w     -[A7], [A4 + 0x120]
00002940  3F2C 0122                move.w     -[A7], [A4 + 0x122]
00002944  2F2C 0104                move.l     -[A7], [A4 + 0x104]
00002948  2F2C 0124                move.l     -[A7], [A4 + 0x124]
0000294C  4EBA FE60                jsr        [PC - 0x1A0 /* 000027AE */]
label00002950:
00002950  4CDF 10C0                movem.l    D6,D7,A4, [A7]+
00002954  4E5E                     unlink     A6
00002956  2E9F                     move.l     [A7], [A7]+
00002958  4E75                     rts
fn0000295A:
0000295A  4E56 FFF2                link       A6, -0x000E
0000295E  48E7 0108                movem.l    -[A7], D7,A4
00002962  206E 000C                movea.l    A0, [A6 + 0xC]
00002966  2850                     movea.l    A4, [A0]
00002968  426E FFFC                clr.w      [A6 - 0x4]
0000296C  302C 0018                move.w     D0, [A4 + 0x18]
00002970  5340                     subq.w     D0, 1
00002972  3D40 FFFA                move.w     [A6 - 0x6], D0
00002976  486E FFF2                pea.l      [A6 - 0xE]
0000297A  2F2E FFFA                move.l     -[A7], [A6 - 0x6]
0000297E  2F2E 000C                move.l     -[A7], [A6 + 0xC]
00002982  3F3C 004C                move.w     -[A7], 0x4C /* 'L' */
00002986  A9E7                     syscall    Pack0/ListManager
00002988  206E 0008                movea.l    A0, [A6 + 0x8]
0000298C  43EC 0014                lea.l      A1, [A4 + 0x14]
00002990  7003                     moveq.l    D0, 0x03
label00002992:
00002992  30D9                     move.w     [A0]+, [A1]+
00002994  51C8 FFFC                dbf        D0, -0x6 /* 00002992 */
00002998  302C 000C                move.w     D0, [A4 + 0xC]
0000299C  E340                     asl        D0.w, 1
0000299E  B06C 0010                cmp.w      D0, [A4 + 0x10]
000029A2  6F04                     ble        +0x6 /* 000029A8 */
000029A4  7E01                     moveq.l    D7, 0x01
000029A6  6004                     bra        +0x6 /* 000029AC */
label000029A8:
000029A8  3E2C 000C                move.w     D7, [A4 + 0xC]
label000029AC:
000029AC  486E FFF2                pea.l      [A6 - 0xE]
000029B0  3F2C 000E                move.w     -[A7], [A4 + 0xE]
000029B4  3F07                     move.w     -[A7], D7
000029B6  A8A9                     syscall    InsetRect
000029B8  302E FFF6                move.w     D0, [A6 - 0xA]
000029BC  B06C 0004                cmp.w      D0, [A4 + 0x4]
000029C0  6F08                     ble        +0xA /* 000029CA */
000029C2  206E 0008                movea.l    A0, [A6 + 0x8]
000029C6  5368 0004                subq.w     [A0 + 0x4], 1
label000029CA:
000029CA  4CDF 1080                movem.l    D7,A4, [A7]+
000029CE  4E5E                     unlink     A6
000029D0  205F                     movea.l    A0, [A7]+
000029D2  504F                     addq.w     A7, 8
000029D4  4ED0                     jmp        [A0]
export_316:
fn000029D6:
000029D6  4E56 FFDC                link       A6, -0x0024
000029DA  48E7 0708                movem.l    -[A7], D5,D6,D7,A4
000029DE  286E 000A                movea.l    A4, [A6 + 0xA]
000029E2  2054                     movea.l    A0, [A4]
000029E4  43EE FFE8                lea.l      A1, [A6 - 0x18]
000029E8  41E8 0014                lea.l      A0, [A0 + 0x14]
000029EC  7003                     moveq.l    D0, 0x03
label000029EE:
000029EE  32D8                     move.w     [A1]+, [A0]+
000029F0  51C8 FFFC                dbf        D0, -0x6 /* 000029EE */
000029F4  4247                     clr.w      D7
000029F6  302E 0010                move.w     D0, [A6 + 0x10]
000029FA  B06E FFEA                cmp.w      D0, [A6 - 0x16]
000029FE  6C0A                     bge        +0xC /* 00002A0A */
00002A00  3E2E 0010                move.w     D7, [A6 + 0x10]
00002A04  9E6E FFEA                sub.w      D7, [A6 - 0x16]
00002A08  6012                     bra        +0x14 /* 00002A1C */
label00002A0A:
00002A0A  302E 0010                move.w     D0, [A6 + 0x10]
00002A0E  B06E FFEE                cmp.w      D0, [A6 - 0x12]
00002A12  6F08                     ble        +0xA /* 00002A1C */
00002A14  3E2E 0010                move.w     D7, [A6 + 0x10]
00002A18  9E6E FFEE                sub.w      D7, [A6 - 0x12]
label00002A1C:
00002A1C  4246                     clr.w      D6
00002A1E  102E 0008                move.b     D0, [A6 + 0x8]
00002A22  6712                     beq        +0x14 /* 00002A36 */
00002A24  302E FFEC                move.w     D0, [A6 - 0x14]
00002A28  906E FFE8                sub.w      D0, [A6 - 0x18]
00002A2C  48C0                     ext.l      D0
00002A2E  81FC 0002                divs.w     D0, 0x2
00002A32  3A00                     move.w     D5, D0
00002A34  6002                     bra        +0x4 /* 00002A38 */
label00002A36:
00002A36  4245                     clr.w      D5
label00002A38:
00002A38  302E 000E                move.w     D0, [A6 + 0xE]
00002A3C  B06E FFE8                cmp.w      D0, [A6 - 0x18]
00002A40  6C0E                     bge        +0x10 /* 00002A50 */
00002A42  302E 000E                move.w     D0, [A6 + 0xE]
00002A46  906E FFE8                sub.w      D0, [A6 - 0x18]
00002A4A  3C00                     move.w     D6, D0
00002A4C  9C45                     sub.w      D6, D5
00002A4E  6024                     bra        +0x26 /* 00002A74 */
label00002A50:
00002A50  2F0C                     move.l     -[A7], A4
00002A52  486E FFE8                pea.l      [A6 - 0x18]
00002A56  4EBA FF02                jsr        [PC - 0xFE /* 0000295A */]
00002A5A  302E FFEC                move.w     D0, [A6 - 0x14]
00002A5E  5340                     subq.w     D0, 1
00002A60  B06E 000E                cmp.w      D0, [A6 + 0xE]
00002A64  6E0E                     bgt        +0x10 /* 00002A74 */
00002A66  302E 000E                move.w     D0, [A6 + 0xE]
00002A6A  906E FFEC                sub.w      D0, [A6 - 0x14]
00002A6E  5240                     addq.w     D0, 1
00002A70  3C00                     move.w     D6, D0
00002A72  DC45                     add.w      D6, D5
label00002A74:
00002A74  3F07                     move.w     -[A7], D7
00002A76  3F06                     move.w     -[A7], D6
00002A78  2F0C                     move.l     -[A7], A4
00002A7A  3F3C 0050                move.w     -[A7], 0x50 /* 'P' */
00002A7E  A9E7                     syscall    Pack0/ListManager
00002A80  4CDF 10E0                movem.l    D5,D6,D7,A4, [A7]+
00002A84  4E5E                     unlink     A6
00002A86  205F                     movea.l    A0, [A7]+
00002A88  DEFC 000A                add.w      A7, 0xA /* '\n' */
00002A8C  4ED0                     jmp        [A0]
export_317:
fn00002A8E:
00002A8E  4E56 FFFA                link       A6, -0x0006
00002A92  48E7 0108                movem.l    -[A7], D7,A4
00002A96  286E 000A                movea.l    A4, [A6 + 0xA]
00002A9A  4207                     clr.b      D7
00002A9C  7000                     moveq.l    D0, 0x00
00002A9E  2D40 FFFC                move.l     [A6 - 0x4], D0
label00002AA2:
00002AA2  4267                     clr.w      -[A7]
00002AA4  1F3C 0001                move.b     -[A7], 0x1
00002AA8  486E FFFC                pea.l      [A6 - 0x4]
00002AAC  2F0C                     move.l     -[A7], A4
00002AAE  3F3C 003C                move.w     -[A7], 0x3C /* '<' */
00002AB2  A9E7                     syscall    Pack0/ListManager
00002AB4  101F                     move.b     D0, [A7]+
00002AB6  6738                     beq        +0x3A /* 00002AF0 */
00002AB8  202E FFFC                move.l     D0, [A6 - 0x4]
00002ABC  B0AE 000E                cmp.l      D0, [A6 + 0xE]
00002AC0  661E                     bne        +0x20 /* 00002AE0 */
00002AC2  7E01                     moveq.l    D7, 0x01
00002AC4  4267                     clr.w      -[A7]
00002AC6  1F3C 0001                move.b     -[A7], 0x1
00002ACA  1F3C 0001                move.b     -[A7], 0x1
00002ACE  486E FFFC                pea.l      [A6 - 0x4]
00002AD2  2F0C                     move.l     -[A7], A4
00002AD4  3F3C 0048                move.w     -[A7], 0x48 /* 'H' */
00002AD8  A9E7                     syscall    Pack0/ListManager
00002ADA  101F                     move.b     D0, [A7]+
00002ADC  66C4                     bne        -0x3A /* 00002AA2 */
00002ADE  6010                     bra        +0x12 /* 00002AF0 */
label00002AE0:
00002AE0  4267                     clr.w      -[A7]
00002AE2  2F2E FFFC                move.l     -[A7], [A6 - 0x4]
00002AE6  2F0C                     move.l     -[A7], A4
00002AE8  3F3C 005C                move.w     -[A7], 0x5C /* '\\' */
00002AEC  A9E7                     syscall    Pack0/ListManager
00002AEE  60B2                     bra        -0x4C /* 00002AA2 */
label00002AF0:
00002AF0  1007                     move.b     D0, D7
00002AF2  6610                     bne        +0x12 /* 00002B04 */
00002AF4  1F3C 0001                move.b     -[A7], 0x1
00002AF8  2F2E 000E                move.l     -[A7], [A6 + 0xE]
00002AFC  2F0C                     move.l     -[A7], A4
00002AFE  3F3C 005C                move.w     -[A7], 0x5C /* '\\' */
00002B02  A9E7                     syscall    Pack0/ListManager
label00002B04:
00002B04  2F2E 000E                move.l     -[A7], [A6 + 0xE]
00002B08  2F0C                     move.l     -[A7], A4
00002B0A  1F2E 0008                move.b     -[A7], [A6 + 0x8]
00002B0E  4EBA FEC6                jsr        [PC - 0x13A /* 000029D6 */]
00002B12  4CDF 1080                movem.l    D7,A4, [A7]+
00002B16  4E5E                     unlink     A6
00002B18  205F                     movea.l    A0, [A7]+
00002B1A  DEFC 000A                add.w      A7, 0xA /* '\n' */
00002B1E  4ED0                     jmp        [A0]
fn00002B20:
00002B20  4E56 FFF4                link       A6, -0x000C
00002B24  48E7 0318                movem.l    -[A7], D6,D7,A3,A4
00002B28  266E 000C                movea.l    A3, [A6 + 0xC]
00002B2C  3C2E 0008                move.w     D6, [A6 + 0x8]
00002B30  3E2E 000A                move.w     D7, [A6 + 0xA]
00002B34  7000                     moveq.l    D0, 0x00
00002B36  2D40 FFF8                move.l     [A6 - 0x8], D0
00002B3A  4267                     clr.w      -[A7]
00002B3C  1F3C 0001                move.b     -[A7], 0x1
00002B40  486E FFF8                pea.l      [A6 - 0x8]
00002B44  2F0B                     move.l     -[A7], A3
00002B46  3F3C 003C                move.w     -[A7], 0x3C /* '<' */
00002B4A  A9E7                     syscall    Pack0/ListManager
00002B4C  101F                     move.b     D0, [A7]+
00002B4E  6700 00C0                beq        +0xC2 /* 00002C10 */
00002B52  2053                     movea.l    A0, [A3]
00002B54  49E8 0048                lea.l      A4, [A0 + 0x48]
00002B58  3007                     move.w     D0, D7
00002B5A  D06E FFFA                add.w      D0, [A6 - 0x6]
00002B5E  3D40 FFFE                move.w     [A6 - 0x2], D0
00002B62  B06C 0002                cmp.w      D0, [A4 + 0x2]
00002B66  5DC0                     slt        D0
00002B68  4A00                     tst.b      D0
00002B6A  660E                     bne        +0x10 /* 00002B7A */
00002B6C  322E FFFE                move.w     D1, [A6 - 0x2]
00002B70  B26C 0006                cmp.w      D1, [A4 + 0x6]
00002B74  5CC1                     sge        D1
00002B76  8001                     or.b       D0, D1
00002B78  673C                     beq        +0x3E /* 00002BB6 */
label00002B7A:
00002B7A  302C 0006                move.w     D0, [A4 + 0x6]
00002B7E  906C 0002                sub.w      D0, [A4 + 0x2]
00002B82  322E FFFE                move.w     D1, [A6 - 0x2]
00002B86  48C1                     ext.l      D1
00002B88  83C0                     divs.w     D1, D0
00002B8A  4841                     swap.w     D1
00002B8C  4A41                     tst.w      D1
00002B8E  D26C 0002                add.w      D1, [A4 + 0x2]
00002B92  3D41 FFFE                move.w     [A6 - 0x2], D1
00002B96  6C10                     bge        +0x12 /* 00002BA8 */
00002B98  302C 0006                move.w     D0, [A4 + 0x6]
00002B9C  D06E FFFE                add.w      D0, [A6 - 0x2]
00002BA0  906C 0002                sub.w      D0, [A4 + 0x2]
00002BA4  3D40 FFFE                move.w     [A6 - 0x2], D0
label00002BA8:
00002BA8  4A47                     tst.w      D7
00002BAA  6F04                     ble        +0x6 /* 00002BB0 */
00002BAC  5246                     addq.w     D6, 1
00002BAE  6006                     bra        +0x8 /* 00002BB6 */
label00002BB0:
00002BB0  4A47                     tst.w      D7
00002BB2  6C02                     bge        +0x4 /* 00002BB6 */
00002BB4  5346                     subq.w     D6, 1
label00002BB6:
00002BB6  3006                     move.w     D0, D6
00002BB8  D06E FFF8                add.w      D0, [A6 - 0x8]
00002BBC  3D40 FFFC                move.w     [A6 - 0x4], D0
00002BC0  B054                     cmp.w      D0, [A4]
00002BC2  5CC0                     sge        D0
00002BC4  4A00                     tst.b      D0
00002BC6  675C                     beq        +0x5E /* 00002C24 */
00002BC8  322E FFFC                move.w     D1, [A6 - 0x4]
00002BCC  B26C 0004                cmp.w      D1, [A4 + 0x4]
00002BD0  5DC1                     slt        D1
00002BD2  C001                     and.b      D0, D1
00002BD4  674E                     beq        +0x50 /* 00002C24 */
00002BD6  486E FFF4                pea.l      [A6 - 0xC]
00002BDA  486E FFF6                pea.l      [A6 - 0xA]
00002BDE  2F2E FFFC                move.l     -[A7], [A6 - 0x4]
00002BE2  2F0B                     move.l     -[A7], A3
00002BE4  3F3C 0034                move.w     -[A7], 0x34 /* '4' */
00002BE8  A9E7                     syscall    Pack0/ListManager
00002BEA  4A6E FFF6                tst.w      [A6 - 0xA]
00002BEE  6F34                     ble        +0x36 /* 00002C24 */
00002BF0  4267                     clr.w      -[A7]
00002BF2  2F2E FFF8                move.l     -[A7], [A6 - 0x8]
00002BF6  2F0B                     move.l     -[A7], A3
00002BF8  3F3C 005C                move.w     -[A7], 0x5C /* '\\' */
00002BFC  A9E7                     syscall    Pack0/ListManager
00002BFE  1F3C 0001                move.b     -[A7], 0x1
00002C02  2F2E FFFC                move.l     -[A7], [A6 - 0x4]
00002C06  2F0B                     move.l     -[A7], A3
00002C08  3F3C 005C                move.w     -[A7], 0x5C /* '\\' */
00002C0C  A9E7                     syscall    Pack0/ListManager
00002C0E  6014                     bra        +0x16 /* 00002C24 */
label00002C10:
00002C10  7000                     moveq.l    D0, 0x00
00002C12  2D40 FFFC                move.l     [A6 - 0x4], D0
00002C16  4267                     clr.w      -[A7]
00002C18  2F2E FFFC                move.l     -[A7], [A6 - 0x4]
00002C1C  2F0B                     move.l     -[A7], A3
00002C1E  3F3C 005C                move.w     -[A7], 0x5C /* '\\' */
00002C22  A9E7                     syscall    Pack0/ListManager
label00002C24:
00002C24  2F2E FFFC                move.l     -[A7], [A6 - 0x4]
00002C28  2F0B                     move.l     -[A7], A3
00002C2A  4267                     clr.w      -[A7]
00002C2C  4EBA FDA8                jsr        [PC - 0x258 /* 000029D6 */]
00002C30  4CDF 18C0                movem.l    D6,D7,A3,A4, [A7]+
00002C34  4E5E                     unlink     A6
00002C36  205F                     movea.l    A0, [A7]+
00002C38  504F                     addq.w     A7, 8
00002C3A  4ED0                     jmp        [A0]
fn00002C3C:
00002C3C  4E56 FFFC                link       A6, -0x0004
00002C40  2F0C                     move.l     -[A7], A4
00002C42  286E 0008                movea.l    A4, [A6 + 0x8]
00002C46  526C FFFE                addq.w     [A4 - 0x2], 1
label00002C4A:
00002C4A  536C FFFE                subq.w     [A4 - 0x2], 1
00002C4E  3D7C 0001 FFFC           move.w     [A6 - 0x4], 0x1
00002C54  486E FFFE                pea.l      [A6 - 0x2]
00002C58  486E FFFC                pea.l      [A6 - 0x4]
00002C5C  2F2C FFFC                move.l     -[A7], [A4 - 0x4]
00002C60  2F2C 0008                move.l     -[A7], [A4 + 0x8]
00002C64  3F3C 0038                move.w     -[A7], 0x38 /* '8' */
00002C68  A9E7                     syscall    Pack0/ListManager
00002C6A  4A6E FFFC                tst.w      [A6 - 0x4]
00002C6E  56C0                     sne        D0
00002C70  4A00                     tst.b      D0
00002C72  660A                     bne        +0xC /* 00002C7E */
00002C74  4A6C FFFE                tst.w      [A4 - 0x2]
00002C78  57C1                     seq        D1
00002C7A  8001                     or.b       D0, D1
00002C7C  67CC                     beq        -0x32 /* 00002C4A */
label00002C7E:
00002C7E  285F                     movea.l    A4, [A7]+
00002C80  4E5E                     unlink     A6
00002C82  2E9F                     move.l     [A7], [A7]+
00002C84  4E75                     rts
fn00002C86:
00002C86  4E56 FFF0                link       A6, -0x0010
00002C8A  48E7 0708                movem.l    -[A7], D5,D6,D7,A4
00002C8E  3C2E 000C                move.w     D6, [A6 + 0xC]
00002C92  1D7C 0001 000E           move.b     [A6 + 0xE], 0x1
00002C98  7000                     moveq.l    D0, 0x00
00002C9A  2D40 FFFC                move.l     [A6 - 0x4], D0
00002C9E  4267                     clr.w      -[A7]
00002CA0  1F3C 0001                move.b     -[A7], 0x1
00002CA4  486E FFFC                pea.l      [A6 - 0x4]
00002CA8  2F2E 0008                move.l     -[A7], [A6 + 0x8]
00002CAC  3F3C 003C                move.w     -[A7], 0x3C /* '<' */
00002CB0  A9E7                     syscall    Pack0/ListManager
00002CB2  101F                     move.b     D0, [A7]+
00002CB4  206E 0008                movea.l    A0, [A6 + 0x8]
00002CB8  2050                     movea.l    A0, [A0]
00002CBA  49E8 0048                lea.l      A4, [A0 + 0x48]
00002CBE  102D F943                move.b     D0, [A5 - 0x6BD]
00002CC2  6700 00D2                beq        +0xD4 /* 00002D96 */
00002CC6  C02D F945                and.b      D0, [A5 - 0x6BB]
00002CCA  6700 00CA                beq        +0xCC /* 00002D96 */
00002CCE  3006                     move.w     D0, D6
00002CD0  0440 001C                subi.w     D0, 0x1C
00002CD4  677C                     beq        +0x7E /* 00002D52 */
00002CD6  5340                     subq.w     D0, 1
00002CD8  6700 0090                beq        +0x92 /* 00002D6A */
00002CDC  5340                     subq.w     D0, 1
00002CDE  6708                     beq        +0xA /* 00002CE8 */
00002CE0  5340                     subq.w     D0, 1
00002CE2  6732                     beq        +0x34 /* 00002D16 */
00002CE4  6000 00A8                bra        +0xAA /* 00002D8E */
label00002CE8:
00002CE8  426E FFFC                clr.w      [A6 - 0x4]
00002CEC  102D F942                move.b     D0, [A5 - 0x6BE]
00002CF0  6710                     beq        +0x12 /* 00002D02 */
00002CF2  42A7                     clr.l      -[A7]
00002CF4  2F2E 0008                move.l     -[A7], [A6 + 0x8]
00002CF8  4267                     clr.w      -[A7]
00002CFA  4EBA FCDA                jsr        [PC - 0x326 /* 000029D6 */]
00002CFE  6000 0280                bra        +0x282 /* 00002F80 */
label00002D02:
00002D02  2F2E FFFC                move.l     -[A7], [A6 - 0x4]
00002D06  2F2E 0008                move.l     -[A7], [A6 + 0x8]
00002D0A  1F3C 0001                move.b     -[A7], 0x1
00002D0E  4EBA FD7E                jsr        [PC - 0x282 /* 00002A8E */]
00002D12  6000 026C                bra        +0x26E /* 00002F80 */
label00002D16:
00002D16  302C 0004                move.w     D0, [A4 + 0x4]
00002D1A  5340                     subq.w     D0, 1
00002D1C  3D40 FFFC                move.w     [A6 - 0x4], D0
00002D20  2F0E                     move.l     -[A7], A6
00002D22  4EBA FF18                jsr        [PC - 0xE8 /* 00002C3C */]
00002D26  102D F942                move.b     D0, [A5 - 0x6BE]
00002D2A  6712                     beq        +0x14 /* 00002D3E */
00002D2C  2F2E FFFC                move.l     -[A7], [A6 - 0x4]
00002D30  2F2E 0008                move.l     -[A7], [A6 + 0x8]
00002D34  4267                     clr.w      -[A7]
00002D36  4EBA FC9E                jsr        [PC - 0x362 /* 000029D6 */]
00002D3A  6000 0244                bra        +0x246 /* 00002F80 */
label00002D3E:
00002D3E  2F2E FFFC                move.l     -[A7], [A6 - 0x4]
00002D42  2F2E 0008                move.l     -[A7], [A6 + 0x8]
00002D46  1F3C 0001                move.b     -[A7], 0x1
00002D4A  4EBA FD42                jsr        [PC - 0x2BE /* 00002A8E */]
00002D4E  6000 0230                bra        +0x232 /* 00002F80 */
label00002D52:
00002D52  426E FFFE                clr.w      [A6 - 0x2]
00002D56  2F2E FFFC                move.l     -[A7], [A6 - 0x4]
00002D5A  2F2E 0008                move.l     -[A7], [A6 + 0x8]
00002D5E  1F3C 0001                move.b     -[A7], 0x1
00002D62  4EBA FD2A                jsr        [PC - 0x2D6 /* 00002A8E */]
00002D66  6000 0218                bra        +0x21A /* 00002F80 */
label00002D6A:
00002D6A  302C 0006                move.w     D0, [A4 + 0x6]
00002D6E  5340                     subq.w     D0, 1
00002D70  3D40 FFFE                move.w     [A6 - 0x2], D0
00002D74  2F0E                     move.l     -[A7], A6
00002D76  4EBA FEC4                jsr        [PC - 0x13C /* 00002C3C */]
00002D7A  2F2E FFFC                move.l     -[A7], [A6 - 0x4]
00002D7E  2F2E 0008                move.l     -[A7], [A6 + 0x8]
00002D82  1F3C 0001                move.b     -[A7], 0x1
00002D86  4EBA FD06                jsr        [PC - 0x2FA /* 00002A8E */]
00002D8A  6000 01F4                bra        +0x1F6 /* 00002F80 */
label00002D8E:
00002D8E  422E 000E                clr.b      [A6 + 0xE]
00002D92  6000 01EC                bra        +0x1EE /* 00002F80 */
label00002D96:
00002D96  102D F943                move.b     D0, [A5 - 0x6BD]
00002D9A  6700 018A                beq        +0x18C /* 00002F26 */
00002D9E  2F2E 0008                move.l     -[A7], [A6 + 0x8]
00002DA2  486E FFF0                pea.l      [A6 - 0x10]
00002DA6  4EBA FBB2                jsr        [PC - 0x44E /* 0000295A */]
00002DAA  3E2E FFF4                move.w     D7, [A6 - 0xC]
00002DAE  9E6E FFF0                sub.w      D7, [A6 - 0x10]
00002DB2  3A2E FFF6                move.w     D5, [A6 - 0xA]
00002DB6  9A6E FFF2                sub.w      D5, [A6 - 0xE]
00002DBA  3006                     move.w     D0, D6
00002DBC  0440 001C                subi.w     D0, 0x1C
00002DC0  6700 00E8                beq        +0xEA /* 00002EAA */
00002DC4  5340                     subq.w     D0, 1
00002DC6  6700 0116                beq        +0x118 /* 00002EDE */
00002DCA  5340                     subq.w     D0, 1
00002DCC  6708                     beq        +0xA /* 00002DD6 */
00002DCE  5340                     subq.w     D0, 1
00002DD0  6762                     beq        +0x64 /* 00002E34 */
00002DD2  6000 014C                bra        +0x14E /* 00002F20 */
label00002DD6:
00002DD6  102D F942                move.b     D0, [A5 - 0x6BE]
00002DDA  670C                     beq        +0xE /* 00002DE8 */
00002DDC  302E FFF0                move.w     D0, [A6 - 0x10]
00002DE0  9047                     sub.w      D0, D7
00002DE2  3D40 FFFC                move.w     [A6 - 0x4], D0
00002DE6  6018                     bra        +0x1A /* 00002E00 */
label00002DE8:
00002DE8  302E FFFC                move.w     D0, [A6 - 0x4]
00002DEC  B06E FFF0                cmp.w      D0, [A6 - 0x10]
00002DF0  6708                     beq        +0xA /* 00002DFA */
00002DF2  3D6E FFF0 FFFC           move.w     [A6 - 0x4], [A6 - 0x10]
00002DF8  6006                     bra        +0x8 /* 00002E00 */
label00002DFA:
00002DFA  3007                     move.w     D0, D7
00002DFC  916E FFFC                sub.w      [A6 - 0x4], D0
label00002E00:
00002E00  4A6E FFFC                tst.w      [A6 - 0x4]
00002E04  6C04                     bge        +0x6 /* 00002E0A */
00002E06  426E FFFC                clr.w      [A6 - 0x4]
label00002E0A:
00002E0A  102D F942                move.b     D0, [A5 - 0x6BE]
00002E0E  6712                     beq        +0x14 /* 00002E22 */
00002E10  2F2E FFFC                move.l     -[A7], [A6 - 0x4]
00002E14  2F2E 0008                move.l     -[A7], [A6 + 0x8]
00002E18  4267                     clr.w      -[A7]
00002E1A  4EBA FBBA                jsr        [PC - 0x446 /* 000029D6 */]
00002E1E  6000 0160                bra        +0x162 /* 00002F80 */
label00002E22:
00002E22  2F2E FFFC                move.l     -[A7], [A6 - 0x4]
00002E26  2F2E 0008                move.l     -[A7], [A6 + 0x8]
00002E2A  4267                     clr.w      -[A7]
00002E2C  4EBA FC60                jsr        [PC - 0x3A0 /* 00002A8E */]
00002E30  6000 014E                bra        +0x150 /* 00002F80 */
label00002E34:
00002E34  102D F942                move.b     D0, [A5 - 0x6BE]
00002E38  670E                     beq        +0x10 /* 00002E48 */
00002E3A  3007                     move.w     D0, D7
00002E3C  D06E FFF4                add.w      D0, [A6 - 0xC]
00002E40  5340                     subq.w     D0, 1
00002E42  3D40 FFFC                move.w     [A6 - 0x4], D0
00002E46  601E                     bra        +0x20 /* 00002E66 */
label00002E48:
00002E48  302E FFF4                move.w     D0, [A6 - 0xC]
00002E4C  5340                     subq.w     D0, 1
00002E4E  B06E FFFC                cmp.w      D0, [A6 - 0x4]
00002E52  670C                     beq        +0xE /* 00002E60 */
00002E54  302E FFF4                move.w     D0, [A6 - 0xC]
00002E58  5340                     subq.w     D0, 1
00002E5A  3D40 FFFC                move.w     [A6 - 0x4], D0
00002E5E  6006                     bra        +0x8 /* 00002E66 */
label00002E60:
00002E60  3007                     move.w     D0, D7
00002E62  D16E FFFC                add.w      [A6 - 0x4], D0
label00002E66:
00002E66  302E FFFC                move.w     D0, [A6 - 0x4]
00002E6A  B06C 0004                cmp.w      D0, [A4 + 0x4]
00002E6E  6D0A                     blt        +0xC /* 00002E7A */
00002E70  302C 0004                move.w     D0, [A4 + 0x4]
00002E74  5340                     subq.w     D0, 1
00002E76  3D40 FFFC                move.w     [A6 - 0x4], D0
label00002E7A:
00002E7A  2F0E                     move.l     -[A7], A6
00002E7C  4EBA FDBE                jsr        [PC - 0x242 /* 00002C3C */]
00002E80  102D F942                move.b     D0, [A5 - 0x6BE]
00002E84  6712                     beq        +0x14 /* 00002E98 */
00002E86  2F2E FFFC                move.l     -[A7], [A6 - 0x4]
00002E8A  2F2E 0008                move.l     -[A7], [A6 + 0x8]
00002E8E  4267                     clr.w      -[A7]
00002E90  4EBA FB44                jsr        [PC - 0x4BC /* 000029D6 */]
00002E94  6000 00EA                bra        +0xEC /* 00002F80 */
label00002E98:
00002E98  2F2E FFFC                move.l     -[A7], [A6 - 0x4]
00002E9C  2F2E 0008                move.l     -[A7], [A6 + 0x8]
00002EA0  4267                     clr.w      -[A7]
00002EA2  4EBA FBEA                jsr        [PC - 0x416 /* 00002A8E */]
00002EA6  6000 00D8                bra        +0xDA /* 00002F80 */
label00002EAA:
00002EAA  302E FFFE                move.w     D0, [A6 - 0x2]
00002EAE  B06E FFF2                cmp.w      D0, [A6 - 0xE]
00002EB2  6708                     beq        +0xA /* 00002EBC */
00002EB4  3D6E FFF2 FFFE           move.w     [A6 - 0x2], [A6 - 0xE]
00002EBA  6006                     bra        +0x8 /* 00002EC2 */
label00002EBC:
00002EBC  3007                     move.w     D0, D7
00002EBE  916E FFFE                sub.w      [A6 - 0x2], D0
label00002EC2:
00002EC2  4A6E FFFE                tst.w      [A6 - 0x2]
00002EC6  6C04                     bge        +0x6 /* 00002ECC */
00002EC8  426E FFFE                clr.w      [A6 - 0x2]
label00002ECC:
00002ECC  2F2E FFFC                move.l     -[A7], [A6 - 0x4]
00002ED0  2F2E 0008                move.l     -[A7], [A6 + 0x8]
00002ED4  4267                     clr.w      -[A7]
00002ED6  4EBA FBB6                jsr        [PC - 0x44A /* 00002A8E */]
00002EDA  6000 00A4                bra        +0xA6 /* 00002F80 */
label00002EDE:
00002EDE  302E FFFE                move.w     D0, [A6 - 0x2]
00002EE2  B06E FFF6                cmp.w      D0, [A6 - 0xA]
00002EE6  6708                     beq        +0xA /* 00002EF0 */
00002EE8  3D6E FFF6 FFFE           move.w     [A6 - 0x2], [A6 - 0xA]
00002EEE  6006                     bra        +0x8 /* 00002EF6 */
label00002EF0:
00002EF0  3007                     move.w     D0, D7
00002EF2  D16E FFFE                add.w      [A6 - 0x2], D0
label00002EF6:
00002EF6  302E FFFE                move.w     D0, [A6 - 0x2]
00002EFA  B06C 0006                cmp.w      D0, [A4 + 0x6]
00002EFE  6D0A                     blt        +0xC /* 00002F0A */
00002F00  302C 0006                move.w     D0, [A4 + 0x6]
00002F04  5340                     subq.w     D0, 1
00002F06  3D40 FFFE                move.w     [A6 - 0x2], D0
label00002F0A:
00002F0A  2F0E                     move.l     -[A7], A6
00002F0C  4EBA FD2E                jsr        [PC - 0x2D2 /* 00002C3C */]
00002F10  2F2E FFFC                move.l     -[A7], [A6 - 0x4]
00002F14  2F2E 0008                move.l     -[A7], [A6 + 0x8]
00002F18  4267                     clr.w      -[A7]
00002F1A  4EBA FB72                jsr        [PC - 0x48E /* 00002A8E */]
00002F1E  6060                     bra        +0x62 /* 00002F80 */
label00002F20:
00002F20  422E 000E                clr.b      [A6 + 0xE]
00002F24  605A                     bra        +0x5C /* 00002F80 */
label00002F26:
00002F26  3006                     move.w     D0, D6
00002F28  0440 001C                subi.w     D0, 0x1C
00002F2C  672E                     beq        +0x30 /* 00002F5C */
00002F2E  5340                     subq.w     D0, 1
00002F30  673A                     beq        +0x3C /* 00002F6C */
00002F32  5340                     subq.w     D0, 1
00002F34  6706                     beq        +0x8 /* 00002F3C */
00002F36  5340                     subq.w     D0, 1
00002F38  6712                     beq        +0x14 /* 00002F4C */
00002F3A  6040                     bra        +0x42 /* 00002F7C */
label00002F3C:
00002F3C  2F2E 0008                move.l     -[A7], [A6 + 0x8]
00002F40  2F3C FFFF 0000           move.l     -[A7], 0xFFFF0000
00002F46  4EBA FBD8                jsr        [PC - 0x428 /* 00002B20 */]
00002F4A  6034                     bra        +0x36 /* 00002F80 */
label00002F4C:
00002F4C  2F2E 0008                move.l     -[A7], [A6 + 0x8]
00002F50  2F3C 0001 0000           move.l     -[A7], 0x10000
00002F56  4EBA FBC8                jsr        [PC - 0x438 /* 00002B20 */]
00002F5A  6024                     bra        +0x26 /* 00002F80 */
label00002F5C:
00002F5C  2F2E 0008                move.l     -[A7], [A6 + 0x8]
00002F60  2F3C 0000 FFFF           move.l     -[A7], 0xFFFF
00002F66  4EBA FBB8                jsr        [PC - 0x448 /* 00002B20 */]
00002F6A  6014                     bra        +0x16 /* 00002F80 */
label00002F6C:
00002F6C  2F2E 0008                move.l     -[A7], [A6 + 0x8]
00002F70  2F3C 0000 0001           move.l     -[A7], 0x1
00002F76  4EBA FBA8                jsr        [PC - 0x458 /* 00002B20 */]
00002F7A  6004                     bra        +0x6 /* 00002F80 */
label00002F7C:
00002F7C  422E 000E                clr.b      [A6 + 0xE]
label00002F80:
00002F80  4CDF 10E0                movem.l    D5,D6,D7,A4, [A7]+
00002F84  4E5E                     unlink     A6
00002F86  205F                     movea.l    A0, [A7]+
00002F88  5C4F                     addq.w     A7, 6
00002F8A  4ED0                     jmp        [A0]
fn00002F8C:
00002F8C  4E56 FD00                link       A6, -0x0300
00002F90  2F0C                     move.l     -[A7], A4
00002F92  206E 0008                movea.l    A0, [A6 + 0x8]
00002F96  2850                     movea.l    A4, [A0]
00002F98  7020                     moveq.l    D0, 0x20
00002F9A  C0AC 0134                and.l      D0, [A4 + 0x134]
00002F9E  4A80                     tst.l      D0
00002FA0  6612                     bne        +0x14 /* 00002FB4 */
00002FA2  3F3C 0026                move.w     -[A7], 0x26 /* '&' */
00002FA6  487A 00EA                pea.l      [PC + 0xEA /* 00003092, value 0x44D6973, pstring "Misc" */]
00002FAA  486E FF00                pea.l      [A6 - 0x100]
00002FAE  4EAD 0282                jsr        [A5 + 0x282 /* export_76, CODE:1 @ 00005CDA */]
00002FB2  600C                     bra        +0xE /* 00002FC0 */
label00002FB4:
00002FB4  2F2C 0118                move.l     -[A7], [A4 + 0x118]
00002FB8  486E FF00                pea.l      [A6 - 0x100]
00002FBC  4EAD 0D8A                jsr        [A5 + 0xD8A /* export_429, CODE:16 @ 00000686 */]
label00002FC0:
00002FC0  3F3C 0008                move.w     -[A7], 0x8
00002FC4  487A 00CC                pea.l      [PC + 0xCC /* 00003092, value 0x44D6973, pstring "Misc" */]
00002FC8  486E FE00                pea.l      [A6 - 0x200]
00002FCC  4EAD 0282                jsr        [A5 + 0x282 /* export_76, CODE:1 @ 00005CDA */]
00002FD0  486E FE00                pea.l      [A6 - 0x200]
00002FD4  486E FF00                pea.l      [A6 - 0x100]
00002FD8  486E FD00                pea.l      [A6 - 0x300]
00002FDC  3F3C 0002                move.w     -[A7], 0x2
00002FE0  4EAD 03AA                jsr        [A5 + 0x3AA /* export_113, CODE:3 @ 000001C2 */]
00002FE4  41EE FE00                lea.l      A0, [A6 - 0x200]
00002FE8  43EE FD00                lea.l      A1, [A6 - 0x300]
00002FEC  707F                     moveq.l    D0, 0x7F
label00002FEE:
00002FEE  30D9                     move.w     [A0]+, [A1]+
00002FF0  51C8 FFFC                dbf        D0, -0x6 /* 00002FEE */
00002FF4  2F2C 0130                move.l     -[A7], [A4 + 0x130]
00002FF8  3F3C 0005                move.w     -[A7], 0x5
00002FFC  486E FE00                pea.l      [A6 - 0x200]
00003000  A947                     syscall    SetMenuItemText/SetItem
00003002  2F2C 0130                move.l     -[A7], [A4 + 0x130]
00003006  2F3C 0000 0001           move.l     -[A7], 0x1
0000300C  A945                     syscall    CheckItem
0000300E  2F2C 0130                move.l     -[A7], [A4 + 0x130]
00003012  2F3C 0000 0002           move.l     -[A7], 0x2
00003018  A945                     syscall    CheckItem
0000301A  2F2C 0130                move.l     -[A7], [A4 + 0x130]
0000301E  2F3C 0000 0003           move.l     -[A7], 0x3
00003024  A945                     syscall    CheckItem
00003026  2F2C 0130                move.l     -[A7], [A4 + 0x130]
0000302A  2F3C 0000 0004           move.l     -[A7], 0x4
00003030  A945                     syscall    CheckItem
00003032  2F2C 0130                move.l     -[A7], [A4 + 0x130]
00003036  2F3C 0000 0005           move.l     -[A7], 0x5
0000303C  A945                     syscall    CheckItem
0000303E  2F2C 0130                move.l     -[A7], [A4 + 0x130]
00003042  102C 012A                move.b     D0, [A4 + 0x12A]
00003046  4880                     ext.w      D0
00003048  5240                     addq.w     D0, 1
0000304A  3F00                     move.w     -[A7], D0
0000304C  1F3C 0001                move.b     -[A7], 0x1
00003050  A945                     syscall    CheckItem
00003052  2F2C 0130                move.l     -[A7], [A4 + 0x130]
00003056  3F3C 0007                move.w     -[A7], 0x7
0000305A  1F2C 012B                move.b     -[A7], [A4 + 0x12B]
0000305E  A945                     syscall    CheckItem
00003060  3F3C 0082                move.w     -[A7], 0x82
00003064  2F2C 0134                move.l     -[A7], [A4 + 0x134]
00003068  4EAD 022A                jsr        [A5 + 0x22A /* export_65, CODE:1 @ 000058A8 */]
0000306C  7004                     moveq.l    D0, 0x04
0000306E  B02C 012A                cmp.b      D0, [A4 + 0x12A]
00003072  660C                     bne        +0xE /* 00003080 */
00003074  2F2C 0130                move.l     -[A7], [A4 + 0x130]
00003078  3F3C 0007                move.w     -[A7], 0x7
0000307C  A93A                     syscall    DisableItem
0000307E  600A                     bra        +0xC /* 0000308A */
label00003080:
00003080  2F2C 0130                move.l     -[A7], [A4 + 0x130]
00003084  3F3C 0007                move.w     -[A7], 0x7
00003088  A939                     syscall    EnableItem
label0000308A:
0000308A  285F                     movea.l    A4, [A7]+
0000308C  4E5E                     unlink     A6
0000308E  2E9F                     move.l     [A7], [A7]+
00003090  4E75                     rts
00003092  044D 6973                subi.w     A5, 0x6973 /* 'is' */
00003096  6300 4E56                bls        +0x4E58 /* 00007EEE */
// begin alternate branch 00003098-0000309C
fn00003098:
00003098  4E56 FFF0                link       A6, -0x0010
// end alternate branch 00003098-0000309C
fn00003098: // (misaligned)
0000309A  FFF0                     .invalid   <<F/7/7>>
0000309C  48E7 0F18                movem.l    -[A7], D4,D5,D6,D7,A3,A4
000030A0  266E 0008                movea.l    A3, [A6 + 0x8]
000030A4  206B FEEA                movea.l    A0, [A3 - 0x116]
000030A8  2850                     movea.l    A4, [A0]
000030AA  3D7C 0001 FFF6           move.w     [A6 - 0xA], 0x1
000030B0  302B 000C                move.w     D0, [A3 + 0xC]
000030B4  5340                     subq.w     D0, 1
000030B6  3D40 FFF4                move.w     [A6 - 0xC], D0
000030BA  3E2E FFF6                move.w     D7, [A6 - 0xA]
000030BE  6056                     bra        +0x58 /* 00003116 */
label000030C0:
000030C0  3C07                     move.w     D6, D7
000030C2  3007                     move.w     D0, D7
000030C4  5240                     addq.w     D0, 1
000030C6  3D40 FFF2                move.w     [A6 - 0xE], D0
000030CA  3D6B 000C FFF0           move.w     [A6 - 0x10], [A3 + 0xC]
000030D0  3A2E FFF2                move.w     D5, [A6 - 0xE]
000030D4  6018                     bra        +0x1A /* 000030EE */
label000030D6:
000030D6  3005                     move.w     D0, D5
000030D8  D040                     add.w      D0, D0
000030DA  3206                     move.w     D1, D6
000030DC  D241                     add.w      D1, D1
000030DE  3434 00FE                move.w     D2, [A4 + D0.w - 0x2]
000030E2  B474 10FE                cmp.w      D2, [A4 + D1.w - 0x2]
000030E6  6C02                     bge        +0x4 /* 000030EA */
000030E8  3C05                     move.w     D6, D5
label000030EA:
000030EA  5245                     addq.w     D5, 1
000030EC  6906                     bvs        +0x8 /* 000030F4 */
label000030EE:
000030EE  BA6E FFF0                cmp.w      D5, [A6 - 0x10]
000030F2  6FE2                     ble        -0x1C /* 000030D6 */
label000030F4:
000030F4  3006                     move.w     D0, D6
000030F6  D040                     add.w      D0, D0
000030F8  3834 00FE                move.w     D4, [A4 + D0.w - 0x2]
000030FC  3007                     move.w     D0, D7
000030FE  D040                     add.w      D0, D0
00003100  3206                     move.w     D1, D6
00003102  D241                     add.w      D1, D1
00003104  39B4 00FE 10FE           move.w     [A4 + D1.w - 0x2], [A4 + D0.w - 0x2]
0000310A  3007                     move.w     D0, D7
0000310C  D040                     add.w      D0, D0
0000310E  3984 00FE                move.w     [A4 + D0.w - 0x2], D4
00003112  5247                     addq.w     D7, 1
00003114  6906                     bvs        +0x8 /* 0000311C */
label00003116:
00003116  BE6E FFF4                cmp.w      D7, [A6 - 0xC]
0000311A  6FA4                     ble        -0x5A /* 000030C0 */
label0000311C:
0000311C  4CDF 18F0                movem.l    D4,D5,D6,D7,A3,A4, [A7]+
00003120  4E5E                     unlink     A6
00003122  2E9F                     move.l     [A7], [A7]+
00003124  4E75                     rts
fn00003126:
00003126  4E56 FFEA                link       A6, -0x0016
0000312A  48E7 0F18                movem.l    -[A7], D4,D5,D6,D7,A3,A4
0000312E  226E 0008                movea.l    A1, [A6 + 0x8]
00003132  2069 FEEA                movea.l    A0, [A1 - 0x116]
00003136  2650                     movea.l    A3, [A0]
00003138  2069 FEE6                movea.l    A0, [A1 - 0x11A]
0000313C  2850                     movea.l    A4, [A0]
0000313E  3D7C 0001 FFF0           move.w     [A6 - 0x10], 0x1
00003144  206E 0008                movea.l    A0, [A6 + 0x8]
00003148  3028 000C                move.w     D0, [A0 + 0xC]
0000314C  5340                     subq.w     D0, 1
0000314E  3D40 FFEE                move.w     [A6 - 0x12], D0
00003152  3A2E FFF0                move.w     D5, [A6 - 0x10]
00003156  6000 0144                bra        +0x146 /* 0000329C */
label0000315A:
0000315A  3E05                     move.w     D7, D5
0000315C  3005                     move.w     D0, D5
0000315E  5240                     addq.w     D0, 1
00003160  3D40 FFEC                move.w     [A6 - 0x14], D0
00003164  206E 0008                movea.l    A0, [A6 + 0x8]
00003168  3D68 000C FFEA           move.w     [A6 - 0x16], [A0 + 0xC]
0000316E  3C2E FFEC                move.w     D6, [A6 - 0x14]
00003172  6000 00D4                bra        +0xD6 /* 00003248 */
label00003176:
00003176  7001                     moveq.l    D0, 0x01
00003178  206E 0008                movea.l    A0, [A6 + 0x8]
0000317C  B028 000E                cmp.b      D0, [A0 + 0xE]
00003180  6672                     bne        +0x74 /* 000031F4 */
00003182  3006                     move.w     D0, D6
00003184  E540                     asl        D0.w, 2
00003186  4AB4 00FC                tst.l      [A4 + D0.w - 0x4]
0000318A  57C0                     seq        D0
0000318C  4A00                     tst.b      D0
0000318E  660E                     bne        +0x10 /* 0000319E */
00003190  3207                     move.w     D1, D7
00003192  E541                     asl        D1.w, 2
00003194  4AB4 10FC                tst.l      [A4 + D1.w - 0x4]
00003198  57C1                     seq        D1
0000319A  8001                     or.b       D0, D1
0000319C  6732                     beq        +0x34 /* 000031D0 */
label0000319E:
0000319E  3006                     move.w     D0, D6
000031A0  E540                     asl        D0.w, 2
000031A2  4AB4 00FC                tst.l      [A4 + D0.w - 0x4]
000031A6  57C0                     seq        D0
000031A8  4A00                     tst.b      D0
000031AA  6712                     beq        +0x14 /* 000031BE */
000031AC  3207                     move.w     D1, D7
000031AE  E541                     asl        D1.w, 2
000031B0  4AB4 10FC                tst.l      [A4 + D1.w - 0x4]
000031B4  57C1                     seq        D1
000031B6  C001                     and.b      D0, D1
000031B8  6704                     beq        +0x6 /* 000031BE */
000031BA  4244                     clr.w      D4
000031BC  6064                     bra        +0x66 /* 00003222 */
label000031BE:
000031BE  3006                     move.w     D0, D6
000031C0  E540                     asl        D0.w, 2
000031C2  4AB4 00FC                tst.l      [A4 + D0.w - 0x4]
000031C6  6604                     bne        +0x6 /* 000031CC */
000031C8  78FF                     moveq.l    D4, 0xFFFFFFFF
000031CA  6056                     bra        +0x58 /* 00003222 */
label000031CC:
000031CC  7801                     moveq.l    D4, 0x01
000031CE  6052                     bra        +0x54 /* 00003222 */
label000031D0:
000031D0  4267                     clr.w      -[A7]
000031D2  3006                     move.w     D0, D6
000031D4  E540                     asl        D0.w, 2
000031D6  2074 00FC                movea.l    A0, [A4 + D0.w - 0x4]
000031DA  2F10                     move.l     -[A7], [A0]
000031DC  3007                     move.w     D0, D7
000031DE  E540                     asl        D0.w, 2
000031E0  2074 00FC                movea.l    A0, [A4 + D0.w - 0x4]
000031E4  2F10                     move.l     -[A7], [A0]
000031E6  4267                     clr.w      -[A7]
000031E8  1F3C 0001                move.b     -[A7], 0x1
000031EC  4EAD 0672                jsr        [A5 + 0x672 /* export_202, CODE:3 @ 00002B00 */]
000031F0  381F                     move.w     D4, [A7]+
000031F2  602E                     bra        +0x30 /* 00003222 */
label000031F4:
000031F4  3006                     move.w     D0, D6
000031F6  E540                     asl        D0.w, 2
000031F8  3207                     move.w     D1, D7
000031FA  E541                     asl        D1.w, 2
000031FC  2434 00FC                move.l     D2, [A4 + D0.w - 0x4]
00003200  B4B4 10FC                cmp.l      D2, [A4 + D1.w - 0x4]
00003204  6C04                     bge        +0x6 /* 0000320A */
00003206  78FF                     moveq.l    D4, 0xFFFFFFFF
00003208  6018                     bra        +0x1A /* 00003222 */
label0000320A:
0000320A  3006                     move.w     D0, D6
0000320C  E540                     asl        D0.w, 2
0000320E  3207                     move.w     D1, D7
00003210  E541                     asl        D1.w, 2
00003212  2434 00FC                move.l     D2, [A4 + D0.w - 0x4]
00003216  B4B4 10FC                cmp.l      D2, [A4 + D1.w - 0x4]
0000321A  6604                     bne        +0x6 /* 00003220 */
0000321C  4244                     clr.w      D4
0000321E  6002                     bra        +0x4 /* 00003222 */
label00003220:
00003220  7801                     moveq.l    D4, 0x01
label00003222:
00003222  4A44                     tst.w      D4
00003224  6616                     bne        +0x18 /* 0000323C */
00003226  3006                     move.w     D0, D6
00003228  D040                     add.w      D0, D0
0000322A  3207                     move.w     D1, D7
0000322C  D241                     add.w      D1, D1
0000322E  3433 00FE                move.w     D2, [A3 + D0.w - 0x2]
00003232  B473 10FE                cmp.w      D2, [A3 + D1.w - 0x2]
00003236  6C0C                     bge        +0xE /* 00003244 */
00003238  3E06                     move.w     D7, D6
0000323A  6008                     bra        +0xA /* 00003244 */
label0000323C:
0000323C  70FF                     moveq.l    D0, 0xFFFFFFFF
0000323E  B044                     cmp.w      D0, D4
00003240  6602                     bne        +0x4 /* 00003244 */
00003242  3E06                     move.w     D7, D6
label00003244:
00003244  5246                     addq.w     D6, 1
00003246  6908                     bvs        +0xA /* 00003250 */
label00003248:
00003248  BC6E FFEA                cmp.w      D6, [A6 - 0x16]
0000324C  6F00 FF28                ble        -0xD6 /* 00003176 */
label00003250:
00003250  BA47                     cmp.w      D5, D7
00003252  6744                     beq        +0x46 /* 00003298 */
00003254  3007                     move.w     D0, D7
00003256  D040                     add.w      D0, D0
00003258  3D73 00FE FFF8           move.w     [A6 - 0x8], [A3 + D0.w - 0x2]
0000325E  3005                     move.w     D0, D5
00003260  D040                     add.w      D0, D0
00003262  3207                     move.w     D1, D7
00003264  D241                     add.w      D1, D1
00003266  37B3 00FE 10FE           move.w     [A3 + D1.w - 0x2], [A3 + D0.w - 0x2]
0000326C  3005                     move.w     D0, D5
0000326E  D040                     add.w      D0, D0
00003270  37AE FFF8 00FE           move.w     [A3 + D0.w - 0x2], [A6 - 0x8]
00003276  3007                     move.w     D0, D7
00003278  E540                     asl        D0.w, 2
0000327A  2D74 00FC FFF2           move.l     [A6 - 0xE], [A4 + D0.w - 0x4]
00003280  3005                     move.w     D0, D5
00003282  E540                     asl        D0.w, 2
00003284  3207                     move.w     D1, D7
00003286  E541                     asl        D1.w, 2
00003288  29B4 00FC 10FC           move.l     [A4 + D1.w - 0x4], [A4 + D0.w - 0x4]
0000328E  3005                     move.w     D0, D5
00003290  E540                     asl        D0.w, 2
00003292  29AE FFF2 00FC           move.l     [A4 + D0.w - 0x4], [A6 - 0xE]
label00003298:
00003298  5245                     addq.w     D5, 1
0000329A  6908                     bvs        +0xA /* 000032A4 */
label0000329C:
0000329C  BA6E FFEE                cmp.w      D5, [A6 - 0x12]
000032A0  6F00 FEB8                ble        -0x146 /* 0000315A */
label000032A4:
000032A4  4CDF 18F0                movem.l    D4,D5,D6,D7,A3,A4, [A7]+
000032A8  4E5E                     unlink     A6
000032AA  2E9F                     move.l     [A7], [A7]+
000032AC  4E75                     rts
fn000032AE:
000032AE  4E56 FECA                link       A6, -0x0136
000032B2  48E7 0F18                movem.l    -[A7], D4,D5,D6,D7,A3,A4
000032B6  266E 0008                movea.l    A3, [A6 + 0x8]
000032BA  7001                     moveq.l    D0, 0x01
000032BC  B02E 000E                cmp.b      D0, [A6 + 0xE]
000032C0  57C0                     seq        D0
000032C2  4A00                     tst.b      D0
000032C4  660C                     bne        +0xE /* 000032D2 */
000032C6  7202                     moveq.l    D1, 0x02
000032C8  B22E 000E                cmp.b      D1, [A6 + 0xE]
000032CC  57C1                     seq        D1
000032CE  8001                     or.b       D0, D1
000032D0  6716                     beq        +0x18 /* 000032E8 */
label000032D2:
000032D2  42A7                     clr.l      -[A7]
000032D4  302E 000C                move.w     D0, [A6 + 0xC]
000032D8  E540                     asl        D0.w, 2
000032DA  48C0                     ext.l      D0
000032DC  2F00                     move.l     -[A7], D0
000032DE  4EAD 04FA                jsr        [A5 + 0x4FA /* export_155, CODE:3 @ 000024FC */]
000032E2  2D5F FEE6                move.l     [A6 - 0x11A], [A7]+
000032E6  600C                     bra        +0xE /* 000032F4 */
label000032E8:
000032E8  42A7                     clr.l      -[A7]
000032EA  42A7                     clr.l      -[A7]
000032EC  4EAD 04FA                jsr        [A5 + 0x4FA /* export_155, CODE:3 @ 000024FC */]
000032F0  2D5F FEE6                move.l     [A6 - 0x11A], [A7]+
label000032F4:
000032F4  42A7                     clr.l      -[A7]
000032F6  3EB8 0220                move.w     [A7], [0x00000220 /* MemErr */]
000032FA  4267                     clr.w      -[A7]
000032FC  4EAD 00F2                jsr        [A5 + 0xF2 /* export_26, CODE:1 @ 00002F14 */]
00003300  101F                     move.b     D0, [A7]+
00003302  6714                     beq        +0x16 /* 00003318 */
00003304  42A7                     clr.l      -[A7]
00003306  302E 000C                move.w     D0, [A6 + 0xC]
0000330A  E340                     asl        D0.w, 1
0000330C  48C0                     ext.l      D0
0000330E  2F00                     move.l     -[A7], D0
00003310  4EAD 04FA                jsr        [A5 + 0x4FA /* export_155, CODE:3 @ 000024FC */]
00003314  2D5F FEEA                move.l     [A6 - 0x116], [A7]+
label00003318:
00003318  42A7                     clr.l      -[A7]
0000331A  3EB8 0220                move.w     [A7], [0x00000220 /* MemErr */]
0000331E  4267                     clr.w      -[A7]
00003320  4EAD 00F2                jsr        [A5 + 0xF2 /* export_26, CODE:1 @ 00002F14 */]
00003324  101F                     move.b     D0, [A7]+
00003326  6700 028E                beq        +0x290 /* 000035B6 */
0000332A  2F2E FEEA                move.l     -[A7], [A6 - 0x116]
0000332E  4EAD 0232                jsr        [A5 + 0x232 /* export_66, CODE:1 @ 00005914 */]
00003332  2F2E FEEA                move.l     -[A7], [A6 - 0x116]
00003336  205F                     movea.l    A0, [A7]+
00003338  A029                     syscall    HLock
0000333A  2F2E FEE6                move.l     -[A7], [A6 - 0x11A]
0000333E  4EAD 0232                jsr        [A5 + 0x232 /* export_66, CODE:1 @ 00005914 */]
00003342  2F2E FEE6                move.l     -[A7], [A6 - 0x11A]
00003346  205F                     movea.l    A0, [A7]+
00003348  A029                     syscall    HLock
0000334A  206E FEEA                movea.l    A0, [A6 - 0x116]
0000334E  2050                     movea.l    A0, [A0]
00003350  2D48 FEDC                move.l     [A6 - 0x124], A0
00003354  206E FEE6                movea.l    A0, [A6 - 0x11A]
00003358  2850                     movea.l    A4, [A0]
0000335A  4267                     clr.w      -[A7]
0000335C  A99B                     syscall    SetResLoad
0000335E  422E FEE1                clr.b      [A6 - 0x11F]
00003362  3D6E 000C FEDA           move.w     [A6 - 0x126], [A6 + 0xC]
00003368  3E2E FEDA                move.w     D7, [A6 - 0x126]
0000336C  6000 00EC                bra        +0xEE /* 0000345A */
label00003370:
00003370  42A7                     clr.l      -[A7]
00003372  2053                     movea.l    A0, [A3]
00003374  2068 003C                movea.l    A0, [A0 + 0x3C]
00003378  2050                     movea.l    A0, [A0]
0000337A  3F28 0110                move.w     -[A7], [A0 + 0x110]
0000337E  2F2E 0010                move.l     -[A7], [A6 + 0x10]
00003382  302E 000C                move.w     D0, [A6 + 0xC]
00003386  9047                     sub.w      D0, D7
00003388  5240                     addq.w     D0, 1
0000338A  3F00                     move.w     -[A7], D0
0000338C  4EAD 08C2                jsr        [A5 + 0x8C2 /* export_276, CODE:4 @ 000002E4 */]
00003390  2A17                     move.l     D5, [A7]
00003392  486E FFF6                pea.l      [A6 - 0xA]
00003396  486E 0010                pea.l      [A6 + 0x10]
0000339A  486E FEEE                pea.l      [A6 - 0x112]
0000339E  A9A8                     syscall    GetResInfo
000033A0  206E FEDC                movea.l    A0, [A6 - 0x124]
000033A4  3007                     move.w     D0, D7
000033A6  D040                     add.w      D0, D0
000033A8  31AE FFF6 00FE           move.w     [A0 + D0.w - 0x2], [A6 - 0xA]
000033AE  7002                     moveq.l    D0, 0x02
000033B0  B02E 000E                cmp.b      D0, [A6 + 0xE]
000033B4  6618                     bne        +0x1A /* 000033CE */
000033B6  3007                     move.w     D0, D7
000033B8  E540                     asl        D0.w, 2
000033BA  2F00                     move.l     -[A7], D0
000033BC  42A7                     clr.l      -[A7]
000033BE  2F05                     move.l     -[A7], D5
000033C0  A9A5                     syscall    GetResourceSizeOnDisk/SizeResource/SizeRsrc
000033C2  221F                     move.l     D1, [A7]+
000033C4  201F                     move.l     D0, [A7]+
000033C6  2981 00FC                move.l     [A4 + D0.w - 0x4], D1
000033CA  6000 008C                bra        +0x8E /* 00003458 */
label000033CE:
000033CE  7001                     moveq.l    D0, 0x01
000033D0  B02E 000E                cmp.b      D0, [A6 + 0xE]
000033D4  6600 0082                bne        +0x84 /* 00003458 */
000033D8  4A2E FEEE                tst.b      [A6 - 0x112]
000033DC  57C0                     seq        D0
000033DE  4A00                     tst.b      D0
000033E0  660A                     bne        +0xC /* 000033EC */
000033E2  802E FEE1                or.b       D0, [A6 - 0x11F]
000033E6  0240 0001                andi.w     D0, 0x1
000033EA  670C                     beq        +0xE /* 000033F8 */
label000033EC:
000033EC  3007                     move.w     D0, D7
000033EE  E540                     asl        D0.w, 2
000033F0  7200                     moveq.l    D1, 0x00
000033F2  2981 00FC                move.l     [A4 + D0.w - 0x4], D1
000033F6  6060                     bra        +0x62 /* 00003458 */
label000033F8:
000033F8  3007                     move.w     D0, D7
000033FA  E540                     asl        D0.w, 2
000033FC  2F00                     move.l     -[A7], D0
000033FE  42A7                     clr.l      -[A7]
00003400  4241                     clr.w      D1
00003402  122E FEEE                move.b     D1, [A6 - 0x112]
00003406  5241                     addq.w     D1, 1
00003408  48C1                     ext.l      D1
0000340A  2F01                     move.l     -[A7], D1
0000340C  4EAD 04FA                jsr        [A5 + 0x4FA /* export_155, CODE:3 @ 000024FC */]
00003410  221F                     move.l     D1, [A7]+
00003412  201F                     move.l     D0, [A7]+
00003414  2981 00FC                move.l     [A4 + D0.w - 0x4], D1
00003418  42A7                     clr.l      -[A7]
0000341A  3EB8 0220                move.w     [A7], [0x00000220 /* MemErr */]
0000341E  4267                     clr.w      -[A7]
00003420  4EAD 00F2                jsr        [A5 + 0xF2 /* export_26, CODE:1 @ 00002F14 */]
00003424  101F                     move.b     D0, [A7]+
00003426  6720                     beq        +0x22 /* 00003448 */
00003428  486E FEEE                pea.l      [A6 - 0x112]
0000342C  3007                     move.w     D0, D7
0000342E  E540                     asl        D0.w, 2
00003430  2074 00FC                movea.l    A0, [A4 + D0.w - 0x4]
00003434  2F10                     move.l     -[A7], [A0]
00003436  4240                     clr.w      D0
00003438  102E FEEE                move.b     D0, [A6 - 0x112]
0000343C  5240                     addq.w     D0, 1
0000343E  48C0                     ext.l      D0
00003440  2F00                     move.l     -[A7], D0
00003442  4EAD 0522                jsr        [A5 + 0x522 /* export_160, CODE:3 @ 00002532 */]
00003446  6010                     bra        +0x12 /* 00003458 */
label00003448:
00003448  3007                     move.w     D0, D7
0000344A  E540                     asl        D0.w, 2
0000344C  7200                     moveq.l    D1, 0x00
0000344E  2981 00FC                move.l     [A4 + D0.w - 0x4], D1
00003452  1D7C 0001 FEE1           move.b     [A6 - 0x11F], 0x1
label00003458:
00003458  5347                     subq.w     D7, 1
label0000345A:
0000345A  7001                     moveq.l    D0, 0x01
0000345C  B047                     cmp.w      D0, D7
0000345E  6F00 FF10                ble        -0xEE /* 00003370 */
00003462  4A2E 000E                tst.b      [A6 + 0xE]
00003466  57C0                     seq        D0
00003468  4A00                     tst.b      D0
0000346A  660C                     bne        +0xE /* 00003478 */
0000346C  7204                     moveq.l    D1, 0x04
0000346E  B22E 000E                cmp.b      D1, [A6 + 0xE]
00003472  57C1                     seq        D1
00003474  8001                     or.b       D0, D1
00003476  6708                     beq        +0xA /* 00003480 */
label00003478:
00003478  2F0E                     move.l     -[A7], A6
0000347A  4EBA FC1C                jsr        [PC - 0x3E4 /* 00003098 */]
0000347E  600E                     bra        +0x10 /* 0000348E */
label00003480:
00003480  7003                     moveq.l    D0, 0x03
00003482  B02E 000E                cmp.b      D0, [A6 + 0xE]
00003486  6706                     beq        +0x8 /* 0000348E */
00003488  2F0E                     move.l     -[A7], A6
0000348A  4EBA FC9A                jsr        [PC - 0x366 /* 00003126 */]
label0000348E:
0000348E  2053                     movea.l    A0, [A3]
00003490  302E 000C                move.w     D0, [A6 + 0xC]
00003494  48C0                     ext.l      D0
00003496  81E8 004E                divs.w     D0, [A0 + 0x4E]
0000349A  3800                     move.w     D4, D0
0000349C  2053                     movea.l    A0, [A3]
0000349E  302E 000C                move.w     D0, [A6 + 0xC]
000034A2  48C0                     ext.l      D0
000034A4  81E8 004E                divs.w     D0, [A0 + 0x4E]
000034A8  4840                     swap.w     D0
000034AA  4A40                     tst.w      D0
000034AC  6702                     beq        +0x4 /* 000034B0 */
000034AE  5244                     addq.w     D4, 1
label000034B0:
000034B0  4267                     clr.w      -[A7]
000034B2  3F04                     move.w     -[A7], D4
000034B4  4267                     clr.w      -[A7]
000034B6  2F0B                     move.l     -[A7], A3
000034B8  3F3C 0008                move.w     -[A7], 0x8
000034BC  A9E7                     syscall    Pack0/ListManager
000034BE  3D5F FFFC                move.w     [A6 - 0x4], [A7]+
000034C2  2053                     movea.l    A0, [A3]
000034C4  2D68 0050 FEE2           move.l     [A6 - 0x11E], [A0 + 0x50]
000034CA  2F2E FEE2                move.l     -[A7], [A6 - 0x11E]
000034CE  302E 000C                move.w     D0, [A6 + 0xC]
000034D2  E340                     asl        D0.w, 1
000034D4  48C0                     ext.l      D0
000034D6  2F00                     move.l     -[A7], D0
000034D8  4EAD 0512                jsr        [A5 + 0x512 /* export_158, CODE:3 @ 0000251E */]
000034DC  2053                     movea.l    A0, [A3]
000034DE  2D48 FED6                move.l     [A6 - 0x12A], A0
000034E2  3D7C 0001 FED4           move.w     [A6 - 0x12C], 0x1
000034E8  3D6E 000C FED2           move.w     [A6 - 0x12E], [A6 + 0xC]
000034EE  3C2E FED4                move.w     D6, [A6 - 0x12C]
000034F2  602E                     bra        +0x30 /* 00003522 */
label000034F4:
000034F4  206E FEDC                movea.l    A0, [A6 - 0x124]
000034F8  3006                     move.w     D0, D6
000034FA  D040                     add.w      D0, D0
000034FC  226E FEE2                movea.l    A1, [A6 - 0x11E]
00003500  2251                     movea.l    A1, [A1]
00003502  3206                     move.w     D1, D6
00003504  D241                     add.w      D1, D1
00003506  33B0 00FE 10FE           move.w     [A1 + D1.w - 0x2], [A0 + D0.w - 0x2]
0000350C  3006                     move.w     D0, D6
0000350E  5340                     subq.w     D0, 1
00003510  E340                     asl        D0.w, 1
00003512  206E FED6                movea.l    A0, [A6 - 0x12A]
00003516  3206                     move.w     D1, D6
00003518  D241                     add.w      D1, D1
0000351A  3180 1054                move.w     [A0 + D1.w + 0x54], D0
0000351E  5246                     addq.w     D6, 1
00003520  6906                     bvs        +0x8 /* 00003528 */
label00003522:
00003522  BC6E FED2                cmp.w      D6, [A6 - 0x12E]
00003526  6FCC                     ble        -0x32 /* 000034F4 */
label00003528:
00003528  302E 000C                move.w     D0, [A6 + 0xC]
0000352C  5240                     addq.w     D0, 1
0000352E  3D40 FED0                move.w     [A6 - 0x130], D0
00003532  2053                     movea.l    A0, [A3]
00003534  3028 0054                move.w     D0, [A0 + 0x54]
00003538  48C0                     ext.l      D0
0000353A  81FC 0002                divs.w     D0, 0x2
0000353E  5240                     addq.w     D0, 1
00003540  3D40 FECE                move.w     [A6 - 0x132], D0
00003544  3C2E FED0                move.w     D6, [A6 - 0x130]
00003548  6016                     bra        +0x18 /* 00003560 */
label0000354A:
0000354A  302E 000C                move.w     D0, [A6 + 0xC]
0000354E  E340                     asl        D0.w, 1
00003550  206E FED6                movea.l    A0, [A6 - 0x12A]
00003554  3206                     move.w     D1, D6
00003556  D241                     add.w      D1, D1
00003558  3180 1054                move.w     [A0 + D1.w + 0x54], D0
0000355C  5246                     addq.w     D6, 1
0000355E  6906                     bvs        +0x8 /* 00003566 */
label00003560:
00003560  BC6E FECE                cmp.w      D6, [A6 - 0x132]
00003564  6FE4                     ble        -0x1A /* 0000354A */
label00003566:
00003566  2F2E FEEA                move.l     -[A7], [A6 - 0x116]
0000356A  205F                     movea.l    A0, [A7]+
0000356C  A023                     syscall    DisposHandle/DisposeHandle
0000356E  7001                     moveq.l    D0, 0x01
00003570  B02E 000E                cmp.b      D0, [A6 + 0xE]
00003574  6632                     bne        +0x34 /* 000035A8 */
00003576  3D7C 0001 FECC           move.w     [A6 - 0x134], 0x1
0000357C  3D6E 000C FECA           move.w     [A6 - 0x136], [A6 + 0xC]
00003582  3E2E FECC                move.w     D7, [A6 - 0x134]
00003586  601A                     bra        +0x1C /* 000035A2 */
label00003588:
00003588  3007                     move.w     D0, D7
0000358A  E540                     asl        D0.w, 2
0000358C  4AB4 00FC                tst.l      [A4 + D0.w - 0x4]
00003590  670C                     beq        +0xE /* 0000359E */
00003592  3007                     move.w     D0, D7
00003594  E540                     asl        D0.w, 2
00003596  2F34 00FC                move.l     -[A7], [A4 + D0.w - 0x4]
0000359A  205F                     movea.l    A0, [A7]+
0000359C  A023                     syscall    DisposHandle/DisposeHandle
label0000359E:
0000359E  5247                     addq.w     D7, 1
000035A0  6906                     bvs        +0x8 /* 000035A8 */
label000035A2:
000035A2  BE6E FECA                cmp.w      D7, [A6 - 0x136]
000035A6  6FE0                     ble        -0x1E /* 00003588 */
label000035A8:
000035A8  2F2E FEE6                move.l     -[A7], [A6 - 0x11A]
000035AC  205F                     movea.l    A0, [A7]+
000035AE  A023                     syscall    DisposHandle/DisposeHandle
000035B0  1F3C 0001                move.b     -[A7], 0x1
000035B4  A99B                     syscall    SetResLoad
label000035B6:
000035B6  4CDF 18F0                movem.l    D4,D5,D6,D7,A3,A4, [A7]+
000035BA  4E5E                     unlink     A6
000035BC  205F                     movea.l    A0, [A7]+
000035BE  DEFC 000C                add.w      A7, 0xC
000035C2  4ED0                     jmp        [A0]
000035C4  4E56 0000                link       A6, 0
000035C8  206E 0010                movea.l    A0, [A6 + 0x10]
000035CC  226E 000C                movea.l    A1, [A6 + 0xC]
000035D0  3010                     move.w     D0, [A0]
000035D2  B051                     cmp.w      D0, [A1]
000035D4  6606                     bne        +0x8 /* 000035DC */
000035D6  426E 0014                clr.w      [A6 + 0x14]
000035DA  6006                     bra        +0x8 /* 000035E2 */
label000035DC:
000035DC  3D7C 0001 0014           move.w     [A6 + 0x14], 0x1
label000035E2:
000035E2  4E5E                     unlink     A6
000035E4  205F                     movea.l    A0, [A7]+
000035E6  DEFC 000C                add.w      A7, 0xC
000035EA  4ED0                     jmp        [A0]
fn000035EC:
000035EC  4E56 FFF4                link       A6, -0x000C
000035F0  48E7 0118                movem.l    -[A7], D7,A3,A4
000035F4  266E 0008                movea.l    A3, [A6 + 0x8]
000035F8  4247                     clr.w      D7
000035FA  7000                     moveq.l    D0, 0x00
000035FC  2D40 FFF8                move.l     [A6 - 0x8], D0
label00003600:
00003600  4267                     clr.w      -[A7]
00003602  1F3C 0001                move.b     -[A7], 0x1
00003606  486E FFF8                pea.l      [A6 - 0x8]
0000360A  2F0B                     move.l     -[A7], A3
0000360C  3F3C 003C                move.w     -[A7], 0x3C /* '<' */
00003610  A9E7                     syscall    Pack0/ListManager
00003612  101F                     move.b     D0, [A7]+
00003614  671C                     beq        +0x1E /* 00003632 */
00003616  5247                     addq.w     D7, 1
00003618  4267                     clr.w      -[A7]
0000361A  1F3C 0001                move.b     -[A7], 0x1
0000361E  1F3C 0001                move.b     -[A7], 0x1
00003622  486E FFF8                pea.l      [A6 - 0x8]
00003626  2F0B                     move.l     -[A7], A3
00003628  3F3C 0048                move.w     -[A7], 0x48 /* 'H' */
0000362C  A9E7                     syscall    Pack0/ListManager
0000362E  101F                     move.b     D0, [A7]+
00003630  66CE                     bne        -0x30 /* 00003600 */
label00003632:
00003632  42A7                     clr.l      -[A7]
00003634  3007                     move.w     D0, D7
00003636  E340                     asl        D0.w, 1
00003638  5440                     addq.w     D0, 2
0000363A  48C0                     ext.l      D0
0000363C  2F00                     move.l     -[A7], D0
0000363E  4EAD 04FA                jsr        [A5 + 0x4FA /* export_155, CODE:3 @ 000024FC */]
00003642  285F                     movea.l    A4, [A7]+
00003644  42A7                     clr.l      -[A7]
00003646  3EB8 0220                move.w     [A7], [0x00000220 /* MemErr */]
0000364A  4267                     clr.w      -[A7]
0000364C  4EAD 00F2                jsr        [A5 + 0xF2 /* export_26, CODE:1 @ 00002F14 */]
00003650  101F                     move.b     D0, [A7]+
00003652  6608                     bne        +0xA /* 0000365C */
00003654  7000                     moveq.l    D0, 0x00
00003656  2D40 000C                move.l     [A6 + 0xC], D0
0000365A  6062                     bra        +0x64 /* 000036BE */
label0000365C:
0000365C  2054                     movea.l    A0, [A4]
0000365E  3087                     move.w     [A0], D7
00003660  4247                     clr.w      D7
00003662  7000                     moveq.l    D0, 0x00
00003664  2D40 FFF8                move.l     [A6 - 0x8], D0
label00003668:
00003668  4267                     clr.w      -[A7]
0000366A  1F3C 0001                move.b     -[A7], 0x1
0000366E  486E FFF8                pea.l      [A6 - 0x8]
00003672  2F0B                     move.l     -[A7], A3
00003674  3F3C 003C                move.w     -[A7], 0x3C /* '<' */
00003678  A9E7                     syscall    Pack0/ListManager
0000367A  101F                     move.b     D0, [A7]+
0000367C  673C                     beq        +0x3E /* 000036BA */
0000367E  5247                     addq.w     D7, 1
00003680  3D7C 0002 FFFE           move.w     [A6 - 0x2], 0x2
00003686  2054                     movea.l    A0, [A4]
00003688  3007                     move.w     D0, D7
0000368A  D040                     add.w      D0, D0
0000368C  4870 0000                pea.l      [A0 + D0.w]
00003690  486E FFFE                pea.l      [A6 - 0x2]
00003694  2F2E FFF8                move.l     -[A7], [A6 - 0x8]
00003698  2F0B                     move.l     -[A7], A3
0000369A  3F3C 0038                move.w     -[A7], 0x38 /* '8' */
0000369E  A9E7                     syscall    Pack0/ListManager
000036A0  4267                     clr.w      -[A7]
000036A2  1F3C 0001                move.b     -[A7], 0x1
000036A6  1F3C 0001                move.b     -[A7], 0x1
000036AA  486E FFF8                pea.l      [A6 - 0x8]
000036AE  2F0B                     move.l     -[A7], A3
000036B0  3F3C 0048                move.w     -[A7], 0x48 /* 'H' */
000036B4  A9E7                     syscall    Pack0/ListManager
000036B6  101F                     move.b     D0, [A7]+
000036B8  66AE                     bne        -0x50 /* 00003668 */
label000036BA:
000036BA  2D4C 000C                move.l     [A6 + 0xC], A4
label000036BE:
000036BE  4CDF 1880                movem.l    D7,A3,A4, [A7]+
000036C2  4E5E                     unlink     A6
000036C4  2E9F                     move.l     [A7], [A7]+
000036C6  4E75                     rts
fn000036C8:
000036C8  4E56 FF28                link       A6, -0x00D8
000036CC  48E7 0118                movem.l    -[A7], D7,A3,A4
000036D0  266E 000C                movea.l    A3, [A6 + 0xC]
000036D4  286E 0008                movea.l    A4, [A6 + 0x8]
000036D8  7000                     moveq.l    D0, 0x00
000036DA  2D40 FFF8                move.l     [A6 - 0x8], D0
000036DE  3D7C 0001 FF2A           move.w     [A6 - 0xD6], 0x1
000036E4  3D6E 0010 FF28           move.w     [A6 - 0xD8], [A6 + 0x10]
000036EA  3E2E FF2A                move.w     D7, [A6 - 0xD6]
000036EE  6000 008E                bra        +0x90 /* 0000377E */
label000036F2:
000036F2  2D6E FFF8 FFFC           move.l     [A6 - 0x4], [A6 - 0x8]
000036F8  3D7C 0064 FFF6           move.w     [A6 - 0xA], 0x64 /* 'd' */
000036FE  486E FF2C                pea.l      [A6 - 0xD4]
00003702  486E FFF6                pea.l      [A6 - 0xA]
00003706  2F2E FFF8                move.l     -[A7], [A6 - 0x8]
0000370A  2F0B                     move.l     -[A7], A3
0000370C  3F3C 0038                move.w     -[A7], 0x38 /* '8' */
00003710  A9E7                     syscall    Pack0/ListManager
00003712  4267                     clr.w      -[A7]
00003714  486E FF2C                pea.l      [A6 - 0xD4]
00003718  3F2E FFF6                move.w     -[A7], [A6 - 0xA]
0000371C  487A FEA6                pea.l      [PC - 0x15A /* 000035C4, value 0x4E560000 'NV\0\0', cstring "NV" */]
00003720  486E FFFC                pea.l      [A6 - 0x4]
00003724  2F0C                     move.l     -[A7], A4
00003726  3F3C 0054                move.w     -[A7], 0x54 /* 'T' */
0000372A  A9E7                     syscall    Pack0/ListManager
0000372C  101F                     move.b     D0, [A7]+
0000372E  672E                     beq        +0x30 /* 0000375E */
00003730  3D7C 0064 FFF6           move.w     [A6 - 0xA], 0x64 /* 'd' */
00003736  486E FF2C                pea.l      [A6 - 0xD4]
0000373A  486E FFF6                pea.l      [A6 - 0xA]
0000373E  2F2E FFFC                move.l     -[A7], [A6 - 0x4]
00003742  2F0C                     move.l     -[A7], A4
00003744  3F3C 0038                move.w     -[A7], 0x38 /* '8' */
00003748  A9E7                     syscall    Pack0/ListManager
0000374A  486E FF2C                pea.l      [A6 - 0xD4]
0000374E  3F2E FFF6                move.w     -[A7], [A6 - 0xA]
00003752  2F2E FFF8                move.l     -[A7], [A6 - 0x8]
00003756  2F0B                     move.l     -[A7], A3
00003758  3F3C 0058                move.w     -[A7], 0x58 /* 'X' */
0000375C  A9E7                     syscall    Pack0/ListManager
label0000375E:
0000375E  4267                     clr.w      -[A7]
00003760  1F3C 0001                move.b     -[A7], 0x1
00003764  1F3C 0001                move.b     -[A7], 0x1
00003768  486E FFF8                pea.l      [A6 - 0x8]
0000376C  2F0B                     move.l     -[A7], A3
0000376E  3F3C 0048                move.w     -[A7], 0x48 /* 'H' */
00003772  A9E7                     syscall    Pack0/ListManager
00003774  101F                     move.b     D0, [A7]+
00003776  6602                     bne        +0x4 /* 0000377A */
00003778  600C                     bra        +0xE /* 00003786 */
label0000377A:
0000377A  5247                     addq.w     D7, 1
0000377C  6908                     bvs        +0xA /* 00003786 */
label0000377E:
0000377E  BE6E FF28                cmp.w      D7, [A6 - 0xD8]
00003782  6F00 FF6E                ble        -0x90 /* 000036F2 */
label00003786:
00003786  2054                     movea.l    A0, [A4]
00003788  2F28 0050                move.l     -[A7], [A0 + 0x50]
0000378C  205F                     movea.l    A0, [A7]+
0000378E  A023                     syscall    DisposHandle/DisposeHandle
00003790  2F0C                     move.l     -[A7], A4
00003792  205F                     movea.l    A0, [A7]+
00003794  A023                     syscall    DisposHandle/DisposeHandle
00003796  4CDF 1880                movem.l    D7,A3,A4, [A7]+
0000379A  4E5E                     unlink     A6
0000379C  205F                     movea.l    A0, [A7]+
0000379E  DEFC 000A                add.w      A7, 0xA /* '\n' */
000037A2  4ED0                     jmp        [A0]
fn000037A4:
000037A4  4E56 FFF0                link       A6, -0x0010
000037A8  7000                     moveq.l    D0, 0x00
000037AA  2D40 000C                move.l     [A6 + 0xC], D0
000037AE  7000                     moveq.l    D0, 0x00
000037B0  2D40 FFFC                move.l     [A6 - 0x4], D0
000037B4  4267                     clr.w      -[A7]
000037B6  2F2E FFFC                move.l     -[A7], [A6 - 0x4]
000037BA  206E 0008                movea.l    A0, [A6 + 0x8]
000037BE  2050                     movea.l    A0, [A0]
000037C0  4868 0048                pea.l      [A0 + 0x48]
000037C4  A8AD                     syscall    PtInRect
000037C6  101F                     move.b     D0, [A7]+
000037C8  675C                     beq        +0x5E /* 00003826 */
000037CA  3D7C 0003 FFF4           move.w     [A6 - 0xC], 0x3
000037D0  486E FFF6                pea.l      [A6 - 0xA]
000037D4  486E FFF4                pea.l      [A6 - 0xC]
000037D8  2F2E FFFC                move.l     -[A7], [A6 - 0x4]
000037DC  2F2E 0008                move.l     -[A7], [A6 + 0x8]
000037E0  3F3C 0038                move.w     -[A7], 0x38 /* '8' */
000037E4  A9E7                     syscall    Pack0/ListManager
000037E6  7002                     moveq.l    D0, 0x02
000037E8  B06E FFF4                cmp.w      D0, [A6 - 0xC]
000037EC  6C38                     bge        +0x3A /* 00003826 */
000037EE  2D6E 0008 FFF0           move.l     [A6 - 0x10], [A6 + 0x8]
000037F4  4267                     clr.w      -[A7]
000037F6  486E FFF0                pea.l      [A6 - 0x10]
000037FA  4EAD 06D2                jsr        [A5 + 0x6D2 /* export_214, CODE:3 @ 00003172 */]
000037FE  4A5F                     tst.w      [A7]+
00003800  6624                     bne        +0x26 /* 00003826 */
00003802  4267                     clr.w      -[A7]
00003804  206E FFF0                movea.l    A0, [A6 - 0x10]
00003808  2050                     movea.l    A0, [A0]
0000380A  4868 0050                pea.l      [A0 + 0x50]
0000380E  4EAD 06D2                jsr        [A5 + 0x6D2 /* export_214, CODE:3 @ 00003172 */]
00003812  4A5F                     tst.w      [A7]+
00003814  6608                     bne        +0xA /* 0000381E */
00003816  2D6E FFF0 000C           move.l     [A6 + 0xC], [A6 - 0x10]
0000381C  6008                     bra        +0xA /* 00003826 */
label0000381E:
0000381E  2F2E FFF0                move.l     -[A7], [A6 - 0x10]
00003822  205F                     movea.l    A0, [A7]+
00003824  A023                     syscall    DisposHandle/DisposeHandle
label00003826:
00003826  4E5E                     unlink     A6
00003828  2E9F                     move.l     [A7], [A7]+
0000382A  4E75                     rts
fn0000382C:
0000382C  4E56 FFEA                link       A6, -0x0016
00003830  48E7 0F18                movem.l    -[A7], D4,D5,D6,D7,A3,A4
00003834  266E 0010                movea.l    A3, [A6 + 0x10]
00003838  286E 0008                movea.l    A4, [A6 + 0x8]
0000383C  282E 0016                move.l     D4, [A6 + 0x16]
00003840  4267                     clr.w      -[A7]
00003842  2054                     movea.l    A0, [A4]
00003844  2068 003C                movea.l    A0, [A0 + 0x3C]
00003848  2050                     movea.l    A0, [A0]
0000384A  3F28 0110                move.w     -[A7], [A0 + 0x110]
0000384E  2F2E 000C                move.l     -[A7], [A6 + 0xC]
00003852  4EAD 08BA                jsr        [A5 + 0x8BA /* export_275, CODE:4 @ 000002A8 */]
00003856  3E1F                     move.w     D7, [A7]+
00003858  7064                     moveq.l    D0, 0x64
0000385A  B047                     cmp.w      D0, D7
0000385C  6C08                     bge        +0xA /* 00003866 */
0000385E  3F3C 0004                move.w     -[A7], 0x4
00003862  4EAD 0172                jsr        [A5 + 0x172 /* export_42, CODE:1 @ 00003B04 */]
label00003866:
00003866  200B                     move.l     D0, A3
00003868  660A                     bne        +0xC /* 00003874 */
0000386A  42A7                     clr.l      -[A7]
0000386C  2F0C                     move.l     -[A7], A4
0000386E  4EBA FD7C                jsr        [PC - 0x284 /* 000035EC */]
00003872  265F                     movea.l    A3, [A7]+
label00003874:
00003874  2054                     movea.l    A0, [A4]
00003876  3C28 0014                move.w     D6, [A0 + 0x14]
0000387A  4A84                     tst.l      D4
0000387C  660A                     bne        +0xC /* 00003888 */
0000387E  42A7                     clr.l      -[A7]
00003880  2F0C                     move.l     -[A7], A4
00003882  4EBA FF20                jsr        [PC - 0xE0 /* 000037A4 */]
00003886  281F                     move.l     D4, [A7]+
label00003888:
00003888  42A7                     clr.l      -[A7]
0000388A  2F0C                     move.l     -[A7], A4
0000388C  3F3C 0024                move.w     -[A7], 0x24 /* '$' */
00003890  A9E7                     syscall    Pack0/ListManager
00003892  2F2E 000C                move.l     -[A7], [A6 + 0xC]
00003896  1F2E 0014                move.b     -[A7], [A6 + 0x14]
0000389A  3F07                     move.w     -[A7], D7
0000389C  2F0C                     move.l     -[A7], A4
0000389E  4EBA FA0E                jsr        [PC - 0x5F2 /* 000032AE */]
000038A2  4A84                     tst.l      D4
000038A4  670A                     beq        +0xC /* 000038B0 */
000038A6  3F07                     move.w     -[A7], D7
000038A8  2F0C                     move.l     -[A7], A4
000038AA  2F04                     move.l     -[A7], D4
000038AC  4EBA FE1A                jsr        [PC - 0x1E6 /* 000036C8 */]
label000038B0:
000038B0  200B                     move.l     D0, A3
000038B2  6756                     beq        +0x58 /* 0000390A */
000038B4  3D7C 0001 FFEC           move.w     [A6 - 0x14], 0x1
000038BA  2053                     movea.l    A0, [A3]
000038BC  3D50 FFEA                move.w     [A6 - 0x16], [A0]
000038C0  3A2E FFEC                move.w     D5, [A6 - 0x14]
000038C4  603E                     bra        +0x40 /* 00003904 */
label000038C6:
000038C6  7000                     moveq.l    D0, 0x00
000038C8  2D40 FFF6                move.l     [A6 - 0xA], D0
000038CC  4267                     clr.w      -[A7]
000038CE  2053                     movea.l    A0, [A3]
000038D0  3005                     move.w     D0, D5
000038D2  D040                     add.w      D0, D0
000038D4  4870 0000                pea.l      [A0 + D0.w]
000038D8  3F3C 0002                move.w     -[A7], 0x2
000038DC  487A FCE6                pea.l      [PC - 0x31A /* 000035C4, value 0x4E560000 'NV\0\0', cstring "NV" */]
000038E0  486E FFF6                pea.l      [A6 - 0xA]
000038E4  2F0C                     move.l     -[A7], A4
000038E6  3F3C 0054                move.w     -[A7], 0x54 /* 'T' */
000038EA  A9E7                     syscall    Pack0/ListManager
000038EC  101F                     move.b     D0, [A7]+
000038EE  6710                     beq        +0x12 /* 00003900 */
000038F0  1F3C 0001                move.b     -[A7], 0x1
000038F4  2F2E FFF6                move.l     -[A7], [A6 - 0xA]
000038F8  2F0C                     move.l     -[A7], A4
000038FA  3F3C 005C                move.w     -[A7], 0x5C /* '\\' */
000038FE  A9E7                     syscall    Pack0/ListManager
label00003900:
00003900  5245                     addq.w     D5, 1
00003902  6906                     bvs        +0x8 /* 0000390A */
label00003904:
00003904  BA6E FFEA                cmp.w      D5, [A6 - 0x16]
00003908  6FBC                     ble        -0x42 /* 000038C6 */
label0000390A:
0000390A  7000                     moveq.l    D0, 0x00
0000390C  2D40 FFF6                move.l     [A6 - 0xA], D0
00003910  4267                     clr.w      -[A7]
00003912  1F3C 0001                move.b     -[A7], 0x1
00003916  486E FFF6                pea.l      [A6 - 0xA]
0000391A  2F0C                     move.l     -[A7], A4
0000391C  3F3C 003C                move.w     -[A7], 0x3C /* '<' */
00003920  A9E7                     syscall    Pack0/ListManager
00003922  101F                     move.b     D0, [A7]+
00003924  6710                     beq        +0x12 /* 00003936 */
00003926  2F2E FFF6                move.l     -[A7], [A6 - 0xA]
0000392A  2F0C                     move.l     -[A7], A4
0000392C  1F3C 0001                move.b     -[A7], 0x1
00003930  4EBA F0A4                jsr        [PC - 0xF5C /* 000029D6 */]
00003934  6044                     bra        +0x46 /* 0000397A */
label00003936:
00003936  2054                     movea.l    A0, [A4]
00003938  3028 0018                move.w     D0, [A0 + 0x18]
0000393C  D046                     add.w      D0, D6
0000393E  B068 004C                cmp.w      D0, [A0 + 0x4C]
00003942  6D2A                     blt        +0x2C /* 0000396E */
00003944  2248                     movea.l    A1, A0
00003946  3C28 004C                move.w     D6, [A0 + 0x4C]
0000394A  9C69 0018                sub.w      D6, [A1 + 0x18]
0000394E  486E FFEE                pea.l      [A6 - 0x12]
00003952  2054                     movea.l    A0, [A4]
00003954  2F28 0018                move.l     -[A7], [A0 + 0x18]
00003958  2F0C                     move.l     -[A7], A4
0000395A  3F3C 004C                move.w     -[A7], 0x4C /* 'L' */
0000395E  A9E7                     syscall    Pack0/ListManager
00003960  2054                     movea.l    A0, [A4]
00003962  302E FFF2                move.w     D0, [A6 - 0xE]
00003966  B068 0004                cmp.w      D0, [A0 + 0x4]
0000396A  6F02                     ble        +0x4 /* 0000396E */
0000396C  5246                     addq.w     D6, 1
label0000396E:
0000396E  4267                     clr.w      -[A7]
00003970  3F06                     move.w     -[A7], D6
00003972  2F0C                     move.l     -[A7], A4
00003974  3F3C 0050                move.w     -[A7], 0x50 /* 'P' */
00003978  A9E7                     syscall    Pack0/ListManager
label0000397A:
0000397A  3D47 001A                move.w     [A6 + 0x1A], D7
0000397E  7064                     moveq.l    D0, 0x64
00003980  B047                     cmp.w      D0, D7
00003982  6C04                     bge        +0x6 /* 00003988 */
00003984  4EAD 017A                jsr        [A5 + 0x17A /* export_43, CODE:1 @ 00003B24 */]
label00003988:
00003988  200B                     move.l     D0, A3
0000398A  6706                     beq        +0x8 /* 00003992 */
0000398C  2F0B                     move.l     -[A7], A3
0000398E  205F                     movea.l    A0, [A7]+
00003990  A023                     syscall    DisposHandle/DisposeHandle
label00003992:
00003992  4CDF 18F0                movem.l    D4,D5,D6,D7,A3,A4, [A7]+
00003996  4E5E                     unlink     A6
00003998  205F                     movea.l    A0, [A7]+
0000399A  DEFC 0012                add.w      A7, 0x12
0000399E  4ED0                     jmp        [A0]
export_318:
000039A0  4E56 FFFE                link       A6, -0x0002
000039A4  48E7 0108                movem.l    -[A7], D7,A4
000039A8  286E 0008                movea.l    A4, [A6 + 0x8]
000039AC  2054                     movea.l    A0, [A4]
000039AE  2068 003C                movea.l    A0, [A0 + 0x3C]
000039B2  2050                     movea.l    A0, [A0]
000039B4  7001                     moveq.l    D0, 0x01
000039B6  B028 010A                cmp.b      D0, [A0 + 0x10A]
000039BA  660E                     bne        +0x10 /* 000039CA */
000039BC  2054                     movea.l    A0, [A4]
000039BE  2068 003C                movea.l    A0, [A0 + 0x3C]
000039C2  2050                     movea.l    A0, [A0]
000039C4  1E28 012A                move.b     D7, [A0 + 0x12A]
000039C8  6002                     bra        +0x4 /* 000039CC */
label000039CA:
000039CA  4207                     clr.b      D7
label000039CC:
000039CC  4267                     clr.w      -[A7]
000039CE  42A7                     clr.l      -[A7]
000039D0  1F07                     move.b     -[A7], D7
000039D2  42A7                     clr.l      -[A7]
000039D4  2F2E 000C                move.l     -[A7], [A6 + 0xC]
000039D8  2F0C                     move.l     -[A7], A4
000039DA  4EBA FE50                jsr        [PC - 0x1B0 /* 0000382C */]
000039DE  3D5F 0010                move.w     [A6 + 0x10], [A7]+
000039E2  4CDF 1080                movem.l    D7,A4, [A7]+
000039E6  4E5E                     unlink     A6
000039E8  205F                     movea.l    A0, [A7]+
000039EA  504F                     addq.w     A7, 8
000039EC  4ED0                     jmp        [A0]
fn000039EE:
000039EE  4E56 FEF6                link       A6, -0x010A
000039F2  48E7 0018                movem.l    -[A7], A3,A4
000039F6  1D7C 0001 0010           move.b     [A6 + 0x10], 0x1
000039FC  206E 000C                movea.l    A0, [A6 + 0xC]
00003A00  2850                     movea.l    A4, [A0]
00003A02  7004                     moveq.l    D0, 0x04
00003A04  B02C 012A                cmp.b      D0, [A4 + 0x12A]
00003A08  6608                     bne        +0xA /* 00003A12 */
00003A0A  2D6C 012C FEF6           move.l     [A6 - 0x10A], [A4 + 0x12C]
00003A10  6008                     bra        +0xA /* 00003A1A */
label00003A12:
00003A12  2D7C 474E 524C FEF6      move.l     [A6 - 0x10A], 0x474E524C /* 'GNRL' */
label00003A1A:
00003A1A  2F2E FEF6                move.l     -[A7], [A6 - 0x10A]
00003A1E  486E FF00                pea.l      [A6 - 0x100]
00003A22  4EAD 0D8A                jsr        [A5 + 0xD8A /* export_429, CODE:16 @ 00000686 */]
00003A26  4267                     clr.w      -[A7]
00003A28  A99B                     syscall    SetResLoad
00003A2A  42A7                     clr.l      -[A7]
00003A2C  2F3C 4C44 4546           move.l     -[A7], 0x4C444546 /* 'LDEF' */
00003A32  486E FF00                pea.l      [A6 - 0x100]
00003A36  A9A1                     syscall    GetNamedResource
00003A38  265F                     movea.l    A3, [A7]+
00003A3A  1F3C 0001                move.b     -[A7], 0x1
00003A3E  A99B                     syscall    SetResLoad
00003A40  200B                     move.l     D0, A3
00003A42  6606                     bne        +0x8 /* 00003A4A */
00003A44  422E 0010                clr.b      [A6 + 0x10]
00003A48  6010                     bra        +0x12 /* 00003A5A */
label00003A4A:
00003A4A  2F0B                     move.l     -[A7], A3
00003A4C  2F2E 0008                move.l     -[A7], [A6 + 0x8]
00003A50  486E FEF6                pea.l      [A6 - 0x10A]
00003A54  486E FF00                pea.l      [A6 - 0x100]
00003A58  A9A8                     syscall    GetResInfo
label00003A5A:
00003A5A  4CDF 1800                movem.l    A3,A4, [A7]+
00003A5E  4E5E                     unlink     A6
00003A60  205F                     movea.l    A0, [A7]+
00003A62  504F                     addq.w     A7, 8
00003A64  4ED0                     jmp        [A0]
fn00003A66:
00003A66  4E56 FFFA                link       A6, -0x0006
00003A6A  48E7 0108                movem.l    -[A7], D7,A4
00003A6E  206E 000A                movea.l    A0, [A6 + 0xA]
00003A72  2850                     movea.l    A4, [A0]
00003A74  2F2C 0104                move.l     -[A7], [A4 + 0x104]
00003A78  A873                     syscall    SetPort
00003A7A  4A6C 013A                tst.w      [A4 + 0x13A]
00003A7E  57C0                     seq        D0
00003A80  4A00                     tst.b      D0
00003A82  660C                     bne        +0xE /* 00003A90 */
00003A84  7204                     moveq.l    D1, 0x04
00003A86  B22C 012A                cmp.b      D1, [A4 + 0x12A]
00003A8A  56C1                     sne        D1
00003A8C  8001                     or.b       D0, D1
00003A8E  6732                     beq        +0x34 /* 00003AC2 */
label00003A90:
00003A90  3F3C 000C                move.w     -[A7], 0xC
00003A94  A88A                     syscall    TextSize
00003A96  7000                     moveq.l    D0, 0x00
00003A98  2D40 FFFC                move.l     [A6 - 0x4], D0
00003A9C  7004                     moveq.l    D0, 0x04
00003A9E  B02C 012A                cmp.b      D0, [A4 + 0x12A]
00003AA2  57C0                     seq        D0
00003AA4  4A00                     tst.b      D0
00003AA6  6716                     beq        +0x18 /* 00003ABE */
00003AA8  4A6C 0138                tst.w      [A4 + 0x138]
00003AAC  56C1                     sne        D1
00003AAE  C001                     and.b      D0, D1
00003AB0  670C                     beq        +0xE /* 00003ABE */
00003AB2  3F3C 0009                move.w     -[A7], 0x9 /* '\t' */
00003AB6  A88A                     syscall    TextSize
00003AB8  3D6C 0138 FFFC           move.w     [A6 - 0x4], [A4 + 0x138]
label00003ABE:
00003ABE  7E01                     moveq.l    D7, 0x01
00003AC0  6028                     bra        +0x2A /* 00003AEA */
label00003AC2:
00003AC2  3F3C 0009                move.w     -[A7], 0x9 /* '\t' */
00003AC6  A88A                     syscall    TextSize
00003AC8  2D6C 0138 FFFC           move.l     [A6 - 0x4], [A4 + 0x138]
00003ACE  206C 0104                movea.l    A0, [A4 + 0x104]
00003AD2  3028 0016                move.w     D0, [A0 + 0x16]
00003AD6  907C 000F                sub.w      D0, 0xF
00003ADA  48C0                     ext.l      D0
00003ADC  81EC 013A                divs.w     D0, [A4 + 0x13A]
00003AE0  3E00                     move.w     D7, D0
00003AE2  7001                     moveq.l    D0, 0x01
00003AE4  B047                     cmp.w      D0, D7
00003AE6  6F02                     ble        +0x4 /* 00003AEA */
00003AE8  7E01                     moveq.l    D7, 0x01
label00003AEA:
00003AEA  42A7                     clr.l      -[A7]
00003AEC  1F2E 000E                move.b     -[A7], [A6 + 0xE]
00003AF0  2F2C 0104                move.l     -[A7], [A4 + 0x104]
00003AF4  3F07                     move.w     -[A7], D7
00003AF6  2F2E FFFC                move.l     -[A7], [A6 - 0x4]
00003AFA  3F2E 0008                move.w     -[A7], [A6 + 0x8]
00003AFE  2F2E 000A                move.l     -[A7], [A6 + 0xA]
00003B02  4EBA C56C                jsr        [PC - 0x3A94 /* 00000070 */]
00003B06  295F 0124                move.l     [A4 + 0x124], [A7]+
00003B0A  4CDF 1080                movem.l    D7,A4, [A7]+
00003B0E  4E5E                     unlink     A6
00003B10  205F                     movea.l    A0, [A7]+
00003B12  504F                     addq.w     A7, 8
00003B14  4ED0                     jmp        [A0]
fn00003B16:
00003B16  4E56 FFFA                link       A6, -0x0006
00003B1A  48E7 0708                movem.l    -[A7], D5,D6,D7,A4
00003B1E  206E 0008                movea.l    A0, [A6 + 0x8]
00003B22  2850                     movea.l    A4, [A0]
00003B24  4267                     clr.w      -[A7]
00003B26  4EBA C510                jsr        [PC - 0x3AF0 /* 00000038 */]
00003B2A  3E1F                     move.w     D7, [A7]+
00003B2C  7042                     moveq.l    D0, 0x42
00003B2E  B06C 0138                cmp.w      D0, [A4 + 0x138]
00003B32  6D04                     blt        +0x6 /* 00003B38 */
00003B34  7C02                     moveq.l    D6, 0x02
00003B36  6002                     bra        +0x4 /* 00003B3A */
label00003B38:
00003B38  7C01                     moveq.l    D6, 0x01
label00003B3A:
00003B3A  3A06                     move.w     D5, D6
00003B3C  CBEC 0138                muls.w     D5, [A4 + 0x138]
00003B40  BA47                     cmp.w      D5, D7
00003B42  6F04                     ble        +0x6 /* 00003B48 */
00003B44  3E05                     move.w     D7, D5
00003B46  600E                     bra        +0x10 /* 00003B56 */
label00003B48:
00003B48  3007                     move.w     D0, D7
00003B4A  48C0                     ext.l      D0
00003B4C  81EC 0138                divs.w     D0, [A4 + 0x138]
00003B50  3E00                     move.w     D7, D0
00003B52  CFEC 0138                muls.w     D7, [A4 + 0x138]
label00003B56:
00003B56  3D47 000C                move.w     [A6 + 0xC], D7
00003B5A  4CDF 10E0                movem.l    D5,D6,D7,A4, [A7]+
00003B5E  4E5E                     unlink     A6
00003B60  2E9F                     move.l     [A7], [A7]+
00003B62  4E75                     rts
fn00003B64:
00003B64  4E56 FFFA                link       A6, -0x0006
00003B68  48E7 0708                movem.l    -[A7], D5,D6,D7,A4
00003B6C  206E 0008                movea.l    A0, [A6 + 0x8]
00003B70  2850                     movea.l    A4, [A0]
00003B72  4267                     clr.w      -[A7]
00003B74  4EBA C48A                jsr        [PC - 0x3B76 /* 00000000 */]
00003B78  3E1F                     move.w     D7, [A7]+
00003B7A  302C 013A                move.w     D0, [A4 + 0x13A]
00003B7E  E340                     asl        D0.w, 1
00003B80  3C00                     move.w     D6, D0
00003B82  DC7C 000F                add.w      D6, 0xF
00003B86  BC47                     cmp.w      D6, D7
00003B88  6C1A                     bge        +0x1C /* 00003BA4 */
00003B8A  3007                     move.w     D0, D7
00003B8C  907C 000F                sub.w      D0, 0xF
00003B90  48C0                     ext.l      D0
00003B92  81EC 013A                divs.w     D0, [A4 + 0x13A]
00003B96  3A00                     move.w     D5, D0
00003B98  C1EC 013A                muls.w     D0, [A4 + 0x13A]
00003B9C  3E00                     move.w     D7, D0
00003B9E  DE7C 000F                add.w      D7, 0xF
00003BA2  6002                     bra        +0x4 /* 00003BA6 */
label00003BA4:
00003BA4  3E06                     move.w     D7, D6
label00003BA6:
00003BA6  3D47 000C                move.w     [A6 + 0xC], D7
00003BAA  4CDF 10E0                movem.l    D5,D6,D7,A4, [A7]+
00003BAE  4E5E                     unlink     A6
00003BB0  2E9F                     move.l     [A7], [A7]+
00003BB2  4E75                     rts
fn00003BB4:
00003BB4  4E56 0000                link       A6, 0
00003BB8  48E7 0318                movem.l    -[A7], D6,D7,A3,A4
00003BBC  266E 000C                movea.l    A3, [A6 + 0xC]
00003BC0  2C2E 0010                move.l     D6, [A6 + 0x10]
00003BC4  2E2E 0008                move.l     D7, [A6 + 0x8]
00003BC8  2047                     movea.l    A0, D7
00003BCA  2850                     movea.l    A4, [A0]
00003BCC  102E 0014                move.b     D0, [A6 + 0x14]
00003BD0  4880                     ext.w      D0
00003BD2  670A                     beq        +0xC /* 00003BDE */
00003BD4  5340                     subq.w     D0, 1
00003BD6  673A                     beq        +0x3C /* 00003C12 */
00003BD8  5340                     subq.w     D0, 1
00003BDA  6752                     beq        +0x54 /* 00003C2E */
00003BDC  606C                     bra        +0x6E /* 00003C4A */
label00003BDE:
00003BDE  4267                     clr.w      -[A7]
00003BE0  4EBA C456                jsr        [PC - 0x3BAA /* 00000038 */]
00003BE4  301F                     move.w     D0, [A7]+
00003BE6  48C0                     ext.l      D0
00003BE8  81ED F974                divs.w     D0, [A5 - 0x68C]
00003BEC  3680                     move.w     [A3], D0
00003BEE  7006                     moveq.l    D0, 0x06
00003BF0  B053                     cmp.w      D0, [A3]
00003BF2  6F04                     ble        +0x6 /* 00003BF8 */
00003BF4  36BC 0006                move.w     [A3], 0x6
label00003BF8:
00003BF8  302D F974                move.w     D0, [A5 - 0x68C]
00003BFC  C1D3                     muls.w     D0, [A3]
00003BFE  3680                     move.w     [A3], D0
00003C00  2046                     movea.l    A0, D6
00003C02  2F08                     move.l     -[A7], A0
00003C04  4267                     clr.w      -[A7]
00003C06  4EBA C3F8                jsr        [PC - 0x3C08 /* 00000000 */]
00003C0A  301F                     move.w     D0, [A7]+
00003C0C  205F                     movea.l    A0, [A7]+
00003C0E  3080                     move.w     [A0], D0
00003C10  6038                     bra        +0x3A /* 00003C4A */
label00003C12:
00003C12  4267                     clr.w      -[A7]
00003C14  2F07                     move.l     -[A7], D7
00003C16  4EBA FEFE                jsr        [PC - 0x102 /* 00003B16 */]
00003C1A  369F                     move.w     [A3], [A7]+
00003C1C  2046                     movea.l    A0, D6
00003C1E  2F08                     move.l     -[A7], A0
00003C20  4267                     clr.w      -[A7]
00003C22  4EBA C3DC                jsr        [PC - 0x3C24 /* 00000000 */]
00003C26  301F                     move.w     D0, [A7]+
00003C28  205F                     movea.l    A0, [A7]+
00003C2A  3080                     move.w     [A0], D0
00003C2C  601C                     bra        +0x1E /* 00003C4A */
label00003C2E:
00003C2E  4267                     clr.w      -[A7]
00003C30  2F07                     move.l     -[A7], D7
00003C32  4EBA FEE2                jsr        [PC - 0x11E /* 00003B16 */]
00003C36  369F                     move.w     [A3], [A7]+
00003C38  2046                     movea.l    A0, D6
00003C3A  2F08                     move.l     -[A7], A0
00003C3C  4267                     clr.w      -[A7]
00003C3E  2F07                     move.l     -[A7], D7
00003C40  4EBA FF22                jsr        [PC - 0xDE /* 00003B64 */]
00003C44  301F                     move.w     D0, [A7]+
00003C46  205F                     movea.l    A0, [A7]+
00003C48  3080                     move.w     [A0], D0
label00003C4A:
00003C4A  102C 012B                move.b     D0, [A4 + 0x12B]
00003C4E  6714                     beq        +0x16 /* 00003C64 */
00003C50  7204                     moveq.l    D1, 0x04
00003C52  B22C 012A                cmp.b      D1, [A4 + 0x12A]
00003C56  56C1                     sne        D1
00003C58  C001                     and.b      D0, D1
00003C5A  6708                     beq        +0xA /* 00003C64 */
00003C5C  2046                     movea.l    A0, D6
00003C5E  302D F96C                move.w     D0, [A5 - 0x694]
00003C62  D150                     add.w      [A0], D0
label00003C64:
00003C64  4CDF 18C0                movem.l    D6,D7,A3,A4, [A7]+
00003C68  4E5E                     unlink     A6
00003C6A  205F                     movea.l    A0, [A7]+
00003C6C  DEFC 000E                add.w      A7, 0xE
00003C70  4ED0                     jmp        [A0]
fn00003C72:
00003C72  4E56 FEF0                link       A6, -0x0110
00003C76  48E7 0708                movem.l    -[A7], D5,D6,D7,A4
00003C7A  4247                     clr.w      D7
00003C7C  4267                     clr.w      -[A7]
00003C7E  A99B                     syscall    SetResLoad
00003C80  3D7C 0001 FEF2           move.w     [A6 - 0x10E], 0x1
00003C86  3D6E 000A FEF0           move.w     [A6 - 0x110], [A6 + 0xA]
00003C8C  3C2E FEF2                move.w     D6, [A6 - 0x10E]
00003C90  6036                     bra        +0x38 /* 00003CC8 */
label00003C92:
00003C92  42A7                     clr.l      -[A7]
00003C94  3F2E 0008                move.w     -[A7], [A6 + 0x8]
00003C98  2F2E 000C                move.l     -[A7], [A6 + 0xC]
00003C9C  3F06                     move.w     -[A7], D6
00003C9E  4EAD 08C2                jsr        [A5 + 0x8C2 /* export_276, CODE:4 @ 000002E4 */]
00003CA2  285F                     movea.l    A4, [A7]+
00003CA4  2F0C                     move.l     -[A7], A4
00003CA6  486E FFFA                pea.l      [A6 - 0x6]
00003CAA  486E 000C                pea.l      [A6 + 0xC]
00003CAE  486E FEF8                pea.l      [A6 - 0x108]
00003CB2  A9A8                     syscall    GetResInfo
00003CB4  4267                     clr.w      -[A7]
00003CB6  486E FEF8                pea.l      [A6 - 0x108]
00003CBA  A88C                     syscall    StringWidth
00003CBC  3A1F                     move.w     D5, [A7]+
00003CBE  BE45                     cmp.w      D7, D5
00003CC0  6C02                     bge        +0x4 /* 00003CC4 */
00003CC2  3E05                     move.w     D7, D5
label00003CC4:
00003CC4  5246                     addq.w     D6, 1
00003CC6  6906                     bvs        +0x8 /* 00003CCE */
label00003CC8:
00003CC8  BC6E FEF0                cmp.w      D6, [A6 - 0x110]
00003CCC  6FC4                     ble        -0x3A /* 00003C92 */
label00003CCE:
00003CCE  1F3C 0001                move.b     -[A7], 0x1
00003CD2  A99B                     syscall    SetResLoad
00003CD4  3D47 0010                move.w     [A6 + 0x10], D7
00003CD8  4CDF 10E0                movem.l    D5,D6,D7,A4, [A7]+
00003CDC  4E5E                     unlink     A6
00003CDE  205F                     movea.l    A0, [A7]+
00003CE0  504F                     addq.w     A7, 8
00003CE2  4ED0                     jmp        [A0]
fn00003CE4:
00003CE4  4E56 0000                link       A6, 0
00003CE8  302D F96C                move.w     D0, [A5 - 0x694]
00003CEC  D06E 0008                add.w      D0, [A6 + 0x8]
00003CF0  D07C 000A                add.w      D0, 0xA /* '\n' */
00003CF4  3D40 000A                move.w     [A6 + 0xA], D0
00003CF8  4E5E                     unlink     A6
00003CFA  205F                     movea.l    A0, [A7]+
00003CFC  544F                     addq.w     A7, 2
00003CFE  4ED0                     jmp        [A0]
fn00003D00:
00003D00  4E56 FFFC                link       A6, -0x0004
00003D04  48E7 0318                movem.l    -[A7], D6,D7,A3,A4
00003D08  266E 000C                movea.l    A3, [A6 + 0xC]
00003D0C  286E 0008                movea.l    A4, [A6 + 0x8]
00003D10  3013                     move.w     D0, [A3]
00003D12  B06E 0012                cmp.w      D0, [A6 + 0x12]
00003D16  6F04                     ble        +0x6 /* 00003D1C */
00003D18  36AE 0012                move.w     [A3], [A6 + 0x12]
label00003D1C:
00003D1C  3014                     move.w     D0, [A4]
00003D1E  B06E 0010                cmp.w      D0, [A6 + 0x10]
00003D22  6F04                     ble        +0x6 /* 00003D28 */
00003D24  38AE 0010                move.w     [A4], [A6 + 0x10]
label00003D28:
00003D28  4A6E 001A                tst.w      [A6 + 0x1A]
00003D2C  6716                     beq        +0x18 /* 00003D44 */
00003D2E  3013                     move.w     D0, [A3]
00003D30  907C 000F                sub.w      D0, 0xF
00003D34  48C0                     ext.l      D0
00003D36  81EE 001A                divs.w     D0, [A6 + 0x1A]
00003D3A  C1EE 001A                muls.w     D0, [A6 + 0x1A]
00003D3E  D07C 000F                add.w      D0, 0xF
00003D42  3680                     move.w     [A3], D0
label00003D44:
00003D44  4A6E 0018                tst.w      [A6 + 0x18]
00003D48  660A                     bne        +0xC /* 00003D54 */
00003D4A  3C2D F972                move.w     D6, [A5 - 0x68E]
00003D4E  3E2D F974                move.w     D7, [A5 - 0x68C]
00003D52  6006                     bra        +0x8 /* 00003D5A */
label00003D54:
00003D54  4246                     clr.w      D6
00003D56  3E2E 0018                move.w     D7, [A6 + 0x18]
label00003D5A:
00003D5A  3014                     move.w     D0, [A4]
00003D5C  9046                     sub.w      D0, D6
00003D5E  48C0                     ext.l      D0
00003D60  81C7                     divs.w     D0, D7
00003D62  C1C7                     muls.w     D0, D7
00003D64  D046                     add.w      D0, D6
00003D66  3880                     move.w     [A4], D0
00003D68  6602                     bne        +0x4 /* 00003D6C */
00003D6A  3887                     move.w     [A4], D7
label00003D6C:
00003D6C  102E 001C                move.b     D0, [A6 + 0x1C]
00003D70  660E                     bne        +0x10 /* 00003D80 */
00003D72  2F2E 0014                move.l     -[A7], [A6 + 0x14]
00003D76  3F13                     move.w     -[A7], [A3]
00003D78  3F14                     move.w     -[A7], [A4]
00003D7A  1F3C 0001                move.b     -[A7], 0x1
00003D7E  A91D                     syscall    SizeWindow
label00003D80:
00003D80  4CDF 18C0                movem.l    D6,D7,A3,A4, [A7]+
00003D84  4E5E                     unlink     A6
00003D86  205F                     movea.l    A0, [A7]+
00003D88  DEFC 0016                add.w      A7, 0x16
00003D8C  4ED0                     jmp        [A0]
fn00003D8E:
00003D8E  4E56 FFE6                link       A6, -0x001A
00003D92  486E FFE6                pea.l      [A6 - 0x1A]
00003D96  1F3C 0001                move.b     -[A7], 0x1
00003D9A  2F2E 0010                move.l     -[A7], [A6 + 0x10]
00003D9E  4EAD 019A                jsr        [A5 + 0x19A /* export_47, CODE:1 @ 00004234 */]
00003DA2  205F                     movea.l    A0, [A7]+
00003DA4  43EE FFF0                lea.l      A1, [A6 - 0x10]
00003DA8  7003                     moveq.l    D0, 0x03
label00003DAA:
00003DAA  32D8                     move.w     [A1]+, [A0]+
00003DAC  51C8 FFFC                dbf        D0, -0x6 /* 00003DAA */
00003DB0  102E 0014                move.b     D0, [A6 + 0x14]
00003DB4  6722                     beq        +0x24 /* 00003DD8 */
00003DB6  302E FFF6                move.w     D0, [A6 - 0xA]
00003DBA  906E FFF2                sub.w      D0, [A6 - 0xE]
00003DBE  5740                     subq.w     D0, 3
00003DC0  206E 000C                movea.l    A0, [A6 + 0xC]
00003DC4  3080                     move.w     [A0], D0
00003DC6  302E FFF4                move.w     D0, [A6 - 0xC]
00003DCA  906E FFF0                sub.w      D0, [A6 - 0x10]
00003DCE  5F40                     subq.w     D0, 7
00003DD0  206E 0008                movea.l    A0, [A6 + 0x8]
00003DD4  3080                     move.w     [A0], D0
00003DD6  606A                     bra        +0x6C /* 00003E42 */
label00003DD8:
00003DD8  206E 0010                movea.l    A0, [A6 + 0x10]
00003DDC  43EE FFF8                lea.l      A1, [A6 - 0x8]
00003DE0  41E8 0010                lea.l      A0, [A0 + 0x10]
00003DE4  7003                     moveq.l    D0, 0x03
label00003DE6:
00003DE6  32D8                     move.w     [A1]+, [A0]+
00003DE8  51C8 FFFC                dbf        D0, -0x6 /* 00003DE6 */
00003DEC  486E FFF8                pea.l      [A6 - 0x8]
00003DF0  A870                     syscall    LocalToGlobal
00003DF2  302E FFF8                move.w     D0, [A6 - 0x8]
00003DF6  D07C 2710                add.w      D0, 0x2710
00003DFA  3D40 FFFC                move.w     [A6 - 0x4], D0
00003DFE  302E FFFA                move.w     D0, [A6 - 0x6]
00003E02  D07C 2710                add.w      D0, 0x2710
00003E06  3D40 FFFE                move.w     [A6 - 0x2], D0
00003E0A  4267                     clr.w      -[A7]
00003E0C  486E FFF0                pea.l      [A6 - 0x10]
00003E10  486E FFF8                pea.l      [A6 - 0x8]
00003E14  486E FFF8                pea.l      [A6 - 0x8]
00003E18  A8AA                     syscall    SectRect
00003E1A  1D5F FFEF                move.b     [A6 - 0x11], [A7]+
00003E1E  302E FFFE                move.w     D0, [A6 - 0x2]
00003E22  906E FFFA                sub.w      D0, [A6 - 0x6]
00003E26  5740                     subq.w     D0, 3
00003E28  5240                     addq.w     D0, 1
00003E2A  206E 000C                movea.l    A0, [A6 + 0xC]
00003E2E  3080                     move.w     [A0], D0
00003E30  302E FFFC                move.w     D0, [A6 - 0x4]
00003E34  906E FFF8                sub.w      D0, [A6 - 0x8]
00003E38  5F40                     subq.w     D0, 7
00003E3A  5240                     addq.w     D0, 1
00003E3C  206E 0008                movea.l    A0, [A6 + 0x8]
00003E40  3080                     move.w     [A0], D0
label00003E42:
00003E42  4E5E                     unlink     A6
00003E44  205F                     movea.l    A0, [A7]+
00003E46  DEFC 000E                add.w      A7, 0xE
00003E4A  4ED0                     jmp        [A0]
fn00003E4C:
00003E4C  4E56 FFEC                link       A6, -0x0014
00003E50  48E7 0F00                movem.l    -[A7], D4,D5,D6,D7
00003E54  302E 0012                move.w     D0, [A6 + 0x12]
00003E58  907C 000F                sub.w      D0, 0xF
00003E5C  48C0                     ext.l      D0
00003E5E  81EE 001C                divs.w     D0, [A6 + 0x1C]
00003E62  3C00                     move.w     D6, D0
00003E64  302E 0010                move.w     D0, [A6 + 0x10]
00003E68  48C0                     ext.l      D0
00003E6A  81EE 001A                divs.w     D0, [A6 + 0x1A]
00003E6E  3E00                     move.w     D7, D0
00003E70  302E 0016                move.w     D0, [A6 + 0x16]
00003E74  907C 000F                sub.w      D0, 0xF
00003E78  48C0                     ext.l      D0
00003E7A  81EE 001C                divs.w     D0, [A6 + 0x1C]
00003E7E  3D40 FFFC                move.w     [A6 - 0x4], D0
00003E82  302E 0014                move.w     D0, [A6 + 0x14]
00003E86  48C0                     ext.l      D0
00003E88  81EE 001A                divs.w     D0, [A6 + 0x1A]
00003E8C  3D40 FFFE                move.w     [A6 - 0x2], D0
00003E90  3007                     move.w     D0, D7
00003E92  48C0                     ext.l      D0
00003E94  81C6                     divs.w     D0, D6
00003E96  3800                     move.w     D4, D0
00003E98  6602                     bne        +0x4 /* 00003E9C */
00003E9A  7801                     moveq.l    D4, 0x01
label00003E9C:
00003E9C  4205                     clr.b      D5
00003E9E  426E FFF2                clr.w      [A6 - 0xE]
label00003EA2:
00003EA2  102E FFF3                move.b     D0, [A6 - 0xD]
00003EA6  0A00 0001                xori.b     D0, 0x1
00003EAA  4A00                     tst.b      D0
00003EAC  671E                     beq        +0x20 /* 00003ECC */
00003EAE  3206                     move.w     D1, D6
00003EB0  5241                     addq.w     D1, 1
00003EB2  B26E FFFC                cmp.w      D1, [A6 - 0x4]
00003EB6  5FC1                     sle        D1
00003EB8  C001                     and.b      D0, D1
00003EBA  6710                     beq        +0x12 /* 00003ECC */
00003EBC  5246                     addq.w     D6, 1
00003EBE  3007                     move.w     D0, D7
00003EC0  C1C6                     muls.w     D0, D6
00003EC2  B06E 0018                cmp.w      D0, [A6 + 0x18]
00003EC6  6D0A                     blt        +0xC /* 00003ED2 */
00003EC8  7A01                     moveq.l    D5, 0x01
00003ECA  6006                     bra        +0x8 /* 00003ED2 */
label00003ECC:
00003ECC  1D7C 0001 FFF3           move.b     [A6 - 0xD], 0x1
label00003ED2:
00003ED2  1005                     move.b     D0, D5
00003ED4  0A00 0001                xori.b     D0, 0x1
00003ED8  4A00                     tst.b      D0
00003EDA  6752                     beq        +0x54 /* 00003F2E */
00003EDC  122E FFF2                move.b     D1, [A6 - 0xE]
00003EE0  0A01 0001                xori.b     D1, 0x1
00003EE4  C001                     and.b      D0, D1
00003EE6  6746                     beq        +0x48 /* 00003F2E */
00003EE8  3D7C 0001 FFEE           move.w     [A6 - 0x12], 0x1
00003EEE  3D44 FFEC                move.w     [A6 - 0x14], D4
00003EF2  3D6E FFEE FFFA           move.w     [A6 - 0x6], [A6 - 0x12]
00003EF8  602A                     bra        +0x2C /* 00003F24 */
label00003EFA:
00003EFA  3007                     move.w     D0, D7
00003EFC  5240                     addq.w     D0, 1
00003EFE  B06E FFFE                cmp.w      D0, [A6 - 0x2]
00003F02  6E04                     bgt        +0x6 /* 00003F08 */
00003F04  5247                     addq.w     D7, 1
00003F06  6008                     bra        +0xA /* 00003F10 */
label00003F08:
00003F08  1D7C 0001 FFF2           move.b     [A6 - 0xE], 0x1
00003F0E  601E                     bra        +0x20 /* 00003F2E */
label00003F10:
00003F10  3007                     move.w     D0, D7
00003F12  C1C6                     muls.w     D0, D6
00003F14  B06E 0018                cmp.w      D0, [A6 + 0x18]
00003F18  6D04                     blt        +0x6 /* 00003F1E */
00003F1A  7A01                     moveq.l    D5, 0x01
00003F1C  6010                     bra        +0x12 /* 00003F2E */
label00003F1E:
00003F1E  526E FFFA                addq.w     [A6 - 0x6], 1
00003F22  690A                     bvs        +0xC /* 00003F2E */
label00003F24:
00003F24  302E FFFA                move.w     D0, [A6 - 0x6]
00003F28  B06E FFEC                cmp.w      D0, [A6 - 0x14]
00003F2C  6FCC                     ble        -0x32 /* 00003EFA */
label00003F2E:
00003F2E  102E FFF2                move.b     D0, [A6 - 0xE]
00003F32  6708                     beq        +0xA /* 00003F3C */
00003F34  C02E FFF3                and.b      D0, [A6 - 0xD]
00003F38  6702                     beq        +0x4 /* 00003F3C */
00003F3A  7A01                     moveq.l    D5, 0x01
label00003F3C:
00003F3C  1005                     move.b     D0, D5
00003F3E  6700 FF62                beq        -0x9C /* 00003EA2 */
00003F42  3006                     move.w     D0, D6
00003F44  C1EE 001C                muls.w     D0, [A6 + 0x1C]
00003F48  D07C 000F                add.w      D0, 0xF
00003F4C  206E 000C                movea.l    A0, [A6 + 0xC]
00003F50  3080                     move.w     [A0], D0
00003F52  4A47                     tst.w      D7
00003F54  6602                     bne        +0x4 /* 00003F58 */
00003F56  7E01                     moveq.l    D7, 0x01
label00003F58:
00003F58  3007                     move.w     D0, D7
00003F5A  C1EE 001A                muls.w     D0, [A6 + 0x1A]
00003F5E  206E 0008                movea.l    A0, [A6 + 0x8]
00003F62  3080                     move.w     [A0], D0
00003F64  4CDF 00F0                movem.l    D4,D5,D6,D7, [A7]+
00003F68  4E5E                     unlink     A6
00003F6A  205F                     movea.l    A0, [A7]+
00003F6C  DEFC 0016                add.w      A7, 0x16
00003F70  4ED0                     jmp        [A0]
fn00003F72:
00003F72  4E56 FFEC                link       A6, -0x0014
00003F76  48E7 0F18                movem.l    -[A7], D4,D5,D6,D7,A3,A4
00003F7A  206E 0010                movea.l    A0, [A6 + 0x10]
00003F7E  2850                     movea.l    A4, [A0]
00003F80  102E 0014                move.b     D0, [A6 + 0x14]
00003F84  6712                     beq        +0x14 /* 00003F98 */
00003F86  206E 000C                movea.l    A0, [A6 + 0xC]
00003F8A  30BC 007F                move.w     [A0], 0x7F
00003F8E  206E 0008                movea.l    A0, [A6 + 0x8]
00003F92  30BC 0042                move.w     [A0], 0x42 /* 'B' */
00003F96  6022                     bra        +0x24 /* 00003FBA */
label00003F98:
00003F98  206C 0104                movea.l    A0, [A4 + 0x104]
00003F9C  47E8 0010                lea.l      A3, [A0 + 0x10]
00003FA0  302B 0006                move.w     D0, [A3 + 0x6]
00003FA4  906B 0002                sub.w      D0, [A3 + 0x2]
00003FA8  206E 000C                movea.l    A0, [A6 + 0xC]
00003FAC  3080                     move.w     [A0], D0
00003FAE  302B 0004                move.w     D0, [A3 + 0x4]
00003FB2  9053                     sub.w      D0, [A3]
00003FB4  206E 0008                movea.l    A0, [A6 + 0x8]
00003FB8  3080                     move.w     [A0], D0
label00003FBA:
00003FBA  4207                     clr.b      D7
00003FBC  426E FFF4                clr.w      [A6 - 0xC]
00003FC0  426E FFF2                clr.w      [A6 - 0xE]
00003FC4  1F2E 0014                move.b     -[A7], [A6 + 0x14]
00003FC8  2F2C 0104                move.l     -[A7], [A4 + 0x104]
00003FCC  486E FFFA                pea.l      [A6 - 0x6]
00003FD0  486E FFF8                pea.l      [A6 - 0x8]
00003FD4  4EBA FDB8                jsr        [PC - 0x248 /* 00003D8E */]
00003FD8  206E 000C                movea.l    A0, [A6 + 0xC]
00003FDC  3010                     move.w     D0, [A0]
00003FDE  B06E FFFA                cmp.w      D0, [A6 - 0x6]
00003FE2  6F06                     ble        +0x8 /* 00003FEA */
00003FE4  7E01                     moveq.l    D7, 0x01
00003FE6  30AE FFFA                move.w     [A0], [A6 - 0x6]
label00003FEA:
00003FEA  206E 0008                movea.l    A0, [A6 + 0x8]
00003FEE  3010                     move.w     D0, [A0]
00003FF0  B06E FFF8                cmp.w      D0, [A6 - 0x8]
00003FF4  6F06                     ble        +0x8 /* 00003FFC */
00003FF6  7E01                     moveq.l    D7, 0x01
00003FF8  30AE FFF8                move.w     [A0], [A6 - 0x8]
label00003FFC:
00003FFC  4267                     clr.w      -[A7]
00003FFE  3F2C 0110                move.w     -[A7], [A4 + 0x110]
00004002  4EAD 08AA                jsr        [A5 + 0x8AA /* export_273, CODE:4 @ 00000222 */]
00004006  3C1F                     move.w     D6, [A7]+
00004008  102C 0188                move.b     D0, [A4 + 0x188]
0000400C  6776                     beq        +0x78 /* 00004084 */
0000400E  3D7C 0038 FFEE           move.w     [A6 - 0x12], 0x38 /* '8' */
00004014  3D7C 0042 FFEC           move.w     [A6 - 0x14], 0x42 /* 'B' */
0000401A  206E 000C                movea.l    A0, [A6 + 0xC]
0000401E  3010                     move.w     D0, [A0]
00004020  907C 000F                sub.w      D0, 0xF
00004024  48C0                     ext.l      D0
00004026  81EE FFEE                divs.w     D0, [A6 - 0x12]
0000402A  3A00                     move.w     D5, D0
0000402C  3006                     move.w     D0, D6
0000402E  48C0                     ext.l      D0
00004030  81C5                     divs.w     D0, D5
00004032  3800                     move.w     D4, D0
00004034  3006                     move.w     D0, D6
00004036  48C0                     ext.l      D0
00004038  81C5                     divs.w     D0, D5
0000403A  4840                     swap.w     D0
0000403C  4A40                     tst.w      D0
0000403E  6702                     beq        +0x4 /* 00004042 */
00004040  5244                     addq.w     D4, 1
label00004042:
00004042  3004                     move.w     D0, D4
00004044  48C0                     ext.l      D0
00004046  322E FFEC                move.w     D1, [A6 - 0x14]
0000404A  48C1                     ext.l      D1
0000404C  2F00                     move.l     -[A7], D0
0000404E  2F01                     move.l     -[A7], D1
00004050  4EAD 0392                jsr        [A5 + 0x392 /* export_110, CODE:3 @ 0000009E */]
00004054  206E 0008                movea.l    A0, [A6 + 0x8]
00004058  3010                     move.w     D0, [A0]
0000405A  48C0                     ext.l      D0
0000405C  B09F                     cmp.l      D0, [A7]+
0000405E  6C64                     bge        +0x66 /* 000040C4 */
00004060  2F2E FFEC                move.l     -[A7], [A6 - 0x14]
00004064  3F06                     move.w     -[A7], D6
00004066  2F2E FFF8                move.l     -[A7], [A6 - 0x8]
0000406A  206E 000C                movea.l    A0, [A6 + 0xC]
0000406E  3F10                     move.w     -[A7], [A0]
00004070  206E 0008                movea.l    A0, [A6 + 0x8]
00004074  3F10                     move.w     -[A7], [A0]
00004076  486E FFF2                pea.l      [A6 - 0xE]
0000407A  486E FFF4                pea.l      [A6 - 0xC]
0000407E  4EBA FDCC                jsr        [PC - 0x234 /* 00003E4C */]
00004082  6040                     bra        +0x42 /* 000040C4 */
label00004084:
00004084  7000                     moveq.l    D0, 0x00
00004086  2D40 FFEC                move.l     [A6 - 0x14], D0
0000408A  206D F936                movea.l    A0, [A5 - 0x6CA]
0000408E  2050                     movea.l    A0, [A0]
00004090  1028 000D                move.b     D0, [A0 + 0xD]
00004094  6708                     beq        +0xA /* 0000409E */
00004096  3D6C 018E FFF2           move.w     [A6 - 0xE], [A4 + 0x18E]
0000409C  6006                     bra        +0x8 /* 000040A4 */
label0000409E:
0000409E  3D6C 018C FFF2           move.w     [A6 - 0xE], [A4 + 0x18C]
label000040A4:
000040A4  302E FFF2                move.w     D0, [A6 - 0xE]
000040A8  D07C 000A                add.w      D0, 0xA /* '\n' */
000040AC  D07C 000F                add.w      D0, 0xF
000040B0  3D40 FFF2                move.w     [A6 - 0xE], D0
000040B4  3006                     move.w     D0, D6
000040B6  C1ED F974                muls.w     D0, [A5 - 0x68C]
000040BA  322D F972                move.w     D1, [A5 - 0x68E]
000040BE  D240                     add.w      D1, D0
000040C0  3D41 FFF4                move.w     [A6 - 0xC], D1
label000040C4:
000040C4  206E 0008                movea.l    A0, [A6 + 0x8]
000040C8  302E FFF4                move.w     D0, [A6 - 0xC]
000040CC  B050                     cmp.w      D0, [A0]
000040CE  6F06                     ble        +0x8 /* 000040D6 */
000040D0  7E01                     moveq.l    D7, 0x01
000040D2  30AE FFF4                move.w     [A0], [A6 - 0xC]
label000040D6:
000040D6  206E 000C                movea.l    A0, [A6 + 0xC]
000040DA  302E FFF2                move.w     D0, [A6 - 0xE]
000040DE  B050                     cmp.w      D0, [A0]
000040E0  6F06                     ble        +0x8 /* 000040E8 */
000040E2  7E01                     moveq.l    D7, 0x01
000040E4  30AE FFF2                move.w     [A0], [A6 - 0xE]
label000040E8:
000040E8  1007                     move.b     D0, D7
000040EA  671C                     beq        +0x1E /* 00004108 */
000040EC  1F2E 0014                move.b     -[A7], [A6 + 0x14]
000040F0  2F2E FFEC                move.l     -[A7], [A6 - 0x14]
000040F4  2F2C 0104                move.l     -[A7], [A4 + 0x104]
000040F8  2F2E FFF8                move.l     -[A7], [A6 - 0x8]
000040FC  2F2E 000C                move.l     -[A7], [A6 + 0xC]
00004100  2F2E 0008                move.l     -[A7], [A6 + 0x8]
00004104  4EBA FBFA                jsr        [PC - 0x406 /* 00003D00 */]
label00004108:
00004108  4CDF 18F0                movem.l    D4,D5,D6,D7,A3,A4, [A7]+
0000410C  4E5E                     unlink     A6
0000410E  205F                     movea.l    A0, [A7]+
00004110  DEFC 000E                add.w      A7, 0xE
00004114  4ED0                     jmp        [A0]
export_319:
00004116  4E56 FFFC                link       A6, -0x0004
0000411A  206D F936                movea.l    A0, [A5 - 0x6CA]
0000411E  2050                     movea.l    A0, [A0]
00004120  1028 0014                move.b     D0, [A0 + 0x14]
00004124  6712                     beq        +0x14 /* 00004138 */
00004126  4267                     clr.w      -[A7]
00004128  2F2E 0008                move.l     -[A7], [A6 + 0x8]
0000412C  486E FFFC                pea.l      [A6 - 0x4]
00004130  486E FFFE                pea.l      [A6 - 0x2]
00004134  4EBA FE3C                jsr        [PC - 0x1C4 /* 00003F72 */]
label00004138:
00004138  4E5E                     unlink     A6
0000413A  2E9F                     move.l     [A7], [A7]+
0000413C  4E75                     rts
fn0000413E:
0000413E  4E56 FFEA                link       A6, -0x0016
00004142  48E7 0F18                movem.l    -[A7], D4,D5,D6,D7,A3,A4
00004146  206E 0008                movea.l    A0, [A6 + 0x8]
0000414A  2850                     movea.l    A4, [A0]
0000414C  102E 0016                move.b     D0, [A6 + 0x16]
00004150  6752                     beq        +0x54 /* 000041A4 */
00004152  4A2E 0014                tst.b      [A6 + 0x14]
00004156  6622                     bne        +0x24 /* 0000417A */
00004158  302D F974                move.w     D0, [A5 - 0x68C]
0000415C  C1FC 0006                muls.w     D0, 0x6
00004160  206E 000C                movea.l    A0, [A6 + 0xC]
00004164  3080                     move.w     [A0], D0
00004166  206E 0010                movea.l    A0, [A6 + 0x10]
0000416A  2F08                     move.l     -[A7], A0
0000416C  4267                     clr.w      -[A7]
0000416E  4EBA BE90                jsr        [PC - 0x4170 /* 00000000 */]
00004172  301F                     move.w     D0, [A7]+
00004174  205F                     movea.l    A0, [A7]+
00004176  3080                     move.w     [A0], D0
00004178  6010                     bra        +0x12 /* 0000418A */
label0000417A:
0000417A  206E 0010                movea.l    A0, [A6 + 0x10]
0000417E  30AC 0120                move.w     [A0], [A4 + 0x120]
00004182  206E 000C                movea.l    A0, [A6 + 0xC]
00004186  30AC 0122                move.w     [A0], [A4 + 0x122]
label0000418A:
0000418A  206E 0010                movea.l    A0, [A6 + 0x10]
0000418E  4A50                     tst.w      [A0]
00004190  6604                     bne        +0x6 /* 00004196 */
00004192  30BC 0096                move.w     [A0], 0x96
label00004196:
00004196  206E 000C                movea.l    A0, [A6 + 0xC]
0000419A  4A50                     tst.w      [A0]
0000419C  6628                     bne        +0x2A /* 000041C6 */
0000419E  30BC 0040                move.w     [A0], 0x40 /* '@' */
000041A2  6022                     bra        +0x24 /* 000041C6 */
label000041A4:
000041A4  206C 0104                movea.l    A0, [A4 + 0x104]
000041A8  47E8 0010                lea.l      A3, [A0 + 0x10]
000041AC  302B 0006                move.w     D0, [A3 + 0x6]
000041B0  906B 0002                sub.w      D0, [A3 + 0x2]
000041B4  206E 0010                movea.l    A0, [A6 + 0x10]
000041B8  3080                     move.w     [A0], D0
000041BA  302B 0004                move.w     D0, [A3 + 0x4]
000041BE  9053                     sub.w      D0, [A3]
000041C0  206E 000C                movea.l    A0, [A6 + 0xC]
000041C4  3080                     move.w     [A0], D0
label000041C6:
000041C6  4206                     clr.b      D6
000041C8  426E FFF2                clr.w      [A6 - 0xE]
000041CC  426E FFF0                clr.w      [A6 - 0x10]
000041D0  1F2E 0016                move.b     -[A7], [A6 + 0x16]
000041D4  2F2C 0104                move.l     -[A7], [A4 + 0x104]
000041D8  486E FFF8                pea.l      [A6 - 0x8]
000041DC  486E FFF6                pea.l      [A6 - 0xA]
000041E0  4EBA FBAC                jsr        [PC - 0x454 /* 00003D8E */]
000041E4  206E 0010                movea.l    A0, [A6 + 0x10]
000041E8  3010                     move.w     D0, [A0]
000041EA  B06E FFF8                cmp.w      D0, [A6 - 0x8]
000041EE  6F06                     ble        +0x8 /* 000041F6 */
000041F0  7C01                     moveq.l    D6, 0x01
000041F2  30AE FFF8                move.w     [A0], [A6 - 0x8]
label000041F6:
000041F6  206E 000C                movea.l    A0, [A6 + 0xC]
000041FA  3010                     move.w     D0, [A0]
000041FC  B06E FFF6                cmp.w      D0, [A6 - 0xA]
00004200  6F06                     ble        +0x8 /* 00004208 */
00004202  7C01                     moveq.l    D6, 0x01
00004204  30AE FFF6                move.w     [A0], [A6 - 0xA]
label00004208:
00004208  2D6C 0138 FFEA           move.l     [A6 - 0x16], [A4 + 0x138]
0000420E  4267                     clr.w      -[A7]
00004210  3F2C 0110                move.w     -[A7], [A4 + 0x110]
00004214  2F2C 0118                move.l     -[A7], [A4 + 0x118]
00004218  4EAD 08BA                jsr        [A5 + 0x8BA /* export_275, CODE:4 @ 000002A8 */]
0000421C  3E1F                     move.w     D7, [A7]+
0000421E  102E 0014                move.b     D0, [A6 + 0x14]
00004222  4880                     ext.w      D0
00004224  670E                     beq        +0x10 /* 00004234 */
00004226  5340                     subq.w     D0, 1
00004228  6776                     beq        +0x78 /* 000042A0 */
0000422A  5340                     subq.w     D0, 1
0000422C  6700 0086                beq        +0x88 /* 000042B4 */
00004230  6000 010E                bra        +0x110 /* 00004340 */
label00004234:
00004234  4267                     clr.w      -[A7]
00004236  2F2C 0118                move.l     -[A7], [A4 + 0x118]
0000423A  3F07                     move.w     -[A7], D7
0000423C  2054                     movea.l    A0, [A4]
0000423E  2050                     movea.l    A0, [A0]
00004240  3F28 0110                move.w     -[A7], [A0 + 0x110]
00004244  4EBA FA2C                jsr        [PC - 0x5D4 /* 00003C72 */]
00004248  301F                     move.w     D0, [A7]+
0000424A  D06D F96E                add.w      D0, [A5 - 0x692]
0000424E  48C0                     ext.l      D0
00004250  7200                     moveq.l    D1, 0x00
00004252  322D F970                move.w     D1, [A5 - 0x690]
00004256  E389                     lsl        D1, 1
00004258  D280                     add.l      D1, D0
0000425A  700A                     moveq.l    D0, 0x0A
0000425C  D280                     add.l      D1, D0
0000425E  700F                     moveq.l    D0, 0x0F
00004260  D280                     add.l      D1, D0
00004262  3D41 FFF0                move.w     [A6 - 0x10], D1
00004266  102C 012B                move.b     D0, [A4 + 0x12B]
0000426A  671A                     beq        +0x1C /* 00004286 */
0000426C  7204                     moveq.l    D1, 0x04
0000426E  B22C 012A                cmp.b      D1, [A4 + 0x12A]
00004272  56C1                     sne        D1
00004274  C001                     and.b      D0, D1
00004276  670E                     beq        +0x10 /* 00004286 */
00004278  4267                     clr.w      -[A7]
0000427A  3F2E FFF0                move.w     -[A7], [A6 - 0x10]
0000427E  4EBA FA64                jsr        [PC - 0x59C /* 00003CE4 */]
00004282  3D5F FFF0                move.w     [A6 - 0x10], [A7]+
label00004286:
00004286  3007                     move.w     D0, D7
00004288  C1ED F974                muls.w     D0, [A5 - 0x68C]
0000428C  322D F972                move.w     D1, [A5 - 0x68E]
00004290  D240                     add.w      D1, D0
00004292  3D41 FFF2                move.w     [A6 - 0xE], D1
00004296  7000                     moveq.l    D0, 0x00
00004298  2D40 FFEA                move.l     [A6 - 0x16], D0
0000429C  6000 00A2                bra        +0xA4 /* 00004340 */
label000042A0:
000042A0  3007                     move.w     D0, D7
000042A2  C1EC 0138                muls.w     D0, [A4 + 0x138]
000042A6  322D F972                move.w     D1, [A5 - 0x68E]
000042AA  D240                     add.w      D1, D0
000042AC  3D41 FFF2                move.w     [A6 - 0xE], D1
000042B0  6000 008E                bra        +0x90 /* 00004340 */
label000042B4:
000042B4  206E 0010                movea.l    A0, [A6 + 0x10]
000042B8  3010                     move.w     D0, [A0]
000042BA  907C 000F                sub.w      D0, 0xF
000042BE  48C0                     ext.l      D0
000042C0  81EC 013A                divs.w     D0, [A4 + 0x13A]
000042C4  3A00                     move.w     D5, D0
000042C6  7002                     moveq.l    D0, 0x02
000042C8  B045                     cmp.w      D0, D5
000042CA  6618                     bne        +0x1A /* 000042E4 */
000042CC  7000                     moveq.l    D0, 0x00
000042CE  302C 013A                move.w     D0, [A4 + 0x13A]
000042D2  E388                     lsl        D0, 1
000042D4  720F                     moveq.l    D1, 0x0F
000042D6  D081                     add.l      D0, D1
000042D8  3800                     move.w     D4, D0
000042DA  B86E FFF8                cmp.w      D4, [A6 - 0x8]
000042DE  6F04                     ble        +0x6 /* 000042E4 */
000042E0  3D44 FFF8                move.w     [A6 - 0x8], D4
label000042E4:
000042E4  3007                     move.w     D0, D7
000042E6  48C0                     ext.l      D0
000042E8  81C5                     divs.w     D0, D5
000042EA  3D40 FFFC                move.w     [A6 - 0x4], D0
000042EE  3007                     move.w     D0, D7
000042F0  48C0                     ext.l      D0
000042F2  81C5                     divs.w     D0, D5
000042F4  4840                     swap.w     D0
000042F6  4A40                     tst.w      D0
000042F8  6704                     beq        +0x6 /* 000042FE */
000042FA  526E FFFC                addq.w     [A6 - 0x4], 1
label000042FE:
000042FE  302E FFFC                move.w     D0, [A6 - 0x4]
00004302  48C0                     ext.l      D0
00004304  322C 0138                move.w     D1, [A4 + 0x138]
00004308  48C1                     ext.l      D1
0000430A  2F00                     move.l     -[A7], D0
0000430C  2F01                     move.l     -[A7], D1
0000430E  4EAD 0392                jsr        [A5 + 0x392 /* export_110, CODE:3 @ 0000009E */]
00004312  206E 000C                movea.l    A0, [A6 + 0xC]
00004316  3010                     move.w     D0, [A0]
00004318  48C0                     ext.l      D0
0000431A  B09F                     cmp.l      D0, [A7]+
0000431C  6C22                     bge        +0x24 /* 00004340 */
0000431E  2F2C 0138                move.l     -[A7], [A4 + 0x138]
00004322  3F07                     move.w     -[A7], D7
00004324  2F2E FFF6                move.l     -[A7], [A6 - 0xA]
00004328  206E 0010                movea.l    A0, [A6 + 0x10]
0000432C  3F10                     move.w     -[A7], [A0]
0000432E  206E 000C                movea.l    A0, [A6 + 0xC]
00004332  3F10                     move.w     -[A7], [A0]
00004334  486E FFF0                pea.l      [A6 - 0x10]
00004338  486E FFF2                pea.l      [A6 - 0xE]
0000433C  4EBA FB0E                jsr        [PC - 0x4F2 /* 00003E4C */]
label00004340:
00004340  206E 000C                movea.l    A0, [A6 + 0xC]
00004344  302E FFF2                move.w     D0, [A6 - 0xE]
00004348  B050                     cmp.w      D0, [A0]
0000434A  6F06                     ble        +0x8 /* 00004352 */
0000434C  7C01                     moveq.l    D6, 0x01
0000434E  30AE FFF2                move.w     [A0], [A6 - 0xE]
label00004352:
00004352  206E 0010                movea.l    A0, [A6 + 0x10]
00004356  302E FFF0                move.w     D0, [A6 - 0x10]
0000435A  B050                     cmp.w      D0, [A0]
0000435C  6F06                     ble        +0x8 /* 00004364 */
0000435E  7C01                     moveq.l    D6, 0x01
00004360  30AE FFF0                move.w     [A0], [A6 - 0x10]
label00004364:
00004364  1006                     move.b     D0, D6
00004366  671C                     beq        +0x1E /* 00004384 */
00004368  1F2E 0016                move.b     -[A7], [A6 + 0x16]
0000436C  2F2E FFEA                move.l     -[A7], [A6 - 0x16]
00004370  2F2C 0104                move.l     -[A7], [A4 + 0x104]
00004374  2F2E FFF6                move.l     -[A7], [A6 - 0xA]
00004378  2F2E 0010                move.l     -[A7], [A6 + 0x10]
0000437C  2F2E 000C                move.l     -[A7], [A6 + 0xC]
00004380  4EBA F97E                jsr        [PC - 0x682 /* 00003D00 */]
label00004384:
00004384  4CDF 18F0                movem.l    D4,D5,D6,D7,A3,A4, [A7]+
00004388  4E5E                     unlink     A6
0000438A  205F                     movea.l    A0, [A7]+
0000438C  DEFC 0010                add.w      A7, 0x10
00004390  4ED0                     jmp        [A0]
fn00004392:
00004392  4E56 FFFC                link       A6, -0x0004
00004396  206D F936                movea.l    A0, [A5 - 0x6CA]
0000439A  2050                     movea.l    A0, [A0]
0000439C  1028 0014                move.b     D0, [A0 + 0x14]
000043A0  6716                     beq        +0x18 /* 000043B8 */
000043A2  4267                     clr.w      -[A7]
000043A4  1F2E 000C                move.b     -[A7], [A6 + 0xC]
000043A8  486E FFFC                pea.l      [A6 - 0x4]
000043AC  486E FFFE                pea.l      [A6 - 0x2]
000043B0  2F2E 0008                move.l     -[A7], [A6 + 0x8]
000043B4  4EBA FD88                jsr        [PC - 0x278 /* 0000413E */]
label000043B8:
000043B8  4E5E                     unlink     A6
000043BA  205F                     movea.l    A0, [A7]+
000043BC  5C4F                     addq.w     A7, 6
000043BE  4ED0                     jmp        [A0]
export_320:
000043C0  4E56 FFFA                link       A6, -0x0006
000043C4  48E7 0F18                movem.l    -[A7], D4,D5,D6,D7,A3,A4
000043C8  2C2E 0010                move.l     D6, [A6 + 0x10]
000043CC  42A7                     clr.l      -[A7]
000043CE  2F3C 0000 023C           move.l     -[A7], 0x23C
000043D4  4EAD 04FA                jsr        [A5 + 0x4FA /* export_155, CODE:3 @ 000024FC */]
000043D8  2E1F                     move.l     D7, [A7]+
000043DA  42A7                     clr.l      -[A7]
000043DC  3EB8 0220                move.w     [A7], [0x00000220 /* MemErr */]
000043E0  4267                     clr.w      -[A7]
000043E2  4EAD 00F2                jsr        [A5 + 0xF2 /* export_26, CODE:1 @ 00002F14 */]
000043E6  101F                     move.b     D0, [A7]+
000043E8  670A                     beq        +0xC /* 000043F4 */
000043EA  4267                     clr.w      -[A7]
000043EC  2F07                     move.l     -[A7], D7
000043EE  4EAD 0662                jsr        [A5 + 0x662 /* export_200, CODE:3 @ 00002AEC */]
000043F2  1A1F                     move.b     D5, [A7]+
label000043F4:
000043F4  2F07                     move.l     -[A7], D7
000043F6  4EAD 0232                jsr        [A5 + 0x232 /* export_66, CODE:1 @ 00005914 */]
000043FA  2F07                     move.l     -[A7], D7
000043FC  205F                     movea.l    A0, [A7]+
000043FE  A029                     syscall    HLock
00004400  4267                     clr.w      -[A7]
00004402  2F06                     move.l     -[A7], D6
00004404  4EAD 0662                jsr        [A5 + 0x662 /* export_200, CODE:3 @ 00002AEC */]
00004408  181F                     move.b     D4, [A7]+
0000440A  2F06                     move.l     -[A7], D6
0000440C  4EAD 0232                jsr        [A5 + 0x232 /* export_66, CODE:1 @ 00005914 */]
00004410  2F06                     move.l     -[A7], D6
00004412  205F                     movea.l    A0, [A7]+
00004414  A029                     syscall    HLock
00004416  2047                     movea.l    A0, D7
00004418  2850                     movea.l    A4, [A0]
0000441A  2046                     movea.l    A0, D6
0000441C  2650                     movea.l    A3, [A0]
0000441E  28AE 0008                move.l     [A4], [A6 + 0x8]
00004422  296E 000C 0118           move.l     [A4 + 0x118], [A6 + 0xC]
00004428  196B 0006 012A           move.b     [A4 + 0x12A], [A3 + 0x6]
0000442E  296B 000C 012C           move.l     [A4 + 0x12C], [A3 + 0xC]
00004434  296B 0008 0138           move.l     [A4 + 0x138], [A3 + 0x8]
0000443A  7002                     moveq.l    D0, 0x02
0000443C  B02B 0005                cmp.b      D0, [A3 + 0x5]
00004440  6612                     bne        +0x14 /* 00004454 */
00004442  7000                     moveq.l    D0, 0x00
00004444  302C 013A                move.w     D0, [A4 + 0x13A]
00004448  E388                     lsl        D0, 1
0000444A  720F                     moveq.l    D1, 0x0F
0000444C  D081                     add.l      D0, D1
0000444E  3940 0120                move.w     [A4 + 0x120], D0
00004452  6004                     bra        +0x6 /* 00004458 */
label00004454:
00004454  426C 0120                clr.w      [A4 + 0x120]
label00004458:
00004458  396C 0138 0122           move.w     [A4 + 0x122], [A4 + 0x138]
0000445E  4267                     clr.w      -[A7]
00004460  1F2B 0004                move.b     -[A7], [A3 + 0x4]
00004464  1F3C 0001                move.b     -[A7], 0x1
00004468  1F2B 0005                move.b     -[A7], [A3 + 0x5]
0000446C  3F3C 2715                move.w     -[A7], 0x2715
00004470  2F07                     move.l     -[A7], D7
00004472  4EBA 0044                jsr        [PC + 0x44 /* 000044B8 */]
00004476  101F                     move.b     D0, [A7]+
00004478  671A                     beq        +0x1C /* 00004494 */
0000447A  2047                     movea.l    A0, D7
0000447C  2050                     movea.l    A0, [A0]
0000447E  2246                     movea.l    A1, D6
00004480  2251                     movea.l    A1, [A1]
00004482  41E8 013C                lea.l      A0, [A0 + 0x13C]
00004486  43E9 0010                lea.l      A1, [A1 + 0x10]
0000448A  707F                     moveq.l    D0, 0x7F
label0000448C:
0000448C  30D9                     move.w     [A0]+, [A1]+
0000448E  51C8 FFFC                dbf        D0, -0x6 /* 0000448C */
00004492  6006                     bra        +0x8 /* 0000449A */
label00004494:
00004494  2F07                     move.l     -[A7], D7
00004496  205F                     movea.l    A0, [A7]+
00004498  A023                     syscall    DisposHandle/DisposeHandle
label0000449A:
0000449A  2F07                     move.l     -[A7], D7
0000449C  1F05                     move.b     -[A7], D5
0000449E  4EAD 066A                jsr        [A5 + 0x66A /* export_201, CODE:3 @ 00002AF6 */]
000044A2  2F06                     move.l     -[A7], D6
000044A4  1F05                     move.b     -[A7], D5
000044A6  4EAD 066A                jsr        [A5 + 0x66A /* export_201, CODE:3 @ 00002AF6 */]
000044AA  4CDF 18F0                movem.l    D4,D5,D6,D7,A3,A4, [A7]+
000044AE  4E5E                     unlink     A6
000044B0  205F                     movea.l    A0, [A7]+
000044B2  DEFC 000C                add.w      A7, 0xC
000044B6  4ED0                     jmp        [A0]
export_321:
fn000044B8:
000044B8  4E56 FEEC                link       A6, -0x0114
000044BC  48E7 0718                movem.l    -[A7], D5,D6,D7,A3,A4
000044C0  266E 0008                movea.l    A3, [A6 + 0x8]
000044C4  1A2E 000E                move.b     D5, [A6 + 0xE]
000044C8  7002                     moveq.l    D0, 0x02
000044CA  B02E 0012                cmp.b      D0, [A6 + 0x12]
000044CE  57C0                     seq        D0
000044D0  4A00                     tst.b      D0
000044D2  672C                     beq        +0x2E /* 00004500 */
000044D4  122D F7D1                move.b     D1, [A5 - 0x82F]
000044D8  0A01 0001                xori.b     D1, 0x1
000044DC  C001                     and.b      D0, D1
000044DE  6720                     beq        +0x22 /* 00004500 */
000044E0  422E 0014                clr.b      [A6 + 0x14]
000044E4  4267                     clr.w      -[A7]
000044E6  2053                     movea.l    A0, [A3]
000044E8  2F10                     move.l     -[A7], [A0]
000044EA  1F3C 0001                move.b     -[A7], 0x1
000044EE  2F28 0118                move.l     -[A7], [A0 + 0x118]
000044F2  4EAD 035A                jsr        [A5 + 0x35A /* export_103, CODE:2 @ 0000128E */]
000044F6  101F                     move.b     D0, [A7]+
000044F8  6600 025E                bne        +0x260 /* 00004758 */
000044FC  6000 025A                bra        +0x25C /* 00004758 */
label00004500:
00004500  2F0B                     move.l     -[A7], A3
00004502  4EAD 0232                jsr        [A5 + 0x232 /* export_66, CODE:1 @ 00005914 */]
00004506  2F0B                     move.l     -[A7], A3
00004508  205F                     movea.l    A0, [A7]+
0000450A  A029                     syscall    HLock
0000450C  2853                     movea.l    A4, [A3]
0000450E  1C2C 012A                move.b     D6, [A4 + 0x12A]
00004512  2F2C 0118                move.l     -[A7], [A4 + 0x118]
00004516  486E FF00                pea.l      [A6 - 0x100]
0000451A  4EAD 0D8A                jsr        [A5 + 0xD8A /* export_429, CODE:16 @ 00000686 */]
0000451E  4A6D F93A                tst.w      [A5 - 0x6C6]
00004522  6604                     bne        +0x6 /* 00004528 */
00004524  7E00                     moveq.l    D7, 0x00
00004526  6016                     bra        +0x18 /* 0000453E */
label00004528:
00004528  42A7                     clr.l      -[A7]
0000452A  3F2D F93A                move.w     -[A7], [A5 - 0x6C6]
0000452E  2F3C 5256 4557           move.l     -[A7], 0x52564557 /* 'RVEW' */
00004534  486E FF00                pea.l      [A6 - 0x100]
00004538  4EAD 08DA                jsr        [A5 + 0x8DA /* export_279, CODE:4 @ 000003CE */]
0000453C  2E1F                     move.l     D7, [A7]+
label0000453E:
0000453E  4A87                     tst.l      D7
00004540  6718                     beq        +0x1A /* 0000455A */
00004542  2047                     movea.l    A0, D7
00004544  2050                     movea.l    A0, [A0]
00004546  1950 012A                move.b     [A4 + 0x12A], [A0]
0000454A  2047                     movea.l    A0, D7
0000454C  2050                     movea.l    A0, [A0]
0000454E  1968 0001 012B           move.b     [A4 + 0x12B], [A0 + 0x1]
00004554  2F07                     move.l     -[A7], D7
00004556  A9A3                     syscall    ReleaseResource
00004558  6004                     bra        +0x6 /* 0000455E */
label0000455A:
0000455A  422C 012B                clr.b      [A4 + 0x12B]
label0000455E:
0000455E  102D F944                move.b     D0, [A5 - 0x6BC]
00004562  6704                     beq        +0x6 /* 00004568 */
00004564  422C 012A                clr.b      [A4 + 0x12A]
label00004568:
00004568  7004                     moveq.l    D0, 0x04
0000456A  B02C 012A                cmp.b      D0, [A4 + 0x12A]
0000456E  6702                     beq        +0x4 /* 00004572 */
00004570  4205                     clr.b      D5
label00004572:
00004572  2F2C 0118                move.l     -[A7], [A4 + 0x118]
00004576  486E FF00                pea.l      [A6 - 0x100]
0000457A  4EAD 0D8A                jsr        [A5 + 0xD8A /* export_429, CODE:16 @ 00000686 */]
0000457E  4240                     clr.w      D0
00004580  102E FF04                move.b     D0, [A6 - 0xFC]
00004584  7220                     moveq.l    D1, 0x20
00004586  B240                     cmp.w      D1, D0
00004588  660E                     bne        +0x10 /* 00004598 */
0000458A  486E FF00                pea.l      [A6 - 0x100]
0000458E  2F3C 0001 0004           move.l     -[A7], 0x10004
00004594  4EAD 03B2                jsr        [A5 + 0x3B2 /* export_114, CODE:3 @ 0000021C */]
label00004598:
00004598  486E FF00                pea.l      [A6 - 0x100]
0000459C  487A 01C8                pea.l      [PC + 0x1C8 /* 00004766, value 0x1734E56 */]
000045A0  4EAD 0262                jsr        [A5 + 0x262 /* export_72, CODE:1 @ 00005C08 */]
000045A4  1F05                     move.b     -[A7], D5
000045A6  486E FEFC                pea.l      [A6 - 0x104]
000045AA  486E FEFE                pea.l      [A6 - 0x102]
000045AE  2F0B                     move.l     -[A7], A3
000045B0  4EBA F602                jsr        [PC - 0x9FE /* 00003BB4 */]
000045B4  42A7                     clr.l      -[A7]
000045B6  1F2E 0012                move.b     -[A7], [A6 + 0x12]
000045BA  4267                     clr.w      -[A7]
000045BC  3F2E FEFC                move.w     -[A7], [A6 - 0x104]
000045C0  3F2E FEFE                move.w     -[A7], [A6 - 0x102]
000045C4  486E FF00                pea.l      [A6 - 0x100]
000045C8  3F2E 000C                move.w     -[A7], [A6 + 0xC]
000045CC  2F14                     move.l     -[A7], [A4]
000045CE  4EAD 01FA                jsr        [A5 + 0x1FA /* export_59, CODE:1 @ 0000554C */]
000045D2  295F 0104                move.l     [A4 + 0x104], [A7]+
000045D6  6608                     bne        +0xA /* 000045E0 */
000045D8  422E 0014                clr.b      [A6 + 0x14]
000045DC  6000 0174                bra        +0x176 /* 00004752 */
label000045E0:
000045E0  1D7C 0001 0014           move.b     [A6 + 0x14], 0x1
000045E6  2F2C 0104                move.l     -[A7], [A4 + 0x104]
000045EA  A873                     syscall    SetPort
000045EC  7004                     moveq.l    D0, 0x04
000045EE  B02C 012A                cmp.b      D0, [A4 + 0x12A]
000045F2  57C0                     seq        D0
000045F4  4A00                     tst.b      D0
000045F6  670C                     beq        +0xE /* 00004604 */
000045F8  C02E 0010                and.b      D0, [A6 + 0x10]
000045FC  6706                     beq        +0x8 /* 00004604 */
000045FE  3F3C 0009                move.w     -[A7], 0x9 /* '\t' */
00004602  A88A                     syscall    TextSize
label00004604:
00004604  2054                     movea.l    A0, [A4]
00004606  2050                     movea.l    A0, [A0]
00004608  224C                     movea.l    A1, A4
0000460A  5889                     addq.l     A1, 4
0000460C  5888                     addq.l     A0, 4
0000460E  707F                     moveq.l    D0, 0x7F
label00004610:
00004610  32D8                     move.w     [A1]+, [A0]+
00004612  51C8 FFFC                dbf        D0, -0x6 /* 00004610 */
00004616  422C 0108                clr.b      [A4 + 0x108]
0000461A  197C 0001 010A           move.b     [A4 + 0x10A], 0x1
00004620  296C 0118 010C           move.l     [A4 + 0x10C], [A4 + 0x118]
00004626  2054                     movea.l    A0, [A4]
00004628  2050                     movea.l    A0, [A0]
0000462A  3968 0110 0110           move.w     [A4 + 0x110], [A0 + 0x110]
00004630  396E 000C 0112           move.w     [A4 + 0x112], [A6 + 0xC]
00004636  7000                     moveq.l    D0, 0x00
00004638  2940 011C                move.l     [A4 + 0x11C], D0
0000463C  7000                     moveq.l    D0, 0x00
0000463E  2940 0114                move.l     [A4 + 0x114], D0
00004642  422C 0109                clr.b      [A4 + 0x109]
00004646  422C 013C                clr.b      [A4 + 0x13C]
0000464A  206C 0104                movea.l    A0, [A4 + 0x104]
0000464E  214B 0098                move.l     [A0 + 0x98], A3
00004652  422D F960                clr.b      [A5 - 0x6A0]
00004656  2B6C 0104 F95A           move.l     [A5 - 0x6A6], [A4 + 0x104]
0000465C  1F05                     move.b     -[A7], D5
0000465E  2F0B                     move.l     -[A7], A3
00004660  4EBA FD30                jsr        [PC - 0x2D0 /* 00004392 */]
00004664  2054                     movea.l    A0, [A4]
00004666  2050                     movea.l    A0, [A0]
00004668  2F28 0104                move.l     -[A7], [A0 + 0x104]
0000466C  486E FEEC                pea.l      [A6 - 0x114]
00004670  2F2C 0104                move.l     -[A7], [A4 + 0x104]
00004674  486E FEEC                pea.l      [A6 - 0x114]
00004678  1F3C 0001                move.b     -[A7], 0x1
0000467C  4EAD 01F2                jsr        [A5 + 0x1F2 /* export_58, CODE:1 @ 000050C8 */]
00004680  2F2C 0104                move.l     -[A7], [A4 + 0x104]
00004684  A915                     syscall    ShowWindow
00004686  4267                     clr.w      -[A7]
00004688  2F0B                     move.l     -[A7], A3
0000468A  486E FEFA                pea.l      [A6 - 0x106]
0000468E  4EBA F35E                jsr        [PC - 0xCA2 /* 000039EE */]
00004692  101F                     move.b     D0, [A7]+
00004694  6616                     bne        +0x18 /* 000046AC */
00004696  2F2C 0104                move.l     -[A7], [A4 + 0x104]
0000469A  A92D                     syscall    CloseWindow
0000469C  2F2C 0104                move.l     -[A7], [A4 + 0x104]
000046A0  4EAD 0122                jsr        [A5 + 0x122 /* export_32, CODE:1 @ 000032AC */]
000046A4  422E 0014                clr.b      [A6 + 0x14]
000046A8  6000 00AE                bra        +0xB0 /* 00004758 */
label000046AC:
000046AC  1F3C 0001                move.b     -[A7], 0x1
000046B0  2F0B                     move.l     -[A7], A3
000046B2  3F2E FEFA                move.w     -[A7], [A6 - 0x106]
000046B6  4EBA F3AE                jsr        [PC - 0xC52 /* 00003A66 */]
000046BA  102E 0010                move.b     D0, [A6 + 0x10]
000046BE  6760                     beq        +0x62 /* 00004720 */
000046C0  4267                     clr.w      -[A7]
000046C2  2F2C 0124                move.l     -[A7], [A4 + 0x124]
000046C6  3F3C 002C                move.w     -[A7], 0x2C /* ',' */
000046CA  A9E7                     syscall    Pack0/ListManager
000046CC  4267                     clr.w      -[A7]
000046CE  42A7                     clr.l      -[A7]
000046D0  1F2C 012A                move.b     -[A7], [A4 + 0x12A]
000046D4  42A7                     clr.l      -[A7]
000046D6  2F2C 0118                move.l     -[A7], [A4 + 0x118]
000046DA  2F2C 0124                move.l     -[A7], [A4 + 0x124]
000046DE  4EBA F14C                jsr        [PC - 0xEB4 /* 0000382C */]
000046E2  395F 0128                move.w     [A4 + 0x128], [A7]+
000046E6  1F3C 0001                move.b     -[A7], 0x1
000046EA  42A7                     clr.l      -[A7]
000046EC  2F2C 0124                move.l     -[A7], [A4 + 0x124]
000046F0  3F3C 005C                move.w     -[A7], 0x5C /* '\\' */
000046F4  A9E7                     syscall    Pack0/ListManager
000046F6  1F3C 0001                move.b     -[A7], 0x1
000046FA  2F2C 0124                move.l     -[A7], [A4 + 0x124]
000046FE  3F3C 002C                move.w     -[A7], 0x2C /* ',' */
00004702  A9E7                     syscall    Pack0/ListManager
00004704  206C 0104                movea.l    A0, [A4 + 0x104]
00004708  2F28 0018                move.l     -[A7], [A0 + 0x18]
0000470C  2F2C 0124                move.l     -[A7], [A4 + 0x124]
00004710  3F3C 0064                move.w     -[A7], 0x64 /* 'd' */
00004714  A9E7                     syscall    Pack0/ListManager
00004716  206C 0104                movea.l    A0, [A4 + 0x104]
0000471A  4868 0010                pea.l      [A0 + 0x10]
0000471E  A92A                     syscall    ValidRect
label00004720:
00004720  42A7                     clr.l      -[A7]
00004722  3F3C 0082                move.w     -[A7], 0x82
00004726  A9BF                     syscall    GetRMenu
00004728  2957 0130                move.l     [A4 + 0x130], [A7]
0000472C  A992                     syscall    DetachResource
0000472E  2F2C 0130                move.l     -[A7], [A4 + 0x130]
00004732  4267                     clr.w      -[A7]
00004734  A935                     syscall    InsertMenu
00004736  7004                     moveq.l    D0, 0x04
00004738  B006                     cmp.b      D0, D6
0000473A  660A                     bne        +0xC /* 00004746 */
0000473C  297C FFFF FF3F 0134      move.l     [A4 + 0x134], 0xFFFFFF3F
00004744  6006                     bra        +0x8 /* 0000474C */
label00004746:
00004746  709F                     moveq.l    D0, 0xFFFFFF9F
00004748  2940 0134                move.l     [A4 + 0x134], D0
label0000474C:
0000474C  2F0B                     move.l     -[A7], A3
0000474E  4EBA E83C                jsr        [PC - 0x17C4 /* 00002F8C */]
label00004752:
00004752  2F0B                     move.l     -[A7], A3
00004754  205F                     movea.l    A0, [A7]+
00004756  A02A                     syscall    HUnlock
label00004758:
00004758  4CDF 18E0                movem.l    D5,D6,D7,A3,A4, [A7]+
0000475C  4E5E                     unlink     A6
0000475E  205F                     movea.l    A0, [A7]+
00004760  DEFC 000C                add.w      A7, 0xC
00004764  4ED0                     jmp        [A0]
00004766  0173 4E56                bchg       [A3 + D4 * 8 + 0x56], D0
// begin alternate branch 00004768-00004770
export_322:
fn00004768:
00004768  4E56 FEE6                link       A6, -0x011A
0000476C  48E7 0F18                movem.l    -[A7], D4,D5,D6,D7,A3,A4
// end alternate branch 00004768-00004770
export_322: // at 00004768 (misaligned)
fn00004768: // (misaligned)
0000476A  FEE6 48E7                .extension 0xEE6 <<F/2-3/7>> // unimplemented
0000476E  0F18                     btst       [A0]+, D7
00004770  2A2E 0008                move.l     D5, [A6 + 0x8]
00004774  206E 000E                movea.l    A0, [A6 + 0xE]
00004778  203C 0000 00FF           move.l     D0, 0xFF
0000477E  C0A8 0002                and.l      D0, [A0 + 0x2]
00004782  3E00                     move.w     D7, D0
00004784  42A7                     clr.l      -[A7]
00004786  4EAD 00B2                jsr        [A5 + 0xB2 /* export_18, CODE:1 @ 00001DB8 */]
0000478A  265F                     movea.l    A3, [A7]+
0000478C  4267                     clr.w      -[A7]
0000478E  3F07                     move.w     -[A7], D7
00004790  2F05                     move.l     -[A7], D5
00004792  4EBA E4F2                jsr        [PC - 0x1B0E /* 00002C86 */]
00004796  101F                     move.b     D0, [A7]+
00004798  6600 015E                bne        +0x160 /* 000048F8 */
0000479C  3007                     move.w     D0, D7
0000479E  6B18                     bmi        +0x1A /* 000047B8 */
000047A0  B07C 000F                cmp.w      D0, 0xF
000047A4  6E12                     bgt        +0x14 /* 000047B8 */
000047A6  41FA 0160                lea.l      A0, [PC + 0x160 /* 00004908, value 0x4E56FEE0 */]
000047AA  3200                     move.w     D1, D0
000047AC  E649                     lsr        D1.w, 3
000047AE  4441                     neg.w      D1
000047B0  0130 10FF                btst       [A0 + D1.w - 0x1], D0
000047B4  0A3C 0004                xori.b     ccr, 4
label000047B8:
000047B8  6620                     bne        +0x22 /* 000047DA */
000047BA  7000                     moveq.l    D0, 0x00
000047BC  2B40 F830                move.l     [A5 - 0x7D0], D0
000047C0  422D F836                clr.b      [A5 - 0x7CA]
000047C4  0C6B 0080 006C           cmpi.w     [A3 + 0x6C], 0x80
000047CA  6D00 012C                blt        +0x12E /* 000048F8 */
000047CE  4267                     clr.w      -[A7]
000047D0  4EAD 0092                jsr        [A5 + 0x92 /* export_14, CODE:1 @ 0000187C */]
000047D4  181F                     move.b     D4, [A7]+
000047D6  6000 0120                bra        +0x122 /* 000048F8 */
label000047DA:
000047DA  102D F943                move.b     D0, [A5 - 0x6BD]
000047DE  0A00 0001                xori.b     D0, 0x1
000047E2  7208                     moveq.l    D1, 0x08
000047E4  B247                     cmp.w      D1, D7
000047E6  57C1                     seq        D1
000047E8  C001                     and.b      D0, D1
000047EA  6710                     beq        +0x12 /* 000047FC */
000047EC  2F3C 0006 0003           move.l     -[A7], 0x60003
000047F2  2F0B                     move.l     -[A7], A3
000047F4  4EAD 00A2                jsr        [A5 + 0xA2 /* export_16, CODE:1 @ 00001A96 */]
000047F8  6000 00FE                bra        +0x100 /* 000048F8 */
label000047FC:
000047FC  206E 000E                movea.l    A0, [A6 + 0xE]
00004800  2028 0006                move.l     D0, [A0 + 0x6]
00004804  90AD F830                sub.l      D0, [A5 - 0x7D0]
00004808  207C 0000 018E           movea.l    A0, 0x18E
0000480E  3210                     move.w     D1, [A0]
00004810  E341                     asl        D1.w, 1
00004812  48C1                     ext.l      D1
00004814  B280                     cmp.l      D1, D0
00004816  6F2C                     ble        +0x2E /* 00004844 */
00004818  4240                     clr.w      D0
0000481A  102D F836                move.b     D0, [A5 - 0x7CA]
0000481E  3D40 FFFC                move.w     [A6 - 0x4], D0
00004822  0C6E 0100 FFFC           cmpi.w     [A6 - 0x4], 0x100
00004828  6C24                     bge        +0x26 /* 0000484E */
0000482A  302E FFFC                move.w     D0, [A6 - 0x4]
0000482E  5240                     addq.w     D0, 1
00004830  1B40 F836                move.b     [A5 - 0x7CA], D0
00004834  302E FFFC                move.w     D0, [A6 - 0x4]
00004838  5240                     addq.w     D0, 1
0000483A  41ED F836                lea.l      A0, [A5 - 0x7CA]
0000483E  1187 0000                move.b     [A0 + D0.w], D7
00004842  600A                     bra        +0xC /* 0000484E */
label00004844:
00004844  3B7C 0120 F836           move.w     [A5 - 0x7CA], 0x120
0000484A  1B47 F837                move.b     [A5 - 0x7C9], D7
label0000484E:
0000484E  206E 000E                movea.l    A0, [A6 + 0xE]
00004852  2B68 0006 F830           move.l     [A5 - 0x7D0], [A0 + 0x6]
00004858  7000                     moveq.l    D0, 0x00
0000485A  2D40 FFF4                move.l     [A6 - 0xC], D0
0000485E  7000                     moveq.l    D0, 0x00
00004860  2D40 FFF8                move.l     [A6 - 0x8], D0
00004864  4A6E 000C                tst.w      [A6 + 0xC]
00004868  660E                     bne        +0x10 /* 00004878 */
0000486A  41EE FEF4                lea.l      A0, [A6 - 0x10C]
0000486E  2C08                     move.l     D6, A0
00004870  5286                     addq.l     D6, 1
00004872  49EE FEF4                lea.l      A4, [A6 - 0x10C]
00004876  601A                     bra        +0x1C /* 00004892 */
label00004878:
00004878  41EE FEF4                lea.l      A0, [A6 - 0x10C]
0000487C  2C08                     move.l     D6, A0
0000487E  41EE FEF4                lea.l      A0, [A6 - 0x10C]
00004882  302E 000C                move.w     D0, [A6 + 0xC]
00004886  48C0                     ext.l      D0
00004888  D088                     add.l      D0, A0
0000488A  2840                     movea.l    A4, D0
0000488C  99FC 0000 0001           sub.l      A4, 0x1
label00004892:
00004892  3D7C 00FF FFFC           move.w     [A6 - 0x4], 0xFF
00004898  2F06                     move.l     -[A7], D6
0000489A  486E FFFC                pea.l      [A6 - 0x4]
0000489E  2F2E FFF4                move.l     -[A7], [A6 - 0xC]
000048A2  2F05                     move.l     -[A7], D5
000048A4  3F3C 0038                move.w     -[A7], 0x38 /* '8' */
000048A8  A9E7                     syscall    Pack0/ListManager
000048AA  18AE FFFD                move.b     [A4], [A6 - 0x3]
000048AE  4A6E FFFC                tst.w      [A6 - 0x4]
000048B2  6F18                     ble        +0x1A /* 000048CC */
000048B4  2D6E FFF4 FFF8           move.l     [A6 - 0x8], [A6 - 0xC]
000048BA  4267                     clr.w      -[A7]
000048BC  486D F836                pea.l      [A5 - 0x7CA]
000048C0  2F0C                     move.l     -[A7], A4
000048C2  4EAD 0152                jsr        [A5 + 0x152 /* export_38, CODE:1 @ 000038A4 */]
000048C6  4A5F                     tst.w      [A7]+
000048C8  6E02                     bgt        +0x4 /* 000048CC */
000048CA  601E                     bra        +0x20 /* 000048EA */
label000048CC:
000048CC  4267                     clr.w      -[A7]
000048CE  1F3C 0001                move.b     -[A7], 0x1
000048D2  1F3C 0001                move.b     -[A7], 0x1
000048D6  486E FFF4                pea.l      [A6 - 0xC]
000048DA  2F05                     move.l     -[A7], D5
000048DC  3F3C 0048                move.w     -[A7], 0x48 /* 'H' */
000048E0  A9E7                     syscall    Pack0/ListManager
000048E2  101F                     move.b     D0, [A7]+
000048E4  0A00 0001                xori.b     D0, 0x1
000048E8  67A8                     beq        -0x56 /* 00004892 */
label000048EA:
000048EA  2F2E FFF8                move.l     -[A7], [A6 - 0x8]
000048EE  2F05                     move.l     -[A7], D5
000048F0  1F3C 0001                move.b     -[A7], 0x1
000048F4  4EBA E198                jsr        [PC - 0x1E68 /* 00002A8E */]
label000048F8:
000048F8  4CDF 18F0                movem.l    D4,D5,D6,D7,A3,A4, [A7]+
000048FC  4E5E                     unlink     A6
000048FE  205F                     movea.l    A0, [A7]+
00004900  DEFC 000A                add.w      A7, 0xA /* '\n' */
00004904  4ED0                     jmp        [A0]
00004906  2008                     move.l     D0, A0
export_323:
00004908  4E56 FEE0                link       A6, -0x0120
0000490C  48E7 0708                movem.l    -[A7], D5,D6,D7,A4
00004910  486E FEE2                pea.l      [A6 - 0x11E]
00004914  A874                     syscall    GetPort
00004916  486E FEE6                pea.l      [A6 - 0x11A]
0000491A  42A7                     clr.l      -[A7]
0000491C  2F3C 000A 000A           move.l     -[A7], 0xA000A /* '\n\0\n' */
00004922  A8A7                     syscall    SetRect
00004924  42A7                     clr.l      -[A7]
00004926  42A7                     clr.l      -[A7]
00004928  486E FEE6                pea.l      [A6 - 0x11A]
0000492C  487A 0132                pea.l      [PC + 0x132 /* 00004A60, value 0x4E56 'NV', cstring "" */]
00004930  42A7                     clr.l      -[A7]
00004932  70FF                     moveq.l    D0, 0xFFFFFFFF
00004934  2F00                     move.l     -[A7], D0
00004936  4267                     clr.w      -[A7]
00004938  42A7                     clr.l      -[A7]
0000493A  A913                     syscall    NewWindow
0000493C  285F                     movea.l    A4, [A7]+
0000493E  2F0C                     move.l     -[A7], A4
00004940  A873                     syscall    SetPort
00004942  486E FFF8                pea.l      [A6 - 0x8]
00004946  A88B                     syscall    GetFontInfo
00004948  302E FFFA                move.w     D0, [A6 - 0x6]
0000494C  D06E FFF8                add.w      D0, [A6 - 0x8]
00004950  322E FFFE                move.w     D1, [A6 - 0x2]
00004954  D240                     add.w      D1, D0
00004956  3B41 F974                move.w     [A5 - 0x68C], D1
0000495A  4267                     clr.w      -[A7]
0000495C  487A 00FA                pea.l      [PC + 0xFA /* 00004A58, value 0x62D3132, pstring "-12345" */]
00004960  A88C                     syscall    StringWidth
00004962  3B5F F968                move.w     [A5 - 0x698], [A7]+
00004966  302E FFFC                move.w     D0, [A6 - 0x4]
0000496A  48C0                     ext.l      D0
0000496C  81FC 0003                divs.w     D0, 0x3
00004970  3B40 F962                move.w     [A5 - 0x69E], D0
00004974  4267                     clr.w      -[A7]
00004976  487A 00D8                pea.l      [PC + 0xD8 /* 00004A50, value 0x7393939, pstring "9999999" */]
0000497A  A88C                     syscall    StringWidth
0000497C  3B5F F96A                move.w     [A5 - 0x696], [A7]+
00004980  302D F968                move.w     D0, [A5 - 0x698]
00004984  D06D F962                add.w      D0, [A5 - 0x69E]
00004988  D07C 0014                add.w      D0, 0x14
0000498C  3B40 F964                move.w     [A5 - 0x69C], D0
00004990  302D F96A                move.w     D0, [A5 - 0x696]
00004994  D06D F964                add.w      D0, [A5 - 0x69C]
00004998  D07C 0014                add.w      D0, 0x14
0000499C  3B40 F96E                move.w     [A5 - 0x692], D0
000049A0  206D FC54                movea.l    A0, [A5 - 0x3AC]
000049A4  3A28 004A                move.w     D5, [A0 + 0x4A]
000049A8  3C28 0044                move.w     D6, [A0 + 0x44]
000049AC  3F3C 0009                move.w     -[A7], 0x9 /* '\t' */
000049B0  A88A                     syscall    TextSize
000049B2  3F3C 0001                move.w     -[A7], 0x1
000049B6  A887                     syscall    TextFont
000049B8  3B7C FFFD F96C           move.w     [A5 - 0x694], 0xFFFD
000049BE  426E FEE0                clr.w      [A6 - 0x120]
000049C2  3E2E FEE0                move.w     D7, [A6 - 0x120]
000049C6  602A                     bra        +0x2C /* 000049F2 */
label000049C8:
000049C8  3007                     move.w     D0, D7
000049CA  D07C 002D                add.w      D0, 0x2D /* '-' */
000049CE  3F00                     move.w     -[A7], D0
000049D0  3F3C 0081                move.w     -[A7], 0x81
000049D4  486E FEF2                pea.l      [A6 - 0x10E]
000049D8  4EAD 028A                jsr        [A5 + 0x28A /* export_77, CODE:1 @ 00005CFC */]
000049DC  4267                     clr.w      -[A7]
000049DE  486E FEF2                pea.l      [A6 - 0x10E]
000049E2  A88C                     syscall    StringWidth
000049E4  301F                     move.w     D0, [A7]+
000049E6  D06D F96C                add.w      D0, [A5 - 0x694]
000049EA  5640                     addq.w     D0, 3
000049EC  3B40 F96C                move.w     [A5 - 0x694], D0
000049F0  5247                     addq.w     D7, 1
label000049F2:
000049F2  7005                     moveq.l    D0, 0x05
000049F4  B047                     cmp.w      D0, D7
000049F6  6CD0                     bge        -0x2E /* 000049C8 */
000049F8  4267                     clr.w      -[A7]
000049FA  3F2D F96E                move.w     -[A7], [A5 - 0x692]
000049FE  4EBA F2E4                jsr        [PC - 0xD1C /* 00003CE4 */]
00004A02  3B5F F966                move.w     [A5 - 0x69A], [A7]+
00004A06  4267                     clr.w      -[A7]
00004A08  487A 0044                pea.l      [PC + 0x44 /* 00004A4E, value 0x1D20739 */]
00004A0C  A88C                     syscall    StringWidth
00004A0E  3B5F F970                move.w     [A5 - 0x690], [A7]+
00004A12  422D F95F                clr.b      [A5 - 0x6A1]
00004A16  486E FFF8                pea.l      [A6 - 0x8]
00004A1A  A88B                     syscall    GetFontInfo
00004A1C  302E FFFA                move.w     D0, [A6 - 0x6]
00004A20  D06E FFF8                add.w      D0, [A6 - 0x8]
00004A24  322E FFFE                move.w     D1, [A6 - 0x2]
00004A28  D240                     add.w      D1, D0
00004A2A  5041                     addq.w     D1, 8
00004A2C  3B41 F972                move.w     [A5 - 0x68E], D1
00004A30  3F05                     move.w     -[A7], D5
00004A32  A88A                     syscall    TextSize
00004A34  3F06                     move.w     -[A7], D6
00004A36  A887                     syscall    TextFont
00004A38  2F0C                     move.l     -[A7], A4
00004A3A  A914                     syscall    DisposeWindow
00004A3C  2F2E FEE2                move.l     -[A7], [A6 - 0x11E]
00004A40  A873                     syscall    SetPort
00004A42  422D F961                clr.b      [A5 - 0x69F]
00004A46  4CDF 10E0                movem.l    D5,D6,D7,A4, [A7]+
00004A4A  4E5E                     unlink     A6
00004A4C  4E75                     rts
00004A4E  01D2                     .incomplete
00004A50  0739 3939 3939           btst       [0x39393939], D3
00004A56  3939 062D 3132           move.w     -[A4], [0x062D3132]
00004A5C  3334 3500                move.w     -[A1], [A4 + <<invalid base displacement size>> + D3 * 4]
00004A60  0000 4E56                ori.b      D0, 0x56 /* 'V' */
// begin alternate branch 00004A62-00004A6E
export_324:
00004A62  4E56 0000                link       A6, 0
00004A66  3D6D F974 0008           move.w     [A6 + 0x8], [A5 - 0x68C]
00004A6C  4E5E                     unlink     A6
// end alternate branch 00004A62-00004A6E
export_324: // at 00004A62 (misaligned)
00004A64  0000 3D6D                ori.b      D0, 0x6D /* 'm' */
00004A68  F974                     .extension 0x974 <<F/4-5/4>> // unimplemented
00004A6A  0008 4E5E                ori.b      A0, 0x5E /* '^' */
00004A6E  4E75                     rts
fn00004A70:
00004A70  4E56 FFFC                link       A6, -0x0004
00004A74  486E FFFC                pea.l      [A6 - 0x4]
00004A78  A89A                     syscall    GetPen
00004A7A  3F2E FFFE                move.w     -[A7], [A6 - 0x2]
00004A7E  302E 000E                move.w     D0, [A6 + 0xE]
00004A82  206E 0008                movea.l    A0, [A6 + 0x8]
00004A86  D068 FEF0                add.w      D0, [A0 - 0x110]
00004A8A  5240                     addq.w     D0, 1
00004A8C  3F00                     move.w     -[A7], D0
00004A8E  A893                     syscall    MoveTo
00004A90  3F2E 000C                move.w     -[A7], [A6 + 0xC]
00004A94  302E 000E                move.w     D0, [A6 + 0xE]
00004A98  206E 0008                movea.l    A0, [A6 + 0x8]
00004A9C  D068 FEF0                add.w      D0, [A0 - 0x110]
00004AA0  5240                     addq.w     D0, 1
00004AA2  3F00                     move.w     -[A7], D0
00004AA4  A891                     syscall    LineTo
00004AA6  2F2E FFFC                move.l     -[A7], [A6 - 0x4]
00004AAA  A893                     syscall    MoveTo
00004AAC  4E5E                     unlink     A6
00004AAE  205F                     movea.l    A0, [A7]+
00004AB0  504F                     addq.w     A7, 8
00004AB2  4ED0                     jmp        [A0]
export_325:
fn00004AB4:
00004AB4  4E56 FECE                link       A6, -0x0132
00004AB8  48E7 1F18                movem.l    -[A7], D3,D4,D5,D6,D7,A3,A4
00004ABC  3C2E 000E                move.w     D6, [A6 + 0xE]
00004AC0  206E 0008                movea.l    A0, [A6 + 0x8]
00004AC4  2050                     movea.l    A0, [A0]
00004AC6  7001                     moveq.l    D0, 0x01
00004AC8  B068 004E                cmp.w      D0, [A0 + 0x4E]
00004ACC  57C0                     seq        D0
00004ACE  4A00                     tst.b      D0
00004AD0  6700 0310                beq        +0x312 /* 00004DE2 */
00004AD4  206E 0008                movea.l    A0, [A6 + 0x8]
00004AD8  2050                     movea.l    A0, [A0]
00004ADA  226E 0008                movea.l    A1, [A6 + 0x8]
00004ADE  2251                     movea.l    A1, [A1]
00004AE0  2269 0008                movea.l    A1, [A1 + 0x8]
00004AE4  3210                     move.w     D1, [A0]
00004AE6  B269 0010                cmp.w      D1, [A1 + 0x10]
00004AEA  5EC1                     sgt        D1
00004AEC  C001                     and.b      D0, D1
00004AEE  6700 02F2                beq        +0x2F4 /* 00004DE2 */
00004AF2  206E 0008                movea.l    A0, [A6 + 0x8]
00004AF6  2050                     movea.l    A0, [A0]
00004AF8  2668 003C                movea.l    A3, [A0 + 0x3C]
00004AFC  4267                     clr.w      -[A7]
00004AFE  2F0B                     move.l     -[A7], A3
00004B00  4EAD 0662                jsr        [A5 + 0x662 /* export_200, CODE:3 @ 00002AEC */]
00004B04  1D5F FED5                move.b     [A6 - 0x12B], [A7]+
00004B08  2F0B                     move.l     -[A7], A3
00004B0A  205F                     movea.l    A0, [A7]+
00004B0C  A029                     syscall    HLock
00004B0E  486E FEDA                pea.l      [A6 - 0x126]
00004B12  A874                     syscall    GetPort
00004B14  206E 0008                movea.l    A0, [A6 + 0x8]
00004B18  2050                     movea.l    A0, [A0]
00004B1A  2828 0008                move.l     D4, [A0 + 0x8]
00004B1E  4267                     clr.w      -[A7]
00004B20  4EBA BB9C                jsr        [PC - 0x4464 /* 000006BE */]
00004B24  3A1F                     move.w     D5, [A7]+
00004B26  5345                     subq.w     D5, 1
00004B28  2044                     movea.l    A0, D4
00004B2A  2D68 0010 FEF8           move.l     [A6 - 0x108], [A0 + 0x10]
00004B30  3D45 FEFC                move.w     [A6 - 0x104], D5
00004B34  2044                     movea.l    A0, D4
00004B36  3D68 0016 FEFE           move.w     [A6 - 0x102], [A0 + 0x16]
00004B3C  486E FEF8                pea.l      [A6 - 0x108]
00004B40  A8A3                     syscall    EraseRect
00004B42  206E FEDA                movea.l    A0, [A6 - 0x126]
00004B46  3D68 0044 FEEA           move.w     [A6 - 0x116], [A0 + 0x44]
00004B4C  3D68 004A FEEC           move.w     [A6 - 0x114], [A0 + 0x4A]
00004B52  3F3C 0009                move.w     -[A7], 0x9 /* '\t' */
00004B56  A88A                     syscall    TextSize
00004B58  3F3C 0001                move.w     -[A7], 0x1
00004B5C  A887                     syscall    TextFont
00004B5E  486E FEDE                pea.l      [A6 - 0x122]
00004B62  A88B                     syscall    GetFontInfo
00004B64  3005                     move.w     D0, D5
00004B66  906E FEE0                sub.w      D0, [A6 - 0x120]
00004B6A  5940                     subq.w     D0, 4
00004B6C  5340                     subq.w     D0, 1
00004B6E  322E 000C                move.w     D1, [A6 + 0xC]
00004B72  D240                     add.w      D1, D0
00004B74  3D41 FEF0                move.w     [A6 - 0x110], D1
00004B78  2044                     movea.l    A0, D4
00004B7A  0C68 2711 006C           cmpi.w     [A0 + 0x6C], 0x2711
00004B80  6600 00AE                bne        +0xB0 /* 00004C30 */
00004B84  2853                     movea.l    A4, [A3]
00004B86  2F3C 0081 0027           move.l     -[A7], 0x810027
00004B8C  486E FF00                pea.l      [A6 - 0x100]
00004B90  4EAD 028A                jsr        [A5 + 0x28A /* export_77, CODE:1 @ 00005CFC */]
00004B94  302C 018A                move.w     D0, [A4 + 0x18A]
00004B98  D046                     add.w      D0, D6
00004B9A  3E00                     move.w     D7, D0
00004B9C  9E6C 0190                sub.w      D7, [A4 + 0x190]
00004BA0  3F07                     move.w     -[A7], D7
00004BA2  3F2E FEF0                move.w     -[A7], [A6 - 0x110]
00004BA6  A893                     syscall    MoveTo
00004BA8  486E FF00                pea.l      [A6 - 0x100]
00004BAC  A884                     syscall    DrawString
00004BAE  3F3C 0002                move.w     -[A7], 0x2
00004BB2  3F07                     move.w     -[A7], D7
00004BB4  2F0E                     move.l     -[A7], A6
00004BB6  4EBA FEB8                jsr        [PC - 0x148 /* 00004A70 */]
00004BBA  2F3C 0081 0028           move.l     -[A7], 0x810028
00004BC0  486E FF00                pea.l      [A6 - 0x100]
00004BC4  4EAD 028A                jsr        [A5 + 0x28A /* export_77, CODE:1 @ 00005CFC */]
00004BC8  302C 018C                move.w     D0, [A4 + 0x18C]
00004BCC  D046                     add.w      D0, D6
00004BCE  2F00                     move.l     -[A7], D0
00004BD0  4267                     clr.w      -[A7]
00004BD2  486E FF00                pea.l      [A6 - 0x100]
00004BD6  A88C                     syscall    StringWidth
00004BD8  321F                     move.w     D1, [A7]+
00004BDA  201F                     move.l     D0, [A7]+
00004BDC  9041                     sub.w      D0, D1
00004BDE  3F00                     move.w     -[A7], D0
00004BE0  3F2E FEF0                move.w     -[A7], [A6 - 0x110]
00004BE4  A893                     syscall    MoveTo
00004BE6  486E FF00                pea.l      [A6 - 0x100]
00004BEA  A884                     syscall    DrawString
00004BEC  206D F936                movea.l    A0, [A5 - 0x6CA]
00004BF0  2050                     movea.l    A0, [A0]
00004BF2  1028 000D                move.b     D0, [A0 + 0xD]
00004BF6  6700 018C                beq        +0x18E /* 00004D84 */
00004BFA  2F3C 0081 0029           move.l     -[A7], 0x810029
00004C00  486E FF00                pea.l      [A6 - 0x100]
00004C04  4EAD 028A                jsr        [A5 + 0x28A /* export_77, CODE:1 @ 00005CFC */]
00004C08  302C 018E                move.w     D0, [A4 + 0x18E]
00004C0C  D046                     add.w      D0, D6
00004C0E  2F00                     move.l     -[A7], D0
00004C10  4267                     clr.w      -[A7]
00004C12  486E FF00                pea.l      [A6 - 0x100]
00004C16  A88C                     syscall    StringWidth
00004C18  321F                     move.w     D1, [A7]+
00004C1A  201F                     move.l     D0, [A7]+
00004C1C  9041                     sub.w      D0, D1
00004C1E  3F00                     move.w     -[A7], D0
00004C20  3F2E FEF0                move.w     -[A7], [A6 - 0x110]
00004C24  A893                     syscall    MoveTo
00004C26  486E FF00                pea.l      [A6 - 0x100]
00004C2A  A884                     syscall    DrawString
00004C2C  6000 0156                bra        +0x158 /* 00004D84 */
label00004C30:
00004C30  2853                     movea.l    A4, [A3]
00004C32  2F3C 0081 002A           move.l     -[A7], 0x81002A
00004C38  486E FF00                pea.l      [A6 - 0x100]
00004C3C  4EAD 028A                jsr        [A5 + 0x28A /* export_77, CODE:1 @ 00005CFC */]
00004C40  302D F962                move.w     D0, [A5 - 0x69E]
00004C44  D046                     add.w      D0, D6
00004C46  48C0                     ext.l      D0
00004C48  7200                     moveq.l    D1, 0x00
00004C4A  48E7 C000                movem.l    -[A7], D0,D1
00004C4E  4267                     clr.w      -[A7]
00004C50  486E FF00                pea.l      [A6 - 0x100]
00004C54  A88C                     syscall    StringWidth
00004C56  341F                     move.w     D2, [A7]+
00004C58  4CDF 0003                movem.l    D0,D1, [A7]+
00004C5C  362D F968                move.w     D3, [A5 - 0x698]
00004C60  9642                     sub.w      D3, D2
00004C62  3203                     move.w     D1, D3
00004C64  E289                     lsr        D1, 1
00004C66  D280                     add.l      D1, D0
00004C68  3E01                     move.w     D7, D1
00004C6A  3F07                     move.w     -[A7], D7
00004C6C  3F2E FEF0                move.w     -[A7], [A6 - 0x110]
00004C70  A893                     syscall    MoveTo
00004C72  486E FF00                pea.l      [A6 - 0x100]
00004C76  A884                     syscall    DrawString
00004C78  4A2C 012A                tst.b      [A4 + 0x12A]
00004C7C  660A                     bne        +0xC /* 00004C88 */
00004C7E  4267                     clr.w      -[A7]
00004C80  3F07                     move.w     -[A7], D7
00004C82  2F0E                     move.l     -[A7], A6
00004C84  4EBA FDEA                jsr        [PC - 0x216 /* 00004A70 */]
label00004C88:
00004C88  2F3C 0081 0029           move.l     -[A7], 0x810029
00004C8E  486E FF00                pea.l      [A6 - 0x100]
00004C92  4EAD 028A                jsr        [A5 + 0x28A /* export_77, CODE:1 @ 00005CFC */]
00004C96  302D F964                move.w     D0, [A5 - 0x69C]
00004C9A  D046                     add.w      D0, D6
00004C9C  322D F96A                move.w     D1, [A5 - 0x696]
00004CA0  D240                     add.w      D1, D0
00004CA2  2F01                     move.l     -[A7], D1
00004CA4  4267                     clr.w      -[A7]
00004CA6  486E FF00                pea.l      [A6 - 0x100]
00004CAA  A88C                     syscall    StringWidth
00004CAC  301F                     move.w     D0, [A7]+
00004CAE  221F                     move.l     D1, [A7]+
00004CB0  9240                     sub.w      D1, D0
00004CB2  2F01                     move.l     -[A7], D1
00004CB4  4267                     clr.w      -[A7]
00004CB6  487A 0136                pea.l      [PC + 0x136 /* 00004DEE, value 0x1314E56 */]
00004CBA  A88C                     syscall    StringWidth
00004CBC  301F                     move.w     D0, [A7]+
00004CBE  221F                     move.l     D1, [A7]+
00004CC0  3E01                     move.w     D7, D1
00004CC2  9E40                     sub.w      D7, D0
00004CC4  3F07                     move.w     -[A7], D7
00004CC6  3F2E FEF0                move.w     -[A7], [A6 - 0x110]
00004CCA  A893                     syscall    MoveTo
00004CCC  486E FF00                pea.l      [A6 - 0x100]
00004CD0  A884                     syscall    DrawString
00004CD2  7002                     moveq.l    D0, 0x02
00004CD4  B02C 012A                cmp.b      D0, [A4 + 0x12A]
00004CD8  660A                     bne        +0xC /* 00004CE4 */
00004CDA  4267                     clr.w      -[A7]
00004CDC  3F07                     move.w     -[A7], D7
00004CDE  2F0E                     move.l     -[A7], A6
00004CE0  4EBA FD8E                jsr        [PC - 0x272 /* 00004A70 */]
label00004CE4:
00004CE4  302D F96E                move.w     D0, [A5 - 0x692]
00004CE8  D046                     add.w      D0, D6
00004CEA  3F00                     move.w     -[A7], D0
00004CEC  3F2E FEF0                move.w     -[A7], [A6 - 0x110]
00004CF0  A893                     syscall    MoveTo
00004CF2  102C 012B                move.b     D0, [A4 + 0x12B]
00004CF6  6756                     beq        +0x58 /* 00004D4E */
00004CF8  7204                     moveq.l    D1, 0x04
00004CFA  B22C 012A                cmp.b      D1, [A4 + 0x12A]
00004CFE  56C1                     sne        D1
00004D00  C001                     and.b      D0, D1
00004D02  674A                     beq        +0x4C /* 00004D4E */
00004D04  426E FECE                clr.w      [A6 - 0x132]
00004D08  3D6E FECE FEF4           move.w     [A6 - 0x10C], [A6 - 0x132]
00004D0E  6028                     bra        +0x2A /* 00004D38 */
label00004D10:
00004D10  302E FEF4                move.w     D0, [A6 - 0x10C]
00004D14  D07C 002D                add.w      D0, 0x2D /* '-' */
00004D18  3F00                     move.w     -[A7], D0
00004D1A  3F3C 0081                move.w     -[A7], 0x81
00004D1E  486E FF00                pea.l      [A6 - 0x100]
00004D22  4EAD 028A                jsr        [A5 + 0x28A /* export_77, CODE:1 @ 00005CFC */]
00004D26  486E FF00                pea.l      [A6 - 0x100]
00004D2A  A884                     syscall    DrawString
00004D2C  2F3C 0000 0003           move.l     -[A7], 0x3
00004D32  A894                     syscall    Move
00004D34  526E FEF4                addq.w     [A6 - 0x10C], 1
label00004D38:
00004D38  7005                     moveq.l    D0, 0x05
00004D3A  B06E FEF4                cmp.w      D0, [A6 - 0x10C]
00004D3E  6CD0                     bge        -0x2E /* 00004D10 */
00004D40  302D F966                move.w     D0, [A5 - 0x69A]
00004D44  D046                     add.w      D0, D6
00004D46  3F00                     move.w     -[A7], D0
00004D48  3F2E FEF0                move.w     -[A7], [A6 - 0x110]
00004D4C  A893                     syscall    MoveTo
label00004D4E:
00004D4E  3F2D F970                move.w     -[A7], [A5 - 0x690]
00004D52  4267                     clr.w      -[A7]
00004D54  A894                     syscall    Move
00004D56  486E FED0                pea.l      [A6 - 0x130]
00004D5A  A89A                     syscall    GetPen
00004D5C  2F3C 0081 002C           move.l     -[A7], 0x81002C
00004D62  486E FF00                pea.l      [A6 - 0x100]
00004D66  4EAD 028A                jsr        [A5 + 0x28A /* export_77, CODE:1 @ 00005CFC */]
00004D6A  486E FF00                pea.l      [A6 - 0x100]
00004D6E  A884                     syscall    DrawString
00004D70  7001                     moveq.l    D0, 0x01
00004D72  B02C 012A                cmp.b      D0, [A4 + 0x12A]
00004D76  660C                     bne        +0xE /* 00004D84 */
00004D78  4267                     clr.w      -[A7]
00004D7A  3F2E FED2                move.w     -[A7], [A6 - 0x12E]
00004D7E  2F0E                     move.l     -[A7], A6
00004D80  4EBA FCEE                jsr        [PC - 0x312 /* 00004A70 */]
label00004D84:
00004D84  4A46                     tst.w      D6
00004D86  6644                     bne        +0x46 /* 00004DCC */
00004D88  2044                     movea.l    A0, D4
00004D8A  3028 0016                move.w     D0, [A0 + 0x16]
00004D8E  D046                     add.w      D0, D6
00004D90  3D40 FEF6                move.w     [A6 - 0x10A], D0
00004D94  3F06                     move.w     -[A7], D6
00004D96  302E 000C                move.w     D0, [A6 + 0xC]
00004D9A  D045                     add.w      D0, D5
00004D9C  3F00                     move.w     -[A7], D0
00004D9E  A893                     syscall    MoveTo
00004DA0  3F2E FEF6                move.w     -[A7], [A6 - 0x10A]
00004DA4  302E 000C                move.w     D0, [A6 + 0xC]
00004DA8  D045                     add.w      D0, D5
00004DAA  3F00                     move.w     -[A7], D0
00004DAC  A891                     syscall    LineTo
00004DAE  3F06                     move.w     -[A7], D6
00004DB0  302E 000C                move.w     D0, [A6 + 0xC]
00004DB4  D045                     add.w      D0, D5
00004DB6  5540                     subq.w     D0, 2
00004DB8  3F00                     move.w     -[A7], D0
00004DBA  A893                     syscall    MoveTo
00004DBC  3F2E FEF6                move.w     -[A7], [A6 - 0x10A]
00004DC0  302E 000C                move.w     D0, [A6 + 0xC]
00004DC4  D045                     add.w      D0, D5
00004DC6  5540                     subq.w     D0, 2
00004DC8  3F00                     move.w     -[A7], D0
00004DCA  A891                     syscall    LineTo
label00004DCC:
00004DCC  3F2E FEEC                move.w     -[A7], [A6 - 0x114]
00004DD0  A88A                     syscall    TextSize
00004DD2  3F2E FEEA                move.w     -[A7], [A6 - 0x116]
00004DD6  A887                     syscall    TextFont
00004DD8  2F0B                     move.l     -[A7], A3
00004DDA  1F2E FED5                move.b     -[A7], [A6 - 0x12B]
00004DDE  4EAD 066A                jsr        [A5 + 0x66A /* export_201, CODE:3 @ 00002AF6 */]
label00004DE2:
00004DE2  4CDF 18F8                movem.l    D3,D4,D5,D6,D7,A3,A4, [A7]+
00004DE6  4E5E                     unlink     A6
00004DE8  205F                     movea.l    A0, [A7]+
00004DEA  504F                     addq.w     A7, 8
00004DEC  4ED0                     jmp        [A0]
00004DEE  0131 4E56                btst       [A1 + D4 * 8 + 0x56], D0
// begin alternate branch 00004DF0-00004DF4
fn00004DF0:
00004DF0  4E56 FFE2                link       A6, -0x001E
// end alternate branch 00004DF0-00004DF4
fn00004DF0: // (misaligned)
00004DF2  FFE2                     .invalid   <<F/7/7>>
00004DF4  48E7 0F18                movem.l    -[A7], D4,D5,D6,D7,A3,A4
00004DF8  206E 0008                movea.l    A0, [A6 + 0x8]
00004DFC  2850                     movea.l    A4, [A0]
00004DFE  302C 0006                move.w     D0, [A4 + 0x6]
00004E02  907C 000F                sub.w      D0, 0xF
00004E06  B06E 000E                cmp.w      D0, [A6 + 0xE]
00004E0A  6C0A                     bge        +0xC /* 00004E16 */
00004E0C  1D7C 0001 0010           move.b     [A6 + 0x10], 0x1
00004E12  6000 00CE                bra        +0xD0 /* 00004EE2 */
label00004E16:
00004E16  302C 000C                move.w     D0, [A4 + 0xC]
00004E1A  E340                     asl        D0.w, 1
00004E1C  B06C 0010                cmp.w      D0, [A4 + 0x10]
00004E20  6F08                     ble        +0xA /* 00004E2A */
00004E22  3D7C 0001 FFFA           move.w     [A6 - 0x6], 0x1
00004E28  6006                     bra        +0x8 /* 00004E30 */
label00004E2A:
00004E2A  3D6C 000C FFFA           move.w     [A6 - 0x6], [A4 + 0xC]
label00004E30:
00004E30  47EC 0014                lea.l      A3, [A4 + 0x14]
00004E34  302B 0004                move.w     D0, [A3 + 0x4]
00004E38  B06C 004C                cmp.w      D0, [A4 + 0x4C]
00004E3C  6F08                     ble        +0xA /* 00004E46 */
00004E3E  3A2C 004C                move.w     D5, [A4 + 0x4C]
00004E42  5345                     subq.w     D5, 1
00004E44  6006                     bra        +0x8 /* 00004E4C */
label00004E46:
00004E46  3A2B 0004                move.w     D5, [A3 + 0x4]
00004E4A  5345                     subq.w     D5, 1
label00004E4C:
00004E4C  302B 0006                move.w     D0, [A3 + 0x6]
00004E50  B06C 004E                cmp.w      D0, [A4 + 0x4E]
00004E54  6F08                     ble        +0xA /* 00004E5E */
00004E56  382C 004E                move.w     D4, [A4 + 0x4E]
00004E5A  5344                     subq.w     D4, 1
00004E5C  6006                     bra        +0x8 /* 00004E64 */
label00004E5E:
00004E5E  382B 0006                move.w     D4, [A3 + 0x6]
00004E62  5344                     subq.w     D4, 1
label00004E64:
00004E64  3D6B 0002 FFE8           move.w     [A6 - 0x18], [A3 + 0x2]
00004E6A  3D44 FFE6                move.w     [A6 - 0x1A], D4
00004E6E  3E2E FFE8                move.w     D7, [A6 - 0x18]
00004E72  605C                     bra        +0x5E /* 00004ED0 */
label00004E74:
00004E74  3D53 FFE4                move.w     [A6 - 0x1C], [A3]
00004E78  3D45 FFE2                move.w     [A6 - 0x1E], D5
00004E7C  3C2E FFE4                move.w     D6, [A6 - 0x1C]
00004E80  6044                     bra        +0x46 /* 00004EC6 */
label00004E82:
00004E82  3D47 FFF4                move.w     [A6 - 0xC], D7
00004E86  3D46 FFF2                move.w     [A6 - 0xE], D6
00004E8A  486E FFEA                pea.l      [A6 - 0x16]
00004E8E  2F2E FFF2                move.l     -[A7], [A6 - 0xE]
00004E92  2F2E 0008                move.l     -[A7], [A6 + 0x8]
00004E96  3F3C 004C                move.w     -[A7], 0x4C /* 'L' */
00004E9A  A9E7                     syscall    Pack0/ListManager
00004E9C  486E FFEA                pea.l      [A6 - 0x16]
00004EA0  3F2C 000E                move.w     -[A7], [A4 + 0xE]
00004EA4  3F2E FFFA                move.w     -[A7], [A6 - 0x6]
00004EA8  A8A9                     syscall    InsetRect
00004EAA  4267                     clr.w      -[A7]
00004EAC  2F2E 000C                move.l     -[A7], [A6 + 0xC]
00004EB0  486E FFEA                pea.l      [A6 - 0x16]
00004EB4  A8AD                     syscall    PtInRect
00004EB6  101F                     move.b     D0, [A7]+
00004EB8  6708                     beq        +0xA /* 00004EC2 */
00004EBA  1D7C 0001 0010           move.b     [A6 + 0x10], 0x1
00004EC0  6020                     bra        +0x22 /* 00004EE2 */
label00004EC2:
00004EC2  5246                     addq.w     D6, 1
00004EC4  6906                     bvs        +0x8 /* 00004ECC */
label00004EC6:
00004EC6  BC6E FFE2                cmp.w      D6, [A6 - 0x1E]
00004ECA  6FB6                     ble        -0x48 /* 00004E82 */
label00004ECC:
00004ECC  5247                     addq.w     D7, 1
00004ECE  6906                     bvs        +0x8 /* 00004ED6 */
label00004ED0:
00004ED0  BE6E FFE6                cmp.w      D7, [A6 - 0x1A]
00004ED4  6F9E                     ble        -0x60 /* 00004E74 */
label00004ED6:
00004ED6  2F2E 0008                move.l     -[A7], [A6 + 0x8]
00004EDA  4EBA BD2A                jsr        [PC - 0x42D6 /* 00000C06 */]
00004EDE  422E 0010                clr.b      [A6 + 0x10]
label00004EE2:
00004EE2  4CDF 18F0                movem.l    D4,D5,D6,D7,A3,A4, [A7]+
00004EE6  4E5E                     unlink     A6
00004EE8  205F                     movea.l    A0, [A7]+
00004EEA  504F                     addq.w     A7, 8
00004EEC  4ED0                     jmp        [A0]
export_326:
fn00004EEE:
00004EEE  4E56 FFE2                link       A6, -0x001E
00004EF2  48E7 0318                movem.l    -[A7], D6,D7,A3,A4
00004EF6  266E 0008                movea.l    A3, [A6 + 0x8]
00004EFA  2E2E 000C                move.l     D7, [A6 + 0xC]
00004EFE  4AAB 0082                tst.l      [A3 + 0x82]
00004F02  6700 0160                beq        +0x162 /* 00005064 */
00004F06  2047                     movea.l    A0, D7
00004F08  2850                     movea.l    A4, [A0]
00004F0A  4A2C 010A                tst.b      [A4 + 0x10A]
00004F0E  6614                     bne        +0x16 /* 00004F24 */
00004F10  1F3C 0001                move.b     -[A7], 0x1
00004F14  2F07                     move.l     -[A7], D7
00004F16  486E FFEA                pea.l      [A6 - 0x16]
00004F1A  486E FFEC                pea.l      [A6 - 0x14]
00004F1E  4EBA F052                jsr        [PC - 0xFAE /* 00003F72 */]
00004F22  601A                     bra        +0x1C /* 00004F3E */
label00004F24:
00004F24  1F3C 0001                move.b     -[A7], 0x1
00004F28  4267                     clr.w      -[A7]
00004F2A  2F07                     move.l     -[A7], D7
00004F2C  4EBA B2AC                jsr        [PC - 0x4D54 /* 000001DA */]
00004F30  486E FFEA                pea.l      [A6 - 0x16]
00004F34  486E FFEC                pea.l      [A6 - 0x14]
00004F38  2F07                     move.l     -[A7], D7
00004F3A  4EBA F202                jsr        [PC - 0xDFE /* 0000413E */]
label00004F3E:
00004F3E  486E FFE2                pea.l      [A6 - 0x1E]
00004F42  1F3C 0001                move.b     -[A7], 0x1
00004F46  2F0B                     move.l     -[A7], A3
00004F48  4EAD 019A                jsr        [A5 + 0x19A /* export_47, CODE:1 @ 00004234 */]
00004F4C  205F                     movea.l    A0, [A7]+
00004F4E  43EE FFF8                lea.l      A1, [A6 - 0x8]
00004F52  7003                     moveq.l    D0, 0x03
label00004F54:
00004F54  32D8                     move.w     [A1]+, [A0]+
00004F56  51C8 FFFC                dbf        D0, -0x6 /* 00004F54 */
00004F5A  41EE FFF0                lea.l      A0, [A6 - 0x10]
00004F5E  43EB 0010                lea.l      A1, [A3 + 0x10]
00004F62  7003                     moveq.l    D0, 0x03
label00004F64:
00004F64  30D9                     move.w     [A0]+, [A1]+
00004F66  51C8 FFFC                dbf        D0, -0x6 /* 00004F64 */
00004F6A  486E FFF0                pea.l      [A6 - 0x10]
00004F6E  A870                     syscall    LocalToGlobal
00004F70  486E FFF4                pea.l      [A6 - 0xC]
00004F74  A870                     syscall    LocalToGlobal
00004F76  302E FFF0                move.w     D0, [A6 - 0x10]
00004F7A  5340                     subq.w     D0, 1
00004F7C  206B 0072                movea.l    A0, [A3 + 0x72]
00004F80  2050                     movea.l    A0, [A0]
00004F82  3C00                     move.w     D6, D0
00004F84  9C68 0002                sub.w      D6, [A0 + 0x2]
00004F88  3006                     move.w     D0, D6
00004F8A  D06E FFF8                add.w      D0, [A6 - 0x8]
00004F8E  5640                     addq.w     D0, 3
00004F90  3D40 FFF8                move.w     [A6 - 0x8], D0
00004F94  596E FFFC                subq.w     [A6 - 0x4], 4
00004F98  302E FFEC                move.w     D0, [A6 - 0x14]
00004F9C  D06E FFF0                add.w      D0, [A6 - 0x10]
00004FA0  3D40 FFF4                move.w     [A6 - 0xC], D0
00004FA4  302E FFEA                move.w     D0, [A6 - 0x16]
00004FA8  D06E FFF2                add.w      D0, [A6 - 0xE]
00004FAC  3D40 FFF6                move.w     [A6 - 0xA], D0
00004FB0  302E FFF4                move.w     D0, [A6 - 0xC]
00004FB4  B06E FFFC                cmp.w      D0, [A6 - 0x4]
00004FB8  6F1E                     ble        +0x20 /* 00004FD8 */
00004FBA  3D6E FFFC FFF4           move.w     [A6 - 0xC], [A6 - 0x4]
00004FC0  302E FFF4                move.w     D0, [A6 - 0xC]
00004FC4  906E FFEC                sub.w      D0, [A6 - 0x14]
00004FC8  3D40 FFF0                move.w     [A6 - 0x10], D0
00004FCC  B06E FFF8                cmp.w      D0, [A6 - 0x8]
00004FD0  6C06                     bge        +0x8 /* 00004FD8 */
00004FD2  3D6E FFF8 FFF0           move.w     [A6 - 0x10], [A6 - 0x8]
label00004FD8:
00004FD8  302E FFF6                move.w     D0, [A6 - 0xA]
00004FDC  B06E FFFE                cmp.w      D0, [A6 - 0x2]
00004FE0  6F1E                     ble        +0x20 /* 00005000 */
00004FE2  3D6E FFFE FFF6           move.w     [A6 - 0xA], [A6 - 0x2]
00004FE8  302E FFF6                move.w     D0, [A6 - 0xA]
00004FEC  906E FFEA                sub.w      D0, [A6 - 0x16]
00004FF0  3D40 FFF2                move.w     [A6 - 0xE], D0
00004FF4  B06E FFFA                cmp.w      D0, [A6 - 0x6]
00004FF8  6C06                     bge        +0x8 /* 00005000 */
00004FFA  3D6E FFFA FFF2           move.w     [A6 - 0xE], [A6 - 0x6]
label00005000:
00005000  302E FFF0                move.w     D0, [A6 - 0x10]
00005004  B06E FFF8                cmp.w      D0, [A6 - 0x8]
00005008  6C1E                     bge        +0x20 /* 00005028 */
0000500A  3D6E FFF8 FFF0           move.w     [A6 - 0x10], [A6 - 0x8]
00005010  302E FFEC                move.w     D0, [A6 - 0x14]
00005014  D06E FFF0                add.w      D0, [A6 - 0x10]
00005018  3D40 FFF4                move.w     [A6 - 0xC], D0
0000501C  B06E FFFC                cmp.w      D0, [A6 - 0x4]
00005020  6F06                     ble        +0x8 /* 00005028 */
00005022  3D6E FFFC FFF4           move.w     [A6 - 0xC], [A6 - 0x4]
label00005028:
00005028  302E FFF2                move.w     D0, [A6 - 0xE]
0000502C  B06E FFFA                cmp.w      D0, [A6 - 0x6]
00005030  6C1E                     bge        +0x20 /* 00005050 */
00005032  3D6E FFFA FFF2           move.w     [A6 - 0xE], [A6 - 0x6]
00005038  302E FFEA                move.w     D0, [A6 - 0x16]
0000503C  D06E FFF2                add.w      D0, [A6 - 0xE]
00005040  3D40 FFF6                move.w     [A6 - 0xA], D0
00005044  B06E FFFE                cmp.w      D0, [A6 - 0x2]
00005048  6F06                     ble        +0x8 /* 00005050 */
0000504A  3D6E FFFE FFF6           move.w     [A6 - 0xA], [A6 - 0x2]
label00005050:
00005050  206B 0082                movea.l    A0, [A3 + 0x82]
00005054  2050                     movea.l    A0, [A0]
00005056  5088                     addq.l     A0, 8
00005058  43EE FFF0                lea.l      A1, [A6 - 0x10]
0000505C  7003                     moveq.l    D0, 0x03
label0000505E:
0000505E  30D9                     move.w     [A0]+, [A1]+
00005060  51C8 FFFC                dbf        D0, -0x6 /* 0000505E */
label00005064:
00005064  4CDF 18C0                movem.l    D6,D7,A3,A4, [A7]+
00005068  4E5E                     unlink     A6
0000506A  205F                     movea.l    A0, [A7]+
0000506C  504F                     addq.w     A7, 8
0000506E  4ED0                     jmp        [A0]
fn00005070:
00005070  4E56 FFDC                link       A6, -0x0024
00005074  48E7 0F18                movem.l    -[A7], D4,D5,D6,D7,A3,A4
00005078  42A7                     clr.l      -[A7]
0000507A  4EAD 00B2                jsr        [A5 + 0xB2 /* export_18, CODE:1 @ 00001DB8 */]
0000507E  265F                     movea.l    A3, [A7]+
00005080  41EE FFF0                lea.l      A0, [A6 - 0x10]
00005084  43EB 0010                lea.l      A1, [A3 + 0x10]
00005088  7003                     moveq.l    D0, 0x03
label0000508A:
0000508A  30D9                     move.w     [A0]+, [A1]+
0000508C  51C8 FFFC                dbf        D0, -0x6 /* 0000508A */
00005090  2F2E 000A                move.l     -[A7], [A6 + 0xA]
00005094  2F0B                     move.l     -[A7], A3
00005096  4EBA FE56                jsr        [PC - 0x1AA /* 00004EEE */]
0000509A  2F0B                     move.l     -[A7], A3
0000509C  3F2E 0008                move.w     -[A7], [A6 + 0x8]
000050A0  1F3C 0001                move.b     -[A7], 0x1
000050A4  A83A                     syscall    ZoomWindow
000050A6  49EB 0010                lea.l      A4, [A3 + 0x10]
000050AA  3A2C 0006                move.w     D5, [A4 + 0x6]
000050AE  9A6C 0002                sub.w      D5, [A4 + 0x2]
000050B2  382C 0004                move.w     D4, [A4 + 0x4]
000050B6  9854                     sub.w      D4, [A4]
000050B8  302E FFF6                move.w     D0, [A6 - 0xA]
000050BC  906E FFF2                sub.w      D0, [A6 - 0xE]
000050C0  B045                     cmp.w      D0, D5
000050C2  56C0                     sne        D0
000050C4  4A00                     tst.b      D0
000050C6  6612                     bne        +0x14 /* 000050DA */
000050C8  322E FFF4                move.w     D1, [A6 - 0xC]
000050CC  926E FFF0                sub.w      D1, [A6 - 0x10]
000050D0  B244                     cmp.w      D1, D4
000050D2  56C1                     sne        D1
000050D4  8001                     or.b       D0, D1
000050D6  6700 00A2                beq        +0xA4 /* 0000517A */
label000050DA:
000050DA  486B 0010                pea.l      [A3 + 0x10]
000050DE  A8A3                     syscall    EraseRect
000050E0  42A7                     clr.l      -[A7]
000050E2  A8D8                     syscall    NewRgn
000050E4  2C17                     move.l     D6, [A7]
000050E6  A87A                     syscall    GetClip
000050E8  7000                     moveq.l    D0, 0x00
000050EA  2D40 FFFC                move.l     [A6 - 0x4], D0
000050EE  7000                     moveq.l    D0, 0x00
000050F0  2D40 FFF8                move.l     [A6 - 0x8], D0
000050F4  486E FFF8                pea.l      [A6 - 0x8]
000050F8  A87B                     syscall    ClipRect
000050FA  0C6B 2711 006C           cmpi.w     [A3 + 0x6C], 0x2711
00005100  660C                     bne        +0xE /* 0000510E */
00005102  206B 0098                movea.l    A0, [A3 + 0x98]
00005106  2050                     movea.l    A0, [A0]
00005108  2E28 0124                move.l     D7, [A0 + 0x124]
0000510C  600A                     bra        +0xC /* 00005118 */
label0000510E:
0000510E  206B 0098                movea.l    A0, [A3 + 0x98]
00005112  2050                     movea.l    A0, [A0]
00005114  2E28 0124                move.l     D7, [A0 + 0x124]
label00005118:
00005118  4267                     clr.w      -[A7]
0000511A  2F07                     move.l     -[A7], D7
0000511C  3F3C 002C                move.w     -[A7], 0x2C /* ',' */
00005120  A9E7                     syscall    Pack0/ListManager
00005122  3F05                     move.w     -[A7], D5
00005124  3F04                     move.w     -[A7], D4
00005126  2F0B                     move.l     -[A7], A3
00005128  2F07                     move.l     -[A7], D7
0000512A  4EBA D3FA                jsr        [PC - 0x2C06 /* 00002526 */]
0000512E  7000                     moveq.l    D0, 0x00
00005130  2D40 FFDC                move.l     [A6 - 0x24], D0
00005134  4267                     clr.w      -[A7]
00005136  1F3C 0001                move.b     -[A7], 0x1
0000513A  486E FFDC                pea.l      [A6 - 0x24]
0000513E  2F07                     move.l     -[A7], D7
00005140  3F3C 003C                move.w     -[A7], 0x3C /* '<' */
00005144  A9E7                     syscall    Pack0/ListManager
00005146  101F                     move.b     D0, [A7]+
00005148  670E                     beq        +0x10 /* 00005158 */
0000514A  2F2E FFDC                move.l     -[A7], [A6 - 0x24]
0000514E  2F07                     move.l     -[A7], D7
00005150  1F3C 0001                move.b     -[A7], 0x1
00005154  4EBA D880                jsr        [PC - 0x2780 /* 000029D6 */]
label00005158:
00005158  1F3C 0001                move.b     -[A7], 0x1
0000515C  2F07                     move.l     -[A7], D7
0000515E  3F3C 002C                move.w     -[A7], 0x2C /* ',' */
00005162  A9E7                     syscall    Pack0/ListManager
00005164  2F06                     move.l     -[A7], D6
00005166  A879                     syscall    SetClip
00005168  2F06                     move.l     -[A7], D6
0000516A  A8D9                     syscall    DisposRgn/DisposeRgn
0000516C  486B 0010                pea.l      [A3 + 0x10]
00005170  A928                     syscall    InvalRect
00005172  2F0B                     move.l     -[A7], A3
00005174  2F07                     move.l     -[A7], D7
00005176  4EAD 0162                jsr        [A5 + 0x162 /* export_40, CODE:1 @ 000039CA */]
label0000517A:
0000517A  4CDF 18F0                movem.l    D4,D5,D6,D7,A3,A4, [A7]+
0000517E  4E5E                     unlink     A6
00005180  205F                     movea.l    A0, [A7]+
00005182  5C4F                     addq.w     A7, 6
00005184  4ED0                     jmp        [A0]
export_327:
fn00005186:
00005186  4E56 FFD0                link       A6, -0x0030
0000518A  48E7 0318                movem.l    -[A7], D6,D7,A3,A4
0000518E  206E 000C                movea.l    A0, [A6 + 0xC]
00005192  43EE FFF0                lea.l      A1, [A6 - 0x10]
00005196  7007                     moveq.l    D0, 0x07
label00005198:
00005198  32D8                     move.w     [A1]+, [A0]+
0000519A  51C8 FFFC                dbf        D0, -0x6 /* 00005198 */
0000519E  266E 0008                movea.l    A3, [A6 + 0x8]
000051A2  2D6E FFFA FFEA           move.l     [A6 - 0x16], [A6 - 0x6]
000051A8  486E FFEA                pea.l      [A6 - 0x16]
000051AC  A871                     syscall    GlobalToLocal
000051AE  2853                     movea.l    A4, [A3]
000051B0  302E FFF0                move.w     D0, [A6 - 0x10]
000051B4  5340                     subq.w     D0, 1
000051B6  6716                     beq        +0x18 /* 000051CE */
000051B8  5540                     subq.w     D0, 2
000051BA  6700 01D2                beq        +0x1D4 /* 0000538E */
000051BE  5740                     subq.w     D0, 3
000051C0  6700 0182                beq        +0x184 /* 00005344 */
000051C4  5540                     subq.w     D0, 2
000051C6  6700 013E                beq        +0x140 /* 00005306 */
000051CA  6000 01D0                bra        +0x1D2 /* 0000539C */
label000051CE:
000051CE  4267                     clr.w      -[A7]
000051D0  2F2E FFFA                move.l     -[A7], [A6 - 0x6]
000051D4  486C 0104                pea.l      [A4 + 0x104]
000051D8  A92C                     syscall    FindWindow
000051DA  3E1F                     move.w     D7, [A7]+
000051DC  3007                     move.w     D0, D7
000051DE  5740                     subq.w     D0, 3
000051E0  6726                     beq        +0x28 /* 00005208 */
000051E2  5540                     subq.w     D0, 2
000051E4  670C                     beq        +0xE /* 000051F2 */
000051E6  5540                     subq.w     D0, 2
000051E8  6712                     beq        +0x14 /* 000051FC */
000051EA  5340                     subq.w     D0, 1
000051EC  670E                     beq        +0x10 /* 000051FC */
000051EE  6000 01AC                bra        +0x1AE /* 0000539C */
label000051F2:
000051F2  2F0B                     move.l     -[A7], A3
000051F4  4EBA D61C                jsr        [PC - 0x29E4 /* 00002812 */]
000051F8  6000 01A2                bra        +0x1A4 /* 0000539C */
label000051FC:
000051FC  2F0B                     move.l     -[A7], A3
000051FE  3F07                     move.w     -[A7], D7
00005200  4EBA FE6E                jsr        [PC - 0x192 /* 00005070 */]
00005204  6000 0196                bra        +0x198 /* 0000539C */
label00005208:
00005208  102D F944                move.b     D0, [A5 - 0x6BC]
0000520C  6722                     beq        +0x24 /* 00005230 */
0000520E  C02D F943                and.b      D0, [A5 - 0x6BD]
00005212  671C                     beq        +0x1E /* 00005230 */
00005214  422D F944                clr.b      [A5 - 0x6BC]
00005218  422D F943                clr.b      [A5 - 0x6BD]
0000521C  7000                     moveq.l    D0, 0x00
0000521E  302E FFFE                move.w     D0, [A6 - 0x2]
00005222  7200                     moveq.l    D1, 0x00
00005224  323C 0B00                move.w     D1, 0xB00
00005228  4681                     not.l      D1
0000522A  C081                     and.l      D0, D1
0000522C  3D40 FFFE                move.w     [A6 - 0x2], D0
label00005230:
00005230  7000                     moveq.l    D0, 0x00
00005232  2D40 FFDA                move.l     [A6 - 0x26], D0
00005236  4267                     clr.w      -[A7]
00005238  1F3C 0001                move.b     -[A7], 0x1
0000523C  486E FFDA                pea.l      [A6 - 0x26]
00005240  2F2C 0124                move.l     -[A7], [A4 + 0x124]
00005244  3F3C 003C                move.w     -[A7], 0x3C /* '<' */
00005248  A9E7                     syscall    Pack0/ListManager
0000524A  101F                     move.b     D0, [A7]+
0000524C  6606                     bne        +0x8 /* 00005254 */
0000524E  70FF                     moveq.l    D0, 0xFFFFFFFF
00005250  2D40 FFDA                move.l     [A6 - 0x26], D0
label00005254:
00005254  4267                     clr.w      -[A7]
00005256  2F2E FFEA                move.l     -[A7], [A6 - 0x16]
0000525A  2F2C 0124                move.l     -[A7], [A4 + 0x124]
0000525E  4EBA FB90                jsr        [PC - 0x470 /* 00004DF0 */]
00005262  101F                     move.b     D0, [A7]+
00005264  6716                     beq        +0x18 /* 0000527C */
00005266  4267                     clr.w      -[A7]
00005268  2F2E FFEA                move.l     -[A7], [A6 - 0x16]
0000526C  3F2E FFFE                move.w     -[A7], [A6 - 0x2]
00005270  2F2C 0124                move.l     -[A7], [A4 + 0x124]
00005274  3F3C 0018                move.w     -[A7], 0x18
00005278  A9E7                     syscall    Pack0/ListManager
0000527A  1C1F                     move.b     D6, [A7]+
label0000527C:
0000527C  7000                     moveq.l    D0, 0x00
0000527E  2D40 FFE2                move.l     [A6 - 0x1E], D0
00005282  4267                     clr.w      -[A7]
00005284  1F3C 0001                move.b     -[A7], 0x1
00005288  486E FFE2                pea.l      [A6 - 0x1E]
0000528C  2F2C 0124                move.l     -[A7], [A4 + 0x124]
00005290  3F3C 003C                move.w     -[A7], 0x3C /* '<' */
00005294  A9E7                     syscall    Pack0/ListManager
00005296  101F                     move.b     D0, [A7]+
00005298  6700 0102                beq        +0x104 /* 0000539C */
0000529C  2D6E FFE2 FFDE           move.l     [A6 - 0x22], [A6 - 0x1E]
000052A2  4267                     clr.w      -[A7]
000052A4  1F3C 0001                move.b     -[A7], 0x1
000052A8  1F3C 0001                move.b     -[A7], 0x1
000052AC  486E FFDE                pea.l      [A6 - 0x22]
000052B0  2F2C 0124                move.l     -[A7], [A4 + 0x124]
000052B4  3F3C 0048                move.w     -[A7], 0x48 /* 'H' */
000052B8  A9E7                     syscall    Pack0/ListManager
000052BA  101F                     move.b     D0, [A7]+
000052BC  0A00 0001                xori.b     D0, 0x1
000052C0  4A00                     tst.b      D0
000052C2  6624                     bne        +0x26 /* 000052E8 */
000052C4  2F00                     move.l     -[A7], D0
000052C6  4267                     clr.w      -[A7]
000052C8  1F3C 0001                move.b     -[A7], 0x1
000052CC  486E FFDE                pea.l      [A6 - 0x22]
000052D0  2F2C 0124                move.l     -[A7], [A4 + 0x124]
000052D4  3F3C 003C                move.w     -[A7], 0x3C /* '<' */
000052D8  A9E7                     syscall    Pack0/ListManager
000052DA  121F                     move.b     D1, [A7]+
000052DC  201F                     move.l     D0, [A7]+
000052DE  0A01 0001                xori.b     D1, 0x1
000052E2  8001                     or.b       D0, D1
000052E4  6700 00B6                beq        +0xB8 /* 0000539C */
label000052E8:
000052E8  202E FFE2                move.l     D0, [A6 - 0x1E]
000052EC  B0AE FFDA                cmp.l      D0, [A6 - 0x26]
000052F0  6700 00AA                beq        +0xAC /* 0000539C */
000052F4  2F2E FFE2                move.l     -[A7], [A6 - 0x1E]
000052F8  2F2C 0124                move.l     -[A7], [A4 + 0x124]
000052FC  4267                     clr.w      -[A7]
000052FE  4EBA D6D6                jsr        [PC - 0x292A /* 000029D6 */]
00005302  6000 0098                bra        +0x9A /* 0000539C */
label00005306:
00005306  4267                     clr.w      -[A7]
00005308  2053                     movea.l    A0, [A3]
0000530A  2068 0104                movea.l    A0, [A0 + 0x104]
0000530E  2F28 0018                move.l     -[A7], [A0 + 0x18]
00005312  A8E2                     syscall    EmptyRgn
00005314  101F                     move.b     D0, [A7]+
00005316  6600 0084                bne        +0x86 /* 0000539C */
0000531A  102E FFFF                move.b     D0, [A6 - 0x1]
0000531E  0240 0001                andi.w     D0, 0x1
00005322  1F00                     move.b     -[A7], D0
00005324  2F2C 0124                move.l     -[A7], [A4 + 0x124]
00005328  4267                     clr.w      -[A7]
0000532A  A9E7                     syscall    Pack0/ListManager
0000532C  206C 0124                movea.l    A0, [A4 + 0x124]
00005330  2050                     movea.l    A0, [A0]
00005332  3F10                     move.w     -[A7], [A0]
00005334  206C 0124                movea.l    A0, [A4 + 0x124]
00005338  2050                     movea.l    A0, [A0]
0000533A  2F28 0008                move.l     -[A7], [A0 + 0x8]
0000533E  4EAD 015A                jsr        [A5 + 0x15A /* export_39, CODE:1 @ 00003946 */]
00005342  6058                     bra        +0x5A /* 0000539C */
label00005344:
00005344  206C 0124                movea.l    A0, [A4 + 0x124]
00005348  2050                     movea.l    A0, [A0]
0000534A  2068 0008                movea.l    A0, [A0 + 0x8]
0000534E  4868 0010                pea.l      [A0 + 0x10]
00005352  A8A3                     syscall    EraseRect
00005354  206C 0124                movea.l    A0, [A4 + 0x124]
00005358  2050                     movea.l    A0, [A0]
0000535A  2968 0008 0104           move.l     [A4 + 0x104], [A0 + 0x8]
00005360  206D FC54                movea.l    A0, [A5 - 0x3AC]
00005364  2F28 0018                move.l     -[A7], [A0 + 0x18]
00005368  2F2C 0124                move.l     -[A7], [A4 + 0x124]
0000536C  3F3C 0064                move.w     -[A7], 0x64 /* 'd' */
00005370  A9E7                     syscall    Pack0/ListManager
00005372  206C 0124                movea.l    A0, [A4 + 0x124]
00005376  2050                     movea.l    A0, [A0]
00005378  3F10                     move.w     -[A7], [A0]
0000537A  2F2C 0104                move.l     -[A7], [A4 + 0x104]
0000537E  4EAD 015A                jsr        [A5 + 0x15A /* export_39, CODE:1 @ 00003946 */]
00005382  42A7                     clr.l      -[A7]
00005384  2F2C 0124                move.l     -[A7], [A4 + 0x124]
00005388  4EBA F72A                jsr        [PC - 0x8D6 /* 00004AB4 */]
0000538C  600E                     bra        +0x10 /* 0000539C */
label0000538E:
0000538E  486E FFF0                pea.l      [A6 - 0x10]
00005392  4267                     clr.w      -[A7]
00005394  2F2C 0124                move.l     -[A7], [A4 + 0x124]
00005398  4EBA F3CE                jsr        [PC - 0xC32 /* 00004768 */]
label0000539C:
0000539C  4CDF 18C0                movem.l    D6,D7,A3,A4, [A7]+
000053A0  4E5E                     unlink     A6
000053A2  205F                     movea.l    A0, [A7]+
000053A4  504F                     addq.w     A7, 8
000053A6  4ED0                     jmp        [A0]
fn000053A8:
000053A8  4E56 FCEA                link       A6, -0x0316
000053AC  48E7 0308                movem.l    -[A7], D6,D7,A4
000053B0  286E 0008                movea.l    A4, [A6 + 0x8]
000053B4  3F3C 0080                move.w     -[A7], 0x80
000053B8  2F3C FFFF FF5F           move.l     -[A7], 0xFFFFFF5F
000053BE  4EAD 022A                jsr        [A5 + 0x22A /* export_65, CODE:1 @ 000058A8 */]
000053C2  7000                     moveq.l    D0, 0x00
000053C4  2D40 FCF8                move.l     [A6 - 0x308], D0
000053C8  4207                     clr.b      D7
000053CA  4267                     clr.w      -[A7]
000053CC  1F3C 0001                move.b     -[A7], 0x1
000053D0  486E FCF8                pea.l      [A6 - 0x308]
000053D4  2F0C                     move.l     -[A7], A4
000053D6  3F3C 003C                move.w     -[A7], 0x3C /* '<' */
000053DA  A9E7                     syscall    Pack0/ListManager
000053DC  101F                     move.b     D0, [A7]+
000053DE  6756                     beq        +0x58 /* 00005436 */
000053E0  2D6E FCF8 FCFC           move.l     [A6 - 0x304], [A6 - 0x308]
000053E6  4267                     clr.w      -[A7]
000053E8  1F3C 0001                move.b     -[A7], 0x1
000053EC  1F3C 0001                move.b     -[A7], 0x1
000053F0  486E FCF8                pea.l      [A6 - 0x308]
000053F4  2F0C                     move.l     -[A7], A4
000053F6  3F3C 0048                move.w     -[A7], 0x48 /* 'H' */
000053FA  A9E7                     syscall    Pack0/ListManager
000053FC  101F                     move.b     D0, [A7]+
000053FE  0A00 0001                xori.b     D0, 0x1
00005402  4A00                     tst.b      D0
00005404  6620                     bne        +0x22 /* 00005426 */
00005406  2F00                     move.l     -[A7], D0
00005408  4267                     clr.w      -[A7]
0000540A  1F3C 0001                move.b     -[A7], 0x1
0000540E  486E FCF8                pea.l      [A6 - 0x308]
00005412  2F0C                     move.l     -[A7], A4
00005414  3F3C 003C                move.w     -[A7], 0x3C /* '<' */
00005418  A9E7                     syscall    Pack0/ListManager
0000541A  121F                     move.b     D1, [A7]+
0000541C  201F                     move.l     D0, [A7]+
0000541E  0A01 0001                xori.b     D1, 0x1
00005422  8001                     or.b       D0, D1
00005424  6708                     beq        +0xA /* 0000542E */
label00005426:
00005426  7E01                     moveq.l    D7, 0x01
00005428  3C3C FF5F                move.w     D6, 0xFF5F
0000542C  600C                     bra        +0xE /* 0000543A */
label0000542E:
0000542E  7E02                     moveq.l    D7, 0x02
00005430  3C3C FF5F                move.w     D6, 0xFF5F
00005434  6004                     bra        +0x6 /* 0000543A */
label00005436:
00005436  3C3C FE03                move.w     D6, 0xFE03
label0000543A:
0000543A  3F3C 0080                move.w     -[A7], 0x80
0000543E  3006                     move.w     D0, D6
00005440  48C0                     ext.l      D0
00005442  2F00                     move.l     -[A7], D0
00005444  4EAD 022A                jsr        [A5 + 0x22A /* export_65, CODE:1 @ 000058A8 */]
00005448  7001                     moveq.l    D0, 0x01
0000544A  B007                     cmp.b      D0, D7
0000544C  6712                     beq        +0x14 /* 00005460 */
0000544E  3F3C 0006                move.w     -[A7], 0x6
00005452  487A 006A                pea.l      [PC + 0x6A /* 000054BE, value 0xD526573 '\rRes', pstring "Resource menu" */]
00005456  486E FD00                pea.l      [A6 - 0x300]
0000545A  4EAD 0282                jsr        [A5 + 0x282 /* export_76, CODE:1 @ 00005CDA */]
0000545E  6010                     bra        +0x12 /* 00005470 */
label00005460:
00005460  3F3C 0005                move.w     -[A7], 0x5
00005464  487A 0058                pea.l      [PC + 0x58 /* 000054BE, value 0xD526573 '\rRes', pstring "Resource menu" */]
00005468  486E FD00                pea.l      [A6 - 0x300]
0000546C  4EAD 0282                jsr        [A5 + 0x282 /* export_76, CODE:1 @ 00005CDA */]
label00005470:
00005470  2F2D F7B0                move.l     -[A7], [A5 - 0x850]
00005474  3F3C 0002                move.w     -[A7], 0x2
00005478  486E FD00                pea.l      [A6 - 0x300]
0000547C  A947                     syscall    SetMenuItemText/SetItem
0000547E  7001                     moveq.l    D0, 0x01
00005480  B007                     cmp.b      D0, D7
00005482  6712                     beq        +0x14 /* 00005496 */
00005484  3F3C 0009                move.w     -[A7], 0x9 /* '\t' */
00005488  487A 0034                pea.l      [PC + 0x34 /* 000054BE, value 0xD526573 '\rRes', pstring "Resource menu" */]
0000548C  486E FD00                pea.l      [A6 - 0x300]
00005490  4EAD 0282                jsr        [A5 + 0x282 /* export_76, CODE:1 @ 00005CDA */]
00005494  6010                     bra        +0x12 /* 000054A6 */
label00005496:
00005496  3F3C 000C                move.w     -[A7], 0xC
0000549A  487A 0022                pea.l      [PC + 0x22 /* 000054BE, value 0xD526573 '\rRes', pstring "Resource menu" */]
0000549E  486E FD00                pea.l      [A6 - 0x300]
000054A2  4EAD 0282                jsr        [A5 + 0x282 /* export_76, CODE:1 @ 00005CDA */]
label000054A6:
000054A6  2F2D F7B0                move.l     -[A7], [A5 - 0x850]
000054AA  3F3C 0006                move.w     -[A7], 0x6
000054AE  486E FD00                pea.l      [A6 - 0x300]
000054B2  A947                     syscall    SetMenuItemText/SetItem
000054B4  4CDF 10C0                movem.l    D6,D7,A4, [A7]+
000054B8  4E5E                     unlink     A6
000054BA  2E9F                     move.l     [A7], [A7]+
000054BC  4E75                     rts
000054BE  0D52                     bchg       [A2], D6
000054C0  6573                     bcs        +0x75 /* 00005535 */
000054C2  6F75                     ble        +0x77 /* 00005539 */
000054C4  7263                     moveq.l    D1, 0x63
000054C6  6520                     bcs        +0x22 /* 000054E8 */
000054C8  6D65                     blt        +0x67 /* 0000552F */
000054CA  6E75                     bgt        +0x77 /* 00005541 */
fn000054CC:
000054CC  4E56 FFEE                link       A6, -0x0012
000054D0  48E7 0318                movem.l    -[A7], D6,D7,A3,A4
000054D4  266E 0008                movea.l    A3, [A6 + 0x8]
000054D8  3F3C 0003                move.w     -[A7], 0x3
000054DC  2F3C FFFF FF79           move.l     -[A7], 0xFFFFFF79
000054E2  4EAD 022A                jsr        [A5 + 0x22A /* export_65, CODE:1 @ 000058A8 */]
000054E6  42A7                     clr.l      -[A7]
label000054E8:
000054E8  A9F9                     syscall    InfoScrap
000054EA  285F                     movea.l    A4, [A7]+
000054EC  70FF                     moveq.l    D0, 0xFFFFFFFF
000054EE  B06D F828                cmp.w      D0, [A5 - 0x7D8]
000054F2  56C0                     sne        D0
000054F4  4A00                     tst.b      D0
000054F6  6722                     beq        +0x24 /* 0000551A */
000054F8  322D F826                move.w     D1, [A5 - 0x7DA]
000054FC  B26C 0008                cmp.w      D1, [A4 + 0x8]
00005500  57C1                     seq        D1
00005502  C001                     and.b      D0, D1
00005504  6714                     beq        +0x16 /* 0000551A */
00005506  4267                     clr.w      -[A7]
00005508  3F2D F828                move.w     -[A7], [A5 - 0x7D8]
0000550C  2053                     movea.l    A0, [A3]
0000550E  2F28 0118                move.l     -[A7], [A0 + 0x118]
00005512  4EAD 08BA                jsr        [A5 + 0x8BA /* export_275, CODE:4 @ 000002A8 */]
00005516  3E1F                     move.w     D7, [A7]+
00005518  601A                     bra        +0x1C /* 00005534 */
label0000551A:
0000551A  42A7                     clr.l      -[A7]
0000551C  42A7                     clr.l      -[A7]
0000551E  2053                     movea.l    A0, [A3]
00005520  2F28 0118                move.l     -[A7], [A0 + 0x118]
00005524  486E FFF2                pea.l      [A6 - 0xE]
00005528  A9FD                     syscall    GetScrap
0000552A  2C1F                     move.l     D6, [A7]+
0000552C  6C04                     bge        +0x6 /* 00005532 */
0000552E  4247                     clr.w      D7
00005530  6002                     bra        +0x4 /* 00005534 */
label00005532:
00005532  7E01                     moveq.l    D7, 0x01
label00005534:
00005534  4A47                     tst.w      D7
00005536  660C                     bne        +0xE /* 00005544 */
00005538  2F2D F7B4                move.l     -[A7], [A5 - 0x84C]
0000553C  3F3C 0005                move.w     -[A7], 0x5
00005540  A93A                     syscall    DisableItem
00005542  600A                     bra        +0xC /* 0000554E */
label00005544:
00005544  2F2D F7B4                move.l     -[A7], [A5 - 0x84C]
00005548  3F3C 0005                move.w     -[A7], 0x5
0000554C  A939                     syscall    EnableItem
label0000554E:
0000554E  7000                     moveq.l    D0, 0x00
00005550  2D40 FFFC                move.l     [A6 - 0x4], D0
00005554  4267                     clr.w      -[A7]
00005556  1F3C 0001                move.b     -[A7], 0x1
0000555A  486E FFFC                pea.l      [A6 - 0x4]
0000555E  2053                     movea.l    A0, [A3]
00005560  2F28 0124                move.l     -[A7], [A0 + 0x124]
00005564  3F3C 003C                move.w     -[A7], 0x3C /* '<' */
00005568  A9E7                     syscall    Pack0/ListManager
0000556A  101F                     move.b     D0, [A7]+
0000556C  672A                     beq        +0x2C /* 00005598 */
0000556E  2F2D F7B4                move.l     -[A7], [A5 - 0x84C]
00005572  3F3C 0004                move.w     -[A7], 0x4
00005576  A939                     syscall    EnableItem
00005578  2F2D F7B4                move.l     -[A7], [A5 - 0x84C]
0000557C  3F3C 0008                move.w     -[A7], 0x8
00005580  A939                     syscall    EnableItem
00005582  2F2D F7B4                move.l     -[A7], [A5 - 0x84C]
00005586  3F3C 0003                move.w     -[A7], 0x3
0000558A  A939                     syscall    EnableItem
0000558C  2F2D F7B4                move.l     -[A7], [A5 - 0x84C]
00005590  3F3C 0006                move.w     -[A7], 0x6
00005594  A939                     syscall    EnableItem
00005596  6028                     bra        +0x2A /* 000055C0 */
label00005598:
00005598  2F2D F7B4                move.l     -[A7], [A5 - 0x84C]
0000559C  3F3C 0004                move.w     -[A7], 0x4
000055A0  A93A                     syscall    DisableItem
000055A2  2F2D F7B4                move.l     -[A7], [A5 - 0x84C]
000055A6  3F3C 0008                move.w     -[A7], 0x8
000055AA  A93A                     syscall    DisableItem
000055AC  2F2D F7B4                move.l     -[A7], [A5 - 0x84C]
000055B0  3F3C 0003                move.w     -[A7], 0x3
000055B4  A93A                     syscall    DisableItem
000055B6  2F2D F7B4                move.l     -[A7], [A5 - 0x84C]
000055BA  3F3C 0006                move.w     -[A7], 0x6
000055BE  A93A                     syscall    DisableItem
label000055C0:
000055C0  4CDF 18C0                movem.l    D6,D7,A3,A4, [A7]+
000055C4  4E5E                     unlink     A6
000055C6  2E9F                     move.l     [A7], [A7]+
000055C8  4E75                     rts
fn000055CA:
000055CA  4E56 FEE2                link       A6, -0x011E
000055CE  48E7 0F18                movem.l    -[A7], D4,D5,D6,D7,A3,A4
000055D2  282E 000C                move.l     D4, [A6 + 0xC]
000055D6  206E 0008                movea.l    A0, [A6 + 0x8]
000055DA  2850                     movea.l    A4, [A0]
000055DC  2044                     movea.l    A0, D4
000055DE  203C 0000 00FF           move.l     D0, 0xFF
000055E4  C0A8 0002                and.l      D0, [A0 + 0x2]
000055E8  3E00                     move.w     D7, D0
000055EA  42A7                     clr.l      -[A7]
000055EC  4EAD 00B2                jsr        [A5 + 0xB2 /* export_18, CODE:1 @ 00001DB8 */]
000055F0  265F                     movea.l    A3, [A7]+
000055F2  4267                     clr.w      -[A7]
000055F4  3F07                     move.w     -[A7], D7
000055F6  2F2C 0124                move.l     -[A7], [A4 + 0x124]
000055FA  4EBA D68A                jsr        [PC - 0x2976 /* 00002C86 */]
000055FE  101F                     move.b     D0, [A7]+
00005600  6600 021A                bne        +0x21C /* 0000581C */
00005604  3007                     move.w     D0, D7
00005606  6B18                     bmi        +0x1A /* 00005620 */
00005608  B07C 000F                cmp.w      D0, 0xF
0000560C  6E12                     bgt        +0x14 /* 00005620 */
0000560E  41FA 022A                lea.l      A0, [PC + 0x22A /* 0000583A, value 0x4E56FFE8 */]
00005612  3200                     move.w     D1, D0
00005614  E649                     lsr        D1.w, 3
00005616  4441                     neg.w      D1
00005618  0130 10FF                btst       [A0 + D1.w - 0x1], D0
0000561C  0A3C 0004                xori.b     ccr, 4
label00005620:
00005620  6620                     bne        +0x22 /* 00005642 */
00005622  7000                     moveq.l    D0, 0x00
00005624  2B40 F830                move.l     [A5 - 0x7D0], D0
00005628  422D F836                clr.b      [A5 - 0x7CA]
0000562C  0C6B 0080 006C           cmpi.w     [A3 + 0x6C], 0x80
00005632  6D00 01E8                blt        +0x1EA /* 0000581C */
00005636  4267                     clr.w      -[A7]
00005638  4EAD 0092                jsr        [A5 + 0x92 /* export_14, CODE:1 @ 0000187C */]
0000563C  1A1F                     move.b     D5, [A7]+
0000563E  6000 01DC                bra        +0x1DE /* 0000581C */
label00005642:
00005642  102D F943                move.b     D0, [A5 - 0x6BD]
00005646  0A00 0001                xori.b     D0, 0x1
0000564A  4A00                     tst.b      D0
0000564C  671A                     beq        +0x1C /* 00005668 */
0000564E  7208                     moveq.l    D1, 0x08
00005650  B247                     cmp.w      D1, D7
00005652  57C1                     seq        D1
00005654  C001                     and.b      D0, D1
00005656  6710                     beq        +0x12 /* 00005668 */
00005658  2F3C 0006 0003           move.l     -[A7], 0x60003
0000565E  2F0B                     move.l     -[A7], A3
00005660  4EAD 00A2                jsr        [A5 + 0xA2 /* export_16, CODE:1 @ 00001A96 */]
00005664  6000 01B6                bra        +0x1B8 /* 0000581C */
label00005668:
00005668  2044                     movea.l    A0, D4
0000566A  2028 0006                move.l     D0, [A0 + 0x6]
0000566E  90AD F830                sub.l      D0, [A5 - 0x7D0]
00005672  207C 0000 018E           movea.l    A0, 0x18E
00005678  3210                     move.w     D1, [A0]
0000567A  E341                     asl        D1.w, 1
0000567C  48C1                     ext.l      D1
0000567E  B280                     cmp.l      D1, D0
00005680  6F4E                     ble        +0x50 /* 000056D0 */
00005682  3007                     move.w     D0, D7
00005684  6B18                     bmi        +0x1A /* 0000569E */
00005686  B07C 003F                cmp.w      D0, 0x3F /* '?' */
0000568A  6E12                     bgt        +0x14 /* 0000569E */
0000568C  41FA 01AA                lea.l      A0, [PC + 0x1AA /* 00005838, value 0x20084E56 */]
00005690  3200                     move.w     D1, D0
00005692  E649                     lsr        D1.w, 3
00005694  4441                     neg.w      D1
00005696  0130 10FF                btst       [A0 + D1.w - 0x1], D0
0000569A  0A3C 0004                xori.b     ccr, 4
label0000569E:
0000569E  6704                     beq        +0x6 /* 000056A4 */
000056A0  422D F835                clr.b      [A5 - 0x7CB]
label000056A4:
000056A4  4240                     clr.w      D0
000056A6  102D F836                move.b     D0, [A5 - 0x7CA]
000056AA  3D40 FFF2                move.w     [A6 - 0xE], D0
000056AE  0C6E 0100 FFF2           cmpi.w     [A6 - 0xE], 0x100
000056B4  6C4E                     bge        +0x50 /* 00005704 */
000056B6  302E FFF2                move.w     D0, [A6 - 0xE]
000056BA  5240                     addq.w     D0, 1
000056BC  1B40 F836                move.b     [A5 - 0x7CA], D0
000056C0  302E FFF2                move.w     D0, [A6 - 0xE]
000056C4  5240                     addq.w     D0, 1
000056C6  41ED F836                lea.l      A0, [A5 - 0x7CA]
000056CA  1187 0000                move.b     [A0 + D0.w], D7
000056CE  6034                     bra        +0x36 /* 00005704 */
label000056D0:
000056D0  3007                     move.w     D0, D7
000056D2  6B18                     bmi        +0x1A /* 000056EC */
000056D4  B07C 003F                cmp.w      D0, 0x3F /* '?' */
000056D8  6E12                     bgt        +0x14 /* 000056EC */
000056DA  41FA 0154                lea.l      A0, [PC + 0x154 /* 00005830, value 0x3FF0000 */]
000056DE  3200                     move.w     D1, D0
000056E0  E649                     lsr        D1.w, 3
000056E2  4441                     neg.w      D1
000056E4  0130 10FF                btst       [A0 + D1.w - 0x1], D0
000056E8  0A3C 0004                xori.b     ccr, 4
label000056EC:
000056EC  6608                     bne        +0xA /* 000056F6 */
000056EE  1B7C 0001 F835           move.b     [A5 - 0x7CB], 0x1
000056F4  6004                     bra        +0x6 /* 000056FA */
label000056F6:
000056F6  422D F835                clr.b      [A5 - 0x7CB]
label000056FA:
000056FA  3B7C 0120 F836           move.w     [A5 - 0x7CA], 0x120
00005700  1B47 F837                move.b     [A5 - 0x7C9], D7
label00005704:
00005704  2044                     movea.l    A0, D4
00005706  2B68 0006 F830           move.l     [A5 - 0x7D0], [A0 + 0x6]
0000570C  102D F835                move.b     D0, [A5 - 0x7CB]
00005710  670C                     beq        +0xE /* 0000571E */
00005712  486D F836                pea.l      [A5 - 0x7CA]
00005716  486E FFF6                pea.l      [A6 - 0xA]
0000571A  4EAD 0742                jsr        [A5 + 0x742 /* export_228, CODE:3 @ 0000366A */]
label0000571E:
0000571E  7000                     moveq.l    D0, 0x00
00005720  2D40 FFFC                move.l     [A6 - 0x4], D0
label00005724:
00005724  3D7C 0002 FFF2           move.w     [A6 - 0xE], 0x2
0000572A  486E FFFA                pea.l      [A6 - 0x6]
0000572E  486E FFF2                pea.l      [A6 - 0xE]
00005732  2F2E FFFC                move.l     -[A7], [A6 - 0x4]
00005736  2F2C 0124                move.l     -[A7], [A4 + 0x124]
0000573A  3F3C 0038                move.w     -[A7], 0x38 /* '8' */
0000573E  A9E7                     syscall    Pack0/ListManager
00005740  4A6E FFF2                tst.w      [A6 - 0xE]
00005744  6F7C                     ble        +0x7E /* 000057C2 */
00005746  102D F835                move.b     D0, [A5 - 0x7CB]
0000574A  6710                     beq        +0x12 /* 0000575C */
0000574C  302E FFFA                move.w     D0, [A6 - 0x6]
00005750  48C0                     ext.l      D0
00005752  B0AE FFF6                cmp.l      D0, [A6 - 0xA]
00005756  666A                     bne        +0x6C /* 000057C2 */
00005758  6000 008A                bra        +0x8C /* 000057E4 */
label0000575C:
0000575C  4267                     clr.w      -[A7]
0000575E  A99B                     syscall    SetResLoad
00005760  42A7                     clr.l      -[A7]
00005762  3F2C 0110                move.w     -[A7], [A4 + 0x110]
00005766  2F2C 0118                move.l     -[A7], [A4 + 0x118]
0000576A  3F2E FFFA                move.w     -[A7], [A6 - 0x6]
0000576E  4EAD 08CA                jsr        [A5 + 0x8CA /* export_277, CODE:4 @ 00000338 */]
00005772  2C1F                     move.l     D6, [A7]+
00005774  1F3C 0001                move.b     -[A7], 0x1
00005778  A99B                     syscall    SetResLoad
0000577A  4A86                     tst.l      D6
0000577C  6744                     beq        +0x46 /* 000057C2 */
0000577E  2F06                     move.l     -[A7], D6
00005780  486E FFF4                pea.l      [A6 - 0xC]
00005784  486E FFEA                pea.l      [A6 - 0x16]
00005788  486E FEEA                pea.l      [A6 - 0x116]
0000578C  A9A8                     syscall    GetResInfo
0000578E  4240                     clr.w      D0
00005790  102E FEEA                move.b     D0, [A6 - 0x116]
00005794  4241                     clr.w      D1
00005796  122D F836                move.b     D1, [A5 - 0x7CA]
0000579A  B240                     cmp.w      D1, D0
0000579C  6E24                     bgt        +0x26 /* 000057C2 */
0000579E  4240                     clr.w      D0
000057A0  102D F836                move.b     D0, [A5 - 0x7CA]
000057A4  1D40 FEEA                move.b     [A6 - 0x116], D0
000057A8  4267                     clr.w      -[A7]
000057AA  486E FEEA                pea.l      [A6 - 0x116]
000057AE  486D F836                pea.l      [A5 - 0x7CA]
000057B2  4267                     clr.w      -[A7]
000057B4  1F3C 0001                move.b     -[A7], 0x1
000057B8  4EAD 055A                jsr        [A5 + 0x55A /* export_167, CODE:3 @ 00002590 */]
000057BC  101F                     move.b     D0, [A7]+
000057BE  6702                     beq        +0x4 /* 000057C2 */
000057C0  6022                     bra        +0x24 /* 000057E4 */
label000057C2:
000057C2  4267                     clr.w      -[A7]
000057C4  1F3C 0001                move.b     -[A7], 0x1
000057C8  1F3C 0001                move.b     -[A7], 0x1
000057CC  486E FFFC                pea.l      [A6 - 0x4]
000057D0  2F2C 0124                move.l     -[A7], [A4 + 0x124]
000057D4  3F3C 0048                move.w     -[A7], 0x48 /* 'H' */
000057D8  A9E7                     syscall    Pack0/ListManager
000057DA  101F                     move.b     D0, [A7]+
000057DC  0A00 0001                xori.b     D0, 0x1
000057E0  6700 FF42                beq        -0xBC /* 00005724 */
label000057E4:
000057E4  206C 0124                movea.l    A0, [A4 + 0x124]
000057E8  2050                     movea.l    A0, [A0]
000057EA  302E FFFE                move.w     D0, [A6 - 0x2]
000057EE  B068 004E                cmp.w      D0, [A0 + 0x4E]
000057F2  5DC0                     slt        D0
000057F4  4A00                     tst.b      D0
000057F6  6724                     beq        +0x26 /* 0000581C */
000057F8  206C 0124                movea.l    A0, [A4 + 0x124]
000057FC  2050                     movea.l    A0, [A0]
000057FE  322E FFFC                move.w     D1, [A6 - 0x4]
00005802  B268 004C                cmp.w      D1, [A0 + 0x4C]
00005806  5DC1                     slt        D1
00005808  C001                     and.b      D0, D1
0000580A  6710                     beq        +0x12 /* 0000581C */
0000580C  2F2E FFFC                move.l     -[A7], [A6 - 0x4]
00005810  2F2C 0124                move.l     -[A7], [A4 + 0x124]
00005814  1F3C 0001                move.b     -[A7], 0x1
00005818  4EBA D274                jsr        [PC - 0x2D8C /* 00002A8E */]
label0000581C:
0000581C  4CDF 18F0                movem.l    D4,D5,D6,D7,A3,A4, [A7]+
00005820  4E5E                     unlink     A6
00005822  205F                     movea.l    A0, [A7]+
00005824  504F                     addq.w     A7, 8
00005826  4ED0                     jmp        [A0]
00005828  03FF                     .incomplete
0000582A  2000                     move.l     D0, D0
0000582C  0000 0000                ori.b      D0, 0x0
00005830  03FF                     .incomplete
00005832  0000 0000                ori.b      D0, 0x0
00005836  0000 2008                ori.b      D0, 0x8
fn0000583A:
0000583A  4E56 FFE8                link       A6, -0x0018
0000583E  48E7 0018                movem.l    -[A7], A3,A4
00005842  206E 0008                movea.l    A0, [A6 + 0x8]
00005846  2850                     movea.l    A4, [A0]
00005848  7004                     moveq.l    D0, 0x04
0000584A  B02C 012A                cmp.b      D0, [A4 + 0x12A]
0000584E  6700 00E6                beq        +0xE8 /* 00005936 */
00005852  486E FFE8                pea.l      [A6 - 0x18]
00005856  A874                     syscall    GetPort
00005858  206C 0124                movea.l    A0, [A4 + 0x124]
0000585C  2050                     movea.l    A0, [A0]
0000585E  2F28 0008                move.l     -[A7], [A0 + 0x8]
00005862  A873                     syscall    SetPort
00005864  206C 0124                movea.l    A0, [A4 + 0x124]
00005868  2050                     movea.l    A0, [A0]
0000586A  2D68 0014 FFFC           move.l     [A6 - 0x4], [A0 + 0x14]
00005870  4267                     clr.w      -[A7]
00005872  A99B                     syscall    SetResLoad
label00005874:
00005874  3D7C 0002 FFF8           move.w     [A6 - 0x8], 0x2
0000587A  486E FFFA                pea.l      [A6 - 0x6]
0000587E  486E FFF8                pea.l      [A6 - 0x8]
00005882  2F2E FFFC                move.l     -[A7], [A6 - 0x4]
00005886  2F2C 0124                move.l     -[A7], [A4 + 0x124]
0000588A  3F3C 0038                move.w     -[A7], 0x38 /* '8' */
0000588E  A9E7                     syscall    Pack0/ListManager
00005890  7002                     moveq.l    D0, 0x02
00005892  B06E FFF8                cmp.w      D0, [A6 - 0x8]
00005896  6658                     bne        +0x5A /* 000058F0 */
00005898  42A7                     clr.l      -[A7]
0000589A  3F2C 0110                move.w     -[A7], [A4 + 0x110]
0000589E  2F2C 010C                move.l     -[A7], [A4 + 0x10C]
000058A2  3F2E FFFA                move.w     -[A7], [A6 - 0x6]
000058A6  4EAD 08CA                jsr        [A5 + 0x8CA /* export_277, CODE:4 @ 00000338 */]
000058AA  265F                     movea.l    A3, [A7]+
000058AC  200B                     move.l     D0, A3
000058AE  56C0                     sne        D0
000058B0  4A00                     tst.b      D0
000058B2  673C                     beq        +0x3E /* 000058F0 */
000058B4  7200                     moveq.l    D1, 0x00
000058B6  48E7 C000                movem.l    -[A7], D0,D1
000058BA  4267                     clr.w      -[A7]
000058BC  2F0B                     move.l     -[A7], A3
000058BE  A9A6                     syscall    GetResAttrs
000058C0  341F                     move.w     D2, [A7]+
000058C2  4CDF 0003                movem.l    D0,D1, [A7]+
000058C6  3202                     move.w     D1, D2
000058C8  C2BC 0000 0002           and.l      D1, 0x2
000058CE  7402                     moveq.l    D2, 0x02
000058D0  B481                     cmp.l      D2, D1
000058D2  57C1                     seq        D1
000058D4  C001                     and.b      D0, D1
000058D6  6718                     beq        +0x1A /* 000058F0 */
000058D8  486E FFEC                pea.l      [A6 - 0x14]
000058DC  2F2E FFFC                move.l     -[A7], [A6 - 0x4]
000058E0  2F2C 0124                move.l     -[A7], [A4 + 0x124]
000058E4  3F3C 004C                move.w     -[A7], 0x4C /* 'L' */
000058E8  A9E7                     syscall    Pack0/ListManager
000058EA  486E FFEC                pea.l      [A6 - 0x14]
000058EE  A928                     syscall    InvalRect
label000058F0:
000058F0  4267                     clr.w      -[A7]
000058F2  1F3C 0001                move.b     -[A7], 0x1
000058F6  1F3C 0001                move.b     -[A7], 0x1
000058FA  486E FFFC                pea.l      [A6 - 0x4]
000058FE  2F2C 0124                move.l     -[A7], [A4 + 0x124]
00005902  3F3C 0048                move.w     -[A7], 0x48 /* 'H' */
00005906  A9E7                     syscall    Pack0/ListManager
00005908  101F                     move.b     D0, [A7]+
0000590A  6602                     bne        +0x4 /* 0000590E */
0000590C  601C                     bra        +0x1E /* 0000592A */
label0000590E:
0000590E  4267                     clr.w      -[A7]
00005910  2F2E FFFC                move.l     -[A7], [A6 - 0x4]
00005914  206C 0124                movea.l    A0, [A4 + 0x124]
00005918  2050                     movea.l    A0, [A0]
0000591A  4868 0014                pea.l      [A0 + 0x14]
0000591E  A8AD                     syscall    PtInRect
00005920  101F                     move.b     D0, [A7]+
00005922  0A00 0001                xori.b     D0, 0x1
00005926  6700 FF4C                beq        -0xB2 /* 00005874 */
label0000592A:
0000592A  1F3C 0001                move.b     -[A7], 0x1
0000592E  A99B                     syscall    SetResLoad
00005930  2F2E FFE8                move.l     -[A7], [A6 - 0x18]
00005934  A873                     syscall    SetPort
label00005936:
00005936  4CDF 1800                movem.l    A3,A4, [A7]+
0000593A  4E5E                     unlink     A6
0000593C  2E9F                     move.l     [A7], [A7]+
0000593E  4E75                     rts
export_328:
00005940  4E56 FEFE                link       A6, -0x0102
00005944  48E7 0118                movem.l    -[A7], D7,A3,A4
00005948  266E 0008                movea.l    A3, [A6 + 0x8]
0000594C  2F0B                     move.l     -[A7], A3
0000594E  4EAD 0232                jsr        [A5 + 0x232 /* export_66, CODE:1 @ 00005914 */]
00005952  2F0B                     move.l     -[A7], A3
00005954  205F                     movea.l    A0, [A7]+
00005956  A029                     syscall    HLock
00005958  2853                     movea.l    A4, [A3]
0000595A  2F2C 0104                move.l     -[A7], [A4 + 0x104]
0000595E  A873                     syscall    SetPort
00005960  206E 000C                movea.l    A0, [A6 + 0xC]
00005964  7003                     moveq.l    D0, 0x03
00005966  B050                     cmp.w      D0, [A0]
00005968  660E                     bne        +0x10 /* 00005978 */
0000596A  2F2E 000C                move.l     -[A7], [A6 + 0xC]
0000596E  2F0B                     move.l     -[A7], A3
00005970  4EBA FC58                jsr        [PC - 0x3A8 /* 000055CA */]
00005974  6000 00EA                bra        +0xEC /* 00005A60 */
label00005978:
00005978  206E 000C                movea.l    A0, [A6 + 0xC]
0000597C  7008                     moveq.l    D0, 0x08
0000597E  B050                     cmp.w      D0, [A0]
00005980  57C0                     seq        D0
00005982  4A00                     tst.b      D0
00005984  670A                     beq        +0xC /* 00005990 */
00005986  1228 000F                move.b     D1, [A0 + 0xF]
0000598A  0241 0001                andi.w     D1, 0x1
0000598E  C001                     and.b      D0, D1
label00005990:
00005990  1E00                     move.b     D7, D0
00005992  206E 000C                movea.l    A0, [A6 + 0xC]
00005996  7006                     moveq.l    D0, 0x06
00005998  B050                     cmp.w      D0, [A0]
0000599A  57C0                     seq        D0
0000599C  4A00                     tst.b      D0
0000599E  660A                     bne        +0xC /* 000059AA */
000059A0  8007                     or.b       D0, D7
000059A2  0240 0001                andi.w     D0, 0x1
000059A6  6700 00AE                beq        +0xB0 /* 00005A56 */
label000059AA:
000059AA  102C 0108                move.b     D0, [A4 + 0x108]
000059AE  6750                     beq        +0x52 /* 00005A00 */
000059B0  206C 0104                movea.l    A0, [A4 + 0x104]
000059B4  4868 0010                pea.l      [A0 + 0x10]
000059B8  A928                     syscall    InvalRect
000059BA  4267                     clr.w      -[A7]
000059BC  2F2C 0124                move.l     -[A7], [A4 + 0x124]
000059C0  3F3C 002C                move.w     -[A7], 0x2C /* ',' */
000059C4  A9E7                     syscall    Pack0/ListManager
000059C6  4267                     clr.w      -[A7]
000059C8  42A7                     clr.l      -[A7]
000059CA  1F2C 012A                move.b     -[A7], [A4 + 0x12A]
000059CE  42A7                     clr.l      -[A7]
000059D0  2F2C 0118                move.l     -[A7], [A4 + 0x118]
000059D4  2F2C 0124                move.l     -[A7], [A4 + 0x124]
000059D8  4EBA DE52                jsr        [PC - 0x21AE /* 0000382C */]
000059DC  395F 0128                move.w     [A4 + 0x128], [A7]+
000059E0  1F3C 0001                move.b     -[A7], 0x1
000059E4  2F2C 0124                move.l     -[A7], [A4 + 0x124]
000059E8  3F3C 002C                move.w     -[A7], 0x2C /* ',' */
000059EC  A9E7                     syscall    Pack0/ListManager
000059EE  1007                     move.b     D0, D7
000059F0  670A                     beq        +0xC /* 000059FC */
000059F2  42A7                     clr.l      -[A7]
000059F4  2F2C 0124                move.l     -[A7], [A4 + 0x124]
000059F8  4EBA F0BA                jsr        [PC - 0xF46 /* 00004AB4 */]
label000059FC:
000059FC  422C 0108                clr.b      [A4 + 0x108]
label00005A00:
00005A00  1007                     move.b     D0, D7
00005A02  6706                     beq        +0x8 /* 00005A0A */
00005A04  2F0B                     move.l     -[A7], A3
00005A06  4EBA FE32                jsr        [PC - 0x1CE /* 0000583A */]
label00005A0A:
00005A0A  206C 0104                movea.l    A0, [A4 + 0x104]
00005A0E  4A28 006F                tst.b      [A0 + 0x6F]
00005A12  6742                     beq        +0x44 /* 00005A56 */
00005A14  206C 0124                movea.l    A0, [A4 + 0x124]
00005A18  2050                     movea.l    A0, [A0]
00005A1A  226C 0124                movea.l    A1, [A4 + 0x124]
00005A1E  2251                     movea.l    A1, [A1]
00005A20  3028 0018                move.w     D0, [A0 + 0x18]
00005A24  B069 004C                cmp.w      D0, [A1 + 0x4C]
00005A28  5DC0                     slt        D0
00005A2A  4A00                     tst.b      D0
00005A2C  661A                     bne        +0x1C /* 00005A48 */
00005A2E  206C 0124                movea.l    A0, [A4 + 0x124]
00005A32  2050                     movea.l    A0, [A0]
00005A34  226C 0124                movea.l    A1, [A4 + 0x124]
00005A38  2251                     movea.l    A1, [A1]
00005A3A  3228 0014                move.w     D1, [A0 + 0x14]
00005A3E  B269 0048                cmp.w      D1, [A1 + 0x48]
00005A42  5EC1                     sgt        D1
00005A44  8001                     or.b       D0, D1
00005A46  670E                     beq        +0x10 /* 00005A56 */
label00005A48:
00005A48  206C 0124                movea.l    A0, [A4 + 0x124]
00005A4C  2050                     movea.l    A0, [A0]
00005A4E  2F28 001C                move.l     -[A7], [A0 + 0x1C]
00005A52  4267                     clr.w      -[A7]
00005A54  A95D                     syscall    HiliteControl
label00005A56:
00005A56  2F2E 000C                move.l     -[A7], [A6 + 0xC]
00005A5A  2F0B                     move.l     -[A7], A3
00005A5C  4EBA F728                jsr        [PC - 0x8D8 /* 00005186 */]
label00005A60:
00005A60  206E 000C                movea.l    A0, [A6 + 0xC]
00005A64  4A50                     tst.w      [A0]
00005A66  667C                     bne        +0x7E /* 00005AE4 */
00005A68  422E FEFE                clr.b      [A6 - 0x102]
00005A6C  102D F944                move.b     D0, [A5 - 0x6BC]
00005A70  673C                     beq        +0x3E /* 00005AAE */
00005A72  222D F95A                move.l     D1, [A5 - 0x6A6]
00005A76  B2AC 0104                cmp.l      D1, [A4 + 0x104]
00005A7A  57C1                     seq        D1
00005A7C  C001                     and.b      D0, D1
00005A7E  672E                     beq        +0x30 /* 00005AAE */
00005A80  4A2C 013C                tst.b      [A4 + 0x13C]
00005A84  56C0                     sne        D0
00005A86  4A00                     tst.b      D0
00005A88  673E                     beq        +0x40 /* 00005AC8 */
00005A8A  122D F960                move.b     D1, [A5 - 0x6A0]
00005A8E  0A01 0001                xori.b     D1, 0x1
00005A92  C001                     and.b      D0, D1
00005A94  6732                     beq        +0x34 /* 00005AC8 */
00005A96  1B7C 0001 F960           move.b     [A5 - 0x6A0], 0x1
00005A9C  41EE FEFE                lea.l      A0, [A6 - 0x102]
00005AA0  43EC 013C                lea.l      A1, [A4 + 0x13C]
00005AA4  707F                     moveq.l    D0, 0x7F
label00005AA6:
00005AA6  30D9                     move.w     [A0]+, [A1]+
00005AA8  51C8 FFFC                dbf        D0, -0x6 /* 00005AA6 */
00005AAC  601A                     bra        +0x1C /* 00005AC8 */
label00005AAE:
00005AAE  102D F960                move.b     D0, [A5 - 0x6A0]
00005AB2  6714                     beq        +0x16 /* 00005AC8 */
00005AB4  3F3C 0001                move.w     -[A7], 0x1
00005AB8  487A 00A2                pea.l      [PC + 0xA2 /* 00005B5C, value 0xD526573 '\rRes', pstring "Resource menu" */]
00005ABC  486E FEFE                pea.l      [A6 - 0x102]
00005AC0  4EAD 0282                jsr        [A5 + 0x282 /* export_76, CODE:1 @ 00005CDA */]
00005AC4  422D F960                clr.b      [A5 - 0x6A0]
label00005AC8:
00005AC8  4A2E FEFE                tst.b      [A6 - 0x102]
00005ACC  670E                     beq        +0x10 /* 00005ADC */
00005ACE  2F2D F7B0                move.l     -[A7], [A5 - 0x850]
00005AD2  3F3C 0001                move.w     -[A7], 0x1
00005AD6  486E FEFE                pea.l      [A6 - 0x102]
00005ADA  A947                     syscall    SetMenuItemText/SetItem
label00005ADC:
00005ADC  2B6C 0104 F95A           move.l     [A5 - 0x6A6], [A4 + 0x104]
00005AE2  602A                     bra        +0x2C /* 00005B0E */
label00005AE4:
00005AE4  206E 000C                movea.l    A0, [A6 + 0xC]
00005AE8  7008                     moveq.l    D0, 0x08
00005AEA  B050                     cmp.w      D0, [A0]
00005AEC  6620                     bne        +0x22 /* 00005B0E */
00005AEE  1007                     move.b     D0, D7
00005AF0  6710                     beq        +0x12 /* 00005B02 */
00005AF2  2F2C 0130                move.l     -[A7], [A4 + 0x130]
00005AF6  4267                     clr.w      -[A7]
00005AF8  A935                     syscall    InsertMenu
00005AFA  2F0B                     move.l     -[A7], A3
00005AFC  4EBA D48E                jsr        [PC - 0x2B72 /* 00002F8C */]
00005B00  6006                     bra        +0x8 /* 00005B08 */
label00005B02:
00005B02  3F3C 0082                move.w     -[A7], 0x82
00005B06  A936                     syscall    DeleteMenu
label00005B08:
00005B08  4267                     clr.w      -[A7]
00005B0A  4EAD 003A                jsr        [A5 + 0x3A /* export_3, CODE:1 @ 00000054 */]
label00005B0E:
00005B0E  206E 000C                movea.l    A0, [A6 + 0xC]
00005B12  4A50                     tst.w      [A0]
00005B14  56C0                     sne        D0
00005B16  4A00                     tst.b      D0
00005B18  6730                     beq        +0x32 /* 00005B4A */
00005B1A  7208                     moveq.l    D1, 0x08
00005B1C  B250                     cmp.w      D1, [A0]
00005B1E  56C1                     sne        D1
00005B20  4A01                     tst.b      D1
00005B22  660A                     bne        +0xC /* 00005B2E */
00005B24  8207                     or.b       D1, D7
00005B26  C001                     and.b      D0, D1
00005B28  0240 0001                andi.w     D0, 0x1
00005B2C  671C                     beq        +0x1E /* 00005B4A */
label00005B2E:
00005B2E  42A7                     clr.l      -[A7]
00005B30  4EAD 00B2                jsr        [A5 + 0xB2 /* export_18, CODE:1 @ 00001DB8 */]
00005B34  202C 0104                move.l     D0, [A4 + 0x104]
00005B38  B09F                     cmp.l      D0, [A7]+
00005B3A  660E                     bne        +0x10 /* 00005B4A */
00005B3C  2F2C 0124                move.l     -[A7], [A4 + 0x124]
00005B40  4EBA F866                jsr        [PC - 0x79A /* 000053A8 */]
00005B44  2F0B                     move.l     -[A7], A3
00005B46  4EBA F984                jsr        [PC - 0x67C /* 000054CC */]
label00005B4A:
00005B4A  2F0B                     move.l     -[A7], A3
00005B4C  205F                     movea.l    A0, [A7]+
00005B4E  A02A                     syscall    HUnlock
00005B50  4CDF 1880                movem.l    D7,A3,A4, [A7]+
00005B54  4E5E                     unlink     A6
00005B56  205F                     movea.l    A0, [A7]+
00005B58  504F                     addq.w     A7, 8
00005B5A  4ED0                     jmp        [A0]
00005B5C  0D52                     bchg       [A2], D6
00005B5E  6573                     bcs        +0x75 /* 00005BD3 */
00005B60  6F75                     ble        +0x77 /* 00005BD7 */
00005B62  7263                     moveq.l    D1, 0x63
00005B64  6520                     bcs        +0x22 /* 00005B86 */
00005B66  6D65                     blt        +0x67 /* 00005BCD */
00005B68  6E75                     bgt        +0x77 /* 00005BDF */
export_329:
00005B6A  4E56 FFFE                link       A6, -0x0002
00005B6E  2F07                     move.l     -[A7], D7
00005B70  7E01                     moveq.l    D7, 0x01
00005B72  7002                     moveq.l    D0, 0x02
00005B74  B06E 000A                cmp.w      D0, [A6 + 0xA]
00005B78  57C0                     seq        D0
00005B7A  4A00                     tst.b      D0
00005B7C  6720                     beq        +0x22 /* 00005B9E */
00005B7E  7202                     moveq.l    D1, 0x02
00005B80  B26E 0008                cmp.w      D1, [A6 + 0x8]
00005B84  57C1                     seq        D1
label00005B86:
00005B86  C001                     and.b      D0, D1
00005B88  6714                     beq        +0x16 /* 00005B9E */
00005B8A  206E 0010                movea.l    A0, [A6 + 0x10]
00005B8E  226E 000C                movea.l    A1, [A6 + 0xC]
00005B92  3210                     move.w     D1, [A0]
00005B94  B251                     cmp.w      D1, [A1]
00005B96  57C1                     seq        D1
00005B98  C001                     and.b      D0, D1
00005B9A  6702                     beq        +0x4 /* 00005B9E */
00005B9C  4247                     clr.w      D7
label00005B9E:
00005B9E  3D47 0014                move.w     [A6 + 0x14], D7
00005BA2  2E1F                     move.l     D7, [A7]+
00005BA4  4E5E                     unlink     A6
00005BA6  205F                     movea.l    A0, [A7]+
00005BA8  DEFC 000C                add.w      A7, 0xC
00005BAC  4ED0                     jmp        [A0]
export_330:
00005BAE  4E56 FFFC                link       A6, -0x0004
00005BB2  206E 0008                movea.l    A0, [A6 + 0x8]
00005BB6  2050                     movea.l    A0, [A0]
00005BB8  2050                     movea.l    A0, [A0]
00005BBA  2050                     movea.l    A0, [A0]
00005BBC  117C 0001 0108           move.b     [A0 + 0x108], 0x1
00005BC2  4267                     clr.w      -[A7]
00005BC4  486E 000E                pea.l      [A6 + 0xE]
00005BC8  3F3C 0002                move.w     -[A7], 0x2
00005BCC  487A FF9C                pea.l      [PC - 0x64 /* 00005B6A, value 0x4E56FFFE */]
00005BD0  486E FFFC                pea.l      [A6 - 0x4]
00005BD4  206E 0008                movea.l    A0, [A6 + 0x8]
00005BD8  2050                     movea.l    A0, [A0]
00005BDA  2F28 0124                move.l     -[A7], [A0 + 0x124]
00005BDE  3F3C 0054                move.w     -[A7], 0x54 /* 'T' */
00005BE2  A9E7                     syscall    Pack0/ListManager
00005BE4  101F                     move.b     D0, [A7]+
00005BE6  671C                     beq        +0x1E /* 00005C04 */
00005BE8  486E 000C                pea.l      [A6 + 0xC]
00005BEC  3F3C 0002                move.w     -[A7], 0x2
00005BF0  2F2E FFFC                move.l     -[A7], [A6 - 0x4]
00005BF4  206E 0008                movea.l    A0, [A6 + 0x8]
00005BF8  2050                     movea.l    A0, [A0]
00005BFA  2F28 0124                move.l     -[A7], [A0 + 0x124]
00005BFE  3F3C 0058                move.w     -[A7], 0x58 /* 'X' */
00005C02  A9E7                     syscall    Pack0/ListManager
label00005C04:
00005C04  4E5E                     unlink     A6
00005C06  205F                     movea.l    A0, [A7]+
00005C08  504F                     addq.w     A7, 8
00005C0A  4ED0                     jmp        [A0]
fn00005C0C:
00005C0C  4E56 FEF8                link       A6, -0x0108
00005C10  48E7 0318                movem.l    -[A7], D6,D7,A3,A4
00005C14  4A6D F93A                tst.w      [A5 - 0x6C6]
00005C18  6700 00E4                beq        +0xE6 /* 00005CFE */
00005C1C  206E 0008                movea.l    A0, [A6 + 0x8]
00005C20  2850                     movea.l    A4, [A0]
00005C22  4207                     clr.b      D7
00005C24  4267                     clr.w      -[A7]
00005C26  3F2D F93A                move.w     -[A7], [A5 - 0x6C6]
00005C2A  A9F6                     syscall    GetResFileAttrs
00005C2C  3C1F                     move.w     D6, [A7]+
00005C2E  2F2C 0118                move.l     -[A7], [A4 + 0x118]
00005C32  486E FF00                pea.l      [A6 - 0x100]
00005C36  4EAD 0D8A                jsr        [A5 + 0xD8A /* export_429, CODE:16 @ 00000686 */]
00005C3A  42A7                     clr.l      -[A7]
00005C3C  3F2D F93A                move.w     -[A7], [A5 - 0x6C6]
00005C40  2F3C 5256 4557           move.l     -[A7], 0x52564557 /* 'RVEW' */
00005C46  486E FF00                pea.l      [A6 - 0x100]
00005C4A  4EAD 08DA                jsr        [A5 + 0x8DA /* export_279, CODE:4 @ 000003CE */]
00005C4E  265F                     movea.l    A3, [A7]+
00005C50  200B                     move.l     D0, A3
00005C52  6720                     beq        +0x22 /* 00005C74 */
00005C54  2053                     movea.l    A0, [A3]
00005C56  10AC 012A                move.b     [A0], [A4 + 0x12A]
00005C5A  2053                     movea.l    A0, [A3]
00005C5C  116C 012B 0001           move.b     [A0 + 0x1], [A4 + 0x12B]
00005C62  2F0B                     move.l     -[A7], A3
00005C64  A9AA                     syscall    ChangedResource
00005C66  4267                     clr.w      -[A7]
00005C68  A9AF                     syscall    ResError
00005C6A  4A5F                     tst.w      [A7]+
00005C6C  6652                     bne        +0x54 /* 00005CC0 */
00005C6E  2F0B                     move.l     -[A7], A3
00005C70  A9B0                     syscall    WriteResource
00005C72  604C                     bra        +0x4E /* 00005CC0 */
label00005C74:
00005C74  7E01                     moveq.l    D7, 0x01
00005C76  42A7                     clr.l      -[A7]
00005C78  7002                     moveq.l    D0, 0x02
00005C7A  2F00                     move.l     -[A7], D0
00005C7C  4EAD 04FA                jsr        [A5 + 0x4FA /* export_155, CODE:3 @ 000024FC */]
00005C80  265F                     movea.l    A3, [A7]+
00005C82  2053                     movea.l    A0, [A3]
00005C84  10AC 012A                move.b     [A0], [A4 + 0x12A]
00005C88  2053                     movea.l    A0, [A3]
00005C8A  116C 012B 0001           move.b     [A0 + 0x1], [A4 + 0x12B]
00005C90  3F2D F93A                move.w     -[A7], [A5 - 0x6C6]
00005C94  2F0B                     move.l     -[A7], A3
00005C96  2F3C 5256 4557           move.l     -[A7], 0x52564557 /* 'RVEW' */
00005C9C  4267                     clr.w      -[A7]
00005C9E  3F2D F93A                move.w     -[A7], [A5 - 0x6C6]
00005CA2  2F3C 5256 4557           move.l     -[A7], 0x52564557 /* 'RVEW' */
00005CA8  4EAD 08A2                jsr        [A5 + 0x8A2 /* export_272, CODE:4 @ 000001AA */]
00005CAC  486E FF00                pea.l      [A6 - 0x100]
00005CB0  4EAD 08E2                jsr        [A5 + 0x8E2 /* export_280, CODE:4 @ 00000434 */]
00005CB4  4267                     clr.w      -[A7]
00005CB6  A9AF                     syscall    ResError
00005CB8  4A5F                     tst.w      [A7]+
00005CBA  6604                     bne        +0x6 /* 00005CC0 */
00005CBC  2F0B                     move.l     -[A7], A3
00005CBE  A9B0                     syscall    WriteResource
label00005CC0:
00005CC0  2F0B                     move.l     -[A7], A3
00005CC2  A9A3                     syscall    ReleaseResource
00005CC4  1007                     move.b     D0, D7
00005CC6  6708                     beq        +0xA /* 00005CD0 */
00005CC8  3F2D F93A                move.w     -[A7], [A5 - 0x6C6]
00005CCC  A999                     syscall    UpdateResFile
00005CCE  602E                     bra        +0x30 /* 00005CFE */
label00005CD0:
00005CD0  7000                     moveq.l    D0, 0x00
00005CD2  3006                     move.w     D0, D6
00005CD4  C0BC 0000 0020           and.l      D0, 0x20 /* ' ' */
00005CDA  4A80                     tst.l      D0
00005CDC  6620                     bne        +0x22 /* 00005CFE */
00005CDE  3F2D F93A                move.w     -[A7], [A5 - 0x6C6]
00005CE2  7000                     moveq.l    D0, 0x00
00005CE4  2F00                     move.l     -[A7], D0
00005CE6  4267                     clr.w      -[A7]
00005CE8  3F2D F93A                move.w     -[A7], [A5 - 0x6C6]
00005CEC  A9F6                     syscall    GetResFileAttrs
00005CEE  321F                     move.w     D1, [A7]+
00005CF0  201F                     move.l     D0, [A7]+
00005CF2  3001                     move.w     D0, D1
00005CF4  7220                     moveq.l    D1, 0x20
00005CF6  4681                     not.l      D1
00005CF8  C081                     and.l      D0, D1
00005CFA  3F00                     move.w     -[A7], D0
00005CFC  A9F7                     syscall    SetResFileAttrs
label00005CFE:
00005CFE  4CDF 18C0                movem.l    D6,D7,A3,A4, [A7]+
00005D02  4E5E                     unlink     A6
00005D04  2E9F                     move.l     [A7], [A7]+
00005D06  4E75                     rts
fn00005D08:
00005D08  4E56 FFCC                link       A6, -0x0034
00005D0C  48E7 0F18                movem.l    -[A7], D4,D5,D6,D7,A3,A4
00005D10  266E 0008                movea.l    A3, [A6 + 0x8]
00005D14  2853                     movea.l    A4, [A3]
00005D16  1D6C 012B FFD1           move.b     [A6 - 0x2F], [A4 + 0x12B]
00005D1C  302E 000C                move.w     D0, [A6 + 0xC]
00005D20  5340                     subq.w     D0, 1
00005D22  6B42                     bmi        +0x44 /* 00005D66 */
00005D24  0C40 0006                cmpi.w     D0, 0x6
00005D28  6E3C                     bgt        +0x3E /* 00005D66 */
00005D2A  D040                     add.w      D0, D0
00005D2C  303B 0006                move.w     D0, [PC + D0.w + 0x6]
00005D30  4EFB 0000                jmp        [PC + D0.w]
00005D34  0010 0014                ori.b      [A0], 0x14
00005D38  0018 001C                ori.b      [A0]+, 0x1C
00005D3C  0020 0034                ori.b      -[A0], 0x34 /* '4' */
00005D40  0024 4207                ori.b      -[A4], 0x7
00005D44  6020                     bra        +0x22 /* 00005D66 */
00005D46  7E01                     moveq.l    D7, 0x01
00005D48  601C                     bra        +0x1E /* 00005D66 */
00005D4A  7E02                     moveq.l    D7, 0x02
00005D4C  6018                     bra        +0x1A /* 00005D66 */
00005D4E  7E03                     moveq.l    D7, 0x03
00005D50  6014                     bra        +0x16 /* 00005D66 */
00005D52  7E04                     moveq.l    D7, 0x04
00005D54  6010                     bra        +0x12 /* 00005D66 */
00005D56  102C 012B                move.b     D0, [A4 + 0x12B]
00005D5A  0A00 0001                xori.b     D0, 0x1
00005D5E  1940 012B                move.b     [A4 + 0x12B], D0
00005D62  1E2C 012A                move.b     D7, [A4 + 0x12A]
label00005D66:
00005D66  7000                     moveq.l    D0, 0x00
00005D68  2D40 FFD2                move.l     [A6 - 0x2E], D0
00005D6C  1C2C 012A                move.b     D6, [A4 + 0x12A]
00005D70  BC07                     cmp.b      D6, D7
00005D72  6700 0086                beq        +0x88 /* 00005DFA */
00005D76  1947 012A                move.b     [A4 + 0x12A], D7
00005D7A  4267                     clr.w      -[A7]
00005D7C  2F0B                     move.l     -[A7], A3
00005D7E  486E FFF4                pea.l      [A6 - 0xC]
00005D82  4EBA DC6A                jsr        [PC - 0x2396 /* 000039EE */]
00005D86  101F                     move.b     D0, [A7]+
00005D88  6734                     beq        +0x36 /* 00005DBE */
00005D8A  42A7                     clr.l      -[A7]
00005D8C  2F2C 0124                move.l     -[A7], [A4 + 0x124]
00005D90  4EBA D85A                jsr        [PC - 0x27A6 /* 000035EC */]
00005D94  2D5F FFD2                move.l     [A6 - 0x2E], [A7]+
00005D98  42A7                     clr.l      -[A7]
00005D9A  2F2C 0124                move.l     -[A7], [A4 + 0x124]
00005D9E  4EBA DA04                jsr        [PC - 0x25FC /* 000037A4 */]
00005DA2  2D5F FFCC                move.l     [A6 - 0x34], [A7]+
00005DA6  2F2C 0124                move.l     -[A7], [A4 + 0x124]
00005DAA  3F3C 0028                move.w     -[A7], 0x28 /* '(' */
00005DAE  A9E7                     syscall    Pack0/ListManager
00005DB0  4267                     clr.w      -[A7]
00005DB2  2F0B                     move.l     -[A7], A3
00005DB4  3F2E FFF4                move.w     -[A7], [A6 - 0xC]
00005DB8  4EBA DCAC                jsr        [PC - 0x2354 /* 00003A66 */]
00005DBC  6004                     bra        +0x6 /* 00005DC2 */
label00005DBE:
00005DBE  1946 012A                move.b     [A4 + 0x12A], D6
label00005DC2:
00005DC2  4267                     clr.w      -[A7]
00005DC4  2F2C 0124                move.l     -[A7], [A4 + 0x124]
00005DC8  3F3C 002C                move.w     -[A7], 0x2C /* ',' */
00005DCC  A9E7                     syscall    Pack0/ListManager
00005DCE  4267                     clr.w      -[A7]
00005DD0  2F2E FFCC                move.l     -[A7], [A6 - 0x34]
00005DD4  1F2C 012A                move.b     -[A7], [A4 + 0x12A]
00005DD8  2F2E FFD2                move.l     -[A7], [A6 - 0x2E]
00005DDC  2F2C 0118                move.l     -[A7], [A4 + 0x118]
00005DE0  2F2C 0124                move.l     -[A7], [A4 + 0x124]
00005DE4  4EBA DA46                jsr        [PC - 0x25BA /* 0000382C */]
00005DE8  395F 0128                move.w     [A4 + 0x128], [A7]+
00005DEC  1F3C 0001                move.b     -[A7], 0x1
00005DF0  2F2C 0124                move.l     -[A7], [A4 + 0x124]
00005DF4  3F3C 002C                move.w     -[A7], 0x2C /* ',' */
00005DF8  A9E7                     syscall    Pack0/ListManager
label00005DFA:
00005DFA  206C 0104                movea.l    A0, [A4 + 0x104]
00005DFE  2248                     movea.l    A1, A0
00005E00  3A28 0014                move.w     D5, [A0 + 0x14]
00005E04  9A69 0010                sub.w      D5, [A1 + 0x10]
00005E08  206C 0104                movea.l    A0, [A4 + 0x104]
00005E0C  2248                     movea.l    A1, A0
00005E0E  3828 0016                move.w     D4, [A0 + 0x16]
00005E12  9869 0012                sub.w      D4, [A1 + 0x12]
00005E16  3D45 FFF8                move.w     [A6 - 0x8], D5
00005E1A  3D44 FFF6                move.w     [A6 - 0xA], D4
00005E1E  7004                     moveq.l    D0, 0x04
00005E20  B02C 012A                cmp.b      D0, [A4 + 0x12A]
00005E24  661A                     bne        +0x1C /* 00005E40 */
00005E26  B86C 0120                cmp.w      D4, [A4 + 0x120]
00005E2A  6C06                     bge        +0x8 /* 00005E32 */
00005E2C  3D6C 0120 FFF6           move.w     [A6 - 0xA], [A4 + 0x120]
label00005E32:
00005E32  BA6C 0122                cmp.w      D5, [A4 + 0x122]
00005E36  6C2C                     bge        +0x2E /* 00005E64 */
00005E38  3D6C 0122 FFF8           move.w     [A6 - 0x8], [A4 + 0x122]
00005E3E  6024                     bra        +0x26 /* 00005E64 */
label00005E40:
00005E40  102C 012B                move.b     D0, [A4 + 0x12B]
00005E44  B02E FFD1                cmp.b      D0, [A6 - 0x2F]
00005E48  671A                     beq        +0x1C /* 00005E64 */
00005E4A  1F3C 0001                move.b     -[A7], 0x1
00005E4E  4267                     clr.w      -[A7]
00005E50  2F0B                     move.l     -[A7], A3
00005E52  4EBA A386                jsr        [PC - 0x5C7A /* 000001DA */]
00005E56  486E FFF6                pea.l      [A6 - 0xA]
00005E5A  486E FFFA                pea.l      [A6 - 0x6]
00005E5E  2F0B                     move.l     -[A7], A3
00005E60  4EBA E2DC                jsr        [PC - 0x1D24 /* 0000413E */]
label00005E64:
00005E64  B86E FFF6                cmp.w      D4, [A6 - 0xA]
00005E68  56C0                     sne        D0
00005E6A  4A00                     tst.b      D0
00005E6C  660A                     bne        +0xC /* 00005E78 */
00005E6E  BA6E FFF8                cmp.w      D5, [A6 - 0x8]
00005E72  56C1                     sne        D1
00005E74  8001                     or.b       D0, D1
00005E76  6748                     beq        +0x4A /* 00005EC0 */
label00005E78:
00005E78  1F3C 0001                move.b     -[A7], 0x1
00005E7C  4267                     clr.w      -[A7]
00005E7E  3F2E FFF6                move.w     -[A7], [A6 - 0xA]
00005E82  3F2E FFF8                move.w     -[A7], [A6 - 0x8]
00005E86  2F2C 0104                move.l     -[A7], [A4 + 0x104]
00005E8A  2F2C 0124                move.l     -[A7], [A4 + 0x124]
00005E8E  4EBA C742                jsr        [PC - 0x38BE /* 000025D2 */]
00005E92  7000                     moveq.l    D0, 0x00
00005E94  2D40 FFEE                move.l     [A6 - 0x12], D0
00005E98  4267                     clr.w      -[A7]
00005E9A  1F3C 0001                move.b     -[A7], 0x1
00005E9E  486E FFEE                pea.l      [A6 - 0x12]
00005EA2  2F2C 0124                move.l     -[A7], [A4 + 0x124]
00005EA6  3F3C 003C                move.w     -[A7], 0x3C /* '<' */
00005EAA  A9E7                     syscall    Pack0/ListManager
00005EAC  101F                     move.b     D0, [A7]+
00005EAE  6710                     beq        +0x12 /* 00005EC0 */
00005EB0  2F2E FFEE                move.l     -[A7], [A6 - 0x12]
00005EB4  2F2C 0124                move.l     -[A7], [A4 + 0x124]
00005EB8  1F3C 0001                move.b     -[A7], 0x1
00005EBC  4EBA CB18                jsr        [PC - 0x34E8 /* 000029D6 */]
label00005EC0:
00005EC0  BE06                     cmp.b      D7, D6
00005EC2  56C0                     sne        D0
00005EC4  4A00                     tst.b      D0
00005EC6  6720                     beq        +0x22 /* 00005EE8 */
00005EC8  7204                     moveq.l    D1, 0x04
00005ECA  B207                     cmp.b      D1, D7
00005ECC  57C1                     seq        D1
00005ECE  4A01                     tst.b      D1
00005ED0  660C                     bne        +0xE /* 00005EDE */
00005ED2  7404                     moveq.l    D2, 0x04
00005ED4  B406                     cmp.b      D2, D6
00005ED6  57C2                     seq        D2
00005ED8  8202                     or.b       D1, D2
00005EDA  C001                     and.b      D0, D1
00005EDC  670A                     beq        +0xC /* 00005EE8 */
label00005EDE:
00005EDE  2F0B                     move.l     -[A7], A3
00005EE0  2F2C 0104                move.l     -[A7], [A4 + 0x104]
00005EE4  4EBA F008                jsr        [PC - 0xFF8 /* 00004EEE */]
label00005EE8:
00005EE8  206C 0104                movea.l    A0, [A4 + 0x104]
00005EEC  4868 0010                pea.l      [A0 + 0x10]
00005EF0  A928                     syscall    InvalRect
00005EF2  422C 0108                clr.b      [A4 + 0x108]
00005EF6  BC07                     cmp.b      D6, D7
00005EF8  6768                     beq        +0x6A /* 00005F62 */
00005EFA  7004                     moveq.l    D0, 0x04
00005EFC  B007                     cmp.b      D0, D7
00005EFE  57C0                     seq        D0
00005F00  4A00                     tst.b      D0
00005F02  660A                     bne        +0xC /* 00005F0E */
00005F04  7204                     moveq.l    D1, 0x04
00005F06  B206                     cmp.b      D1, D6
00005F08  57C1                     seq        D1
00005F0A  8001                     or.b       D0, D1
00005F0C  670C                     beq        +0xE /* 00005F1A */
label00005F0E:
00005F0E  206C 0104                movea.l    A0, [A4 + 0x104]
00005F12  4868 0010                pea.l      [A0 + 0x10]
00005F16  A8A3                     syscall    EraseRect
00005F18  6048                     bra        +0x4A /* 00005F62 */
label00005F1A:
00005F1A  206C 0124                movea.l    A0, [A4 + 0x124]
00005F1E  2050                     movea.l    A0, [A0]
00005F20  43EE FFD6                lea.l      A1, [A6 - 0x2A]
00005F24  7003                     moveq.l    D0, 0x03
label00005F26:
00005F26  32D8                     move.w     [A1]+, [A0]+
00005F28  51C8 FFFC                dbf        D0, -0x6 /* 00005F26 */
00005F2C  426E FFF0                clr.w      [A6 - 0x10]
00005F30  206C 0124                movea.l    A0, [A4 + 0x124]
00005F34  2050                     movea.l    A0, [A0]
00005F36  3028 0018                move.w     D0, [A0 + 0x18]
00005F3A  5540                     subq.w     D0, 2
00005F3C  3D40 FFEE                move.w     [A6 - 0x12], D0
00005F40  486E FFDE                pea.l      [A6 - 0x22]
00005F44  2F2E FFEE                move.l     -[A7], [A6 - 0x12]
00005F48  2F2C 0124                move.l     -[A7], [A4 + 0x124]
00005F4C  3F3C 004C                move.w     -[A7], 0x4C /* 'L' */
00005F50  A9E7                     syscall    Pack0/ListManager
00005F52  302E FFE2                move.w     D0, [A6 - 0x1E]
00005F56  5240                     addq.w     D0, 1
00005F58  3D40 FFD6                move.w     [A6 - 0x2A], D0
00005F5C  486E FFD6                pea.l      [A6 - 0x2A]
00005F60  A8A3                     syscall    EraseRect
label00005F62:
00005F62  102E FFD1                move.b     D0, [A6 - 0x2F]
00005F66  B02C 012B                cmp.b      D0, [A4 + 0x12B]
00005F6A  56C0                     sne        D0
00005F6C  4A00                     tst.b      D0
00005F6E  6608                     bne        +0xA /* 00005F78 */
00005F70  BC07                     cmp.b      D6, D7
00005F72  56C1                     sne        D1
00005F74  8001                     or.b       D0, D1
00005F76  6706                     beq        +0x8 /* 00005F7E */
label00005F78:
00005F78  2F0B                     move.l     -[A7], A3
00005F7A  4EBA FC90                jsr        [PC - 0x370 /* 00005C0C */]
label00005F7E:
00005F7E  2F0B                     move.l     -[A7], A3
00005F80  4EBA D00A                jsr        [PC - 0x2FF6 /* 00002F8C */]
00005F84  4CDF 18F0                movem.l    D4,D5,D6,D7,A3,A4, [A7]+
00005F88  4E5E                     unlink     A6
00005F8A  205F                     movea.l    A0, [A7]+
00005F8C  5C4F                     addq.w     A7, 6
00005F8E  4ED0                     jmp        [A0]
fn00005F90:
00005F90  4E56 0000                link       A6, 0
00005F94  48E7 0018                movem.l    -[A7], A3,A4
00005F98  266E 0008                movea.l    A3, [A6 + 0x8]
00005F9C  422E 000C                clr.b      [A6 + 0xC]
00005FA0  2853                     movea.l    A4, [A3]
00005FA2  2F3C 0004 0002           move.l     -[A7], 0x40002
00005FA8  2F0B                     move.l     -[A7], A3
00005FAA  4EAD 025A                jsr        [A5 + 0x25A /* export_71, CODE:1 @ 00005AE0 */]
00005FAE  4267                     clr.w      -[A7]
00005FB0  206C 0124                movea.l    A0, [A4 + 0x124]
00005FB4  2050                     movea.l    A0, [A0]
00005FB6  4868 0048                pea.l      [A0 + 0x48]
00005FBA  A8AE                     syscall    EmptyRect
00005FBC  101F                     move.b     D0, [A7]+
00005FBE  670C                     beq        +0xE /* 00005FCC */
00005FC0  2053                     movea.l    A0, [A3]
00005FC2  2050                     movea.l    A0, [A0]
00005FC4  2050                     movea.l    A0, [A0]
00005FC6  117C 0001 0108           move.b     [A0 + 0x108], 0x1
label00005FCC:
00005FCC  102D F956                move.b     D0, [A5 - 0x6AA]
00005FD0  6638                     bne        +0x3A /* 0000600A */
00005FD2  2F2C 0124                move.l     -[A7], [A4 + 0x124]
00005FD6  3F3C 0028                move.w     -[A7], 0x28 /* '(' */
00005FDA  A9E7                     syscall    Pack0/ListManager
00005FDC  2F2C 0104                move.l     -[A7], [A4 + 0x104]
00005FE0  A92D                     syscall    CloseWindow
00005FE2  2F2C 0104                move.l     -[A7], [A4 + 0x104]
00005FE6  4EAD 0122                jsr        [A5 + 0x122 /* export_32, CODE:1 @ 000032AC */]
00005FEA  3F3C 0082                move.w     -[A7], 0x82
00005FEE  A936                     syscall    DeleteMenu
00005FF0  4267                     clr.w      -[A7]
00005FF2  4EAD 003A                jsr        [A5 + 0x3A /* export_3, CODE:1 @ 00000054 */]
00005FF6  2F2C 0130                move.l     -[A7], [A4 + 0x130]
00005FFA  205F                     movea.l    A0, [A7]+
00005FFC  A023                     syscall    DisposHandle/DisposeHandle
00005FFE  2F0B                     move.l     -[A7], A3
00006000  205F                     movea.l    A0, [A7]+
00006002  A023                     syscall    DisposHandle/DisposeHandle
00006004  1D7C 0001 000C           move.b     [A6 + 0xC], 0x1
label0000600A:
0000600A  4CDF 1800                movem.l    A3,A4, [A7]+
0000600E  4E5E                     unlink     A6
00006010  2E9F                     move.l     [A7], [A7]+
00006012  4E75                     rts
fn00006014:
00006014  4E56 FFF0                link       A6, -0x0010
00006018  48E7 0118                movem.l    -[A7], D7,A3,A4
0000601C  206E 0008                movea.l    A0, [A6 + 0x8]
00006020  2850                     movea.l    A4, [A0]
00006022  2F2C 0124                move.l     -[A7], [A4 + 0x124]
00006026  4EBA ABDE                jsr        [PC - 0x5422 /* 00000C06 */]
0000602A  42A7                     clr.l      -[A7]
0000602C  2F2E 0008                move.l     -[A7], [A6 + 0x8]
00006030  4EAD 01C2                jsr        [A5 + 0x1C2 /* export_52, CODE:1 @ 000045E2 */]
00006034  2E1F                     move.l     D7, [A7]+
00006036  7000                     moveq.l    D0, 0x00
00006038  2F00                     move.l     -[A7], D0
0000603A  4267                     clr.w      -[A7]
0000603C  2047                     movea.l    A0, D7
0000603E  2050                     movea.l    A0, [A0]
00006040  3F28 0110                move.w     -[A7], [A0 + 0x110]
00006044  A9F6                     syscall    GetResFileAttrs
00006046  321F                     move.w     D1, [A7]+
00006048  201F                     move.l     D0, [A7]+
0000604A  3001                     move.w     D0, D1
0000604C  C0BC 0000 0020           and.l      D0, 0x20 /* ' ' */
00006052  7220                     moveq.l    D1, 0x20
00006054  B280                     cmp.l      D1, D0
00006056  6600 00A2                bne        +0xA4 /* 000060FA */
0000605A  7000                     moveq.l    D0, 0x00
0000605C  2D40 FFF4                move.l     [A6 - 0xC], D0
label00006060:
00006060  3D7C 0002 FFFC           move.w     [A6 - 0x4], 0x2
00006066  486E FFFE                pea.l      [A6 - 0x2]
0000606A  486E FFFC                pea.l      [A6 - 0x4]
0000606E  2F2E FFF4                move.l     -[A7], [A6 - 0xC]
00006072  2F2C 0124                move.l     -[A7], [A4 + 0x124]
00006076  3F3C 0038                move.w     -[A7], 0x38 /* '8' */
0000607A  A9E7                     syscall    Pack0/ListManager
0000607C  4267                     clr.w      -[A7]
0000607E  A99B                     syscall    SetResLoad
00006080  42A7                     clr.l      -[A7]
00006082  3F2C 0110                move.w     -[A7], [A4 + 0x110]
00006086  2F2C 0118                move.l     -[A7], [A4 + 0x118]
0000608A  3F2E FFFE                move.w     -[A7], [A6 - 0x2]
0000608E  4EAD 08CA                jsr        [A5 + 0x8CA /* export_277, CODE:4 @ 00000338 */]
00006092  265F                     movea.l    A3, [A7]+
00006094  1F3C 0001                move.b     -[A7], 0x1
00006098  A99B                     syscall    SetResLoad
0000609A  200B                     move.l     D0, A3
0000609C  56C0                     sne        D0
0000609E  4A00                     tst.b      D0
000060A0  6736                     beq        +0x38 /* 000060D8 */
000060A2  7200                     moveq.l    D1, 0x00
000060A4  48E7 C000                movem.l    -[A7], D0,D1
000060A8  4267                     clr.w      -[A7]
000060AA  2F0B                     move.l     -[A7], A3
000060AC  A9A6                     syscall    GetResAttrs
000060AE  341F                     move.w     D2, [A7]+
000060B0  4CDF 0003                movem.l    D0,D1, [A7]+
000060B4  3202                     move.w     D1, D2
000060B6  C2BC 0000 0002           and.l      D1, 0x2
000060BC  7402                     moveq.l    D2, 0x02
000060BE  B481                     cmp.l      D2, D1
000060C0  57C1                     seq        D1
000060C2  C001                     and.b      D0, D1
000060C4  6712                     beq        +0x14 /* 000060D8 */
000060C6  1F3C 0001                move.b     -[A7], 0x1
000060CA  2F2E FFF4                move.l     -[A7], [A6 - 0xC]
000060CE  2F2C 0124                move.l     -[A7], [A4 + 0x124]
000060D2  3F3C 005C                move.w     -[A7], 0x5C /* '\\' */
000060D6  A9E7                     syscall    Pack0/ListManager
label000060D8:
000060D8  4267                     clr.w      -[A7]
000060DA  1F3C 0001                move.b     -[A7], 0x1
000060DE  1F3C 0001                move.b     -[A7], 0x1
000060E2  486E FFF4                pea.l      [A6 - 0xC]
000060E6  2F2C 0124                move.l     -[A7], [A4 + 0x124]
000060EA  3F3C 0048                move.w     -[A7], 0x48 /* 'H' */
000060EE  A9E7                     syscall    Pack0/ListManager
000060F0  101F                     move.b     D0, [A7]+
000060F2  0A00 0001                xori.b     D0, 0x1
000060F6  6700 FF68                beq        -0x96 /* 00006060 */
label000060FA:
000060FA  4CDF 1880                movem.l    D7,A3,A4, [A7]+
000060FE  4E5E                     unlink     A6
00006100  2E9F                     move.l     [A7], [A7]+
00006102  4E75                     rts
export_331:
00006104  4E56 0000                link       A6, 0
00006108  1D6D F95F 0008           move.b     [A6 + 0x8], [A5 - 0x6A1]
0000610E  4E5E                     unlink     A6
00006110  4E75                     rts
export_332:
fn00006112:
00006112  4E56 FEFA                link       A6, -0x0106
00006116  48E7 1318                movem.l    -[A7], D3,D6,D7,A3,A4
0000611A  266E 000C                movea.l    A3, [A6 + 0xC]
0000611E  3C2E 001A                move.w     D6, [A6 + 0x1A]
00006122  2E2E 0008                move.l     D7, [A6 + 0x8]
00006126  7000                     moveq.l    D0, 0x00
00006128  2D40 001C                move.l     [A6 + 0x1C], D0
0000612C  4213                     clr.b      [A3]
0000612E  4267                     clr.w      -[A7]
00006130  A99B                     syscall    SetResLoad
00006132  42A7                     clr.l      -[A7]
00006134  3F06                     move.w     -[A7], D6
00006136  2F2E 0012                move.l     -[A7], [A6 + 0x12]
0000613A  3F2E 0010                move.w     -[A7], [A6 + 0x10]
0000613E  4EAD 08CA                jsr        [A5 + 0x8CA /* export_277, CODE:4 @ 00000338 */]
00006142  285F                     movea.l    A4, [A7]+
00006144  1F3C 0001                move.b     -[A7], 0x1
00006148  A99B                     syscall    SetResLoad
0000614A  2047                     movea.l    A0, D7
0000614C  2F08                     move.l     -[A7], A0
0000614E  4267                     clr.w      -[A7]
00006150  A9AF                     syscall    ResError
00006152  301F                     move.w     D0, [A7]+
00006154  205F                     movea.l    A0, [A7]+
00006156  3080                     move.w     [A0], D0
00006158  2047                     movea.l    A0, D7
0000615A  4A50                     tst.w      [A0]
0000615C  6600 0110                bne        +0x112 /* 0000626E */
00006160  200C                     move.l     D0, A4
00006162  56C0                     sne        D0
00006164  4A00                     tst.b      D0
00006166  6700 00E2                beq        +0xE4 /* 0000624A */
0000616A  4A94                     tst.l      [A4]
0000616C  56C1                     sne        D1
0000616E  C001                     and.b      D0, D1
00006170  6700 00D8                beq        +0xDA /* 0000624A */
00006174  4A6E 0016                tst.w      [A6 + 0x16]
00006178  56C0                     sne        D0
0000617A  4A00                     tst.b      D0
0000617C  6766                     beq        +0x68 /* 000061E4 */
0000617E  2F00                     move.l     -[A7], D0
00006180  4267                     clr.w      -[A7]
00006182  3F06                     move.w     -[A7], D6
00006184  4EAD 01B2                jsr        [A5 + 0x1B2 /* export_50, CODE:1 @ 0000453C */]
00006188  121F                     move.b     D1, [A7]+
0000618A  201F                     move.l     D0, [A7]+
0000618C  C001                     and.b      D0, D1
0000618E  6754                     beq        +0x56 /* 000061E4 */
00006190  7000                     moveq.l    D0, 0x00
00006192  2F00                     move.l     -[A7], D0
00006194  4267                     clr.w      -[A7]
00006196  2F0C                     move.l     -[A7], A4
00006198  4EAD 0662                jsr        [A5 + 0x662 /* export_200, CODE:3 @ 00002AEC */]
0000619C  121F                     move.b     D1, [A7]+
0000619E  201F                     move.l     D0, [A7]+
000061A0  1001                     move.b     D0, D1
000061A2  0800 0007                btst.b     D0, 0x7
000061A6  673C                     beq        +0x3E /* 000061E4 */
000061A8  3F2E 0016                move.w     -[A7], [A6 + 0x16]
000061AC  487A 00FA                pea.l      [PC + 0xFA /* 000062A8, value 0x44D6973, pstring "Misc" */]
000061B0  486E FEFC                pea.l      [A6 - 0x104]
000061B4  4EAD 0282                jsr        [A5 + 0x282 /* export_76, CODE:1 @ 00005CDA */]
000061B8  486E FEFC                pea.l      [A6 - 0x104]
000061BC  487A 00E8                pea.l      [PC + 0xE8 /* 000062A6, value 0x44D, cstring "" */]
000061C0  487A 00E4                pea.l      [PC + 0xE4 /* 000062A6, value 0x44D, cstring "" */]
000061C4  487A 00E0                pea.l      [PC + 0xE0 /* 000062A6, value 0x44D, cstring "" */]
000061C8  A98B                     syscall    ParamText
000061CA  4267                     clr.w      -[A7]
000061CC  1F3C 0004                move.b     -[A7], 0x4
000061D0  487A 00CA                pea.l      [PC + 0xCA /* 0000629C, value 0x9416C65 '\tAle', pstring "Alert str" */]
000061D4  3F3C 001A                move.w     -[A7], 0x1A
000061D8  4EAD 00DA                jsr        [A5 + 0xDA /* export_23, CODE:1 @ 00002ACA */]
000061DC  101F                     move.b     D0, [A7]+
000061DE  6604                     bne        +0x6 /* 000061E4 */
000061E0  6000 00AC                bra        +0xAE /* 0000628E */
label000061E4:
000061E4  42A7                     clr.l      -[A7]
000061E6  2F0C                     move.l     -[A7], A4
000061E8  4EBA A4E2                jsr        [PC - 0x5B1E /* 000006CC */]
000061EC  4A9F                     tst.l      [A7]+
000061EE  56C0                     sne        D0
000061F0  4A00                     tst.b      D0
000061F2  6638                     bne        +0x3A /* 0000622C */
000061F4  2F00                     move.l     -[A7], D0
000061F6  4267                     clr.w      -[A7]
000061F8  3F06                     move.w     -[A7], D6
000061FA  4EAD 01B2                jsr        [A5 + 0x1B2 /* export_50, CODE:1 @ 0000453C */]
000061FE  121F                     move.b     D1, [A7]+
00006200  201F                     move.l     D0, [A7]+
00006202  4A01                     tst.b      D1
00006204  672C                     beq        +0x2E /* 00006232 */
00006206  7400                     moveq.l    D2, 0x00
00006208  48E7 E000                movem.l    -[A7], D0,D1,D2
0000620C  4267                     clr.w      -[A7]
0000620E  2F0C                     move.l     -[A7], A4
00006210  4EAD 0662                jsr        [A5 + 0x662 /* export_200, CODE:3 @ 00002AEC */]
00006214  161F                     move.b     D3, [A7]+
00006216  4CDF 0007                movem.l    D0,D1,D2, [A7]+
0000621A  1403                     move.b     D2, D3
0000621C  0802 0006                btst.b     D2, 0x6
00006220  57C2                     seq        D2
00006222  C202                     and.b      D1, D2
00006224  8001                     or.b       D0, D1
00006226  0240 0001                andi.w     D0, 0x1
0000622A  6706                     beq        +0x8 /* 00006232 */
label0000622C:
0000622C  16BC 0001                move.b     [A3], 0x1
00006230  6040                     bra        +0x42 /* 00006272 */
label00006232:
00006232  4267                     clr.w      -[A7]
00006234  2F0C                     move.l     -[A7], A4
00006236  A9A6                     syscall    GetResAttrs
00006238  3D5F FEFA                move.w     [A6 - 0x106], [A7]+
0000623C  082E 0001 FEFB           btst.b     [A6 - 0x105], 0x1
00006242  56C0                     sne        D0
00006244  4400                     neg.b      D0
00006246  1680                     move.b     [A3], D0
00006248  6028                     bra        +0x2A /* 00006272 */
label0000624A:
0000624A  102E 0018                move.b     D0, [A6 + 0x18]
0000624E  6722                     beq        +0x24 /* 00006272 */
00006250  2F0C                     move.l     -[A7], A4
00006252  A9A2                     syscall    LoadResource
00006254  2047                     movea.l    A0, D7
00006256  2F08                     move.l     -[A7], A0
00006258  4267                     clr.w      -[A7]
0000625A  A9AF                     syscall    ResError
0000625C  301F                     move.w     D0, [A7]+
0000625E  205F                     movea.l    A0, [A7]+
00006260  3080                     move.w     [A0], D0
00006262  2047                     movea.l    A0, D7
00006264  4A50                     tst.w      [A0]
00006266  670A                     beq        +0xC /* 00006272 */
00006268  7000                     moveq.l    D0, 0x00
0000626A  2840                     movea.l    A4, D0
0000626C  6004                     bra        +0x6 /* 00006272 */
label0000626E:
0000626E  7000                     moveq.l    D0, 0x00
00006270  2840                     movea.l    A4, D0
label00006272:
00006272  1013                     move.b     D0, [A3]
00006274  0A00 0001                xori.b     D0, 0x1
00006278  4A00                     tst.b      D0
0000627A  670E                     beq        +0x10 /* 0000628A */
0000627C  220C                     move.l     D1, A4
0000627E  56C1                     sne        D1
00006280  C001                     and.b      D0, D1
00006282  6706                     beq        +0x8 /* 0000628A */
00006284  2F0C                     move.l     -[A7], A4
00006286  205F                     movea.l    A0, [A7]+
00006288  A02A                     syscall    HUnlock
label0000628A:
0000628A  2D4C 001C                move.l     [A6 + 0x1C], A4
label0000628E:
0000628E  4CDF 18C8                movem.l    D3,D6,D7,A3,A4, [A7]+
00006292  4E5E                     unlink     A6
00006294  205F                     movea.l    A0, [A7]+
00006296  DEFC 0014                add.w      A7, 0x14
0000629A  4ED0                     jmp        [A0]
0000629C  0941                     bchg       D1, D4
0000629E  6C65                     bge        +0x67 /* 00006305 */
000062A0  7274                     moveq.l    D1, 0x74
000062A2  2073 7472                movea.l    A0, [A3 + D7.w * 4 + 0x72]
000062A6  0000 044D                ori.b      D0, 0x4D /* 'M' */
000062AA  6973                     bvs        +0x75 /* 0000631F */
000062AC  6300 4E56                bls        +0x4E58 /* 0000B104 */
// begin alternate branch 000062AE-000062B8
export_333:
000062AE  4E56 0000                link       A6, 0
000062B2  422E 0010                clr.b      [A6 + 0x10]
000062B6  4E5E                     unlink     A6
// end alternate branch 000062AE-000062B8
export_333: // at 000062AE (misaligned)
000062B0  0000 422E                ori.b      D0, 0x2E /* '.' */
000062B4  0010 4E5E                ori.b      [A0], 0x5E /* '^' */
000062B8  205F                     movea.l    A0, [A7]+
000062BA  504F                     addq.w     A7, 8
000062BC  4ED0                     jmp        [A0]
fn000062BE:
000062BE  4E56 FFF6                link       A6, -0x000A
000062C2  48E7 0118                movem.l    -[A7], D7,A3,A4
000062C6  266E 000C                movea.l    A3, [A6 + 0xC]
000062CA  286E 0008                movea.l    A4, [A6 + 0x8]
000062CE  2F0C                     move.l     -[A7], A4
000062D0  4EBA A934                jsr        [PC - 0x56CC /* 00000C06 */]
000062D4  3D7C 0001 FFF8           move.w     [A6 - 0x8], 0x1
000062DA  2053                     movea.l    A0, [A3]
000062DC  3D50 FFF6                move.w     [A6 - 0xA], [A0]
000062E0  3E2E FFF8                move.w     D7, [A6 - 0x8]
000062E4  603E                     bra        +0x40 /* 00006324 */
label000062E6:
000062E6  7000                     moveq.l    D0, 0x00
000062E8  2D40 FFFA                move.l     [A6 - 0x6], D0
000062EC  4267                     clr.w      -[A7]
000062EE  2053                     movea.l    A0, [A3]
000062F0  3007                     move.w     D0, D7
000062F2  D040                     add.w      D0, D0
000062F4  4870 0000                pea.l      [A0 + D0.w]
000062F8  3F3C 0002                move.w     -[A7], 0x2
000062FC  487A F86C                pea.l      [PC - 0x794 /* 00005B6A, value 0x4E56FFFE */]
00006300  486E FFFA                pea.l      [A6 - 0x6]
00006304  2F0C                     move.l     -[A7], A4
00006306  3F3C 0054                move.w     -[A7], 0x54 /* 'T' */
0000630A  A9E7                     syscall    Pack0/ListManager
0000630C  101F                     move.b     D0, [A7]+
0000630E  6710                     beq        +0x12 /* 00006320 */
00006310  1F3C 0001                move.b     -[A7], 0x1
00006314  2F2E FFFA                move.l     -[A7], [A6 - 0x6]
00006318  2F0C                     move.l     -[A7], A4
0000631A  3F3C 005C                move.w     -[A7], 0x5C /* '\\' */
0000631E  A9E7                     syscall    Pack0/ListManager
label00006320:
00006320  5247                     addq.w     D7, 1
00006322  6906                     bvs        +0x8 /* 0000632A */
label00006324:
00006324  BE6E FFF6                cmp.w      D7, [A6 - 0xA]
00006328  6FBC                     ble        -0x42 /* 000062E6 */
label0000632A:
0000632A  2F0B                     move.l     -[A7], A3
0000632C  205F                     movea.l    A0, [A7]+
0000632E  A023                     syscall    DisposHandle/DisposeHandle
00006330  7000                     moveq.l    D0, 0x00
00006332  2D40 FFFA                move.l     [A6 - 0x6], D0
00006336  4267                     clr.w      -[A7]
00006338  1F3C 0001                move.b     -[A7], 0x1
0000633C  486E FFFA                pea.l      [A6 - 0x6]
00006340  2F0C                     move.l     -[A7], A4
00006342  3F3C 003C                move.w     -[A7], 0x3C /* '<' */
00006346  A9E7                     syscall    Pack0/ListManager
00006348  101F                     move.b     D0, [A7]+
0000634A  670E                     beq        +0x10 /* 0000635A */
0000634C  2F2E FFFA                move.l     -[A7], [A6 - 0x6]
00006350  2F0C                     move.l     -[A7], A4
00006352  1F3C 0001                move.b     -[A7], 0x1
00006356  4EBA C67E                jsr        [PC - 0x3982 /* 000029D6 */]
label0000635A:
0000635A  4CDF 1880                movem.l    D7,A3,A4, [A7]+
0000635E  4E5E                     unlink     A6
00006360  205F                     movea.l    A0, [A7]+
00006362  504F                     addq.w     A7, 8
00006364  4ED0                     jmp        [A0]
fn00006366:
00006366  4E56 FFF4                link       A6, -0x000C
0000636A  48E7 0118                movem.l    -[A7], D7,A3,A4
0000636E  266E 0008                movea.l    A3, [A6 + 0x8]
00006372  7000                     moveq.l    D0, 0x00
00006374  2D40 0014                move.l     [A6 + 0x14], D0
00006378  3D7C 0002 FFFA           move.w     [A6 - 0x6], 0x2
0000637E  486E FFFC                pea.l      [A6 - 0x4]
00006382  486E FFFA                pea.l      [A6 - 0x6]
00006386  2F2E 000C                move.l     -[A7], [A6 + 0xC]
0000638A  2053                     movea.l    A0, [A3]
0000638C  2F28 0124                move.l     -[A7], [A0 + 0x124]
00006390  3F3C 0038                move.w     -[A7], 0x38 /* '8' */
00006394  A9E7                     syscall    Pack0/ListManager
00006396  4A6E FFFA                tst.w      [A6 - 0x6]
0000639A  6F44                     ble        +0x46 /* 000063E0 */
0000639C  42A7                     clr.l      -[A7]
0000639E  2053                     movea.l    A0, [A3]
000063A0  3F28 0110                move.w     -[A7], [A0 + 0x110]
000063A4  1F2E 0012                move.b     -[A7], [A6 + 0x12]
000063A8  3F2E 0010                move.w     -[A7], [A6 + 0x10]
000063AC  2F28 0118                move.l     -[A7], [A0 + 0x118]
000063B0  3F2E FFFC                move.w     -[A7], [A6 - 0x4]
000063B4  486E FFF8                pea.l      [A6 - 0x8]
000063B8  486E FFFE                pea.l      [A6 - 0x2]
000063BC  4EBA FD54                jsr        [PC - 0x2AC /* 00006112 */]
000063C0  285F                     movea.l    A4, [A7]+
000063C2  4267                     clr.w      -[A7]
000063C4  3F2E FFFE                move.w     -[A7], [A6 - 0x2]
000063C8  4267                     clr.w      -[A7]
000063CA  4EAD 00F2                jsr        [A5 + 0xF2 /* export_26, CODE:1 @ 00002F14 */]
000063CE  1E1F                     move.b     D7, [A7]+
000063D0  102E 0012                move.b     D0, [A6 + 0x12]
000063D4  6706                     beq        +0x8 /* 000063DC */
000063D6  1B6E FFF8 F95F           move.b     [A5 - 0x6A1], [A6 - 0x8]
label000063DC:
000063DC  2D4C 0014                move.l     [A6 + 0x14], A4
label000063E0:
000063E0  4CDF 1880                movem.l    D7,A3,A4, [A7]+
000063E4  4E5E                     unlink     A6
000063E6  205F                     movea.l    A0, [A7]+
000063E8  DEFC 000C                add.w      A7, 0xC
000063EC  4ED0                     jmp        [A0]
fn000063EE:
000063EE  4E56 FFFC                link       A6, -0x0004
000063F2  48E7 0018                movem.l    -[A7], A3,A4
000063F6  286E 0008                movea.l    A4, [A6 + 0x8]
000063FA  206E 000E                movea.l    A0, [A6 + 0xE]
000063FE  2650                     movea.l    A3, [A0]
00006400  7000                     moveq.l    D0, 0x00
00006402  2D40 FFFC                move.l     [A6 - 0x4], D0
label00006406:
00006406  4267                     clr.w      -[A7]
00006408  1F3C 0001                move.b     -[A7], 0x1
0000640C  486E FFFC                pea.l      [A6 - 0x4]
00006410  2F2B 0124                move.l     -[A7], [A3 + 0x124]
00006414  3F3C 003C                move.w     -[A7], 0x3C /* '<' */
00006418  A9E7                     syscall    Pack0/ListManager
0000641A  101F                     move.b     D0, [A7]+
0000641C  6772                     beq        +0x74 /* 00006490 */
0000641E  42A7                     clr.l      -[A7]
00006420  42A7                     clr.l      -[A7]
00006422  2F2E FFFC                move.l     -[A7], [A6 - 0x4]
00006426  2F2E 000E                move.l     -[A7], [A6 + 0xE]
0000642A  4EBA FF3A                jsr        [PC - 0xC6 /* 00006366 */]
0000642E  295F FFF8                move.l     [A4 - 0x8], [A7]+
00006432  6602                     bne        +0x4 /* 00006436 */
00006434  605A                     bra        +0x5C /* 00006490 */
label00006436:
00006436  42A7                     clr.l      -[A7]
00006438  4267                     clr.w      -[A7]
0000643A  2F2C FFF8                move.l     -[A7], [A4 - 0x8]
0000643E  4EBA A2A8                jsr        [PC - 0x5D58 /* 000006E8 */]
00006442  4A9F                     tst.l      [A7]+
00006444  662C                     bne        +0x2E /* 00006472 */
00006446  4267                     clr.w      -[A7]
00006448  2F2C FFF8                move.l     -[A7], [A4 - 0x8]
0000644C  4EAD 016A                jsr        [A5 + 0x16A /* export_41, CODE:1 @ 00003A5E */]
00006450  101F                     move.b     D0, [A7]+
00006452  671E                     beq        +0x20 /* 00006472 */
00006454  4267                     clr.w      -[A7]
00006456  1F3C 0004                move.b     -[A7], 0x4
0000645A  487A 0042                pea.l      [PC + 0x42 /* 0000649E, value 0x9416C65 '\tAle', pstring "Alert str" */]
0000645E  3F2E 000C                move.w     -[A7], [A6 + 0xC]
00006462  4EAD 00DA                jsr        [A5 + 0xDA /* export_23, CODE:1 @ 00002ACA */]
00006466  101F                     move.b     D0, [A7]+
00006468  0A00 0001                xori.b     D0, 0x1
0000646C  1B40 F956                move.b     [A5 - 0x6AA], D0
00006470  601E                     bra        +0x20 /* 00006490 */
label00006472:
00006472  4267                     clr.w      -[A7]
00006474  1F3C 0001                move.b     -[A7], 0x1
00006478  1F3C 0001                move.b     -[A7], 0x1
0000647C  486E FFFC                pea.l      [A6 - 0x4]
00006480  2F2B 0124                move.l     -[A7], [A3 + 0x124]
00006484  3F3C 0048                move.w     -[A7], 0x48 /* 'H' */
00006488  A9E7                     syscall    Pack0/ListManager
0000648A  101F                     move.b     D0, [A7]+
0000648C  6600 FF78                bne        -0x86 /* 00006406 */
label00006490:
00006490  4CDF 1800                movem.l    A3,A4, [A7]+
00006494  4E5E                     unlink     A6
00006496  205F                     movea.l    A0, [A7]+
00006498  DEFC 000A                add.w      A7, 0xA /* '\n' */
0000649C  4ED0                     jmp        [A0]
0000649E  0941                     bchg       D1, D4
000064A0  6C65                     bge        +0x67 /* 00006507 */
000064A2  7274                     moveq.l    D1, 0x74
000064A4  2073 7472                movea.l    A0, [A3 + D7.w * 4 + 0x72]
fn000064A8:
000064A8  4E56 FFEC                link       A6, -0x0014
000064AC  48E7 0318                movem.l    -[A7], D6,D7,A3,A4
000064B0  2C2E 000C                move.l     D6, [A6 + 0xC]
000064B4  286E 0008                movea.l    A4, [A6 + 0x8]
000064B8  4267                     clr.w      -[A7]
000064BA  2046                     movea.l    A0, D6
000064BC  2050                     movea.l    A0, [A0]
000064BE  2F28 0124                move.l     -[A7], [A0 + 0x124]
000064C2  4EAD 034A                jsr        [A5 + 0x34A /* export_101, CODE:2 @ 0000064A */]
000064C6  101F                     move.b     D0, [A7]+
000064C8  6700 00F4                beq        +0xF6 /* 000065BE */
000064CC  2F06                     move.l     -[A7], D6
000064CE  3F3C 0022                move.w     -[A7], 0x22 /* '\"' */
000064D2  2F2E 0008                move.l     -[A7], [A6 + 0x8]
000064D6  4EBA FF16                jsr        [PC - 0xEA /* 000063EE */]
000064DA  102D F956                move.b     D0, [A5 - 0x6AA]
000064DE  6708                     beq        +0xA /* 000064E8 */
000064E0  6000 00DC                bra        +0xDE /* 000065BE */
000064E4  6000 00D8                bra        +0xDA /* 000065BE */
label000064E8:
000064E8  2046                     movea.l    A0, D6
000064EA  2650                     movea.l    A3, [A0]
000064EC  3F3C 0004                move.w     -[A7], 0x4
000064F0  4EAD 0182                jsr        [A5 + 0x182 /* export_44, CODE:1 @ 00003B34 */]
000064F4  7000                     moveq.l    D0, 0x00
000064F6  2940 FFF0                move.l     [A4 - 0x10], D0
000064FA  2E2B 0104                move.l     D7, [A3 + 0x104]
label000064FE:
000064FE  4267                     clr.w      -[A7]
00006500  1F3C 0001                move.b     -[A7], 0x1
00006504  486C FFF0                pea.l      [A4 - 0x10]
00006508  2F2B 0124                move.l     -[A7], [A3 + 0x124]
0000650C  3F3C 003C                move.w     -[A7], 0x3C /* '<' */
00006510  A9E7                     syscall    Pack0/ListManager
00006512  101F                     move.b     D0, [A7]+
00006514  6700 00A8                beq        +0xAA /* 000065BE */
00006518  42A7                     clr.l      -[A7]
0000651A  1F3C 0001                move.b     -[A7], 0x1
0000651E  3F3C 0005                move.w     -[A7], 0x5
00006522  2F2C FFF0                move.l     -[A7], [A4 - 0x10]
00006526  2F06                     move.l     -[A7], D6
00006528  4EBA FE3C                jsr        [PC - 0x1C4 /* 00006366 */]
0000652C  295F FFF8                move.l     [A4 - 0x8], [A7]+
00006530  6604                     bne        +0x6 /* 00006536 */
00006532  6000 008A                bra        +0x8C /* 000065BE */
label00006536:
00006536  1B7C 0001 F961           move.b     [A5 - 0x69F], 0x1
0000653C  422D F959                clr.b      [A5 - 0x6A7]
00006540  2F2C FFF8                move.l     -[A7], [A4 - 0x8]
00006544  2F06                     move.l     -[A7], D6
00006546  4EBA A51C                jsr        [PC - 0x5AE4 /* 00000A64 */]
0000654A  102D F959                move.b     D0, [A5 - 0x6A7]
0000654E  6706                     beq        +0x8 /* 00006556 */
00006550  2F2C FFF8                move.l     -[A7], [A4 - 0x8]
00006554  A9A3                     syscall    ReleaseResource
label00006556:
00006556  422D F961                clr.b      [A5 - 0x69F]
0000655A  42A7                     clr.l      -[A7]
0000655C  A924                     syscall    FrontWindow
0000655E  BE9F                     cmp.l      D7, [A7]+
00006560  6716                     beq        +0x18 /* 00006578 */
00006562  3D7C 0008 FFEC           move.w     [A6 - 0x14], 0x8
00006568  2D47 FFEE                move.l     [A6 - 0x12], D7
0000656C  426E FFFA                clr.w      [A6 - 0x6]
00006570  486E FFEC                pea.l      [A6 - 0x14]
00006574  4EAD 00AA                jsr        [A5 + 0xAA /* export_17, CODE:1 @ 00001C28 */]
label00006578:
00006578  42A7                     clr.l      -[A7]
0000657A  A924                     syscall    FrontWindow
0000657C  2E1F                     move.l     D7, [A7]+
0000657E  422D F95F                clr.b      [A5 - 0x6A1]
00006582  4EAD 0132                jsr        [A5 + 0x132 /* export_34, CODE:1 @ 00003342 */]
00006586  4EBA 06B6                jsr        [PC + 0x6B6 /* 00006C3E */]
0000658A  4267                     clr.w      -[A7]
0000658C  4EAD 013A                jsr        [A5 + 0x13A /* export_35, CODE:1 @ 0000340A */]
00006590  102D F956                move.b     D0, [A5 - 0x6AA]
00006594  6628                     bne        +0x2A /* 000065BE */
00006596  2F00                     move.l     -[A7], D0
00006598  4267                     clr.w      -[A7]
0000659A  1F3C 0001                move.b     -[A7], 0x1
0000659E  1F3C 0001                move.b     -[A7], 0x1
000065A2  486C FFF0                pea.l      [A4 - 0x10]
000065A6  2F2B 0124                move.l     -[A7], [A3 + 0x124]
000065AA  3F3C 0048                move.w     -[A7], 0x48 /* 'H' */
000065AE  A9E7                     syscall    Pack0/ListManager
000065B0  121F                     move.b     D1, [A7]+
000065B2  201F                     move.l     D0, [A7]+
000065B4  0A01 0001                xori.b     D1, 0x1
000065B8  8001                     or.b       D0, D1
000065BA  6700 FF42                beq        -0xBC /* 000064FE */
label000065BE:
000065BE  4CDF 18C0                movem.l    D6,D7,A3,A4, [A7]+
000065C2  4E5E                     unlink     A6
000065C4  205F                     movea.l    A0, [A7]+
000065C6  504F                     addq.w     A7, 8
000065C8  4ED0                     jmp        [A0]
fn000065CA:
000065CA  4E56 FFFC                link       A6, -0x0004
000065CE  48E7 0118                movem.l    -[A7], D7,A3,A4
000065D2  286E 0008                movea.l    A4, [A6 + 0x8]
000065D6  206E 000C                movea.l    A0, [A6 + 0xC]
000065DA  2650                     movea.l    A3, [A0]
000065DC  3F3C 0004                move.w     -[A7], 0x4
000065E0  4EAD 0182                jsr        [A5 + 0x182 /* export_44, CODE:1 @ 00003B34 */]
000065E4  7000                     moveq.l    D0, 0x00
000065E6  2940 FFF0                move.l     [A4 - 0x10], D0
label000065EA:
000065EA  4267                     clr.w      -[A7]
000065EC  1F3C 0001                move.b     -[A7], 0x1
000065F0  486C FFF0                pea.l      [A4 - 0x10]
000065F4  2F2B 0124                move.l     -[A7], [A3 + 0x124]
000065F8  3F3C 003C                move.w     -[A7], 0x3C /* '<' */
000065FC  A9E7                     syscall    Pack0/ListManager
000065FE  101F                     move.b     D0, [A7]+
00006600  6764                     beq        +0x66 /* 00006666 */
00006602  42A7                     clr.l      -[A7]
00006604  1F3C 0001                move.b     -[A7], 0x1
00006608  3F3C 0005                move.w     -[A7], 0x5
0000660C  2F2C FFF0                move.l     -[A7], [A4 - 0x10]
00006610  2F2E 000C                move.l     -[A7], [A6 + 0xC]
00006614  4EBA FD50                jsr        [PC - 0x2B0 /* 00006366 */]
00006618  295F FFF8                move.l     [A4 - 0x8], [A7]+
0000661C  6602                     bne        +0x4 /* 00006620 */
0000661E  6046                     bra        +0x48 /* 00006666 */
label00006620:
00006620  42A7                     clr.l      -[A7]
00006622  2F2C FFF8                move.l     -[A7], [A4 - 0x8]
00006626  4EBA A0A4                jsr        [PC - 0x5F5C /* 000006CC */]
0000662A  2E1F                     move.l     D7, [A7]+
0000662C  670C                     beq        +0xE /* 0000663A */
0000662E  2F3C 0004 0002           move.l     -[A7], 0x40002
00006634  2F07                     move.l     -[A7], D7
00006636  4EAD 00A2                jsr        [A5 + 0xA2 /* export_16, CODE:1 @ 00001A96 */]
label0000663A:
0000663A  102D F956                move.b     D0, [A5 - 0x6AA]
0000663E  6626                     bne        +0x28 /* 00006666 */
00006640  2F00                     move.l     -[A7], D0
00006642  4267                     clr.w      -[A7]
00006644  1F3C 0001                move.b     -[A7], 0x1
00006648  1F3C 0001                move.b     -[A7], 0x1
0000664C  486C FFF0                pea.l      [A4 - 0x10]
00006650  2F2B 0124                move.l     -[A7], [A3 + 0x124]
00006654  3F3C 0048                move.w     -[A7], 0x48 /* 'H' */
00006658  A9E7                     syscall    Pack0/ListManager
0000665A  121F                     move.b     D1, [A7]+
0000665C  201F                     move.l     D0, [A7]+
0000665E  0A01 0001                xori.b     D1, 0x1
00006662  8001                     or.b       D0, D1
00006664  6784                     beq        -0x7A /* 000065EA */
label00006666:
00006666  4CDF 1880                movem.l    D7,A3,A4, [A7]+
0000666A  4E5E                     unlink     A6
0000666C  205F                     movea.l    A0, [A7]+
0000666E  504F                     addq.w     A7, 8
00006670  4ED0                     jmp        [A0]
export_334:
00006672  4E56 FDD6                link       A6, -0x022A
00006676  48E7 0F18                movem.l    -[A7], D4,D5,D6,D7,A3,A4
0000667A  266E 0008                movea.l    A3, [A6 + 0x8]
0000667E  3E2E 000C                move.w     D7, [A6 + 0xC]
00006682  2F0B                     move.l     -[A7], A3
00006684  4EAD 0232                jsr        [A5 + 0x232 /* export_66, CODE:1 @ 00005914 */]
00006688  2F0B                     move.l     -[A7], A3
0000668A  205F                     movea.l    A0, [A7]+
0000668C  A029                     syscall    HLock
0000668E  4206                     clr.b      D6
00006690  422E FDDF                clr.b      [A6 - 0x221]
00006694  2853                     movea.l    A4, [A3]
00006696  2F2C 0104                move.l     -[A7], [A4 + 0x104]
0000669A  A873                     syscall    SetPort
0000669C  0C6E 0082 000E           cmpi.w     [A6 + 0xE], 0x82
000066A2  56C0                     sne        D0
000066A4  4A00                     tst.b      D0
000066A6  6722                     beq        +0x24 /* 000066CA */
000066A8  7202                     moveq.l    D1, 0x02
000066AA  B26E 000E                cmp.w      D1, [A6 + 0xE]
000066AE  56C1                     sne        D1
000066B0  4A01                     tst.b      D1
000066B2  660C                     bne        +0xE /* 000066C0 */
000066B4  7404                     moveq.l    D2, 0x04
000066B6  B447                     cmp.w      D2, D7
000066B8  56C2                     sne        D2
000066BA  8202                     or.b       D1, D2
000066BC  C001                     and.b      D0, D1
000066BE  670A                     beq        +0xC /* 000066CA */
label000066C0:
000066C0  2F2C 0124                move.l     -[A7], [A4 + 0x124]
000066C4  3F3C 0010                move.w     -[A7], 0x10
000066C8  A9E7                     syscall    Pack0/ListManager
label000066CA:
000066CA  302E 000E                move.w     D0, [A6 + 0xE]
000066CE  5540                     subq.w     D0, 2
000066D0  6716                     beq        +0x18 /* 000066E8 */
000066D2  5340                     subq.w     D0, 1
000066D4  6700 0242                beq        +0x244 /* 00006918 */
000066D8  0440 007D                subi.w     D0, 0x7D /* '}' */
000066DC  6752                     beq        +0x54 /* 00006730 */
000066DE  5540                     subq.w     D0, 2
000066E0  6700 046A                beq        +0x46C /* 00006B4C */
000066E4  6000 046E                bra        +0x470 /* 00006B54 */
label000066E8:
000066E8  3007                     move.w     D0, D7
000066EA  5940                     subq.w     D0, 4
000066EC  670C                     beq        +0xE /* 000066FA */
000066EE  5340                     subq.w     D0, 1
000066F0  6722                     beq        +0x24 /* 00006714 */
000066F2  5140                     subq.w     D0, 8
000066F4  672E                     beq        +0x30 /* 00006724 */
000066F6  6000 045C                bra        +0x45E /* 00006B54 */
label000066FA:
000066FA  4267                     clr.w      -[A7]
000066FC  2F0B                     move.l     -[A7], A3
000066FE  4EBA F890                jsr        [PC - 0x770 /* 00005F90 */]
00006702  101F                     move.b     D0, [A7]+
00006704  6700 044E                beq        +0x450 /* 00006B54 */
00006708  3F3C FFFF                move.w     -[A7], 0xFFFF
0000670C  4EAD 0182                jsr        [A5 + 0x182 /* export_44, CODE:1 @ 00003B34 */]
00006710  6000 0520                bra        +0x522 /* 00006C32 */
label00006714:
00006714  2F3C 0005 0002           move.l     -[A7], 0x50002
0000671A  2F0B                     move.l     -[A7], A3
0000671C  4EAD 025A                jsr        [A5 + 0x25A /* export_71, CODE:1 @ 00005AE0 */]
00006720  6000 0432                bra        +0x434 /* 00006B54 */
label00006724:
00006724  2F2C 0124                move.l     -[A7], [A4 + 0x124]
00006728  4EAD 0DFA                jsr        [A5 + 0xDFA /* export_443, CODE:17 @ 000003C2 */]
0000672C  6000 0426                bra        +0x428 /* 00006B54 */
label00006730:
00006730  3007                     move.w     D0, D7
00006732  5340                     subq.w     D0, 1
00006734  674C                     beq        +0x4E /* 00006782 */
00006736  5340                     subq.w     D0, 1
00006738  6700 00D6                beq        +0xD8 /* 00006810 */
0000673C  5340                     subq.w     D0, 1
0000673E  672A                     beq        +0x2C /* 0000676A */
00006740  5340                     subq.w     D0, 1
00006742  6710                     beq        +0x12 /* 00006754 */
00006744  5540                     subq.w     D0, 2
00006746  6700 00DC                beq        +0xDE /* 00006824 */
0000674A  5540                     subq.w     D0, 2
0000674C  6700 00E4                beq        +0xE6 /* 00006832 */
00006750  6000 0402                bra        +0x404 /* 00006B54 */
label00006754:
00006754  422D F943                clr.b      [A5 - 0x6BD]
00006758  3B7C 0100 F944           move.w     [A5 - 0x6BC], 0x100
0000675E  2F0B                     move.l     -[A7], A3
00006760  2F0E                     move.l     -[A7], A6
00006762  4EBA FD44                jsr        [PC - 0x2BC /* 000064A8 */]
00006766  6000 03EC                bra        +0x3EE /* 00006B54 */
label0000676A:
0000676A  1B7C 0001 F943           move.b     [A5 - 0x6BD], 0x1
00006770  1B7C 0001 F944           move.b     [A5 - 0x6BC], 0x1
00006776  2F0B                     move.l     -[A7], A3
00006778  2F0E                     move.l     -[A7], A6
0000677A  4EBA FD2C                jsr        [PC - 0x2D4 /* 000064A8 */]
0000677E  6000 03D4                bra        +0x3D6 /* 00006B54 */
label00006782:
00006782  7001                     moveq.l    D0, 0x01
00006784  B047                     cmp.w      D0, D7
00006786  6600 03CC                bne        +0x3CE /* 00006B54 */
0000678A  2F2C 0124                move.l     -[A7], [A4 + 0x124]
0000678E  4EBA A476                jsr        [PC - 0x5B8A /* 00000C06 */]
00006792  42A7                     clr.l      -[A7]
00006794  3F2C 0110                move.w     -[A7], [A4 + 0x110]
00006798  2F2C 011C                move.l     -[A7], [A4 + 0x11C]
0000679C  2F2C 0118                move.l     -[A7], [A4 + 0x118]
000067A0  4EAD 089A                jsr        [A5 + 0x89A /* export_271, CODE:4 @ 00000144 */]
000067A4  2D5F FFF8                move.l     [A6 - 0x8], [A7]+
000067A8  6700 03AA                beq        +0x3AC /* 00006B54 */
000067AC  2F2E FFF8                move.l     -[A7], [A6 - 0x8]
000067B0  486E FFF6                pea.l      [A6 - 0xA]
000067B4  486E FDD6                pea.l      [A6 - 0x22A]
000067B8  486E FEEC                pea.l      [A6 - 0x114]
000067BC  A9A8                     syscall    GetResInfo
000067BE  42A7                     clr.l      -[A7]
000067C0  7004                     moveq.l    D0, 0x04
000067C2  2F00                     move.l     -[A7], D0
000067C4  4EAD 04FA                jsr        [A5 + 0x4FA /* export_155, CODE:3 @ 000024FC */]
000067C8  2A1F                     move.l     D5, [A7]+
000067CA  2045                     movea.l    A0, D5
000067CC  2050                     movea.l    A0, [A0]
000067CE  30BC 0001                move.w     [A0], 0x1
000067D2  2045                     movea.l    A0, D5
000067D4  2050                     movea.l    A0, [A0]
000067D6  316E FFF6 0002           move.w     [A0 + 0x2], [A6 - 0xA]
000067DC  1D7C 0001 FDDF           move.b     [A6 - 0x221], 0x1
000067E2  102D F7C3                move.b     D0, [A5 - 0x83D]
000067E6  6604                     bne        +0x6 /* 000067EC */
000067E8  422D F943                clr.b      [A5 - 0x6BD]
label000067EC:
000067EC  4A2C 013C                tst.b      [A4 + 0x13C]
000067F0  57C0                     seq        D0
000067F2  4400                     neg.b      D0
000067F4  1F00                     move.b     -[A7], D0
000067F6  2F2E FFF8                move.l     -[A7], [A6 - 0x8]
000067FA  2F0B                     move.l     -[A7], A3
000067FC  2F2C 0118                move.l     -[A7], [A4 + 0x118]
00006800  1F3C 0001                move.b     -[A7], 0x1
00006804  4267                     clr.w      -[A7]
00006806  4EBA A0D6                jsr        [PC - 0x5F2A /* 000008DE */]
0000680A  7C01                     moveq.l    D6, 0x01
0000680C  6000 0346                bra        +0x348 /* 00006B54 */
label00006810:
00006810  422D F943                clr.b      [A5 - 0x6BD]
00006814  426D F944                clr.w      [A5 - 0x6BC]
00006818  2F0B                     move.l     -[A7], A3
0000681A  2F0E                     move.l     -[A7], A6
0000681C  4EBA FC8A                jsr        [PC - 0x376 /* 000064A8 */]
00006820  6000 0332                bra        +0x334 /* 00006B54 */
label00006824:
00006824  4267                     clr.w      -[A7]
00006826  2F0B                     move.l     -[A7], A3
00006828  4EBA AAF2                jsr        [PC - 0x550E /* 0000131C */]
0000682C  1C1F                     move.b     D6, [A7]+
0000682E  6000 0324                bra        +0x326 /* 00006B54 */
label00006832:
00006832  4267                     clr.w      -[A7]
00006834  2F2C 0124                move.l     -[A7], [A4 + 0x124]
00006838  4EAD 034A                jsr        [A5 + 0x34A /* export_101, CODE:2 @ 0000064A */]
0000683C  101F                     move.b     D0, [A7]+
0000683E  6700 0314                beq        +0x316 /* 00006B54 */
00006842  7000                     moveq.l    D0, 0x00
00006844  2D40 FFF0                move.l     [A6 - 0x10], D0
00006848  7800                     moveq.l    D4, 0x00
label0000684A:
0000684A  4267                     clr.w      -[A7]
0000684C  1F3C 0001                move.b     -[A7], 0x1
00006850  486E FFF0                pea.l      [A6 - 0x10]
00006854  2F2C 0124                move.l     -[A7], [A4 + 0x124]
00006858  3F3C 003C                move.w     -[A7], 0x3C /* '<' */
0000685C  A9E7                     syscall    Pack0/ListManager
0000685E  101F                     move.b     D0, [A7]+
00006860  6700 008C                beq        +0x8E /* 000068EE */
00006864  42A7                     clr.l      -[A7]
00006866  42A7                     clr.l      -[A7]
00006868  2F2E FFF0                move.l     -[A7], [A6 - 0x10]
0000686C  2F0B                     move.l     -[A7], A3
0000686E  4EBA FAF6                jsr        [PC - 0x50A /* 00006366 */]
00006872  2D5F FFF8                move.l     [A6 - 0x8], [A7]+
00006876  6602                     bne        +0x4 /* 0000687A */
00006878  6074                     bra        +0x76 /* 000068EE */
label0000687A:
0000687A  2F2E FFF8                move.l     -[A7], [A6 - 0x8]
0000687E  2F0B                     move.l     -[A7], A3
00006880  4EAD 0CCA                jsr        [A5 + 0xCCA /* export_405, CODE:13 @ 0000020C */]
00006884  4EAD 0132                jsr        [A5 + 0x132 /* export_34, CODE:1 @ 00003342 */]
00006888  4EBA 03B4                jsr        [PC + 0x3B4 /* 00006C3E */]
0000688C  4267                     clr.w      -[A7]
0000688E  4EAD 013A                jsr        [A5 + 0x13A /* export_35, CODE:1 @ 0000340A */]
00006892  102D F956                move.b     D0, [A5 - 0x6AA]
00006896  6656                     bne        +0x58 /* 000068EE */
00006898  2F00                     move.l     -[A7], D0
0000689A  4267                     clr.w      -[A7]
0000689C  1F3C 0001                move.b     -[A7], 0x1
000068A0  1F3C 0001                move.b     -[A7], 0x1
000068A4  486E FFF0                pea.l      [A6 - 0x10]
000068A8  2F2C 0124                move.l     -[A7], [A4 + 0x124]
000068AC  3F3C 0048                move.w     -[A7], 0x48 /* 'H' */
000068B0  A9E7                     syscall    Pack0/ListManager
000068B2  121F                     move.b     D1, [A7]+
000068B4  201F                     move.l     D0, [A7]+
000068B6  0A01 0001                xori.b     D1, 0x1
000068BA  8001                     or.b       D0, D1
000068BC  6702                     beq        +0x4 /* 000068C0 */
000068BE  602E                     bra        +0x30 /* 000068EE */
label000068C0:
000068C0  4A84                     tst.l      D4
000068C2  56C0                     sne        D0
000068C4  4A00                     tst.b      D0
000068C6  671A                     beq        +0x1C /* 000068E2 */
000068C8  2F00                     move.l     -[A7], D0
000068CA  42A7                     clr.l      -[A7]
000068CC  4EAD 00B2                jsr        [A5 + 0xB2 /* export_18, CODE:1 @ 00001DB8 */]
000068D0  221F                     move.l     D1, [A7]+
000068D2  201F                     move.l     D0, [A7]+
000068D4  B284                     cmp.l      D1, D4
000068D6  56C1                     sne        D1
000068D8  C001                     and.b      D0, D1
000068DA  6706                     beq        +0x8 /* 000068E2 */
000068DC  2F04                     move.l     -[A7], D4
000068DE  4EAD 0D7A                jsr        [A5 + 0xD7A /* export_427, CODE:16 @ 0000005C */]
label000068E2:
000068E2  42A7                     clr.l      -[A7]
000068E4  4EAD 00B2                jsr        [A5 + 0xB2 /* export_18, CODE:1 @ 00001DB8 */]
000068E8  281F                     move.l     D4, [A7]+
000068EA  6000 FF5E                bra        -0xA0 /* 0000684A */
label000068EE:
000068EE  102D F956                move.b     D0, [A5 - 0x6AA]
000068F2  6700 0260                beq        +0x262 /* 00006B54 */
000068F6  2F00                     move.l     -[A7], D0
000068F8  42A7                     clr.l      -[A7]
000068FA  A924                     syscall    FrontWindow
000068FC  221F                     move.l     D1, [A7]+
000068FE  201F                     move.l     D0, [A7]+
00006900  B2AC 0104                cmp.l      D1, [A4 + 0x104]
00006904  56C1                     sne        D1
00006906  C001                     and.b      D0, D1
00006908  6700 024A                beq        +0x24C /* 00006B54 */
0000690C  2F2C 0104                move.l     -[A7], [A4 + 0x104]
00006910  4EAD 0D7A                jsr        [A5 + 0xD7A /* export_427, CODE:16 @ 0000005C */]
00006914  6000 023E                bra        +0x240 /* 00006B54 */
label00006918:
00006918  42A7                     clr.l      -[A7]
0000691A  2F0B                     move.l     -[A7], A3
0000691C  4EAD 01C2                jsr        [A5 + 0x1C2 /* export_52, CODE:1 @ 000045E2 */]
00006920  2D5F FDDA                move.l     [A6 - 0x226], [A7]+
00006924  3F3C 0004                move.w     -[A7], 0x4
00006928  4EAD 0182                jsr        [A5 + 0x182 /* export_44, CODE:1 @ 00003B34 */]
0000692C  7009                     moveq.l    D0, 0x09
0000692E  B047                     cmp.w      D0, D7
00006930  663C                     bne        +0x3E /* 0000696E */
00006932  7000                     moveq.l    D0, 0x00
00006934  2D40 FFF0                move.l     [A6 - 0x10], D0
label00006938:
00006938  1F3C 0001                move.b     -[A7], 0x1
0000693C  2F2E FFF0                move.l     -[A7], [A6 - 0x10]
00006940  2F2C 0124                move.l     -[A7], [A4 + 0x124]
00006944  3F3C 005C                move.w     -[A7], 0x5C /* '\\' */
00006948  A9E7                     syscall    Pack0/ListManager
0000694A  4267                     clr.w      -[A7]
0000694C  1F3C 0001                move.b     -[A7], 0x1
00006950  1F3C 0001                move.b     -[A7], 0x1
00006954  486E FFF0                pea.l      [A6 - 0x10]
00006958  2F2C 0124                move.l     -[A7], [A4 + 0x124]
0000695C  3F3C 0048                move.w     -[A7], 0x48 /* 'H' */
00006960  A9E7                     syscall    Pack0/ListManager
00006962  101F                     move.b     D0, [A7]+
00006964  0A00 0001                xori.b     D0, 0x1
00006968  67CE                     beq        -0x30 /* 00006938 */
0000696A  6000 01E8                bra        +0x1EA /* 00006B54 */
label0000696E:
0000696E  700A                     moveq.l    D0, 0x0A
00006970  B047                     cmp.w      D0, D7
00006972  660A                     bne        +0xC /* 0000697E */
00006974  2F0B                     move.l     -[A7], A3
00006976  4EBA F69C                jsr        [PC - 0x964 /* 00006014 */]
0000697A  6000 01D8                bra        +0x1DA /* 00006B54 */
label0000697E:
0000697E  7005                     moveq.l    D0, 0x05
00006980  B047                     cmp.w      D0, D7
00006982  661E                     bne        +0x20 /* 000069A2 */
00006984  42A7                     clr.l      -[A7]
00006986  4267                     clr.w      -[A7]
00006988  2F2C 0118                move.l     -[A7], [A4 + 0x118]
0000698C  3F2C 0110                move.w     -[A7], [A4 + 0x110]
00006990  4EBA B32C                jsr        [PC - 0x4CD4 /* 00001CBE */]
00006994  2A1F                     move.l     D5, [A7]+
00006996  1D7C 0001 FDDF           move.b     [A6 - 0x221], 0x1
0000699C  7C01                     moveq.l    D6, 0x01
0000699E  6000 01B4                bra        +0x1B6 /* 00006B54 */
label000069A2:
000069A2  7003                     moveq.l    D0, 0x03
000069A4  B047                     cmp.w      D0, D7
000069A6  57C0                     seq        D0
000069A8  4A00                     tst.b      D0
000069AA  6614                     bne        +0x16 /* 000069C0 */
000069AC  7204                     moveq.l    D1, 0x04
000069AE  B247                     cmp.w      D1, D7
000069B0  57C1                     seq        D1
000069B2  8001                     or.b       D0, D1
000069B4  660A                     bne        +0xC /* 000069C0 */
000069B6  7208                     moveq.l    D1, 0x08
000069B8  B247                     cmp.w      D1, D7
000069BA  57C1                     seq        D1
000069BC  8001                     or.b       D0, D1
000069BE  670C                     beq        +0xE /* 000069CC */
label000069C0:
000069C0  2F0B                     move.l     -[A7], A3
000069C2  3F3C 0023                move.w     -[A7], 0x23 /* '#' */
000069C6  2F0E                     move.l     -[A7], A6
000069C8  4EBA FA24                jsr        [PC - 0x5DC /* 000063EE */]
label000069CC:
000069CC  102D F956                move.b     D0, [A5 - 0x6AA]
000069D0  6634                     bne        +0x36 /* 00006A06 */
000069D2  7003                     moveq.l    D0, 0x03
000069D4  B047                     cmp.w      D0, D7
000069D6  57C0                     seq        D0
000069D8  4A00                     tst.b      D0
000069DA  660A                     bne        +0xC /* 000069E6 */
000069DC  7206                     moveq.l    D1, 0x06
000069DE  B247                     cmp.w      D1, D7
000069E0  57C1                     seq        D1
000069E2  8001                     or.b       D0, D1
000069E4  6708                     beq        +0xA /* 000069EE */
label000069E6:
000069E6  2F0B                     move.l     -[A7], A3
000069E8  2F0E                     move.l     -[A7], A6
000069EA  4EBA FBDE                jsr        [PC - 0x422 /* 000065CA */]
label000069EE:
000069EE  7003                     moveq.l    D0, 0x03
000069F0  B047                     cmp.w      D0, D7
000069F2  57C0                     seq        D0
000069F4  4A00                     tst.b      D0
000069F6  660A                     bne        +0xC /* 00006A02 */
000069F8  7204                     moveq.l    D1, 0x04
000069FA  B247                     cmp.w      D1, D7
000069FC  57C1                     seq        D1
000069FE  8001                     or.b       D0, D1
00006A00  6704                     beq        +0x6 /* 00006A06 */
label00006A02:
00006A02  4EBA B0C2                jsr        [PC - 0x4F3E /* 00001AC6 */]
label00006A06:
00006A06  102D F956                move.b     D0, [A5 - 0x6AA]
00006A0A  6600 0148                bne        +0x14A /* 00006B54 */
00006A0E  7000                     moveq.l    D0, 0x00
00006A10  2D40 FFF0                move.l     [A6 - 0x10], D0
00006A14  7008                     moveq.l    D0, 0x08
00006A16  B047                     cmp.w      D0, D7
00006A18  660C                     bne        +0xE /* 00006A26 */
00006A1A  4267                     clr.w      -[A7]
00006A1C  2F2C 0124                move.l     -[A7], [A4 + 0x124]
00006A20  3F3C 002C                move.w     -[A7], 0x2C /* ',' */
00006A24  A9E7                     syscall    Pack0/ListManager
label00006A26:
00006A26  4267                     clr.w      -[A7]
00006A28  1F3C 0001                move.b     -[A7], 0x1
00006A2C  486E FFF0                pea.l      [A6 - 0x10]
00006A30  2F2C 0124                move.l     -[A7], [A4 + 0x124]
00006A34  3F3C 003C                move.w     -[A7], 0x3C /* '<' */
00006A38  A9E7                     syscall    Pack0/ListManager
00006A3A  101F                     move.b     D0, [A7]+
00006A3C  6700 00E4                beq        +0xE6 /* 00006B22 */
00006A40  7003                     moveq.l    D0, 0x03
00006A42  B047                     cmp.w      D0, D7
00006A44  57C0                     seq        D0
00006A46  4A00                     tst.b      D0
00006A48  660A                     bne        +0xC /* 00006A54 */
00006A4A  7206                     moveq.l    D1, 0x06
00006A4C  B247                     cmp.w      D1, D7
00006A4E  57C1                     seq        D1
00006A50  8001                     or.b       D0, D1
00006A52  6718                     beq        +0x1A /* 00006A6C */
label00006A54:
00006A54  42A7                     clr.l      -[A7]
00006A56  2F3C 000A 0000           move.l     -[A7], 0xA0000 /* '\n\0\0' */
00006A5C  2F2E FFF0                move.l     -[A7], [A6 - 0x10]
00006A60  2F0B                     move.l     -[A7], A3
00006A62  4EBA F902                jsr        [PC - 0x6FE /* 00006366 */]
00006A66  2D5F FFF8                move.l     [A6 - 0x8], [A7]+
00006A6A  6012                     bra        +0x14 /* 00006A7E */
label00006A6C:
00006A6C  42A7                     clr.l      -[A7]
00006A6E  42A7                     clr.l      -[A7]
00006A70  2F2E FFF0                move.l     -[A7], [A6 - 0x10]
00006A74  2F0B                     move.l     -[A7], A3
00006A76  4EBA F8EE                jsr        [PC - 0x712 /* 00006366 */]
00006A7A  2D5F FFF8                move.l     [A6 - 0x8], [A7]+
label00006A7E:
00006A7E  4AAE FFF8                tst.l      [A6 - 0x8]
00006A82  6604                     bne        +0x6 /* 00006A88 */
00006A84  6000 009C                bra        +0x9E /* 00006B22 */
label00006A88:
00006A88  7003                     moveq.l    D0, 0x03
00006A8A  B047                     cmp.w      D0, D7
00006A8C  57C0                     seq        D0
00006A8E  4A00                     tst.b      D0
00006A90  660A                     bne        +0xC /* 00006A9C */
00006A92  7204                     moveq.l    D1, 0x04
00006A94  B247                     cmp.w      D1, D7
00006A96  57C1                     seq        D1
00006A98  8001                     or.b       D0, D1
00006A9A  670C                     beq        +0xE /* 00006AA8 */
label00006A9C:
00006A9C  2F2C 0118                move.l     -[A7], [A4 + 0x118]
00006AA0  486E FFF8                pea.l      [A6 - 0x8]
00006AA4  4EBA B0C8                jsr        [PC - 0x4F38 /* 00001B6E */]
label00006AA8:
00006AA8  7008                     moveq.l    D0, 0x08
00006AAA  B047                     cmp.w      D0, D7
00006AAC  6618                     bne        +0x1A /* 00006AC6 */
00006AAE  42A7                     clr.l      -[A7]
00006AB0  2F2E FFF8                move.l     -[A7], [A6 - 0x8]
00006AB4  2F2E FFF0                move.l     -[A7], [A6 - 0x10]
00006AB8  2F0B                     move.l     -[A7], A3
00006ABA  4EBA AA00                jsr        [PC - 0x5600 /* 000014BC */]
00006ABE  2D5F FFFC                move.l     [A6 - 0x4], [A7]+
00006AC2  7C01                     moveq.l    D6, 0x01
00006AC4  602E                     bra        +0x30 /* 00006AF4 */
label00006AC6:
00006AC6  7003                     moveq.l    D0, 0x03
00006AC8  B047                     cmp.w      D0, D7
00006ACA  57C0                     seq        D0
00006ACC  4A00                     tst.b      D0
00006ACE  660A                     bne        +0xC /* 00006ADA */
00006AD0  7206                     moveq.l    D1, 0x06
00006AD2  B247                     cmp.w      D1, D7
00006AD4  57C1                     seq        D1
00006AD6  8001                     or.b       D0, D1
00006AD8  671A                     beq        +0x1C /* 00006AF4 */
label00006ADA:
00006ADA  122D F956                move.b     D1, [A5 - 0x6AA]
00006ADE  0A01 0001                xori.b     D1, 0x1
00006AE2  C001                     and.b      D0, D1
00006AE4  670E                     beq        +0x10 /* 00006AF4 */
00006AE6  7C01                     moveq.l    D6, 0x01
00006AE8  3F2C 0110                move.w     -[A7], [A4 + 0x110]
00006AEC  2F2E FFF8                move.l     -[A7], [A6 - 0x8]
00006AF0  4EAD 088A                jsr        [A5 + 0x88A /* export_269, CODE:4 @ 00000054 */]
label00006AF4:
00006AF4  102D F956                move.b     D0, [A5 - 0x6AA]
00006AF8  6628                     bne        +0x2A /* 00006B22 */
00006AFA  2F00                     move.l     -[A7], D0
00006AFC  4267                     clr.w      -[A7]
00006AFE  1F3C 0001                move.b     -[A7], 0x1
00006B02  1F3C 0001                move.b     -[A7], 0x1
00006B06  486E FFF0                pea.l      [A6 - 0x10]
00006B0A  2F2C 0124                move.l     -[A7], [A4 + 0x124]
00006B0E  3F3C 0048                move.w     -[A7], 0x48 /* 'H' */
00006B12  A9E7                     syscall    Pack0/ListManager
00006B14  121F                     move.b     D1, [A7]+
00006B16  201F                     move.l     D0, [A7]+
00006B18  0A01 0001                xori.b     D1, 0x1
00006B1C  8001                     or.b       D0, D1
00006B1E  6700 FF06                beq        -0xF8 /* 00006A26 */
label00006B22:
00006B22  7008                     moveq.l    D0, 0x08
00006B24  B047                     cmp.w      D0, D7
00006B26  662C                     bne        +0x2E /* 00006B54 */
00006B28  1F3C 0001                move.b     -[A7], 0x1
00006B2C  2F2C 0124                move.l     -[A7], [A4 + 0x124]
00006B30  3F3C 002C                move.w     -[A7], 0x2C /* ',' */
00006B34  A9E7                     syscall    Pack0/ListManager
00006B36  2F2C 0124                move.l     -[A7], [A4 + 0x124]
00006B3A  3F3C 0010                move.w     -[A7], 0x10
00006B3E  A9E7                     syscall    Pack0/ListManager
00006B40  206C 0104                movea.l    A0, [A4 + 0x104]
00006B44  4868 0010                pea.l      [A0 + 0x10]
00006B48  A928                     syscall    InvalRect
00006B4A  6008                     bra        +0xA /* 00006B54 */
label00006B4C:
00006B4C  3F07                     move.w     -[A7], D7
00006B4E  2F0B                     move.l     -[A7], A3
00006B50  4EBA F1B6                jsr        [PC - 0xE4A /* 00005D08 */]
label00006B54:
00006B54  1006                     move.b     D0, D6
00006B56  6700 00B0                beq        +0xB2 /* 00006C08 */
00006B5A  7004                     moveq.l    D0, 0x04
00006B5C  B02C 012A                cmp.b      D0, [A4 + 0x12A]
00006B60  56C0                     sne        D0
00006B62  4A00                     tst.b      D0
00006B64  6612                     bne        +0x14 /* 00006B78 */
00006B66  223C 464F 4E54           move.l     D1, 0x464F4E54 /* 'FONT' */
00006B6C  B2AC 0118                cmp.l      D1, [A4 + 0x118]
00006B70  56C1                     sne        D1
00006B72  8001                     or.b       D0, D1
00006B74  6700 0092                beq        +0x94 /* 00006C08 */
label00006B78:
00006B78  3F3C 0004                move.w     -[A7], 0x4
00006B7C  4EAD 0182                jsr        [A5 + 0x182 /* export_44, CODE:1 @ 00003B34 */]
00006B80  2F2C 0104                move.l     -[A7], [A4 + 0x104]
00006B84  A873                     syscall    SetPort
00006B86  4267                     clr.w      -[A7]
00006B88  2F2C 0124                move.l     -[A7], [A4 + 0x124]
00006B8C  3F3C 002C                move.w     -[A7], 0x2C /* ',' */
00006B90  A9E7                     syscall    Pack0/ListManager
00006B92  4267                     clr.w      -[A7]
00006B94  42A7                     clr.l      -[A7]
00006B96  1F2C 012A                move.b     -[A7], [A4 + 0x12A]
00006B9A  42A7                     clr.l      -[A7]
00006B9C  2F2C 0118                move.l     -[A7], [A4 + 0x118]
00006BA0  2F2C 0124                move.l     -[A7], [A4 + 0x124]
00006BA4  4EBA CC86                jsr        [PC - 0x337A /* 0000382C */]
00006BA8  395F 0128                move.w     [A4 + 0x128], [A7]+
00006BAC  422C 0108                clr.b      [A4 + 0x108]
00006BB0  1F3C 0001                move.b     -[A7], 0x1
00006BB4  2F2C 0124                move.l     -[A7], [A4 + 0x124]
00006BB8  3F3C 002C                move.w     -[A7], 0x2C /* ',' */
00006BBC  A9E7                     syscall    Pack0/ListManager
00006BBE  206C 0104                movea.l    A0, [A4 + 0x104]
00006BC2  4868 0010                pea.l      [A0 + 0x10]
00006BC6  A8A3                     syscall    EraseRect
00006BC8  206C 0104                movea.l    A0, [A4 + 0x104]
00006BCC  4868 0010                pea.l      [A0 + 0x10]
00006BD0  A928                     syscall    InvalRect
00006BD2  42A7                     clr.l      -[A7]
00006BD4  2F0B                     move.l     -[A7], A3
00006BD6  4EAD 01C2                jsr        [A5 + 0x1C2 /* export_52, CODE:1 @ 000045E2 */]
00006BDA  2D5F FDDA                move.l     [A6 - 0x226], [A7]+
00006BDE  2F2C 010C                move.l     -[A7], [A4 + 0x10C]
00006BE2  206E FDDA                movea.l    A0, [A6 - 0x226]
00006BE6  2050                     movea.l    A0, [A0]
00006BE8  2F28 0124                move.l     -[A7], [A0 + 0x124]
00006BEC  4EAD 0362                jsr        [A5 + 0x362 /* export_104, CODE:2 @ 00001356 */]
00006BF0  102E FDDF                move.b     D0, [A6 - 0x221]
00006BF4  6712                     beq        +0x14 /* 00006C08 */
00006BF6  4A85                     tst.l      D5
00006BF8  56C1                     sne        D1
00006BFA  C001                     and.b      D0, D1
00006BFC  670A                     beq        +0xC /* 00006C08 */
00006BFE  2F05                     move.l     -[A7], D5
00006C00  2F2C 0124                move.l     -[A7], [A4 + 0x124]
00006C04  4EBA F6B8                jsr        [PC - 0x948 /* 000062BE */]
label00006C08:
00006C08  3F3C FFFF                move.w     -[A7], 0xFFFF
00006C0C  4EAD 0182                jsr        [A5 + 0x182 /* export_44, CODE:1 @ 00003B34 */]
00006C10  42A7                     clr.l      -[A7]
00006C12  4EAD 00B2                jsr        [A5 + 0xB2 /* export_18, CODE:1 @ 00001DB8 */]
00006C16  202C 0104                move.l     D0, [A4 + 0x104]
00006C1A  B09F                     cmp.l      D0, [A7]+
00006C1C  660E                     bne        +0x10 /* 00006C2C */
00006C1E  2F2C 0124                move.l     -[A7], [A4 + 0x124]
00006C22  4EBA E784                jsr        [PC - 0x187C /* 000053A8 */]
00006C26  2F0B                     move.l     -[A7], A3
00006C28  4EBA E8A2                jsr        [PC - 0x175E /* 000054CC */]
label00006C2C:
00006C2C  2F0B                     move.l     -[A7], A3
00006C2E  205F                     movea.l    A0, [A7]+
00006C30  A02A                     syscall    HUnlock
label00006C32:
00006C32  4CDF 18F0                movem.l    D4,D5,D6,D7,A3,A4, [A7]+
00006C36  4E5E                     unlink     A6
00006C38  205F                     movea.l    A0, [A7]+
00006C3A  504F                     addq.w     A7, 8
00006C3C  4ED0                     jmp        [A0]
export_335:
fn00006C3E:
00006C3E  4E56 FFDA                link       A6, -0x0026
00006C42  48E7 0F18                movem.l    -[A7], D4,D5,D6,D7,A3,A4
00006C46  42A7                     clr.l      -[A7]
00006C48  2EBC 0000 014A           move.l     [A7], 0x14A
00006C4E  2D5F FFDA                move.l     [A6 - 0x26], [A7]+
00006C52  206E FFDA                movea.l    A0, [A6 - 0x26]
00006C56  2868 0002                movea.l    A4, [A0 + 0x2]
00006C5A  200C                     move.l     D0, A4
00006C5C  6700 00FE                beq        +0x100 /* 00006D5C */
label00006C60:
00006C60  7003                     moveq.l    D0, 0x03
00006C62  B06C 0006                cmp.w      D0, [A4 + 0x6]
00006C66  57C0                     seq        D0
00006C68  4A00                     tst.b      D0
00006C6A  660E                     bne        +0x10 /* 00006C7A */
00006C6C  7205                     moveq.l    D1, 0x05
00006C6E  B26C 0006                cmp.w      D1, [A4 + 0x6]
00006C72  57C1                     seq        D1
00006C74  8001                     or.b       D0, D1
00006C76  6700 00D2                beq        +0xD4 /* 00006D4A */
label00006C7A:
00006C7A  7000                     moveq.l    D0, 0x00
00006C7C  302C 0014                move.w     D0, [A4 + 0x14]
00006C80  C0BC 0000 0100           and.l      D0, 0x100
00006C86  4A80                     tst.l      D0
00006C88  6700 00C0                beq        +0xC2 /* 00006D4A */
00006C8C  203C 0000 FF00           move.l     D0, 0xFF00
00006C92  C0AC 0008                and.l      D0, [A4 + 0x8]
00006C96  2800                     move.l     D4, D0
00006C98  E08C                     lsr        D4, 8
00006C9A  7000                     moveq.l    D0, 0x00
00006C9C  302C 0014                move.w     D0, [A4 + 0x14]
00006CA0  C0BC FFFF FE00           and.l      D0, 0xFFFFFE00
00006CA6  3E00                     move.w     D7, D0
00006CA8  7000                     moveq.l    D0, 0x00
00006CAA  3007                     move.w     D0, D7
00006CAC  80BC 0000 0080           or.l       D0, 0x80
00006CB2  3E00                     move.w     D7, D0
00006CB4  7000                     moveq.l    D0, 0x00
00006CB6  3007                     move.w     D0, D7
00006CB8  8084                     or.l       D0, D4
00006CBA  3E00                     move.w     D7, D0
00006CBC  7000                     moveq.l    D0, 0x00
00006CBE  2D40 FFF6                move.l     [A6 - 0xA], D0
00006CC2  42A7                     clr.l      -[A7]
00006CC4  42A7                     clr.l      -[A7]
00006CC6  3F3C 0016                move.w     -[A7], 0x16
00006CCA  2F3C 8402 0008           move.l     -[A7], 0x84020008
00006CD0  A8B5                     syscall    ScriptUtil
00006CD2  201F                     move.l     D0, [A7]+
00006CD4  3F00                     move.w     -[A7], D0
00006CD6  3F3C 0020                move.w     -[A7], 0x20 /* ' ' */
00006CDA  2F3C 8404 000C           move.l     -[A7], 0x8404000C
00006CE0  A8B5                     syscall    ScriptUtil
00006CE2  2A1F                     move.l     D5, [A7]+
00006CE4  42A7                     clr.l      -[A7]
00006CE6  2F3C 4B43 4852           move.l     -[A7], 0x4B434852 /* 'KCHR' */
00006CEC  3F05                     move.w     -[A7], D5
00006CEE  A9A0                     syscall    GetResource
00006CF0  265F                     movea.l    A3, [A7]+
00006CF2  200B                     move.l     D0, A3
00006CF4  6716                     beq        +0x18 /* 00006D0C */
00006CF6  42A7                     clr.l      -[A7]
00006CF8  2F13                     move.l     -[A7], [A3]
00006CFA  3F07                     move.w     -[A7], D7
00006CFC  486E FFF6                pea.l      [A6 - 0xA]
00006D00  A9C3                     syscall    KeyTranslate/KeyTrans
00006D02  2C1F                     move.l     D6, [A7]+
00006D04  2F0B                     move.l     -[A7], A3
00006D06  205F                     movea.l    A0, [A7]+
00006D08  A049                     syscall    HPurge
00006D0A  6004                     bra        +0x6 /* 00006D10 */
label00006D0C:
00006D0C  2C2C 0008                move.l     D6, [A4 + 0x8]
label00006D10:
00006D10  2006                     move.l     D0, D6
00006D12  C0BC 0000 00FF           and.l      D0, 0xFF
00006D18  2D40 FFEE                move.l     [A6 - 0x12], D0
00006D1C  2006                     move.l     D0, D6
00006D1E  C0BC 00FF 0000           and.l      D0, 0xFF0000
00006D24  7210                     moveq.l    D1, 0x10
00006D26  E2A8                     lsr        D0, D1
00006D28  2D40 FFF2                move.l     [A6 - 0xE], D0
00006D2C  702E                     moveq.l    D0, 0x2E
00006D2E  B0AE FFEE                cmp.l      D0, [A6 - 0x12]
00006D32  57C0                     seq        D0
00006D34  4A00                     tst.b      D0
00006D36  660C                     bne        +0xE /* 00006D44 */
00006D38  722E                     moveq.l    D1, 0x2E
00006D3A  B2AE FFF2                cmp.l      D1, [A6 - 0xE]
00006D3E  57C1                     seq        D1
00006D40  8001                     or.b       D0, D1
00006D42  6706                     beq        +0x8 /* 00006D4A */
label00006D44:
00006D44  1B7C 0001 F956           move.b     [A5 - 0x6AA], 0x1
label00006D4A:
00006D4A  2854                     movea.l    A4, [A4]
00006D4C  200C                     move.l     D0, A4
00006D4E  57C0                     seq        D0
00006D50  802D F956                or.b       D0, [A5 - 0x6AA]
00006D54  0240 0001                andi.w     D0, 0x1
00006D58  6700 FF06                beq        -0xF8 /* 00006C60 */
label00006D5C:
00006D5C  4CDF 18F0                movem.l    D4,D5,D6,D7,A3,A4, [A7]+
00006D60  4E5E                     unlink     A6
00006D62  4E75                     rts
