# near model CODE resource
# jump table entries: 1512-1531 (20 of them)
fn00000000:
00000000  4E56 FFFC                link       A6, -0x0004
00000004  2F0C                     move.l     -[A7], A4
00000006  42A7                     clr.l      -[A7]
00000008  2F3C 0000 0200           move.l     -[A7], 0x200
0000000E  4EAD 00FA                jsr        [A5 + 0xFA /* export_27, CODE:1 @ 00003A20 */]
00000012  285F                     movea.l    A4, [A7]+
00000014  200C                     move.l     D0, A4
00000016  6718                     beq        +0x1A /* 00000030 */
00000018  2F0C                     move.l     -[A7], A4
0000001A  486D AFBE                pea.l      [A5 - 0x5042]
0000001E  2F3C 0000 0200           move.l     -[A7], 0x200
00000024  4EAD 0112                jsr        [A5 + 0x112 /* export_30, CODE:1 @ 00003A42 */]
00000028  2F0C                     move.l     -[A7], A4
0000002A  205F                     movea.l    A0, [A7]+
0000002C  A01F                     syscall    DisposPtr/DisposePtr
0000002E  6006                     bra        +0x8 /* 00000036 */
label00000030:
00000030  3F3C 0005                move.w     -[A7], 0x5
00000034  A9C8                     syscall    SysBeep
label00000036:
00000036  285F                     movea.l    A4, [A7]+
00000038  4E5E                     unlink     A6
0000003A  4E75                     rts
0000003C  9143 4C45 4152 5041 5... dc.b       "CLEARPARTRESOURCE"
export_189:
fn00000050:
00000050  4E56 FBFA                link       A6, -0x0406
00000054  48E7 0300                movem.l    -[A7], D6,D7
00000058  486E FDFC                pea.l      [A6 - 0x204]
0000005C  7001                     moveq.l    D0, 0x01
0000005E  2F00                     move.l     -[A7], D0
00000060  4EBA 08C6                jsr        [PC + 0x8C6 /* 00000928 */]
00000064  3C2E FE02                move.w     D6, [A6 - 0x1FE]
00000068  3D46 FBFA                move.w     [A6 - 0x406], D6
0000006C  7E01                     moveq.l    D7, 0x01
0000006E  6000 008E                bra        +0x90 /* 000000FE */
label00000072:
00000072  486E FDFC                pea.l      [A6 - 0x204]
00000076  3007                     move.w     D0, D7
00000078  48C0                     ext.l      D0
0000007A  2F00                     move.l     -[A7], D0
0000007C  4EBA 08AA                jsr        [PC + 0x8AA /* 00000928 */]
00000080  486E FDFC                pea.l      [A6 - 0x204]
00000084  486D FE94                pea.l      [A5 - 0x16C]
00000088  7040                     moveq.l    D0, 0x40
0000008A  2F00                     move.l     -[A7], D0
0000008C  4EAD 0112                jsr        [A5 + 0x112 /* export_30, CODE:1 @ 00003A42 */]
00000090  487A 008E                pea.l      [PC + 0x8E /* 00000120, value 0xA417070 '\nApp', pstring "Apple_Free" */]
00000094  486D FE94                pea.l      [A5 - 0x16C]
00000098  4EAD 0752                jsr        [A5 + 0x752 /* export_230, CODE:16 @ 000000F6 */]
0000009C  4A5F                     tst.w      [A7]+
0000009E  675A                     beq        +0x5C /* 000000FA */
000000A0  486E FBFC                pea.l      [A6 - 0x404]
000000A4  3007                     move.w     D0, D7
000000A6  5240                     addq.w     D0, 1
000000A8  48C0                     ext.l      D0
000000AA  2F00                     move.l     -[A7], D0
000000AC  4EBA 087A                jsr        [PC + 0x87A /* 00000928 */]
000000B0  486E FBFC                pea.l      [A6 - 0x404]
000000B4  486D FE94                pea.l      [A5 - 0x16C]
000000B8  7040                     moveq.l    D0, 0x40
000000BA  2F00                     move.l     -[A7], D0
000000BC  4EAD 0112                jsr        [A5 + 0x112 /* export_30, CODE:1 @ 00003A42 */]
000000C0  487A 005E                pea.l      [PC + 0x5E /* 00000120, value 0xA417070 '\nApp', pstring "Apple_Free" */]
000000C4  486D FE94                pea.l      [A5 - 0x16C]
000000C8  4EAD 0752                jsr        [A5 + 0x752 /* export_230, CODE:16 @ 000000F6 */]
000000CC  4A5F                     tst.w      [A7]+
000000CE  672A                     beq        +0x2C /* 000000FA */
000000D0  202E FC08                move.l     D0, [A6 - 0x3F8]
000000D4  D1AE FE08                add.l      [A6 - 0x1F8], D0
000000D8  2D6E FE08 FE50           move.l     [A6 - 0x1B0], [A6 - 0x1F8]
000000DE  486E FDFC                pea.l      [A6 - 0x204]
000000E2  3007                     move.w     D0, D7
000000E4  48C0                     ext.l      D0
000000E6  2F00                     move.l     -[A7], D0
000000E8  4EBA 0878                jsr        [PC + 0x878 /* 00000962 */]
000000EC  3007                     move.w     D0, D7
000000EE  5240                     addq.w     D0, 1
000000F0  3F00                     move.w     -[A7], D0
000000F2  4EBA 08EE                jsr        [PC + 0x8EE /* 000009E2 */]
000000F6  5347                     subq.w     D7, 1
000000F8  5346                     subq.w     D6, 1
label000000FA:
000000FA  5247                     addq.w     D7, 1
000000FC  6908                     bvs        +0xA /* 00000106 */
label000000FE:
000000FE  BE6E FBFA                cmp.w      D7, [A6 - 0x406]
00000102  6F00 FF6E                ble        -0x90 /* 00000072 */
label00000106:
00000106  4EBA 0946                jsr        [PC + 0x946 /* 00000A4E */]
0000010A  4CDF 00C0                movem.l    D6,D7, [A7]+
0000010E  4E5E                     unlink     A6
00000110  4E75                     rts
00000112  8B43 4F4C 4C45 4354 4... dc.b       "COLLECTFREE" + 12 constant bytes
export_190:
fn0000012C:
0000012C  4E56 FBF2                link       A6, -0x040E
00000130  48E7 0708                movem.l    -[A7], D5,D6,D7,A4
00000134  42A7                     clr.l      -[A7]
00000136  2F3C 4452 5652           move.l     -[A7], 0x44525652 /* 'DRVR' */
0000013C  4267                     clr.w      -[A7]
0000013E  4EAD 05B2                jsr        [A5 + 0x5B2 /* export_178, CODE:5 @ 000034EC */]
00000142  A9A0                     syscall    GetResource
00000144  285F                     movea.l    A4, [A7]+
00000146  42A7                     clr.l      -[A7]
00000148  2F0C                     move.l     -[A7], A4
0000014A  A9A5                     syscall    GetResourceSizeOnDisk/SizeResource/SizeRsrc
0000014C  2C17                     move.l     D6, [A7]
0000014E  2F2D A4EA                move.l     -[A7], [A5 - 0x5B16]
00000152  4EAD 0252                jsr        [A5 + 0x252 /* export_70, CODE:1 @ 0000417E */]
00000156  2A1F                     move.l     D5, [A7]+
00000158  5285                     addq.l     D5, 1
0000015A  3D7C 4552 FBF2           move.w     [A6 - 0x40E], 0x4552 /* 'ER' */
00000160  3D6D A4EC FBF4           move.w     [A6 - 0x40C], [A5 - 0x5B14]
00000166  2D6D A4EE FBF6           move.l     [A6 - 0x40A], [A5 - 0x5B12]
0000016C  42AE FBFA                clr.l      [A6 - 0x406]
00000170  7000                     moveq.l    D0, 0x00
00000172  2D40 FBFE                move.l     [A6 - 0x402], D0
00000176  3D7C 0001 FC02           move.w     [A6 - 0x3FE], 0x1
0000017C  7040                     moveq.l    D0, 0x40
0000017E  2D40 FC04                move.l     [A6 - 0x3FC], D0
00000182  3D45 FC08                move.w     [A6 - 0x3F8], D5
00000186  3D7C 0001 FC0A           move.w     [A6 - 0x3F6], 0x1
0000018C  4247                     clr.w      D7
0000018E  6012                     bra        +0x14 /* 000001A2 */
label00000190:
00000190  3007                     move.w     D0, D7
00000192  41BC 00F2 D040           .invalid   0, 0xF2D040 // invalid opcode 4 with b == 6
00000198  41EE FC0C                lea.l      A0, [A6 - 0x3F4]
0000019C  4270 0000                clr.w      [A0 + D0.w]
000001A0  5247                     addq.w     D7, 1
label000001A2:
000001A2  0C47 00F2                cmpi.w     D7, 0xF2
000001A6  6FE8                     ble        -0x16 /* 00000190 */
000001A8  486E FBF2                pea.l      [A6 - 0x40E]
000001AC  486D B1FA                pea.l      [A5 - 0x4E06]
000001B0  2F3C 0000 0200           move.l     -[A7], 0x200
000001B6  4EAD 0112                jsr        [A5 + 0x112 /* export_30, CODE:1 @ 00003A42 */]
000001BA  0CAD 0000 0400 A4EA      cmpi.l     [A5 - 0x5B16], 0x400
000001C2  661C                     bne        +0x1E /* 000001E0 */
000001C4  3E3C 0200                move.w     D7, 0x200
000001C8  6010                     bra        +0x12 /* 000001DA */
label000001CA:
000001CA  3007                     move.w     D0, D7
000001CC  41BC 3FFF 41ED           .invalid   0, 0x3FFF41ED // invalid opcode 4 with b == 6
000001D2  B1FA 4230                cmpa.l     A0, [PC + 0x4230 /* 00004404 */]
000001D6  0000 5247                ori.b      D0, 0x47 /* 'G' */
label000001DA:
000001DA  0C47 03FF                cmpi.w     D7, 0x3FF
000001DE  6FEA                     ble        -0x14 /* 000001CA */
label000001E0:
000001E0  42A7                     clr.l      -[A7]
000001E2  3F3C 0001                move.w     -[A7], 0x1
000001E6  486D B1FA                pea.l      [A5 - 0x4E06]
000001EA  4EAD 044A                jsr        [A5 + 0x44A /* export_133, CODE:4 @ 00000A48 */]
000001EE  2F2E FC04                move.l     -[A7], [A6 - 0x3FC]
000001F2  4EBA 00F2                jsr        [PC + 0xF2 /* 000002E6 */]
000001F6  2F3C 0E74 0002           move.l     -[A7], 0xE740002
000001FC  3F3C 0003                move.w     -[A7], 0x3
00000200  4EAD 00D2                jsr        [A5 + 0xD2 /* export_22, CODE:1 @ 00002EC2 */]
00000204  4CDF 10E0                movem.l    D5,D6,D7,A4, [A7]+
00000208  4E5E                     unlink     A6
0000020A  4E75                     rts
0000020C  8D49 4E53 5441 4C4C 4... dc.b       "INSTALLDRIVER"
export_191:
fn0000021C:
0000021C  4E56 FDFC                link       A6, -0x0204
00000220  2F0C                     move.l     -[A7], A4
00000222  42A7                     clr.l      -[A7]
00000224  7060                     moveq.l    D0, 0x60
00000226  2F00                     move.l     -[A7], D0
00000228  4EBA 0222                jsr        [PC + 0x222 /* 0000044C */]
0000022C  42A7                     clr.l      -[A7]
0000022E  2F3C 504D 2020           move.l     -[A7], 0x504D2020 /* 'PM  ' */
00000234  3F3C 0082                move.w     -[A7], 0x82
00000238  A9A0                     syscall    GetResource
0000023A  285F                     movea.l    A4, [A7]+
0000023C  2F0C                     move.l     -[A7], A4
0000023E  205F                     movea.l    A0, [A7]+
00000240  A029                     syscall    HLock
00000242  2F14                     move.l     -[A7], [A4]
00000244  486E FDFC                pea.l      [A6 - 0x204]
00000248  2F3C 0000 0200           move.l     -[A7], 0x200
0000024E  4EAD 0112                jsr        [A5 + 0x112 /* export_30, CODE:1 @ 00003A42 */]
00000252  2F0C                     move.l     -[A7], A4
00000254  205F                     movea.l    A0, [A7]+
00000256  A02A                     syscall    HUnlock
00000258  486E FDFC                pea.l      [A6 - 0x204]
0000025C  7001                     moveq.l    D0, 0x01
0000025E  2F00                     move.l     -[A7], D0
00000260  4EBA 0700                jsr        [PC + 0x700 /* 00000962 */]
00000264  42A7                     clr.l      -[A7]
00000266  2F3C 504D 2020           move.l     -[A7], 0x504D2020 /* 'PM  ' */
0000026C  3F3C 0083                move.w     -[A7], 0x83
00000270  A9A0                     syscall    GetResource
00000272  285F                     movea.l    A4, [A7]+
00000274  2F0C                     move.l     -[A7], A4
00000276  205F                     movea.l    A0, [A7]+
00000278  A029                     syscall    HLock
0000027A  2F14                     move.l     -[A7], [A4]
0000027C  486E FDFC                pea.l      [A6 - 0x204]
00000280  2F3C 0000 0200           move.l     -[A7], 0x200
00000286  4EAD 0112                jsr        [A5 + 0x112 /* export_30, CODE:1 @ 00003A42 */]
0000028A  2F0C                     move.l     -[A7], A4
0000028C  205F                     movea.l    A0, [A7]+
0000028E  A02A                     syscall    HUnlock
00000290  486E FDFC                pea.l      [A6 - 0x204]
00000294  7002                     moveq.l    D0, 0x02
00000296  2F00                     move.l     -[A7], D0
00000298  4EBA 06C8                jsr        [PC + 0x6C8 /* 00000962 */]
0000029C  486E FDFC                pea.l      [A6 - 0x204]
000002A0  3F3C 008D                move.w     -[A7], 0x8D
000002A4  4EBA 04D2                jsr        [PC + 0x4D2 /* 00000778 */]
000002A8  202D A4EE                move.l     D0, [A5 - 0x5B12]
000002AC  7260                     moveq.l    D1, 0x60
000002AE  9081                     sub.l      D0, D1
000002B0  2D40 FE08                move.l     [A6 - 0x1F8], D0
000002B4  2D6E FE08 FE50           move.l     [A6 - 0x1B0], [A6 - 0x1F8]
000002BA  7060                     moveq.l    D0, 0x60
000002BC  2D40 FE04                move.l     [A6 - 0x1FC], D0
000002C0  486E FDFC                pea.l      [A6 - 0x204]
000002C4  7003                     moveq.l    D0, 0x03
000002C6  2F00                     move.l     -[A7], D0
000002C8  4EBA 0698                jsr        [PC + 0x698 /* 00000962 */]
000002CC  4EBA FE5E                jsr        [PC - 0x1A2 /* 0000012C */]
000002D0  4EBA 077C                jsr        [PC + 0x77C /* 00000A4E */]
000002D4  285F                     movea.l    A4, [A7]+
000002D6  4E5E                     unlink     A6
000002D8  4E75                     rts
000002DA  8950 5245 5044 5249 5... dc.b       "PREPDRIVE"
fn000002E6:
000002E6  4E56 FFE4                link       A6, -0x001C
000002EA  48E7 0F18                movem.l    -[A7], D4,D5,D6,D7,A3,A4
000002EE  4EAD 0052                jsr        [A5 + 0x52 /* export_6, CODE:1 @ 000001A4 */]
000002F2  42A7                     clr.l      -[A7]
000002F4  4EAD 057A                jsr        [A5 + 0x57A /* export_171, CODE:5 @ 00002B1C */]
000002F8  2D5F FFE8                move.l     [A6 - 0x18], [A7]+
000002FC  202E FFE8                move.l     D0, [A6 - 0x18]
00000300  E388                     lsl        D0, 1
00000302  2D40 FFE8                move.l     [A6 - 0x18], D0
00000306  42A7                     clr.l      -[A7]
00000308  2F3C 4452 5652           move.l     -[A7], 0x44525652 /* 'DRVR' */
0000030E  4267                     clr.w      -[A7]
00000310  4EAD 05B2                jsr        [A5 + 0x5B2 /* export_178, CODE:5 @ 000034EC */]
00000314  A9A0                     syscall    GetResource
00000316  285F                     movea.l    A4, [A7]+
00000318  42A7                     clr.l      -[A7]
0000031A  2F0C                     move.l     -[A7], A4
0000031C  4EAD 010A                jsr        [A5 + 0x10A /* export_29, CODE:1 @ 00003A34 */]
00000320  2C1F                     move.l     D6, [A7]+
00000322  2F0C                     move.l     -[A7], A4
00000324  205F                     movea.l    A0, [A7]+
00000326  A029                     syscall    HLock
00000328  2F14                     move.l     -[A7], [A4]
0000032A  486D B1FA                pea.l      [A5 - 0x4E06]
0000032E  2F06                     move.l     -[A7], D6
00000330  4EAD 0112                jsr        [A5 + 0x112 /* export_30, CODE:1 @ 00003A42 */]
00000334  2F0C                     move.l     -[A7], A4
00000336  205F                     movea.l    A0, [A7]+
00000338  A02A                     syscall    HUnlock
0000033A  4247                     clr.w      D7
0000033C  4205                     clr.b      D5
label0000033E:
0000033E  5247                     addq.w     D7, 1
00000340  3007                     move.w     D0, D7
00000342  41BC 3FFF 4241           .invalid   0, 0x3FFF4241 // invalid opcode 4 with b == 6
00000348  41ED B1FA                lea.l      A0, [A5 - 0x4E06]
0000034C  1230 0000                move.b     D1, [A0 + D0.w]
00000350  0C41 00C7                cmpi.w     D1, 0xC7
00000354  6668                     bne        +0x6A /* 000003BE */
00000356  5247                     addq.w     D7, 1
00000358  3007                     move.w     D0, D7
0000035A  41BC 3FFF 4241           .invalid   0, 0x3FFF4241 // invalid opcode 4 with b == 6
00000360  41ED B1FA                lea.l      A0, [A5 - 0x4E06]
00000364  1230 0000                move.b     D1, [A0 + D0.w]
00000368  0C41 00C7                cmpi.w     D1, 0xC7
0000036C  6650                     bne        +0x52 /* 000003BE */
0000036E  5247                     addq.w     D7, 1
00000370  3007                     move.w     D0, D7
00000372  41BC 3FFF 4241           .invalid   0, 0x3FFF4241 // invalid opcode 4 with b == 6
00000378  41ED B1FA                lea.l      A0, [A5 - 0x4E06]
0000037C  1230 0000                move.b     D1, [A0 + D0.w]
00000380  0C41 00C7                cmpi.w     D1, 0xC7
00000384  6638                     bne        +0x3A /* 000003BE */
00000386  5247                     addq.w     D7, 1
00000388  3007                     move.w     D0, D7
0000038A  41BC 3FFF 4241           .invalid   0, 0x3FFF4241 // invalid opcode 4 with b == 6
00000390  41ED B1FA                lea.l      A0, [A5 - 0x4E06]
00000394  1230 0000                move.b     D1, [A0 + D0.w]
00000398  0C41 00C7                cmpi.w     D1, 0xC7
0000039C  6620                     bne        +0x22 /* 000003BE */
0000039E  5247                     addq.w     D7, 1
000003A0  486E FFE8                pea.l      [A6 - 0x18]
000003A4  3007                     move.w     D0, D7
000003A6  41BC 3FFF 41ED           .invalid   0, 0x3FFF41ED // invalid opcode 4 with b == 6
000003AC  B1FA 4870                cmpa.l     A0, [PC + 0x4870 /* 00004C1E */]
000003B0  0000 7004                ori.b      D0, 0x4
000003B4  2F00                     move.l     -[A7], D0
000003B6  4EAD 0112                jsr        [A5 + 0x112 /* export_30, CODE:1 @ 00003A42 */]
000003BA  5047                     addq.w     D7, 8
000003BC  7A01                     moveq.l    D5, 0x01
label000003BE:
000003BE  3007                     move.w     D0, D7
000003C0  48C0                     ext.l      D0
000003C2  BC80                     cmp.l      D6, D0
000003C4  5DC0                     slt        D0
000003C6  8005                     or.b       D0, D5
000003C8  0240 0001                andi.w     D0, 0x1
000003CC  6700 FF70                beq        -0x8E /* 0000033E */
000003D0  1005                     move.b     D0, D5
000003D2  675A                     beq        +0x5C /* 0000042E */
000003D4  4A6D ABE4                tst.w      [A5 - 0x541C]
000003D8  6736                     beq        +0x38 /* 00000410 */
000003DA  42A7                     clr.l      -[A7]
000003DC  2F3C 4943 4E23           move.l     -[A7], 0x49434E23 /* 'ICN#' */
000003E2  3F2D ABE4                move.w     -[A7], [A5 - 0x541C]
000003E6  A9A0                     syscall    GetResource
000003E8  265F                     movea.l    A3, [A7]+
000003EA  2F0B                     move.l     -[A7], A3
000003EC  205F                     movea.l    A0, [A7]+
000003EE  A029                     syscall    HLock
000003F0  2F13                     move.l     -[A7], [A3]
000003F2  3007                     move.w     D0, D7
000003F4  41BC 3FFF 41ED           .invalid   0, 0x3FFF41ED // invalid opcode 4 with b == 6
000003FA  B1FA 4870                cmpa.l     A0, [PC + 0x4870 /* 00004C6C */]
000003FE  0000 2F3C                ori.b      D0, 0x3C /* '<' */
00000402  0000 0100                ori.b      D0, 0x0
00000406  4EAD 0112                jsr        [A5 + 0x112 /* export_30, CODE:1 @ 00003A42 */]
0000040A  2F0B                     move.l     -[A7], A3
0000040C  205F                     movea.l    A0, [A7]+
0000040E  A02A                     syscall    HUnlock
label00000410:
00000410  2F06                     move.l     -[A7], D6
00000412  2F2D A4EA                move.l     -[A7], [A5 - 0x5B16]
00000416  4EAD 0252                jsr        [A5 + 0x252 /* export_70, CODE:1 @ 0000417E */]
0000041A  281F                     move.l     D4, [A7]+
0000041C  5284                     addq.l     D4, 1
0000041E  2F2E 0008                move.l     -[A7], [A6 + 0x8]
00000422  3F04                     move.w     -[A7], D4
00000424  486D B1FA                pea.l      [A5 - 0x4E06]
00000428  4EAD 044A                jsr        [A5 + 0x44A /* export_133, CODE:4 @ 00000A48 */]
0000042C  6006                     bra        +0x8 /* 00000434 */
label0000042E:
0000042E  1B7C 0001 FFF3           move.b     [A5 - 0xD], 0x1
label00000434:
00000434  4CDF 18F0                movem.l    D4,D5,D6,D7,A3,A4, [A7]+
00000438  4E5E                     unlink     A6
0000043A  2E9F                     move.l     [A7], [A7]+
0000043C  4E75                     rts
0000043E  8B57 5249 5445 4452 4... dc.b       "WRITEDRIVER"
export_192:
fn0000044C:
0000044C  4E56 0000                link       A6, 0
00000450  4EAD 005A                jsr        [A5 + 0x5A /* export_7, CODE:1 @ 000001DE */]
label00000454:
00000454  0CAE 0000 0100 0008      cmpi.l     [A6 + 0x8], 0x100
0000045C  6F22                     ble        +0x24 /* 00000480 */
0000045E  2F2E 000C                move.l     -[A7], [A6 + 0xC]
00000462  3F3C 0100                move.w     -[A7], 0x100
00000466  2F2D B1C2                move.l     -[A7], [A5 - 0x4E3E]
0000046A  4EAD 044A                jsr        [A5 + 0x44A /* export_133, CODE:4 @ 00000A48 */]
0000046E  06AE 0000 0100 000C      addi.l     [A6 + 0xC], 0x100
00000476  04AE 0000 0100 0008      subi.l     [A6 + 0x8], 0x100
0000047E  60D4                     bra        -0x2A /* 00000454 */
label00000480:
00000480  2F2E 000C                move.l     -[A7], [A6 + 0xC]
00000484  3F2E 000A                move.w     -[A7], [A6 + 0xA]
00000488  2F2D B1C2                move.l     -[A7], [A5 - 0x4E3E]
0000048C  4EAD 044A                jsr        [A5 + 0x44A /* export_133, CODE:4 @ 00000A48 */]
00000490  4E5E                     unlink     A6
00000492  205F                     movea.l    A0, [A7]+
00000494  504F                     addq.w     A7, 8
00000496  4ED0                     jmp        [A0]
00000498  885A 4552 4F50 4152 5... dc.b       "ZEROPART"
export_193:
fn000004A4:
000004A4  4E56 FFE6                link       A6, -0x001A
000004A8  48E7 0F18                movem.l    -[A7], D4,D5,D6,D7,A3,A4
000004AC  7001                     moveq.l    D0, 0x01
000004AE  2F00                     move.l     -[A7], D0
000004B0  3F3C 0010                move.w     -[A7], 0x10
000004B4  4EAD 0442                jsr        [A5 + 0x442 /* export_132, CODE:4 @ 000008D2 */]
000004B8  0CAD 0000 0200 A4EA      cmpi.l     [A5 - 0x5B16], 0x200
000004C0  6600 0134                bne        +0x136 /* 000005F6 */
000004C4  49ED B1FA                lea.l      A4, [A5 - 0x4E06]
000004C8  2A2D B1C2                move.l     D5, [A5 - 0x4E3E]
000004CC  2F0C                     move.l     -[A7], A4
000004CE  2F05                     move.l     -[A7], D5
000004D0  202D A4EA                move.l     D0, [A5 - 0x5B16]
000004D4  E980                     asl        D0, 4
000004D6  2F00                     move.l     -[A7], D0
000004D8  4EAD 0112                jsr        [A5 + 0x112 /* export_30, CODE:1 @ 00003A42 */]
000004DC  3D6C 0006 FFFE           move.w     [A6 - 0x2], [A4 + 0x6]
label000004E2:
000004E2  7C01                     moveq.l    D6, 0x01
000004E4  302E FFFE                move.w     D0, [A6 - 0x2]
000004E8  5340                     subq.w     D0, 1
000004EA  3D40 FFE8                move.w     [A6 - 0x18], D0
000004EE  7E01                     moveq.l    D7, 0x01
000004F0  6000 00E4                bra        +0xE6 /* 000005D6 */
label000004F4:
000004F4  3007                     move.w     D0, D7
000004F6  3200                     move.w     D1, D0
000004F8  5341                     subq.w     D1, 1
000004FA  43BC 0010 C1FC           .invalid   1, 0x10C1FC // invalid opcode 4 with b == 6
00000500  0200 3207                andi.b     D0, 0x7
00000504  5241                     addq.w     D1, 1
00000506  3401                     move.w     D2, D1
00000508  5342                     subq.w     D2, 1
0000050A  45BC 0010 C3FC           .invalid   2, 0x10C3FC // invalid opcode 4 with b == 6
00000510  0200 41EC                andi.b     D0, 0xEC
00000514  FE08 2430                .unknown   0xFE08 0x2430 (W = 7)
00000518  0000 41EC                ori.b      D0, 0xEC
0000051C  FE08 B4B0                .unknown   0xFE08 0xB4B0 (W = 7)
00000520  1000                     move.b     D0, D0
00000522  6F00 00AE                ble        +0xB0 /* 000005D2 */
00000526  3007                     move.w     D0, D7
00000528  5240                     addq.w     D0, 1
0000052A  3200                     move.w     D1, D0
0000052C  5341                     subq.w     D1, 1
0000052E  43BC 0010 C1FC           .invalid   1, 0x10C1FC // invalid opcode 4 with b == 6
00000534  0200 41EC                andi.b     D0, 0xEC
00000538  FE00 4870                .unknown   0xFE00 0x4870 (W = 7)
0000053C  0000 2045                ori.b      D0, 0x45 /* 'E' */
00000540  3007                     move.w     D0, D7
00000542  3200                     move.w     D1, D0
00000544  5341                     subq.w     D1, 1
00000546  43BC 0010 C1FC           .invalid   1, 0x10C1FC // invalid opcode 4 with b == 6
0000054C  0200 41E8                andi.b     D0, 0xE8
00000550  FE00 4870                .unknown   0xFE00 0x4870 (W = 7)
00000554  0000 2F2D                ori.b      D0, 0x2D /* '-' */
00000558  A4EA                     syscall    vFileRead, flags=4
0000055A  4EAD 0112                jsr        [A5 + 0x112 /* export_30, CODE:1 @ 00003A42 */]
0000055E  3007                     move.w     D0, D7
00000560  3200                     move.w     D1, D0
00000562  5341                     subq.w     D1, 1
00000564  43BC 0010 C1FC           .invalid   1, 0x10C1FC // invalid opcode 4 with b == 6
0000056A  0200 41EC                andi.b     D0, 0xEC
0000056E  FE00 4870                .unknown   0xFE00 0x4870 (W = 7)
00000572  0000 2045                ori.b      D0, 0x45 /* 'E' */
00000576  3007                     move.w     D0, D7
00000578  5240                     addq.w     D0, 1
0000057A  3200                     move.w     D1, D0
0000057C  5341                     subq.w     D1, 1
0000057E  43BC 0010 C1FC           .invalid   1, 0x10C1FC // invalid opcode 4 with b == 6
00000584  0200 41E8                andi.b     D0, 0xE8
00000588  FE00 4870                .unknown   0xFE00 0x4870 (W = 7)
0000058C  0000 2F2D                ori.b      D0, 0x2D /* '-' */
00000590  A4EA                     syscall    vFileRead, flags=4
00000592  4EAD 0112                jsr        [A5 + 0x112 /* export_30, CODE:1 @ 00003A42 */]
00000596  2045                     movea.l    A0, D5
00000598  3007                     move.w     D0, D7
0000059A  3200                     move.w     D1, D0
0000059C  5341                     subq.w     D1, 1
0000059E  43BC 0010 C1FC           .invalid   1, 0x10C1FC // invalid opcode 4 with b == 6
000005A4  0200 41E8                andi.b     D0, 0xE8
000005A8  FE00 4870                .unknown   0xFE00 0x4870 (W = 7)
000005AC  0000 3007                ori.b      D0, 0x7
000005B0  3200                     move.w     D1, D0
000005B2  5341                     subq.w     D1, 1
000005B4  43BC 0010 C1FC           .invalid   1, 0x10C1FC // invalid opcode 4 with b == 6
000005BA  0200 41EC                andi.b     D0, 0xEC
000005BE  FE00 4870                .unknown   0xFE00 0x4870 (W = 7)
000005C2  0000 202D                ori.b      D0, 0x2D /* '-' */
000005C6  A4EA                     syscall    vFileRead, flags=4
000005C8  E380                     asl        D0, 1
000005CA  2F00                     move.l     -[A7], D0
000005CC  4EAD 0112                jsr        [A5 + 0x112 /* export_30, CODE:1 @ 00003A42 */]
000005D0  4206                     clr.b      D6
label000005D2:
000005D2  5247                     addq.w     D7, 1
000005D4  6908                     bvs        +0xA /* 000005DE */
label000005D6:
000005D6  BE6E FFE8                cmp.w      D7, [A6 - 0x18]
000005DA  6F00 FF18                ble        -0xE6 /* 000004F4 */
label000005DE:
000005DE  1006                     move.b     D0, D6
000005E0  6700 FF00                beq        -0xFE /* 000004E2 */
000005E4  7001                     moveq.l    D0, 0x01
000005E6  2F00                     move.l     -[A7], D0
000005E8  3F3C 0010                move.w     -[A7], 0x10
000005EC  2F05                     move.l     -[A7], D5
000005EE  4EAD 044A                jsr        [A5 + 0x44A /* export_133, CODE:4 @ 00000A48 */]
000005F2  6000 0130                bra        +0x132 /* 00000724 */
label000005F6:
000005F6  47ED B1FA                lea.l      A3, [A5 - 0x4E06]
000005FA  282D B1C2                move.l     D4, [A5 - 0x4E3E]
000005FE  2F0B                     move.l     -[A7], A3
00000600  2F04                     move.l     -[A7], D4
00000602  202D A4EA                move.l     D0, [A5 - 0x5B16]
00000606  E980                     asl        D0, 4
00000608  2F00                     move.l     -[A7], D0
0000060A  4EAD 0112                jsr        [A5 + 0x112 /* export_30, CODE:1 @ 00003A42 */]
0000060E  3D6B 0006 FFFE           move.w     [A6 - 0x2], [A3 + 0x6]
label00000614:
00000614  7C01                     moveq.l    D6, 0x01
00000616  302E FFFE                move.w     D0, [A6 - 0x2]
0000061A  5340                     subq.w     D0, 1
0000061C  3D40 FFE6                move.w     [A6 - 0x1A], D0
00000620  7E01                     moveq.l    D7, 0x01
00000622  6000 00E4                bra        +0xE6 /* 00000708 */
label00000626:
00000626  3007                     move.w     D0, D7
00000628  3200                     move.w     D1, D0
0000062A  5341                     subq.w     D1, 1
0000062C  43BC 0010 C1FC           .invalid   1, 0x10C1FC // invalid opcode 4 with b == 6
00000632  0400 3207                subi.b     D0, 0x7
00000636  5241                     addq.w     D1, 1
00000638  3401                     move.w     D2, D1
0000063A  5342                     subq.w     D2, 1
0000063C  45BC 0010 C3FC           .invalid   2, 0x10C3FC // invalid opcode 4 with b == 6
00000642  0400 41EB                subi.b     D0, 0xEB
00000646  FC08 2430                .unknown   0xFC08 0x2430 (W = 6)
0000064A  0000 41EB                ori.b      D0, 0xEB
0000064E  FC08 B4B0                .unknown   0xFC08 0xB4B0 (W = 6)
00000652  1000                     move.b     D0, D0
00000654  6F00 00AE                ble        +0xB0 /* 00000704 */
00000658  3007                     move.w     D0, D7
0000065A  5240                     addq.w     D0, 1
0000065C  3200                     move.w     D1, D0
0000065E  5341                     subq.w     D1, 1
00000660  43BC 0010 C1FC           .invalid   1, 0x10C1FC // invalid opcode 4 with b == 6
00000666  0400 41EB                subi.b     D0, 0xEB
0000066A  FC00 4870                .unknown   0xFC00 0x4870 (W = 6)
0000066E  0000 2044                ori.b      D0, 0x44 /* 'D' */
00000672  3007                     move.w     D0, D7
00000674  3200                     move.w     D1, D0
00000676  5341                     subq.w     D1, 1
00000678  43BC 0010 C1FC           .invalid   1, 0x10C1FC // invalid opcode 4 with b == 6
0000067E  0400 41E8                subi.b     D0, 0xE8
00000682  FC00 4870                .unknown   0xFC00 0x4870 (W = 6)
00000686  0000 2F2D                ori.b      D0, 0x2D /* '-' */
0000068A  A4EA                     syscall    vFileRead, flags=4
0000068C  4EAD 0112                jsr        [A5 + 0x112 /* export_30, CODE:1 @ 00003A42 */]
00000690  3007                     move.w     D0, D7
00000692  3200                     move.w     D1, D0
00000694  5341                     subq.w     D1, 1
00000696  43BC 0010 C1FC           .invalid   1, 0x10C1FC // invalid opcode 4 with b == 6
0000069C  0400 41EB                subi.b     D0, 0xEB
000006A0  FC00 4870                .unknown   0xFC00 0x4870 (W = 6)
000006A4  0000 2044                ori.b      D0, 0x44 /* 'D' */
000006A8  3007                     move.w     D0, D7
000006AA  5240                     addq.w     D0, 1
000006AC  3200                     move.w     D1, D0
000006AE  5341                     subq.w     D1, 1
000006B0  43BC 0010 C1FC           .invalid   1, 0x10C1FC // invalid opcode 4 with b == 6
000006B6  0400 41E8                subi.b     D0, 0xE8
000006BA  FC00 4870                .unknown   0xFC00 0x4870 (W = 6)
000006BE  0000 2F2D                ori.b      D0, 0x2D /* '-' */
000006C2  A4EA                     syscall    vFileRead, flags=4
000006C4  4EAD 0112                jsr        [A5 + 0x112 /* export_30, CODE:1 @ 00003A42 */]
000006C8  2044                     movea.l    A0, D4
000006CA  3007                     move.w     D0, D7
000006CC  3200                     move.w     D1, D0
000006CE  5341                     subq.w     D1, 1
000006D0  43BC 0010 C1FC           .invalid   1, 0x10C1FC // invalid opcode 4 with b == 6
000006D6  0400 41E8                subi.b     D0, 0xE8
000006DA  FC00 4870                .unknown   0xFC00 0x4870 (W = 6)
000006DE  0000 3007                ori.b      D0, 0x7
000006E2  3200                     move.w     D1, D0
000006E4  5341                     subq.w     D1, 1
000006E6  43BC 0010 C1FC           .invalid   1, 0x10C1FC // invalid opcode 4 with b == 6
000006EC  0400 41EB                subi.b     D0, 0xEB
000006F0  FC00 4870                .unknown   0xFC00 0x4870 (W = 6)
000006F4  0000 202D                ori.b      D0, 0x2D /* '-' */
000006F8  A4EA                     syscall    vFileRead, flags=4
000006FA  E380                     asl        D0, 1
000006FC  2F00                     move.l     -[A7], D0
000006FE  4EAD 0112                jsr        [A5 + 0x112 /* export_30, CODE:1 @ 00003A42 */]
00000702  4206                     clr.b      D6
label00000704:
00000704  5247                     addq.w     D7, 1
00000706  6908                     bvs        +0xA /* 00000710 */
label00000708:
00000708  BE6E FFE6                cmp.w      D7, [A6 - 0x1A]
0000070C  6F00 FF18                ble        -0xE6 /* 00000626 */
label00000710:
00000710  1006                     move.b     D0, D6
00000712  6700 FF00                beq        -0xFE /* 00000614 */
00000716  7001                     moveq.l    D0, 0x01
00000718  2F00                     move.l     -[A7], D0
0000071A  3F3C 0010                move.w     -[A7], 0x10
0000071E  2F04                     move.l     -[A7], D4
00000720  4EAD 044A                jsr        [A5 + 0x44A /* export_133, CODE:4 @ 00000A48 */]
label00000724:
00000724  4CDF 18F0                movem.l    D4,D5,D6,D7,A3,A4, [A7]+
00000728  4E5E                     unlink     A6
0000072A  4E75                     rts
0000072C  8E53 4F52 5450 4152 5... dc.b       "SORTPARTITIONS"
export_194:
fn0000073E:
0000073E  4E56 0000                link       A6, 0
00000742  7001                     moveq.l    D0, 0x01
00000744  2F00                     move.l     -[A7], D0
00000746  3F3C 0001                move.w     -[A7], 0x1
0000074A  4EAD 0442                jsr        [A5 + 0x442 /* export_132, CODE:4 @ 000008D2 */]
0000074E  486D B200                pea.l      [A5 - 0x4E00]
00000752  486D FFC6                pea.l      [A5 - 0x3A]
00000756  7002                     moveq.l    D0, 0x02
00000758  2F00                     move.l     -[A7], D0
0000075A  4EAD 0112                jsr        [A5 + 0x112 /* export_30, CODE:1 @ 00003A42 */]
0000075E  3D6D FFC6 0008           move.w     [A6 + 0x8], [A5 - 0x3A]
00000764  4E5E                     unlink     A6
00000766  4E75                     rts
00000768  8D47 4554 4E55 4D4F 4... dc.b       "GETNUMOFPARTS"
export_195:
fn00000778:
00000778  4E56 FFFC                link       A6, -0x0004
0000077C  4EBA F882                jsr        [PC - 0x77E /* 00000000 */]
00000780  42A7                     clr.l      -[A7]
00000782  2F3C 5061 7274           move.l     -[A7], 0x50617274 /* 'Part' */
00000788  3F2E 0008                move.w     -[A7], [A6 + 0x8]
0000078C  A9A0                     syscall    GetResource
0000078E  2B57 F25C                move.l     [A5 - 0xDA4], [A7]
00000792  205F                     movea.l    A0, [A7]+
00000794  A029                     syscall    HLock
00000796  206D F25C                movea.l    A0, [A5 - 0xDA4]
0000079A  2F10                     move.l     -[A7], [A0]
0000079C  486D AFB6                pea.l      [A5 - 0x504A]
000007A0  42A7                     clr.l      -[A7]
000007A2  2F2D F25C                move.l     -[A7], [A5 - 0xDA4]
000007A6  A9A5                     syscall    GetResourceSizeOnDisk/SizeResource/SizeRsrc
000007A8  4EAD 0112                jsr        [A5 + 0x112 /* export_30, CODE:1 @ 00003A42 */]
000007AC  2F2D F25C                move.l     -[A7], [A5 - 0xDA4]
000007B0  205F                     movea.l    A0, [A7]+
000007B2  A02A                     syscall    HUnlock
000007B4  486D AFBE                pea.l      [A5 - 0x5042]
000007B8  2F2E 000A                move.l     -[A7], [A6 + 0xA]
000007BC  2F3C 0000 0200           move.l     -[A7], 0x200
000007C2  4EAD 0112                jsr        [A5 + 0x112 /* export_30, CODE:1 @ 00003A42 */]
000007C6  4E5E                     unlink     A6
000007C8  205F                     movea.l    A0, [A7]+
000007CA  5C4F                     addq.w     A7, 6
000007CC  4ED0                     jmp        [A0]
000007CE  8F47 4554 5041 5254 5... dc.b       "GETPARTRESOURCE"
export_196:
fn000007E0:
000007E0  4E56 FE5C                link       A6, -0x01A4
000007E4  48E7 0118                movem.l    -[A7], D7,A3,A4
000007E8  266E 0008                movea.l    A3, [A6 + 0x8]
000007EC  286E 000C                movea.l    A4, [A6 + 0xC]
000007F0  41EE FE5C                lea.l      A0, [A6 - 0x1A4]
000007F4  2B48 A678                move.l     [A5 - 0x5988], A0
000007F8  41EE FE5C                lea.l      A0, [A6 - 0x1A4]
000007FC  2B48 A67C                move.l     [A5 - 0x5984], A0
00000800  2F0C                     move.l     -[A7], A4
00000802  486E FE5C                pea.l      [A6 - 0x1A4]
00000806  2F3C 0000 0100           move.l     -[A7], 0x100
0000080C  4EAD 0112                jsr        [A5 + 0x112 /* export_30, CODE:1 @ 00003A42 */]
00000810  487A 010C                pea.l      [PC + 0x10C /* 0000091E, value 0x9417070 '\tApp', pstring "Apple_HFS" */]
00000814  486E FE5C                pea.l      [A6 - 0x1A4]
00000818  4EAD 0752                jsr        [A5 + 0x752 /* export_230, CODE:16 @ 000000F6 */]
0000081C  4A5F                     tst.w      [A7]+
0000081E  6700 00A6                beq        +0xA8 /* 000008C6 */
00000822  0CAD 0000 0200 A4EA      cmpi.l     [A5 - 0x5B16], 0x200
0000082A  6612                     bne        +0x14 /* 0000083E */
0000082C  202C 0008                move.l     D0, [A4 + 0x8]
00000830  5480                     addq.l     D0, 2
00000832  2F00                     move.l     -[A7], D0
00000834  3F3C 0001                move.w     -[A7], 0x1
00000838  4EAD 0442                jsr        [A5 + 0x442 /* export_132, CODE:4 @ 000008D2 */]
0000083C  6010                     bra        +0x12 /* 0000084E */
label0000083E:
0000083E  202C 0008                move.l     D0, [A4 + 0x8]
00000842  5280                     addq.l     D0, 1
00000844  2F00                     move.l     -[A7], D0
00000846  3F3C 0001                move.w     -[A7], 0x1
0000084A  4EAD 0442                jsr        [A5 + 0x442 /* export_132, CODE:4 @ 000008D2 */]
label0000084E:
0000084E  486D B1FA                pea.l      [A5 - 0x4E06]
00000852  486E FF5E                pea.l      [A6 - 0xA2]
00000856  2F3C 0000 00A2           move.l     -[A7], 0xA2
0000085C  4EAD 0112                jsr        [A5 + 0x112 /* export_30, CODE:1 @ 00003A42 */]
00000860  0C6E 4244 FF5E           cmpi.w     [A6 - 0xA2], 0x4244 /* 'BD' */
00000866  6636                     bne        +0x38 /* 0000089E */
00000868  486E FF82                pea.l      [A6 - 0x7E]
0000086C  486E FE5C                pea.l      [A6 - 0x1A4]
00000870  701C                     moveq.l    D0, 0x1C
00000872  2F00                     move.l     -[A7], D0
00000874  4EAD 0112                jsr        [A5 + 0x112 /* export_30, CODE:1 @ 00003A42 */]
00000878  4240                     clr.w      D0
0000087A  102E FF82                move.b     D0, [A6 - 0x7E]
0000087E  3E00                     move.w     D7, D0
00000880  42A7                     clr.l      -[A7]
00000882  2F2D A67C                move.l     -[A7], [A5 - 0x5984]
00000886  4EAD 022A                jsr        [A5 + 0x22A /* export_65, CODE:1 @ 00004090 */]
0000088A  2B57 A678                move.l     [A5 - 0x5988], [A7]
0000088E  2F0B                     move.l     -[A7], A3
00000890  3007                     move.w     D0, D7
00000892  5240                     addq.w     D0, 1
00000894  48C0                     ext.l      D0
00000896  2F00                     move.l     -[A7], D0
00000898  4EAD 0112                jsr        [A5 + 0x112 /* export_30, CODE:1 @ 00003A42 */]
0000089C  6056                     bra        +0x58 /* 000008F4 */
label0000089E:
0000089E  486E FE5C                pea.l      [A6 - 0x1A4]
000008A2  2F3C 0001 01F5           move.l     -[A7], 0x101F5
000008A8  4EAD 01E2                jsr        [A5 + 0x1E2 /* export_56, CODE:1 @ 00003D96 */]
000008AC  42A7                     clr.l      -[A7]
000008AE  2F2D A67C                move.l     -[A7], [A5 - 0x5984]
000008B2  4EAD 022A                jsr        [A5 + 0x22A /* export_65, CODE:1 @ 00004090 */]
000008B6  2B57 A678                move.l     [A5 - 0x5988], [A7]
000008BA  2F0B                     move.l     -[A7], A3
000008BC  700E                     moveq.l    D0, 0x0E
000008BE  2F00                     move.l     -[A7], D0
000008C0  4EAD 0112                jsr        [A5 + 0x112 /* export_30, CODE:1 @ 00003A42 */]
000008C4  602E                     bra        +0x30 /* 000008F4 */
label000008C6:
000008C6  487A 0046                pea.l      [PC + 0x46 /* 0000090E, value 0xF417070, pstring "Apple_UNIX_SVR2" */]
000008CA  486E FE5C                pea.l      [A6 - 0x1A4]
000008CE  4EAD 0752                jsr        [A5 + 0x752 /* export_230, CODE:16 @ 000000F6 */]
000008D2  4A5F                     tst.w      [A7]+
000008D4  6710                     beq        +0x12 /* 000008E6 */
000008D6  486C 0010                pea.l      [A4 + 0x10]
000008DA  2F0B                     move.l     -[A7], A3
000008DC  701B                     moveq.l    D0, 0x1B
000008DE  2F00                     move.l     -[A7], D0
000008E0  4EAD 0112                jsr        [A5 + 0x112 /* export_30, CODE:1 @ 00003A42 */]
000008E4  600E                     bra        +0x10 /* 000008F4 */
label000008E6:
000008E6  486C 0030                pea.l      [A4 + 0x30]
000008EA  2F0B                     move.l     -[A7], A3
000008EC  701B                     moveq.l    D0, 0x1B
000008EE  2F00                     move.l     -[A7], D0
000008F0  4EAD 0112                jsr        [A5 + 0x112 /* export_30, CODE:1 @ 00003A42 */]
label000008F4:
000008F4  4CDF 1880                movem.l    D7,A3,A4, [A7]+
000008F8  4E5E                     unlink     A6
000008FA  205F                     movea.l    A0, [A7]+
000008FC  504F                     addq.w     A7, 8
000008FE  4ED0                     jmp        [A0]
00000900  8B47 4554 5041 5254 4... dc.b       "GETPARTNAME" + 26 constant bytes
export_197:
fn00000928:
00000928  4E56 0000                link       A6, 0
0000092C  2F2E 0008                move.l     -[A7], [A6 + 0x8]
00000930  3F3C 0001                move.w     -[A7], 0x1
00000934  4EAD 0442                jsr        [A5 + 0x442 /* export_132, CODE:4 @ 000008D2 */]
00000938  486D B1FA                pea.l      [A5 - 0x4E06]
0000093C  2F2E 000C                move.l     -[A7], [A6 + 0xC]
00000940  2F3C 0000 0200           move.l     -[A7], 0x200
00000946  4EAD 0112                jsr        [A5 + 0x112 /* export_30, CODE:1 @ 00003A42 */]
0000094A  4E5E                     unlink     A6
0000094C  205F                     movea.l    A0, [A7]+
0000094E  504F                     addq.w     A7, 8
00000950  4ED0                     jmp        [A0]
00000952  8D52 4541 4450 4152 5... dc.b       "READPARTITION"
export_198:
fn00000962:
00000962  4E56 FBFE                link       A6, -0x0402
00000966  2F07                     move.l     -[A7], D7
00000968  0CAD 0000 0200 A4EA      cmpi.l     [A5 - 0x5B16], 0x200
00000970  6612                     bne        +0x14 /* 00000984 */
00000972  2F2E 0008                move.l     -[A7], [A6 + 0x8]
00000976  3F3C 0001                move.w     -[A7], 0x1
0000097A  2F2E 000C                move.l     -[A7], [A6 + 0xC]
0000097E  4EAD 044A                jsr        [A5 + 0x44A /* export_133, CODE:4 @ 00000A48 */]
00000982  6042                     bra        +0x44 /* 000009C6 */
label00000984:
00000984  2F2E 000C                move.l     -[A7], [A6 + 0xC]
00000988  486E FC00                pea.l      [A6 - 0x400]
0000098C  2F3C 0000 0200           move.l     -[A7], 0x200
00000992  4EAD 0112                jsr        [A5 + 0x112 /* export_30, CODE:1 @ 00003A42 */]
00000996  3E3C 0201                move.w     D7, 0x201
0000099A  6014                     bra        +0x16 /* 000009B0 */
label0000099C:
0000099C  3007                     move.w     D0, D7
0000099E  3200                     move.w     D1, D0
000009A0  5341                     subq.w     D1, 1
000009A2  43BC 03FF 41EE           .invalid   1, 0x3FF41EE // invalid opcode 4 with b == 6
000009A8  FBFF                     .invalid   <<F/7/5>>
000009AA  4230 0000                clr.b      [A0 + D0.w]
000009AE  5247                     addq.w     D7, 1
label000009B0:
000009B0  0C47 0400                cmpi.w     D7, 0x400
000009B4  6FE6                     ble        -0x18 /* 0000099C */
000009B6  2F2E 0008                move.l     -[A7], [A6 + 0x8]
000009BA  3F3C 0001                move.w     -[A7], 0x1
000009BE  486E FC00                pea.l      [A6 - 0x400]
000009C2  4EAD 044A                jsr        [A5 + 0x44A /* export_133, CODE:4 @ 00000A48 */]
label000009C6:
000009C6  2E1F                     move.l     D7, [A7]+
000009C8  4E5E                     unlink     A6
000009CA  205F                     movea.l    A0, [A7]+
000009CC  504F                     addq.w     A7, 8
000009CE  4ED0                     jmp        [A0]
000009D0  8E57 5249 5445 5041 5... dc.b       "WRITEPARTITION"
fn000009E2:
000009E2  4E56 FDFA                link       A6, -0x0206
000009E6  48E7 0300                movem.l    -[A7], D6,D7
000009EA  486E FDFE                pea.l      [A6 - 0x202]
000009EE  7001                     moveq.l    D0, 0x01
000009F0  2F00                     move.l     -[A7], D0
000009F2  4EBA FF34                jsr        [PC - 0xCC /* 00000928 */]
000009F6  3C2E FE04                move.w     D6, [A6 - 0x1FC]
000009FA  3D46 FDFA                move.w     [A6 - 0x206], D6
000009FE  3E2E 0008                move.w     D7, [A6 + 0x8]
00000A02  6022                     bra        +0x24 /* 00000A26 */
label00000A04:
00000A04  486E FDFE                pea.l      [A6 - 0x202]
00000A08  3007                     move.w     D0, D7
00000A0A  5240                     addq.w     D0, 1
00000A0C  48C0                     ext.l      D0
00000A0E  2F00                     move.l     -[A7], D0
00000A10  4EBA FF16                jsr        [PC - 0xEA /* 00000928 */]
00000A14  486E FDFE                pea.l      [A6 - 0x202]
00000A18  3007                     move.w     D0, D7
00000A1A  48C0                     ext.l      D0
00000A1C  2F00                     move.l     -[A7], D0
00000A1E  4EBA FF42                jsr        [PC - 0xBE /* 00000962 */]
00000A22  5247                     addq.w     D7, 1
00000A24  6906                     bvs        +0x8 /* 00000A2C */
label00000A26:
00000A26  BE6E FDFA                cmp.w      D7, [A6 - 0x206]
00000A2A  6FD8                     ble        -0x26 /* 00000A04 */
label00000A2C:
00000A2C  4EBA 0020                jsr        [PC + 0x20 /* 00000A4E */]
00000A30  4CDF 00C0                movem.l    D6,D7, [A7]+
00000A34  4E5E                     unlink     A6
00000A36  205F                     movea.l    A0, [A7]+
00000A38  544F                     addq.w     A7, 2
00000A3A  4ED0                     jmp        [A0]
00000A3C  8F44 454C 4554 4550 4... dc.b       "DELETEPARTITION"
export_199:
fn00000A4E:
00000A4E  4E56 FFF0                link       A6, -0x0010
00000A52  48E7 0318                movem.l    -[A7], D6,D7,A3,A4
00000A56  4247                     clr.w      D7
00000A58  7001                     moveq.l    D0, 0x01
00000A5A  2F00                     move.l     -[A7], D0
00000A5C  3F3C 0010                move.w     -[A7], 0x10
00000A60  4EAD 0442                jsr        [A5 + 0x442 /* export_132, CODE:4 @ 000008D2 */]
00000A64  0CAD 0000 0200 A4EA      cmpi.l     [A5 - 0x5B16], 0x200
00000A6C  666A                     bne        +0x6C /* 00000AD8 */
00000A6E  49ED B1FA                lea.l      A4, [A5 - 0x4E06]
label00000A72:
00000A72  3007                     move.w     D0, D7
00000A74  5240                     addq.w     D0, 1
00000A76  3200                     move.w     D1, D0
00000A78  5341                     subq.w     D1, 1
00000A7A  43BC 0010 C1FC           .invalid   1, 0x10C1FC // invalid opcode 4 with b == 6
00000A80  0200 41EC                andi.b     D0, 0xEC
00000A84  FE00 0C70                .unknown   0xFE00 0x0C70 (W = 7)
00000A88  504D                     addq.w     A5, 8
00000A8A  0000 6604                ori.b      D0, 0x4
00000A8E  5247                     addq.w     D7, 1
00000A90  60E0                     bra        -0x1E /* 00000A72 */
00000A92  3D47 FFF2                move.w     [A6 - 0xE], D7
00000A96  7C01                     moveq.l    D6, 0x01
00000A98  601E                     bra        +0x20 /* 00000AB8 */
label00000A9A:
00000A9A  3007                     move.w     D0, D7
00000A9C  48C0                     ext.l      D0
00000A9E  3206                     move.w     D1, D6
00000AA0  3401                     move.w     D2, D1
00000AA2  5342                     subq.w     D2, 1
00000AA4  45BC 0010 C3FC           .invalid   2, 0x10C3FC // invalid opcode 4 with b == 6
00000AAA  0200 41EC                andi.b     D0, 0xEC
00000AAE  FE04 2180                .unknown   0xFE04 0x2180 (W = 7)
00000AB2  1000                     move.b     D0, D0
00000AB4  5246                     addq.w     D6, 1
00000AB6  6906                     bvs        +0x8 /* 00000ABE */
label00000AB8:
00000AB8  BC6E FFF2                cmp.w      D6, [A6 - 0xE]
00000ABC  6FDC                     ble        -0x22 /* 00000A9A */
label00000ABE:
00000ABE  2F0C                     move.l     -[A7], A4
00000AC0  2F2D B1C2                move.l     -[A7], [A5 - 0x4E3E]
00000AC4  3007                     move.w     D0, D7
00000AC6  48C0                     ext.l      D0
00000AC8  2F00                     move.l     -[A7], D0
00000ACA  2F2D A4EA                move.l     -[A7], [A5 - 0x5B16]
00000ACE  4EAD 024A                jsr        [A5 + 0x24A /* export_69, CODE:1 @ 0000414A */]
00000AD2  4EAD 0112                jsr        [A5 + 0x112 /* export_30, CODE:1 @ 00003A42 */]
00000AD6  6068                     bra        +0x6A /* 00000B40 */
label00000AD8:
00000AD8  47ED B1FA                lea.l      A3, [A5 - 0x4E06]
label00000ADC:
00000ADC  3007                     move.w     D0, D7
00000ADE  5240                     addq.w     D0, 1
00000AE0  3200                     move.w     D1, D0
00000AE2  5341                     subq.w     D1, 1
00000AE4  43BC 0010 C1FC           .invalid   1, 0x10C1FC // invalid opcode 4 with b == 6
00000AEA  0400 41EB                subi.b     D0, 0xEB
00000AEE  FC00 0C70                .unknown   0xFC00 0x0C70 (W = 6)
00000AF2  504D                     addq.w     A5, 8
00000AF4  0000 6604                ori.b      D0, 0x4
00000AF8  5247                     addq.w     D7, 1
00000AFA  60E0                     bra        -0x1E /* 00000ADC */
00000AFC  3D47 FFF0                move.w     [A6 - 0x10], D7
00000B00  7C01                     moveq.l    D6, 0x01
00000B02  601E                     bra        +0x20 /* 00000B22 */
label00000B04:
00000B04  3007                     move.w     D0, D7
00000B06  48C0                     ext.l      D0
00000B08  3206                     move.w     D1, D6
00000B0A  3401                     move.w     D2, D1
00000B0C  5342                     subq.w     D2, 1
00000B0E  45BC 0010 C3FC           .invalid   2, 0x10C3FC // invalid opcode 4 with b == 6
00000B14  0400 41EB                subi.b     D0, 0xEB
00000B18  FC04 2180                .unknown   0xFC04 0x2180 (W = 6)
00000B1C  1000                     move.b     D0, D0
00000B1E  5246                     addq.w     D6, 1
00000B20  6906                     bvs        +0x8 /* 00000B28 */
label00000B22:
00000B22  BC6E FFF0                cmp.w      D6, [A6 - 0x10]
00000B26  6FDC                     ble        -0x22 /* 00000B04 */
label00000B28:
00000B28  2F0B                     move.l     -[A7], A3
00000B2A  2F2D B1C2                move.l     -[A7], [A5 - 0x4E3E]
00000B2E  3007                     move.w     D0, D7
00000B30  48C0                     ext.l      D0
00000B32  2F00                     move.l     -[A7], D0
00000B34  2F2D A4EA                move.l     -[A7], [A5 - 0x5B16]
00000B38  4EAD 024A                jsr        [A5 + 0x24A /* export_69, CODE:1 @ 0000414A */]
00000B3C  4EAD 0112                jsr        [A5 + 0x112 /* export_30, CODE:1 @ 00003A42 */]
label00000B40:
00000B40  4EAD 0052                jsr        [A5 + 0x52 /* export_6, CODE:1 @ 000001A4 */]
00000B44  2F2D B1C2                move.l     -[A7], [A5 - 0x4E3E]
00000B48  486D B1FA                pea.l      [A5 - 0x4E06]
00000B4C  3007                     move.w     D0, D7
00000B4E  48C0                     ext.l      D0
00000B50  2F00                     move.l     -[A7], D0
00000B52  2F2D A4EA                move.l     -[A7], [A5 - 0x5B16]
00000B56  4EAD 024A                jsr        [A5 + 0x24A /* export_69, CODE:1 @ 0000414A */]
00000B5A  4EAD 0112                jsr        [A5 + 0x112 /* export_30, CODE:1 @ 00003A42 */]
00000B5E  7001                     moveq.l    D0, 0x01
00000B60  2F00                     move.l     -[A7], D0
00000B62  3F3C 0010                move.w     -[A7], 0x10
00000B66  486D B1FA                pea.l      [A5 - 0x4E06]
00000B6A  4EAD 044A                jsr        [A5 + 0x44A /* export_133, CODE:4 @ 00000A48 */]
00000B6E  4CDF 18C0                movem.l    D6,D7,A3,A4, [A7]+
00000B72  4E5E                     unlink     A6
00000B74  4E75                     rts
00000B76  8D55 5044 4154 4550 4... dc.b       "UPDATEPMCOUNT"
fn00000B86:
00000B86  4E56 0000                link       A6, 0
00000B8A  1B7C 0001 FFE1           move.b     [A5 - 0x1F], 0x1
00000B90  4EAD 02BA                jsr        [A5 + 0x2BA /* export_83, CODE:2 @ 000001D4 */]
00000B94  3F3C 0009                move.w     -[A7], 0x9 /* '\t' */
00000B98  4EAD 02EA                jsr        [A5 + 0x2EA /* export_89, CODE:2 @ 000004A2 */]
00000B9C  4E5E                     unlink     A6
00000B9E  4E75                     rts
00000BA0  874D 4F56 4545 5252 0000 dc.b       "MOVEERR"
fn00000BAA:
00000BAA  4E56 FFE4                link       A6, -0x001C
00000BAE  48E7 0F00                movem.l    -[A7], D4,D5,D6,D7
00000BB2  282E 0008                move.l     D4, [A6 + 0x8]
00000BB6  4EAD 002A                jsr        [A5 + 0x2A /* export_1, CODE:1 @ 00000000 */]
00000BBA  206E 000C                movea.l    A0, [A6 + 0xC]
00000BBE  2A28 0008                move.l     D5, [A0 + 0x8]
00000BC2  2C28 000C                move.l     D6, [A0 + 0xC]
label00000BC6:
00000BC6  0C86 0000 0100           cmpi.l     D6, 0x100
00000BCC  6F06                     ble        +0x8 /* 00000BD4 */
00000BCE  3E3C 0100                move.w     D7, 0x100
00000BD2  6002                     bra        +0x4 /* 00000BD6 */
label00000BD4:
00000BD4  2E06                     move.l     D7, D6
label00000BD6:
00000BD6  4267                     clr.w      -[A7]
00000BD8  2F05                     move.l     -[A7], D5
00000BDA  3F07                     move.w     -[A7], D7
00000BDC  1F3C 0001                move.b     -[A7], 0x1
00000BE0  4EAD 03AA                jsr        [A5 + 0x3AA /* export_113, CODE:3 @ 00001480 */]
00000BE4  101F                     move.b     D0, [A7]+
00000BE6  6718                     beq        +0x1A /* 00000C00 */
00000BE8  4267                     clr.w      -[A7]
00000BEA  2F05                     move.l     -[A7], D5
00000BEC  3F07                     move.w     -[A7], D7
00000BEE  1F3C 0001                move.b     -[A7], 0x1
00000BF2  4EAD 03AA                jsr        [A5 + 0x3AA /* export_113, CODE:3 @ 00001480 */]
00000BF6  101F                     move.b     D0, [A7]+
00000BF8  6706                     beq        +0x8 /* 00000C00 */
00000BFA  4EBA FF8A                jsr        [PC - 0x76 /* 00000B86 */]
00000BFE  604A                     bra        +0x4C /* 00000C4A */
label00000C00:
00000C00  4267                     clr.w      -[A7]
00000C02  2F04                     move.l     -[A7], D4
00000C04  3F07                     move.w     -[A7], D7
00000C06  1F3C 0001                move.b     -[A7], 0x1
00000C0A  4EAD 03BA                jsr        [A5 + 0x3BA /* export_115, CODE:3 @ 00001A6C */]
00000C0E  101F                     move.b     D0, [A7]+
00000C10  6718                     beq        +0x1A /* 00000C2A */
00000C12  4267                     clr.w      -[A7]
00000C14  2F04                     move.l     -[A7], D4
00000C16  3F07                     move.w     -[A7], D7
00000C18  1F3C 0001                move.b     -[A7], 0x1
00000C1C  4EAD 03BA                jsr        [A5 + 0x3BA /* export_115, CODE:3 @ 00001A6C */]
00000C20  101F                     move.b     D0, [A7]+
00000C22  6706                     beq        +0x8 /* 00000C2A */
00000C24  4EBA FF60                jsr        [PC - 0xA0 /* 00000B86 */]
00000C28  6020                     bra        +0x22 /* 00000C4A */
label00000C2A:
00000C2A  3007                     move.w     D0, D7
00000C2C  48C0                     ext.l      D0
00000C2E  DA80                     add.l      D5, D0
00000C30  3007                     move.w     D0, D7
00000C32  48C0                     ext.l      D0
00000C34  D880                     add.l      D4, D0
00000C36  3007                     move.w     D0, D7
00000C38  48C0                     ext.l      D0
00000C3A  9C80                     sub.l      D6, D0
00000C3C  2F05                     move.l     -[A7], D5
00000C3E  4267                     clr.w      -[A7]
00000C40  4EAD 03CA                jsr        [A5 + 0x3CA /* export_117, CODE:3 @ 00001CA4 */]
00000C44  4A86                     tst.l      D6
00000C46  6600 FF7E                bne        -0x80 /* 00000BC6 */
label00000C4A:
00000C4A  4EAD 0032                jsr        [A5 + 0x32 /* export_2, CODE:1 @ 000000AE */]
00000C4E  4CDF 00F0                movem.l    D4,D5,D6,D7, [A7]+
00000C52  4E5E                     unlink     A6
00000C54  205F                     movea.l    A0, [A7]+
00000C56  504F                     addq.w     A7, 8
00000C58  4ED0                     jmp        [A0]
00000C5A  8F4D 4F56 4550 4152 5... dc.b       "MOVEPARTITIONUP"
fn00000C6C:
00000C6C  4E56 FFDC                link       A6, -0x0024
00000C70  48E7 0F08                movem.l    -[A7], D4,D5,D6,D7,A4
00000C74  286E 000C                movea.l    A4, [A6 + 0xC]
00000C78  4EAD 002A                jsr        [A5 + 0x2A /* export_1, CODE:1 @ 00000000 */]
00000C7C  2A2C 000C                move.l     D5, [A4 + 0xC]
00000C80  2C05                     move.l     D6, D5
00000C82  DCAC 0008                add.l      D6, [A4 + 0x8]
00000C86  2D46 FFF4                move.l     [A6 - 0xC], D6
00000C8A  206E 0008                movea.l    A0, [A6 + 0x8]
00000C8E  2248                     movea.l    A1, A0
00000C90  2829 000C                move.l     D4, [A1 + 0xC]
00000C94  D8A8 0008                add.l      D4, [A0 + 0x8]
label00000C98:
00000C98  0C85 0000 0100           cmpi.l     D5, 0x100
00000C9E  6F06                     ble        +0x8 /* 00000CA6 */
00000CA0  3E3C 0100                move.w     D7, 0x100
00000CA4  6002                     bra        +0x4 /* 00000CA8 */
label00000CA6:
00000CA6  2E05                     move.l     D7, D5
label00000CA8:
00000CA8  3007                     move.w     D0, D7
00000CAA  48C0                     ext.l      D0
00000CAC  9C80                     sub.l      D6, D0
00000CAE  3007                     move.w     D0, D7
00000CB0  48C0                     ext.l      D0
00000CB2  9880                     sub.l      D4, D0
00000CB4  4267                     clr.w      -[A7]
00000CB6  2F06                     move.l     -[A7], D6
00000CB8  3F07                     move.w     -[A7], D7
00000CBA  1F3C 0001                move.b     -[A7], 0x1
00000CBE  4EAD 03AA                jsr        [A5 + 0x3AA /* export_113, CODE:3 @ 00001480 */]
00000CC2  101F                     move.b     D0, [A7]+
00000CC4  6718                     beq        +0x1A /* 00000CDE */
00000CC6  4267                     clr.w      -[A7]
00000CC8  2F06                     move.l     -[A7], D6
00000CCA  3F07                     move.w     -[A7], D7
00000CCC  1F3C 0001                move.b     -[A7], 0x1
00000CD0  4EAD 03AA                jsr        [A5 + 0x3AA /* export_113, CODE:3 @ 00001480 */]
00000CD4  101F                     move.b     D0, [A7]+
00000CD6  6706                     beq        +0x8 /* 00000CDE */
00000CD8  4EBA FEAC                jsr        [PC - 0x154 /* 00000B86 */]
00000CDC  6048                     bra        +0x4A /* 00000D26 */
label00000CDE:
00000CDE  4267                     clr.w      -[A7]
00000CE0  2F04                     move.l     -[A7], D4
00000CE2  3F07                     move.w     -[A7], D7
00000CE4  1F3C 0001                move.b     -[A7], 0x1
00000CE8  4EAD 03BA                jsr        [A5 + 0x3BA /* export_115, CODE:3 @ 00001A6C */]
00000CEC  101F                     move.b     D0, [A7]+
00000CEE  6718                     beq        +0x1A /* 00000D08 */
00000CF0  4267                     clr.w      -[A7]
00000CF2  2F04                     move.l     -[A7], D4
00000CF4  3F07                     move.w     -[A7], D7
00000CF6  1F3C 0001                move.b     -[A7], 0x1
00000CFA  4EAD 03BA                jsr        [A5 + 0x3BA /* export_115, CODE:3 @ 00001A6C */]
00000CFE  101F                     move.b     D0, [A7]+
00000D00  6706                     beq        +0x8 /* 00000D08 */
00000D02  4EBA FE82                jsr        [PC - 0x17E /* 00000B86 */]
00000D06  601E                     bra        +0x20 /* 00000D26 */
label00000D08:
00000D08  3007                     move.w     D0, D7
00000D0A  48C0                     ext.l      D0
00000D0C  9A80                     sub.l      D5, D0
00000D0E  202E FFF4                move.l     D0, [A6 - 0xC]
00000D12  9086                     sub.l      D0, D6
00000D14  D0AC 0008                add.l      D0, [A4 + 0x8]
00000D18  2F00                     move.l     -[A7], D0
00000D1A  4267                     clr.w      -[A7]
00000D1C  4EAD 03CA                jsr        [A5 + 0x3CA /* export_117, CODE:3 @ 00001CA4 */]
00000D20  4A85                     tst.l      D5
00000D22  6600 FF74                bne        -0x8A /* 00000C98 */
label00000D26:
00000D26  4EAD 0032                jsr        [A5 + 0x32 /* export_2, CODE:1 @ 000000AE */]
00000D2A  4CDF 10F0                movem.l    D4,D5,D6,D7,A4, [A7]+
00000D2E  4E5E                     unlink     A6
00000D30  205F                     movea.l    A0, [A7]+
00000D32  504F                     addq.w     A7, 8
00000D34  4ED0                     jmp        [A0]
00000D36  914D 4F56 4550 4152 5... dc.b       "MOVEPARTITIONDOWN"
fn00000D4A:
00000D4A  4E56 FBFC                link       A6, -0x0404
00000D4E  2F07                     move.l     -[A7], D7
00000D50  4EAD 02B2                jsr        [A5 + 0x2B2 /* export_82, CODE:2 @ 0000019E */]
00000D54  302E 000A                move.w     D0, [A6 + 0xA]
00000D58  5240                     addq.w     D0, 1
00000D5A  3D40 FBFC                move.w     [A6 - 0x404], D0
00000D5E  3E2E 0008                move.w     D7, [A6 + 0x8]
00000D62  607E                     bra        +0x80 /* 00000DE2 */
label00000D64:
00000D64  486E FDFE                pea.l      [A6 - 0x202]
00000D68  3007                     move.w     D0, D7
00000D6A  48C0                     ext.l      D0
00000D6C  2F00                     move.l     -[A7], D0
00000D6E  4EBA FBB8                jsr        [PC - 0x448 /* 00000928 */]
00000D72  486E FBFE                pea.l      [A6 - 0x402]
00000D76  3007                     move.w     D0, D7
00000D78  5340                     subq.w     D0, 1
00000D7A  48C0                     ext.l      D0
00000D7C  2F00                     move.l     -[A7], D0
00000D7E  4EBA FBA8                jsr        [PC - 0x458 /* 00000928 */]
00000D82  486E FBFE                pea.l      [A6 - 0x402]
00000D86  4EAD 02C2                jsr        [A5 + 0x2C2 /* export_84, CODE:2 @ 00000202 */]
00000D8A  2F2D F218                move.l     -[A7], [A5 - 0xDE8]
00000D8E  3F3C 0003                move.w     -[A7], 0x3
00000D92  2F2E FC0A                move.l     -[A7], [A6 - 0x3F6]
00000D96  2F2E FC06                move.l     -[A7], [A6 - 0x3FA]
00000D9A  4EAD 03C2                jsr        [A5 + 0x3C2 /* export_116, CODE:3 @ 00001C0C */]
00000D9E  486E FBFE                pea.l      [A6 - 0x402]
00000DA2  486E FDFE                pea.l      [A6 - 0x202]
00000DA6  4EBA FEC4                jsr        [PC - 0x13C /* 00000C6C */]
00000DAA  102D FFE1                move.b     D0, [A5 - 0x1F]
00000DAE  6702                     beq        +0x4 /* 00000DB2 */
00000DB0  6038                     bra        +0x3A /* 00000DEA */
label00000DB2:
00000DB2  2D6E FC06 FE06           move.l     [A6 - 0x1FA], [A6 - 0x3FA]
00000DB8  202E FE0A                move.l     D0, [A6 - 0x1F6]
00000DBC  D1AE FC06                add.l      [A6 - 0x3FA], D0
00000DC0  486E FDFE                pea.l      [A6 - 0x202]
00000DC4  3007                     move.w     D0, D7
00000DC6  5340                     subq.w     D0, 1
00000DC8  48C0                     ext.l      D0
00000DCA  2F00                     move.l     -[A7], D0
00000DCC  4EBA FB94                jsr        [PC - 0x46C /* 00000962 */]
00000DD0  486E FBFE                pea.l      [A6 - 0x402]
00000DD4  3007                     move.w     D0, D7
00000DD6  48C0                     ext.l      D0
00000DD8  2F00                     move.l     -[A7], D0
00000DDA  4EBA FB86                jsr        [PC - 0x47A /* 00000962 */]
00000DDE  5347                     subq.w     D7, 1
00000DE0  6908                     bvs        +0xA /* 00000DEA */
label00000DE2:
00000DE2  BE6E FBFC                cmp.w      D7, [A6 - 0x404]
00000DE6  6C00 FF7C                bge        -0x82 /* 00000D64 */
label00000DEA:
00000DEA  2E1F                     move.l     D7, [A7]+
00000DEC  4E5E                     unlink     A6
00000DEE  2E9F                     move.l     [A7], [A7]+
00000DF0  4E75                     rts
00000DF2  884D 4F56 4546 5245 4... dc.b       "MOVEFREE"
fn00000DFE:
00000DFE  4E56 FBFE                link       A6, -0x0402
00000E02  48E7 0108                movem.l    -[A7], D7,A4
00000E06  286E 000C                movea.l    A4, [A6 + 0xC]
00000E0A  4EBA F698                jsr        [PC - 0x968 /* 000004A4 */]
00000E0E  7E01                     moveq.l    D7, 0x01
label00000E10:
00000E10  486E FE00                pea.l      [A6 - 0x200]
00000E14  3007                     move.w     D0, D7
00000E16  48C0                     ext.l      D0
00000E18  2F00                     move.l     -[A7], D0
00000E1A  4EBA FB0C                jsr        [PC - 0x4F4 /* 00000928 */]
00000E1E  42A7                     clr.l      -[A7]
00000E20  486E FE30                pea.l      [A6 - 0x1D0]
00000E24  4EAD 0222                jsr        [A5 + 0x222 /* export_64, CODE:1 @ 0000405A */]
00000E28  486D FE94                pea.l      [A5 - 0x16C]
00000E2C  7020                     moveq.l    D0, 0x20
00000E2E  2F00                     move.l     -[A7], D0
00000E30  4EAD 0112                jsr        [A5 + 0x112 /* export_30, CODE:1 @ 00003A42 */]
00000E34  42A7                     clr.l      -[A7]
00000E36  486E FE30                pea.l      [A6 - 0x1D0]
00000E3A  4EAD 022A                jsr        [A5 + 0x22A /* export_65, CODE:1 @ 00004090 */]
00000E3E  2B5F A678                move.l     [A5 - 0x5988], [A7]+
00000E42  4267                     clr.w      -[A7]
00000E44  41ED FE94                lea.l      A0, [A5 - 0x16C]
00000E48  1F10                     move.b     -[A7], [A0]
00000E4A  3F3C 00FF                move.w     -[A7], 0xFF
00000E4E  4EAD 074A                jsr        [A5 + 0x74A /* export_229, CODE:16 @ 000000B0 */]
00000E52  2F08                     move.l     -[A7], A0
00000E54  487A 0138                pea.l      [PC + 0x138 /* 00000F8E, value 0xA417070 '\nApp', pstring "Apple_Free" */]
00000E58  1F3C 0001                move.b     -[A7], 0x1
00000E5C  4267                     clr.w      -[A7]
00000E5E  4EAD 0132                jsr        [A5 + 0x132 /* export_34, CODE:1 @ 00003A90 */]
00000E62  101F                     move.b     D0, [A7]+
00000E64  6700 00FE                beq        +0x100 /* 00000F64 */
00000E68  486E FC00                pea.l      [A6 - 0x400]
00000E6C  3007                     move.w     D0, D7
00000E6E  5240                     addq.w     D0, 1
00000E70  48C0                     ext.l      D0
00000E72  2F00                     move.l     -[A7], D0
00000E74  4EBA FAB2                jsr        [PC - 0x54E /* 00000928 */]
00000E78  42A7                     clr.l      -[A7]
00000E7A  486E FC30                pea.l      [A6 - 0x3D0]
00000E7E  4EAD 0222                jsr        [A5 + 0x222 /* export_64, CODE:1 @ 0000405A */]
00000E82  486D FE94                pea.l      [A5 - 0x16C]
00000E86  7020                     moveq.l    D0, 0x20
00000E88  2F00                     move.l     -[A7], D0
00000E8A  4EAD 0112                jsr        [A5 + 0x112 /* export_30, CODE:1 @ 00003A42 */]
00000E8E  42A7                     clr.l      -[A7]
00000E90  486E FC30                pea.l      [A6 - 0x3D0]
00000E94  4EAD 022A                jsr        [A5 + 0x22A /* export_65, CODE:1 @ 00004090 */]
00000E98  2B5F A678                move.l     [A5 - 0x5988], [A7]+
00000E9C  4267                     clr.w      -[A7]
00000E9E  41ED FE94                lea.l      A0, [A5 - 0x16C]
00000EA2  1F10                     move.b     -[A7], [A0]
00000EA4  3F3C 00FF                move.w     -[A7], 0xFF
00000EA8  4EAD 074A                jsr        [A5 + 0x74A /* export_229, CODE:16 @ 000000B0 */]
00000EAC  2F08                     move.l     -[A7], A0
00000EAE  487A 00DE                pea.l      [PC + 0xDE /* 00000F8E, value 0xA417070 '\nApp', pstring "Apple_Free" */]
00000EB2  1F3C 0001                move.b     -[A7], 0x1
00000EB6  4267                     clr.w      -[A7]
00000EB8  4EAD 0132                jsr        [A5 + 0x132 /* export_34, CODE:1 @ 00003A90 */]
00000EBC  101F                     move.b     D0, [A7]+
00000EBE  6736                     beq        +0x38 /* 00000EF6 */
00000EC0  202E FC0C                move.l     D0, [A6 - 0x3F4]
00000EC4  D1AE FE0C                add.l      [A6 - 0x1F4], D0
00000EC8  2D6E FE0C FE54           move.l     [A6 - 0x1AC], [A6 - 0x1F4]
00000ECE  486E FE00                pea.l      [A6 - 0x200]
00000ED2  3007                     move.w     D0, D7
00000ED4  48C0                     ext.l      D0
00000ED6  2F00                     move.l     -[A7], D0
00000ED8  4EBA FA88                jsr        [PC - 0x578 /* 00000962 */]
00000EDC  3007                     move.w     D0, D7
00000EDE  5240                     addq.w     D0, 1
00000EE0  3F00                     move.w     -[A7], D0
00000EE2  4EBA FAFE                jsr        [PC - 0x502 /* 000009E2 */]
00000EE6  206E 0008                movea.l    A0, [A6 + 0x8]
00000EEA  5350                     subq.w     [A0], 1
00000EEC  5347                     subq.w     D7, 1
00000EEE  BE54                     cmp.w      D7, [A4]
00000EF0  6C72                     bge        +0x74 /* 00000F64 */
00000EF2  5354                     subq.w     [A4], 1
00000EF4  606E                     bra        +0x70 /* 00000F64 */
label00000EF6:
00000EF6  4EAD 02B2                jsr        [A5 + 0x2B2 /* export_82, CODE:2 @ 0000019E */]
00000EFA  486E FC00                pea.l      [A6 - 0x400]
00000EFE  4EAD 02C2                jsr        [A5 + 0x2C2 /* export_84, CODE:2 @ 00000202 */]
00000F02  2F2D F218                move.l     -[A7], [A5 - 0xDE8]
00000F06  3F3C 0003                move.w     -[A7], 0x3
00000F0A  2F2E FC0C                move.l     -[A7], [A6 - 0x3F4]
00000F0E  2F2E FC08                move.l     -[A7], [A6 - 0x3F8]
00000F12  4EAD 03C2                jsr        [A5 + 0x3C2 /* export_116, CODE:3 @ 00001C0C */]
00000F16  486E FC00                pea.l      [A6 - 0x400]
00000F1A  2F2E FE08                move.l     -[A7], [A6 - 0x1F8]
00000F1E  4EBA FC8A                jsr        [PC - 0x376 /* 00000BAA */]
00000F22  102D FFE1                move.b     D0, [A5 - 0x1F]
00000F26  6702                     beq        +0x4 /* 00000F2A */
00000F28  604A                     bra        +0x4C /* 00000F74 */
label00000F2A:
00000F2A  2D6E FE08 FC08           move.l     [A6 - 0x3F8], [A6 - 0x1F8]
00000F30  202E FC0C                move.l     D0, [A6 - 0x3F4]
00000F34  D0AE FC08                add.l      D0, [A6 - 0x3F8]
00000F38  2D40 FE08                move.l     [A6 - 0x1F8], D0
00000F3C  486E FC00                pea.l      [A6 - 0x400]
00000F40  3007                     move.w     D0, D7
00000F42  48C0                     ext.l      D0
00000F44  2F00                     move.l     -[A7], D0
00000F46  4EBA FA1A                jsr        [PC - 0x5E6 /* 00000962 */]
00000F4A  486E FE00                pea.l      [A6 - 0x200]
00000F4E  3007                     move.w     D0, D7
00000F50  5240                     addq.w     D0, 1
00000F52  48C0                     ext.l      D0
00000F54  2F00                     move.l     -[A7], D0
00000F56  4EBA FA0A                jsr        [PC - 0x5F6 /* 00000962 */]
00000F5A  3007                     move.w     D0, D7
00000F5C  5240                     addq.w     D0, 1
00000F5E  B054                     cmp.w      D0, [A4]
00000F60  6602                     bne        +0x4 /* 00000F64 */
00000F62  5354                     subq.w     [A4], 1
label00000F64:
00000F64  5247                     addq.w     D7, 1
00000F66  206E 0008                movea.l    A0, [A6 + 0x8]
00000F6A  BE50                     cmp.w      D7, [A0]
00000F6C  6600 FEA2                bne        -0x15C /* 00000E10 */
00000F70  4EBA FADC                jsr        [PC - 0x524 /* 00000A4E */]
label00000F74:
00000F74  4CDF 1080                movem.l    D7,A4, [A7]+
00000F78  4E5E                     unlink     A6
00000F7A  205F                     movea.l    A0, [A7]+
00000F7C  504F                     addq.w     A7, 8
00000F7E  4ED0                     jmp        [A0]
00000F80  8B43 4F4D 5041 4354 4... dc.b       "COMPACTFREE" + 12 constant bytes
fn00000F9A:
00000F9A  4E56 FE00                link       A6, -0x0200
00000F9E  486E FE00                pea.l      [A6 - 0x200]
00000FA2  302E 000C                move.w     D0, [A6 + 0xC]
00000FA6  48C0                     ext.l      D0
00000FA8  2F00                     move.l     -[A7], D0
00000FAA  4EBA F97C                jsr        [PC - 0x684 /* 00000928 */]
00000FAE  2D6E 0008 FE0C           move.l     [A6 - 0x1F4], [A6 + 0x8]
00000FB4  2D6E 0008 FE54           move.l     [A6 - 0x1AC], [A6 + 0x8]
00000FBA  486E FE00                pea.l      [A6 - 0x200]
00000FBE  302E 000C                move.w     D0, [A6 + 0xC]
00000FC2  48C0                     ext.l      D0
00000FC4  2F00                     move.l     -[A7], D0
00000FC6  4EBA F99A                jsr        [PC - 0x666 /* 00000962 */]
00000FCA  4E5E                     unlink     A6
00000FCC  205F                     movea.l    A0, [A7]+
00000FCE  5C4F                     addq.w     A7, 6
00000FD0  4ED0                     jmp        [A0]
00000FD2  8E43 4841 4E47 4550 4... dc.b       "CHANGEPARTSIZE"
fn00000FE4:
00000FE4  4E56 FDF8                link       A6, -0x0208
00000FE8  48E7 0108                movem.l    -[A7], D7,A4
00000FEC  486E FE00                pea.l      [A6 - 0x200]
00000FF0  7001                     moveq.l    D0, 0x01
00000FF2  2F00                     move.l     -[A7], D0
00000FF4  4EBA F932                jsr        [PC - 0x6CE /* 00000928 */]
00000FF8  3D6E FE0E FDF8           move.w     [A6 - 0x208], [A6 - 0x1F2]
00000FFE  7E01                     moveq.l    D7, 0x01
00001000  6060                     bra        +0x62 /* 00001062 */
label00001002:
00001002  486E FE00                pea.l      [A6 - 0x200]
00001006  3007                     move.w     D0, D7
00001008  48C0                     ext.l      D0
0000100A  2F00                     move.l     -[A7], D0
0000100C  4EBA F91A                jsr        [PC - 0x6E6 /* 00000928 */]
00001010  42A7                     clr.l      -[A7]
00001012  486E FE30                pea.l      [A6 - 0x1D0]
00001016  4EAD 0222                jsr        [A5 + 0x222 /* export_64, CODE:1 @ 0000405A */]
0000101A  285F                     movea.l    A4, [A7]+
0000101C  1F14                     move.b     -[A7], [A4]
0000101E  3F3C 00FF                move.w     -[A7], 0xFF
00001022  4EAD 074A                jsr        [A5 + 0x74A /* export_229, CODE:16 @ 000000B0 */]
00001026  41ED FE94                lea.l      A0, [A5 - 0x16C]
0000102A  224C                     movea.l    A1, A4
0000102C  703F                     moveq.l    D0, 0x3F
label0000102E:
0000102E  20D9                     move.l     [A0]+, [A1]+
00001030  51C8 FFFC                dbf        D0, -0x6 /* 0000102E */
00001034  4267                     clr.w      -[A7]
00001036  41ED FE94                lea.l      A0, [A5 - 0x16C]
0000103A  1F10                     move.b     -[A7], [A0]
0000103C  3F3C 00FF                move.w     -[A7], 0xFF
00001040  4EAD 074A                jsr        [A5 + 0x74A /* export_229, CODE:16 @ 000000B0 */]
00001044  2F08                     move.l     -[A7], A0
00001046  487A 003A                pea.l      [PC + 0x3A /* 00001082, value 0xA417070 '\nApp', pstring "Apple_Free" */]
0000104A  1F3C 0001                move.b     -[A7], 0x1
0000104E  4267                     clr.w      -[A7]
00001050  4EAD 0132                jsr        [A5 + 0x132 /* export_34, CODE:1 @ 00003A90 */]
00001054  101F                     move.b     D0, [A7]+
00001056  6706                     beq        +0x8 /* 0000105E */
00001058  3D47 0008                move.w     [A6 + 0x8], D7
0000105C  600A                     bra        +0xC /* 00001068 */
label0000105E:
0000105E  5247                     addq.w     D7, 1
00001060  6906                     bvs        +0x8 /* 00001068 */
label00001062:
00001062  BE6E FDF8                cmp.w      D7, [A6 - 0x208]
00001066  6F9A                     ble        -0x64 /* 00001002 */
label00001068:
00001068  4CDF 1080                movem.l    D7,A4, [A7]+
0000106C  4E5E                     unlink     A6
0000106E  4E75                     rts
00001070  8E47 4554 4652 4545 5... dc.b       "GETFREEPARTNUM" + 12 constant bytes
fn0000108E:
0000108E  4E56 FDFE                link       A6, -0x0202
00001092  486E FE00                pea.l      [A6 - 0x200]
00001096  7001                     moveq.l    D0, 0x01
00001098  2F00                     move.l     -[A7], D0
0000109A  4EBA F88C                jsr        [PC - 0x774 /* 00000928 */]
0000109E  3D6E FE06 FDFE           move.w     [A6 - 0x202], [A6 - 0x1FA]
000010A4  486E FE00                pea.l      [A6 - 0x200]
000010A8  3F2E 0010                move.w     -[A7], [A6 + 0x10]
000010AC  4EBA F6CA                jsr        [PC - 0x936 /* 00000778 */]
000010B0  202E 0008                move.l     D0, [A6 + 0x8]
000010B4  6A02                     bpl        +0x4 /* 000010B8 */
000010B6  4480                     neg.l      D0
label000010B8:
000010B8  2D40 FE0C                move.l     [A6 - 0x1F4], D0
000010BC  2D6E FE0C FE54           move.l     [A6 - 0x1AC], [A6 - 0x1F4]
000010C2  2D6E 000C FE08           move.l     [A6 - 0x1F8], [A6 + 0xC]
000010C8  486E FE00                pea.l      [A6 - 0x200]
000010CC  302E FDFE                move.w     D0, [A6 - 0x202]
000010D0  5240                     addq.w     D0, 1
000010D2  48C0                     ext.l      D0
000010D4  2F00                     move.l     -[A7], D0
000010D6  4EBA F88A                jsr        [PC - 0x776 /* 00000962 */]
000010DA  4EBA F972                jsr        [PC - 0x68E /* 00000A4E */]
000010DE  4EBA F3C4                jsr        [PC - 0xC3C /* 000004A4 */]
000010E2  4EBA EF6C                jsr        [PC - 0x1094 /* 00000050 */]
000010E6  4E5E                     unlink     A6
000010E8  205F                     movea.l    A0, [A7]+
000010EA  DEFC 000A                add.w      A7, 0xA /* '\n' */
000010EE  4ED0                     jmp        [A0]
000010F0  8F41 5050 454E 4450 4... dc.b       "APPENDPARTITION"
fn00001102:
00001102  4E56 FDF6                link       A6, -0x020A
00001106  48E7 0F00                movem.l    -[A7], D4,D5,D6,D7
0000110A  282E 0008                move.l     D4, [A6 + 0x8]
0000110E  4267                     clr.w      -[A7]
00001110  4EBA FED2                jsr        [PC - 0x12E /* 00000FE4 */]
00001114  3A1F                     move.w     D5, [A7]+
00001116  486E FE00                pea.l      [A6 - 0x200]
0000111A  3005                     move.w     D0, D5
0000111C  48C0                     ext.l      D0
0000111E  2F00                     move.l     -[A7], D0
00001120  4EBA F806                jsr        [PC - 0x7FA /* 00000928 */]
00001124  2E2E FE08                move.l     D7, [A6 - 0x1F8]
00001128  2C2E FE0C                move.l     D6, [A6 - 0x1F4]
0000112C  486E FE00                pea.l      [A6 - 0x200]
00001130  3F2E 000C                move.w     -[A7], [A6 + 0xC]
00001134  4EBA F642                jsr        [PC - 0x9BE /* 00000778 */]
00001138  2D47 FE08                move.l     [A6 - 0x1F8], D7
0000113C  2D44 FE0C                move.l     [A6 - 0x1F4], D4
00001140  2D44 FE54                move.l     [A6 - 0x1AC], D4
00001144  486E FE00                pea.l      [A6 - 0x200]
00001148  3005                     move.w     D0, D5
0000114A  48C0                     ext.l      D0
0000114C  2F00                     move.l     -[A7], D0
0000114E  4EBA F812                jsr        [PC - 0x7EE /* 00000962 */]
00001152  BC84                     cmp.l      D6, D4
00001154  6F10                     ble        +0x12 /* 00001166 */
00001156  DE84                     add.l      D7, D4
00001158  9C84                     sub.l      D6, D4
0000115A  3F3C 008D                move.w     -[A7], 0x8D
0000115E  2F07                     move.l     -[A7], D7
00001160  2F06                     move.l     -[A7], D6
00001162  4EBA FF2A                jsr        [PC - 0xD6 /* 0000108E */]
label00001166:
00001166  4CDF 00F0                movem.l    D4,D5,D6,D7, [A7]+
0000116A  4E5E                     unlink     A6
0000116C  205F                     movea.l    A0, [A7]+
0000116E  5C4F                     addq.w     A7, 6
00001170  4ED0                     jmp        [A0]
00001172  8C41 4444 5041 5254 4... dc.b       "ADDPARTITION"
export_200:
00001182  4E56 F9AC                link       A6, -0x0654
00001186  48E7 0F08                movem.l    -[A7], D4,D5,D6,D7,A4
0000118A  422E FAAF                clr.b      [A6 - 0x551]
0000118E  422E FAAE                clr.b      [A6 - 0x552]
00001192  422D FFE1                clr.b      [A5 - 0x1F]
00001196  7000                     moveq.l    D0, 0x00
00001198  2D40 FBEC                move.l     [A6 - 0x414], D0
0000119C  426E FFF4                clr.w      [A6 - 0xC]
000011A0  486E FDF2                pea.l      [A6 - 0x20E]
000011A4  302E 0008                move.w     D0, [A6 + 0x8]
000011A8  48C0                     ext.l      D0
000011AA  2F00                     move.l     -[A7], D0
000011AC  4EBA F77A                jsr        [PC - 0x886 /* 00000928 */]
000011B0  3D6E FDF8 FBF0           move.w     [A6 - 0x410], [A6 - 0x208]
000011B6  0CAD 0000 0200 A4EA      cmpi.l     [A5 - 0x5B16], 0x200
000011BE  6606                     bne        +0x8 /* 000011C6 */
000011C0  2A2E FDFE                move.l     D5, [A6 - 0x202]
000011C4  6006                     bra        +0x8 /* 000011CC */
label000011C6:
000011C6  2A2E FDFE                move.l     D5, [A6 - 0x202]
000011CA  E38D                     lsl        D5, 1
label000011CC:
000011CC  42A7                     clr.l      -[A7]
000011CE  486E FE22                pea.l      [A6 - 0x1DE]
000011D2  4EAD 0222                jsr        [A5 + 0x222 /* export_64, CODE:1 @ 0000405A */]
000011D6  2B5F A67C                move.l     [A5 - 0x5984], [A7]+
000011DA  206D A67C                movea.l    A0, [A5 - 0x5984]
000011DE  1F10                     move.b     -[A7], [A0]
000011E0  3F3C 00FF                move.w     -[A7], 0xFF
000011E4  4EAD 074A                jsr        [A5 + 0x74A /* export_229, CODE:16 @ 000000B0 */]
000011E8  43EE FAB0                lea.l      A1, [A6 - 0x550]
000011EC  703F                     moveq.l    D0, 0x3F
label000011EE:
000011EE  22D8                     move.l     [A1]+, [A0]+
000011F0  51C8 FFFC                dbf        D0, -0x6 /* 000011EE */
000011F4  3D6E FBF0 FAAC           move.w     [A6 - 0x554], [A6 - 0x410]
000011FA  3D7C 0001 FFF8           move.w     [A6 - 0x8], 0x1
00001200  6000 0084                bra        +0x86 /* 00001286 */
label00001204:
00001204  486E FBF2                pea.l      [A6 - 0x40E]
00001208  302E FFF8                move.w     D0, [A6 - 0x8]
0000120C  48C0                     ext.l      D0
0000120E  2F00                     move.l     -[A7], D0
00001210  4EBA F716                jsr        [PC - 0x8EA /* 00000928 */]
00001214  42A7                     clr.l      -[A7]
00001216  486E FC22                pea.l      [A6 - 0x3DE]
0000121A  4EAD 0222                jsr        [A5 + 0x222 /* export_64, CODE:1 @ 0000405A */]
0000121E  2B5F A67C                move.l     [A5 - 0x5984], [A7]+
00001222  206D A67C                movea.l    A0, [A5 - 0x5984]
00001226  1F10                     move.b     -[A7], [A0]
00001228  3F3C 00FF                move.w     -[A7], 0xFF
0000122C  4EAD 074A                jsr        [A5 + 0x74A /* export_229, CODE:16 @ 000000B0 */]
00001230  43ED FE94                lea.l      A1, [A5 - 0x16C]
00001234  703F                     moveq.l    D0, 0x3F
label00001236:
00001236  22D8                     move.l     [A1]+, [A0]+
00001238  51C8 FFFC                dbf        D0, -0x6 /* 00001236 */
0000123C  4267                     clr.w      -[A7]
0000123E  41ED FE94                lea.l      A0, [A5 - 0x16C]
00001242  1F10                     move.b     -[A7], [A0]
00001244  3F3C 00FF                move.w     -[A7], 0xFF
00001248  4EAD 074A                jsr        [A5 + 0x74A /* export_229, CODE:16 @ 000000B0 */]
0000124C  2F08                     move.l     -[A7], A0
0000124E  487A 0762                pea.l      [PC + 0x762 /* 000019B2, value 0xA417070 '\nApp', pstring "Apple_Free" */]
00001252  1F3C 0001                move.b     -[A7], 0x1
00001256  4267                     clr.w      -[A7]
00001258  4EAD 0132                jsr        [A5 + 0x132 /* export_34, CODE:1 @ 00003A90 */]
0000125C  101F                     move.b     D0, [A7]+
0000125E  6720                     beq        +0x22 /* 00001280 */
00001260  0CAD 0000 0400 A4EA      cmpi.l     [A5 - 0x5B16], 0x400
00001268  660A                     bne        +0xC /* 00001274 */
0000126A  202E FBFE                move.l     D0, [A6 - 0x402]
0000126E  E388                     lsl        D0, 1
00001270  2D40 FBFE                move.l     [A6 - 0x402], D0
label00001274:
00001274  202E FBFE                move.l     D0, [A6 - 0x402]
00001278  D1AE FBEC                add.l      [A6 - 0x414], D0
0000127C  526E FFF4                addq.w     [A6 - 0xC], 1
label00001280:
00001280  526E FFF8                addq.w     [A6 - 0x8], 1
00001284  690C                     bvs        +0xE /* 00001292 */
label00001286:
00001286  302E FFF8                move.w     D0, [A6 - 0x8]
0000128A  B06E FAAC                cmp.w      D0, [A6 - 0x554]
0000128E  6F00 FF74                ble        -0x8A /* 00001204 */
label00001292:
00001292  282E FBEC                move.l     D4, [A6 - 0x414]
00001296  D885                     add.l      D4, D5
00001298  7E02                     moveq.l    D7, 0x02
0000129A  4267                     clr.w      -[A7]
0000129C  41EE FAB0                lea.l      A0, [A6 - 0x550]
000012A0  1F10                     move.b     -[A7], [A0]
000012A2  3F3C 00FF                move.w     -[A7], 0xFF
000012A6  4EAD 074A                jsr        [A5 + 0x74A /* export_229, CODE:16 @ 000000B0 */]
000012AA  2F08                     move.l     -[A7], A0
000012AC  487A 071A                pea.l      [PC + 0x71A /* 000019C8, value 0xF417070, pstring "Apple_UNIX_SVR2" */]
000012B0  1F3C 0001                move.b     -[A7], 0x1
000012B4  4267                     clr.w      -[A7]
000012B6  4EAD 0132                jsr        [A5 + 0x132 /* export_34, CODE:1 @ 00003A90 */]
000012BA  101F                     move.b     D0, [A7]+
000012BC  672C                     beq        +0x2E /* 000012EA */
000012BE  486D FE94                pea.l      [A5 - 0x16C]
000012C2  2F3C 0009 03E6           move.l     -[A7], 0x903E6
000012C8  4EAD 01E2                jsr        [A5 + 0x1E2 /* export_56, CODE:1 @ 00003D96 */]
000012CC  4267                     clr.w      -[A7]
000012CE  41ED FE94                lea.l      A0, [A5 - 0x16C]
000012D2  1F10                     move.b     -[A7], [A0]
000012D4  3F3C 00FF                move.w     -[A7], 0xFF
000012D8  4EAD 074A                jsr        [A5 + 0x74A /* export_229, CODE:16 @ 000000B0 */]
000012DC  2F08                     move.l     -[A7], A0
000012DE  4EAD 02DA                jsr        [A5 + 0x2DA /* export_87, CODE:2 @ 00000364 */]
000012E2  101F                     move.b     D0, [A7]+
000012E4  6604                     bne        +0x6 /* 000012EA */
000012E6  6000 06AE                bra        +0x6B0 /* 00001996 */
label000012EA:
000012EA  4267                     clr.w      -[A7]
000012EC  41EE FAB0                lea.l      A0, [A6 - 0x550]
000012F0  1F10                     move.b     -[A7], [A0]
000012F2  3F3C 00FF                move.w     -[A7], 0xFF
000012F6  4EAD 074A                jsr        [A5 + 0x74A /* export_229, CODE:16 @ 000000B0 */]
000012FA  2F08                     move.l     -[A7], A0
000012FC  487A 06C0                pea.l      [PC + 0x6C0 /* 000019BE, value 0x9417070 '\tApp', pstring "Apple_HFS" */]
00001300  1F3C 0001                move.b     -[A7], 0x1
00001304  4267                     clr.w      -[A7]
00001306  4EAD 0132                jsr        [A5 + 0x132 /* export_34, CODE:1 @ 00003A90 */]
0000130A  101F                     move.b     D0, [A7]+
0000130C  6700 01FA                beq        +0x1FC /* 00001508 */
00001310  2E3C 0000 1000           move.l     D7, 0x1000
00001316  2D6E FDFA FBD0           move.l     [A6 - 0x430], [A6 - 0x206]
0000131C  0CAD 0000 0200 A4EA      cmpi.l     [A5 - 0x5B16], 0x200
00001324  6612                     bne        +0x14 /* 00001338 */
00001326  202E FBD0                move.l     D0, [A6 - 0x430]
0000132A  5480                     addq.l     D0, 2
0000132C  2F00                     move.l     -[A7], D0
0000132E  3F3C 0001                move.w     -[A7], 0x1
00001332  4EAD 0442                jsr        [A5 + 0x442 /* export_132, CODE:4 @ 000008D2 */]
00001336  6010                     bra        +0x12 /* 00001348 */
label00001338:
00001338  202E FBD0                move.l     D0, [A6 - 0x430]
0000133C  5280                     addq.l     D0, 1
0000133E  2F00                     move.l     -[A7], D0
00001340  3F3C 0001                move.w     -[A7], 0x1
00001344  4EAD 0442                jsr        [A5 + 0x442 /* export_132, CODE:4 @ 000008D2 */]
label00001348:
00001348  486D B1FA                pea.l      [A5 - 0x4E06]
0000134C  486D A9F0                pea.l      [A5 - 0x5610]
00001350  2F3C 0000 00A2           move.l     -[A7], 0xA2
00001356  4EAD 0112                jsr        [A5 + 0x112 /* export_30, CODE:1 @ 00003A42 */]
0000135A  0C6D 4244 A9F0           cmpi.w     [A5 - 0x5610], 0x4244 /* 'BD' */
00001360  6600 01A6                bne        +0x1A8 /* 00001508 */
00001364  1D7C 0001 FAAF           move.b     [A6 - 0x551], 0x1
0000136A  7009                     moveq.l    D0, 0x09
0000136C  222D AA04                move.l     D1, [A5 - 0x55FC]
00001370  E0A9                     lsr        D1, D0
00001372  3D41 FFF6                move.w     [A6 - 0xA], D1
00001376  302D AA0C                move.w     D0, [A5 - 0x55F4]
0000137A  906D A9FE                sub.w      D0, [A5 - 0x5602]
0000137E  48C0                     ext.l      D0
00001380  2D40 FBD4                move.l     [A6 - 0x42C], D0
00001384  486D AA02                pea.l      [A5 - 0x55FE]
00001388  486D FFB8                pea.l      [A5 - 0x48]
0000138C  7002                     moveq.l    D0, 0x02
0000138E  2F00                     move.l     -[A7], D0
00001390  4EAD 0112                jsr        [A5 + 0x112 /* export_30, CODE:1 @ 00003A42 */]
00001394  7010                     moveq.l    D0, 0x10
00001396  222D FFB8                move.l     D1, [A5 - 0x48]
0000139A  E0A9                     lsr        D1, D0
0000139C  2D41 FBC4                move.l     [A6 - 0x43C], D1
000013A0  486D AA12                pea.l      [A5 - 0x55EE]
000013A4  486D FFB8                pea.l      [A5 - 0x48]
000013A8  7002                     moveq.l    D0, 0x02
000013AA  2F00                     move.l     -[A7], D0
000013AC  4EAD 0112                jsr        [A5 + 0x112 /* export_30, CODE:1 @ 00003A42 */]
000013B0  7010                     moveq.l    D0, 0x10
000013B2  222D FFB8                move.l     D1, [A5 - 0x48]
000013B6  E0A9                     lsr        D1, D0
000013B8  2D41 FBBC                move.l     [A6 - 0x444], D1
000013BC  302D AA0C                move.w     D0, [A5 - 0x55F4]
000013C0  48C0                     ext.l      D0
000013C2  2D40 FBB4                move.l     [A6 - 0x44C], D0
000013C6  302E FFF6                move.w     D0, [A6 - 0xA]
000013CA  E340                     asl        D0.w, 1
000013CC  48C0                     ext.l      D0
000013CE  2D40 FBB8                move.l     [A6 - 0x448], D0
000013D2  302E FFF6                move.w     D0, [A6 - 0xA]
000013D6  48C0                     ext.l      D0
000013D8  720C                     moveq.l    D1, 0x0C
000013DA  242E FBD4                move.l     D2, [A6 - 0x42C]
000013DE  E3AA                     lsl        D2, D1
000013E0  2F00                     move.l     -[A7], D0
000013E2  2F02                     move.l     -[A7], D2
000013E4  4EAD 024A                jsr        [A5 + 0x24A /* export_69, CODE:1 @ 0000414A */]
000013E8  2B5F FFB8                move.l     [A5 - 0x48], [A7]+
000013EC  7010                     moveq.l    D0, 0x10
000013EE  B0AE FBD4                cmp.l      D0, [A6 - 0x42C]
000013F2  6606                     bne        +0x8 /* 000013FA */
000013F4  55AD FFB8                subq.l     [A5 - 0x48], 2
000013F8  600A                     bra        +0xC /* 00001404 */
label000013FA:
000013FA  BAAD FFB8                cmp.l      D5, [A5 - 0x48]
000013FE  6F04                     ble        +0x6 /* 00001404 */
00001400  2B45 FFB8                move.l     [A5 - 0x48], D5
label00001404:
00001404  B8AD FFB8                cmp.l      D4, [A5 - 0x48]
00001408  6F04                     ble        +0x6 /* 0000140E */
0000140A  282D FFB8                move.l     D4, [A5 - 0x48]
label0000140E:
0000140E  0CAD 0000 0200 A4EA      cmpi.l     [A5 - 0x5B16], 0x200
00001416  6616                     bne        +0x18 /* 0000142E */
00001418  302D A9FE                move.w     D0, [A5 - 0x5602]
0000141C  48C0                     ext.l      D0
0000141E  D0AE FBD0                add.l      D0, [A6 - 0x430]
00001422  2F00                     move.l     -[A7], D0
00001424  3F2E FBD6                move.w     -[A7], [A6 - 0x42A]
00001428  4EAD 0442                jsr        [A5 + 0x442 /* export_132, CODE:4 @ 000008D2 */]
0000142C  6048                     bra        +0x4A /* 00001476 */
label0000142E:
0000142E  202E FBD0                move.l     D0, [A6 - 0x430]
00001432  5280                     addq.l     D0, 1
00001434  2F00                     move.l     -[A7], D0
00001436  3F3C 0009                move.w     -[A7], 0x9 /* '\t' */
0000143A  4EAD 0442                jsr        [A5 + 0x442 /* export_132, CODE:4 @ 000008D2 */]
0000143E  486D B3FA                pea.l      [A5 - 0x4C06]
00001442  2F2D B1C2                move.l     -[A7], [A5 - 0x4E3E]
00001446  2F2E FBD4                move.l     -[A7], [A6 - 0x42C]
0000144A  2F3C 0000 0200           move.l     -[A7], 0x200
00001450  4EAD 024A                jsr        [A5 + 0x24A /* export_69, CODE:1 @ 0000414A */]
00001454  4EAD 0112                jsr        [A5 + 0x112 /* export_30, CODE:1 @ 00003A42 */]
00001458  4EAD 0052                jsr        [A5 + 0x52 /* export_6, CODE:1 @ 000001A4 */]
0000145C  2F2D B1C2                move.l     -[A7], [A5 - 0x4E3E]
00001460  486D B1FA                pea.l      [A5 - 0x4E06]
00001464  2F2E FBD4                move.l     -[A7], [A6 - 0x42C]
00001468  2F3C 0000 0200           move.l     -[A7], 0x200
0000146E  4EAD 024A                jsr        [A5 + 0x24A /* export_69, CODE:1 @ 0000414A */]
00001472  4EAD 0112                jsr        [A5 + 0x112 /* export_30, CODE:1 @ 00003A42 */]
label00001476:
00001476  486D AA02                pea.l      [A5 - 0x55FE]
0000147A  486E FBCC                pea.l      [A6 - 0x434]
0000147E  7002                     moveq.l    D0, 0x02
00001480  2F00                     move.l     -[A7], D0
00001482  4EAD 0112                jsr        [A5 + 0x112 /* export_30, CODE:1 @ 00003A42 */]
00001486  7010                     moveq.l    D0, 0x10
00001488  222E FBCC                move.l     D1, [A6 - 0x434]
0000148C  E0A9                     lsr        D1, D0
0000148E  2D41 FBCC                move.l     [A6 - 0x434], D1
00001492  53AE FBCC                subq.l     [A6 - 0x434], 1
00001496  202E FBCC                move.l     D0, [A6 - 0x434]
0000149A  E688                     lsr        D0, 3
0000149C  2D40 FBCC                move.l     [A6 - 0x434], D0
000014A0  3D6E FBCE FFF2           move.w     [A6 - 0xE], [A6 - 0x432]
label000014A6:
000014A6  302E FFF2                move.w     D0, [A6 - 0xE]
000014AA  41BC 3FFF 4241           .invalid   0, 0x3FFF4241 // invalid opcode 4 with b == 6
000014B0  41ED B1FA                lea.l      A0, [A5 - 0x4E06]
000014B4  1230 0000                move.b     D1, [A0 + D0.w]
000014B8  4A41                     tst.w      D1
000014BA  6606                     bne        +0x8 /* 000014C2 */
000014BC  536E FFF2                subq.w     [A6 - 0xE], 1
000014C0  60E4                     bra        -0x1A /* 000014A6 */
label000014C2:
000014C2  302E FFF2                move.w     D0, [A6 - 0xE]
000014C6  5240                     addq.w     D0, 1
000014C8  48C0                     ext.l      D0
000014CA  2B40 FFB8                move.l     [A5 - 0x48], D0
000014CE  E788                     lsl        D0, 3
000014D0  2B40 FFB8                move.l     [A5 - 0x48], D0
000014D4  302E FFF6                move.w     D0, [A6 - 0xA]
000014D8  48C0                     ext.l      D0
000014DA  2F2D FFB8                move.l     -[A7], [A5 - 0x48]
000014DE  2F00                     move.l     -[A7], D0
000014E0  4EAD 024A                jsr        [A5 + 0x24A /* export_69, CODE:1 @ 0000414A */]
000014E4  202E FBB4                move.l     D0, [A6 - 0x44C]
000014E8  D09F                     add.l      D0, [A7]+
000014EA  222E FBB8                move.l     D1, [A6 - 0x448]
000014EE  D280                     add.l      D1, D0
000014F0  2B41 FFB8                move.l     [A5 - 0x48], D1
000014F4  BEAD FFB8                cmp.l      D7, [A5 - 0x48]
000014F8  6C04                     bge        +0x6 /* 000014FE */
000014FA  2E2D FFB8                move.l     D7, [A5 - 0x48]
label000014FE:
000014FE  2007                     move.l     D0, D7
00001500  0800 0000                btst.b     D0, 0x0
00001504  6702                     beq        +0x4 /* 00001508 */
00001506  5287                     addq.l     D7, 1
label00001508:
00001508  B887                     cmp.l      D4, D7
0000150A  6C02                     bge        +0x4 /* 0000150E */
0000150C  2E04                     move.l     D7, D4
label0000150E:
0000150E  42A7                     clr.l      -[A7]
00001510  3F3C 0579                move.w     -[A7], 0x579
00001514  4EAD 029A                jsr        [A5 + 0x29A /* export_79, CODE:2 @ 00000054 */]
00001518  285F                     movea.l    A4, [A7]+
0000151A  2F0C                     move.l     -[A7], A4
0000151C  A873                     syscall    SetPort
0000151E  2007                     move.l     D0, D7
00001520  E288                     lsr        D0, 1
00001522  2F00                     move.l     -[A7], D0
00001524  486D FE94                pea.l      [A5 - 0x16C]
00001528  4EAD 0202                jsr        [A5 + 0x202 /* export_60, CODE:1 @ 00004016 */]
0000152C  2F0C                     move.l     -[A7], A4
0000152E  3F3C 0007                move.w     -[A7], 0x7
00001532  41ED FE94                lea.l      A0, [A5 - 0x16C]
00001536  1F10                     move.b     -[A7], [A0]
00001538  3F3C 00FF                move.w     -[A7], 0xFF
0000153C  4EAD 074A                jsr        [A5 + 0x74A /* export_229, CODE:16 @ 000000B0 */]
00001540  2F08                     move.l     -[A7], A0
00001542  4EAD 0302                jsr        [A5 + 0x302 /* export_92, CODE:2 @ 00000560 */]
00001546  2005                     move.l     D0, D5
00001548  E288                     lsr        D0, 1
0000154A  2F00                     move.l     -[A7], D0
0000154C  486D FE94                pea.l      [A5 - 0x16C]
00001550  4EAD 0202                jsr        [A5 + 0x202 /* export_60, CODE:1 @ 00004016 */]
00001554  2F0C                     move.l     -[A7], A4
00001556  3F3C 0009                move.w     -[A7], 0x9 /* '\t' */
0000155A  41ED FE94                lea.l      A0, [A5 - 0x16C]
0000155E  1F10                     move.b     -[A7], [A0]
00001560  3F3C 00FF                move.w     -[A7], 0xFF
00001564  4EAD 074A                jsr        [A5 + 0x74A /* export_229, CODE:16 @ 000000B0 */]
00001568  2F08                     move.l     -[A7], A0
0000156A  4EAD 0302                jsr        [A5 + 0x302 /* export_92, CODE:2 @ 00000560 */]
0000156E  2F0C                     move.l     -[A7], A4
00001570  2F3C 0000 0009           move.l     -[A7], 0x9 /* '\t' */
00001576  3F3C 7FFF                move.w     -[A7], 0x7FFF
0000157A  A97E                     syscall    SelectDialogItemText/SelIText
0000157C  2004                     move.l     D0, D4
0000157E  E288                     lsr        D0, 1
00001580  2F00                     move.l     -[A7], D0
00001582  486D FE94                pea.l      [A5 - 0x16C]
00001586  4EAD 0202                jsr        [A5 + 0x202 /* export_60, CODE:1 @ 00004016 */]
0000158A  2F0C                     move.l     -[A7], A4
0000158C  3F3C 0006                move.w     -[A7], 0x6
00001590  41ED FE94                lea.l      A0, [A5 - 0x16C]
00001594  1F10                     move.b     -[A7], [A0]
00001596  3F3C 00FF                move.w     -[A7], 0xFF
0000159A  4EAD 074A                jsr        [A5 + 0x74A /* export_229, CODE:16 @ 000000B0 */]
0000159E  2F08                     move.l     -[A7], A0
000015A0  4EAD 0302                jsr        [A5 + 0x302 /* export_92, CODE:2 @ 00000560 */]
000015A4  2F0C                     move.l     -[A7], A4
000015A6  A915                     syscall    ShowWindow
000015A8  2F0C                     move.l     -[A7], A4
000015AA  2F3C 00CD 0001           move.l     -[A7], 0xCD0001
000015B0  4EAD 0312                jsr        [A5 + 0x312 /* export_94, CODE:2 @ 00000604 */]
label000015B4:
000015B4  42A7                     clr.l      -[A7]
000015B6  486E FFFA                pea.l      [A6 - 0x6]
000015BA  A991                     syscall    ModalDialog
000015BC  7001                     moveq.l    D0, 0x01
000015BE  B06E FFFA                cmp.w      D0, [A6 - 0x6]
000015C2  6608                     bne        +0xA /* 000015CC */
000015C4  2F0C                     move.l     -[A7], A4
000015C6  A983                     syscall    DisposeDialog
000015C8  6000 03CC                bra        +0x3CE /* 00001996 */
label000015CC:
000015CC  7002                     moveq.l    D0, 0x02
000015CE  B06E FFFA                cmp.w      D0, [A6 - 0x6]
000015D2  66E0                     bne        -0x1E /* 000015B4 */
000015D4  486E F9AC                pea.l      [A6 - 0x654]
000015D8  2F0C                     move.l     -[A7], A4
000015DA  3F3C 0009                move.w     -[A7], 0x9 /* '\t' */
000015DE  4EAD 030A                jsr        [A5 + 0x30A /* export_93, CODE:2 @ 000005B4 */]
000015E2  205F                     movea.l    A0, [A7]+
000015E4  1F10                     move.b     -[A7], [A0]
000015E6  3F3C 00FF                move.w     -[A7], 0xFF
000015EA  4EAD 074A                jsr        [A5 + 0x74A /* export_229, CODE:16 @ 000000B0 */]
000015EE  43ED FE94                lea.l      A1, [A5 - 0x16C]
000015F2  703F                     moveq.l    D0, 0x3F
label000015F4:
000015F4  22D8                     move.l     [A1]+, [A0]+
000015F6  51C8 FFFC                dbf        D0, -0x6 /* 000015F4 */
000015FA  41ED FE94                lea.l      A0, [A5 - 0x16C]
000015FE  1F10                     move.b     -[A7], [A0]
00001600  3F3C 00FF                move.w     -[A7], 0xFF
00001604  4EAD 074A                jsr        [A5 + 0x74A /* export_229, CODE:16 @ 000000B0 */]
00001608  2F08                     move.l     -[A7], A0
0000160A  486E FBDC                pea.l      [A6 - 0x424]
0000160E  4EAD 01FA                jsr        [A5 + 0x1FA /* export_59, CODE:1 @ 00004002 */]
00001612  202E FBDC                move.l     D0, [A6 - 0x424]
00001616  E388                     lsl        D0, 1
00001618  2D40 FBDC                move.l     [A6 - 0x424], D0
0000161C  2C2E FBDC                move.l     D6, [A6 - 0x424]
00001620  9C85                     sub.l      D6, D5
00001622  BEAE FBDC                cmp.l      D7, [A6 - 0x424]
00001626  5EC0                     sgt        D0
00001628  B8AE FBDC                cmp.l      D4, [A6 - 0x424]
0000162C  5DC1                     slt        D1
0000162E  8001                     or.b       D0, D1
00001630  4A86                     tst.l      D6
00001632  57C1                     seq        D1
00001634  8001                     or.b       D0, D1
00001636  671C                     beq        +0x1E /* 00001654 */
00001638  3F3C 0005                move.w     -[A7], 0x5
0000163C  A9C8                     syscall    SysBeep
0000163E  2F0C                     move.l     -[A7], A4
00001640  2F3C 0000 0009           move.l     -[A7], 0x9 /* '\t' */
00001646  3F3C 7FFF                move.w     -[A7], 0x7FFF
0000164A  A97E                     syscall    SelectDialogItemText/SelIText
0000164C  426E FFFA                clr.w      [A6 - 0x6]
00001650  6000 FF62                bra        -0x9C /* 000015B4 */
label00001654:
00001654  2F0C                     move.l     -[A7], A4
00001656  A983                     syscall    DisposeDialog
00001658  0CAD 0000 0400 A4EA      cmpi.l     [A5 - 0x5B16], 0x400
00001660  6618                     bne        +0x1A /* 0000167A */
00001662  202E FBDC                move.l     D0, [A6 - 0x424]
00001666  E288                     lsr        D0, 1
00001668  2D40 FBDC                move.l     [A6 - 0x424], D0
0000166C  2F06                     move.l     -[A7], D6
0000166E  7002                     moveq.l    D0, 0x02
00001670  2F00                     move.l     -[A7], D0
00001672  4EAD 0252                jsr        [A5 + 0x252 /* export_70, CODE:1 @ 0000417E */]
00001676  2C1F                     move.l     D6, [A7]+
00001678  E28D                     lsr        D5, 1
label0000167A:
0000167A  4A86                     tst.l      D6
0000167C  6F00 0124                ble        +0x126 /* 000017A2 */
00001680  486E FBF2                pea.l      [A6 - 0x40E]
00001684  302E 0008                move.w     D0, [A6 + 0x8]
00001688  5240                     addq.w     D0, 1
0000168A  48C0                     ext.l      D0
0000168C  2F00                     move.l     -[A7], D0
0000168E  4EBA F298                jsr        [PC - 0xD68 /* 00000928 */]
00001692  42A7                     clr.l      -[A7]
00001694  486E FC22                pea.l      [A6 - 0x3DE]
00001698  4EAD 0222                jsr        [A5 + 0x222 /* export_64, CODE:1 @ 0000405A */]
0000169C  486D FE94                pea.l      [A5 - 0x16C]
000016A0  7020                     moveq.l    D0, 0x20
000016A2  2F00                     move.l     -[A7], D0
000016A4  4EAD 0112                jsr        [A5 + 0x112 /* export_30, CODE:1 @ 00003A42 */]
000016A8  42A7                     clr.l      -[A7]
000016AA  486E FC22                pea.l      [A6 - 0x3DE]
000016AE  4EAD 022A                jsr        [A5 + 0x22A /* export_65, CODE:1 @ 00004090 */]
000016B2  2B5F A678                move.l     [A5 - 0x5988], [A7]+
000016B6  4267                     clr.w      -[A7]
000016B8  41ED FE94                lea.l      A0, [A5 - 0x16C]
000016BC  1F10                     move.b     -[A7], [A0]
000016BE  3F3C 00FF                move.w     -[A7], 0xFF
000016C2  4EAD 074A                jsr        [A5 + 0x74A /* export_229, CODE:16 @ 000000B0 */]
000016C6  2F08                     move.l     -[A7], A0
000016C8  487A 02E8                pea.l      [PC + 0x2E8 /* 000019B2, value 0xA417070 '\nApp', pstring "Apple_Free" */]
000016CC  1F3C 0001                move.b     -[A7], 0x1
000016D0  4267                     clr.w      -[A7]
000016D2  4EAD 0132                jsr        [A5 + 0x132 /* export_34, CODE:1 @ 00003A90 */]
000016D6  101F                     move.b     D0, [A7]+
000016D8  670E                     beq        +0x10 /* 000016E8 */
000016DA  BCAE FBFE                cmp.l      D6, [A6 - 0x402]
000016DE  6F0E                     ble        +0x10 /* 000016EE */
000016E0  1D7C 0001 FAAE           move.b     [A6 - 0x552], 0x1
000016E6  6006                     bra        +0x8 /* 000016EE */
label000016E8:
000016E8  1D7C 0001 FAAE           move.b     [A6 - 0x552], 0x1
label000016EE:
000016EE  102E FAAE                move.b     D0, [A6 - 0x552]
000016F2  6762                     beq        +0x64 /* 00001756 */
000016F4  486D FE94                pea.l      [A5 - 0x16C]
000016F8  2F3C 0008 03E6           move.l     -[A7], 0x803E6
000016FE  4EAD 01E2                jsr        [A5 + 0x1E2 /* export_56, CODE:1 @ 00003D96 */]
00001702  4267                     clr.w      -[A7]
00001704  41ED FE94                lea.l      A0, [A5 - 0x16C]
00001708  1F10                     move.b     -[A7], [A0]
0000170A  3F3C 00FF                move.w     -[A7], 0xFF
0000170E  4EAD 074A                jsr        [A5 + 0x74A /* export_229, CODE:16 @ 000000B0 */]
00001712  2F08                     move.l     -[A7], A0
00001714  4EAD 02DA                jsr        [A5 + 0x2DA /* export_87, CODE:2 @ 00000364 */]
00001718  101F                     move.b     D0, [A7]+
0000171A  6700 027A                beq        +0x27C /* 00001996 */
0000171E  486E 0008                pea.l      [A6 + 0x8]
00001722  486E FBF0                pea.l      [A6 - 0x410]
00001726  4EBA F6D6                jsr        [PC - 0x92A /* 00000DFE */]
0000172A  102D FFE1                move.b     D0, [A5 - 0x1F]
0000172E  6704                     beq        +0x6 /* 00001734 */
00001730  6000 0264                bra        +0x266 /* 00001996 */
label00001734:
00001734  302E 0008                move.w     D0, [A6 + 0x8]
00001738  5240                     addq.w     D0, 1
0000173A  3F00                     move.w     -[A7], D0
0000173C  3F2E FBF0                move.w     -[A7], [A6 - 0x410]
00001740  4EBA F608                jsr        [PC - 0x9F8 /* 00000D4A */]
00001744  486E FBF2                pea.l      [A6 - 0x40E]
00001748  302E 0008                move.w     D0, [A6 + 0x8]
0000174C  5240                     addq.w     D0, 1
0000174E  48C0                     ext.l      D0
00001750  2F00                     move.l     -[A7], D0
00001752  4EBA F1D4                jsr        [PC - 0xE2C /* 00000928 */]
label00001756:
00001756  3F2E 0008                move.w     -[A7], [A6 + 0x8]
0000175A  2F2E FBDC                move.l     -[A7], [A6 - 0x424]
0000175E  4EBA F83A                jsr        [PC - 0x7C6 /* 00000F9A */]
00001762  BCAE FBFE                cmp.l      D6, [A6 - 0x402]
00001766  660E                     bne        +0x10 /* 00001776 */
00001768  302E 0008                move.w     D0, [A6 + 0x8]
0000176C  5240                     addq.w     D0, 1
0000176E  3F00                     move.w     -[A7], D0
00001770  4EBA F270                jsr        [PC - 0xD90 /* 000009E2 */]
00001774  6024                     bra        +0x26 /* 0000179A */
label00001776:
00001776  2006                     move.l     D0, D6
00001778  91AE FBFE                sub.l      [A6 - 0x402], D0
0000177C  2D6E FBFE FC46           move.l     [A6 - 0x3BA], [A6 - 0x402]
00001782  2006                     move.l     D0, D6
00001784  D1AE FBFA                add.l      [A6 - 0x406], D0
00001788  486E FBF2                pea.l      [A6 - 0x40E]
0000178C  302E 0008                move.w     D0, [A6 + 0x8]
00001790  5240                     addq.w     D0, 1
00001792  48C0                     ext.l      D0
00001794  2F00                     move.l     -[A7], D0
00001796  4EBA F1CA                jsr        [PC - 0xE36 /* 00000962 */]
label0000179A:
0000179A  4EAD 02BA                jsr        [A5 + 0x2BA /* export_83, CODE:2 @ 000001D4 */]
0000179E  6000 0098                bra        +0x9A /* 00001838 */
label000017A2:
000017A2  7010                     moveq.l    D0, 0x10
000017A4  B06E FBF0                cmp.w      D0, [A6 - 0x410]
000017A8  57C0                     seq        D0
000017AA  7201                     moveq.l    D1, 0x01
000017AC  B26E FFF4                cmp.w      D1, [A6 - 0xC]
000017B0  5DC1                     slt        D1
000017B2  C001                     and.b      D0, D1
000017B4  6736                     beq        +0x38 /* 000017EC */
000017B6  486D FE94                pea.l      [A5 - 0x16C]
000017BA  2F3C 0008 03E6           move.l     -[A7], 0x803E6
000017C0  4EAD 01E2                jsr        [A5 + 0x1E2 /* export_56, CODE:1 @ 00003D96 */]
000017C4  4267                     clr.w      -[A7]
000017C6  41ED FE94                lea.l      A0, [A5 - 0x16C]
000017CA  1F10                     move.b     -[A7], [A0]
000017CC  3F3C 00FF                move.w     -[A7], 0xFF
000017D0  4EAD 074A                jsr        [A5 + 0x74A /* export_229, CODE:16 @ 000000B0 */]
000017D4  2F08                     move.l     -[A7], A0
000017D6  4EAD 02DA                jsr        [A5 + 0x2DA /* export_87, CODE:2 @ 00000364 */]
000017DA  101F                     move.b     D0, [A7]+
000017DC  6700 01B8                beq        +0x1BA /* 00001996 */
000017E0  486E 0008                pea.l      [A6 + 0x8]
000017E4  486E FBF0                pea.l      [A6 - 0x410]
000017E8  4EBA F614                jsr        [PC - 0x9EC /* 00000DFE */]
label000017EC:
000017EC  7010                     moveq.l    D0, 0x10
000017EE  B06E FBF0                cmp.w      D0, [A6 - 0x410]
000017F2  6F38                     ble        +0x3A /* 0000182C */
000017F4  3F2E 0008                move.w     -[A7], [A6 + 0x8]
000017F8  2F2E FBDC                move.l     -[A7], [A6 - 0x424]
000017FC  4EBA F79C                jsr        [PC - 0x864 /* 00000F9A */]
00001800  486E FDF2                pea.l      [A6 - 0x20E]
00001804  302E 0008                move.w     D0, [A6 + 0x8]
00001808  48C0                     ext.l      D0
0000180A  2F00                     move.l     -[A7], D0
0000180C  4EBA F11A                jsr        [PC - 0xEE6 /* 00000928 */]
00001810  202E FDFE                move.l     D0, [A6 - 0x202]
00001814  D0AE FDFA                add.l      D0, [A6 - 0x206]
00001818  2B40 FFB8                move.l     [A5 - 0x48], D0
0000181C  3F3C 008D                move.w     -[A7], 0x8D
00001820  2F2D FFB8                move.l     -[A7], [A5 - 0x48]
00001824  2F06                     move.l     -[A7], D6
00001826  4EBA F866                jsr        [PC - 0x79A /* 0000108E */]
0000182A  600C                     bra        +0xE /* 00001838 */
label0000182C:
0000182C  3F3C 0016                move.w     -[A7], 0x16
00001830  4EAD 02F2                jsr        [A5 + 0x2F2 /* export_90, CODE:2 @ 000004E0 */]
00001834  6000 0160                bra        +0x162 /* 00001996 */
label00001838:
00001838  102E FAAF                move.b     D0, [A6 - 0x551]
0000183C  6700 0158                beq        +0x15A /* 00001996 */
00001840  486D FE94                pea.l      [A5 - 0x16C]
00001844  2F3C 0004 0BB8           move.l     -[A7], 0x40BB8
0000184A  4EAD 01E2                jsr        [A5 + 0x1E2 /* export_56, CODE:1 @ 00003D96 */]
0000184E  41ED FE94                lea.l      A0, [A5 - 0x16C]
00001852  1F10                     move.b     -[A7], [A0]
00001854  3F3C 00FF                move.w     -[A7], 0xFF
00001858  4EAD 074A                jsr        [A5 + 0x74A /* export_229, CODE:16 @ 000000B0 */]
0000185C  2F08                     move.l     -[A7], A0
0000185E  4EAD 02A2                jsr        [A5 + 0x2A2 /* export_80, CODE:2 @ 0000010A */]
00001862  703C                     moveq.l    D0, 0x3C
00001864  2F00                     move.l     -[A7], D0
00001866  486D FF98                pea.l      [A5 - 0x68]
0000186A  4EAD 012A                jsr        [A5 + 0x12A /* export_33, CODE:1 @ 00003A82 */]
0000186E  0CAD 0000 0400 A4EA      cmpi.l     [A5 - 0x5B16], 0x400
00001876  660A                     bne        +0xC /* 00001882 */
00001878  202E FBDC                move.l     D0, [A6 - 0x424]
0000187C  E388                     lsl        D0, 1
0000187E  2D40 FBDC                move.l     [A6 - 0x424], D0
label00001882:
00001882  202E FBDC                move.l     D0, [A6 - 0x424]
00001886  90AE FBB4                sub.l      D0, [A6 - 0x44C]
0000188A  2B40 FFB8                move.l     [A5 - 0x48], D0
0000188E  202E FBB8                move.l     D0, [A6 - 0x448]
00001892  91AD FFB8                sub.l      [A5 - 0x48], D0
00001896  2F2D FFB8                move.l     -[A7], [A5 - 0x48]
0000189A  302E FFF6                move.w     D0, [A6 - 0xA]
0000189E  48C0                     ext.l      D0
000018A0  2F00                     move.l     -[A7], D0
000018A2  4EAD 0252                jsr        [A5 + 0x252 /* export_70, CODE:1 @ 0000417E */]
000018A6  2D5F FBC8                move.l     [A6 - 0x438], [A7]+
000018AA  3B6E FBCA AA02           move.w     [A5 - 0x55FE], [A6 - 0x436]
000018B0  202E FBC8                move.l     D0, [A6 - 0x438]
000018B4  90AE FBC4                sub.l      D0, [A6 - 0x43C]
000018B8  2B40 FFB8                move.l     [A5 - 0x48], D0
000018BC  D0AE FBBC                add.l      D0, [A6 - 0x444]
000018C0  2D40 FBC0                move.l     [A6 - 0x440], D0
000018C4  3B6E FBC2 AA12           move.w     [A5 - 0x55EE], [A6 - 0x43E]
000018CA  486E FDF2                pea.l      [A6 - 0x20E]
000018CE  302E 0008                move.w     D0, [A6 + 0x8]
000018D2  48C0                     ext.l      D0
000018D4  2F00                     move.l     -[A7], D0
000018D6  4EBA F050                jsr        [PC - 0xFB0 /* 00000928 */]
000018DA  0CAD 0000 0200 A4EA      cmpi.l     [A5 - 0x5B16], 0x200
000018E2  663A                     bne        +0x3C /* 0000191E */
000018E4  202E FDFA                move.l     D0, [A6 - 0x206]
000018E8  5480                     addq.l     D0, 2
000018EA  2B40 FFB8                move.l     [A5 - 0x48], D0
000018EE  2F2D FFB8                move.l     -[A7], [A5 - 0x48]
000018F2  3F3C 0001                move.w     -[A7], 0x1
000018F6  486D A9F0                pea.l      [A5 - 0x5610]
000018FA  4EAD 044A                jsr        [A5 + 0x44A /* export_133, CODE:4 @ 00000A48 */]
000018FE  202E FDFE                move.l     D0, [A6 - 0x202]
00001902  D0AE FDFA                add.l      D0, [A6 - 0x206]
00001906  5580                     subq.l     D0, 2
00001908  2B40 FFB8                move.l     [A5 - 0x48], D0
0000190C  2F2D FFB8                move.l     -[A7], [A5 - 0x48]
00001910  3F3C 0001                move.w     -[A7], 0x1
00001914  486D A9F0                pea.l      [A5 - 0x5610]
00001918  4EAD 044A                jsr        [A5 + 0x44A /* export_133, CODE:4 @ 00000A48 */]
0000191C  6074                     bra        +0x76 /* 00001992 */
label0000191E:
0000191E  202E FDFA                move.l     D0, [A6 - 0x206]
00001922  5280                     addq.l     D0, 1
00001924  2B40 FFB8                move.l     [A5 - 0x48], D0
00001928  2F2D FFB8                move.l     -[A7], [A5 - 0x48]
0000192C  3F3C 0001                move.w     -[A7], 0x1
00001930  4EAD 0442                jsr        [A5 + 0x442 /* export_132, CODE:4 @ 000008D2 */]
00001934  486D A9F0                pea.l      [A5 - 0x5610]
00001938  486D B1FA                pea.l      [A5 - 0x4E06]
0000193C  2F3C 0000 0200           move.l     -[A7], 0x200
00001942  4EAD 0112                jsr        [A5 + 0x112 /* export_30, CODE:1 @ 00003A42 */]
00001946  2F2D FFB8                move.l     -[A7], [A5 - 0x48]
0000194A  3F3C 0001                move.w     -[A7], 0x1
0000194E  486D B1FA                pea.l      [A5 - 0x4E06]
00001952  4EAD 044A                jsr        [A5 + 0x44A /* export_133, CODE:4 @ 00000A48 */]
00001956  202E FDFE                move.l     D0, [A6 - 0x202]
0000195A  D0AE FDFA                add.l      D0, [A6 - 0x206]
0000195E  5380                     subq.l     D0, 1
00001960  2B40 FFB8                move.l     [A5 - 0x48], D0
00001964  2F2D FFB8                move.l     -[A7], [A5 - 0x48]
00001968  3F3C 0001                move.w     -[A7], 0x1
0000196C  4EAD 0442                jsr        [A5 + 0x442 /* export_132, CODE:4 @ 000008D2 */]
00001970  486D A9F0                pea.l      [A5 - 0x5610]
00001974  486D B1FA                pea.l      [A5 - 0x4E06]
00001978  2F3C 0000 0200           move.l     -[A7], 0x200
0000197E  4EAD 0112                jsr        [A5 + 0x112 /* export_30, CODE:1 @ 00003A42 */]
00001982  2F2D FFB8                move.l     -[A7], [A5 - 0x48]
00001986  3F3C 0001                move.w     -[A7], 0x1
0000198A  486D B1FA                pea.l      [A5 - 0x4E06]
0000198E  4EAD 044A                jsr        [A5 + 0x44A /* export_133, CODE:4 @ 00000A48 */]
label00001992:
00001992  4EAD 02AA                jsr        [A5 + 0x2AA /* export_81, CODE:2 @ 0000016A */]
label00001996:
00001996  4CDF 10F0                movem.l    D4,D5,D6,D7,A4, [A7]+
0000199A  4E5E                     unlink     A6
0000199C  205F                     movea.l    A0, [A7]+
0000199E  544F                     addq.w     A7, 2
000019A0  4ED0                     jmp        [A0]
000019A2  8D44 4F52 4553 495A 4... dc.b       "DORESIZESTUFF" + 38 constant bytes
export_201:
000019D8  4E56 FDF4                link       A6, -0x020C
000019DC  48E7 0300                movem.l    -[A7], D6,D7
000019E0  486E FDF4                pea.l      [A6 - 0x20C]
000019E4  A874                     syscall    GetPort
000019E6  4246                     clr.w      D6
000019E8  4247                     clr.w      D7
000019EA  3D7C 0003 FFF8           move.w     [A6 - 0x8], 0x3
000019F0  486E FDF8                pea.l      [A6 - 0x208]
000019F4  7001                     moveq.l    D0, 0x01
000019F6  2F00                     move.l     -[A7], D0
000019F8  4EBA EF2E                jsr        [PC - 0x10D2 /* 00000928 */]
000019FC  3D6E FDFE FFFE           move.w     [A6 - 0x2], [A6 - 0x202]
00001A02  7001                     moveq.l    D0, 0x01
00001A04  2F00                     move.l     -[A7], D0
00001A06  3F2E FFFE                move.w     -[A7], [A6 - 0x2]
00001A0A  4EAD 0442                jsr        [A5 + 0x442 /* export_132, CODE:4 @ 000008D2 */]
label00001A0E:
00001A0E  3007                     move.w     D0, D7
00001A10  48C0                     ext.l      D0
00001A12  2F00                     move.l     -[A7], D0
00001A14  2F2D A4EA                move.l     -[A7], [A5 - 0x5B16]
00001A18  4EAD 024A                jsr        [A5 + 0x24A /* export_69, CODE:1 @ 0000414A */]
00001A1C  201F                     move.l     D0, [A7]+
00001A1E  41BC 3FFF 41ED           .invalid   0, 0x3FFF41ED // invalid opcode 4 with b == 6
00001A24  B1FA 4870                cmpa.l     A0, [PC + 0x4870 /* 00006296 */]
00001A28  0000 486D                ori.b      D0, 0x6D /* 'm' */
00001A2C  FE94 2F3C                .extension 0xE94 <<F/2-3/7>> // unimplemented
00001A30  0000 0100                ori.b      D0, 0x0
00001A34  4EAD 0112                jsr        [A5 + 0x112 /* export_30, CODE:1 @ 00003A42 */]
00001A38  487A 008C                pea.l      [PC + 0x8C /* 00001AC6, value 0xA417070 '\nApp', pstring "Apple_Free" */]
00001A3C  486D FE94                pea.l      [A5 - 0x16C]
00001A40  4EAD 0752                jsr        [A5 + 0x752 /* export_230, CODE:16 @ 000000F6 */]
00001A44  4A5F                     tst.w      [A7]+
00001A46  6702                     beq        +0x4 /* 00001A4A */
00001A48  5246                     addq.w     D6, 1
label00001A4A:
00001A4A  7001                     moveq.l    D0, 0x01
00001A4C  B046                     cmp.w      D0, D6
00001A4E  6C4C                     bge        +0x4E /* 00001A9C */
00001A50  2F2E FDF4                move.l     -[A7], [A6 - 0x20C]
00001A54  A916                     syscall    HideWindow
00001A56  486D FE94                pea.l      [A5 - 0x16C]
00001A5A  2F3C 0008 03E6           move.l     -[A7], 0x803E6
00001A60  4EAD 01E2                jsr        [A5 + 0x1E2 /* export_56, CODE:1 @ 00003D96 */]
00001A64  4267                     clr.w      -[A7]
00001A66  41ED FE94                lea.l      A0, [A5 - 0x16C]
00001A6A  1F10                     move.b     -[A7], [A0]
00001A6C  3F3C 00FF                move.w     -[A7], 0xFF
00001A70  4EAD 074A                jsr        [A5 + 0x74A /* export_229, CODE:16 @ 000000B0 */]
00001A74  2F08                     move.l     -[A7], A0
00001A76  4EAD 02DA                jsr        [A5 + 0x2DA /* export_87, CODE:2 @ 00000364 */]
00001A7A  101F                     move.b     D0, [A7]+
00001A7C  6710                     beq        +0x12 /* 00001A8E */
00001A7E  486E FFF8                pea.l      [A6 - 0x8]
00001A82  486E FFFE                pea.l      [A6 - 0x2]
00001A86  4EBA F376                jsr        [PC - 0xC8A /* 00000DFE */]
00001A8A  4EAD 02BA                jsr        [A5 + 0x2BA /* export_83, CODE:2 @ 000001D4 */]
label00001A8E:
00001A8E  2F2E FDF4                move.l     -[A7], [A6 - 0x20C]
00001A92  A873                     syscall    SetPort
00001A94  2F2E FDF4                move.l     -[A7], [A6 - 0x20C]
00001A98  A915                     syscall    ShowWindow
00001A9A  6012                     bra        +0x14 /* 00001AAE */
label00001A9C:
00001A9C  5247                     addq.w     D7, 1
00001A9E  BE6E FFFE                cmp.w      D7, [A6 - 0x2]
00001AA2  6F00 FF6A                ble        -0x94 /* 00001A0E */
00001AA6  3F3C 000D                move.w     -[A7], 0xD /* '\r' */
00001AAA  4EAD 02F2                jsr        [A5 + 0x2F2 /* export_90, CODE:2 @ 000004E0 */]
label00001AAE:
00001AAE  4CDF 00C0                movem.l    D6,D7, [A7]+
00001AB2  4E5E                     unlink     A6
00001AB4  4E75                     rts
00001AB6  8C44 4F4D 4158 5741 5... dc.b       "DOMAXWARNING" + 12 constant bytes
00001AD2  4E56 FFF4                link       A6, -0x000C
00001AD6  48E7 0318                movem.l    -[A7], D6,D7,A3,A4
00001ADA  266E 000C                movea.l    A3, [A6 + 0xC]
00001ADE  286E 0010                movea.l    A4, [A6 + 0x10]
00001AE2  4207                     clr.b      D7
00001AE4  3013                     move.w     D0, [A3]
00001AE6  5340                     subq.w     D0, 1
00001AE8  6716                     beq        +0x18 /* 00001B00 */
00001AEA  5540                     subq.w     D0, 2
00001AEC  6700 00BA                beq        +0xBC /* 00001BA8 */
00001AF0  5740                     subq.w     D0, 3
00001AF2  6700 011E                beq        +0x120 /* 00001C12 */
00001AF6  5540                     subq.w     D0, 2
00001AF8  6700 010A                beq        +0x10C /* 00001C04 */
00001AFC  6000 016A                bra        +0x16C /* 00001C68 */
label00001B00:
00001B00  2D6B 000A FFFA           move.l     [A6 - 0x6], [A3 + 0xA]
00001B06  486E FFFA                pea.l      [A6 - 0x6]
00001B0A  A871                     syscall    GlobalToLocal
00001B0C  4267                     clr.w      -[A7]
00001B0E  2F2E FFFA                move.l     -[A7], [A6 - 0x6]
00001B12  2F0C                     move.l     -[A7], A4
00001B14  486E FFF6                pea.l      [A6 - 0xA]
00001B18  A96C                     syscall    FindControl
00001B1A  4A5F                     tst.w      [A7]+
00001B1C  6700 014A                beq        +0x14C /* 00001C68 */
00001B20  2F0C                     move.l     -[A7], A4
00001B22  3F3C 0001                move.w     -[A7], 0x1
00001B26  486D F260                pea.l      [A5 - 0xDA0]
00001B2A  486D F25C                pea.l      [A5 - 0xDA4]
00001B2E  486D F254                pea.l      [A5 - 0xDAC]
00001B32  A98D                     syscall    GetDialogItem/GetDItem
00001B34  202D F25C                move.l     D0, [A5 - 0xDA4]
00001B38  B0AE FFF6                cmp.l      D0, [A6 - 0xA]
00001B3C  661A                     bne        +0x1C /* 00001B58 */
00001B3E  4267                     clr.w      -[A7]
00001B40  2F2E FFF6                move.l     -[A7], [A6 - 0xA]
00001B44  2F2E FFFA                move.l     -[A7], [A6 - 0x6]
00001B48  42A7                     clr.l      -[A7]
00001B4A  A968                     syscall    TrackControl
00001B4C  4A5F                     tst.w      [A7]+
00001B4E  6600 0118                bne        +0x11A /* 00001C68 */
00001B52  7E01                     moveq.l    D7, 0x01
00001B54  6000 0112                bra        +0x114 /* 00001C68 */
label00001B58:
00001B58  2F0C                     move.l     -[A7], A4
00001B5A  3F3C 0002                move.w     -[A7], 0x2
00001B5E  486D F260                pea.l      [A5 - 0xDA0]
00001B62  486D F25C                pea.l      [A5 - 0xDA4]
00001B66  486D F254                pea.l      [A5 - 0xDAC]
00001B6A  A98D                     syscall    GetDialogItem/GetDItem
00001B6C  3B6D F25A F256           move.w     [A5 - 0xDAA], [A5 - 0xDA6]
00001B72  066D 000F F25A           addi.w     [A5 - 0xDA6], 0xF
00001B78  4267                     clr.w      -[A7]
00001B7A  2F2E FFFA                move.l     -[A7], [A6 - 0x6]
00001B7E  486D F254                pea.l      [A5 - 0xDAC]
00001B82  A8AD                     syscall    PtInRect
00001B84  101F                     move.b     D0, [A7]+
00001B86  6700 00E0                beq        +0xE2 /* 00001C68 */
00001B8A  4267                     clr.w      -[A7]
00001B8C  2F2E FFFA                move.l     -[A7], [A6 - 0x6]
00001B90  3F2B 000E                move.w     -[A7], [A3 + 0xE]
00001B94  2F2D AF96                move.l     -[A7], [A5 - 0x506A]
00001B98  3F3C 0018                move.w     -[A7], 0x18
00001B9C  A9E7                     syscall    Pack0/ListManager
00001B9E  101F                     move.b     D0, [A7]+
00001BA0  6600 00C6                bne        +0xC8 /* 00001C68 */
00001BA4  6000 00C2                bra        +0xC4 /* 00001C68 */
label00001BA8:
00001BA8  203C 0000 00FF           move.l     D0, 0xFF
00001BAE  C0AB 0002                and.l      D0, [A3 + 0x2]
00001BB2  41BC 00FF 3C00           .invalid   0, 0xFF3C00 // invalid opcode 4 with b == 6
00001BB8  5740                     subq.w     D0, 3
00001BBA  670A                     beq        +0xC /* 00001BC6 */
00001BBC  0440 000A                subi.w     D0, 0xA /* '\n' */
00001BC0  6704                     beq        +0x6 /* 00001BC6 */
00001BC2  6000 00A4                bra        +0xA6 /* 00001C68 */
label00001BC6:
00001BC6  2F0C                     move.l     -[A7], A4
00001BC8  3F3C 0001                move.w     -[A7], 0x1
00001BCC  486D F260                pea.l      [A5 - 0xDA0]
00001BD0  486D F25C                pea.l      [A5 - 0xDA4]
00001BD4  486D F254                pea.l      [A5 - 0xDAC]
00001BD8  A98D                     syscall    GetDialogItem/GetDItem
00001BDA  2F2D F25C                move.l     -[A7], [A5 - 0xDA4]
00001BDE  3F3C 000A                move.w     -[A7], 0xA /* '\n' */
00001BE2  A95D                     syscall    HiliteControl
00001BE4  7008                     moveq.l    D0, 0x08
00001BE6  2F00                     move.l     -[A7], D0
00001BE8  486D FF98                pea.l      [A5 - 0x68]
00001BEC  4EAD 012A                jsr        [A5 + 0x12A /* export_33, CODE:1 @ 00003A82 */]
00001BF0  2F2D F25C                move.l     -[A7], [A5 - 0xDA4]
00001BF4  4267                     clr.w      -[A7]
00001BF6  A95D                     syscall    HiliteControl
00001BF8  206E 0008                movea.l    A0, [A6 + 0x8]
00001BFC  30BC 0001                move.w     [A0], 0x1
00001C00  7E01                     moveq.l    D7, 0x01
00001C02  6064                     bra        +0x66 /* 00001C68 */
label00001C04:
00001C04  1F3C 0001                move.b     -[A7], 0x1
00001C08  2F2D AF96                move.l     -[A7], [A5 - 0x506A]
00001C0C  4267                     clr.w      -[A7]
00001C0E  A9E7                     syscall    Pack0/ListManager
00001C10  6056                     bra        +0x58 /* 00001C68 */
label00001C12:
00001C12  2F2D AF96                move.l     -[A7], [A5 - 0x506A]
00001C16  3F3C 0010                move.w     -[A7], 0x10
00001C1A  A9E7                     syscall    Pack0/ListManager
00001C1C  2F0C                     move.l     -[A7], A4
00001C1E  3F3C 0002                move.w     -[A7], 0x2
00001C22  486D F260                pea.l      [A5 - 0xDA0]
00001C26  486D F25C                pea.l      [A5 - 0xDA4]
00001C2A  486D F254                pea.l      [A5 - 0xDAC]
00001C2E  A98D                     syscall    GetDialogItem/GetDItem
00001C30  486D F254                pea.l      [A5 - 0xDAC]
00001C34  2F3C FFFF FFFF           move.l     -[A7], 0xFFFFFFFF
00001C3A  A8A9                     syscall    InsetRect
00001C3C  486D F254                pea.l      [A5 - 0xDAC]
00001C40  A8A1                     syscall    FrameRect
00001C42  2F2C 0018                move.l     -[A7], [A4 + 0x18]
00001C46  2F2D AF96                move.l     -[A7], [A5 - 0x506A]
00001C4A  3F3C 0064                move.w     -[A7], 0x64 /* 'd' */
00001C4E  A9E7                     syscall    Pack0/ListManager
00001C50  2F0C                     move.l     -[A7], A4
00001C52  A922                     syscall    BeginUpdate
00001C54  4267                     clr.w      -[A7]
00001C56  2F2C 0018                move.l     -[A7], [A4 + 0x18]
00001C5A  A8E2                     syscall    EmptyRgn
00001C5C  101F                     move.b     D0, [A7]+
00001C5E  6604                     bne        +0x6 /* 00001C64 */
00001C60  2F0C                     move.l     -[A7], A4
00001C62  A981                     syscall    DrawDialog
label00001C64:
00001C64  2F0C                     move.l     -[A7], A4
00001C66  A923                     syscall    EndUpdate
label00001C68:
00001C68  1D47 0014                move.b     [A6 + 0x14], D7
00001C6C  4CDF 18C0                movem.l    D6,D7,A3,A4, [A7]+
00001C70  4E5E                     unlink     A6
00001C72  205F                     movea.l    A0, [A7]+
00001C74  DEFC 000C                add.w      A7, 0xC
00001C78  4ED0                     jmp        [A0]
00001C7A  8D44 4554 4149 4C53 4... dc.b       "DETAILSFILTER"
fn00001C8A:
00001C8A  4E56 FFFA                link       A6, -0x0006
00001C8E  48E7 0308                movem.l    -[A7], D6,D7,A4
00001C92  286E 000A                movea.l    A4, [A6 + 0xA]
00001C96  4240                     clr.w      D0
00001C98  1014                     move.b     D0, [A4]
00001C9A  3C00                     move.w     D6, D0
00001C9C  5246                     addq.w     D6, 1
00001C9E  3D6E 0008 FFFA           move.w     [A6 - 0x6], [A6 + 0x8]
00001CA4  3E06                     move.w     D7, D6
00001CA6  6014                     bra        +0x16 /* 00001CBC */
label00001CA8:
00001CA8  3007                     move.w     D0, D7
00001CAA  41BC 00FF 7220           .invalid   0, 0xFF7220 // invalid opcode 4 with b == 6
00001CB0  43BC 00FF 1981           .invalid   1, 0xFF1981 // invalid opcode 4 with b == 6
00001CB6  0000 5247                ori.b      D0, 0x47 /* 'G' */
00001CBA  6906                     bvs        +0x8 /* 00001CC2 */
label00001CBC:
00001CBC  BE6E FFFA                cmp.w      D7, [A6 - 0x6]
00001CC0  6FE6                     ble        -0x18 /* 00001CA8 */
label00001CC2:
00001CC2  302E 0008                move.w     D0, [A6 + 0x8]
00001CC6  41BC 00FF 1880           .invalid   0, 0xFF1880 // invalid opcode 4 with b == 6
00001CCC  4CDF 10C0                movem.l    D6,D7,A4, [A7]+
00001CD0  4E5E                     unlink     A6
00001CD2  205F                     movea.l    A0, [A7]+
00001CD4  5C4F                     addq.w     A7, 6
00001CD6  4ED0                     jmp        [A0]
00001CD8  8C46 494C 4C49 4E53 5... dc.b       "FILLINSPACES"
export_202:
00001CE8  4E56 F6E0                link       A6, -0x0920
00001CEC  48E7 0118                movem.l    -[A7], D7,A3,A4
00001CF0  486E FDE6                pea.l      [A6 - 0x21A]
00001CF4  7001                     moveq.l    D0, 0x01
00001CF6  2F00                     move.l     -[A7], D0
00001CF8  4EBA EC2E                jsr        [PC - 0x13D2 /* 00000928 */]
00001CFC  0C6E 504D FDE6           cmpi.w     [A6 - 0x21A], 0x504D /* 'PM' */
00001D02  670C                     beq        +0xE /* 00001D10 */
00001D04  3F3C 0005                move.w     -[A7], 0x5
00001D08  4EAD 02FA                jsr        [A5 + 0x2FA /* export_91, CODE:2 @ 0000051E */]
00001D0C  6000 033A                bra        +0x33C /* 00002048 */
label00001D10:
00001D10  2F2D F21C                move.l     -[A7], [A5 - 0xDE4]
00001D14  A916                     syscall    HideWindow
00001D16  486E FFE6                pea.l      [A6 - 0x1A]
00001D1A  42A7                     clr.l      -[A7]
00001D1C  A880                     syscall    SetPt
00001D1E  42A7                     clr.l      -[A7]
00001D20  3F3C 0640                move.w     -[A7], 0x640
00001D24  4EAD 029A                jsr        [A5 + 0x29A /* export_79, CODE:2 @ 00000054 */]
00001D28  285F                     movea.l    A4, [A7]+
00001D2A  2F0C                     move.l     -[A7], A4
00001D2C  A873                     syscall    SetPort
00001D2E  2F0C                     move.l     -[A7], A4
00001D30  A915                     syscall    ShowWindow
00001D32  2F0C                     move.l     -[A7], A4
00001D34  3F3C 0004                move.w     -[A7], 0x4
00001D38  4EAD 0362                jsr        [A5 + 0x362 /* export_104, CODE:2 @ 00000C96 */]
00001D3C  2F0C                     move.l     -[A7], A4
00001D3E  3F3C 0002                move.w     -[A7], 0x2
00001D42  486D F260                pea.l      [A5 - 0xDA0]
00001D46  486D F25C                pea.l      [A5 - 0xDA4]
00001D4A  486D F254                pea.l      [A5 - 0xDAC]
00001D4E  A98D                     syscall    GetDialogItem/GetDItem
00001D50  486E FFF8                pea.l      [A6 - 0x8]
00001D54  302D F25A                move.w     D0, [A5 - 0xDA6]
00001D58  906D F256                sub.w      D0, [A5 - 0xDAA]
00001D5C  3F00                     move.w     -[A7], D0
00001D5E  3F3C 001D                move.w     -[A7], 0x1D
00001D62  A880                     syscall    SetPt
00001D64  4267                     clr.w      -[A7]
00001D66  4EBA E9D6                jsr        [PC - 0x162A /* 0000073E */]
00001D6A  3E1F                     move.w     D7, [A7]+
00001D6C  486E FFF0                pea.l      [A6 - 0x10]
00001D70  42A7                     clr.l      -[A7]
00001D72  3F3C 0001                move.w     -[A7], 0x1
00001D76  3F07                     move.w     -[A7], D7
00001D78  A8A7                     syscall    SetRect
00001D7A  42A7                     clr.l      -[A7]
00001D7C  486D F254                pea.l      [A5 - 0xDAC]
00001D80  486E FFF0                pea.l      [A6 - 0x10]
00001D84  2F2E FFF8                move.l     -[A7], [A6 - 0x8]
00001D88  3F3C 0064                move.w     -[A7], 0x64 /* 'd' */
00001D8C  2F0C                     move.l     -[A7], A4
00001D8E  1F3C 0001                move.b     -[A7], 0x1
00001D92  42A7                     clr.l      -[A7]
00001D94  1F3C 0001                move.b     -[A7], 0x1
00001D98  3F3C 0044                move.w     -[A7], 0x44 /* 'D' */
00001D9C  A9E7                     syscall    Pack0/ListManager
00001D9E  2B5F AF96                move.l     [A5 - 0x506A], [A7]+
label00001DA2:
00001DA2  486E FDE6                pea.l      [A6 - 0x21A]
00001DA6  302E FFE6                move.w     D0, [A6 - 0x1A]
00001DAA  5240                     addq.w     D0, 1
00001DAC  48C0                     ext.l      D0
00001DAE  2F00                     move.l     -[A7], D0
00001DB0  4EBA EB76                jsr        [PC - 0x148A /* 00000928 */]
00001DB4  486E FDE6                pea.l      [A6 - 0x21A]
00001DB8  486D FE94                pea.l      [A5 - 0x16C]
00001DBC  4EBA EA22                jsr        [PC - 0x15DE /* 000007E0 */]
00001DC0  42A7                     clr.l      -[A7]
00001DC2  486D FE94                pea.l      [A5 - 0x16C]
00001DC6  4EAD 0222                jsr        [A5 + 0x222 /* export_64, CODE:1 @ 0000405A */]
00001DCA  265F                     movea.l    A3, [A7]+
00001DCC  487A 02DC                pea.l      [PC + 0x2DC /* 000020AA, value 0x7546974, pstring "Title: " */]
00001DD0  486D FE94                pea.l      [A5 - 0x16C]
00001DD4  486E F6E2                pea.l      [A6 - 0x91E]
00001DD8  3F3C 0002                move.w     -[A7], 0x2
00001DDC  4EAD 075A                jsr        [A5 + 0x75A /* export_231, CODE:16 @ 00000144 */]
00001DE0  41EE F6E2                lea.l      A0, [A6 - 0x91E]
00001DE4  1F10                     move.b     -[A7], [A0]
00001DE6  3F3C 00FF                move.w     -[A7], 0xFF
00001DEA  4EAD 074A                jsr        [A5 + 0x74A /* export_229, CODE:16 @ 000000B0 */]
00001DEE  43EE FCE6                lea.l      A1, [A6 - 0x31A]
00001DF2  703F                     moveq.l    D0, 0x3F
label00001DF4:
00001DF4  22D8                     move.l     [A1]+, [A0]+
00001DF6  51C8 FFFC                dbf        D0, -0x6 /* 00001DF4 */
00001DFA  486E FCE6                pea.l      [A6 - 0x31A]
00001DFE  3F3C 0023                move.w     -[A7], 0x23 /* '#' */
00001E02  4EBA FE86                jsr        [PC - 0x17A /* 00001C8A */]
00001E06  2F2E FDEE                move.l     -[A7], [A6 - 0x212]
00001E0A  486D FE94                pea.l      [A5 - 0x16C]
00001E0E  4EAD 0202                jsr        [A5 + 0x202 /* export_60, CODE:1 @ 00004016 */]
00001E12  487A 0288                pea.l      [PC + 0x288 /* 0000209C, value 0xD466972 '\rFir', pstring "First Block: " */]
00001E16  486D FE94                pea.l      [A5 - 0x16C]
00001E1A  486E F6E2                pea.l      [A6 - 0x91E]
00001E1E  3F3C 0002                move.w     -[A7], 0x2
00001E22  4EAD 075A                jsr        [A5 + 0x75A /* export_231, CODE:16 @ 00000144 */]
00001E26  41EE F6E2                lea.l      A0, [A6 - 0x91E]
00001E2A  1F10                     move.b     -[A7], [A0]
00001E2C  3F3C 00FF                move.w     -[A7], 0xFF
00001E30  4EAD 074A                jsr        [A5 + 0x74A /* export_229, CODE:16 @ 000000B0 */]
00001E34  43EE FBE6                lea.l      A1, [A6 - 0x41A]
00001E38  703F                     moveq.l    D0, 0x3F
label00001E3A:
00001E3A  22D8                     move.l     [A1]+, [A0]+
00001E3C  51C8 FFFC                dbf        D0, -0x6 /* 00001E3A */
00001E40  486E FBE6                pea.l      [A6 - 0x41A]
00001E44  3F3C 0015                move.w     -[A7], 0x15
00001E48  4EBA FE40                jsr        [PC - 0x1C0 /* 00001C8A */]
00001E4C  0CAD 0000 0200 A4EA      cmpi.l     [A5 - 0x5B16], 0x200
00001E54  6612                     bne        +0x14 /* 00001E68 */
00001E56  202E FDF2                move.l     D0, [A6 - 0x20E]
00001E5A  E288                     lsr        D0, 1
00001E5C  2F00                     move.l     -[A7], D0
00001E5E  486D FE94                pea.l      [A5 - 0x16C]
00001E62  4EAD 0202                jsr        [A5 + 0x202 /* export_60, CODE:1 @ 00004016 */]
00001E66  600C                     bra        +0xE /* 00001E74 */
label00001E68:
00001E68  2F2E FDF2                move.l     -[A7], [A6 - 0x20E]
00001E6C  486D FE94                pea.l      [A5 - 0x16C]
00001E70  4EAD 0202                jsr        [A5 + 0x202 /* export_60, CODE:1 @ 00004016 */]
label00001E74:
00001E74  487A 021E                pea.l      [PC + 0x21E /* 00002094, value 0x653697A, pstring "Size: " */]
00001E78  486D FE94                pea.l      [A5 - 0x16C]
00001E7C  487A 0214                pea.l      [PC + 0x214 /* 00002092, value 0x14B0653 */]
00001E80  486E F6E2                pea.l      [A6 - 0x91E]
00001E84  3F3C 0003                move.w     -[A7], 0x3
00001E88  4EAD 075A                jsr        [A5 + 0x75A /* export_231, CODE:16 @ 00000144 */]
00001E8C  41EE F6E2                lea.l      A0, [A6 - 0x91E]
00001E90  1F10                     move.b     -[A7], [A0]
00001E92  3F3C 00FF                move.w     -[A7], 0xFF
00001E96  4EAD 074A                jsr        [A5 + 0x74A /* export_229, CODE:16 @ 000000B0 */]
00001E9A  43EE FAE6                lea.l      A1, [A6 - 0x51A]
00001E9E  703F                     moveq.l    D0, 0x3F
label00001EA0:
00001EA0  22D8                     move.l     [A1]+, [A0]+
00001EA2  51C8 FFFC                dbf        D0, -0x6 /* 00001EA0 */
00001EA6  486E FAE6                pea.l      [A6 - 0x51A]
00001EAA  3F3C 000E                move.w     -[A7], 0xE
00001EAE  4EBA FDDA                jsr        [PC - 0x226 /* 00001C8A */]
00001EB2  302E FFE6                move.w     D0, [A6 - 0x1A]
00001EB6  48C0                     ext.l      D0
00001EB8  2F00                     move.l     -[A7], D0
00001EBA  486D FE94                pea.l      [A5 - 0x16C]
00001EBE  4EAD 0202                jsr        [A5 + 0x202 /* export_60, CODE:1 @ 00004016 */]
00001EC2  487A 01BE                pea.l      [PC + 0x1BE /* 00002082, value 0xF506172, pstring "Partition Num: " */]
00001EC6  486D FE94                pea.l      [A5 - 0x16C]
00001ECA  486E F6E2                pea.l      [A6 - 0x91E]
00001ECE  3F3C 0002                move.w     -[A7], 0x2
00001ED2  4EAD 075A                jsr        [A5 + 0x75A /* export_231, CODE:16 @ 00000144 */]
00001ED6  41EE F6E2                lea.l      A0, [A6 - 0x91E]
00001EDA  1F10                     move.b     -[A7], [A0]
00001EDC  3F3C 00FF                move.w     -[A7], 0xFF
00001EE0  4EAD 074A                jsr        [A5 + 0x74A /* export_229, CODE:16 @ 000000B0 */]
00001EE4  43EE F9E6                lea.l      A1, [A6 - 0x61A]
00001EE8  703F                     moveq.l    D0, 0x3F
label00001EEA:
00001EEA  22D8                     move.l     [A1]+, [A0]+
00001EEC  51C8 FFFC                dbf        D0, -0x6 /* 00001EEA */
00001EF0  486E F9E6                pea.l      [A6 - 0x61A]
00001EF4  3F3C 0011                move.w     -[A7], 0x11
00001EF8  4EBA FD90                jsr        [PC - 0x270 /* 00001C8A */]
00001EFC  486E FDF6                pea.l      [A6 - 0x20A]
00001F00  486D FE94                pea.l      [A5 - 0x16C]
00001F04  7020                     moveq.l    D0, 0x20
00001F06  2F00                     move.l     -[A7], D0
00001F08  4EAD 0112                jsr        [A5 + 0x112 /* export_30, CODE:1 @ 00003A42 */]
00001F0C  42A7                     clr.l      -[A7]
00001F0E  486D FE94                pea.l      [A5 - 0x16C]
00001F12  4EAD 0222                jsr        [A5 + 0x222 /* export_64, CODE:1 @ 0000405A */]
00001F16  265F                     movea.l    A3, [A7]+
00001F18  487A 0156                pea.l      [PC + 0x156 /* 00002070, value 0x10506172, pstring "Partition Name: " */]
00001F1C  486D FE94                pea.l      [A5 - 0x16C]
00001F20  486E F6E2                pea.l      [A6 - 0x91E]
00001F24  3F3C 0002                move.w     -[A7], 0x2
00001F28  4EAD 075A                jsr        [A5 + 0x75A /* export_231, CODE:16 @ 00000144 */]
00001F2C  41EE F6E2                lea.l      A0, [A6 - 0x91E]
00001F30  1F10                     move.b     -[A7], [A0]
00001F32  3F3C 00FF                move.w     -[A7], 0xFF
00001F36  4EAD 074A                jsr        [A5 + 0x74A /* export_229, CODE:16 @ 000000B0 */]
00001F3A  43EE F8E6                lea.l      A1, [A6 - 0x71A]
00001F3E  703F                     moveq.l    D0, 0x3F
label00001F40:
00001F40  22D8                     move.l     [A1]+, [A0]+
00001F42  51C8 FFFC                dbf        D0, -0x6 /* 00001F40 */
00001F46  486E F8E6                pea.l      [A6 - 0x71A]
00001F4A  3F3C 0032                move.w     -[A7], 0x32 /* '2' */
00001F4E  4EBA FD3A                jsr        [PC - 0x2C6 /* 00001C8A */]
00001F52  486E FE16                pea.l      [A6 - 0x1EA]
00001F56  486D FE94                pea.l      [A5 - 0x16C]
00001F5A  7020                     moveq.l    D0, 0x20
00001F5C  2F00                     move.l     -[A7], D0
00001F5E  4EAD 0112                jsr        [A5 + 0x112 /* export_30, CODE:1 @ 00003A42 */]
00001F62  42A7                     clr.l      -[A7]
00001F64  486D FE94                pea.l      [A5 - 0x16C]
00001F68  4EAD 0222                jsr        [A5 + 0x222 /* export_64, CODE:1 @ 0000405A */]
00001F6C  265F                     movea.l    A3, [A7]+
00001F6E  487A 00EE                pea.l      [PC + 0xEE /* 0000205E, value 0x10506172, pstring "Partition Type: " */]
00001F72  486D FE94                pea.l      [A5 - 0x16C]
00001F76  486E F6E2                pea.l      [A6 - 0x91E]
00001F7A  3F3C 0002                move.w     -[A7], 0x2
00001F7E  4EAD 075A                jsr        [A5 + 0x75A /* export_231, CODE:16 @ 00000144 */]
00001F82  41EE F6E2                lea.l      A0, [A6 - 0x91E]
00001F86  1F10                     move.b     -[A7], [A0]
00001F88  3F3C 00FF                move.w     -[A7], 0xFF
00001F8C  4EAD 074A                jsr        [A5 + 0x74A /* export_229, CODE:16 @ 000000B0 */]
00001F90  43EE F7E6                lea.l      A1, [A6 - 0x81A]
00001F94  703F                     moveq.l    D0, 0x3F
label00001F96:
00001F96  22D8                     move.l     [A1]+, [A0]+
00001F98  51C8 FFFC                dbf        D0, -0x6 /* 00001F96 */
00001F9C  486E F7E6                pea.l      [A6 - 0x81A]
00001FA0  3F3C 0032                move.w     -[A7], 0x32 /* '2' */
00001FA4  4EBA FCE4                jsr        [PC - 0x31C /* 00001C8A */]
00001FA8  486E FCE6                pea.l      [A6 - 0x31A]
00001FAC  486E FBE6                pea.l      [A6 - 0x41A]
00001FB0  486E FAE6                pea.l      [A6 - 0x51A]
00001FB4  486E F9E6                pea.l      [A6 - 0x61A]
00001FB8  700D                     moveq.l    D0, 0x0D
00001FBA  41BC 00FF 323C           .invalid   0, 0xFF323C // invalid opcode 4 with b == 6
00001FC0  0100                     btst       D0, D0
00001FC2  1200                     move.b     D1, D0
00001FC4  3D41 F6E0                move.w     [A6 - 0x920], D1
00001FC8  486E F6E0                pea.l      [A6 - 0x920]
00001FCC  486E F8E6                pea.l      [A6 - 0x71A]
00001FD0  486E F7E6                pea.l      [A6 - 0x81A]
00001FD4  486E F6E2                pea.l      [A6 - 0x91E]
00001FD8  3F3C 0007                move.w     -[A7], 0x7
00001FDC  4EAD 075A                jsr        [A5 + 0x75A /* export_231, CODE:16 @ 00000144 */]
00001FE0  41EE F6E2                lea.l      A0, [A6 - 0x91E]
00001FE4  1F10                     move.b     -[A7], [A0]
00001FE6  3F3C 00FF                move.w     -[A7], 0xFF
00001FEA  4EAD 074A                jsr        [A5 + 0x74A /* export_229, CODE:16 @ 000000B0 */]
00001FEE  43ED FE94                lea.l      A1, [A5 - 0x16C]
00001FF2  703F                     moveq.l    D0, 0x3F
label00001FF4:
00001FF4  22D8                     move.l     [A1]+, [A0]+
00001FF6  51C8 FFFC                dbf        D0, -0x6 /* 00001FF4 */
00001FFA  41ED FE94                lea.l      A0, [A5 - 0x16C]
00001FFE  2008                     move.l     D0, A0
00002000  5280                     addq.l     D0, 1
00002002  2F00                     move.l     -[A7], D0
00002004  4240                     clr.w      D0
00002006  102D FE94                move.b     D0, [A5 - 0x16C]
0000200A  3F00                     move.w     -[A7], D0
0000200C  2F2E FFE6                move.l     -[A7], [A6 - 0x1A]
00002010  2F2D AF96                move.l     -[A7], [A5 - 0x506A]
00002014  3F3C 0058                move.w     -[A7], 0x58 /* 'X' */
00002018  A9E7                     syscall    Pack0/ListManager
0000201A  526E FFE6                addq.w     [A6 - 0x1A], 1
0000201E  BE6E FFE6                cmp.w      D7, [A6 - 0x1A]
00002022  6600 FD7E                bne        -0x280 /* 00001DA2 */
label00002026:
00002026  487A FAAA                pea.l      [PC - 0x556 /* 00001AD2, value 0x4E56FFF4 */]
0000202A  486E FFEA                pea.l      [A6 - 0x16]
0000202E  A991                     syscall    ModalDialog
00002030  7001                     moveq.l    D0, 0x01
00002032  B06E FFEA                cmp.w      D0, [A6 - 0x16]
00002036  66EE                     bne        -0x10 /* 00002026 */
00002038  2F0C                     move.l     -[A7], A4
0000203A  A983                     syscall    DisposeDialog
0000203C  2F2D F21C                move.l     -[A7], [A5 - 0xDE4]
00002040  A873                     syscall    SetPort
00002042  2F2D F21C                move.l     -[A7], [A5 - 0xDE4]
00002046  A915                     syscall    ShowWindow
label00002048:
00002048  4CDF 1880                movem.l    D7,A3,A4, [A7]+
0000204C  4E5E                     unlink     A6
0000204E  4E75                     rts
00002050  8A44 4F50 4152 5449 4... dc.b       "DOPARTINFO" + 84 constant bytes
export_203:
fn000020B2:
000020B2  4E56 FDF6                link       A6, -0x020A
000020B6  48E7 0108                movem.l    -[A7], D7,A4
000020BA  7E01                     moveq.l    D7, 0x01
000020BC  486E FDFA                pea.l      [A6 - 0x206]
000020C0  7001                     moveq.l    D0, 0x01
000020C2  2F00                     move.l     -[A7], D0
000020C4  4EBA E862                jsr        [PC - 0x179E /* 00000928 */]
000020C8  0C6E 504D FDFA           cmpi.w     [A6 - 0x206], 0x504D /* 'PM' */
000020CE  6704                     beq        +0x6 /* 000020D4 */
000020D0  6000 00B6                bra        +0xB8 /* 00002188 */
label000020D4:
000020D4  486E FDFA                pea.l      [A6 - 0x206]
000020D8  3007                     move.w     D0, D7
000020DA  48C0                     ext.l      D0
000020DC  2F00                     move.l     -[A7], D0
000020DE  4EBA E848                jsr        [PC - 0x17B8 /* 00000928 */]
000020E2  42A7                     clr.l      -[A7]
000020E4  486E FE2A                pea.l      [A6 - 0x1D6]
000020E8  4EAD 0222                jsr        [A5 + 0x222 /* export_64, CODE:1 @ 0000405A */]
000020EC  285F                     movea.l    A4, [A7]+
000020EE  1F14                     move.b     -[A7], [A4]
000020F0  3F3C 00FF                move.w     -[A7], 0xFF
000020F4  4EAD 074A                jsr        [A5 + 0x74A /* export_229, CODE:16 @ 000000B0 */]
000020F8  41ED FD94                lea.l      A0, [A5 - 0x26C]
000020FC  224C                     movea.l    A1, A4
000020FE  703F                     moveq.l    D0, 0x3F
label00002100:
00002100  20D9                     move.l     [A0]+, [A1]+
00002102  51C8 FFFC                dbf        D0, -0x6 /* 00002100 */
00002106  4267                     clr.w      -[A7]
00002108  487A 0094                pea.l      [PC + 0x94 /* 0000219E, value 0x9417070 '\tApp', pstring "Apple_HFS" */]
0000210C  41ED FD94                lea.l      A0, [A5 - 0x26C]
00002110  1F10                     move.b     -[A7], [A0]
00002112  3F3C 00FF                move.w     -[A7], 0xFF
00002116  4EAD 074A                jsr        [A5 + 0x74A /* export_229, CODE:16 @ 000000B0 */]
0000211A  2F08                     move.l     -[A7], A0
0000211C  1F3C 0001                move.b     -[A7], 0x1
00002120  4267                     clr.w      -[A7]
00002122  4EAD 0132                jsr        [A5 + 0x132 /* export_34, CODE:1 @ 00003A90 */]
00002126  101F                     move.b     D0, [A7]+
00002128  6746                     beq        +0x48 /* 00002170 */
0000212A  486D B202                pea.l      [A5 - 0x4DFE]
0000212E  486E FFFA                pea.l      [A6 - 0x6]
00002132  7004                     moveq.l    D0, 0x04
00002134  2F00                     move.l     -[A7], D0
00002136  4EAD 0112                jsr        [A5 + 0x112 /* export_30, CODE:1 @ 00003A42 */]
0000213A  4AAE FFFA                tst.l      [A6 - 0x6]
0000213E  6616                     bne        +0x18 /* 00002156 */
00002140  4EAD 006A                jsr        [A5 + 0x6A /* export_9, CODE:1 @ 00000272 */]
00002144  3007                     move.w     D0, D7
00002146  41BC 0014 E740           .invalid   0, 0x14E740 // invalid opcode 4 with b == 6
0000214C  41ED A6A8                lea.l      A0, [A5 - 0x5958]
00002150  2D70 0000 FFFA           move.l     [A6 - 0x6], [A0 + D0.w]
label00002156:
00002156  4AAE FFFA                tst.l      [A6 - 0x6]
0000215A  6714                     beq        +0x16 /* 00002170 */
0000215C  4EAD 0052                jsr        [A5 + 0x52 /* export_6, CODE:1 @ 000001A4 */]
00002160  2F2E FFFA                move.l     -[A7], [A6 - 0x6]
00002164  3F3C 0020                move.w     -[A7], 0x20 /* ' ' */
00002168  486D B1FA                pea.l      [A5 - 0x4E06]
0000216C  4EAD 044A                jsr        [A5 + 0x44A /* export_133, CODE:4 @ 00000A48 */]
label00002170:
00002170  5247                     addq.w     D7, 1
00002172  3007                     move.w     D0, D7
00002174  48C0                     ext.l      D0
00002176  B0AE FDFE                cmp.l      D0, [A6 - 0x202]
0000217A  5EC0                     sgt        D0
0000217C  4A6D F1FC                tst.w      [A5 - 0xE04]
00002180  56C1                     sne        D1
00002182  8001                     or.b       D0, D1
00002184  6700 FF4E                beq        -0xB0 /* 000020D4 */
label00002188:
00002188  4CDF 1080                movem.l    D7,A4, [A7]+
0000218C  4E5E                     unlink     A6
0000218E  4E75                     rts
00002190  8A5A 4552 4F41 4C4C 4... dc.b       "ZEROALLHFS" + 10 constant bytes
fn000021A8:
000021A8  4E56 FCFC                link       A6, -0x0304
000021AC  48E7 0300                movem.l    -[A7], D6,D7
000021B0  486E FE00                pea.l      [A6 - 0x200]
000021B4  302E 000C                move.w     D0, [A6 + 0xC]
000021B8  48C0                     ext.l      D0
000021BA  2F00                     move.l     -[A7], D0
000021BC  4EBA E76A                jsr        [PC - 0x1896 /* 00000928 */]
000021C0  4247                     clr.w      D7
000021C2  6016                     bra        +0x18 /* 000021DA */
label000021C4:
000021C4  3007                     move.w     D0, D7
000021C6  41BC 001F 7200           .invalid   0, 0x1F7200 // invalid opcode 4 with b == 6
000021CC  43BC 00FF 41EE           .invalid   1, 0xFF41EE // invalid opcode 4 with b == 6
000021D2  FE10 1181                .unknown   0xFE10 0x1181 (W = 7)
000021D6  0000 5247                ori.b      D0, 0x47 /* 'G' */
label000021DA:
000021DA  701F                     moveq.l    D0, 0x1F
000021DC  B047                     cmp.w      D0, D7
000021DE  6CE4                     bge        -0x1A /* 000021C4 */
000021E0  486E FCFC                pea.l      [A6 - 0x304]
000021E4  2F2E 0008                move.l     -[A7], [A6 + 0x8]
000021E8  4EAD 01E2                jsr        [A5 + 0x1E2 /* export_56, CODE:1 @ 00003D96 */]
000021EC  4246                     clr.w      D6
000021EE  1C2E FCFC                move.b     D6, [A6 - 0x304]
000021F2  42A7                     clr.l      -[A7]
000021F4  486E FCFC                pea.l      [A6 - 0x304]
000021F8  4EAD 022A                jsr        [A5 + 0x22A /* export_65, CODE:1 @ 00004090 */]
000021FC  486E FE10                pea.l      [A6 - 0x1F0]
00002200  3006                     move.w     D0, D6
00002202  48C0                     ext.l      D0
00002204  2F00                     move.l     -[A7], D0
00002206  4EAD 0112                jsr        [A5 + 0x112 /* export_30, CODE:1 @ 00003A42 */]
0000220A  486E FE00                pea.l      [A6 - 0x200]
0000220E  302E 000C                move.w     D0, [A6 + 0xC]
00002212  48C0                     ext.l      D0
00002214  2F00                     move.l     -[A7], D0
00002216  4EBA E74A                jsr        [PC - 0x18B6 /* 00000962 */]
0000221A  4CDF 00C0                movem.l    D6,D7, [A7]+
0000221E  4E5E                     unlink     A6
00002220  205F                     movea.l    A0, [A7]+
00002222  5C4F                     addq.w     A7, 6
00002224  4ED0                     jmp        [A0]
00002226  8D4E 414D 4550 4152 5... dc.b       "NAMEPARTITION"
fn00002236:
00002236  4E56 FAFC                link       A6, -0x0504
0000223A  48E7 0700                movem.l    -[A7], D5,D6,D7
0000223E  3A2E 000A                move.w     D5, [A6 + 0xA]
00002242  3005                     move.w     D0, D5
00002244  48C0                     ext.l      D0
00002246  2F00                     move.l     -[A7], D0
00002248  486E FBFC                pea.l      [A6 - 0x404]
0000224C  4EAD 0202                jsr        [A5 + 0x202 /* export_60, CODE:1 @ 00004016 */]
00002250  486E FE00                pea.l      [A6 - 0x200]
00002254  3005                     move.w     D0, D5
00002256  5440                     addq.w     D0, 2
00002258  48C0                     ext.l      D0
0000225A  2F00                     move.l     -[A7], D0
0000225C  4EBA E6CA                jsr        [PC - 0x1936 /* 00000928 */]
00002260  4247                     clr.w      D7
00002262  6016                     bra        +0x18 /* 0000227A */
label00002264:
00002264  3007                     move.w     D0, D7
00002266  41BC 001F 7200           .invalid   0, 0x1F7200 // invalid opcode 4 with b == 6
0000226C  43BC 00FF 41EE           .invalid   1, 0xFF41EE // invalid opcode 4 with b == 6
00002272  FE10 1181                .unknown   0xFE10 0x1181 (W = 7)
00002276  0000 5247                ori.b      D0, 0x47 /* 'G' */
label0000227A:
0000227A  701F                     moveq.l    D0, 0x1F
0000227C  B047                     cmp.w      D0, D7
0000227E  6CE4                     bge        -0x1A /* 00002264 */
00002280  7001                     moveq.l    D0, 0x01
00002282  B06E 0008                cmp.w      D0, [A6 + 0x8]
00002286  6610                     bne        +0x12 /* 00002298 */
00002288  486E FCFC                pea.l      [A6 - 0x304]
0000228C  2F3C 0004 0E74           move.l     -[A7], 0x40E74
00002292  4EAD 01E2                jsr        [A5 + 0x1E2 /* export_56, CODE:1 @ 00003D96 */]
00002296  600E                     bra        +0x10 /* 000022A6 */
label00002298:
00002298  486E FCFC                pea.l      [A6 - 0x304]
0000229C  2F3C 0005 0E74           move.l     -[A7], 0x50E74
000022A2  4EAD 01E2                jsr        [A5 + 0x1E2 /* export_56, CODE:1 @ 00003D96 */]
label000022A6:
000022A6  486E FCFC                pea.l      [A6 - 0x304]
000022AA  486E FBFC                pea.l      [A6 - 0x404]
000022AE  486E FAFC                pea.l      [A6 - 0x504]
000022B2  3F3C 0002                move.w     -[A7], 0x2
000022B6  4EAD 075A                jsr        [A5 + 0x75A /* export_231, CODE:16 @ 00000144 */]
000022BA  41EE FAFC                lea.l      A0, [A6 - 0x504]
000022BE  1F10                     move.b     -[A7], [A0]
000022C0  3F3C 00FF                move.w     -[A7], 0xFF
000022C4  4EAD 074A                jsr        [A5 + 0x74A /* export_229, CODE:16 @ 000000B0 */]
000022C8  43EE FCFC                lea.l      A1, [A6 - 0x304]
000022CC  703F                     moveq.l    D0, 0x3F
label000022CE:
000022CE  22D8                     move.l     [A1]+, [A0]+
000022D0  51C8 FFFC                dbf        D0, -0x6 /* 000022CE */
000022D4  4246                     clr.w      D6
000022D6  1C2E FCFC                move.b     D6, [A6 - 0x304]
000022DA  42A7                     clr.l      -[A7]
000022DC  486E FCFC                pea.l      [A6 - 0x304]
000022E0  4EAD 022A                jsr        [A5 + 0x22A /* export_65, CODE:1 @ 00004090 */]
000022E4  486E FE10                pea.l      [A6 - 0x1F0]
000022E8  3006                     move.w     D0, D6
000022EA  48C0                     ext.l      D0
000022EC  2F00                     move.l     -[A7], D0
000022EE  4EAD 0112                jsr        [A5 + 0x112 /* export_30, CODE:1 @ 00003A42 */]
000022F2  486E FE00                pea.l      [A6 - 0x200]
000022F6  3005                     move.w     D0, D5
000022F8  5440                     addq.w     D0, 2
000022FA  48C0                     ext.l      D0
000022FC  2F00                     move.l     -[A7], D0
000022FE  4EBA E662                jsr        [PC - 0x199E /* 00000962 */]
00002302  4CDF 00E0                movem.l    D5,D6,D7, [A7]+
00002306  4E5E                     unlink     A6
00002308  2E9F                     move.l     [A7], [A7]+
0000230A  4E75                     rts
0000230C  884E 414D 455A 4F4E 4... dc.b       "NAMEZONE"
export_204:
00002318  4E56 0000                link       A6, 0
0000231C  302E 0008                move.w     D0, [A6 + 0x8]
00002320  5B40                     subq.w     D0, 5
00002322  6712                     beq        +0x14 /* 00002336 */
00002324  5340                     subq.w     D0, 1
00002326  6740                     beq        +0x42 /* 00002368 */
00002328  5340                     subq.w     D0, 1
0000232A  673C                     beq        +0x3E /* 00002368 */
0000232C  5340                     subq.w     D0, 1
0000232E  6700 0092                beq        +0x94 /* 000023C2 */
00002332  6000 00B6                bra        +0xB8 /* 000023EA */
label00002336:
00002336  0CAD 003F 7FFF A4EE      cmpi.l     [A5 - 0x5B12], 0x3F7FFF
0000233E  6F12                     ble        +0x14 /* 00002352 */
00002340  3F3C 0080                move.w     -[A7], 0x80
00002344  2F3C 003F 7F9F           move.l     -[A7], 0x3F7F9F
0000234A  4EBA EDB6                jsr        [PC - 0x124A /* 00001102 */]
0000234E  6000 009A                bra        +0x9C /* 000023EA */
label00002352:
00002352  3F3C 0080                move.w     -[A7], 0x80
00002356  202D A4EE                move.l     D0, [A5 - 0x5B12]
0000235A  7260                     moveq.l    D1, 0x60
0000235C  9081                     sub.l      D0, D1
0000235E  2F00                     move.l     -[A7], D0
00002360  4EBA EDA0                jsr        [PC - 0x1260 /* 00001102 */]
00002364  6000 0084                bra        +0x86 /* 000023EA */
label00002368:
00002368  202D A4EE                move.l     D0, [A5 - 0x5B12]
0000236C  7260                     moveq.l    D1, 0x60
0000236E  9081                     sub.l      D0, D1
00002370  2B40 FFB8                move.l     [A5 - 0x48], D0
00002374  E288                     lsr        D0, 1
00002376  2B40 FFB8                move.l     [A5 - 0x48], D0
0000237A  08AD 0000 FFBB           bclr.b     [A5 - 0x45], 0x0
00002380  3F3C 0080                move.w     -[A7], 0x80
00002384  2F2D FFB8                move.l     -[A7], [A5 - 0x48]
00002388  4EBA ED78                jsr        [PC - 0x1288 /* 00001102 */]
0000238C  7007                     moveq.l    D0, 0x07
0000238E  B06E 0008                cmp.w      D0, [A6 + 0x8]
00002392  6656                     bne        +0x58 /* 000023EA */
00002394  202D A4EE                move.l     D0, [A5 - 0x5B12]
00002398  90AD FFB8                sub.l      D0, [A5 - 0x48]
0000239C  2B40 FFB8                move.l     [A5 - 0x48], D0
000023A0  3F3C 0080                move.w     -[A7], 0x80
000023A4  202D FFB8                move.l     D0, [A5 - 0x48]
000023A8  7260                     moveq.l    D1, 0x60
000023AA  9081                     sub.l      D0, D1
000023AC  2F00                     move.l     -[A7], D0
000023AE  4EBA ED52                jsr        [PC - 0x12AE /* 00001102 */]
000023B2  2F3C 0E74 0004           move.l     -[A7], 0xE740004
000023B8  3F3C 0001                move.w     -[A7], 0x1
000023BC  4EBA FDEA                jsr        [PC - 0x216 /* 000021A8 */]
000023C0  6028                     bra        +0x2A /* 000023EA */
label000023C2:
000023C2  0CAD 0000 0200 A4EA      cmpi.l     [A5 - 0x5B16], 0x200
000023CA  6610                     bne        +0x12 /* 000023DC */
000023CC  3F3C 0080                move.w     -[A7], 0x80
000023D0  2F3C 0000 2000           move.l     -[A7], 0x2000 /* ' \0' */
000023D6  4EBA ED2A                jsr        [PC - 0x12D6 /* 00001102 */]
000023DA  600E                     bra        +0x10 /* 000023EA */
label000023DC:
000023DC  3F3C 0080                move.w     -[A7], 0x80
000023E0  2F3C 0000 1000           move.l     -[A7], 0x1000
000023E6  4EBA ED1A                jsr        [PC - 0x12E6 /* 00001102 */]
label000023EA:
000023EA  2F3C 0E74 0003           move.l     -[A7], 0xE740003
000023F0  3F3C 0001                move.w     -[A7], 0x1
000023F4  4EBA FDB2                jsr        [PC - 0x24E /* 000021A8 */]
000023F8  4E5E                     unlink     A6
000023FA  205F                     movea.l    A0, [A7]+
000023FC  544F                     addq.w     A7, 2
000023FE  4ED0                     jmp        [A0]
00002400  8944 4F4D 4143 4F4E 4... dc.b       "DOMACONLY"
fn0000240C:
0000240C  4E56 FFD8                link       A6, -0x0028
00002410  48E7 0F08                movem.l    -[A7], D4,D5,D6,D7,A4
00002414  7000                     moveq.l    D0, 0x00
00002416  2D40 FFEA                move.l     [A6 - 0x16], D0
0000241A  7800                     moveq.l    D4, 0x00
0000241C  2F3C 0004 0000           move.l     -[A7], 0x40000
00002422  2F3C 0020 0000           move.l     -[A7], 0x200000 /* ' \0\0' */
00002428  4267                     clr.w      -[A7]
0000242A  4EAD 042A                jsr        [A5 + 0x42A /* export_129, CODE:4 @ 00000774 */]
0000242E  4240                     clr.w      D0
00002430  102D B20B                move.b     D0, [A5 - 0x4DF5]
00002434  41BC 00FF 3D40           .invalid   0, 0xFF3D40 // invalid opcode 4 with b == 6
0000243A  FFF2                     .invalid   <<F/7/7>>
0000243C  41ED B1FA                lea.l      A0, [A5 - 0x4E06]
00002440  2D48 FFFA                move.l     [A6 - 0x6], A0
00002444  2F3C 000C 0000           move.l     -[A7], 0xC0000
0000244A  2F3C 0024 0000           move.l     -[A7], 0x240000 /* '$\0\0' */
00002450  4267                     clr.w      -[A7]
00002452  4EAD 042A                jsr        [A5 + 0x42A /* export_129, CODE:4 @ 00000774 */]
00002456  286E FFFA                movea.l    A4, [A6 - 0x6]
0000245A  7001                     moveq.l    D0, 0x01
0000245C  B06E FFF2                cmp.w      D0, [A6 - 0xE]
00002460  5EC0                     sgt        D0
00002462  7201                     moveq.l    D1, 0x01
00002464  B26C 0010                cmp.w      D1, [A4 + 0x10]
00002468  5EC1                     sgt        D1
0000246A  8001                     or.b       D0, D1
0000246C  6712                     beq        +0x14 /* 00002480 */
0000246E  3F3C 0031                move.w     -[A7], 0x31 /* '1' */
00002472  4EAD 02EA                jsr        [A5 + 0x2EA /* export_89, CODE:2 @ 000004A2 */]
00002476  1B7C 0001 FFF2           move.b     [A5 - 0xE], 0x1
0000247C  6000 019C                bra        +0x19E /* 0000261A */
label00002480:
00002480  4247                     clr.w      D7
label00002482:
00002482  5247                     addq.w     D7, 1
00002484  302C 0010                move.w     D0, [A4 + 0x10]
00002488  48C0                     ext.l      D0
0000248A  81C7                     divs.w     D0, D7
0000248C  720A                     moveq.l    D1, 0x0A
0000248E  B240                     cmp.w      D1, D0
00002490  6FF0                     ble        -0xE /* 00002482 */
00002492  302C 0010                move.w     D0, [A4 + 0x10]
00002496  48C0                     ext.l      D0
00002498  81C7                     divs.w     D0, D7
0000249A  3D40 FFF6                move.w     [A6 - 0xA], D0
0000249E  3D6C 0010 FFD8           move.w     [A6 - 0x28], [A4 + 0x10]
000024A4  7C01                     moveq.l    D6, 0x01
000024A6  6000 016A                bra        +0x16C /* 00002612 */
label000024AA:
000024AA  2F3C 000C 0000           move.l     -[A7], 0xC0000
000024B0  2F3C 0024 0000           move.l     -[A7], 0x240000 /* '$\0\0' */
000024B6  4267                     clr.w      -[A7]
000024B8  4EAD 042A                jsr        [A5 + 0x42A /* export_129, CODE:4 @ 00000774 */]
000024BC  3946 0012                move.w     [A4 + 0x12], D6
000024C0  7008                     moveq.l    D0, 0x08
000024C2  2880                     move.l     [A4], D0
000024C4  7000                     moveq.l    D0, 0x00
000024C6  2940 0014                move.l     [A4 + 0x14], D0
000024CA  2940 0018                move.l     [A4 + 0x18], D0
000024CE  2940 0020                move.l     [A4 + 0x20], D0
000024D2  426C 0010                clr.w      [A4 + 0x10]
000024D6  297C 0C16 8000 000C      move.l     [A4 + 0xC], 0xC168000
000024DE  42A7                     clr.l      -[A7]
000024E0  2F3C 0024 0000           move.l     -[A7], 0x240000 /* '$\0\0' */
000024E6  4267                     clr.w      -[A7]
000024E8  4EAD 0422                jsr        [A5 + 0x422 /* export_128, CODE:4 @ 000006A2 */]
000024EC  7002                     moveq.l    D0, 0x02
000024EE  B06D B1D0                cmp.w      D0, [A5 - 0x4E30]
000024F2  6612                     bne        +0x14 /* 00002506 */
000024F4  3F3C 0031                move.w     -[A7], 0x31 /* '1' */
000024F8  4EAD 02EA                jsr        [A5 + 0x2EA /* export_89, CODE:2 @ 000004A2 */]
000024FC  1B7C 0001 FFF2           move.b     [A5 - 0xE], 0x1
00002502  6000 0116                bra        +0x118 /* 0000261A */
label00002506:
00002506  2F3C 0004 0000           move.l     -[A7], 0x40000
0000250C  2F3C 0020 0000           move.l     -[A7], 0x200000 /* ' \0\0' */
00002512  4267                     clr.w      -[A7]
00002514  4EAD 042A                jsr        [A5 + 0x42A /* export_129, CODE:4 @ 00000774 */]
00002518  486D B208                pea.l      [A5 - 0x4DF8]
0000251C  486E FFEE                pea.l      [A6 - 0x12]
00002520  7004                     moveq.l    D0, 0x04
00002522  2F00                     move.l     -[A7], D0
00002524  4EAD 0112                jsr        [A5 + 0x112 /* export_30, CODE:1 @ 00003A42 */]
00002528  202E FFEE                move.l     D0, [A6 - 0x12]
0000252C  E088                     lsr        D0, 8
0000252E  2D40 FFEE                move.l     [A6 - 0x12], D0
00002532  2F3C 0003 0000           move.l     -[A7], 0x30000
00002538  2F3C 0024 0000           move.l     -[A7], 0x240000 /* '$\0\0' */
0000253E  4267                     clr.w      -[A7]
00002540  4EAD 042A                jsr        [A5 + 0x42A /* export_129, CODE:4 @ 00000774 */]
00002544  486D B210                pea.l      [A5 - 0x4DF0]
00002548  486E FFF4                pea.l      [A6 - 0xC]
0000254C  7002                     moveq.l    D0, 0x02
0000254E  2F00                     move.l     -[A7], D0
00002550  4EAD 0112                jsr        [A5 + 0x112 /* export_30, CODE:1 @ 00003A42 */]
00002554  302E FFF2                move.w     D0, [A6 - 0xE]
00002558  C1EE FFF4                muls.w     D0, [A6 - 0xC]
0000255C  48C0                     ext.l      D0
0000255E  2F00                     move.l     -[A7], D0
00002560  2F2E FFEE                move.l     -[A7], [A6 - 0x12]
00002564  4EAD 024A                jsr        [A5 + 0x24A /* export_69, CODE:1 @ 0000414A */]
00002568  2D5F FFE6                move.l     [A6 - 0x1A], [A7]+
0000256C  202E FFE6                move.l     D0, [A6 - 0x1A]
00002570  D1AE FFEA                add.l      [A6 - 0x16], D0
00002574  3006                     move.w     D0, D6
00002576  48C0                     ext.l      D0
00002578  81C7                     divs.w     D0, D7
0000257A  4840                     swap.w     D0
0000257C  4A40                     tst.w      D0
0000257E  6600 008E                bne        +0x90 /* 0000260E */
00002582  2A2E FFEA                move.l     D5, [A6 - 0x16]
00002586  5385                     subq.l     D5, 1
00002588  2005                     move.l     D0, D5
0000258A  0800 0000                btst.b     D0, 0x0
0000258E  6602                     bne        +0x4 /* 00002592 */
00002590  5385                     subq.l     D5, 1
label00002592:
00002592  4A84                     tst.l      D4
00002594  6608                     bne        +0xA /* 0000259E */
00002596  7860                     moveq.l    D4, 0x60
00002598  2D45 FFDE                move.l     [A6 - 0x22], D5
0000259C  6006                     bra        +0x8 /* 000025A4 */
label0000259E:
0000259E  282E FFDE                move.l     D4, [A6 - 0x22]
000025A2  5284                     addq.l     D4, 1
label000025A4:
000025A4  2D45 FFDE                move.l     [A6 - 0x22], D5
000025A8  3007                     move.w     D0, D7
000025AA  C1EE FFF6                muls.w     D0, [A6 - 0xA]
000025AE  B046                     cmp.w      D0, D6
000025B0  6622                     bne        +0x24 /* 000025D4 */
000025B2  302E FFF6                move.w     D0, [A6 - 0xA]
000025B6  5440                     addq.w     D0, 2
000025B8  3F00                     move.w     -[A7], D0
000025BA  2F3C 0006 0E74           move.l     -[A7], 0x60E74
000025C0  4EAD 00D2                jsr        [A5 + 0xD2 /* export_22, CODE:1 @ 00002EC2 */]
000025C4  3006                     move.w     D0, D6
000025C6  48C0                     ext.l      D0
000025C8  81C7                     divs.w     D0, D7
000025CA  3F00                     move.w     -[A7], D0
000025CC  3F07                     move.w     -[A7], D7
000025CE  4EBA FC66                jsr        [PC - 0x39A /* 00002236 */]
000025D2  6046                     bra        +0x48 /* 0000261A */
label000025D4:
000025D4  202D A4EE                move.l     D0, [A5 - 0x5B12]
000025D8  5280                     addq.l     D0, 1
000025DA  B0AE FFEA                cmp.l      D0, [A6 - 0x16]
000025DE  6C10                     bge        +0x12 /* 000025F0 */
000025E0  3F3C 0031                move.w     -[A7], 0x31 /* '1' */
000025E4  4EAD 02EA                jsr        [A5 + 0x2EA /* export_89, CODE:2 @ 000004A2 */]
000025E8  1B7C 0001 FFF2           move.b     [A5 - 0xE], 0x1
000025EE  602A                     bra        +0x2C /* 0000261A */
label000025F0:
000025F0  3F3C 0080                move.w     -[A7], 0x80
000025F4  2005                     move.l     D0, D5
000025F6  9084                     sub.l      D0, D4
000025F8  5280                     addq.l     D0, 1
000025FA  2F00                     move.l     -[A7], D0
000025FC  4EBA EB04                jsr        [PC - 0x14FC /* 00001102 */]
00002600  3006                     move.w     D0, D6
00002602  48C0                     ext.l      D0
00002604  81C7                     divs.w     D0, D7
00002606  3F00                     move.w     -[A7], D0
00002608  3F07                     move.w     -[A7], D7
0000260A  4EBA FC2A                jsr        [PC - 0x3D6 /* 00002236 */]
label0000260E:
0000260E  5246                     addq.w     D6, 1
00002610  6908                     bvs        +0xA /* 0000261A */
label00002612:
00002612  BC6E FFD8                cmp.w      D6, [A6 - 0x28]
00002616  6F00 FE92                ble        -0x16C /* 000024AA */
label0000261A:
0000261A  4CDF 10F0                movem.l    D4,D5,D6,D7,A4, [A7]+
0000261E  4E5E                     unlink     A6
00002620  4E75                     rts
00002622  8B44 4F5A 4F4E 4550 4... dc.b       "DOZONEPART2"
fn00002630:
00002630  4E56 FFF0                link       A6, -0x0010
00002634  48E7 0F18                movem.l    -[A7], D4,D5,D6,D7,A3,A4
00002638  47ED B1FA                lea.l      A3, [A5 - 0x4E06]
0000263C  2F3C 000C 0000           move.l     -[A7], 0xC0000
00002642  2F3C 0024 0000           move.l     -[A7], 0x240000 /* '$\0\0' */
00002648  4267                     clr.w      -[A7]
0000264A  4EAD 042A                jsr        [A5 + 0x42A /* export_129, CODE:4 @ 00000774 */]
0000264E  284B                     movea.l    A4, A3
00002650  397C 0001 0012           move.w     [A4 + 0x12], 0x1
00002656  7008                     moveq.l    D0, 0x08
00002658  2880                     move.l     [A4], D0
0000265A  7000                     moveq.l    D0, 0x00
0000265C  2940 0014                move.l     [A4 + 0x14], D0
00002660  2940 0018                move.l     [A4 + 0x18], D0
00002664  297C 0C16 C000 000C      move.l     [A4 + 0xC], 0xC16C000
0000266C  700D                     moveq.l    D0, 0x0D
0000266E  B06D ABE8                cmp.w      D0, [A5 - 0x5418]
00002672  6612                     bne        +0x14 /* 00002686 */
00002674  7000                     moveq.l    D0, 0x00
00002676  2940 0020                move.l     [A4 + 0x20], D0
0000267A  426C 0010                clr.w      [A4 + 0x10]
0000267E  297C 0C16 4000 000C      move.l     [A4 + 0xC], 0xC164000
label00002686:
00002686  42A7                     clr.l      -[A7]
00002688  2F3C 0024 0000           move.l     -[A7], 0x240000 /* '$\0\0' */
0000268E  4267                     clr.w      -[A7]
00002690  4EAD 0422                jsr        [A5 + 0x422 /* export_128, CODE:4 @ 000006A2 */]
00002694  4A6D B1D0                tst.w      [A5 - 0x4E30]
00002698  6708                     beq        +0xA /* 000026A2 */
0000269A  4EBA FD70                jsr        [PC - 0x290 /* 0000240C */]
0000269E  6000 0110                bra        +0x112 /* 000027B0 */
label000026A2:
000026A2  2F3C 000C 0000           move.l     -[A7], 0xC0000
000026A8  2F3C 0024 0000           move.l     -[A7], 0x240000 /* '$\0\0' */
000026AE  4267                     clr.w      -[A7]
000026B0  4EAD 042A                jsr        [A5 + 0x42A /* export_129, CODE:4 @ 00000774 */]
000026B4  284B                     movea.l    A4, A3
000026B6  4246                     clr.w      D6
label000026B8:
000026B8  5246                     addq.w     D6, 1
000026BA  302C 0010                move.w     D0, [A4 + 0x10]
000026BE  48C0                     ext.l      D0
000026C0  81C6                     divs.w     D0, D6
000026C2  720A                     moveq.l    D1, 0x0A
000026C4  B240                     cmp.w      D1, D0
000026C6  6FF0                     ble        -0xE /* 000026B8 */
000026C8  302C 0010                move.w     D0, [A4 + 0x10]
000026CC  48C0                     ext.l      D0
000026CE  81C6                     divs.w     D0, D6
000026D0  3A00                     move.w     D5, D0
000026D2  3D45 FFF0                move.w     [A6 - 0x10], D5
000026D6  7E01                     moveq.l    D7, 0x01
000026D8  6000 00CE                bra        +0xD0 /* 000027A8 */
label000026DC:
000026DC  2F3C 000C 0000           move.l     -[A7], 0xC0000
000026E2  2F3C 0024 0000           move.l     -[A7], 0x240000 /* '$\0\0' */
000026E8  4267                     clr.w      -[A7]
000026EA  4EAD 042A                jsr        [A5 + 0x42A /* export_129, CODE:4 @ 00000774 */]
000026EE  3007                     move.w     D0, D7
000026F0  C1C6                     muls.w     D0, D6
000026F2  3940 0012                move.w     [A4 + 0x12], D0
000026F6  7008                     moveq.l    D0, 0x08
000026F8  2880                     move.l     [A4], D0
000026FA  7000                     moveq.l    D0, 0x00
000026FC  2940 0014                move.l     [A4 + 0x14], D0
00002700  2940 0018                move.l     [A4 + 0x18], D0
00002704  700D                     moveq.l    D0, 0x0D
00002706  B06D ABE8                cmp.w      D0, [A5 - 0x5418]
0000270A  6614                     bne        +0x16 /* 00002720 */
0000270C  7000                     moveq.l    D0, 0x00
0000270E  2940 0020                move.l     [A4 + 0x20], D0
00002712  426C 0010                clr.w      [A4 + 0x10]
00002716  297C 0C16 4000 000C      move.l     [A4 + 0xC], 0xC164000
0000271E  6008                     bra        +0xA /* 00002728 */
label00002720:
00002720  297C 0C16 C000 000C      move.l     [A4 + 0xC], 0xC16C000
label00002728:
00002728  42A7                     clr.l      -[A7]
0000272A  2F3C 0024 0000           move.l     -[A7], 0x240000 /* '$\0\0' */
00002730  4267                     clr.w      -[A7]
00002732  4EAD 0422                jsr        [A5 + 0x422 /* export_128, CODE:4 @ 000006A2 */]
00002736  2F3C 000C 0000           move.l     -[A7], 0xC0000
0000273C  2F3C 0024 0000           move.l     -[A7], 0x240000 /* '$\0\0' */
00002742  4267                     clr.w      -[A7]
00002744  4EAD 042A                jsr        [A5 + 0x42A /* export_129, CODE:4 @ 00000774 */]
00002748  082C 0000 001B           btst.b     [A4 + 0x1B], 0x0
0000274E  6604                     bne        +0x6 /* 00002754 */
00002750  53AC 0018                subq.l     [A4 + 0x18], 1
label00002754:
00002754  7001                     moveq.l    D0, 0x01
00002756  B047                     cmp.w      D0, D7
00002758  660C                     bne        +0xE /* 00002766 */
0000275A  7060                     moveq.l    D0, 0x60
0000275C  2940 0014                move.l     [A4 + 0x14], D0
00002760  282C 0018                move.l     D4, [A4 + 0x18]
00002764  6008                     bra        +0xA /* 0000276E */
label00002766:
00002766  2004                     move.l     D0, D4
00002768  5280                     addq.l     D0, 1
0000276A  2940 0014                move.l     [A4 + 0x14], D0
label0000276E:
0000276E  282C 0018                move.l     D4, [A4 + 0x18]
00002772  BA47                     cmp.w      D5, D7
00002774  6612                     bne        +0x14 /* 00002788 */
00002776  3007                     move.w     D0, D7
00002778  5440                     addq.w     D0, 2
0000277A  3F00                     move.w     -[A7], D0
0000277C  2F3C 0006 0E74           move.l     -[A7], 0x60E74
00002782  4EAD 00D2                jsr        [A5 + 0xD2 /* export_22, CODE:1 @ 00002EC2 */]
00002786  6014                     bra        +0x16 /* 0000279C */
label00002788:
00002788  3F3C 0080                move.w     -[A7], 0x80
0000278C  202C 0018                move.l     D0, [A4 + 0x18]
00002790  90AC 0014                sub.l      D0, [A4 + 0x14]
00002794  5280                     addq.l     D0, 1
00002796  2F00                     move.l     -[A7], D0
00002798  4EBA E968                jsr        [PC - 0x1698 /* 00001102 */]
label0000279C:
0000279C  3F07                     move.w     -[A7], D7
0000279E  3F06                     move.w     -[A7], D6
000027A0  4EBA FA94                jsr        [PC - 0x56C /* 00002236 */]
000027A4  5247                     addq.w     D7, 1
000027A6  6908                     bvs        +0xA /* 000027B0 */
label000027A8:
000027A8  BE6E FFF0                cmp.w      D7, [A6 - 0x10]
000027AC  6F00 FF2E                ble        -0xD0 /* 000026DC */
label000027B0:
000027B0  4CDF 18F0                movem.l    D4,D5,D6,D7,A3,A4, [A7]+
000027B4  4E5E                     unlink     A6
000027B6  4E75                     rts
000027B8  8F44 4F5A 4F4E 4550 4... dc.b       "DOZONEPARTITION"
fn000027CA:
000027CA  4E56 0000                link       A6, 0
000027CE  3F3C 0083                move.w     -[A7], 0x83
000027D2  2F3C 0001 AA50           move.l     -[A7], 0x1AA50
000027D8  4EBA E928                jsr        [PC - 0x16D8 /* 00001102 */]
000027DC  3F3C 0084                move.w     -[A7], 0x84
000027E0  2F3C 0000 9000           move.l     -[A7], 0x9000
000027E6  4EBA E91A                jsr        [PC - 0x16E6 /* 00001102 */]
000027EA  3F3C 0082                move.w     -[A7], 0x82
000027EE  2F3C 0000 1800           move.l     -[A7], 0x1800
000027F4  4EBA E90C                jsr        [PC - 0x16F4 /* 00001102 */]
000027F8  3F3C 0080                move.w     -[A7], 0x80
000027FC  202D A4EE                move.l     D0, [A5 - 0x5B12]
00002800  90BC 0002 52B0           sub.l      D0, 0x252B0
00002806  2F00                     move.l     -[A7], D0
00002808  4EBA E8F8                jsr        [PC - 0x1708 /* 00001102 */]
0000280C  2F3C 0E74 0006           move.l     -[A7], 0xE740006
00002812  3F3C 0001                move.w     -[A7], 0x1
00002816  4EBA F990                jsr        [PC - 0x670 /* 000021A8 */]
0000281A  4E5E                     unlink     A6
0000281C  4E75                     rts
0000281E  8844 4F4D 494E 4155 5... dc.b       "DOMINAUX"
fn0000282A:
0000282A  4E56 FFFC                link       A6, -0x0004
0000282E  2F07                     move.l     -[A7], D7
00002830  3F3C 0083                move.w     -[A7], 0x83
00002834  2F3C 0001 AA4E           move.l     -[A7], 0x1AA4E
0000283A  4EBA E8C6                jsr        [PC - 0x173A /* 00001102 */]
0000283E  3F3C 0084                move.w     -[A7], 0x84
00002842  2F3C 0000 9000           move.l     -[A7], 0x9000
00002848  4EBA E8B8                jsr        [PC - 0x1748 /* 00001102 */]
0000284C  3F3C 0082                move.w     -[A7], 0x82
00002850  2F3C 0000 1800           move.l     -[A7], 0x1800
00002856  4EBA E8AA                jsr        [PC - 0x1756 /* 00001102 */]
0000285A  2E2D A4EE                move.l     D7, [A5 - 0x5B12]
0000285E  9EBC 0002 52AE           sub.l      D7, 0x252AE
00002864  E28F                     lsr        D7, 1
00002866  2007                     move.l     D0, D7
00002868  0800 0000                btst.b     D0, 0x0
0000286C  671E                     beq        +0x20 /* 0000288C */
0000286E  3F3C 0080                move.w     -[A7], 0x80
00002872  2007                     move.l     D0, D7
00002874  5280                     addq.l     D0, 1
00002876  2F00                     move.l     -[A7], D0
00002878  4EBA E888                jsr        [PC - 0x1778 /* 00001102 */]
0000287C  3F3C 0087                move.w     -[A7], 0x87
00002880  2007                     move.l     D0, D7
00002882  5380                     subq.l     D0, 1
00002884  2F00                     move.l     -[A7], D0
00002886  4EBA E87A                jsr        [PC - 0x1786 /* 00001102 */]
0000288A  6014                     bra        +0x16 /* 000028A0 */
label0000288C:
0000288C  3F3C 0080                move.w     -[A7], 0x80
00002890  2F07                     move.l     -[A7], D7
00002892  4EBA E86E                jsr        [PC - 0x1792 /* 00001102 */]
00002896  3F3C 0087                move.w     -[A7], 0x87
0000289A  2F07                     move.l     -[A7], D7
0000289C  4EBA E864                jsr        [PC - 0x179C /* 00001102 */]
label000028A0:
000028A0  2F3C 0E74 0006           move.l     -[A7], 0xE740006
000028A6  3F3C 0001                move.w     -[A7], 0x1
000028AA  4EBA F8FC                jsr        [PC - 0x704 /* 000021A8 */]
000028AE  2E1F                     move.l     D7, [A7]+
000028B0  4E5E                     unlink     A6
000028B2  4E75                     rts
000028B4  8944 4F48 414C 4641 5... dc.b       "DOHALFAUX"
fn000028C0:
000028C0  4E56 FFF8                link       A6, -0x0008
000028C4  3F3C 0083                move.w     -[A7], 0x83
000028C8  2F3C 0001 AA4E           move.l     -[A7], 0x1AA4E
000028CE  4EBA E832                jsr        [PC - 0x17CE /* 00001102 */]
000028D2  3F3C 0084                move.w     -[A7], 0x84
000028D6  2F3C 0000 9000           move.l     -[A7], 0x9000
000028DC  4EBA E824                jsr        [PC - 0x17DC /* 00001102 */]
000028E0  3F3C 0082                move.w     -[A7], 0x82
000028E4  2F3C 0000 1800           move.l     -[A7], 0x1800
000028EA  4EBA E816                jsr        [PC - 0x17EA /* 00001102 */]
000028EE  3F3C 0080                move.w     -[A7], 0x80
000028F2  2F3C 0000 2000           move.l     -[A7], 0x2000 /* ' \0' */
000028F8  4EBA E808                jsr        [PC - 0x17F8 /* 00001102 */]
000028FC  2D7C 0002 72AE FFF8      move.l     [A6 - 0x8], 0x272AE
00002904  202D A4EE                move.l     D0, [A5 - 0x5B12]
00002908  90AE FFF8                sub.l      D0, [A6 - 0x8]
0000290C  2D40 FFFC                move.l     [A6 - 0x4], D0
00002910  3F3C 0087                move.w     -[A7], 0x87
00002914  2F2E FFFC                move.l     -[A7], [A6 - 0x4]
00002918  4EBA E7E8                jsr        [PC - 0x1818 /* 00001102 */]
0000291C  2F3C 0E74 0006           move.l     -[A7], 0xE740006
00002922  3F3C 0001                move.w     -[A7], 0x1
00002926  4EBA F880                jsr        [PC - 0x780 /* 000021A8 */]
0000292A  4E5E                     unlink     A6
0000292C  4E75                     rts
0000292E  8844 4F4D 4158 4155 5... dc.b       "DOMAXAUX"
export_205:
fn0000293A:
0000293A  4E56 0000                link       A6, 0
0000293E  1D7C 0001 0008           move.b     [A6 + 0x8], 0x1
00002944  70FF                     moveq.l    D0, 0xFFFFFFFF
00002946  B0AD A4E6                cmp.l      D0, [A5 - 0x5B1A]
0000294A  6612                     bne        +0x14 /* 0000295E */
0000294C  42A7                     clr.l      -[A7]
0000294E  3F2D FFBC                move.w     -[A7], [A5 - 0x44]
00002952  4EAD 0142                jsr        [A5 + 0x142 /* export_36, CODE:1 @ 00003AE0 */]
00002956  4A9F                     tst.l      [A7]+
00002958  6604                     bne        +0x6 /* 0000295E */
0000295A  422E 0008                clr.b      [A6 + 0x8]
label0000295E:
0000295E  4E5E                     unlink     A6
00002960  4E75                     rts
00002962  8C48 4153 5241 4D44 5... dc.b       "HASRAMDRIVER"
export_206:
fn00002972:
00002972  4E56 0000                link       A6, 0
00002976  4267                     clr.w      -[A7]
00002978  4EBA FFC0                jsr        [PC - 0x40 /* 0000293A */]
0000297C  101F                     move.b     D0, [A7]+
0000297E  670C                     beq        +0xE /* 0000298C */
00002980  4267                     clr.w      -[A7]
00002982  4EAD 05BA                jsr        [A5 + 0x5BA /* export_179, CODE:5 @ 00003544 */]
00002986  101F                     move.b     D0, [A7]+
00002988  6602                     bne        +0x4 /* 0000298C */
0000298A  607E                     bra        +0x80 /* 00002A0A */
label0000298C:
0000298C  4267                     clr.w      -[A7]
0000298E  4EAD 00CA                jsr        [A5 + 0xCA /* export_21, CODE:1 @ 00002DC2 */]
00002992  101F                     move.b     D0, [A7]+
00002994  660A                     bne        +0xC /* 000029A0 */
00002996  3F3C 0027                move.w     -[A7], 0x27 /* '\'' */
0000299A  4EAD 02EA                jsr        [A5 + 0x2EA /* export_89, CODE:2 @ 000004A2 */]
0000299E  606A                     bra        +0x6C /* 00002A0A */
label000029A0:
000029A0  2F2D F21C                move.l     -[A7], [A5 - 0xDE4]
000029A4  A916                     syscall    HideWindow
000029A6  102E 0008                move.b     D0, [A6 + 0x8]
000029AA  6722                     beq        +0x24 /* 000029CE */
000029AC  4267                     clr.w      -[A7]
000029AE  1F3C 0001                move.b     -[A7], 0x1
000029B2  4EAD 054A                jsr        [A5 + 0x54A /* export_165, CODE:5 @ 00001E50 */]
000029B6  101F                     move.b     D0, [A7]+
000029B8  660C                     bne        +0xE /* 000029C6 */
000029BA  2F2D F21C                move.l     -[A7], [A5 - 0xDE4]
000029BE  A915                     syscall    ShowWindow
000029C0  4EAD 00AA                jsr        [A5 + 0xAA /* export_17, CODE:1 @ 00002748 */]
000029C4  6044                     bra        +0x46 /* 00002A0A */
label000029C6:
000029C6  4EBA D764                jsr        [PC - 0x289C /* 0000012C */]
000029CA  4EAD 056A                jsr        [A5 + 0x56A /* export_169, CODE:5 @ 0000248C */]
label000029CE:
000029CE  7001                     moveq.l    D0, 0x01
000029D0  2F00                     move.l     -[A7], D0
000029D2  3F3C 0001                move.w     -[A7], 0x1
000029D6  4EAD 0442                jsr        [A5 + 0x442 /* export_132, CODE:4 @ 000008D2 */]
000029DA  4240                     clr.w      D0
000029DC  102D B201                move.b     D0, [A5 - 0x4DFF]
000029E0  3B40 A4F2                move.w     [A5 - 0x5B0E], D0
000029E4  4EAD 06FA                jsr        [A5 + 0x6FA /* export_219, CODE:13 @ 00000E88 */]
000029E8  4EAD 05CA                jsr        [A5 + 0x5CA /* export_181, CODE:5 @ 000035E0 */]
000029EC  4267                     clr.w      -[A7]
000029EE  4EAD 0572                jsr        [A5 + 0x572 /* export_170, CODE:5 @ 0000299E */]
000029F2  101F                     move.b     D0, [A7]+
000029F4  6704                     beq        +0x6 /* 000029FA */
000029F6  4EBA 019A                jsr        [PC + 0x19A /* 00002B92 */]
label000029FA:
000029FA  2F2D F21C                move.l     -[A7], [A5 - 0xDE4]
000029FE  A873                     syscall    SetPort
00002A00  2F2D F21C                move.l     -[A7], [A5 - 0xDE4]
00002A04  A915                     syscall    ShowWindow
00002A06  4EAD 00AA                jsr        [A5 + 0xAA /* export_17, CODE:1 @ 00002748 */]
label00002A0A:
00002A0A  4E5E                     unlink     A6
00002A0C  205F                     movea.l    A0, [A7]+
00002A0E  544F                     addq.w     A7, 2
00002A10  4ED0                     jmp        [A0]
00002A12  8D44 4F43 5553 544F 4... dc.b       "DOCUSTOMSTUFF"
export_207:
00002A22  4E56 0000                link       A6, 0
00002A26  2F07                     move.l     -[A7], D7
00002A28  3E2E 0008                move.w     D7, [A6 + 0x8]
00002A2C  0CAD 0000 0200 A4EA      cmpi.l     [A5 - 0x5B16], 0x200
00002A34  5EC0                     sgt        D0
00002A36  7208                     moveq.l    D1, 0x08
00002A38  B247                     cmp.w      D1, D7
00002A3A  5DC1                     slt        D1
00002A3C  C001                     and.b      D0, D1
00002A3E  670C                     beq        +0xE /* 00002A4C */
00002A40  3F3C 001B                move.w     -[A7], 0x1B
00002A44  4EAD 02F2                jsr        [A5 + 0x2F2 /* export_90, CODE:2 @ 000004E0 */]
00002A48  6000 012C                bra        +0x12E /* 00002B76 */
label00002A4C:
00002A4C  4267                     clr.w      -[A7]
00002A4E  4EBA FEEA                jsr        [PC - 0x116 /* 0000293A */]
00002A52  101F                     move.b     D0, [A7]+
00002A54  670E                     beq        +0x10 /* 00002A64 */
00002A56  4267                     clr.w      -[A7]
00002A58  4EAD 05BA                jsr        [A5 + 0x5BA /* export_179, CODE:5 @ 00003544 */]
00002A5C  101F                     move.b     D0, [A7]+
00002A5E  6604                     bne        +0x6 /* 00002A64 */
00002A60  6000 0114                bra        +0x116 /* 00002B76 */
label00002A64:
00002A64  7008                     moveq.l    D0, 0x08
00002A66  B047                     cmp.w      D0, D7
00002A68  5DC0                     slt        D0
00002A6A  720E                     moveq.l    D1, 0x0E
00002A6C  B247                     cmp.w      D1, D7
00002A6E  5EC1                     sgt        D1
00002A70  C001                     and.b      D0, D1
00002A72  0CAD 0002 72AE A4EE      cmpi.l     [A5 - 0x5B12], 0x272AE
00002A7A  5DC1                     slt        D1
00002A7C  C001                     and.b      D0, D1
00002A7E  670C                     beq        +0xE /* 00002A8C */
00002A80  3F3C 000C                move.w     -[A7], 0xC
00002A84  4EAD 02F2                jsr        [A5 + 0x2F2 /* export_90, CODE:2 @ 000004E0 */]
00002A88  6000 00EC                bra        +0xEE /* 00002B76 */
label00002A8C:
00002A8C  700E                     moveq.l    D0, 0x0E
00002A8E  B047                     cmp.w      D0, D7
00002A90  663E                     bne        +0x40 /* 00002AD0 */
00002A92  2F3C 000C 0000           move.l     -[A7], 0xC0000
00002A98  2F3C 0024 0000           move.l     -[A7], 0x240000 /* '$\0\0' */
00002A9E  4267                     clr.w      -[A7]
00002AA0  4EAD 042A                jsr        [A5 + 0x42A /* export_129, CODE:4 @ 00000774 */]
00002AA4  4A6D F1FE                tst.w      [A5 - 0xE02]
00002AA8  56C0                     sne        D0
00002AAA  4A6D B1D0                tst.w      [A5 - 0x4E30]
00002AAE  56C1                     sne        D1
00002AB0  8001                     or.b       D0, D1
00002AB2  4A6D F1FC                tst.w      [A5 - 0xE04]
00002AB6  56C1                     sne        D1
00002AB8  8001                     or.b       D0, D1
00002ABA  4A6D F1FA                tst.w      [A5 - 0xE06]
00002ABE  56C1                     sne        D1
00002AC0  8001                     or.b       D0, D1
00002AC2  670C                     beq        +0xE /* 00002AD0 */
00002AC4  3F3C 001D                move.w     -[A7], 0x1D
00002AC8  4EAD 02F2                jsr        [A5 + 0x2F2 /* export_90, CODE:2 @ 000004E0 */]
00002ACC  6000 00A8                bra        +0xAA /* 00002B76 */
label00002AD0:
00002AD0  2F3C 0001 0000           move.l     -[A7], 0x10000
00002AD6  4EAD 037A                jsr        [A5 + 0x37A /* export_107, CODE:2 @ 00000DB8 */]
00002ADA  101F                     move.b     D0, [A7]+
00002ADC  6604                     bne        +0x6 /* 00002AE2 */
00002ADE  6000 0096                bra        +0x98 /* 00002B76 */
label00002AE2:
00002AE2  2F2D F21C                move.l     -[A7], [A5 - 0xDE4]
00002AE6  A981                     syscall    DrawDialog
00002AE8  42A7                     clr.l      -[A7]
00002AEA  4EAD 054A                jsr        [A5 + 0x54A /* export_165, CODE:5 @ 00001E50 */]
00002AEE  101F                     move.b     D0, [A7]+
00002AF0  6700 0084                beq        +0x86 /* 00002B76 */
00002AF4  4EAD 056A                jsr        [A5 + 0x56A /* export_169, CODE:5 @ 0000248C */]
00002AF8  4EAD 003A                jsr        [A5 + 0x3A /* export_3, CODE:1 @ 000000C6 */]
00002AFC  4EBA F5B4                jsr        [PC - 0xA4C /* 000020B2 */]
00002B00  4EBA D71A                jsr        [PC - 0x28E6 /* 0000021C */]
00002B04  3007                     move.w     D0, D7
00002B06  5B40                     subq.w     D0, 5
00002B08  6B42                     bmi        +0x44 /* 00002B4C */
00002B0A  0C40 0009                cmpi.w     D0, 0x9 /* '\t' */
00002B0E  6E3C                     bgt        +0x3E /* 00002B4C */
00002B10  D040                     add.w      D0, D0
00002B12  303B 0006                move.w     D0, [PC + D0.w + 0x6]
00002B16  4EFB 0000                jmp        [PC + D0.w]
00002B1A  0016 0016                ori.b      [A6], 0x16
00002B1E  0016 0016                ori.b      [A6], 0x16
00002B22  0034 002A 0024           ori.b      [A4 + D0.w + 0x24], 0x2A /* '*' */
00002B28  001E 0034                ori.b      [A6]+, 0x34 /* '4' */
00002B2C  0030 3F07 4EBA           ori.b      [A0 + D4 * 8 - 0x46], 0x7
00002B32  F7E6                     .invalid   <<F/7/3>>
00002B34  6016                     bra        +0x18 /* 00002B4C */
00002B36  4EBA FC92                jsr        [PC - 0x36E /* 000027CA */]
00002B3A  6010                     bra        +0x12 /* 00002B4C */
00002B3C  4EBA FCEC                jsr        [PC - 0x314 /* 0000282A */]
00002B40  600A                     bra        +0xC /* 00002B4C */
00002B42  4EBA FD7C                jsr        [PC - 0x284 /* 000028C0 */]
00002B46  6004                     bra        +0x6 /* 00002B4C */
00002B48  4EBA FAE6                jsr        [PC - 0x51A /* 00002630 */]
label00002B4C:
00002B4C  102D FFF2                move.b     D0, [A5 - 0xE]
00002B50  670A                     beq        +0xC /* 00002B5C */
00002B52  4EAD 007A                jsr        [A5 + 0x7A /* export_11, CODE:1 @ 00000366 */]
00002B56  4EAD 00AA                jsr        [A5 + 0xAA /* export_17, CODE:1 @ 00002748 */]
00002B5A  601A                     bra        +0x1C /* 00002B76 */
label00002B5C:
00002B5C  4267                     clr.w      -[A7]
00002B5E  4EAD 02E2                jsr        [A5 + 0x2E2 /* export_88, CODE:2 @ 0000041C */]
00002B62  101F                     move.b     D0, [A7]+
00002B64  6708                     beq        +0xA /* 00002B6E */
00002B66  4267                     clr.w      -[A7]
00002B68  4EBA FE08                jsr        [PC - 0x1F8 /* 00002972 */]
00002B6C  6008                     bra        +0xA /* 00002B76 */
label00002B6E:
00002B6E  4EBA 0022                jsr        [PC + 0x22 /* 00002B92 */]
00002B72  4EAD 00AA                jsr        [A5 + 0xAA /* export_17, CODE:1 @ 00002748 */]
label00002B76:
00002B76  2E1F                     move.l     D7, [A7]+
00002B78  4E5E                     unlink     A6
00002B7A  205F                     movea.l    A0, [A7]+
00002B7C  544F                     addq.w     A7, 2
00002B7E  4ED0                     jmp        [A0]
00002B80  8F44 4F53 5441 4E44 4... dc.b       "DOSTANDARDSETUP"
export_208:
fn00002B92:
00002B92  4E56 FBD6                link       A6, -0x042A
00002B96  48E7 0300                movem.l    -[A7], D6,D7
00002B9A  486E FEDE                pea.l      [A6 - 0x122]
00002B9E  2F3C 0002 0E74           move.l     -[A7], 0x20E74
00002BA4  4EAD 01E2                jsr        [A5 + 0x1E2 /* export_56, CODE:1 @ 00003D96 */]
00002BA8  4EAD 007A                jsr        [A5 + 0x7A /* export_11, CODE:1 @ 00000366 */]
00002BAC  486E FCD6                pea.l      [A6 - 0x32A]
00002BB0  7001                     moveq.l    D0, 0x01
00002BB2  2F00                     move.l     -[A7], D0
00002BB4  4EBA DD72                jsr        [PC - 0x228E /* 00000928 */]
00002BB8  3C2E FCDC                move.w     D6, [A6 - 0x324]
00002BBC  705F                     moveq.l    D0, 0x5F
00002BBE  2F00                     move.l     -[A7], D0
00002BC0  3F3C 0001                move.w     -[A7], 0x1
00002BC4  4EAD 0442                jsr        [A5 + 0x442 /* export_132, CODE:4 @ 000008D2 */]
00002BC8  7000                     moveq.l    D0, 0x00
00002BCA  2B40 FFB8                move.l     [A5 - 0x48], D0
00002BCE  486D FFB8                pea.l      [A5 - 0x48]
00002BD2  486D B1FE                pea.l      [A5 - 0x4E02]
00002BD6  7004                     moveq.l    D0, 0x04
00002BD8  2F00                     move.l     -[A7], D0
00002BDA  4EAD 0112                jsr        [A5 + 0x112 /* export_30, CODE:1 @ 00003A42 */]
00002BDE  486D FFB8                pea.l      [A5 - 0x48]
00002BE2  486D B202                pea.l      [A5 - 0x4DFE]
00002BE6  7004                     moveq.l    D0, 0x04
00002BE8  2F00                     move.l     -[A7], D0
00002BEA  4EAD 0112                jsr        [A5 + 0x112 /* export_30, CODE:1 @ 00003A42 */]
00002BEE  705F                     moveq.l    D0, 0x5F
00002BF0  2F00                     move.l     -[A7], D0
00002BF2  3F3C 0001                move.w     -[A7], 0x1
00002BF6  486D B1FA                pea.l      [A5 - 0x4E06]
00002BFA  4EAD 044A                jsr        [A5 + 0x44A /* export_133, CODE:4 @ 00000A48 */]
00002BFE  4267                     clr.w      -[A7]
00002C00  4EAD 05DA                jsr        [A5 + 0x5DA /* export_183, CODE:5 @ 00003A7E */]
00002C04  4267                     clr.w      -[A7]
00002C06  4EAD 0552                jsr        [A5 + 0x552 /* export_166, CODE:5 @ 000021C6 */]
00002C0A  101F                     move.b     D0, [A7]+
00002C0C  C01F                     and.b      D0, [A7]+
00002C0E  6700 0142                beq        +0x144 /* 00002D52 */
00002C12  7E01                     moveq.l    D7, 0x01
label00002C14:
00002C14  4267                     clr.w      -[A7]
00002C16  3F06                     move.w     -[A7], D6
00002C18  3F07                     move.w     -[A7], D7
00002C1A  486E FFFE                pea.l      [A6 - 0x2]
00002C1E  4EAD 05EA                jsr        [A5 + 0x5EA /* export_185, CODE:5 @ 00003DC6 */]
00002C22  101F                     move.b     D0, [A7]+
00002C24  6600 00FC                bne        +0xFE /* 00002D22 */
00002C28  4EAD 003A                jsr        [A5 + 0x3A /* export_3, CODE:1 @ 000000C6 */]
00002C2C  486E FCD6                pea.l      [A6 - 0x32A]
00002C30  302E FFFE                move.w     D0, [A6 - 0x2]
00002C34  48C0                     ext.l      D0
00002C36  2F00                     move.l     -[A7], D0
00002C38  4EBA DCEE                jsr        [PC - 0x2312 /* 00000928 */]
00002C3C  42A7                     clr.l      -[A7]
00002C3E  486E FCE6                pea.l      [A6 - 0x31A]
00002C42  4EAD 0222                jsr        [A5 + 0x222 /* export_64, CODE:1 @ 0000405A */]
00002C46  2B5F A67C                move.l     [A5 - 0x5984], [A7]+
00002C4A  206D A67C                movea.l    A0, [A5 - 0x5984]
00002C4E  1F10                     move.b     -[A7], [A0]
00002C50  3F3C 00FF                move.w     -[A7], 0xFF
00002C54  4EAD 074A                jsr        [A5 + 0x74A /* export_229, CODE:16 @ 000000B0 */]
00002C58  43ED FE94                lea.l      A1, [A5 - 0x16C]
00002C5C  703F                     moveq.l    D0, 0x3F
label00002C5E:
00002C5E  22D8                     move.l     [A1]+, [A0]+
00002C60  51C8 FFFC                dbf        D0, -0x6 /* 00002C5E */
00002C64  486D FE94                pea.l      [A5 - 0x16C]
00002C68  486D AAE2                pea.l      [A5 - 0x551E]
00002C6C  4240                     clr.w      D0
00002C6E  102D FE94                move.b     D0, [A5 - 0x16C]
00002C72  5240                     addq.w     D0, 1
00002C74  48C0                     ext.l      D0
00002C76  2F00                     move.l     -[A7], D0
00002C78  4EAD 0112                jsr        [A5 + 0x112 /* export_30, CODE:1 @ 00003A42 */]
00002C7C  486E FEDE                pea.l      [A6 - 0x122]
00002C80  486D AAE2                pea.l      [A5 - 0x551E]
00002C84  487A 00EC                pea.l      [PC + 0xEC /* 00002D72 */]
00002C88  486E FBD6                pea.l      [A6 - 0x42A]
00002C8C  3F3C 0003                move.w     -[A7], 0x3
00002C90  4EAD 075A                jsr        [A5 + 0x75A /* export_231, CODE:16 @ 00000144 */]
00002C94  41EE FBD6                lea.l      A0, [A6 - 0x42A]
00002C98  1F10                     move.b     -[A7], [A0]
00002C9A  3F3C 00FF                move.w     -[A7], 0xFF
00002C9E  4EAD 074A                jsr        [A5 + 0x74A /* export_229, CODE:16 @ 000000B0 */]
00002CA2  43ED FA94                lea.l      A1, [A5 - 0x56C]
00002CA6  703F                     moveq.l    D0, 0x3F
label00002CA8:
00002CA8  22D8                     move.l     [A1]+, [A0]+
00002CAA  51C8 FFFC                dbf        D0, -0x6 /* 00002CA8 */
00002CAE  41ED FA94                lea.l      A0, [A5 - 0x56C]
00002CB2  1F10                     move.b     -[A7], [A0]
00002CB4  3F3C 00FF                move.w     -[A7], 0xFF
00002CB8  4EAD 074A                jsr        [A5 + 0x74A /* export_229, CODE:16 @ 000000B0 */]
00002CBC  2F08                     move.l     -[A7], A0
00002CBE  4EAD 02A2                jsr        [A5 + 0x2A2 /* export_80, CODE:2 @ 0000010A */]
00002CC2  4267                     clr.w      -[A7]
00002CC4  3007                     move.w     D0, D7
00002CC6  5340                     subq.w     D0, 1
00002CC8  41BC 0014 D040           .invalid   0, 0x14D040 // invalid opcode 4 with b == 6
00002CCE  41ED A9C6                lea.l      A0, [A5 - 0x563A]
00002CD2  3F30 0000                move.w     -[A7], [A0 + D0.w]
00002CD6  43ED AAE2                lea.l      A1, [A5 - 0x551E]
00002CDA  1F11                     move.b     -[A7], [A1]
00002CDC  3F3C 00FF                move.w     -[A7], 0xFF
00002CE0  4EAD 074A                jsr        [A5 + 0x74A /* export_229, CODE:16 @ 000000B0 */]
00002CE4  2F09                     move.l     -[A7], A1
00002CE6  4EAD 01F2                jsr        [A5 + 0x1F2 /* export_58, CODE:1 @ 00003FFA */]
00002CEA  3B5F F1FE                move.w     [A5 - 0xE02], [A7]+
00002CEE  7000                     moveq.l    D0, 0x00
00002CF0  2B40 A95E                move.l     [A5 - 0x56A2], D0
00002CF4  3007                     move.w     D0, D7
00002CF6  5340                     subq.w     D0, 1
00002CF8  41BC 0014 D040           .invalid   0, 0x14D040 // invalid opcode 4 with b == 6
00002CFE  41ED A9C6                lea.l      A0, [A5 - 0x563A]
00002D02  3B70 0000 A962           move.w     [A5 - 0x569E], [A0 + D0.w]
00002D08  70FF                     moveq.l    D0, 0xFFFFFFFF
00002D0A  B0AD A4E6                cmp.l      D0, [A5 - 0x5B1A]
00002D0E  660E                     bne        +0x10 /* 00002D1E */
00002D10  4267                     clr.w      -[A7]
00002D12  486D A94C                pea.l      [A5 - 0x56B4]
00002D16  4EAD 0152                jsr        [A5 + 0x152 /* export_38, CODE:1 @ 00003B04 */]
00002D1A  3B5F F1FE                move.w     [A5 - 0xE02], [A7]+
label00002D1E:
00002D1E  4EAD 02AA                jsr        [A5 + 0x2AA /* export_81, CODE:2 @ 0000016A */]
label00002D22:
00002D22  5247                     addq.w     D7, 1
00002D24  3007                     move.w     D0, D7
00002D26  5340                     subq.w     D0, 1
00002D28  41BC 0014 D040           .invalid   0, 0x14D040 // invalid opcode 4 with b == 6
00002D2E  41ED A9C6                lea.l      A0, [A5 - 0x563A]
00002D32  4A70 0000                tst.w      [A0 + D0.w]
00002D36  6600 FEDC                bne        -0x122 /* 00002C14 */
00002D3A  4EAD 05CA                jsr        [A5 + 0x5CA /* export_181, CODE:5 @ 000035E0 */]
00002D3E  70FF                     moveq.l    D0, 0xFFFFFFFF
00002D40  B0AD A4E6                cmp.l      D0, [A5 - 0x5B1A]
00002D44  660C                     bne        +0xE /* 00002D52 */
00002D46  4EAD 055A                jsr        [A5 + 0x55A /* export_167, CODE:5 @ 0000224E */]
00002D4A  4267                     clr.w      -[A7]
00002D4C  4EAD 05DA                jsr        [A5 + 0x5DA /* export_183, CODE:5 @ 00003A7E */]
00002D50  101F                     move.b     D0, [A7]+
label00002D52:
00002D52  4CDF 00C0                movem.l    D6,D7, [A7]+
00002D56  4E5E                     unlink     A6
00002D58  4E75                     rts
00002D5A  9449 4E49 5449 414C 4... dc.b       "INITIALIZEPARTITIONS" + 2 constant bytes
