# near model CODE resource
# jump table entries: 0-78 (79 of them)
export_1:
00000000  4E56 0000                link       A6, 0
00000004  1B7C 0001 FFEC           move.b     [A5 - 0x14], 0x1
0000000A  1B7C 0001 FFEB           move.b     [A5 - 0x15], 0x1
00000010  70FF                     moveq.l    D0, 0xFFFFFFFF
00000012  B0AD A4E6                cmp.l      D0, [A5 - 0x5B1A]
00000016  6674                     bne        +0x76 /* 0000008C */
00000018  302D ABE6                move.w     D0, [A5 - 0x541A]
0000001C  6766                     beq        +0x68 /* 00000084 */
0000001E  5540                     subq.w     D0, 2
00000020  6750                     beq        +0x52 /* 00000072 */
00000022  5940                     subq.w     D0, 4
00000024  671E                     beq        +0x20 /* 00000044 */
00000026  5940                     subq.w     D0, 4
00000028  672C                     beq        +0x2E /* 00000056 */
0000002A  5940                     subq.w     D0, 4
0000002C  6708                     beq        +0xA /* 00000036 */
0000002E  0440 0012                subi.w     D0, 0x12
00000032  6728                     beq        +0x2A /* 0000005C */
00000034  6056                     bra        +0x58 /* 0000008C */
label00000036:
00000036  7004                     moveq.l    D0, 0x04
00000038  B0AD F214                cmp.l      D0, [A5 - 0xDEC]
0000003C  6D4E                     blt        +0x50 /* 0000008C */
0000003E  422D FFEB                clr.b      [A5 - 0x15]
00000042  6048                     bra        +0x4A /* 0000008C */
label00000044:
00000044  7004                     moveq.l    D0, 0x04
00000046  B0AD F214                cmp.l      D0, [A5 - 0xDEC]
0000004A  6D40                     blt        +0x42 /* 0000008C */
0000004C  422D FFEC                clr.b      [A5 - 0x14]
00000050  422D FFEB                clr.b      [A5 - 0x15]
00000054  6036                     bra        +0x38 /* 0000008C */
label00000056:
00000056  422D FFEB                clr.b      [A5 - 0x15]
0000005A  6030                     bra        +0x32 /* 0000008C */
label0000005C:
0000005C  486D AA94                pea.l      [A5 - 0x556C]
00000060  487A 0044                pea.l      [PC + 0x44 /* 000000A6, value 0x746554A, pstring "FUJITSU" */]
00000064  4EAD 0772                jsr        [A5 + 0x772 /* export_234, CODE:16 @ 000001DC */]
00000068  101F                     move.b     D0, [A7]+
0000006A  6720                     beq        +0x22 /* 0000008C */
0000006C  422D FFEB                clr.b      [A5 - 0x15]
00000070  601A                     bra        +0x1C /* 0000008C */
label00000072:
00000072  422D FFEB                clr.b      [A5 - 0x15]
00000076  7004                     moveq.l    D0, 0x04
00000078  B0AD F214                cmp.l      D0, [A5 - 0xDEC]
0000007C  6D0E                     blt        +0x10 /* 0000008C */
0000007E  422D FFEC                clr.b      [A5 - 0x14]
00000082  6008                     bra        +0xA /* 0000008C */
label00000084:
00000084  422D FFEC                clr.b      [A5 - 0x14]
00000088  422D FFEB                clr.b      [A5 - 0x15]
label0000008C:
0000008C  4E5E                     unlink     A6
0000008E  4E75                     rts
00000090  9255 5044 4154 4542 4... dc.b       "UPDATEBLINDGLOBALS" + 8 constant bytes
export_2:
fn000000AE:
000000AE  4E56 0000                link       A6, 0
000000B2  486D A2C2                pea.l      [A5 - 0x5D3E]
000000B6  A851                     syscall    SetCursor
000000B8  4E5E                     unlink     A6
000000BA  4E75                     rts
000000BC  8744 4F41 5252 4F57 0000 dc.b       "DOARROW"
export_3:
fn000000C6:
000000C6  4E56 0000                link       A6, 0
000000CA  102D FFE7                move.b     D0, [A5 - 0x19]
000000CE  6708                     beq        +0xA /* 000000D8 */
000000D0  2F2D A8EC                move.l     -[A7], [A5 - 0x5714]
000000D4  AA1C                     syscall    SetCCursor
000000D6  600E                     bra        +0x10 /* 000000E6 */
label000000D8:
000000D8  42A7                     clr.l      -[A7]
000000DA  3F3C 0004                move.w     -[A7], 0x4
000000DE  A9B9                     syscall    GetCursor
000000E0  205F                     movea.l    A0, [A7]+
000000E2  2F10                     move.l     -[A7], [A0]
000000E4  A851                     syscall    SetCursor
label000000E6:
000000E6  4E5E                     unlink     A6
000000E8  4E75                     rts
000000EA  8744 4F57 4154 4348 0000 dc.b       "DOWATCH"
export_4:
000000F4  4E56 0000                link       A6, 0
000000F8  2F07                     move.l     -[A7], D7
000000FA  2E2E 0008                move.l     D7, [A6 + 0x8]
000000FE  2007                     move.l     D0, D7
00000100  C0BC 0000 00FF           and.l      D0, 0xFF
00000106  41BC 00FF 3B40           .invalid   0, 0xFF3B40 // invalid opcode 4 with b == 6
0000010C  FFFE                     .invalid   <<F/7/7>>
0000010E  E08F                     lsr        D7, 8
00000110  2007                     move.l     D0, D7
00000112  C0BC 0000 00FF           and.l      D0, 0xFF
00000118  41BC 00FF 3B40           .invalid   0, 0xFF3B40 // invalid opcode 4 with b == 6
0000011E  FFFC                     .invalid   <<F/7/7>>
00000120  E08F                     lsr        D7, 8
00000122  2007                     move.l     D0, D7
00000124  C0BC 0000 00FF           and.l      D0, 0xFF
0000012A  41BC 00FF 3B40           .invalid   0, 0xFF3B40 // invalid opcode 4 with b == 6
00000130  FFFA                     .invalid   <<F/7/7>>
00000132  E08F                     lsr        D7, 8
00000134  2007                     move.l     D0, D7
00000136  C0BC 0000 00FF           and.l      D0, 0xFF
0000013C  41BC 00FF 3B40           .invalid   0, 0xFF3B40 // invalid opcode 4 with b == 6
00000142  FFF8                     .invalid   <<F/7/7>>
00000144  2E1F                     move.l     D7, [A7]+
00000146  4E5E                     unlink     A6
00000148  2E9F                     move.l     [A7], [A7]+
0000014A  4E75                     rts
0000014C  8848 4558 4341 4C43 3... dc.b       "HEXCALC4"
export_5:
00000158  4E56 0000                link       A6, 0
0000015C  7000                     moveq.l    D0, 0x00
0000015E  302E 0008                move.w     D0, [A6 + 0x8]
00000162  C0BC 0000 00FF           and.l      D0, 0xFF
00000168  41BC 00FF 3B40           .invalid   0, 0xFF3B40 // invalid opcode 4 with b == 6
0000016E  FFF6                     .invalid   <<F/7/7>>
00000170  7000                     moveq.l    D0, 0x00
00000172  302E 0008                move.w     D0, [A6 + 0x8]
00000176  E088                     lsr        D0, 8
00000178  3D40 0008                move.w     [A6 + 0x8], D0
0000017C  7000                     moveq.l    D0, 0x00
0000017E  302E 0008                move.w     D0, [A6 + 0x8]
00000182  C0BC 0000 00FF           and.l      D0, 0xFF
00000188  41BC 00FF 3B40           .invalid   0, 0xFF3B40 // invalid opcode 4 with b == 6
0000018E  FFF4                     .invalid   <<F/7/7>>
00000190  4E5E                     unlink     A6
00000192  205F                     movea.l    A0, [A7]+
00000194  544F                     addq.w     A7, 2
00000196  4ED0                     jmp        [A0]
00000198  8848 4558 4341 4C43 3... dc.b       "HEXCALC2"
export_6:
000001A4  4E56 FFFE                link       A6, -0x0002
000001A8  2F07                     move.l     -[A7], D7
000001AA  4247                     clr.w      D7
000001AC  6010                     bra        +0x12 /* 000001BE */
label000001AE:
000001AE  3007                     move.w     D0, D7
000001B0  41BC 3FFF 41ED           .invalid   0, 0x3FFF41ED // invalid opcode 4 with b == 6
000001B6  B1FA 4230                cmpa.l     A0, [PC + 0x4230 /* 000043E8, value 0xA45E226D */]
000001BA  0000 5247                ori.b      D0, 0x47 /* 'G' */
label000001BE:
000001BE  0C47 3FFF                cmpi.w     D7, 0x3FFF
000001C2  6FEA                     ble        -0x14 /* 000001AE */
000001C4  2E1F                     move.l     D7, [A7]+
000001C6  4E5E                     unlink     A6
000001C8  4E75                     rts
000001CA  9143 4C45 4152 5452 4... dc.b       "CLEARTRANSFERBUFF"
export_7:
000001DE  4E56 FFF6                link       A6, -0x000A
000001E2  48E7 0118                movem.l    -[A7], D7,A3,A4
000001E6  266D B1C2                movea.l    A3, [A5 - 0x4E3E]
000001EA  42A7                     clr.l      -[A7]
000001EC  2F3C 0000 0200           move.l     -[A7], 0x200
000001F2  4EBA 382C                jsr        [PC + 0x382C /* 00003A20 */]
000001F6  285F                     movea.l    A4, [A7]+
000001F8  200C                     move.l     D0, A4
000001FA  6608                     bne        +0xA /* 00000204 */
000001FC  3F3C 0005                move.w     -[A7], 0x5
00000200  A9C8                     syscall    SysBeep
00000202  6024                     bra        +0x26 /* 00000228 */
label00000204:
00000204  7E01                     moveq.l    D7, 0x01
00000206  6014                     bra        +0x16 /* 0000021C */
label00000208:
00000208  2F0C                     move.l     -[A7], A4
0000020A  2F0B                     move.l     -[A7], A3
0000020C  2F3C 0000 0200           move.l     -[A7], 0x200
00000212  4EBA 382E                jsr        [PC + 0x382E /* 00003A42 */]
00000216  D6FC 0200                add.w      A3, 0x200
0000021A  5247                     addq.w     D7, 1
label0000021C:
0000021C  0C47 0200                cmpi.w     D7, 0x200
00000220  6FE6                     ble        -0x18 /* 00000208 */
00000222  2F0C                     move.l     -[A7], A4
00000224  205F                     movea.l    A0, [A7]+
00000226  A01F                     syscall    DisposPtr/DisposePtr
label00000228:
00000228  4CDF 1880                movem.l    D7,A3,A4, [A7]+
0000022C  4E5E                     unlink     A6
0000022E  4E75                     rts
00000230  8D43 4C45 4152 5445 5... dc.b       "CLEARTESTBUFF"
export_8:
00000240  4E56 0000                link       A6, 0
00000244  705F                     moveq.l    D0, 0x5F
00000246  2F00                     move.l     -[A7], D0
00000248  3F3C 0001                move.w     -[A7], 0x1
0000024C  4EAD 0442                jsr        [A5 + 0x442 /* export_132, CODE:4 @ 000008D2 */]
00000250  486D B1FA                pea.l      [A5 - 0x4E06]
00000254  486D A750                pea.l      [A5 - 0x58B0]
00000258  2F3C 0000 0106           move.l     -[A7], 0x106
0000025E  4EBA 37E2                jsr        [PC + 0x37E2 /* 00003A42 */]
00000262  4E5E                     unlink     A6
00000264  4E75                     rts
00000266  8852 4541 4449 4E35 4... dc.b       "READIN5F"
export_9:
fn00000272:
00000272  4E56 0000                link       A6, 0
00000276  705E                     moveq.l    D0, 0x5E
00000278  2F00                     move.l     -[A7], D0
0000027A  3F3C 0001                move.w     -[A7], 0x1
0000027E  4EAD 0442                jsr        [A5 + 0x442 /* export_132, CODE:4 @ 000008D2 */]
00000282  486D B1FA                pea.l      [A5 - 0x4E06]
00000286  486D A6A8                pea.l      [A5 - 0x5958]
0000028A  2F3C 0000 00A8           move.l     -[A7], 0xA8
00000290  4EBA 37B0                jsr        [PC + 0x37B0 /* 00003A42 */]
00000294  4E5E                     unlink     A6
00000296  4E75                     rts
00000298  8852 4541 4449 4E35 4... dc.b       "READIN5E"
export_10:
fn000002A4:
000002A4  4E56 0000                link       A6, 0
000002A8  102D FFE6                move.b     D0, [A5 - 0x1A]
000002AC  6700 00A8                beq        +0xAA /* 00000356 */
000002B0  4267                     clr.w      -[A7]
000002B2  486D F1FE                pea.l      [A5 - 0xE02]
000002B6  7002                     moveq.l    D0, 0x02
000002B8  2F00                     move.l     -[A7], D0
000002BA  4EBA 3E1E                jsr        [PC + 0x3E1E /* 000040DA */]
000002BE  3B5F F1FE                move.w     [A5 - 0xE02], [A7]+
000002C2  4267                     clr.w      -[A7]
000002C4  486D F1FC                pea.l      [A5 - 0xE04]
000002C8  7002                     moveq.l    D0, 0x02
000002CA  2F00                     move.l     -[A7], D0
000002CC  4EBA 3E0C                jsr        [PC + 0x3E0C /* 000040DA */]
000002D0  3B5F F1FE                move.w     [A5 - 0xE02], [A7]+
000002D4  4267                     clr.w      -[A7]
000002D6  486D F1FA                pea.l      [A5 - 0xE06]
000002DA  7002                     moveq.l    D0, 0x02
000002DC  2F00                     move.l     -[A7], D0
000002DE  4EBA 3DFA                jsr        [PC + 0x3DFA /* 000040DA */]
000002E2  3B5F F1FE                move.w     [A5 - 0xE02], [A7]+
000002E6  4267                     clr.w      -[A7]
000002E8  486D B1D0                pea.l      [A5 - 0x4E30]
000002EC  7002                     moveq.l    D0, 0x02
000002EE  2F00                     move.l     -[A7], D0
000002F0  4EBA 3DE8                jsr        [PC + 0x3DE8 /* 000040DA */]
000002F4  3B5F F1FE                move.w     [A5 - 0xE02], [A7]+
000002F8  4267                     clr.w      -[A7]
000002FA  486D B1CE                pea.l      [A5 - 0x4E32]
000002FE  7002                     moveq.l    D0, 0x02
00000300  2F00                     move.l     -[A7], D0
00000302  4EBA 3DD6                jsr        [PC + 0x3DD6 /* 000040DA */]
00000306  3B5F F1FE                move.w     [A5 - 0xE02], [A7]+
0000030A  4267                     clr.w      -[A7]
0000030C  486D B1FA                pea.l      [A5 - 0x4E06]
00000310  2F3C 0000 4000           move.l     -[A7], 0x4000 /* '@\0' */
00000316  4EBA 3DC2                jsr        [PC + 0x3DC2 /* 000040DA */]
0000031A  3B5F F1FE                move.w     [A5 - 0xE02], [A7]+
0000031E  4267                     clr.w      -[A7]
00000320  2F2D B1C2                move.l     -[A7], [A5 - 0x4E3E]
00000324  2F3C 0004 0000           move.l     -[A7], 0x40000
0000032A  4EBA 3DAE                jsr        [PC + 0x3DAE /* 000040DA */]
0000032E  3B5F F1FE                move.w     [A5 - 0xE02], [A7]+
00000332  4267                     clr.w      -[A7]
00000334  486D B1D2                pea.l      [A5 - 0x4E2E]
00000338  701E                     moveq.l    D0, 0x1E
0000033A  2F00                     move.l     -[A7], D0
0000033C  4EBA 3D9C                jsr        [PC + 0x3D9C /* 000040DA */]
00000340  3B5F F1FE                move.w     [A5 - 0xE02], [A7]+
00000344  4267                     clr.w      -[A7]
00000346  486D B1F0                pea.l      [A5 - 0x4E10]
0000034A  700A                     moveq.l    D0, 0x0A
0000034C  2F00                     move.l     -[A7], D0
0000034E  4EBA 3D8A                jsr        [PC + 0x3D8A /* 000040DA */]
00000352  3B5F F1FE                move.w     [A5 - 0xE02], [A7]+
label00000356:
00000356  A9F4                     syscall    ExitToShell
00000358  4E5E                     unlink     A6
0000035A  4E75                     rts
0000035C  8644 4F45 5849 5400 0000 dc.b       "DOEXIT"
export_11:
fn00000366:
00000366  4E56 0000                link       A6, 0
0000036A  422D FFF3                clr.b      [A5 - 0xD]
0000036E  422D FFF2                clr.b      [A5 - 0xE]
00000372  4E5E                     unlink     A6
00000374  4E75                     rts
00000376  8945 5252 4F52 494E 4... dc.b       "ERRORINIT"
export_12:
00000382  4E56 FF00                link       A6, -0x0100
00000386  4A6E 0008                tst.w      [A6 + 0x8]
0000038A  56C0                     sne        D0
0000038C  72C9                     moveq.l    D1, 0xFFFFFFC9
0000038E  B26E 0008                cmp.w      D1, [A6 + 0x8]
00000392  56C1                     sne        D1
00000394  C001                     and.b      D0, D1
00000396  6700 04B4                beq        +0x4B6 /* 0000084C */
0000039A  302E 0008                move.w     D0, [A6 + 0x8]
0000039E  0440 FD94                subi.w     D0, 0xFD94
000003A2  6700 042A                beq        +0x42C /* 000007CE */
000003A6  0440 01F1                subi.w     D0, 0x1F1
000003AA  6700 03C2                beq        +0x3C4 /* 0000076E */
000003AE  5340                     subq.w     D0, 1
000003B0  6700 01B4                beq        +0x1B6 /* 00000566 */
000003B4  5340                     subq.w     D0, 1
000003B6  6700 0370                beq        +0x372 /* 00000728 */
000003BA  5340                     subq.w     D0, 1
000003BC  6700 01DE                beq        +0x1E0 /* 0000059C */
000003C0  0440 000C                subi.w     D0, 0xC
000003C4  6700 02AE                beq        +0x2B0 /* 00000674 */
000003C8  0440 002F                subi.w     D0, 0x2F /* '/' */
000003CC  6700 03B0                beq        +0x3B2 /* 0000077E */
000003D0  5340                     subq.w     D0, 1
000003D2  6700 0180                beq        +0x182 /* 00000554 */
000003D6  5340                     subq.w     D0, 1
000003D8  6700 0264                beq        +0x266 /* 0000063E */
000003DC  5340                     subq.w     D0, 1
000003DE  6700 0204                beq        +0x206 /* 000005E4 */
000003E2  5340                     subq.w     D0, 1
000003E4  6700 02A0                beq        +0x2A2 /* 00000686 */
000003E8  5340                     subq.w     D0, 1
000003EA  6700 02AC                beq        +0x2AE /* 00000698 */
000003EE  5340                     subq.w     D0, 1
000003F0  6700 035A                beq        +0x35C /* 0000074C */
000003F4  5340                     subq.w     D0, 1
000003F6  6700 02E8                beq        +0x2EA /* 000006E0 */
000003FA  5340                     subq.w     D0, 1
000003FC  6700 033C                beq        +0x33E /* 0000073A */
00000400  5340                     subq.w     D0, 1
00000402  6700 024C                beq        +0x24E /* 00000650 */
00000406  5340                     subq.w     D0, 1
00000408  6700 02FA                beq        +0x2FC /* 00000704 */
0000040C  5340                     subq.w     D0, 1
0000040E  6700 02BE                beq        +0x2C0 /* 000006CE */
00000412  5340                     subq.w     D0, 1
00000414  6700 02A6                beq        +0x2A8 /* 000006BC */
00000418  5340                     subq.w     D0, 1
0000041A  6700 01A4                beq        +0x1A6 /* 000005C0 */
0000041E  5340                     subq.w     D0, 1
00000420  6700 01D4                beq        +0x1D6 /* 000005F6 */
00000424  5340                     subq.w     D0, 1
00000426  6700 0336                beq        +0x338 /* 0000075E */
0000042A  5340                     subq.w     D0, 1
0000042C  6700 01DA                beq        +0x1DC /* 00000608 */
00000430  5340                     subq.w     D0, 1
00000432  6700 035A                beq        +0x35C /* 0000078E */
00000436  5340                     subq.w     D0, 1
00000438  6700 01E0                beq        +0x1E2 /* 0000061A */
0000043C  5340                     subq.w     D0, 1
0000043E  6700 02D6                beq        +0x2D8 /* 00000716 */
00000442  5540                     subq.w     D0, 2
00000444  6700 02AC                beq        +0x2AE /* 000006F2 */
00000448  5340                     subq.w     D0, 1
0000044A  6700 0186                beq        +0x188 /* 000005D2 */
0000044E  5340                     subq.w     D0, 1
00000450  6700 01DA                beq        +0x1DC /* 0000062C */
00000454  5340                     subq.w     D0, 1
00000456  6700 0120                beq        +0x122 /* 00000578 */
0000045A  5340                     subq.w     D0, 1
0000045C  6700 0204                beq        +0x206 /* 00000662 */
00000460  5340                     subq.w     D0, 1
00000462  6700 0246                beq        +0x248 /* 000006AA */
00000466  5340                     subq.w     D0, 1
00000468  6700 0144                beq        +0x146 /* 000005AE */
0000046C  5340                     subq.w     D0, 1
0000046E  6700 011A                beq        +0x11C /* 0000058A */
00000472  5140                     subq.w     D0, 8
00000474  6700 0338                beq        +0x33A /* 000007AE */
00000478  5740                     subq.w     D0, 3
0000047A  6700 0342                beq        +0x344 /* 000007BE */
0000047E  5340                     subq.w     D0, 1
00000480  6700 031C                beq        +0x31E /* 0000079E */
00000484  0440 0017                subi.w     D0, 0x17
00000488  6728                     beq        +0x2A /* 000004B2 */
0000048A  5340                     subq.w     D0, 1
0000048C  6736                     beq        +0x38 /* 000004C4 */
0000048E  5340                     subq.w     D0, 1
00000490  6744                     beq        +0x46 /* 000004D6 */
00000492  5340                     subq.w     D0, 1
00000494  6752                     beq        +0x54 /* 000004E8 */
00000496  5340                     subq.w     D0, 1
00000498  6760                     beq        +0x62 /* 000004FA */
0000049A  5340                     subq.w     D0, 1
0000049C  676E                     beq        +0x70 /* 0000050C */
0000049E  5340                     subq.w     D0, 1
000004A0  677C                     beq        +0x7E /* 0000051E */
000004A2  5340                     subq.w     D0, 1
000004A4  6700 008A                beq        +0x8C /* 00000530 */
000004A8  5340                     subq.w     D0, 1
000004AA  6700 0096                beq        +0x98 /* 00000542 */
000004AE  6000 032E                bra        +0x330 /* 000007DE */
label000004B2:
000004B2  486D FD94                pea.l      [A5 - 0x26C]
000004B6  2F3C 0002 00FA           move.l     -[A7], 0x200FA
000004BC  4EBA 38D8                jsr        [PC + 0x38D8 /* 00003D96 */]
000004C0  6000 0322                bra        +0x324 /* 000007E4 */
label000004C4:
000004C4  486D FD94                pea.l      [A5 - 0x26C]
000004C8  2F3C 0003 00FA           move.l     -[A7], 0x300FA
000004CE  4EBA 38C6                jsr        [PC + 0x38C6 /* 00003D96 */]
000004D2  6000 0310                bra        +0x312 /* 000007E4 */
label000004D6:
000004D6  486D FD94                pea.l      [A5 - 0x26C]
000004DA  2F3C 0004 00FA           move.l     -[A7], 0x400FA
000004E0  4EBA 38B4                jsr        [PC + 0x38B4 /* 00003D96 */]
000004E4  6000 02FE                bra        +0x300 /* 000007E4 */
label000004E8:
000004E8  486D FD94                pea.l      [A5 - 0x26C]
000004EC  2F3C 0005 00FA           move.l     -[A7], 0x500FA
000004F2  4EBA 38A2                jsr        [PC + 0x38A2 /* 00003D96 */]
000004F6  6000 02EC                bra        +0x2EE /* 000007E4 */
label000004FA:
000004FA  486D FD94                pea.l      [A5 - 0x26C]
000004FE  2F3C 0006 00FA           move.l     -[A7], 0x600FA
00000504  4EBA 3890                jsr        [PC + 0x3890 /* 00003D96 */]
00000508  6000 02DA                bra        +0x2DC /* 000007E4 */
label0000050C:
0000050C  486D FD94                pea.l      [A5 - 0x26C]
00000510  2F3C 0007 00FA           move.l     -[A7], 0x700FA
00000516  4EBA 387E                jsr        [PC + 0x387E /* 00003D96 */]
0000051A  6000 02C8                bra        +0x2CA /* 000007E4 */
label0000051E:
0000051E  486D FD94                pea.l      [A5 - 0x26C]
00000522  2F3C 0008 00FA           move.l     -[A7], 0x800FA
00000528  4EBA 386C                jsr        [PC + 0x386C /* 00003D96 */]
0000052C  6000 02B6                bra        +0x2B8 /* 000007E4 */
label00000530:
00000530  486D FD94                pea.l      [A5 - 0x26C]
00000534  2F3C 0009 00FA           move.l     -[A7], 0x900FA
0000053A  4EBA 385A                jsr        [PC + 0x385A /* 00003D96 */]
0000053E  6000 02A4                bra        +0x2A6 /* 000007E4 */
label00000542:
00000542  486D FD94                pea.l      [A5 - 0x26C]
00000546  2F3C 000A 00FA           move.l     -[A7], 0xA00FA
0000054C  4EBA 3848                jsr        [PC + 0x3848 /* 00003D96 */]
00000550  6000 0292                bra        +0x294 /* 000007E4 */
label00000554:
00000554  486D FD94                pea.l      [A5 - 0x26C]
00000558  2F3C 000B 00FA           move.l     -[A7], 0xB00FA
0000055E  4EBA 3836                jsr        [PC + 0x3836 /* 00003D96 */]
00000562  6000 0280                bra        +0x282 /* 000007E4 */
label00000566:
00000566  486D FD94                pea.l      [A5 - 0x26C]
0000056A  2F3C 0018 00FA           move.l     -[A7], 0x1800FA
00000570  4EBA 3824                jsr        [PC + 0x3824 /* 00003D96 */]
00000574  6000 026E                bra        +0x270 /* 000007E4 */
label00000578:
00000578  486D FD94                pea.l      [A5 - 0x26C]
0000057C  2F3C 0019 00FA           move.l     -[A7], 0x1900FA
00000582  4EBA 3812                jsr        [PC + 0x3812 /* 00003D96 */]
00000586  6000 025C                bra        +0x25E /* 000007E4 */
label0000058A:
0000058A  486D FD94                pea.l      [A5 - 0x26C]
0000058E  2F3C 001A 00FA           move.l     -[A7], 0x1A00FA
00000594  4EBA 3800                jsr        [PC + 0x3800 /* 00003D96 */]
00000598  6000 024A                bra        +0x24C /* 000007E4 */
label0000059C:
0000059C  486D FD94                pea.l      [A5 - 0x26C]
000005A0  2F3C 001B 00FA           move.l     -[A7], 0x1B00FA
000005A6  4EBA 37EE                jsr        [PC + 0x37EE /* 00003D96 */]
000005AA  6000 0238                bra        +0x23A /* 000007E4 */
label000005AE:
000005AE  486D FD94                pea.l      [A5 - 0x26C]
000005B2  2F3C 001C 00FA           move.l     -[A7], 0x1C00FA
000005B8  4EBA 37DC                jsr        [PC + 0x37DC /* 00003D96 */]
000005BC  6000 0226                bra        +0x228 /* 000007E4 */
label000005C0:
000005C0  486D FD94                pea.l      [A5 - 0x26C]
000005C4  2F3C 001D 00FA           move.l     -[A7], 0x1D00FA
000005CA  4EBA 37CA                jsr        [PC + 0x37CA /* 00003D96 */]
000005CE  6000 0214                bra        +0x216 /* 000007E4 */
label000005D2:
000005D2  486D FD94                pea.l      [A5 - 0x26C]
000005D6  2F3C 001E 00FA           move.l     -[A7], 0x1E00FA
000005DC  4EBA 37B8                jsr        [PC + 0x37B8 /* 00003D96 */]
000005E0  6000 0202                bra        +0x204 /* 000007E4 */
label000005E4:
000005E4  486D FD94                pea.l      [A5 - 0x26C]
000005E8  2F3C 000C 00FA           move.l     -[A7], 0xC00FA
000005EE  4EBA 37A6                jsr        [PC + 0x37A6 /* 00003D96 */]
000005F2  6000 01F0                bra        +0x1F2 /* 000007E4 */
label000005F6:
000005F6  486D FD94                pea.l      [A5 - 0x26C]
000005FA  2F3C 001F 00FA           move.l     -[A7], 0x1F00FA
00000600  4EBA 3794                jsr        [PC + 0x3794 /* 00003D96 */]
00000604  6000 01DE                bra        +0x1E0 /* 000007E4 */
label00000608:
00000608  486D FD94                pea.l      [A5 - 0x26C]
0000060C  2F3C 0020 00FA           move.l     -[A7], 0x2000FA
00000612  4EBA 3782                jsr        [PC + 0x3782 /* 00003D96 */]
00000616  6000 01CC                bra        +0x1CE /* 000007E4 */
label0000061A:
0000061A  486D FD94                pea.l      [A5 - 0x26C]
0000061E  2F3C 0021 00FA           move.l     -[A7], 0x2100FA
00000624  4EBA 3770                jsr        [PC + 0x3770 /* 00003D96 */]
00000628  6000 01BA                bra        +0x1BC /* 000007E4 */
label0000062C:
0000062C  486D FD94                pea.l      [A5 - 0x26C]
00000630  2F3C 0022 00FA           move.l     -[A7], 0x2200FA
00000636  4EBA 375E                jsr        [PC + 0x375E /* 00003D96 */]
0000063A  6000 01A8                bra        +0x1AA /* 000007E4 */
label0000063E:
0000063E  486D FD94                pea.l      [A5 - 0x26C]
00000642  2F3C 0024 00FA           move.l     -[A7], 0x2400FA
00000648  4EBA 374C                jsr        [PC + 0x374C /* 00003D96 */]
0000064C  6000 0196                bra        +0x198 /* 000007E4 */
label00000650:
00000650  486D FD94                pea.l      [A5 - 0x26C]
00000654  2F3C 0025 00FA           move.l     -[A7], 0x2500FA
0000065A  4EBA 373A                jsr        [PC + 0x373A /* 00003D96 */]
0000065E  6000 0184                bra        +0x186 /* 000007E4 */
label00000662:
00000662  486D FD94                pea.l      [A5 - 0x26C]
00000666  2F3C 000D 00FA           move.l     -[A7], 0xD00FA
0000066C  4EBA 3728                jsr        [PC + 0x3728 /* 00003D96 */]
00000670  6000 0172                bra        +0x174 /* 000007E4 */
label00000674:
00000674  486D FD94                pea.l      [A5 - 0x26C]
00000678  2F3C 000E 00FA           move.l     -[A7], 0xE00FA
0000067E  4EBA 3716                jsr        [PC + 0x3716 /* 00003D96 */]
00000682  6000 0160                bra        +0x162 /* 000007E4 */
label00000686:
00000686  486D FD94                pea.l      [A5 - 0x26C]
0000068A  2F3C 000F 00FA           move.l     -[A7], 0xF00FA
00000690  4EBA 3704                jsr        [PC + 0x3704 /* 00003D96 */]
00000694  6000 014E                bra        +0x150 /* 000007E4 */
label00000698:
00000698  486D FD94                pea.l      [A5 - 0x26C]
0000069C  2F3C 0010 00FA           move.l     -[A7], 0x1000FA
000006A2  4EBA 36F2                jsr        [PC + 0x36F2 /* 00003D96 */]
000006A6  6000 013C                bra        +0x13E /* 000007E4 */
label000006AA:
000006AA  486D FD94                pea.l      [A5 - 0x26C]
000006AE  2F3C 0026 00FA           move.l     -[A7], 0x2600FA
000006B4  4EBA 36E0                jsr        [PC + 0x36E0 /* 00003D96 */]
000006B8  6000 012A                bra        +0x12C /* 000007E4 */
label000006BC:
000006BC  486D FD94                pea.l      [A5 - 0x26C]
000006C0  2F3C 0027 00FA           move.l     -[A7], 0x2700FA
000006C6  4EBA 36CE                jsr        [PC + 0x36CE /* 00003D96 */]
000006CA  6000 0118                bra        +0x11A /* 000007E4 */
label000006CE:
000006CE  486D FD94                pea.l      [A5 - 0x26C]
000006D2  2F3C 0011 00FA           move.l     -[A7], 0x1100FA
000006D8  4EBA 36BC                jsr        [PC + 0x36BC /* 00003D96 */]
000006DC  6000 0106                bra        +0x108 /* 000007E4 */
label000006E0:
000006E0  486D FD94                pea.l      [A5 - 0x26C]
000006E4  2F3C 0028 00FA           move.l     -[A7], 0x2800FA
000006EA  4EBA 36AA                jsr        [PC + 0x36AA /* 00003D96 */]
000006EE  6000 00F4                bra        +0xF6 /* 000007E4 */
label000006F2:
000006F2  486D FD94                pea.l      [A5 - 0x26C]
000006F6  2F3C 0029 00FA           move.l     -[A7], 0x2900FA
000006FC  4EBA 3698                jsr        [PC + 0x3698 /* 00003D96 */]
00000700  6000 00E2                bra        +0xE4 /* 000007E4 */
label00000704:
00000704  486D FD94                pea.l      [A5 - 0x26C]
00000708  2F3C 002A 00FA           move.l     -[A7], 0x2A00FA
0000070E  4EBA 3686                jsr        [PC + 0x3686 /* 00003D96 */]
00000712  6000 00D0                bra        +0xD2 /* 000007E4 */
label00000716:
00000716  486D FD94                pea.l      [A5 - 0x26C]
0000071A  2F3C 0012 00FA           move.l     -[A7], 0x1200FA
00000720  4EBA 3674                jsr        [PC + 0x3674 /* 00003D96 */]
00000724  6000 00BE                bra        +0xC0 /* 000007E4 */
label00000728:
00000728  486D FD94                pea.l      [A5 - 0x26C]
0000072C  2F3C 002B 00FA           move.l     -[A7], 0x2B00FA
00000732  4EBA 3662                jsr        [PC + 0x3662 /* 00003D96 */]
00000736  6000 00AC                bra        +0xAE /* 000007E4 */
label0000073A:
0000073A  486D FD94                pea.l      [A5 - 0x26C]
0000073E  2F3C 002C 00FA           move.l     -[A7], 0x2C00FA
00000744  4EBA 3650                jsr        [PC + 0x3650 /* 00003D96 */]
00000748  6000 009A                bra        +0x9C /* 000007E4 */
label0000074C:
0000074C  486D FD94                pea.l      [A5 - 0x26C]
00000750  2F3C 0013 00FA           move.l     -[A7], 0x1300FA
00000756  4EBA 363E                jsr        [PC + 0x363E /* 00003D96 */]
0000075A  6000 0088                bra        +0x8A /* 000007E4 */
label0000075E:
0000075E  486D FD94                pea.l      [A5 - 0x26C]
00000762  2F3C 002D 00FA           move.l     -[A7], 0x2D00FA
00000768  4EBA 362C                jsr        [PC + 0x362C /* 00003D96 */]
0000076C  6076                     bra        +0x78 /* 000007E4 */
label0000076E:
0000076E  486D FD94                pea.l      [A5 - 0x26C]
00000772  2F3C 002E 00FA           move.l     -[A7], 0x2E00FA
00000778  4EBA 361C                jsr        [PC + 0x361C /* 00003D96 */]
0000077C  6066                     bra        +0x68 /* 000007E4 */
label0000077E:
0000077E  486D FD94                pea.l      [A5 - 0x26C]
00000782  2F3C 002F 00FA           move.l     -[A7], 0x2F00FA
00000788  4EBA 360C                jsr        [PC + 0x360C /* 00003D96 */]
0000078C  6056                     bra        +0x58 /* 000007E4 */
label0000078E:
0000078E  486D FD94                pea.l      [A5 - 0x26C]
00000792  2F3C 0030 00FA           move.l     -[A7], 0x3000FA
00000798  4EBA 35FC                jsr        [PC + 0x35FC /* 00003D96 */]
0000079C  6046                     bra        +0x48 /* 000007E4 */
label0000079E:
0000079E  486D FD94                pea.l      [A5 - 0x26C]
000007A2  2F3C 0014 00FA           move.l     -[A7], 0x1400FA
000007A8  4EBA 35EC                jsr        [PC + 0x35EC /* 00003D96 */]
000007AC  6036                     bra        +0x38 /* 000007E4 */
label000007AE:
000007AE  486D FD94                pea.l      [A5 - 0x26C]
000007B2  2F3C 0015 00FA           move.l     -[A7], 0x1500FA
000007B8  4EBA 35DC                jsr        [PC + 0x35DC /* 00003D96 */]
000007BC  6026                     bra        +0x28 /* 000007E4 */
label000007BE:
000007BE  486D FD94                pea.l      [A5 - 0x26C]
000007C2  2F3C 0016 00FA           move.l     -[A7], 0x1600FA
000007C8  4EBA 35CC                jsr        [PC + 0x35CC /* 00003D96 */]
000007CC  6016                     bra        +0x18 /* 000007E4 */
label000007CE:
000007CE  486D FD94                pea.l      [A5 - 0x26C]
000007D2  2F3C 0023 00FA           move.l     -[A7], 0x2300FA
000007D8  4EBA 35BC                jsr        [PC + 0x35BC /* 00003D96 */]
000007DC  6006                     bra        +0x8 /* 000007E4 */
label000007DE:
000007DE  3B7C 0120 FD94           move.w     [A5 - 0x26C], 0x120
label000007E4:
000007E4  302E 0008                move.w     D0, [A6 + 0x8]
000007E8  48C0                     ext.l      D0
000007EA  2F00                     move.l     -[A7], D0
000007EC  486D FC94                pea.l      [A5 - 0x36C]
000007F0  4EBA 3824                jsr        [PC + 0x3824 /* 00004016 */]
000007F4  486D FE94                pea.l      [A5 - 0x16C]
000007F8  2F3C 0017 00FA           move.l     -[A7], 0x1700FA
000007FE  4EBA 3596                jsr        [PC + 0x3596 /* 00003D96 */]
00000802  486D FE94                pea.l      [A5 - 0x16C]
00000806  486D FC94                pea.l      [A5 - 0x36C]
0000080A  487A 0056                pea.l      [PC + 0x56 /* 00000862, value 0x2202000, pstring "  " */]
0000080E  486D FD94                pea.l      [A5 - 0x26C]
00000812  486E FF00                pea.l      [A6 - 0x100]
00000816  3F3C 0004                move.w     -[A7], 0x4
0000081A  4EAD 075A                jsr        [A5 + 0x75A /* export_231, CODE:16 @ 00000144 */]
0000081E  41EE FF00                lea.l      A0, [A6 - 0x100]
00000822  1F10                     move.b     -[A7], [A0]
00000824  3F3C 00FF                move.w     -[A7], 0xFF
00000828  4EAD 074A                jsr        [A5 + 0x74A /* export_229, CODE:16 @ 000000B0 */]
0000082C  43ED FD94                lea.l      A1, [A5 - 0x26C]
00000830  703F                     moveq.l    D0, 0x3F
label00000832:
00000832  22D8                     move.l     [A1]+, [A0]+
00000834  51C8 FFFC                dbf        D0, -0x6 /* 00000832 */
00000838  41ED FD94                lea.l      A0, [A5 - 0x26C]
0000083C  1F10                     move.b     -[A7], [A0]
0000083E  3F3C 00FF                move.w     -[A7], 0xFF
00000842  4EAD 074A                jsr        [A5 + 0x74A /* export_229, CODE:16 @ 000000B0 */]
00000846  2F08                     move.l     -[A7], A0
00000848  4EAD 02D2                jsr        [A5 + 0x2D2 /* export_86, CODE:2 @ 0000030A */]
label0000084C:
0000084C  4E5E                     unlink     A6
0000084E  205F                     movea.l    A0, [A7]+
00000850  544F                     addq.w     A7, 2
00000852  4ED0                     jmp        [A0]
00000854  8B52 4550 4F52 544F 5... dc.b       "REPORTOSERR" + 4 constant bytes
export_13:
00000866  4E56 0000                link       A6, 0
0000086A  486D FD94                pea.l      [A5 - 0x26C]
0000086E  2F3C 000B 03E7           move.l     -[A7], 0xB03E7
00000874  4EBA 3520                jsr        [PC + 0x3520 /* 00003D96 */]
00000878  41ED FD94                lea.l      A0, [A5 - 0x26C]
0000087C  1F10                     move.b     -[A7], [A0]
0000087E  3F3C 00FF                move.w     -[A7], 0xFF
00000882  4EAD 074A                jsr        [A5 + 0x74A /* export_229, CODE:16 @ 000000B0 */]
00000886  2F08                     move.l     -[A7], A0
00000888  4EAD 02D2                jsr        [A5 + 0x2D2 /* export_86, CODE:2 @ 0000030A */]
0000088C  4E5E                     unlink     A6
0000088E  4E75                     rts
00000890  8C56 4F4C 4255 5359 4... dc.b       "VOLBUSYALERT"
fn000008A0:
000008A0  4E56 0000                link       A6, 0
000008A4  7001                     moveq.l    D0, 0x01
000008A6  B0AD F208                cmp.l      D0, [A5 - 0xDF8]
000008AA  57C0                     seq        D0
000008AC  7202                     moveq.l    D1, 0x02
000008AE  B2AD F208                cmp.l      D1, [A5 - 0xDF8]
000008B2  57C1                     seq        D1
000008B4  8001                     or.b       D0, D1
000008B6  6726                     beq        +0x28 /* 000008DE */
000008B8  302D F216                move.w     D0, [A5 - 0xDEA]
000008BC  5340                     subq.w     D0, 1
000008BE  670E                     beq        +0x10 /* 000008CE */
000008C0  5340                     subq.w     D0, 1
000008C2  670A                     beq        +0xC /* 000008CE */
000008C4  5340                     subq.w     D0, 1
000008C6  6706                     beq        +0x8 /* 000008CE */
000008C8  5340                     subq.w     D0, 1
000008CA  6702                     beq        +0x4 /* 000008CE */
000008CC  6008                     bra        +0xA /* 000008D6 */
label000008CE:
000008CE  3B6E 000C ABE2           move.w     [A5 - 0x541E], [A6 + 0xC]
000008D4  600E                     bra        +0x10 /* 000008E4 */
label000008D6:
000008D6  3B6E 000A ABE2           move.w     [A5 - 0x541E], [A6 + 0xA]
000008DC  6006                     bra        +0x8 /* 000008E4 */
label000008DE:
000008DE  3B6E 0008 ABE2           move.w     [A5 - 0x541E], [A6 + 0x8]
label000008E4:
000008E4  4E5E                     unlink     A6
000008E6  205F                     movea.l    A0, [A7]+
000008E8  5C4F                     addq.w     A7, 6
000008EA  4ED0                     jmp        [A0]
000008EC  8D53 4554 494E 5445 5... dc.b       "SETINTERLEAVE"
export_14:
000008FC  4E56 FFF8                link       A6, -0x0008
00000900  2F2E 000A                move.l     -[A7], [A6 + 0xA]
00000904  3F2E 0008                move.w     -[A7], [A6 + 0x8]
00000908  486D F260                pea.l      [A5 - 0xDA0]
0000090C  486D F25C                pea.l      [A5 - 0xDA4]
00000910  486E FFF8                pea.l      [A6 - 0x8]
00000914  A98D                     syscall    GetDialogItem/GetDItem
00000916  486D A316                pea.l      [A5 - 0x5CEA]
0000091A  A89D                     syscall    PenPat
0000091C  3F2E FFFA                move.w     -[A7], [A6 - 0x6]
00000920  3F2E FFFC                move.w     -[A7], [A6 - 0x4]
00000924  A893                     syscall    MoveTo
00000926  2F2E FFFC                move.l     -[A7], [A6 - 0x4]
0000092A  A891                     syscall    LineTo
0000092C  486D A31E                pea.l      [A5 - 0x5CE2]
00000930  A89D                     syscall    PenPat
00000932  302E FFFA                move.w     D0, [A6 - 0x6]
00000936  D07C 0020                add.w      D0, 0x20 /* ' ' */
0000093A  3D40 FFFE                move.w     [A6 - 0x2], D0
0000093E  486E FFF8                pea.l      [A6 - 0x8]
00000942  3F2D FF9E                move.w     -[A7], [A5 - 0x62]
00000946  4EBA 0A30                jsr        [PC + 0xA30 /* 00001378 */]
0000094A  2F2E 000A                move.l     -[A7], [A6 + 0xA]
0000094E  3F2E 0008                move.w     -[A7], [A6 + 0x8]
00000952  486D F260                pea.l      [A5 - 0xDA0]
00000956  486D F25C                pea.l      [A5 - 0xDA4]
0000095A  486E FFF8                pea.l      [A6 - 0x8]
0000095E  A98D                     syscall    GetDialogItem/GetDItem
00000960  066E 0028 FFFA           addi.w     [A6 - 0x6], 0x28 /* '(' */
00000966  5E6E FFF8                addq.w     [A6 - 0x8], 7
0000096A  3F3C 0001                move.w     -[A7], 0x1
0000096E  A887                     syscall    TextFont
00000970  3F3C 0009                move.w     -[A7], 0x9 /* '\t' */
00000974  A88A                     syscall    TextSize
00000976  41ED F494                lea.l      A0, [A5 - 0xB6C]
0000097A  2008                     move.l     D0, A0
0000097C  5280                     addq.l     D0, 1
0000097E  2F00                     move.l     -[A7], D0
00000980  4240                     clr.w      D0
00000982  102D F494                move.b     D0, [A5 - 0xB6C]
00000986  48C0                     ext.l      D0
00000988  2F00                     move.l     -[A7], D0
0000098A  486E FFF8                pea.l      [A6 - 0x8]
0000098E  4267                     clr.w      -[A7]
00000990  A9CE                     syscall    TETextBox/TextBox
00000992  3F3C 000C                move.w     -[A7], 0xC
00000996  A88A                     syscall    TextSize
00000998  4267                     clr.w      -[A7]
0000099A  A887                     syscall    TextFont
0000099C  4E5E                     unlink     A6
0000099E  205F                     movea.l    A0, [A7]+
000009A0  5C4F                     addq.w     A7, 6
000009A2  4ED0                     jmp        [A0]
000009A4  8B44 5241 574D 4143 4... dc.b       "DRAWMACICON"
fn000009B2:
000009B2  4E56 FFF8                link       A6, -0x0008
000009B6  2F2D F21C                move.l     -[A7], [A5 - 0xDE4]
000009BA  302D AA92                move.w     D0, [A5 - 0x556E]
000009BE  5440                     addq.w     D0, 2
000009C0  3F00                     move.w     -[A7], D0
000009C2  486D F260                pea.l      [A5 - 0xDA0]
000009C6  486D F25C                pea.l      [A5 - 0xDA4]
000009CA  486E FFF8                pea.l      [A6 - 0x8]
000009CE  A98D                     syscall    GetDialogItem/GetDItem
000009D0  486E FFF8                pea.l      [A6 - 0x8]
000009D4  2F3C FFFE FFFE           move.l     -[A7], 0xFFFEFFFE
000009DA  A8A9                     syscall    InsetRect
000009DC  486E FFF8                pea.l      [A6 - 0x8]
000009E0  A8A1                     syscall    FrameRect
000009E2  3B6D AA92 FFCE           move.w     [A5 - 0x32], [A5 - 0x556E]
000009E8  4E5E                     unlink     A6
000009EA  4E75                     rts
000009EC  8B44 5241 5753 4341 4... dc.b       "DRAWSCANBOX"
fn000009FA:
000009FA  4E56 FFF8                link       A6, -0x0008
000009FE  2F2D F21C                move.l     -[A7], [A5 - 0xDE4]
00000A02  302D FFCE                move.w     D0, [A5 - 0x32]
00000A06  5440                     addq.w     D0, 2
00000A08  3F00                     move.w     -[A7], D0
00000A0A  486D F260                pea.l      [A5 - 0xDA0]
00000A0E  486D F25C                pea.l      [A5 - 0xDA4]
00000A12  486E FFF8                pea.l      [A6 - 0x8]
00000A16  A98D                     syscall    GetDialogItem/GetDItem
00000A18  486E FFF8                pea.l      [A6 - 0x8]
00000A1C  2F3C FFFE FFFE           move.l     -[A7], 0xFFFEFFFE
00000A22  A8A9                     syscall    InsetRect
00000A24  701E                     moveq.l    D0, 0x1E
00000A26  2F00                     move.l     -[A7], D0
00000A28  A862                     syscall    ForeColor
00000A2A  486E FFF8                pea.l      [A6 - 0x8]
00000A2E  A8A1                     syscall    FrameRect
00000A30  486E FFF8                pea.l      [A6 - 0x8]
00000A34  2F3C 0002 0002           move.l     -[A7], 0x20002
00000A3A  A8A9                     syscall    InsetRect
00000A3C  7021                     moveq.l    D0, 0x21
00000A3E  2F00                     move.l     -[A7], D0
00000A40  A862                     syscall    ForeColor
00000A42  486D A316                pea.l      [A5 - 0x5CEA]
00000A46  A89D                     syscall    PenPat
00000A48  3F2E FFFA                move.w     -[A7], [A6 - 0x6]
00000A4C  3F2E FFFC                move.w     -[A7], [A6 - 0x4]
00000A50  A893                     syscall    MoveTo
00000A52  2F2E FFFC                move.l     -[A7], [A6 - 0x4]
00000A56  A891                     syscall    LineTo
00000A58  A89E                     syscall    PenNormal
00000A5A  4E5E                     unlink     A6
00000A5C  4E75                     rts
00000A5E  8D52 454D 4F56 4553 4... dc.b       "REMOVESCANBOX"
export_15:
00000A6E  4E56 FFE8                link       A6, -0x0018
00000A72  48E7 0300                movem.l    -[A7], D6,D7
00000A76  3C2E 0008                move.w     D6, [A6 + 0x8]
00000A7A  3E06                     move.w     D7, D6
00000A7C  5547                     subq.w     D7, 2
00000A7E  2F2E 000A                move.l     -[A7], [A6 + 0xA]
00000A82  3F06                     move.w     -[A7], D6
00000A84  486D F260                pea.l      [A5 - 0xDA0]
00000A88  486D F25C                pea.l      [A5 - 0xDA4]
00000A8C  486E FFF4                pea.l      [A6 - 0xC]
00000A90  A98D                     syscall    GetDialogItem/GetDItem
00000A92  302E FFF6                move.w     D0, [A6 - 0xA]
00000A96  D07C 0020                add.w      D0, 0x20 /* ' ' */
00000A9A  3D40 FFFA                move.w     [A6 - 0x6], D0
00000A9E  486D A316                pea.l      [A5 - 0x5CEA]
00000AA2  A89D                     syscall    PenPat
00000AA4  2F2E 000A                move.l     -[A7], [A6 + 0xA]
00000AA8  3F06                     move.w     -[A7], D6
00000AAA  486D F260                pea.l      [A5 - 0xDA0]
00000AAE  486D F25C                pea.l      [A5 - 0xDA4]
00000AB2  486E FFEC                pea.l      [A6 - 0x14]
00000AB6  A98D                     syscall    GetDialogItem/GetDItem
00000AB8  3F2E FFEE                move.w     -[A7], [A6 - 0x12]
00000ABC  3F2E FFF0                move.w     -[A7], [A6 - 0x10]
00000AC0  A893                     syscall    MoveTo
00000AC2  2F2E FFF0                move.l     -[A7], [A6 - 0x10]
00000AC6  A891                     syscall    LineTo
00000AC8  486D A31E                pea.l      [A5 - 0x5CE2]
00000ACC  A89D                     syscall    PenPat
00000ACE  486E FFEC                pea.l      [A6 - 0x14]
00000AD2  A8A3                     syscall    EraseRect
00000AD4  BE6D AA92                cmp.w      D7, [A5 - 0x556E]
00000AD8  57C0                     seq        D0
00000ADA  C02D FFEF                and.b      D0, [A5 - 0x11]
00000ADE  6704                     beq        +0x6 /* 00000AE4 */
00000AE0  4EBA FED0                jsr        [PC - 0x130 /* 000009B2 */]
label00000AE4:
00000AE4  3007                     move.w     D0, D7
00000AE6  41BC 0007 41ED           .invalid   0, 0x741ED // invalid opcode 4 with b == 6
00000AEC  AC5A                     syscall    BitNot, auto_pop
00000AEE  1230 0000                move.b     D1, [A0 + D0.w]
00000AF2  6700 0126                beq        +0x128 /* 00000C1A */
00000AF6  066E 0028 FFEE           addi.w     [A6 - 0x12], 0x28 /* '(' */
00000AFC  102D FFE7                move.b     D0, [A5 - 0x19]
00000B00  6726                     beq        +0x28 /* 00000B28 */
00000B02  486E FFF4                pea.l      [A6 - 0xC]
00000B06  3007                     move.w     D0, D7
00000B08  41BC 0007 D040           .invalid   0, 0x7D040 // invalid opcode 4 with b == 6
00000B0E  41ED A620                lea.l      A0, [A5 - 0x59E0]
00000B12  3230 0000                move.w     D1, [A0 + D0.w]
00000B16  43BC 0008 E541           .invalid   1, 0x8E541 // invalid opcode 4 with b == 6
00000B1C  43ED A654                lea.l      A1, [A5 - 0x59AC]
00000B20  2F31 1000                move.l     -[A7], [A1 + D1.w]
00000B24  AA1F                     syscall    PlotCIcon
00000B26  6024                     bra        +0x26 /* 00000B4C */
label00000B28:
00000B28  486E FFF4                pea.l      [A6 - 0xC]
00000B2C  3007                     move.w     D0, D7
00000B2E  41BC 0007 D040           .invalid   0, 0x7D040 // invalid opcode 4 with b == 6
00000B34  41ED A620                lea.l      A0, [A5 - 0x59E0]
00000B38  3230 0000                move.w     D1, [A0 + D0.w]
00000B3C  43BC 0008 E541           .invalid   1, 0x8E541 // invalid opcode 4 with b == 6
00000B42  43ED A630                lea.l      A1, [A5 - 0x59D0]
00000B46  2F31 1000                move.l     -[A7], [A1 + D1.w]
00000B4A  A94B                     syscall    PlotIcon
label00000B4C:
00000B4C  3F2E FFEE                move.w     -[A7], [A6 - 0x12]
00000B50  302E FFEC                move.w     D0, [A6 - 0x14]
00000B54  D07C 000F                add.w      D0, 0xF
00000B58  3F00                     move.w     -[A7], D0
00000B5A  A893                     syscall    MoveTo
00000B5C  3F3C 0009                move.w     -[A7], 0x9 /* '\t' */
00000B60  A88A                     syscall    TextSize
00000B62  3F3C 0001                move.w     -[A7], 0x1
00000B66  A887                     syscall    TextFont
00000B68  3F3A 00CC                move.w     -[A7], [PC + 0xCC /* 00000C36, value 0x1, cstring "" */]
00000B6C  A888                     syscall    TextFace
00000B6E  486D FE94                pea.l      [A5 - 0x16C]
00000B72  2F3C 0008 01F8           move.l     -[A7], 0x801F8
00000B78  4EBA 321C                jsr        [PC + 0x321C /* 00003D96 */]
00000B7C  41ED FE94                lea.l      A0, [A5 - 0x16C]
00000B80  1F10                     move.b     -[A7], [A0]
00000B82  3F3C 00FF                move.w     -[A7], 0xFF
00000B86  4EAD 074A                jsr        [A5 + 0x74A /* export_229, CODE:16 @ 000000B0 */]
00000B8A  2F08                     move.l     -[A7], A0
00000B8C  A884                     syscall    DrawString
00000B8E  3F3A 00A4                move.w     -[A7], [PC + 0xA4 /* 00000C34, value 0x0, cstring "" */]
00000B92  A888                     syscall    TextFace
00000B94  3007                     move.w     D0, D7
00000B96  41BC 0007 C1FC           .invalid   0, 0x7C1FC // invalid opcode 4 with b == 6
00000B9C  0032 43ED AE02           ori.b      [A2 + A2 * 8 + 0x2], 0xED
00000BA2  41F1 0000                lea.l      A0, [A1 + D0.w]
00000BA6  1F10                     move.b     -[A7], [A0]
00000BA8  3F3C 00FF                move.w     -[A7], 0xFF
00000BAC  4EAD 074A                jsr        [A5 + 0x74A /* export_229, CODE:16 @ 000000B0 */]
00000BB0  2F08                     move.l     -[A7], A0
00000BB2  A884                     syscall    DrawString
00000BB4  3F2E FFEE                move.w     -[A7], [A6 - 0x12]
00000BB8  302E FFEC                move.w     D0, [A6 - 0x14]
00000BBC  D07C 0019                add.w      D0, 0x19
00000BC0  3F00                     move.w     -[A7], D0
00000BC2  A893                     syscall    MoveTo
00000BC4  3F3A 0070                move.w     -[A7], [PC + 0x70 /* 00000C36, value 0x1, cstring "" */]
00000BC8  A888                     syscall    TextFace
00000BCA  486D FE94                pea.l      [A5 - 0x16C]
00000BCE  2F3C 0009 01F8           move.l     -[A7], 0x901F8
00000BD4  4EBA 31C0                jsr        [PC + 0x31C0 /* 00003D96 */]
00000BD8  41ED FE94                lea.l      A0, [A5 - 0x16C]
00000BDC  1F10                     move.b     -[A7], [A0]
00000BDE  3F3C 00FF                move.w     -[A7], 0xFF
00000BE2  4EAD 074A                jsr        [A5 + 0x74A /* export_229, CODE:16 @ 000000B0 */]
00000BE6  2F08                     move.l     -[A7], A0
00000BE8  A884                     syscall    DrawString
00000BEA  3F3A 0048                move.w     -[A7], [PC + 0x48 /* 00000C34, value 0x0, cstring "" */]
00000BEE  A888                     syscall    TextFace
00000BF0  3007                     move.w     D0, D7
00000BF2  41BC 0007 C1FC           .invalid   0, 0x7C1FC // invalid opcode 4 with b == 6
00000BF8  0032 43ED AC72           ori.b      [A2 + A2 * 4 + 0x72], 0xED
00000BFE  41F1 0000                lea.l      A0, [A1 + D0.w]
00000C02  1F10                     move.b     -[A7], [A0]
00000C04  3F3C 00FF                move.w     -[A7], 0xFF
00000C08  4EAD 074A                jsr        [A5 + 0x74A /* export_229, CODE:16 @ 000000B0 */]
00000C0C  2F08                     move.l     -[A7], A0
00000C0E  A884                     syscall    DrawString
00000C10  4267                     clr.w      -[A7]
00000C12  A887                     syscall    TextFont
00000C14  3F3C 000C                move.w     -[A7], 0xC
00000C18  A88A                     syscall    TextSize
label00000C1A:
00000C1A  4CDF 00C0                movem.l    D6,D7, [A7]+
00000C1E  4E5E                     unlink     A6
00000C20  205F                     movea.l    A0, [A7]+
00000C22  5C4F                     addq.w     A7, 6
00000C24  4ED0                     jmp        [A0]
00000C26  8A53 4341 4E44 5249 4... dc.b       "SCANDRINFO" + 4 constant bytes
fn00000C38:
00000C38  4E56 FFFA                link       A6, -0x0006
00000C3C  48E7 0300                movem.l    -[A7], D6,D7
00000C40  422E 0008                clr.b      [A6 + 0x8]
00000C44  7001                     moveq.l    D0, 0x01
00000C46  2F00                     move.l     -[A7], D0
00000C48  3F3C 0001                move.w     -[A7], 0x1
00000C4C  4EAD 0442                jsr        [A5 + 0x442 /* export_132, CODE:4 @ 000008D2 */]
00000C50  4240                     clr.w      D0
00000C52  102D B1FA                move.b     D0, [A5 - 0x4E06]
00000C56  7254                     moveq.l    D1, 0x54
00000C58  B240                     cmp.w      D1, D0
00000C5A  57C0                     seq        D0
00000C5C  4241                     clr.w      D1
00000C5E  122D B1FB                move.b     D1, [A5 - 0x4E05]
00000C62  7453                     moveq.l    D2, 0x53
00000C64  B441                     cmp.w      D2, D1
00000C66  57C1                     seq        D1
00000C68  C001                     and.b      D0, D1
00000C6A  6708                     beq        +0xA /* 00000C74 */
00000C6C  1D7C 0001 0008           move.b     [A6 + 0x8], 0x1
00000C72  6038                     bra        +0x3A /* 00000CAC */
label00000C74:
00000C74  4240                     clr.w      D0
00000C76  102D B201                move.b     D0, [A5 - 0x4DFF]
00000C7A  3C00                     move.w     D6, D0
00000C7C  3D46 FFFA                move.w     [A6 - 0x6], D6
00000C80  7E01                     moveq.l    D7, 0x01
00000C82  6022                     bra        +0x24 /* 00000CA6 */
label00000C84:
00000C84  4267                     clr.w      -[A7]
00000C86  3F07                     move.w     -[A7], D7
00000C88  4EAD 05C2                jsr        [A5 + 0x5C2 /* export_180, CODE:5 @ 0000357E */]
00000C8C  101F                     move.b     D0, [A7]+
00000C8E  6712                     beq        +0x14 /* 00000CA2 */
00000C90  4240                     clr.w      D0
00000C92  102D B3F9                move.b     D0, [A5 - 0x4C07]
00000C96  4A40                     tst.w      D0
00000C98  6608                     bne        +0xA /* 00000CA2 */
00000C9A  1D7C 0001 0008           move.b     [A6 + 0x8], 0x1
00000CA0  600A                     bra        +0xC /* 00000CAC */
label00000CA2:
00000CA2  5247                     addq.w     D7, 1
00000CA4  6906                     bvs        +0x8 /* 00000CAC */
label00000CA6:
00000CA6  BE6E FFFA                cmp.w      D7, [A6 - 0x6]
00000CAA  6FD8                     ble        -0x26 /* 00000C84 */
label00000CAC:
00000CAC  4CDF 00C0                movem.l    D6,D7, [A7]+
00000CB0  4E5E                     unlink     A6
00000CB2  4E75                     rts
00000CB4  9046 494E 444D 4F55 4... dc.b       "FINDMOUNTABLEHFS"
fn00000CC8:
00000CC8  4E56 FFDC                link       A6, -0x0024
00000CCC  48E7 0108                movem.l    -[A7], D7,A4
00000CD0  286E 0008                movea.l    A4, [A6 + 0x8]
00000CD4  1D7C 001F FFDE           move.b     [A6 - 0x22], 0x1F
00000CDA  3D6C FFF2 FFDC           move.w     [A6 - 0x24], [A4 - 0xE]
00000CE0  7E01                     moveq.l    D7, 0x01
00000CE2  6000 0126                bra        +0x128 /* 00000E0A */
label00000CE6:
00000CE6  3007                     move.w     D0, D7
00000CE8  48C0                     ext.l      D0
00000CEA  2F00                     move.l     -[A7], D0
00000CEC  3F3C 0001                move.w     -[A7], 0x1
00000CF0  4EAD 0442                jsr        [A5 + 0x442 /* export_132, CODE:4 @ 000008D2 */]
00000CF4  486D B22A                pea.l      [A5 - 0x4DD6]
00000CF8  486E FFDF                pea.l      [A6 - 0x21]
00000CFC  701F                     moveq.l    D0, 0x1F
00000CFE  2F00                     move.l     -[A7], D0
00000D00  4EBA 2D40                jsr        [PC + 0x2D40 /* 00003A42 */]
00000D04  486E FFDE                pea.l      [A6 - 0x22]
00000D08  486D FB94                pea.l      [A5 - 0x46C]
00000D0C  7020                     moveq.l    D0, 0x20
00000D0E  2F00                     move.l     -[A7], D0
00000D10  4EBA 2D30                jsr        [PC + 0x2D30 /* 00003A42 */]
00000D14  487A 0134                pea.l      [PC + 0x134 /* 00000E4A, value 0x9417070 '\tApp', pstring "Apple_HFS" */]
00000D18  486D FB94                pea.l      [A5 - 0x46C]
00000D1C  4EAD 0752                jsr        [A5 + 0x752 /* export_230, CODE:16 @ 000000F6 */]
00000D20  4A5F                     tst.w      [A7]+
00000D22  6700 009E                beq        +0xA0 /* 00000DC2 */
00000D26  526C FFFA                addq.w     [A4 - 0x6], 1
00000D2A  7001                     moveq.l    D0, 0x01
00000D2C  B06C FFFA                cmp.w      D0, [A4 - 0x6]
00000D30  6600 00BA                bne        +0xBC /* 00000DEC */
00000D34  486D B202                pea.l      [A5 - 0x4DFE]
00000D38  486C FFFC                pea.l      [A4 - 0x4]
00000D3C  7004                     moveq.l    D0, 0x04
00000D3E  2F00                     move.l     -[A7], D0
00000D40  4EBA 2D00                jsr        [PC + 0x2D00 /* 00003A42 */]
00000D44  4AAC FFFC                tst.l      [A4 - 0x4]
00000D48  6616                     bne        +0x18 /* 00000D60 */
00000D4A  4EBA F526                jsr        [PC - 0xADA /* 00000272 */]
00000D4E  3007                     move.w     D0, D7
00000D50  41BC 0014 E740           .invalid   0, 0x14E740 // invalid opcode 4 with b == 6
00000D56  41ED A6A8                lea.l      A0, [A5 - 0x5958]
00000D5A  2970 0000 FFFC           move.l     [A4 - 0x4], [A0 + D0.w]
label00000D60:
00000D60  0CAD 0000 0200 A4EA      cmpi.l     [A5 - 0x5B16], 0x200
00000D68  6612                     bne        +0x14 /* 00000D7C */
00000D6A  202C FFFC                move.l     D0, [A4 - 0x4]
00000D6E  5480                     addq.l     D0, 2
00000D70  2F00                     move.l     -[A7], D0
00000D72  3F3C 0001                move.w     -[A7], 0x1
00000D76  4EAD 0442                jsr        [A5 + 0x442 /* export_132, CODE:4 @ 000008D2 */]
00000D7A  6010                     bra        +0x12 /* 00000D8C */
label00000D7C:
00000D7C  202C FFFC                move.l     D0, [A4 - 0x4]
00000D80  5280                     addq.l     D0, 1
00000D82  2F00                     move.l     -[A7], D0
00000D84  3F3C 0001                move.w     -[A7], 0x1
00000D88  4EAD 0442                jsr        [A5 + 0x442 /* export_132, CODE:4 @ 000008D2 */]
label00000D8C:
00000D8C  4240                     clr.w      D0
00000D8E  102D B1FA                move.b     D0, [A5 - 0x4E06]
00000D92  7242                     moveq.l    D1, 0x42
00000D94  B240                     cmp.w      D1, D0
00000D96  661A                     bne        +0x1C /* 00000DB2 */
00000D98  486D B21E                pea.l      [A5 - 0x4DE2]
00000D9C  486D FD94                pea.l      [A5 - 0x26C]
00000DA0  4240                     clr.w      D0
00000DA2  102D B21E                move.b     D0, [A5 - 0x4DE2]
00000DA6  5240                     addq.w     D0, 1
00000DA8  48C0                     ext.l      D0
00000DAA  2F00                     move.l     -[A7], D0
00000DAC  4EBA 2C94                jsr        [PC + 0x2C94 /* 00003A42 */]
00000DB0  603A                     bra        +0x3C /* 00000DEC */
label00000DB2:
00000DB2  486D FD94                pea.l      [A5 - 0x26C]
00000DB6  2F3C 0001 01F5           move.l     -[A7], 0x101F5
00000DBC  4EBA 2FD8                jsr        [PC + 0x2FD8 /* 00003D96 */]
00000DC0  602A                     bra        +0x2C /* 00000DEC */
label00000DC2:
00000DC2  487A 0076                pea.l      [PC + 0x76 /* 00000E3A, value 0xF417070, pstring "Apple_UNIX_SVR2" */]
00000DC6  486D FB94                pea.l      [A5 - 0x46C]
00000DCA  4EAD 0752                jsr        [A5 + 0x752 /* export_230, CODE:16 @ 000000F6 */]
00000DCE  4A5F                     tst.w      [A7]+
00000DD0  6706                     beq        +0x8 /* 00000DD8 */
00000DD2  526C FFF8                addq.w     [A4 - 0x8], 1
00000DD6  6014                     bra        +0x16 /* 00000DEC */
label00000DD8:
00000DD8  487A 0052                pea.l      [PC + 0x52 /* 00000E2C, value 0xC417070, pstring "Apple_PRODOS" */]
00000DDC  486D FB94                pea.l      [A5 - 0x46C]
00000DE0  4EAD 0752                jsr        [A5 + 0x752 /* export_230, CODE:16 @ 000000F6 */]
00000DE4  4A5F                     tst.w      [A7]+
00000DE6  6704                     beq        +0x6 /* 00000DEC */
00000DE8  526C FFF6                addq.w     [A4 - 0xA], 1
label00000DEC:
00000DEC  4A6D F1FE                tst.w      [A5 - 0xE02]
00000DF0  56C0                     sne        D0
00000DF2  4A6D F1FC                tst.w      [A5 - 0xE04]
00000DF6  56C1                     sne        D1
00000DF8  8001                     or.b       D0, D1
00000DFA  4A6D F1FA                tst.w      [A5 - 0xE06]
00000DFE  56C1                     sne        D1
00000E00  8001                     or.b       D0, D1
00000E02  6702                     beq        +0x4 /* 00000E06 */
00000E04  600C                     bra        +0xE /* 00000E12 */
label00000E06:
00000E06  5247                     addq.w     D7, 1
00000E08  6908                     bvs        +0xA /* 00000E12 */
label00000E0A:
00000E0A  BE6E FFDC                cmp.w      D7, [A6 - 0x24]
00000E0E  6F00 FED6                ble        -0x128 /* 00000CE6 */
label00000E12:
00000E12  4CDF 1080                movem.l    D7,A4, [A7]+
00000E16  4E5E                     unlink     A6
00000E18  2E9F                     move.l     [A7], [A7]+
00000E1A  4E75                     rts
00000E1C  8C47 4554 5041 5254 4... dc.b       "GETPARTNAMES" + 40 constant bytes
fn00000E54:
00000E54  4E56 FEF2                link       A6, -0x010E
00000E58  4A6D ABEC                tst.w      [A5 - 0x5414]
00000E5C  56C0                     sne        D0
00000E5E  7207                     moveq.l    D1, 0x07
00000E60  B26D ABEC                cmp.w      D1, [A5 - 0x5414]
00000E64  56C1                     sne        D1
00000E66  C001                     and.b      D0, D1
00000E68  6700 00EA                beq        +0xEC /* 00000F54 */
00000E6C  302D ABEC                move.w     D0, [A5 - 0x5414]
00000E70  5340                     subq.w     D0, 1
00000E72  6B00 00B4                bmi        +0xB6 /* 00000F28 */
00000E76  0C40 000F                cmpi.w     D0, 0xF
00000E7A  6E00 00AC                bgt        +0xAE /* 00000F28 */
00000E7E  D040                     add.w      D0, D0
00000E80  303B 0006                move.w     D0, [PC + D0.w + 0x6]
00000E84  4EFB 0000                jmp        [PC + D0.w]
00000E88  0022 0032                ori.b      -[A2], 0x32 /* '2' */
00000E8C  0042 0052                ori.w      D2, 0x52 /* 'R' */
00000E90  0062 0072                ori.w      -[A2], 0x72 /* 'r' */
00000E94  00A2 0082 0092           ori.l      -[A2], 0x820092
00000E9A  00A2 00A2 00A2           ori.l      -[A2], 0xA200A2
00000EA0  00A2 00A2 00A2           ori.l      -[A2], 0xA200A2
00000EA6  0022 486D                ori.b      -[A2], 0x6D /* 'm' */
00000EAA  FE94 2F3C                .extension 0xE94 <<F/2-3/7>> // unimplemented
00000EAE  000A 01F8                ori.b      A2, 0xF8
00000EB2  4EBA 2EE2                jsr        [PC + 0x2EE2 /* 00003D96 */]
00000EB6  607E                     bra        +0x80 /* 00000F36 */
00000EB8  486D FE94                pea.l      [A5 - 0x16C]
00000EBC  2F3C 000B 01F8           move.l     -[A7], 0xB01F8
00000EC2  4EBA 2ED2                jsr        [PC + 0x2ED2 /* 00003D96 */]
00000EC6  606E                     bra        +0x70 /* 00000F36 */
00000EC8  486D FE94                pea.l      [A5 - 0x16C]
00000ECC  2F3C 000C 01F8           move.l     -[A7], 0xC01F8
00000ED2  4EBA 2EC2                jsr        [PC + 0x2EC2 /* 00003D96 */]
00000ED6  605E                     bra        +0x60 /* 00000F36 */
00000ED8  486D FE94                pea.l      [A5 - 0x16C]
00000EDC  2F3C 000D 01F8           move.l     -[A7], 0xD01F8
00000EE2  4EBA 2EB2                jsr        [PC + 0x2EB2 /* 00003D96 */]
00000EE6  604E                     bra        +0x50 /* 00000F36 */
00000EE8  486D FE94                pea.l      [A5 - 0x16C]
00000EEC  2F3C 000E 01F8           move.l     -[A7], 0xE01F8
00000EF2  4EBA 2EA2                jsr        [PC + 0x2EA2 /* 00003D96 */]
00000EF6  603E                     bra        +0x40 /* 00000F36 */
00000EF8  486D FE94                pea.l      [A5 - 0x16C]
00000EFC  2F3C 000F 01F8           move.l     -[A7], 0xF01F8
00000F02  4EBA 2E92                jsr        [PC + 0x2E92 /* 00003D96 */]
00000F06  602E                     bra        +0x30 /* 00000F36 */
00000F08  486D FE94                pea.l      [A5 - 0x16C]
00000F0C  2F3C 0011 01F8           move.l     -[A7], 0x1101F8
00000F12  4EBA 2E82                jsr        [PC + 0x2E82 /* 00003D96 */]
00000F16  601E                     bra        +0x20 /* 00000F36 */
00000F18  486D FE94                pea.l      [A5 - 0x16C]
00000F1C  2F3C 0012 01F8           move.l     -[A7], 0x1201F8
00000F22  4EBA 2E72                jsr        [PC + 0x2E72 /* 00003D96 */]
00000F26  600E                     bra        +0x10 /* 00000F36 */
label00000F28:
00000F28  486D FE94                pea.l      [A5 - 0x16C]
00000F2C  2F3C 0013 01F8           move.l     -[A7], 0x1301F8
00000F32  4EBA 2E62                jsr        [PC + 0x2E62 /* 00003D96 */]
label00000F36:
00000F36  206E 0008                movea.l    A0, [A6 + 0x8]
00000F3A  43ED FE94                lea.l      A1, [A5 - 0x16C]
00000F3E  1F11                     move.b     -[A7], [A1]
00000F40  3F3C 00FF                move.w     -[A7], 0xFF
00000F44  4EAD 074A                jsr        [A5 + 0x74A /* export_229, CODE:16 @ 000000B0 */]
00000F48  703F                     moveq.l    D0, 0x3F
label00000F4A:
00000F4A  20D9                     move.l     [A0]+, [A1]+
00000F4C  51C8 FFFC                dbf        D0, -0x6 /* 00000F4A */
00000F50  6000 03DE                bra        +0x3E0 /* 00001330 */
label00000F54:
00000F54  302D AA92                move.w     D0, [A5 - 0x556E]
00000F58  41BC 0007 41ED           .invalid   0, 0x741ED // invalid opcode 4 with b == 6
00000F5E  AC6A                     syscall    HiWord, auto_pop
00000F60  1230 0000                move.b     D1, [A0 + D0.w]
00000F64  672C                     beq        +0x2E /* 00000F92 */
00000F66  486D FE94                pea.l      [A5 - 0x16C]
00000F6A  2F3C 0014 01F8           move.l     -[A7], 0x1401F8
00000F70  4EBA 2E24                jsr        [PC + 0x2E24 /* 00003D96 */]
00000F74  206E 0008                movea.l    A0, [A6 + 0x8]
00000F78  43ED FE94                lea.l      A1, [A5 - 0x16C]
00000F7C  1F11                     move.b     -[A7], [A1]
00000F7E  3F3C 00FF                move.w     -[A7], 0xFF
00000F82  4EAD 074A                jsr        [A5 + 0x74A /* export_229, CODE:16 @ 000000B0 */]
00000F86  703F                     moveq.l    D0, 0x3F
label00000F88:
00000F88  20D9                     move.l     [A0]+, [A1]+
00000F8A  51C8 FFFC                dbf        D0, -0x6 /* 00000F88 */
00000F8E  6000 03A0                bra        +0x3A2 /* 00001330 */
label00000F92:
00000F92  102D FFE0                move.b     D0, [A5 - 0x20]
00000F96  6712                     beq        +0x14 /* 00000FAA */
00000F98  2F2E 0008                move.l     -[A7], [A6 + 0x8]
00000F9C  2F3C 0005 01F8           move.l     -[A7], 0x501F8
00000FA2  4EBA 2DF2                jsr        [PC + 0x2DF2 /* 00003D96 */]
00000FA6  6000 0388                bra        +0x38A /* 00001330 */
label00000FAA:
00000FAA  102D FFDF                move.b     D0, [A5 - 0x21]
00000FAE  6712                     beq        +0x14 /* 00000FC2 */
00000FB0  2F2E 0008                move.l     -[A7], [A6 + 0x8]
00000FB4  2F3C 0017 01F8           move.l     -[A7], 0x1701F8
00000FBA  4EBA 2DDA                jsr        [PC + 0x2DDA /* 00003D96 */]
00000FBE  6000 0370                bra        +0x372 /* 00001330 */
label00000FC2:
00000FC2  7001                     moveq.l    D0, 0x01
00000FC4  2F00                     move.l     -[A7], D0
00000FC6  3F3C 0001                move.w     -[A7], 0x1
00000FCA  4EAD 0442                jsr        [A5 + 0x442 /* export_132, CODE:4 @ 000008D2 */]
00000FCE  7001                     moveq.l    D0, 0x01
00000FD0  2F00                     move.l     -[A7], D0
00000FD2  3F3C 0001                move.w     -[A7], 0x1
00000FD6  4EAD 0442                jsr        [A5 + 0x442 /* export_132, CODE:4 @ 000008D2 */]
00000FDA  4A6D F1FC                tst.w      [A5 - 0xE04]
00000FDE  56C0                     sne        D0
00000FE0  4A6D B1D0                tst.w      [A5 - 0x4E30]
00000FE4  56C1                     sne        D1
00000FE6  8001                     or.b       D0, D1
00000FE8  802D FFF2                or.b       D0, [A5 - 0xE]
00000FEC  0240 0001                andi.w     D0, 0x1
00000FF0  672C                     beq        +0x2E /* 0000101E */
00000FF2  486D FE94                pea.l      [A5 - 0x16C]
00000FF6  2F3C 0015 01F8           move.l     -[A7], 0x1501F8
00000FFC  4EBA 2D98                jsr        [PC + 0x2D98 /* 00003D96 */]
00001000  206E 0008                movea.l    A0, [A6 + 0x8]
00001004  43ED FE94                lea.l      A1, [A5 - 0x16C]
00001008  1F11                     move.b     -[A7], [A1]
0000100A  3F3C 00FF                move.w     -[A7], 0xFF
0000100E  4EAD 074A                jsr        [A5 + 0x74A /* export_229, CODE:16 @ 000000B0 */]
00001012  703F                     moveq.l    D0, 0x3F
label00001014:
00001014  20D9                     move.l     [A0]+, [A1]+
00001016  51C8 FFFC                dbf        D0, -0x6 /* 00001014 */
0000101A  6000 0314                bra        +0x316 /* 00001330 */
label0000101E:
0000101E  4240                     clr.w      D0
00001020  102D B1FA                move.b     D0, [A5 - 0x4E06]
00001024  7254                     moveq.l    D1, 0x54
00001026  B240                     cmp.w      D1, D0
00001028  57C0                     seq        D0
0000102A  4241                     clr.w      D1
0000102C  122D B1FB                move.b     D1, [A5 - 0x4E05]
00001030  7453                     moveq.l    D2, 0x53
00001032  B441                     cmp.w      D2, D1
00001034  57C1                     seq        D1
00001036  C001                     and.b      D0, D1
00001038  6750                     beq        +0x52 /* 0000108A */
0000103A  4240                     clr.w      D0
0000103C  102D B1FF                move.b     D0, [A5 - 0x4E01]
00001040  5440                     addq.w     D0, 2
00001042  48C0                     ext.l      D0
00001044  2D40 FFFC                move.l     [A6 - 0x4], D0
00001048  2F2E FFFC                move.l     -[A7], [A6 - 0x4]
0000104C  3F3C 0001                move.w     -[A7], 0x1
00001050  4EAD 0442                jsr        [A5 + 0x442 /* export_132, CODE:4 @ 000008D2 */]
00001054  486D B21E                pea.l      [A5 - 0x4DE2]
00001058  486D FE94                pea.l      [A5 - 0x16C]
0000105C  4240                     clr.w      D0
0000105E  102D B21E                move.b     D0, [A5 - 0x4DE2]
00001062  5240                     addq.w     D0, 1
00001064  48C0                     ext.l      D0
00001066  2F00                     move.l     -[A7], D0
00001068  4EBA 29D8                jsr        [PC + 0x29D8 /* 00003A42 */]
0000106C  206E 0008                movea.l    A0, [A6 + 0x8]
00001070  43ED FE94                lea.l      A1, [A5 - 0x16C]
00001074  1F11                     move.b     -[A7], [A1]
00001076  3F3C 00FF                move.w     -[A7], 0xFF
0000107A  4EAD 074A                jsr        [A5 + 0x74A /* export_229, CODE:16 @ 000000B0 */]
0000107E  703F                     moveq.l    D0, 0x3F
label00001080:
00001080  20D9                     move.l     [A0]+, [A1]+
00001082  51C8 FFFC                dbf        D0, -0x6 /* 00001080 */
00001086  6000 02A8                bra        +0x2AA /* 00001330 */
label0000108A:
0000108A  4240                     clr.w      D0
0000108C  102D B1FA                move.b     D0, [A5 - 0x4E06]
00001090  7250                     moveq.l    D1, 0x50
00001092  B240                     cmp.w      D1, D0
00001094  57C0                     seq        D0
00001096  4241                     clr.w      D1
00001098  122D B1FB                move.b     D1, [A5 - 0x4E05]
0000109C  744D                     moveq.l    D2, 0x4D
0000109E  B441                     cmp.w      D2, D1
000010A0  57C1                     seq        D1
000010A2  C001                     and.b      D0, D1
000010A4  6700 027C                beq        +0x27E /* 00001322 */
000010A8  422D FD94                clr.b      [A5 - 0x26C]
000010AC  4240                     clr.w      D0
000010AE  102D B201                move.b     D0, [A5 - 0x4DFF]
000010B2  3D40 FFF2                move.w     [A6 - 0xE], D0
000010B6  426E FFFA                clr.w      [A6 - 0x6]
000010BA  426E FFF8                clr.w      [A6 - 0x8]
000010BE  426E FFF6                clr.w      [A6 - 0xA]
000010C2  2F0E                     move.l     -[A7], A6
000010C4  4EBA FC02                jsr        [PC - 0x3FE /* 00000CC8 */]
000010C8  4A6E FFFA                tst.w      [A6 - 0x6]
000010CC  57C0                     seq        D0
000010CE  4A6E FFF8                tst.w      [A6 - 0x8]
000010D2  57C1                     seq        D1
000010D4  C001                     and.b      D0, D1
000010D6  4A6E FFF6                tst.w      [A6 - 0xA]
000010DA  57C1                     seq        D1
000010DC  C001                     and.b      D0, D1
000010DE  672C                     beq        +0x2E /* 0000110C */
000010E0  486D FE94                pea.l      [A5 - 0x16C]
000010E4  2F3C 0016 01F8           move.l     -[A7], 0x1601F8
000010EA  4EBA 2CAA                jsr        [PC + 0x2CAA /* 00003D96 */]
000010EE  206E 0008                movea.l    A0, [A6 + 0x8]
000010F2  43ED FE94                lea.l      A1, [A5 - 0x16C]
000010F6  1F11                     move.b     -[A7], [A1]
000010F8  3F3C 00FF                move.w     -[A7], 0xFF
000010FC  4EAD 074A                jsr        [A5 + 0x74A /* export_229, CODE:16 @ 000000B0 */]
00001100  703F                     moveq.l    D0, 0x3F
label00001102:
00001102  20D9                     move.l     [A0]+, [A1]+
00001104  51C8 FFFC                dbf        D0, -0x6 /* 00001102 */
00001108  6000 0226                bra        +0x228 /* 00001330 */
label0000110C:
0000110C  7001                     moveq.l    D0, 0x01
0000110E  B06E FFFA                cmp.w      D0, [A6 - 0x6]
00001112  57C0                     seq        D0
00001114  4A6E FFF6                tst.w      [A6 - 0xA]
00001118  5EC1                     sgt        D1
0000111A  4A6E FFF8                tst.w      [A6 - 0x8]
0000111E  5EC2                     sgt        D2
00001120  8202                     or.b       D1, D2
00001122  C001                     and.b      D0, D1
00001124  6710                     beq        +0x12 /* 00001136 */
00001126  41ED FD94                lea.l      A0, [A5 - 0x26C]
0000112A  43FA 0242                lea.l      A1, [PC + 0x242 /* 0000136E, value 0x931204D '\t1 M', pstring "1 MacOS  " */]
0000112E  20D9                     move.l     [A0]+, [A1]+
00001130  20D9                     move.l     [A0]+, [A1]+
00001132  3091                     move.w     [A0], [A1]
00001134  6046                     bra        +0x48 /* 0000117C */
label00001136:
00001136  7001                     moveq.l    D0, 0x01
00001138  B06E FFFA                cmp.w      D0, [A6 - 0x6]
0000113C  6C3E                     bge        +0x40 /* 0000117C */
0000113E  302E FFFA                move.w     D0, [A6 - 0x6]
00001142  48C0                     ext.l      D0
00001144  2F00                     move.l     -[A7], D0
00001146  486D FC94                pea.l      [A5 - 0x36C]
0000114A  4EBA 2ECA                jsr        [PC + 0x2ECA /* 00004016 */]
0000114E  486D FC94                pea.l      [A5 - 0x36C]
00001152  487A 0210                pea.l      [PC + 0x210 /* 00001364, value 0x8204D61, pstring " MacOS  " */]
00001156  486E FEF2                pea.l      [A6 - 0x10E]
0000115A  3F3C 0002                move.w     -[A7], 0x2
0000115E  4EAD 075A                jsr        [A5 + 0x75A /* export_231, CODE:16 @ 00000144 */]
00001162  41EE FEF2                lea.l      A0, [A6 - 0x10E]
00001166  1F10                     move.b     -[A7], [A0]
00001168  3F3C 00FF                move.w     -[A7], 0xFF
0000116C  4EAD 074A                jsr        [A5 + 0x74A /* export_229, CODE:16 @ 000000B0 */]
00001170  43ED FD94                lea.l      A1, [A5 - 0x26C]
00001174  703F                     moveq.l    D0, 0x3F
label00001176:
00001176  22D8                     move.l     [A1]+, [A0]+
00001178  51C8 FFFC                dbf        D0, -0x6 /* 00001176 */
label0000117C:
0000117C  4A6E FFF8                tst.w      [A6 - 0x8]
00001180  6F00 00CA                ble        +0xCC /* 0000124C */
00001184  4A6E FFFA                tst.w      [A6 - 0x6]
00001188  6F00 0084                ble        +0x86 /* 0000120E */
0000118C  302E FFFA                move.w     D0, [A6 - 0x6]
00001190  48C0                     ext.l      D0
00001192  2F00                     move.l     -[A7], D0
00001194  486D FC94                pea.l      [A5 - 0x36C]
00001198  4EBA 2E7C                jsr        [PC + 0x2E7C /* 00004016 */]
0000119C  486D FC94                pea.l      [A5 - 0x36C]
000011A0  487A 01B8                pea.l      [PC + 0x1B8 /* 0000135A, value 0x9204D61 '\t Ma', pstring " MacOS & " */]
000011A4  486E FEF2                pea.l      [A6 - 0x10E]
000011A8  3F3C 0002                move.w     -[A7], 0x2
000011AC  4EAD 075A                jsr        [A5 + 0x75A /* export_231, CODE:16 @ 00000144 */]
000011B0  41EE FEF2                lea.l      A0, [A6 - 0x10E]
000011B4  1F10                     move.b     -[A7], [A0]
000011B6  3F3C 00FF                move.w     -[A7], 0xFF
000011BA  4EAD 074A                jsr        [A5 + 0x74A /* export_229, CODE:16 @ 000000B0 */]
000011BE  43ED FD94                lea.l      A1, [A5 - 0x26C]
000011C2  703F                     moveq.l    D0, 0x3F
label000011C4:
000011C4  22D8                     move.l     [A1]+, [A0]+
000011C6  51C8 FFFC                dbf        D0, -0x6 /* 000011C4 */
000011CA  302E FFF8                move.w     D0, [A6 - 0x8]
000011CE  48C0                     ext.l      D0
000011D0  2F00                     move.l     -[A7], D0
000011D2  486D FC94                pea.l      [A5 - 0x36C]
000011D6  4EBA 2E3E                jsr        [PC + 0x2E3E /* 00004016 */]
000011DA  486D FD94                pea.l      [A5 - 0x26C]
000011DE  486D FC94                pea.l      [A5 - 0x36C]
000011E2  487A 016E                pea.l      [PC + 0x16E /* 00001352, value 0x720412F, pstring " A/UX  " */]
000011E6  486E FEF2                pea.l      [A6 - 0x10E]
000011EA  3F3C 0003                move.w     -[A7], 0x3
000011EE  4EAD 075A                jsr        [A5 + 0x75A /* export_231, CODE:16 @ 00000144 */]
000011F2  41EE FEF2                lea.l      A0, [A6 - 0x10E]
000011F6  1F10                     move.b     -[A7], [A0]
000011F8  3F3C 00FF                move.w     -[A7], 0xFF
000011FC  4EAD 074A                jsr        [A5 + 0x74A /* export_229, CODE:16 @ 000000B0 */]
00001200  43ED FD94                lea.l      A1, [A5 - 0x26C]
00001204  703F                     moveq.l    D0, 0x3F
label00001206:
00001206  22D8                     move.l     [A1]+, [A0]+
00001208  51C8 FFFC                dbf        D0, -0x6 /* 00001206 */
0000120C  603E                     bra        +0x40 /* 0000124C */
label0000120E:
0000120E  302E FFF8                move.w     D0, [A6 - 0x8]
00001212  48C0                     ext.l      D0
00001214  2F00                     move.l     -[A7], D0
00001216  486D FC94                pea.l      [A5 - 0x36C]
0000121A  4EBA 2DFA                jsr        [PC + 0x2DFA /* 00004016 */]
0000121E  486D FC94                pea.l      [A5 - 0x36C]
00001222  487A 012E                pea.l      [PC + 0x12E /* 00001352, value 0x720412F, pstring " A/UX  " */]
00001226  486E FEF2                pea.l      [A6 - 0x10E]
0000122A  3F3C 0002                move.w     -[A7], 0x2
0000122E  4EAD 075A                jsr        [A5 + 0x75A /* export_231, CODE:16 @ 00000144 */]
00001232  41EE FEF2                lea.l      A0, [A6 - 0x10E]
00001236  1F10                     move.b     -[A7], [A0]
00001238  3F3C 00FF                move.w     -[A7], 0xFF
0000123C  4EAD 074A                jsr        [A5 + 0x74A /* export_229, CODE:16 @ 000000B0 */]
00001240  43ED FD94                lea.l      A1, [A5 - 0x26C]
00001244  703F                     moveq.l    D0, 0x3F
label00001246:
00001246  22D8                     move.l     [A1]+, [A0]+
00001248  51C8 FFFC                dbf        D0, -0x6 /* 00001246 */
label0000124C:
0000124C  4A6E FFF6                tst.w      [A6 - 0xA]
00001250  5EC0                     sgt        D0
00001252  4A6E FFFA                tst.w      [A6 - 0x6]
00001256  5EC1                     sgt        D1
00001258  4A6E FFF8                tst.w      [A6 - 0x8]
0000125C  5EC2                     sgt        D2
0000125E  8202                     or.b       D1, D2
00001260  C001                     and.b      D0, D1
00001262  6748                     beq        +0x4A /* 000012AC */
00001264  302E FFF6                move.w     D0, [A6 - 0xA]
00001268  48C0                     ext.l      D0
0000126A  2F00                     move.l     -[A7], D0
0000126C  486D FC94                pea.l      [A5 - 0x36C]
00001270  4EBA 2DA4                jsr        [PC + 0x2DA4 /* 00004016 */]
00001274  486D FD94                pea.l      [A5 - 0x26C]
00001278  487A 00D4                pea.l      [PC + 0xD4 /* 0000134E, value 0x3202620, pstring " & " */]
0000127C  486D FC94                pea.l      [A5 - 0x36C]
00001280  487A 00C4                pea.l      [PC + 0xC4 /* 00001346, value 0x7205052, pstring " PRODOS" */]
00001284  486E FEF2                pea.l      [A6 - 0x10E]
00001288  3F3C 0004                move.w     -[A7], 0x4
0000128C  4EAD 075A                jsr        [A5 + 0x75A /* export_231, CODE:16 @ 00000144 */]
00001290  41EE FEF2                lea.l      A0, [A6 - 0x10E]
00001294  1F10                     move.b     -[A7], [A0]
00001296  3F3C 00FF                move.w     -[A7], 0xFF
0000129A  4EAD 074A                jsr        [A5 + 0x74A /* export_229, CODE:16 @ 000000B0 */]
0000129E  43ED FD94                lea.l      A1, [A5 - 0x26C]
000012A2  703F                     moveq.l    D0, 0x3F
label000012A4:
000012A4  22D8                     move.l     [A1]+, [A0]+
000012A6  51C8 FFFC                dbf        D0, -0x6 /* 000012A4 */
000012AA  605A                     bra        +0x5C /* 00001306 */
label000012AC:
000012AC  4A6E FFF6                tst.w      [A6 - 0xA]
000012B0  5EC0                     sgt        D0
000012B2  4A6E FFFA                tst.w      [A6 - 0x6]
000012B6  57C1                     seq        D1
000012B8  C001                     and.b      D0, D1
000012BA  4A6E FFF8                tst.w      [A6 - 0x8]
000012BE  57C1                     seq        D1
000012C0  C001                     and.b      D0, D1
000012C2  6742                     beq        +0x44 /* 00001306 */
000012C4  302E FFF6                move.w     D0, [A6 - 0xA]
000012C8  48C0                     ext.l      D0
000012CA  2F00                     move.l     -[A7], D0
000012CC  486D FC94                pea.l      [A5 - 0x36C]
000012D0  4EBA 2D44                jsr        [PC + 0x2D44 /* 00004016 */]
000012D4  486D FD94                pea.l      [A5 - 0x26C]
000012D8  486D FC94                pea.l      [A5 - 0x36C]
000012DC  487A 0068                pea.l      [PC + 0x68 /* 00001346, value 0x7205052, pstring " PRODOS" */]
000012E0  486E FEF2                pea.l      [A6 - 0x10E]
000012E4  3F3C 0003                move.w     -[A7], 0x3
000012E8  4EAD 075A                jsr        [A5 + 0x75A /* export_231, CODE:16 @ 00000144 */]
000012EC  41EE FEF2                lea.l      A0, [A6 - 0x10E]
000012F0  1F10                     move.b     -[A7], [A0]
000012F2  3F3C 00FF                move.w     -[A7], 0xFF
000012F6  4EAD 074A                jsr        [A5 + 0x74A /* export_229, CODE:16 @ 000000B0 */]
000012FA  43ED FD94                lea.l      A1, [A5 - 0x26C]
000012FE  703F                     moveq.l    D0, 0x3F
label00001300:
00001300  22D8                     move.l     [A1]+, [A0]+
00001302  51C8 FFFC                dbf        D0, -0x6 /* 00001300 */
label00001306:
00001306  206E 0008                movea.l    A0, [A6 + 0x8]
0000130A  43ED FD94                lea.l      A1, [A5 - 0x26C]
0000130E  1F11                     move.b     -[A7], [A1]
00001310  3F3C 00FF                move.w     -[A7], 0xFF
00001314  4EAD 074A                jsr        [A5 + 0x74A /* export_229, CODE:16 @ 000000B0 */]
00001318  703F                     moveq.l    D0, 0x3F
label0000131A:
0000131A  20D9                     move.l     [A0]+, [A1]+
0000131C  51C8 FFFC                dbf        D0, -0x6 /* 0000131A */
00001320  600E                     bra        +0x10 /* 00001330 */
label00001322:
00001322  2F2E 0008                move.l     -[A7], [A6 + 0x8]
00001326  2F3C 0006 01F8           move.l     -[A7], 0x601F8
0000132C  4EBA 2A68                jsr        [PC + 0x2A68 /* 00003D96 */]
label00001330:
00001330  4E5E                     unlink     A6
00001332  2E9F                     move.l     [A7], [A7]+
00001334  4E75                     rts
00001336  8C47 4554 4452 4956 4... dc.b       "GETDRIVENAME" + 50 constant bytes
export_16:
fn00001378:
00001378  4E56 FFD8                link       A6, -0x0028
0000137C  48E7 0718                movem.l    -[A7], D5,D6,D7,A3,A4
00001380  206E 000A                movea.l    A0, [A6 + 0xA]
00001384  43EE FFF8                lea.l      A1, [A6 - 0x8]
00001388  22D8                     move.l     [A1]+, [A0]+
0000138A  22D8                     move.l     [A1]+, [A0]+
0000138C  3A2E 0008                move.w     D5, [A6 + 0x8]
00001390  486E FFF8                pea.l      [A6 - 0x8]
00001394  A8A3                     syscall    EraseRect
00001396  302D FFC0                move.w     D0, [A5 - 0x40]
0000139A  5340                     subq.w     D0, 1
0000139C  6706                     beq        +0x8 /* 000013A4 */
0000139E  5340                     subq.w     D0, 1
000013A0  6702                     beq        +0x4 /* 000013A4 */
000013A2  6020                     bra        +0x22 /* 000013C4 */
label000013A4:
000013A4  42A7                     clr.l      -[A7]
000013A6  2F3C 4943 4E23           move.l     -[A7], 0x49434E23 /* 'ICN#' */
000013AC  3F05                     move.w     -[A7], D5
000013AE  A9A0                     syscall    GetResource
000013B0  265F                     movea.l    A3, [A7]+
000013B2  200B                     move.l     D0, A3
000013B4  6700 0106                beq        +0x108 /* 000014BC */
000013B8  486E FFF8                pea.l      [A6 - 0x8]
000013BC  2F0B                     move.l     -[A7], A3
000013BE  A94B                     syscall    PlotIcon
000013C0  6000 00FA                bra        +0xFC /* 000014BC */
label000013C4:
000013C4  7004                     moveq.l    D0, 0x04
000013C6  B06D FFC0                cmp.w      D0, [A5 - 0x40]
000013CA  661A                     bne        +0x1C /* 000013E6 */
000013CC  42A7                     clr.l      -[A7]
000013CE  2F3C 6963 6C34           move.l     -[A7], 0x69636C34 /* 'icl4' */
000013D4  3F05                     move.w     -[A7], D5
000013D6  A9A0                     syscall    GetResource
000013D8  265F                     movea.l    A3, [A7]+
000013DA  42A7                     clr.l      -[A7]
000013DC  3F3C 0004                move.w     -[A7], 0x4
000013E0  AA18                     syscall    GetCTable
000013E2  2C1F                     move.l     D6, [A7]+
000013E4  6018                     bra        +0x1A /* 000013FE */
label000013E6:
000013E6  42A7                     clr.l      -[A7]
000013E8  2F3C 6963 6C38           move.l     -[A7], 0x69636C38 /* 'icl8' */
000013EE  3F05                     move.w     -[A7], D5
000013F0  A9A0                     syscall    GetResource
000013F2  265F                     movea.l    A3, [A7]+
000013F4  42A7                     clr.l      -[A7]
000013F6  3F3C 0008                move.w     -[A7], 0x8
000013FA  AA18                     syscall    GetCTable
000013FC  2C1F                     move.l     D6, [A7]+
label000013FE:
000013FE  200B                     move.l     D0, A3
00001400  6700 00BA                beq        +0xBC /* 000014BC */
00001404  486E FFEE                pea.l      [A6 - 0x12]
00001408  AA19                     syscall    GetForeColor
0000140A  486E FFE8                pea.l      [A6 - 0x18]
0000140E  AA1A                     syscall    GetBackColor
00001410  486E FFD8                pea.l      [A6 - 0x28]
00001414  42A7                     clr.l      -[A7]
00001416  2F3C 0020 0020           move.l     -[A7], 0x200020 /* ' \0 ' */
0000141C  A8A7                     syscall    SetRect
0000141E  2F0B                     move.l     -[A7], A3
00001420  205F                     movea.l    A0, [A7]+
00001422  A04A                     syscall    HNoPurge
00001424  2F0B                     move.l     -[A7], A3
00001426  205F                     movea.l    A0, [A7]+
00001428  A029                     syscall    HLock
0000142A  42A7                     clr.l      -[A7]
0000142C  AA03                     syscall    NewPixMap
0000142E  2E1F                     move.l     D7, [A7]+
00001430  2047                     movea.l    A0, D7
00001432  2850                     movea.l    A4, [A0]
00001434  2893                     move.l     [A4], [A3]
00001436  7004                     moveq.l    D0, 0x04
00001438  B06D FFC0                cmp.w      D0, [A5 - 0x40]
0000143C  660E                     bne        +0x10 /* 0000144C */
0000143E  397C 8010 0004           move.w     [A4 + 0x4], 0x8010
00001444  396D FFC0 0020           move.w     [A4 + 0x20], [A5 - 0x40]
0000144A  600C                     bra        +0xE /* 00001458 */
label0000144C:
0000144C  397C 8020 0004           move.w     [A4 + 0x4], 0x8020
00001452  397C 0008 0020           move.w     [A4 + 0x20], 0x8
label00001458:
00001458  426C 001E                clr.w      [A4 + 0x1E]
0000145C  396C 0020 0024           move.w     [A4 + 0x24], [A4 + 0x20]
00001462  204C                     movea.l    A0, A4
00001464  5C88                     addq.l     A0, 6
00001466  43EE FFD8                lea.l      A1, [A6 - 0x28]
0000146A  20D9                     move.l     [A0]+, [A1]+
0000146C  20D9                     move.l     [A0]+, [A1]+
0000146E  2F2C 002A                move.l     -[A7], [A4 + 0x2A]
00001472  AA24                     syscall    DisposeCTable/DisposCTable
00001474  2946 002A                move.l     [A4 + 0x2A], D6
00001478  486D A614                pea.l      [A5 - 0x59EC]
0000147C  AA14                     syscall    RGBForeColor
0000147E  486D A61A                pea.l      [A5 - 0x59E6]
00001482  AA15                     syscall    RGBBackColor
00001484  2047                     movea.l    A0, D7
00001486  2F10                     move.l     -[A7], [A0]
00001488  206D A32E                movea.l    A0, [A5 - 0x5CD2]
0000148C  4868 0002                pea.l      [A0 + 0x2]
00001490  486E FFD8                pea.l      [A6 - 0x28]
00001494  486E FFF8                pea.l      [A6 - 0x8]
00001498  3F3C 0002                move.w     -[A7], 0x2
0000149C  42A7                     clr.l      -[A7]
0000149E  A8EC                     syscall    CopyBits
000014A0  2F07                     move.l     -[A7], D7
000014A2  AA04                     syscall    DisposePixMap/DisposPixMap
000014A4  2F0B                     move.l     -[A7], A3
000014A6  205F                     movea.l    A0, [A7]+
000014A8  A02A                     syscall    HUnlock
000014AA  2F0B                     move.l     -[A7], A3
000014AC  205F                     movea.l    A0, [A7]+
000014AE  A049                     syscall    HPurge
000014B0  486E FFEE                pea.l      [A6 - 0x12]
000014B4  AA14                     syscall    RGBForeColor
000014B6  486E FFE8                pea.l      [A6 - 0x18]
000014BA  AA15                     syscall    RGBBackColor
label000014BC:
000014BC  4CDF 18E0                movem.l    D5,D6,D7,A3,A4, [A7]+
000014C0  4E5E                     unlink     A6
000014C2  205F                     movea.l    A0, [A7]+
000014C4  5C4F                     addq.w     A7, 6
000014C6  4ED0                     jmp        [A0]
000014C8  8944 4F42 4954 434F 5... dc.b       "DOBITCOPY"
fn000014D4:
000014D4  4E56 FF8E                link       A6, -0x0072
000014D8  48E7 0F00                movem.l    -[A7], D4,D5,D6,D7
000014DC  302D AA92                move.w     D0, [A5 - 0x556E]
000014E0  41BC 0007 41ED           .invalid   0, 0x741ED // invalid opcode 4 with b == 6
000014E6  AC6A                     syscall    HiWord, auto_pop
000014E8  4230 0000                clr.b      [A0 + D0.w]
000014EC  102D FFF0                move.b     D0, [A5 - 0x10]
000014F0  6752                     beq        +0x54 /* 00001544 */
000014F2  2B7C 0001 0081 ABEC      move.l     [A5 - 0x5414], 0x10081
000014FA  426D ABEA                clr.w      [A5 - 0x5416]
000014FE  41ED AA94                lea.l      A0, [A5 - 0x556C]
00001502  43FA 03D6                lea.l      A1, [PC + 0x3D6 /* 000018DA, value 0x4544541, pstring "TEAC" */]
00001506  20D9                     move.l     [A0]+, [A1]+
00001508  3091                     move.w     [A0], [A1]
0000150A  41ED AA9E                lea.l      A0, [A5 - 0x5562]
0000150E  43FA 03BE                lea.l      A1, [PC + 0x3BE /* 000018CE, value 0xA4D542D '\nMT-', pstring "MT-2ST/45S" */]
00001512  20D9                     move.l     [A0]+, [A1]+
00001514  20D9                     move.l     [A0]+, [A1]+
00001516  20D9                     move.l     [A0]+, [A1]+
00001518  4240                     clr.w      D0
0000151A  102D B1FB                move.b     D0, [A5 - 0x4E05]
0000151E  48C0                     ext.l      D0
00001520  2A00                     move.l     D5, D0
00001522  C0BC 0000 0007           and.l      D0, 0x7
00001528  2800                     move.l     D4, D0
0000152A  7007                     moveq.l    D0, 0x07
0000152C  B084                     cmp.l      D0, D4
0000152E  6600 0354                bne        +0x356 /* 00001884 */
00001532  41ED AA9E                lea.l      A0, [A5 - 0x5562]
00001536  43FA 038A                lea.l      A1, [PC + 0x38A /* 000018C2, value 0xB4D542D, pstring "MT-2ST/45S2" */]
0000153A  20D9                     move.l     [A0]+, [A1]+
0000153C  20D9                     move.l     [A0]+, [A1]+
0000153E  20D9                     move.l     [A0]+, [A1]+
00001540  6000 0342                bra        +0x344 /* 00001884 */
label00001544:
00001544  1F3C 0001                move.b     -[A7], 0x1
00001548  4EAD 04D2                jsr        [A5 + 0x4D2 /* export_150, CODE:4 @ 00001A88 */]
0000154C  102D FFF2                move.b     D0, [A5 - 0xE]
00001550  6600 023C                bne        +0x23E /* 0000178E */
00001554  4240                     clr.w      D0
00001556  102D B1FA                move.b     D0, [A5 - 0x4E06]
0000155A  41BC 00FF 3B40           .invalid   0, 0xFF3B40 // invalid opcode 4 with b == 6
00001560  ABEC                     syscall    ButtonMgr
00001562  302D AA92                move.w     D0, [A5 - 0x556E]
00001566  41BC 0007 D040           .invalid   0, 0x7D040 // invalid opcode 4 with b == 6
0000156C  41ED AC42                lea.l      A0, [A5 - 0x53BE]
00001570  31AD ABEC 0000           move.w     [A0 + D0.w], [A5 - 0x5414]
00001576  4240                     clr.w      D0
00001578  102D B1FB                move.b     D0, [A5 - 0x4E05]
0000157C  41BC 00FF 3B40           .invalid   0, 0xFF3B40 // invalid opcode 4 with b == 6
00001582  ABEE                     syscall    ColorSync
00001584  0C6D 0080 ABEE           cmpi.w     [A5 - 0x5412], 0x80
0000158A  6D14                     blt        +0x16 /* 000015A0 */
0000158C  302D AA92                move.w     D0, [A5 - 0x556E]
00001590  41BC 0007 41ED           .invalid   0, 0x741ED // invalid opcode 4 with b == 6
00001596  AC52                     syscall    HideCursor, auto_pop
00001598  11BC 0001 0000           move.b     [A0 + D0.w], 0x1
0000159E  6010                     bra        +0x12 /* 000015B0 */
label000015A0:
000015A0  302D AA92                move.w     D0, [A5 - 0x556E]
000015A4  41BC 0007 41ED           .invalid   0, 0x741ED // invalid opcode 4 with b == 6
000015AA  AC52                     syscall    HideCursor, auto_pop
000015AC  4230 0000                clr.b      [A0 + D0.w]
label000015B0:
000015B0  4240                     clr.w      D0
000015B2  102D B21C                move.b     D0, [A5 - 0x4DE4]
000015B6  41BC 00FF 3B40           .invalid   0, 0xFF3B40 // invalid opcode 4 with b == 6
000015BC  ABEA                     syscall    ModemMgr
000015BE  4240                     clr.w      D0
000015C0  102D B202                move.b     D0, [A5 - 0x4DFE]
000015C4  41BC 00FF 7220           .invalid   0, 0xFF7220 // invalid opcode 4 with b == 6
000015CA  B240                     cmp.w      D1, D0
000015CC  667C                     bne        +0x7E /* 0000164A */
000015CE  7E01                     moveq.l    D7, 0x01
000015D0  6012                     bra        +0x14 /* 000015E4 */
label000015D2:
000015D2  3007                     move.w     D0, D7
000015D4  3200                     move.w     D1, D0
000015D6  5341                     subq.w     D1, 1
000015D8  43BC 0007 1DBC           .invalid   1, 0x71DBC // invalid opcode 4 with b == 6
000015DE  0020 00A5                ori.b      -[A0], 0xA5
000015E2  5247                     addq.w     D7, 1
label000015E4:
000015E4  7008                     moveq.l    D0, 0x08
000015E6  B047                     cmp.w      D0, D7
000015E8  6CE8                     bge        -0x16 /* 000015D2 */
000015EA  4246                     clr.w      D6
000015EC  4247                     clr.w      D7
000015EE  6044                     bra        +0x46 /* 00001634 */
label000015F0:
000015F0  3007                     move.w     D0, D7
000015F2  5040                     addq.w     D0, 8
000015F4  41BC 3FFF 4241           .invalid   0, 0x3FFF4241 // invalid opcode 4 with b == 6
000015FA  41ED B1FA                lea.l      A0, [A5 - 0x4E06]
000015FE  1230 0000                move.b     D1, [A0 + D0.w]
00001602  43BC 00FF 7020           .invalid   1, 0xFF7020 // invalid opcode 4 with b == 6
00001608  B041                     cmp.w      D0, D1
0000160A  6604                     bne        +0x6 /* 00001610 */
0000160C  5246                     addq.w     D6, 1
0000160E  6022                     bra        +0x24 /* 00001632 */
label00001610:
00001610  3006                     move.w     D0, D6
00001612  5040                     addq.w     D0, 8
00001614  41BC 3FFF 41ED           .invalid   0, 0x3FFF41ED // invalid opcode 4 with b == 6
0000161A  B1FA 4870                cmpa.l     A0, [PC + 0x4870 /* 00005E8C */]
0000161E  0000 486E                ori.b      D0, 0x6E /* 'n' */
00001622  FFA6                     .invalid   <<F/6/7>>
00001624  7008                     moveq.l    D0, 0x08
00001626  9046                     sub.w      D0, D6
00001628  48C0                     ext.l      D0
0000162A  2F00                     move.l     -[A7], D0
0000162C  4EBA 2414                jsr        [PC + 0x2414 /* 00003A42 */]
00001630  7E07                     moveq.l    D7, 0x07
label00001632:
00001632  5247                     addq.w     D7, 1
label00001634:
00001634  7007                     moveq.l    D0, 0x07
00001636  B047                     cmp.w      D0, D7
00001638  6CB6                     bge        -0x48 /* 000015F0 */
0000163A  486E FFA6                pea.l      [A6 - 0x5A]
0000163E  486D B202                pea.l      [A5 - 0x4DFE]
00001642  7008                     moveq.l    D0, 0x08
00001644  2F00                     move.l     -[A7], D0
00001646  4EBA 23FA                jsr        [PC + 0x23FA /* 00003A42 */]
label0000164A:
0000164A  4240                     clr.w      D0
0000164C  102D B20A                move.b     D0, [A5 - 0x4DF6]
00001650  41BC 00FF 7220           .invalid   0, 0xFF7220 // invalid opcode 4 with b == 6
00001656  B240                     cmp.w      D1, D0
00001658  6600 0082                bne        +0x84 /* 000016DC */
0000165C  7E01                     moveq.l    D7, 0x01
0000165E  6012                     bra        +0x14 /* 00001672 */
label00001660:
00001660  3007                     move.w     D0, D7
00001662  3200                     move.w     D1, D0
00001664  5341                     subq.w     D1, 1
00001666  43BC 000F 1DBC           .invalid   1, 0xF1DBC // invalid opcode 4 with b == 6
0000166C  0020 0095                ori.b      -[A0], 0x95
00001670  5247                     addq.w     D7, 1
label00001672:
00001672  7010                     moveq.l    D0, 0x10
00001674  B047                     cmp.w      D0, D7
00001676  6CE8                     bge        -0x16 /* 00001660 */
00001678  4246                     clr.w      D6
0000167A  4247                     clr.w      D7
0000167C  6048                     bra        +0x4A /* 000016C6 */
label0000167E:
0000167E  3007                     move.w     D0, D7
00001680  D07C 0010                add.w      D0, 0x10
00001684  41BC 3FFF 4241           .invalid   0, 0x3FFF4241 // invalid opcode 4 with b == 6
0000168A  41ED B1FA                lea.l      A0, [A5 - 0x4E06]
0000168E  1230 0000                move.b     D1, [A0 + D0.w]
00001692  43BC 00FF 7020           .invalid   1, 0xFF7020 // invalid opcode 4 with b == 6
00001698  B041                     cmp.w      D0, D1
0000169A  6604                     bne        +0x6 /* 000016A0 */
0000169C  5246                     addq.w     D6, 1
0000169E  6024                     bra        +0x26 /* 000016C4 */
label000016A0:
000016A0  3006                     move.w     D0, D6
000016A2  D07C 0010                add.w      D0, 0x10
000016A6  41BC 3FFF 41ED           .invalid   0, 0x3FFF41ED // invalid opcode 4 with b == 6
000016AC  B1FA 4870                cmpa.l     A0, [PC + 0x4870 /* 00005F1E */]
000016B0  0000 486E                ori.b      D0, 0x6E /* 'n' */
000016B4  FF96                     .invalid   <<F/6/7>>
000016B6  7010                     moveq.l    D0, 0x10
000016B8  9046                     sub.w      D0, D6
000016BA  48C0                     ext.l      D0
000016BC  2F00                     move.l     -[A7], D0
000016BE  4EBA 2382                jsr        [PC + 0x2382 /* 00003A42 */]
000016C2  7E0F                     moveq.l    D7, 0x0F
label000016C4:
000016C4  5247                     addq.w     D7, 1
label000016C6:
000016C6  700F                     moveq.l    D0, 0x0F
000016C8  B047                     cmp.w      D0, D7
000016CA  6CB2                     bge        -0x4C /* 0000167E */
000016CC  486E FF96                pea.l      [A6 - 0x6A]
000016D0  486D B20A                pea.l      [A5 - 0x4DF6]
000016D4  7010                     moveq.l    D0, 0x10
000016D6  2F00                     move.l     -[A7], D0
000016D8  4EBA 2368                jsr        [PC + 0x2368 /* 00003A42 */]
label000016DC:
000016DC  4246                     clr.w      D6
000016DE  4247                     clr.w      D7
000016E0  6042                     bra        +0x44 /* 00001724 */
label000016E2:
000016E2  3007                     move.w     D0, D7
000016E4  5240                     addq.w     D0, 1
000016E6  41BC 0008 3207           .invalid   0, 0x83207 // invalid opcode 4 with b == 6
000016EC  5041                     addq.w     D1, 8
000016EE  43BC 3FFF 4242           .invalid   1, 0x3FFF4242 // invalid opcode 4 with b == 6
000016F4  41ED B1FA                lea.l      A0, [A5 - 0x4E06]
000016F8  1430 1000                move.b     D2, [A0 + D1.w]
000016FC  45BC 00FF 43ED           .invalid   2, 0xFF43ED // invalid opcode 4 with b == 6
00001702  AA94                     syscall    ActivatePalette
00001704  1382 0000                move.b     [A1 + D0.w], D2
00001708  3007                     move.w     D0, D7
0000170A  5240                     addq.w     D0, 1
0000170C  41BC 0008 4241           .invalid   0, 0x84241 // invalid opcode 4 with b == 6
00001712  1231 0000                move.b     D1, [A1 + D0.w]
00001716  7020                     moveq.l    D0, 0x20
00001718  B041                     cmp.w      D0, D1
0000171A  6704                     beq        +0x6 /* 00001720 */
0000171C  5246                     addq.w     D6, 1
0000171E  6002                     bra        +0x4 /* 00001722 */
label00001720:
00001720  7E07                     moveq.l    D7, 0x07
label00001722:
00001722  5247                     addq.w     D7, 1
label00001724:
00001724  7007                     moveq.l    D0, 0x07
00001726  B047                     cmp.w      D0, D7
00001728  6CB8                     bge        -0x46 /* 000016E2 */
0000172A  3006                     move.w     D0, D6
0000172C  41BC 00FF 1B40           .invalid   0, 0xFF1B40 // invalid opcode 4 with b == 6
00001732  AA94                     syscall    ActivatePalette
00001734  4246                     clr.w      D6
00001736  4247                     clr.w      D7
00001738  6044                     bra        +0x46 /* 0000177E */
label0000173A:
0000173A  3007                     move.w     D0, D7
0000173C  5240                     addq.w     D0, 1
0000173E  41BC 0010 3207           .invalid   0, 0x103207 // invalid opcode 4 with b == 6
00001744  D27C 0010                add.w      D1, 0x10
00001748  43BC 3FFF 4242           .invalid   1, 0x3FFF4242 // invalid opcode 4 with b == 6
0000174E  41ED B1FA                lea.l      A0, [A5 - 0x4E06]
00001752  1430 1000                move.b     D2, [A0 + D1.w]
00001756  45BC 00FF 43ED           .invalid   2, 0xFF43ED // invalid opcode 4 with b == 6
0000175C  AA9E                     syscall    SetEntryUsage
0000175E  1382 0000                move.b     [A1 + D0.w], D2
00001762  3007                     move.w     D0, D7
00001764  5240                     addq.w     D0, 1
00001766  41BC 0010 4241           .invalid   0, 0x104241 // invalid opcode 4 with b == 6
0000176C  1231 0000                move.b     D1, [A1 + D0.w]
00001770  7020                     moveq.l    D0, 0x20
00001772  B041                     cmp.w      D0, D1
00001774  6704                     beq        +0x6 /* 0000177A */
00001776  5246                     addq.w     D6, 1
00001778  6002                     bra        +0x4 /* 0000177C */
label0000177A:
0000177A  7E0F                     moveq.l    D7, 0x0F
label0000177C:
0000177C  5247                     addq.w     D7, 1
label0000177E:
0000177E  700F                     moveq.l    D0, 0x0F
00001780  B047                     cmp.w      D0, D7
00001782  6CB6                     bge        -0x48 /* 0000173A */
00001784  3006                     move.w     D0, D6
00001786  41BC 00FF 1B40           .invalid   0, 0xFF1B40 // invalid opcode 4 with b == 6
0000178C  AA9E                     syscall    SetEntryUsage
label0000178E:
0000178E  302D AA92                move.w     D0, [A5 - 0x556E]
00001792  41BC 0007 41ED           .invalid   0, 0x741ED // invalid opcode 4 with b == 6
00001798  AC52                     syscall    HideCursor, auto_pop
0000179A  1230 0000                move.b     D1, [A0 + D0.w]
0000179E  6700 00E4                beq        +0xE6 /* 00001884 */
000017A2  486D AA94                pea.l      [A5 - 0x556C]
000017A6  487A 0112                pea.l      [PC + 0x112 /* 000018BA, value 0x6696F6D, pstring "iomega" */]
000017AA  4EAD 0772                jsr        [A5 + 0x772 /* export_234, CODE:16 @ 000001DC */]
000017AE  487A 0106                pea.l      [PC + 0x106 /* 000018B6, value 0x36A617A, pstring "jaz" */]
000017B2  486D AA9E                pea.l      [A5 - 0x5562]
000017B6  4EAD 0752                jsr        [A5 + 0x752 /* export_230, CODE:16 @ 000000F6 */]
000017BA  4A5F                     tst.w      [A7]+
000017BC  56C0                     sne        D0
000017BE  C01F                     and.b      D0, [A7]+
000017C0  6704                     beq        +0x6 /* 000017C6 */
000017C2  4EAD 04E2                jsr        [A5 + 0x4E2 /* export_152, CODE:4 @ 00001D32 */]
label000017C6:
000017C6  486D AA94                pea.l      [A5 - 0x556C]
000017CA  487A 00D6                pea.l      [PC + 0xD6 /* 000018A2, value 0x6494F4D, pstring "IOMEGA" */]
000017CE  4EAD 0772                jsr        [A5 + 0x772 /* export_234, CODE:16 @ 000001DC */]
000017D2  487A 00DE                pea.l      [PC + 0xDE /* 000018B2, value 0x35A4950, pstring "ZIP" */]
000017D6  486D AA9E                pea.l      [A5 - 0x5562]
000017DA  4EAD 0752                jsr        [A5 + 0x752 /* export_230, CODE:16 @ 000000F6 */]
000017DE  4A5F                     tst.w      [A7]+
000017E0  56C0                     sne        D0
000017E2  801F                     or.b       D0, [A7]+
000017E4  0240 0001                andi.w     D0, 0x1
000017E8  6704                     beq        +0x6 /* 000017EE */
000017EA  4EAD 04E2                jsr        [A5 + 0x4E2 /* export_152, CODE:4 @ 00001D32 */]
label000017EE:
000017EE  4EAD 0402                jsr        [A5 + 0x402 /* export_124, CODE:4 @ 00000210 */]
000017F2  4EAD 041A                jsr        [A5 + 0x41A /* export_127, CODE:4 @ 00000610 */]
000017F6  4240                     clr.w      D0
000017F8  102D B1FC                move.b     D0, [A5 - 0x4E04]
000017FC  7202                     moveq.l    D1, 0x02
000017FE  B240                     cmp.w      D1, D0
00001800  6614                     bne        +0x16 /* 00001816 */
00001802  302D AA92                move.w     D0, [A5 - 0x556E]
00001806  41BC 0007 41ED           .invalid   0, 0x741ED // invalid opcode 4 with b == 6
0000180C  AC6A                     syscall    HiWord, auto_pop
0000180E  11BC 0001 0000           move.b     [A0 + D0.w], 0x1
00001814  606E                     bra        +0x70 /* 00001884 */
label00001816:
00001816  486D AA94                pea.l      [A5 - 0x556C]
0000181A  487A 008E                pea.l      [PC + 0x8E /* 000018AA, value 0x6494E53, pstring "INSITE" */]
0000181E  4EAD 0772                jsr        [A5 + 0x772 /* export_234, CODE:16 @ 000001DC */]
00001822  486D AA94                pea.l      [A5 - 0x556C]
00001826  487A 007A                pea.l      [PC + 0x7A /* 000018A2, value 0x6494F4D, pstring "IOMEGA" */]
0000182A  4EAD 0772                jsr        [A5 + 0x772 /* export_234, CODE:16 @ 000001DC */]
0000182E  487A 006C                pea.l      [PC + 0x6C /* 0000189C, value 0x4424554, pstring "BETA" */]
00001832  486D AA9E                pea.l      [A5 - 0x5562]
00001836  4EAD 0752                jsr        [A5 + 0x752 /* export_230, CODE:16 @ 000000F6 */]
0000183A  4A5F                     tst.w      [A7]+
0000183C  57C0                     seq        D0
0000183E  C01F                     and.b      D0, [A7]+
00001840  801F                     or.b       D0, [A7]+
00001842  6706                     beq        +0x8 /* 0000184A */
00001844  4EAD 043A                jsr        [A5 + 0x43A /* export_131, CODE:4 @ 00000866 */]
00001848  603A                     bra        +0x3C /* 00001884 */
label0000184A:
0000184A  2F3C 0001 0000           move.l     -[A7], 0x10000
00001850  2F3C 0004 0000           move.l     -[A7], 0x40000
00001856  4267                     clr.w      -[A7]
00001858  4EAD 042A                jsr        [A5 + 0x42A /* export_129, CODE:4 @ 00000774 */]
0000185C  4A6D B1D0                tst.w      [A5 - 0x4E30]
00001860  57C0                     seq        D0
00001862  4A6D F1FA                tst.w      [A5 - 0xE06]
00001866  57C1                     seq        D1
00001868  C001                     and.b      D0, D1
0000186A  7200                     moveq.l    D1, 0x00
0000186C  4242                     clr.w      D2
0000186E  142D B1FC                move.b     D2, [A5 - 0x4E04]
00001872  3202                     move.w     D1, D2
00001874  0801 0007                btst.b     D1, 0x7
00001878  56C1                     sne        D1
0000187A  C001                     and.b      D0, D1
0000187C  6706                     beq        +0x8 /* 00001884 */
0000187E  1B7C 0001 ABF0           move.b     [A5 - 0x5410], 0x1
label00001884:
00001884  4CDF 00F0                movem.l    D4,D5,D6,D7, [A7]+
00001888  4E5E                     unlink     A6
0000188A  4E75                     rts
0000188C  8D47 4554 4D41 4E41 4... dc.b       "GETMANANDTYPE" + 68 constant bytes
fn000018E0:
000018E0  4E56 0000                link       A6, 0
000018E4  2F2D F21C                move.l     -[A7], [A5 - 0xDE4]
000018E8  3F3C 0015                move.w     -[A7], 0x15
000018EC  4EAD 0382                jsr        [A5 + 0x382 /* export_108, CODE:2 @ 00000E78 */]
000018F0  2F2D F21C                move.l     -[A7], [A5 - 0xDE4]
000018F4  3F3C 0014                move.w     -[A7], 0x14
000018F8  4EAD 0382                jsr        [A5 + 0x382 /* export_108, CODE:2 @ 00000E78 */]
000018FC  2F2D F21C                move.l     -[A7], [A5 - 0xDE4]
00001900  3F3C 0016                move.w     -[A7], 0x16
00001904  4EAD 0382                jsr        [A5 + 0x382 /* export_108, CODE:2 @ 00000E78 */]
00001908  2F2D F21C                move.l     -[A7], [A5 - 0xDE4]
0000190C  3F3C 0017                move.w     -[A7], 0x17
00001910  4EAD 0382                jsr        [A5 + 0x382 /* export_108, CODE:2 @ 00000E78 */]
00001914  42A7                     clr.l      -[A7]
00001916  3F3C 0081                move.w     -[A7], 0x81
0000191A  A949                     syscall    GetMenuHandle
0000191C  3F3C 0001                move.w     -[A7], 0x1
00001920  A93A                     syscall    DisableItem
00001922  42A7                     clr.l      -[A7]
00001924  3F3C 0081                move.w     -[A7], 0x81
00001928  A949                     syscall    GetMenuHandle
0000192A  3F3C 0002                move.w     -[A7], 0x2
0000192E  A93A                     syscall    DisableItem
00001930  42A7                     clr.l      -[A7]
00001932  3F3C 0085                move.w     -[A7], 0x85
00001936  A949                     syscall    GetMenuHandle
00001938  4267                     clr.w      -[A7]
0000193A  A93A                     syscall    DisableItem
0000193C  42A7                     clr.l      -[A7]
0000193E  3F3C 0083                move.w     -[A7], 0x83
00001942  A949                     syscall    GetMenuHandle
00001944  4267                     clr.w      -[A7]
00001946  A939                     syscall    EnableItem
00001948  42A7                     clr.l      -[A7]
0000194A  3F3C 0083                move.w     -[A7], 0x83
0000194E  A949                     syscall    GetMenuHandle
00001950  3F3C 0001                move.w     -[A7], 0x1
00001954  A93A                     syscall    DisableItem
00001956  42A7                     clr.l      -[A7]
00001958  3F3C 0083                move.w     -[A7], 0x83
0000195C  A949                     syscall    GetMenuHandle
0000195E  3F3C 0002                move.w     -[A7], 0x2
00001962  A93A                     syscall    DisableItem
00001964  42A7                     clr.l      -[A7]
00001966  3F3C 0083                move.w     -[A7], 0x83
0000196A  A949                     syscall    GetMenuHandle
0000196C  3F3C 0004                move.w     -[A7], 0x4
00001970  A93A                     syscall    DisableItem
00001972  42A7                     clr.l      -[A7]
00001974  3F3C 0083                move.w     -[A7], 0x83
00001978  A949                     syscall    GetMenuHandle
0000197A  3F3C 0006                move.w     -[A7], 0x6
0000197E  A93A                     syscall    DisableItem
00001980  42A7                     clr.l      -[A7]
00001982  3F3C 0083                move.w     -[A7], 0x83
00001986  A949                     syscall    GetMenuHandle
00001988  3F3C 0005                move.w     -[A7], 0x5
0000198C  A939                     syscall    EnableItem
0000198E  42A7                     clr.l      -[A7]
00001990  3F3C 0084                move.w     -[A7], 0x84
00001994  A949                     syscall    GetMenuHandle
00001996  4267                     clr.w      -[A7]
00001998  A93A                     syscall    DisableItem
0000199A  A937                     syscall    DrawMenuBar
0000199C  4E5E                     unlink     A6
0000199E  4E75                     rts
000019A0  8E54 5552 4E4F 4646 4... dc.b       "TURNOFFBUTTONS"
fn000019B2:
000019B2  4E56 0000                link       A6, 0
000019B6  2F2D F21C                move.l     -[A7], [A5 - 0xDE4]
000019BA  3F3C 0001                move.w     -[A7], 0x1
000019BE  4EAD 0382                jsr        [A5 + 0x382 /* export_108, CODE:2 @ 00000E78 */]
000019C2  2F2D F21C                move.l     -[A7], [A5 - 0xDE4]
000019C6  3F3C 0012                move.w     -[A7], 0x12
000019CA  4EAD 0382                jsr        [A5 + 0x382 /* export_108, CODE:2 @ 00000E78 */]
000019CE  2F2D F21C                move.l     -[A7], [A5 - 0xDE4]
000019D2  3F3C 0013                move.w     -[A7], 0x13
000019D6  4EAD 0382                jsr        [A5 + 0x382 /* export_108, CODE:2 @ 00000E78 */]
000019DA  4EBA FF04                jsr        [PC - 0xFC /* 000018E0 */]
000019DE  4E5E                     unlink     A6
000019E0  4E75                     rts
000019E2  9154 5552 4E4F 4646 4... dc.b       "TURNOFFALLBUTTONS"
fn000019F6:
000019F6  4E56 0000                link       A6, 0
000019FA  70FF                     moveq.l    D0, 0xFFFFFFFF
000019FC  B0AD A4E6                cmp.l      D0, [A5 - 0x5B1A]
00001A00  6618                     bne        +0x1A /* 00001A1A */
00001A02  2F2D F21C                move.l     -[A7], [A5 - 0xDE4]
00001A06  3F3C 0016                move.w     -[A7], 0x16
00001A0A  4EAD 038A                jsr        [A5 + 0x38A /* export_109, CODE:2 @ 00000EB6 */]
00001A0E  2F2D F21C                move.l     -[A7], [A5 - 0xDE4]
00001A12  3F3C 0013                move.w     -[A7], 0x13
00001A16  4EAD 038A                jsr        [A5 + 0x38A /* export_109, CODE:2 @ 00000EB6 */]
label00001A1A:
00001A1A  2F2D F21C                move.l     -[A7], [A5 - 0xDE4]
00001A1E  3F3C 0017                move.w     -[A7], 0x17
00001A22  4EAD 038A                jsr        [A5 + 0x38A /* export_109, CODE:2 @ 00000EB6 */]
00001A26  2F2D F21C                move.l     -[A7], [A5 - 0xDE4]
00001A2A  3F3C 0015                move.w     -[A7], 0x15
00001A2E  4EAD 038A                jsr        [A5 + 0x38A /* export_109, CODE:2 @ 00000EB6 */]
00001A32  2F2D F21C                move.l     -[A7], [A5 - 0xDE4]
00001A36  3F3C 0012                move.w     -[A7], 0x12
00001A3A  4EAD 038A                jsr        [A5 + 0x38A /* export_109, CODE:2 @ 00000EB6 */]
00001A3E  2F2D F21C                move.l     -[A7], [A5 - 0xDE4]
00001A42  3F3C 0014                move.w     -[A7], 0x14
00001A46  4EAD 038A                jsr        [A5 + 0x38A /* export_109, CODE:2 @ 00000EB6 */]
00001A4A  2F2D F21C                move.l     -[A7], [A5 - 0xDE4]
00001A4E  3F3C 0001                move.w     -[A7], 0x1
00001A52  4EAD 038A                jsr        [A5 + 0x38A /* export_109, CODE:2 @ 00000EB6 */]
00001A56  102D FFF1                move.b     D0, [A5 - 0xF]
00001A5A  6710                     beq        +0x12 /* 00001A6C */
00001A5C  42A7                     clr.l      -[A7]
00001A5E  3F3C 0081                move.w     -[A7], 0x81
00001A62  A949                     syscall    GetMenuHandle
00001A64  3F3C 0001                move.w     -[A7], 0x1
00001A68  A939                     syscall    EnableItem
00001A6A  600E                     bra        +0x10 /* 00001A7A */
label00001A6C:
00001A6C  42A7                     clr.l      -[A7]
00001A6E  3F3C 0081                move.w     -[A7], 0x81
00001A72  A949                     syscall    GetMenuHandle
00001A74  3F3C 0001                move.w     -[A7], 0x1
00001A78  A93A                     syscall    DisableItem
label00001A7A:
00001A7A  302D AA92                move.w     D0, [A5 - 0x556E]
00001A7E  41BC 0007 41ED           .invalid   0, 0x741ED // invalid opcode 4 with b == 6
00001A84  AC52                     syscall    HideCursor, auto_pop
00001A86  1230 0000                move.b     D1, [A0 + D0.w]
00001A8A  6710                     beq        +0x12 /* 00001A9C */
00001A8C  42A7                     clr.l      -[A7]
00001A8E  3F3C 0081                move.w     -[A7], 0x81
00001A92  A949                     syscall    GetMenuHandle
00001A94  3F3C 0002                move.w     -[A7], 0x2
00001A98  A939                     syscall    EnableItem
00001A9A  600E                     bra        +0x10 /* 00001AAA */
label00001A9C:
00001A9C  42A7                     clr.l      -[A7]
00001A9E  3F3C 0081                move.w     -[A7], 0x81
00001AA2  A949                     syscall    GetMenuHandle
00001AA4  3F3C 0002                move.w     -[A7], 0x2
00001AA8  A93A                     syscall    DisableItem
label00001AAA:
00001AAA  700C                     moveq.l    D0, 0x0C
00001AAC  B06D ABE8                cmp.w      D0, [A5 - 0x5418]
00001AB0  57C0                     seq        D0
00001AB2  7210                     moveq.l    D1, 0x10
00001AB4  B26D ABE8                cmp.w      D1, [A5 - 0x5418]
00001AB8  57C1                     seq        D1
00001ABA  8001                     or.b       D0, D1
00001ABC  671E                     beq        +0x20 /* 00001ADC */
00001ABE  42A7                     clr.l      -[A7]
00001AC0  3F3C 0085                move.w     -[A7], 0x85
00001AC4  A949                     syscall    GetMenuHandle
00001AC6  3F3C 0006                move.w     -[A7], 0x6
00001ACA  A93A                     syscall    DisableItem
00001ACC  42A7                     clr.l      -[A7]
00001ACE  3F3C 0085                move.w     -[A7], 0x85
00001AD2  A949                     syscall    GetMenuHandle
00001AD4  3F3C 0007                move.w     -[A7], 0x7
00001AD8  A93A                     syscall    DisableItem
00001ADA  601C                     bra        +0x1E /* 00001AF8 */
label00001ADC:
00001ADC  42A7                     clr.l      -[A7]
00001ADE  3F3C 0085                move.w     -[A7], 0x85
00001AE2  A949                     syscall    GetMenuHandle
00001AE4  3F3C 0006                move.w     -[A7], 0x6
00001AE8  A939                     syscall    EnableItem
00001AEA  42A7                     clr.l      -[A7]
00001AEC  3F3C 0085                move.w     -[A7], 0x85
00001AF0  A949                     syscall    GetMenuHandle
00001AF2  3F3C 0007                move.w     -[A7], 0x7
00001AF6  A939                     syscall    EnableItem
label00001AF8:
00001AF8  7004                     moveq.l    D0, 0x04
00001AFA  B0AD F214                cmp.l      D0, [A5 - 0xDEC]
00001AFE  6D0E                     blt        +0x10 /* 00001B0E */
00001B00  42A7                     clr.l      -[A7]
00001B02  3F3C 0085                move.w     -[A7], 0x85
00001B06  A949                     syscall    GetMenuHandle
00001B08  3F3C 0003                move.w     -[A7], 0x3
00001B0C  A93A                     syscall    DisableItem
label00001B0E:
00001B0E  42A7                     clr.l      -[A7]
00001B10  3F3C 0085                move.w     -[A7], 0x85
00001B14  A949                     syscall    GetMenuHandle
00001B16  4267                     clr.w      -[A7]
00001B18  A939                     syscall    EnableItem
00001B1A  42A7                     clr.l      -[A7]
00001B1C  3F3C 0083                move.w     -[A7], 0x83
00001B20  A949                     syscall    GetMenuHandle
00001B22  4267                     clr.w      -[A7]
00001B24  A939                     syscall    EnableItem
00001B26  42A7                     clr.l      -[A7]
00001B28  3F3C 0083                move.w     -[A7], 0x83
00001B2C  A949                     syscall    GetMenuHandle
00001B2E  3F3C 0001                move.w     -[A7], 0x1
00001B32  A939                     syscall    EnableItem
00001B34  42A7                     clr.l      -[A7]
00001B36  3F3C 0083                move.w     -[A7], 0x83
00001B3A  A949                     syscall    GetMenuHandle
00001B3C  3F3C 0002                move.w     -[A7], 0x2
00001B40  A939                     syscall    EnableItem
00001B42  42A7                     clr.l      -[A7]
00001B44  3F3C 0083                move.w     -[A7], 0x83
00001B48  A949                     syscall    GetMenuHandle
00001B4A  3F3C 0004                move.w     -[A7], 0x4
00001B4E  A939                     syscall    EnableItem
00001B50  42A7                     clr.l      -[A7]
00001B52  3F3C 0083                move.w     -[A7], 0x83
00001B56  A949                     syscall    GetMenuHandle
00001B58  3F3C 0006                move.w     -[A7], 0x6
00001B5C  A939                     syscall    EnableItem
00001B5E  42A7                     clr.l      -[A7]
00001B60  3F3C 0083                move.w     -[A7], 0x83
00001B64  A949                     syscall    GetMenuHandle
00001B66  3F3C 0005                move.w     -[A7], 0x5
00001B6A  A939                     syscall    EnableItem
00001B6C  70FF                     moveq.l    D0, 0xFFFFFFFF
00001B6E  B0AD A4E6                cmp.l      D0, [A5 - 0x5B1A]
00001B72  661E                     bne        +0x20 /* 00001B92 */
00001B74  42A7                     clr.l      -[A7]
00001B76  3F3C 0085                move.w     -[A7], 0x85
00001B7A  A949                     syscall    GetMenuHandle
00001B7C  3F3C 0004                move.w     -[A7], 0x4
00001B80  A939                     syscall    EnableItem
00001B82  42A7                     clr.l      -[A7]
00001B84  3F3C 0085                move.w     -[A7], 0x85
00001B88  A949                     syscall    GetMenuHandle
00001B8A  3F3C 0005                move.w     -[A7], 0x5
00001B8E  A939                     syscall    EnableItem
00001B90  601C                     bra        +0x1E /* 00001BAE */
label00001B92:
00001B92  42A7                     clr.l      -[A7]
00001B94  3F3C 0085                move.w     -[A7], 0x85
00001B98  A949                     syscall    GetMenuHandle
00001B9A  3F3C 0004                move.w     -[A7], 0x4
00001B9E  A93A                     syscall    DisableItem
00001BA0  42A7                     clr.l      -[A7]
00001BA2  3F3C 0085                move.w     -[A7], 0x85
00001BA6  A949                     syscall    GetMenuHandle
00001BA8  3F3C 0005                move.w     -[A7], 0x5
00001BAC  A93A                     syscall    DisableItem
label00001BAE:
00001BAE  7012                     moveq.l    D0, 0x12
00001BB0  B06D ABE8                cmp.w      D0, [A5 - 0x5418]
00001BB4  6620                     bne        +0x22 /* 00001BD6 */
00001BB6  2F2D F21C                move.l     -[A7], [A5 - 0xDE4]
00001BBA  3F3C 0014                move.w     -[A7], 0x14
00001BBE  487A 0062                pea.l      [PC + 0x62 /* 00001C22, value 0x94A415A '\tJAZ', pstring "JAZ Setup" */]
00001BC2  4EAD 0332                jsr        [A5 + 0x332 /* export_98, CODE:2 @ 00000714 */]
00001BC6  42A7                     clr.l      -[A7]
00001BC8  3F3C 0085                move.w     -[A7], 0x85
00001BCC  A949                     syscall    GetMenuHandle
00001BCE  3F3C 0008                move.w     -[A7], 0x8
00001BD2  A939                     syscall    EnableItem
00001BD4  601E                     bra        +0x20 /* 00001BF4 */
label00001BD6:
00001BD6  2F2D F21C                move.l     -[A7], [A5 - 0xDE4]
00001BDA  3F3C 0014                move.w     -[A7], 0x14
00001BDE  487A 0036                pea.l      [PC + 0x36 /* 00001C16, value 0xA456173 '\nEas', pstring "Easy Setup" */]
00001BE2  4EAD 0332                jsr        [A5 + 0x332 /* export_98, CODE:2 @ 00000714 */]
00001BE6  42A7                     clr.l      -[A7]
00001BE8  3F3C 0085                move.w     -[A7], 0x85
00001BEC  A949                     syscall    GetMenuHandle
00001BEE  3F3C 0008                move.w     -[A7], 0x8
00001BF2  A93A                     syscall    DisableItem
label00001BF4:
00001BF4  42A7                     clr.l      -[A7]
00001BF6  3F3C 0084                move.w     -[A7], 0x84
00001BFA  A949                     syscall    GetMenuHandle
00001BFC  4267                     clr.w      -[A7]
00001BFE  A939                     syscall    EnableItem
00001C00  A937                     syscall    DrawMenuBar
00001C02  4E5E                     unlink     A6
00001C04  4E75                     rts
00001C06  8D54 5552 4E4F 4E42 5... dc.b       "TURNONBUTTONS" + 22 constant bytes
fn00001C2C:
00001C2C  4E56 FF00                link       A6, -0x0100
00001C30  4267                     clr.w      -[A7]
00001C32  4EAD 04D2                jsr        [A5 + 0x4D2 /* export_150, CODE:4 @ 00001A88 */]
00001C36  486D B202                pea.l      [A5 - 0x4DFE]
00001C3A  41EE FF00                lea.l      A0, [A6 - 0x100]
00001C3E  2008                     move.l     D0, A0
00001C40  5280                     addq.l     D0, 1
00001C42  2F00                     move.l     -[A7], D0
00001C44  701D                     moveq.l    D0, 0x1D
00001C46  2F00                     move.l     -[A7], D0
00001C48  4EBA 1DF8                jsr        [PC + 0x1DF8 /* 00003A42 */]
00001C4C  701C                     moveq.l    D0, 0x1C
00001C4E  41BC 00FF 1D40           .invalid   0, 0xFF1D40 // invalid opcode 4 with b == 6
00001C54  FF00                     .extension 0xF00 <<F/4-5/7>> // unimplemented
00001C56  206E 0008                movea.l    A0, [A6 + 0x8]
00001C5A  43EE FF00                lea.l      A1, [A6 - 0x100]
00001C5E  1F11                     move.b     -[A7], [A1]
00001C60  3F3C 00FF                move.w     -[A7], 0xFF
00001C64  4EAD 074A                jsr        [A5 + 0x74A /* export_229, CODE:16 @ 000000B0 */]
00001C68  703F                     moveq.l    D0, 0x3F
label00001C6A:
00001C6A  20D9                     move.l     [A0]+, [A1]+
00001C6C  51C8 FFFC                dbf        D0, -0x6 /* 00001C6A */
00001C70  4E5E                     unlink     A6
00001C72  4E75                     rts
00001C74  9047 4554 494E 5155 4... dc.b       "GETINQUIRYSTRING"
fn00001C88:
00001C88  4E56 FF00                link       A6, -0x0100
00001C8C  2F0C                     move.l     -[A7], A4
00001C8E  286E 0008                movea.l    A4, [A6 + 0x8]
00001C92  302D AA92                move.w     D0, [A5 - 0x556E]
00001C96  41BC 0007 41ED           .invalid   0, 0x741ED // invalid opcode 4 with b == 6
00001C9C  AC62                     syscall    ForeColor, auto_pop
00001C9E  11BC 0001 0000           move.b     [A0 + D0.w], 0x1
00001CA4  0CAD 0000 0200 A4EA      cmpi.l     [A5 - 0x5B16], 0x200
00001CAC  660E                     bne        +0x10 /* 00001CBC */
00001CAE  700B                     moveq.l    D0, 0x0B
00001CB0  222D A4EE                move.l     D1, [A5 - 0x5B12]
00001CB4  E0A9                     lsr        D1, D0
00001CB6  2941 FEFC                move.l     [A4 - 0x104], D1
00001CBA  600C                     bra        +0xE /* 00001CC8 */
label00001CBC:
00001CBC  700A                     moveq.l    D0, 0x0A
00001CBE  222D A4EE                move.l     D1, [A5 - 0x5B12]
00001CC2  E0A9                     lsr        D1, D0
00001CC4  2941 FEFC                move.l     [A4 - 0x104], D1
label00001CC8:
00001CC8  2F2C FEFC                move.l     -[A7], [A4 - 0x104]
00001CCC  486D FD94                pea.l      [A5 - 0x26C]
00001CD0  4EBA 2344                jsr        [PC + 0x2344 /* 00004016 */]
00001CD4  302D ABEC                move.w     D0, [A5 - 0x5414]
00001CD8  6716                     beq        +0x18 /* 00001CF0 */
00001CDA  5340                     subq.w     D0, 1
00001CDC  6700 01A4                beq        +0x1A6 /* 00001E82 */
00001CE0  5D40                     subq.w     D0, 6
00001CE2  670C                     beq        +0xE /* 00001CF0 */
00001CE4  0440 0009                subi.w     D0, 0x9 /* '\t' */
00001CE8  6700 0198                beq        +0x19A /* 00001E82 */
00001CEC  6000 01CC                bra        +0x1CE /* 00001EBA */
label00001CF0:
00001CF0  4267                     clr.w      -[A7]
00001CF2  4EBA 10A6                jsr        [PC + 0x10A6 /* 00002D9A */]
00001CF6  101F                     move.b     D0, [A7]+
00001CF8  6700 010C                beq        +0x10E /* 00001E06 */
00001CFC  7006                     moveq.l    D0, 0x06
00001CFE  B06D ABE8                cmp.w      D0, [A5 - 0x5418]
00001D02  57C0                     seq        D0
00001D04  7210                     moveq.l    D1, 0x10
00001D06  B26D ABE8                cmp.w      D1, [A5 - 0x5418]
00001D0A  57C1                     seq        D1
00001D0C  8001                     or.b       D0, D1
00001D0E  674C                     beq        +0x4E /* 00001D5C */
00001D10  3B7C 0001 ABE6           move.w     [A5 - 0x541A], 0x1
00001D16  486C FDFC                pea.l      [A4 - 0x204]
00001D1A  2F3C 0002 01F8           move.l     -[A7], 0x201F8
00001D20  4EBA 2074                jsr        [PC + 0x2074 /* 00003D96 */]
00001D24  0CAD 0000 0BB8 A4EE      cmpi.l     [A5 - 0x5B12], 0xBB8
00001D2C  5DC0                     slt        D0
00001D2E  322D AA92                move.w     D1, [A5 - 0x556E]
00001D32  43BC 0007 41ED           .invalid   1, 0x741ED // invalid opcode 4 with b == 6
00001D38  AC6A                     syscall    HiWord, auto_pop
00001D3A  1430 1000                move.b     D2, [A0 + D1.w]
00001D3E  0A02 0001                xori.b     D2, 0x1
00001D42  C002                     and.b      D0, D2
00001D44  6716                     beq        +0x18 /* 00001D5C */
00001D46  1B7C 0001 FFE0           move.b     [A5 - 0x20], 0x1
00001D4C  302D AA92                move.w     D0, [A5 - 0x556E]
00001D50  41BC 0007 41ED           .invalid   0, 0x741ED // invalid opcode 4 with b == 6
00001D56  AC62                     syscall    ForeColor, auto_pop
00001D58  4230 0000                clr.b      [A0 + D0.w]
label00001D5C:
00001D5C  7012                     moveq.l    D0, 0x12
00001D5E  B06D ABE8                cmp.w      D0, [A5 - 0x5418]
00001D62  6618                     bne        +0x1A /* 00001D7C */
00001D64  3B7C 0001 ABE6           move.w     [A5 - 0x541A], 0x1
00001D6A  486C FDFC                pea.l      [A4 - 0x204]
00001D6E  2F3C 001A 01F8           move.l     -[A7], 0x1A01F8
00001D74  4EBA 2020                jsr        [PC + 0x2020 /* 00003D96 */]
00001D78  6000 009A                bra        +0x9C /* 00001E14 */
label00001D7C:
00001D7C  7013                     moveq.l    D0, 0x13
00001D7E  B06D ABE8                cmp.w      D0, [A5 - 0x5418]
00001D82  6616                     bne        +0x18 /* 00001D9A */
00001D84  3B7C 0001 ABE6           move.w     [A5 - 0x541A], 0x1
00001D8A  486C FDFC                pea.l      [A4 - 0x204]
00001D8E  2F3C 001B 01F8           move.l     -[A7], 0x1B01F8
00001D94  4EBA 2000                jsr        [PC + 0x2000 /* 00003D96 */]
00001D98  607A                     bra        +0x7C /* 00001E14 */
label00001D9A:
00001D9A  486D AA94                pea.l      [A5 - 0x556C]
00001D9E  487A 014E                pea.l      [PC + 0x14E /* 00001EEE, value 0x6494E53, pstring "INSITE" */]
00001DA2  4EAD 0772                jsr        [A5 + 0x772 /* export_234, CODE:16 @ 000001DC */]
00001DA6  486D AA94                pea.l      [A5 - 0x556C]
00001DAA  487A 013A                pea.l      [PC + 0x13A /* 00001EE6, value 0x6494F4D, pstring "IOMEGA" */]
00001DAE  4EAD 0772                jsr        [A5 + 0x772 /* export_234, CODE:16 @ 000001DC */]
00001DB2  101F                     move.b     D0, [A7]+
00001DB4  801F                     or.b       D0, [A7]+
00001DB6  6736                     beq        +0x38 /* 00001DEE */
00001DB8  3B7C 000E ABE8           move.w     [A5 - 0x5418], 0xE
00001DBE  3B7C 0040 ABE6           move.w     [A5 - 0x541A], 0x40 /* '@' */
00001DC4  486C FDFC                pea.l      [A4 - 0x204]
00001DC8  2F3C 0004 01F8           move.l     -[A7], 0x401F8
00001DCE  4EBA 1FC6                jsr        [PC + 0x1FC6 /* 00003D96 */]
00001DD2  102D FFDF                move.b     D0, [A5 - 0x21]
00001DD6  802D FFE0                or.b       D0, [A5 - 0x20]
00001DDA  6738                     beq        +0x3A /* 00001E14 */
00001DDC  302D AA92                move.w     D0, [A5 - 0x556E]
00001DE0  41BC 0007 41ED           .invalid   0, 0x741ED // invalid opcode 4 with b == 6
00001DE6  AC62                     syscall    ForeColor, auto_pop
00001DE8  4230 0000                clr.b      [A0 + D0.w]
00001DEC  6026                     bra        +0x28 /* 00001E14 */
label00001DEE:
00001DEE  2B7C 0020 000C ABE6      move.l     [A5 - 0x541A], 0x20000C
00001DF6  486C FDFC                pea.l      [A4 - 0x204]
00001DFA  2F3C 0003 01F8           move.l     -[A7], 0x301F8
00001E00  4EBA 1F94                jsr        [PC + 0x1F94 /* 00003D96 */]
00001E04  600E                     bra        +0x10 /* 00001E14 */
label00001E06:
00001E06  486C FDFC                pea.l      [A4 - 0x204]
00001E0A  2F3C 0001 01F8           move.l     -[A7], 0x101F8
00001E10  4EBA 1F84                jsr        [PC + 0x1F84 /* 00003D96 */]
label00001E14:
00001E14  4AAC FEFC                tst.l      [A4 - 0x104]
00001E18  6F34                     ble        +0x36 /* 00001E4E */
00001E1A  486D FD94                pea.l      [A5 - 0x26C]
00001E1E  487A 00BC                pea.l      [PC + 0xBC /* 00001EDC, value 0x4204D42, pstring " MB " */]
00001E22  486C FDFC                pea.l      [A4 - 0x204]
00001E26  486E FF00                pea.l      [A6 - 0x100]
00001E2A  3F3C 0003                move.w     -[A7], 0x3
00001E2E  4EAD 075A                jsr        [A5 + 0x75A /* export_231, CODE:16 @ 00000144 */]
00001E32  41EE FF00                lea.l      A0, [A6 - 0x100]
00001E36  1F10                     move.b     -[A7], [A0]
00001E38  3F3C 00FF                move.w     -[A7], 0xFF
00001E3C  4EAD 074A                jsr        [A5 + 0x74A /* export_229, CODE:16 @ 000000B0 */]
00001E40  43EC FF00                lea.l      A1, [A4 - 0x100]
00001E44  703F                     moveq.l    D0, 0x3F
label00001E46:
00001E46  22D8                     move.l     [A1]+, [A0]+
00001E48  51C8 FFFC                dbf        D0, -0x6 /* 00001E46 */
00001E4C  606C                     bra        +0x6E /* 00001EBA */
label00001E4E:
00001E4E  487A 0092                pea.l      [PC + 0x92 /* 00001EE2, value 0x33F3F3F, pstring "???" */]
00001E52  487A 0088                pea.l      [PC + 0x88 /* 00001EDC, value 0x4204D42, pstring " MB " */]
00001E56  486C FDFC                pea.l      [A4 - 0x204]
00001E5A  486E FF00                pea.l      [A6 - 0x100]
00001E5E  3F3C 0003                move.w     -[A7], 0x3
00001E62  4EAD 075A                jsr        [A5 + 0x75A /* export_231, CODE:16 @ 00000144 */]
00001E66  41EE FF00                lea.l      A0, [A6 - 0x100]
00001E6A  1F10                     move.b     -[A7], [A0]
00001E6C  3F3C 00FF                move.w     -[A7], 0xFF
00001E70  4EAD 074A                jsr        [A5 + 0x74A /* export_229, CODE:16 @ 000000B0 */]
00001E74  43EC FF00                lea.l      A1, [A4 - 0x100]
00001E78  703F                     moveq.l    D0, 0x3F
label00001E7A:
00001E7A  22D8                     move.l     [A1]+, [A0]+
00001E7C  51C8 FFFC                dbf        D0, -0x6 /* 00001E7A */
00001E80  6038                     bra        +0x3A /* 00001EBA */
label00001E82:
00001E82  486D AA94                pea.l      [A5 - 0x556C]
00001E86  487A 0052                pea.l      [PC + 0x52 /* 00001EDA, value 0x1200420 */]
00001E8A  486D AA9E                pea.l      [A5 - 0x5562]
00001E8E  487A 003E                pea.l      [PC + 0x3E /* 00001ECE, value 0xB205461, pstring " Tape Drive" */]
00001E92  486E FFDA                pea.l      [A6 - 0x26]
00001E96  3F3C 0004                move.w     -[A7], 0x4
00001E9A  4EAD 075A                jsr        [A5 + 0x75A /* export_231, CODE:16 @ 00000144 */]
00001E9E  41EE FFDA                lea.l      A0, [A6 - 0x26]
00001EA2  1F10                     move.b     -[A7], [A0]
00001EA4  3F3C 00FF                move.w     -[A7], 0xFF
00001EA8  4EAD 074A                jsr        [A5 + 0x74A /* export_229, CODE:16 @ 000000B0 */]
00001EAC  43EC FF00                lea.l      A1, [A4 - 0x100]
00001EB0  7008                     moveq.l    D0, 0x08
label00001EB2:
00001EB2  22D8                     move.l     [A1]+, [A0]+
00001EB4  51C8 FFFC                dbf        D0, -0x6 /* 00001EB2 */
00001EB8  3290                     move.w     [A1], [A0]
label00001EBA:
00001EBA  285F                     movea.l    A4, [A7]+
00001EBC  4E5E                     unlink     A6
00001EBE  2E9F                     move.l     [A7], [A7]+
00001EC0  4E75                     rts
00001EC2  8944 4F54 4845 5245 5... dc.b       "DOTHEREST" + 40 constant bytes
fn00001EF6:
00001EF6  4E56 FBFC                link       A6, -0x0404
00001EFA  422D FFF1                clr.b      [A5 - 0xF]
00001EFE  426D ABE6                clr.w      [A5 - 0x541A]
00001F02  2F3C 0001 0001           move.l     -[A7], 0x10001
00001F08  3F3C 0001                move.w     -[A7], 0x1
00001F0C  4EBA E992                jsr        [PC - 0x166E /* 000008A0 */]
00001F10  7005                     moveq.l    D0, 0x05
00001F12  B06D ABEC                cmp.w      D0, [A5 - 0x5414]
00001F16  57C0                     seq        D0
00001F18  C02D FFDE                and.b      D0, [A5 - 0x22]
00001F1C  6724                     beq        +0x26 /* 00001F42 */
00001F1E  486E FBFC                pea.l      [A6 - 0x404]
00001F22  4EBA FD08                jsr        [PC - 0x2F8 /* 00001C2C */]
00001F26  205F                     movea.l    A0, [A7]+
00001F28  1F10                     move.b     -[A7], [A0]
00001F2A  3F3C 00FF                move.w     -[A7], 0xFF
00001F2E  4EAD 074A                jsr        [A5 + 0x74A /* export_229, CODE:16 @ 000000B0 */]
00001F32  43EE FF00                lea.l      A1, [A6 - 0x100]
00001F36  703F                     moveq.l    D0, 0x3F
label00001F38:
00001F38  22D8                     move.l     [A1]+, [A0]+
00001F3A  51C8 FFFC                dbf        D0, -0x6 /* 00001F38 */
00001F3E  6000 050E                bra        +0x510 /* 0000244E */
label00001F42:
00001F42  302D ABEC                move.w     D0, [A5 - 0x5414]
00001F46  6B00 04F8                bmi        +0x4FA /* 00002440 */
00001F4A  0C40 0009                cmpi.w     D0, 0x9 /* '\t' */
00001F4E  6E00 04F0                bgt        +0x4F2 /* 00002440 */
00001F52  D040                     add.w      D0, D0
00001F54  303B 0006                move.w     D0, [PC + D0.w + 0x6]
00001F58  4EFB 0000                jmp        [PC + D0.w]
00001F5C  0094 0094 0016           ori.l      [A4], 0x940016
00001F62  0028 003A 004C           ori.b      [A0 + 0x4C], 0x3A /* ':' */
00001F68  005E 0094                ori.w      [A6]+, 0x94
00001F6C  0070 0082 486E           ori.w      [A0 + D4 + 0x6E], 0x82
00001F72  FF00                     .extension 0xF00 <<F/4-5/7>> // unimplemented
00001F74  2F3C 000B 01F8           move.l     -[A7], 0xB01F8
00001F7A  4EBA 1E1A                jsr        [PC + 0x1E1A /* 00003D96 */]
00001F7E  6000 04CE                bra        +0x4D0 /* 0000244E */
00001F82  486E FF00                pea.l      [A6 - 0x100]
00001F86  2F3C 000C 01F8           move.l     -[A7], 0xC01F8
00001F8C  4EBA 1E08                jsr        [PC + 0x1E08 /* 00003D96 */]
00001F90  6000 04BC                bra        +0x4BE /* 0000244E */
00001F94  486E FF00                pea.l      [A6 - 0x100]
00001F98  2F3C 000D 01F8           move.l     -[A7], 0xD01F8
00001F9E  4EBA 1DF6                jsr        [PC + 0x1DF6 /* 00003D96 */]
00001FA2  6000 04AA                bra        +0x4AC /* 0000244E */
00001FA6  486E FF00                pea.l      [A6 - 0x100]
00001FAA  2F3C 000E 01F8           move.l     -[A7], 0xE01F8
00001FB0  4EBA 1DE4                jsr        [PC + 0x1DE4 /* 00003D96 */]
00001FB4  6000 0498                bra        +0x49A /* 0000244E */
00001FB8  486E FF00                pea.l      [A6 - 0x100]
00001FBC  2F3C 000F 01F8           move.l     -[A7], 0xF01F8
00001FC2  4EBA 1DD2                jsr        [PC + 0x1DD2 /* 00003D96 */]
00001FC6  6000 0486                bra        +0x488 /* 0000244E */
00001FCA  486E FF00                pea.l      [A6 - 0x100]
00001FCE  2F3C 0011 01F8           move.l     -[A7], 0x1101F8
00001FD4  4EBA 1DC0                jsr        [PC + 0x1DC0 /* 00003D96 */]
00001FD8  6000 0474                bra        +0x476 /* 0000244E */
00001FDC  486E FF00                pea.l      [A6 - 0x100]
00001FE0  2F3C 0012 01F8           move.l     -[A7], 0x1201F8
00001FE6  4EBA 1DAE                jsr        [PC + 0x1DAE /* 00003D96 */]
00001FEA  6000 0462                bra        +0x464 /* 0000244E */
00001FEE  486D AA94                pea.l      [A5 - 0x556C]
00001FF2  487A 05A2                pea.l      [PC + 0x5A2 /* 00002596, value 0x7515541, pstring "QUANTUM" */]
00001FF6  4EAD 0772                jsr        [A5 + 0x772 /* export_234, CODE:16 @ 000001DC */]
00001FFA  486D AA94                pea.l      [A5 - 0x556C]
00001FFE  487A 058E                pea.l      [PC + 0x58E /* 0000258E, value 0x7517561, pstring "Quantum" */]
00002002  4EAD 0772                jsr        [A5 + 0x772 /* export_234, CODE:16 @ 000001DC */]
00002006  101F                     move.b     D0, [A7]+
00002008  801F                     or.b       D0, [A7]+
0000200A  6728                     beq        +0x2A /* 00002034 */
0000200C  3B7C 0001 ABE8           move.w     [A5 - 0x5418], 0x1
00002012  3B7C 001E ABE6           move.w     [A5 - 0x541A], 0x1E
00002018  486D AA9E                pea.l      [A5 - 0x5562]
0000201C  487A 056A                pea.l      [PC + 0x56A /* 00002588, value 0x4513238, pstring "Q280" */]
00002020  4EAD 0772                jsr        [A5 + 0x772 /* export_234, CODE:16 @ 000001DC */]
00002024  101F                     move.b     D0, [A7]+
00002026  6700 03B6                beq        +0x3B8 /* 000023DE */
0000202A  3B7C 000E ABE6           move.w     [A5 - 0x541A], 0xE
00002030  6000 03AC                bra        +0x3AE /* 000023DE */
label00002034:
00002034  486D AA94                pea.l      [A5 - 0x556C]
00002038  487A 0548                pea.l      [PC + 0x548 /* 00002582, value 0x4544541, pstring "TEAC" */]
0000203C  4EAD 0772                jsr        [A5 + 0x772 /* export_234, CODE:16 @ 000001DC */]
00002040  101F                     move.b     D0, [A7]+
00002042  6710                     beq        +0x12 /* 00002054 */
00002044  3B7C 000B ABE8           move.w     [A5 - 0x5418], 0xB
0000204A  3B7C 001E ABE6           move.w     [A5 - 0x541A], 0x1E
00002050  6000 038C                bra        +0x38E /* 000023DE */
label00002054:
00002054  486D AA94                pea.l      [A5 - 0x556C]
00002058  487A 0520                pea.l      [PC + 0x520 /* 0000257A, value 0x746554A, pstring "FUJITSU" */]
0000205C  4EAD 0772                jsr        [A5 + 0x772 /* export_234, CODE:16 @ 000001DC */]
00002060  101F                     move.b     D0, [A7]+
00002062  6710                     beq        +0x12 /* 00002074 */
00002064  3B7C 000A ABE8           move.w     [A5 - 0x5418], 0xA /* '\n' */
0000206A  3B7C 001E ABE6           move.w     [A5 - 0x541A], 0x1E
00002070  6000 036C                bra        +0x36E /* 000023DE */
label00002074:
00002074  486D AA94                pea.l      [A5 - 0x556C]
00002078  487A 04F8                pea.l      [PC + 0x4F8 /* 00002572, value 0x7484954, pstring "HITACHI" */]
0000207C  4EAD 0772                jsr        [A5 + 0x772 /* export_234, CODE:16 @ 000001DC */]
00002080  101F                     move.b     D0, [A7]+
00002082  6710                     beq        +0x12 /* 00002094 */
00002084  3B7C 0009 ABE8           move.w     [A5 - 0x5418], 0x9 /* '\t' */
0000208A  3B7C 001E ABE6           move.w     [A5 - 0x541A], 0x1E
00002090  6000 034C                bra        +0x34E /* 000023DE */
label00002094:
00002094  486D AA94                pea.l      [A5 - 0x556C]
00002098  487A 04D4                pea.l      [PC + 0x4D4 /* 0000256E, value 0x349424D, pstring "IBM" */]
0000209C  4EAD 0772                jsr        [A5 + 0x772 /* export_234, CODE:16 @ 000001DC */]
000020A0  486D AA94                pea.l      [A5 - 0x556C]
000020A4  487A 04C0                pea.l      [PC + 0x4C0 /* 00002566, value 0x649424D, pstring "IBMOEM" */]
000020A8  4EAD 0772                jsr        [A5 + 0x772 /* export_234, CODE:16 @ 000001DC */]
000020AC  101F                     move.b     D0, [A7]+
000020AE  801F                     or.b       D0, [A7]+
000020B0  6718                     beq        +0x1A /* 000020CA */
000020B2  3B7C 0007 ABE8           move.w     [A5 - 0x5418], 0x7
000020B8  3B7C 001E ABE6           move.w     [A5 - 0x541A], 0x1E
000020BE  42A7                     clr.l      -[A7]
000020C0  4267                     clr.w      -[A7]
000020C2  4EBA E7DC                jsr        [PC - 0x1824 /* 000008A0 */]
000020C6  6000 0316                bra        +0x318 /* 000023DE */
label000020CA:
000020CA  486D AA94                pea.l      [A5 - 0x556C]
000020CE  487A 0492                pea.l      [PC + 0x492 /* 00002562, value 0x3444543, pstring "DEC" */]
000020D2  4EAD 0772                jsr        [A5 + 0x772 /* export_234, CODE:16 @ 000001DC */]
000020D6  101F                     move.b     D0, [A7]+
000020D8  670C                     beq        +0xE /* 000020E6 */
000020DA  2B7C 001E 000F ABE6      move.l     [A5 - 0x541A], 0x1E000F
000020E2  6000 02FA                bra        +0x2FC /* 000023DE */
label000020E6:
000020E6  486D AA94                pea.l      [A5 - 0x556C]
000020EA  487A 0472                pea.l      [PC + 0x472 /* 0000255E, value 0x2485000, pstring "HP" */]
000020EE  4EAD 0772                jsr        [A5 + 0x772 /* export_234, CODE:16 @ 000001DC */]
000020F2  101F                     move.b     D0, [A7]+
000020F4  670A                     beq        +0xC /* 00002100 */
000020F6  3B7C 001E ABE6           move.w     [A5 - 0x541A], 0x1E
000020FC  6000 02E0                bra        +0x2E2 /* 000023DE */
label00002100:
00002100  486D AA94                pea.l      [A5 - 0x556C]
00002104  487A 0452                pea.l      [PC + 0x452 /* 00002558, value 0x54B414C, pstring "KALOK" */]
00002108  4EAD 0772                jsr        [A5 + 0x772 /* export_234, CODE:16 @ 000001DC */]
0000210C  101F                     move.b     D0, [A7]+
0000210E  670A                     beq        +0xC /* 0000211A */
00002110  3B7C 001E ABE6           move.w     [A5 - 0x541A], 0x1E
00002116  6000 02C6                bra        +0x2C8 /* 000023DE */
label0000211A:
0000211A  486D AA94                pea.l      [A5 - 0x556C]
0000211E  487A 0430                pea.l      [PC + 0x430 /* 00002550, value 0x6574449, pstring "WDIGTL" */]
00002122  4EAD 0772                jsr        [A5 + 0x772 /* export_234, CODE:16 @ 000001DC */]
00002126  101F                     move.b     D0, [A7]+
00002128  670A                     beq        +0xC /* 00002134 */
0000212A  3B7C 001E ABE6           move.w     [A5 - 0x541A], 0x1E
00002130  6000 02AC                bra        +0x2AE /* 000023DE */
label00002134:
00002134  486D AA94                pea.l      [A5 - 0x556C]
00002138  487A 040C                pea.l      [PC + 0x40C /* 00002546, value 0x8414C4C, pstring "ALLODYNE" */]
0000213C  4EAD 0772                jsr        [A5 + 0x772 /* export_234, CODE:16 @ 000001DC */]
00002140  101F                     move.b     D0, [A7]+
00002142  670A                     beq        +0xC /* 0000214E */
00002144  3B7C 001E ABE6           move.w     [A5 - 0x541A], 0x1E
0000214A  6000 0292                bra        +0x294 /* 000023DE */
label0000214E:
0000214E  486D AA94                pea.l      [A5 - 0x556C]
00002152  487A 03EA                pea.l      [PC + 0x3EA /* 0000253E, value 0x7544F53, pstring "TOSHIBA" */]
00002156  4EAD 0772                jsr        [A5 + 0x772 /* export_234, CODE:16 @ 000001DC */]
0000215A  101F                     move.b     D0, [A7]+
0000215C  670A                     beq        +0xC /* 00002168 */
0000215E  3B7C 001E ABE6           move.w     [A5 - 0x541A], 0x1E
00002164  6000 0278                bra        +0x27A /* 000023DE */
label00002168:
00002168  486D AA94                pea.l      [A5 - 0x556C]
0000216C  487A 03C8                pea.l      [PC + 0x3C8 /* 00002536, value 0x64D4943, pstring "MICROP" */]
00002170  4EAD 0772                jsr        [A5 + 0x772 /* export_234, CODE:16 @ 000001DC */]
00002174  101F                     move.b     D0, [A7]+
00002176  6710                     beq        +0x12 /* 00002188 */
00002178  3B7C 000D ABE8           move.w     [A5 - 0x5418], 0xD /* '\r' */
0000217E  3B7C 001E ABE6           move.w     [A5 - 0x541A], 0x1E
00002184  6000 0258                bra        +0x25A /* 000023DE */
label00002188:
00002188  486D AA94                pea.l      [A5 - 0x556C]
0000218C  487A 03A4                pea.l      [PC + 0x3A4 /* 00002532, value 0x3434443, pstring "CDC" */]
00002190  4EAD 0772                jsr        [A5 + 0x772 /* export_234, CODE:16 @ 000001DC */]
00002194  486D AA94                pea.l      [A5 - 0x556C]
00002198  487A 038E                pea.l      [PC + 0x38E /* 00002528, value 0x8494D50, pstring "IMPRIMIS" */]
0000219C  4EAD 0772                jsr        [A5 + 0x772 /* export_234, CODE:16 @ 000001DC */]
000021A0  101F                     move.b     D0, [A7]+
000021A2  801F                     or.b       D0, [A7]+
000021A4  6710                     beq        +0x12 /* 000021B6 */
000021A6  3B7C 0008 ABE8           move.w     [A5 - 0x5418], 0x8
000021AC  3B7C 001E ABE6           move.w     [A5 - 0x541A], 0x1E
000021B2  6000 022A                bra        +0x22C /* 000023DE */
label000021B6:
000021B6  486D AA94                pea.l      [A5 - 0x556C]
000021BA  487A 0366                pea.l      [PC + 0x366 /* 00002522, value 0x5455053, pstring "EPSON" */]
000021BE  4EAD 0772                jsr        [A5 + 0x772 /* export_234, CODE:16 @ 000001DC */]
000021C2  101F                     move.b     D0, [A7]+
000021C4  670A                     beq        +0xC /* 000021D0 */
000021C6  3B7C 001E ABE6           move.w     [A5 - 0x541A], 0x1E
000021CC  6000 0210                bra        +0x212 /* 000023DE */
label000021D0:
000021D0  486D AA94                pea.l      [A5 - 0x556C]
000021D4  487A 0344                pea.l      [PC + 0x344 /* 0000251A, value 0x6434F4E, pstring "CONNER" */]
000021D8  4EAD 0772                jsr        [A5 + 0x772 /* export_234, CODE:16 @ 000001DC */]
000021DC  101F                     move.b     D0, [A7]+
000021DE  6710                     beq        +0x12 /* 000021F0 */
000021E0  3B7C 0003 ABE8           move.w     [A5 - 0x5418], 0x3
000021E6  3B7C 001E ABE6           move.w     [A5 - 0x541A], 0x1E
000021EC  6000 01F0                bra        +0x1F2 /* 000023DE */
label000021F0:
000021F0  486D AA94                pea.l      [A5 - 0x556C]
000021F4  487A 031C                pea.l      [PC + 0x31C /* 00002512, value 0x6524F44, pstring "RODIME" */]
000021F8  4EAD 0772                jsr        [A5 + 0x772 /* export_234, CODE:16 @ 000001DC */]
000021FC  101F                     move.b     D0, [A7]+
000021FE  6728                     beq        +0x2A /* 00002228 */
00002200  3B7C 0004 ABE8           move.w     [A5 - 0x5418], 0x4
00002206  3B7C 000A ABE6           move.w     [A5 - 0x541A], 0xA /* '\n' */
0000220C  486D AA9E                pea.l      [A5 - 0x5562]
00002210  487A 02F6                pea.l      [PC + 0x2F6 /* 00002508, value 0x8524F33, pstring "RO3009TP" */]
00002214  4EAD 0772                jsr        [A5 + 0x772 /* export_234, CODE:16 @ 000001DC */]
00002218  101F                     move.b     D0, [A7]+
0000221A  6700 01C2                beq        +0x1C4 /* 000023DE */
0000221E  3B7C 001E ABE6           move.w     [A5 - 0x541A], 0x1E
00002224  6000 01B8                bra        +0x1BA /* 000023DE */
label00002228:
00002228  486D AA94                pea.l      [A5 - 0x556C]
0000222C  487A 02D2                pea.l      [PC + 0x2D2 /* 00002500, value 0x7534541, pstring "SEAGATE" */]
00002230  4EAD 0772                jsr        [A5 + 0x772 /* export_234, CODE:16 @ 000001DC */]
00002234  101F                     move.b     D0, [A7]+
00002236  6700 0088                beq        +0x8A /* 000022C0 */
0000223A  3B7C 0002 ABE8           move.w     [A5 - 0x5418], 0x2
00002240  3B7C 001E ABE6           move.w     [A5 - 0x541A], 0x1E
00002246  2F3C 0002 0004           move.l     -[A7], 0x20004
0000224C  3F3C 0001                move.w     -[A7], 0x1
00002250  4EBA E64E                jsr        [PC - 0x19B2 /* 000008A0 */]
00002254  486D AA9E                pea.l      [A5 - 0x5562]
00002258  487A 029E                pea.l      [PC + 0x29E /* 000024F8, value 0x6535432, pstring "ST225N" */]
0000225C  4EAD 0772                jsr        [A5 + 0x772 /* export_234, CODE:16 @ 000001DC */]
00002260  101F                     move.b     D0, [A7]+
00002262  670A                     beq        +0xC /* 0000226E */
00002264  1B7C 0001 FFF1           move.b     [A5 - 0xF], 0x1
0000226A  6000 0172                bra        +0x174 /* 000023DE */
label0000226E:
0000226E  486D AA9E                pea.l      [A5 - 0x5562]
00002272  487A 027C                pea.l      [PC + 0x27C /* 000024F0, value 0x6535431, pstring "ST1480" */]
00002276  4EAD 0772                jsr        [A5 + 0x772 /* export_234, CODE:16 @ 000001DC */]
0000227A  101F                     move.b     D0, [A7]+
0000227C  6718                     beq        +0x1A /* 00002296 */
0000227E  2F3C 0001 0001           move.l     -[A7], 0x10001
00002284  3F3C 0001                move.w     -[A7], 0x1
00002288  4EBA E616                jsr        [PC - 0x19EA /* 000008A0 */]
0000228C  3B7C 0008 ABE8           move.w     [A5 - 0x5418], 0x8
00002292  6000 014A                bra        +0x14C /* 000023DE */
label00002296:
00002296  486D AA9E                pea.l      [A5 - 0x5562]
0000229A  487A 024C                pea.l      [PC + 0x24C /* 000024E8, value 0x6535434, pstring "ST4676" */]
0000229E  4EAD 0772                jsr        [A5 + 0x772 /* export_234, CODE:16 @ 000001DC */]
000022A2  101F                     move.b     D0, [A7]+
000022A4  6700 0138                beq        +0x13A /* 000023DE */
000022A8  2F3C 0001 0001           move.l     -[A7], 0x10001
000022AE  3F3C 0001                move.w     -[A7], 0x1
000022B2  4EBA E5EC                jsr        [PC - 0x1A14 /* 000008A0 */]
000022B6  3B7C 0008 ABE8           move.w     [A5 - 0x5418], 0x8
000022BC  6000 0120                bra        +0x122 /* 000023DE */
label000022C0:
000022C0  486D AA94                pea.l      [A5 - 0x556C]
000022C4  487A 021A                pea.l      [PC + 0x21A /* 000024E0, value 0x64D4158, pstring "MAXTOR" */]
000022C8  4EAD 0772                jsr        [A5 + 0x772 /* export_234, CODE:16 @ 000001DC */]
000022CC  101F                     move.b     D0, [A7]+
000022CE  670A                     beq        +0xC /* 000022DA */
000022D0  3B7C 001E ABE6           move.w     [A5 - 0x541A], 0x1E
000022D6  6000 0106                bra        +0x108 /* 000023DE */
label000022DA:
000022DA  486D AA94                pea.l      [A5 - 0x556C]
000022DE  487A 01FC                pea.l      [PC + 0x1FC /* 000024DC, value 0x34E4543, pstring "NEC" */]
000022E2  4EAD 0772                jsr        [A5 + 0x772 /* export_234, CODE:16 @ 000001DC */]
000022E6  101F                     move.b     D0, [A7]+
000022E8  670A                     beq        +0xC /* 000022F4 */
000022EA  3B7C 001E ABE6           move.w     [A5 - 0x541A], 0x1E
000022F0  6000 00EC                bra        +0xEE /* 000023DE */
label000022F4:
000022F4  486D AA94                pea.l      [A5 - 0x556C]
000022F8  487A 01DA                pea.l      [PC + 0x1DA /* 000024D4, value 0x7537951, pstring "SyQuest" */]
000022FC  4EAD 0772                jsr        [A5 + 0x772 /* export_234, CODE:16 @ 000001DC */]
00002300  101F                     move.b     D0, [A7]+
00002302  670A                     beq        +0xC /* 0000230E */
00002304  3B7C 0006 ABE8           move.w     [A5 - 0x5418], 0x6
0000230A  6000 00D2                bra        +0xD4 /* 000023DE */
label0000230E:
0000230E  486D AA94                pea.l      [A5 - 0x556C]
00002312  487A 01B8                pea.l      [PC + 0x1B8 /* 000024CC, value 0x6696F6D, pstring "iomega" */]
00002316  4EAD 0772                jsr        [A5 + 0x772 /* export_234, CODE:16 @ 000001DC */]
0000231A  487A 01AC                pea.l      [PC + 0x1AC /* 000024C8, value 0x36A617A, pstring "jaz" */]
0000231E  486D AA9E                pea.l      [A5 - 0x5562]
00002322  4EAD 0752                jsr        [A5 + 0x752 /* export_230, CODE:16 @ 000000F6 */]
00002326  4A5F                     tst.w      [A7]+
00002328  56C0                     sne        D0
0000232A  C01F                     and.b      D0, [A7]+
0000232C  670A                     beq        +0xC /* 00002338 */
0000232E  3B7C 0012 ABE8           move.w     [A5 - 0x5418], 0x12
00002334  6000 00A8                bra        +0xAA /* 000023DE */
label00002338:
00002338  486D AA94                pea.l      [A5 - 0x556C]
0000233C  487A 017E                pea.l      [PC + 0x17E /* 000024BC, value 0x6494F4D, pstring "IOMEGA" */]
00002340  4EAD 0772                jsr        [A5 + 0x772 /* export_234, CODE:16 @ 000001DC */]
00002344  487A 017E                pea.l      [PC + 0x17E /* 000024C4, value 0x35A4950, pstring "ZIP" */]
00002348  486D AA9E                pea.l      [A5 - 0x5562]
0000234C  4EAD 0752                jsr        [A5 + 0x752 /* export_230, CODE:16 @ 000000F6 */]
00002350  4A5F                     tst.w      [A7]+
00002352  56C0                     sne        D0
00002354  C01F                     and.b      D0, [A7]+
00002356  6708                     beq        +0xA /* 00002360 */
00002358  3B7C 0013 ABE8           move.w     [A5 - 0x5418], 0x13
0000235E  607E                     bra        +0x80 /* 000023DE */
label00002360:
00002360  486D AA94                pea.l      [A5 - 0x556C]
00002364  487A 0156                pea.l      [PC + 0x156 /* 000024BC, value 0x6494F4D, pstring "IOMEGA" */]
00002368  4EAD 0772                jsr        [A5 + 0x772 /* export_234, CODE:16 @ 000001DC */]
0000236C  487A 0148                pea.l      [PC + 0x148 /* 000024B6, value 0x4424554, pstring "BETA" */]
00002370  486D AA9E                pea.l      [A5 - 0x5562]
00002374  4EAD 0752                jsr        [A5 + 0x752 /* export_230, CODE:16 @ 000000F6 */]
00002378  4A5F                     tst.w      [A7]+
0000237A  56C0                     sne        D0
0000237C  C01F                     and.b      D0, [A7]+
0000237E  6708                     beq        +0xA /* 00002388 */
00002380  3B7C 0010 ABE8           move.w     [A5 - 0x5418], 0x10
00002386  6056                     bra        +0x58 /* 000023DE */
label00002388:
00002388  486D AA94                pea.l      [A5 - 0x556C]
0000238C  487A 0124                pea.l      [PC + 0x124 /* 000024B2, value 0x3592D45, pstring "Y-E" */]
00002390  4EAD 0772                jsr        [A5 + 0x772 /* export_234, CODE:16 @ 000001DC */]
00002394  101F                     move.b     D0, [A7]+
00002396  6708                     beq        +0xA /* 000023A0 */
00002398  3B7C 0006 ABE8           move.w     [A5 - 0x5418], 0x6
0000239E  603E                     bra        +0x40 /* 000023DE */
label000023A0:
000023A0  486D AA94                pea.l      [A5 - 0x556C]
000023A4  487A 0106                pea.l      [PC + 0x106 /* 000024AC, value 0x5524943, pstring "RICOH" */]
000023A8  4EAD 0772                jsr        [A5 + 0x772 /* export_234, CODE:16 @ 000001DC */]
000023AC  101F                     move.b     D0, [A7]+
000023AE  672E                     beq        +0x30 /* 000023DE */
000023B0  486D AA9E                pea.l      [A5 - 0x5562]
000023B4  487A 00EE                pea.l      [PC + 0xEE /* 000024A4, value 0x6524835, pstring "RH5500" */]
000023B8  4EAD 0772                jsr        [A5 + 0x772 /* export_234, CODE:16 @ 000001DC */]
000023BC  101F                     move.b     D0, [A7]+
000023BE  6708                     beq        +0xA /* 000023C8 */
000023C0  3B7C 0006 ABE8           move.w     [A5 - 0x5418], 0x6
000023C6  6016                     bra        +0x18 /* 000023DE */
label000023C8:
000023C8  487A 00D2                pea.l      [PC + 0xD2 /* 0000249C, value 0x7524F2D, pstring "RO-5030" */]
000023CC  486D AA9E                pea.l      [A5 - 0x5562]
000023D0  4EAD 0752                jsr        [A5 + 0x752 /* export_230, CODE:16 @ 000000F6 */]
000023D4  4A5F                     tst.w      [A7]+
000023D6  6706                     beq        +0x8 /* 000023DE */
000023D8  3B7C 000C ABE8           move.w     [A5 - 0x5418], 0xC
label000023DE:
000023DE  2F0E                     move.l     -[A7], A6
000023E0  4EBA F8A6                jsr        [PC - 0x75A /* 00001C88 */]
000023E4  102D FFDE                move.b     D0, [A5 - 0x22]
000023E8  6720                     beq        +0x22 /* 0000240A */
000023EA  486E FBFC                pea.l      [A6 - 0x404]
000023EE  4EBA F83C                jsr        [PC - 0x7C4 /* 00001C2C */]
000023F2  205F                     movea.l    A0, [A7]+
000023F4  1F10                     move.b     -[A7], [A0]
000023F6  3F3C 00FF                move.w     -[A7], 0xFF
000023FA  4EAD 074A                jsr        [A5 + 0x74A /* export_229, CODE:16 @ 000000B0 */]
000023FE  43EE FF00                lea.l      A1, [A6 - 0x100]
00002402  703F                     moveq.l    D0, 0x3F
label00002404:
00002404  22D8                     move.l     [A1]+, [A0]+
00002406  51C8 FFFC                dbf        D0, -0x6 /* 00002404 */
label0000240A:
0000240A  102D ABF0                move.b     D0, [A5 - 0x5410]
0000240E  673E                     beq        +0x40 /* 0000244E */
00002410  486E FF00                pea.l      [A6 - 0x100]
00002414  487A 0080                pea.l      [PC + 0x80 /* 00002496, value 0x5202877, pstring " (wp)" */]
00002418  486E FCFC                pea.l      [A6 - 0x304]
0000241C  3F3C 0002                move.w     -[A7], 0x2
00002420  4EAD 075A                jsr        [A5 + 0x75A /* export_231, CODE:16 @ 00000144 */]
00002424  41EE FCFC                lea.l      A0, [A6 - 0x304]
00002428  1F10                     move.b     -[A7], [A0]
0000242A  3F3C 00FF                move.w     -[A7], 0xFF
0000242E  4EAD 074A                jsr        [A5 + 0x74A /* export_229, CODE:16 @ 000000B0 */]
00002432  43EE FF00                lea.l      A1, [A6 - 0x100]
00002436  703F                     moveq.l    D0, 0x3F
label00002438:
00002438  22D8                     move.l     [A1]+, [A0]+
0000243A  51C8 FFFC                dbf        D0, -0x6 /* 00002438 */
0000243E  600E                     bra        +0x10 /* 0000244E */
label00002440:
00002440  486E FF00                pea.l      [A6 - 0x100]
00002444  2F3C 0013 01F8           move.l     -[A7], 0x1301F8
0000244A  4EBA 194A                jsr        [PC + 0x194A /* 00003D96 */]
label0000244E:
0000244E  41EE FF00                lea.l      A0, [A6 - 0x100]
00002452  1F10                     move.b     -[A7], [A0]
00002454  3F3C 0030                move.w     -[A7], 0x30 /* '0' */
00002458  4EAD 074A                jsr        [A5 + 0x74A /* export_229, CODE:16 @ 000000B0 */]
0000245C  43ED AAB0                lea.l      A1, [A5 - 0x5550]
00002460  700B                     moveq.l    D0, 0x0B
label00002462:
00002462  22D8                     move.l     [A1]+, [A0]+
00002464  51C8 FFFC                dbf        D0, -0x6 /* 00002462 */
00002468  3290                     move.w     [A1], [A0]
0000246A  206E 0008                movea.l    A0, [A6 + 0x8]
0000246E  43EE FF00                lea.l      A1, [A6 - 0x100]
00002472  1F11                     move.b     -[A7], [A1]
00002474  3F3C 00FF                move.w     -[A7], 0xFF
00002478  4EAD 074A                jsr        [A5 + 0x74A /* export_229, CODE:16 @ 000000B0 */]
0000247C  703F                     moveq.l    D0, 0x3F
label0000247E:
0000247E  20D9                     move.l     [A0]+, [A1]+
00002480  51C8 FFFC                dbf        D0, -0x6 /* 0000247E */
00002484  4E5E                     unlink     A6
00002486  4E75                     rts
00002488  8A44 4F43 4D53 4452 4... dc.b       "DOCMSDRIVE" + 264 constant bytes
fn0000259E:
0000259E  4E56 0000                link       A6, 0
000025A2  422E 0008                clr.b      [A6 + 0x8]
000025A6  4267                     clr.w      -[A7]
000025A8  4EBA 07F0                jsr        [PC + 0x7F0 /* 00002D9A */]
000025AC  101F                     move.b     D0, [A7]+
000025AE  6728                     beq        +0x2A /* 000025D8 */
000025B0  486D AA94                pea.l      [A5 - 0x556C]
000025B4  487A 0038                pea.l      [PC + 0x38 /* 000025EE, value 0x543414E, pstring "CANON" */]
000025B8  4EAD 0772                jsr        [A5 + 0x772 /* export_234, CODE:16 @ 000001DC */]
000025BC  101F                     move.b     D0, [A7]+
000025BE  6718                     beq        +0x1A /* 000025D8 */
000025C0  4267                     clr.w      -[A7]
000025C2  42A7                     clr.l      -[A7]
000025C4  2F3C 0000 0001           move.l     -[A7], 0x1
000025CA  4EAD 03AA                jsr        [A5 + 0x3AA /* export_113, CODE:3 @ 00001480 */]
000025CE  101F                     move.b     D0, [A7]+
000025D0  6706                     beq        +0x8 /* 000025D8 */
000025D2  1D7C 0001 0008           move.b     [A6 + 0x8], 0x1
label000025D8:
000025D8  4E5E                     unlink     A6
000025DA  4E75                     rts
000025DC  8F55 4E46 4F52 4D41 5... dc.b       "UNFORMATTEDCART" + 6 constant bytes
fn000025F4:
000025F4  4E56 FF00                link       A6, -0x0100
000025F8  2F0A                     move.l     -[A7], A2
000025FA  2B7C 0000 0200 A4EA      move.l     [A5 - 0x5B16], 0x200
00002602  302D AA92                move.w     D0, [A5 - 0x556E]
00002606  41BC 0007 41ED           .invalid   0, 0x741ED // invalid opcode 4 with b == 6
0000260C  AC6A                     syscall    HiWord, auto_pop
0000260E  1230 0000                move.b     D1, [A0 + D0.w]
00002612  0A01 0001                xori.b     D1, 0x1
00002616  4A6D ABEC                tst.w      [A5 - 0x5414]
0000261A  57C0                     seq        D0
0000261C  7407                     moveq.l    D2, 0x07
0000261E  B46D ABEC                cmp.w      D2, [A5 - 0x5414]
00002622  57C2                     seq        D2
00002624  8002                     or.b       D0, D2
00002626  C200                     and.b      D1, D0
00002628  6700 009C                beq        +0x9E /* 000026C6 */
0000262C  4267                     clr.w      -[A7]
0000262E  4EAD 04F2                jsr        [A5 + 0x4F2 /* export_154, CODE:4 @ 00001DDA */]
00002632  4267                     clr.w      -[A7]
00002634  4EBA FF68                jsr        [PC - 0x98 /* 0000259E */]
00002638  101F                     move.b     D0, [A7]+
0000263A  6706                     beq        +0x8 /* 00002642 */
0000263C  7000                     moveq.l    D0, 0x00
0000263E  2B40 A4EE                move.l     [A5 - 0x5B12], D0
label00002642:
00002642  4AAD A4EE                tst.l      [A5 - 0x5B12]
00002646  667E                     bne        +0x80 /* 000026C6 */
00002648  4267                     clr.w      -[A7]
0000264A  4EBA 074E                jsr        [PC + 0x74E /* 00002D9A */]
0000264E  101F                     move.b     D0, [A7]+
00002650  675A                     beq        +0x5C /* 000026AC */
00002652  3B7C 000C ABE8           move.w     [A5 - 0x5418], 0xC
00002658  486D FE94                pea.l      [A5 - 0x16C]
0000265C  2F3C 0006 03E6           move.l     -[A7], 0x603E6
00002662  4EBA 1732                jsr        [PC + 0x1732 /* 00003D96 */]
00002666  4267                     clr.w      -[A7]
00002668  41ED FE94                lea.l      A0, [A5 - 0x16C]
0000266C  1F10                     move.b     -[A7], [A0]
0000266E  3F3C 00FF                move.w     -[A7], 0xFF
00002672  4EAD 074A                jsr        [A5 + 0x74A /* export_229, CODE:16 @ 000000B0 */]
00002676  2F08                     move.l     -[A7], A0
00002678  4EAD 02DA                jsr        [A5 + 0x2DA /* export_87, CODE:2 @ 00000364 */]
0000267C  101F                     move.b     D0, [A7]+
0000267E  6710                     beq        +0x12 /* 00002690 */
00002680  42A7                     clr.l      -[A7]
00002682  4EAD 04CA                jsr        [A5 + 0x4CA /* export_149, CODE:4 @ 00001750 */]
00002686  101F                     move.b     D0, [A7]+
00002688  663C                     bne        +0x3E /* 000026C6 */
0000268A  4EAD 04FA                jsr        [A5 + 0x4FA /* export_155, CODE:5 @ 00000000 */]
0000268E  6036                     bra        +0x38 /* 000026C6 */
label00002690:
00002690  302D AA92                move.w     D0, [A5 - 0x556E]
00002694  41BC 0007 41ED           .invalid   0, 0x741ED // invalid opcode 4 with b == 6
0000269A  AC62                     syscall    ForeColor, auto_pop
0000269C  4230 0000                clr.b      [A0 + D0.w]
000026A0  3B7C 000C ABE8           move.w     [A5 - 0x5418], 0xC
000026A6  4EAD 04FA                jsr        [A5 + 0x4FA /* export_155, CODE:5 @ 00000000 */]
000026AA  601A                     bra        +0x1C /* 000026C6 */
label000026AC:
000026AC  4EAD 0402                jsr        [A5 + 0x402 /* export_124, CODE:4 @ 00000210 */]
000026B0  4267                     clr.w      -[A7]
000026B2  1F3C 0001                move.b     -[A7], 0x1
000026B6  4EAD 04DA                jsr        [A5 + 0x4DA /* export_151, CODE:4 @ 00001C9C */]
000026BA  101F                     move.b     D0, [A7]+
000026BC  6708                     beq        +0xA /* 000026C6 */
000026BE  1F3C 0001                move.b     -[A7], 0x1
000026C2  4EAD 04F2                jsr        [A5 + 0x4F2 /* export_154, CODE:4 @ 00001DDA */]
label000026C6:
000026C6  486D AAE2                pea.l      [A5 - 0x551E]
000026CA  4EBA E788                jsr        [PC - 0x1878 /* 00000E54 */]
000026CE  302D AA92                move.w     D0, [A5 - 0x556E]
000026D2  41BC 0007 C1FC           .invalid   0, 0x7C1FC // invalid opcode 4 with b == 6
000026D8  0032 41ED AAE2           ori.b      [A2 + A2 * 2 - 0x1E], 0xED
000026DE  1F10                     move.b     -[A7], [A0]
000026E0  3F3C 0030                move.w     -[A7], 0x30 /* '0' */
000026E4  4EAD 074A                jsr        [A5 + 0x74A /* export_229, CODE:16 @ 000000B0 */]
000026E8  45ED AC72                lea.l      A2, [A5 - 0x538E]
000026EC  43F2 0000                lea.l      A1, [A2 + D0.w]
000026F0  700B                     moveq.l    D0, 0x0B
label000026F2:
000026F2  22D8                     move.l     [A1]+, [A0]+
000026F4  51C8 FFFC                dbf        D0, -0x6 /* 000026F2 */
000026F8  3290                     move.w     [A1], [A0]
000026FA  302D AA92                move.w     D0, [A5 - 0x556E]
000026FE  41BC 0007 C1FC           .invalid   0, 0x7C1FC // invalid opcode 4 with b == 6
00002704  0032 2F00 486E           ori.b      [A2 + D4 + 0x6E], 0x0
0000270A  FF00                     .extension 0xF00 <<F/4-5/7>> // unimplemented
0000270C  4EBA F7E8                jsr        [PC - 0x818 /* 00001EF6 */]
00002710  221F                     move.l     D1, [A7]+
00002712  201F                     move.l     D0, [A7]+
00002714  2041                     movea.l    A0, D1
00002716  1F10                     move.b     -[A7], [A0]
00002718  3F3C 0030                move.w     -[A7], 0x30 /* '0' */
0000271C  4EAD 074A                jsr        [A5 + 0x74A /* export_229, CODE:16 @ 000000B0 */]
00002720  45ED AE02                lea.l      A2, [A5 - 0x51FE]
00002724  43F2 0000                lea.l      A1, [A2 + D0.w]
00002728  700B                     moveq.l    D0, 0x0B
label0000272A:
0000272A  22D8                     move.l     [A1]+, [A0]+
0000272C  51C8 FFFC                dbf        D0, -0x6 /* 0000272A */
00002730  3290                     move.w     [A1], [A0]
00002732  245F                     movea.l    A2, [A7]+
00002734  4E5E                     unlink     A6
00002736  4E75                     rts
00002738  8C47 4554 4452 4956 4... dc.b       "GETDRIVEINFO"
export_17:
fn00002748:
00002748  4E56 FFFE                link       A6, -0x0002
0000274C  422D FFDE                clr.b      [A5 - 0x22]
00002750  2F2D F21C                move.l     -[A7], [A5 - 0xDE4]
00002754  A873                     syscall    SetPort
00002756  302D AA92                move.w     D0, [A5 - 0x556E]
0000275A  5440                     addq.w     D0, 2
0000275C  3D40 FFFE                move.w     [A6 - 0x2], D0
00002760  3F2E FFFE                move.w     -[A7], [A6 - 0x2]
00002764  4EBA 0AE6                jsr        [PC + 0xAE6 /* 0000324C */]
00002768  4E5E                     unlink     A6
0000276A  4E75                     rts
0000276C  9452 4553 454C 4543 5... dc.b       "RESELECTCURRENTDRIVE"
fn00002784:
00002784  4E56 FFFE                link       A6, -0x0002
00002788  2F07                     move.l     -[A7], D7
0000278A  1D7C 0001 0008           move.b     [A6 + 0x8], 0x1
00002790  4247                     clr.w      D7
00002792  6010                     bra        +0x12 /* 000027A4 */
label00002794:
00002794  3007                     move.w     D0, D7
00002796  41BC 0009 41ED           .invalid   0, 0x941ED // invalid opcode 4 with b == 6
0000279C  B1F0 4230                cmpa.l     A0, [A0 + D4.w * 2 + 0x30]
000027A0  0000 5247                ori.b      D0, 0x47 /* 'G' */
label000027A4:
000027A4  7005                     moveq.l    D0, 0x05
000027A6  B047                     cmp.w      D0, D7
000027A8  6CEA                     bge        -0x14 /* 00002794 */
000027AA  4267                     clr.w      -[A7]
000027AC  4EAD 03FA                jsr        [A5 + 0x3FA /* export_123, CODE:4 @ 00000166 */]
000027B0  101F                     move.b     D0, [A7]+
000027B2  6730                     beq        +0x32 /* 000027E4 */
000027B4  4267                     clr.w      -[A7]
000027B6  486D B1F0                pea.l      [A5 - 0x4E10]
000027BA  2F3C 0003 0006           move.l     -[A7], 0x30006
000027C0  A815                     syscall    SCSIDispatch
000027C2  4A5F                     tst.w      [A7]+
000027C4  6604                     bne        +0x6 /* 000027CA */
000027C6  422E 0008                clr.b      [A6 + 0x8]
label000027CA:
000027CA  4267                     clr.w      -[A7]
000027CC  486D B1D0                pea.l      [A5 - 0x4E30]
000027D0  486D B1CE                pea.l      [A5 - 0x4E32]
000027D4  2F3C 0000 0258           move.l     -[A7], 0x258
000027DA  3F3C 0004                move.w     -[A7], 0x4
000027DE  A815                     syscall    SCSIDispatch
000027E0  3B5F F1FE                move.w     [A5 - 0xE02], [A7]+
label000027E4:
000027E4  4247                     clr.w      D7
000027E6  7008                     moveq.l    D0, 0x08
000027E8  B06D B1D0                cmp.w      D0, [A5 - 0x4E30]
000027EC  6656                     bne        +0x58 /* 00002844 */
label000027EE:
000027EE  701E                     moveq.l    D0, 0x1E
000027F0  2F00                     move.l     -[A7], D0
000027F2  486D FF98                pea.l      [A5 - 0x68]
000027F6  4EBA 128A                jsr        [PC + 0x128A /* 00003A82 */]
000027FA  4267                     clr.w      -[A7]
000027FC  4EAD 03FA                jsr        [A5 + 0x3FA /* export_123, CODE:4 @ 00000166 */]
00002800  101F                     move.b     D0, [A7]+
00002802  6738                     beq        +0x3A /* 0000283C */
00002804  4267                     clr.w      -[A7]
00002806  486D B1F0                pea.l      [A5 - 0x4E10]
0000280A  2F3C 0003 0006           move.l     -[A7], 0x30006
00002810  A815                     syscall    SCSIDispatch
00002812  4A5F                     tst.w      [A7]+
00002814  6604                     bne        +0x6 /* 0000281A */
00002816  422E 0008                clr.b      [A6 + 0x8]
label0000281A:
0000281A  4267                     clr.w      -[A7]
0000281C  486D B1D0                pea.l      [A5 - 0x4E30]
00002820  486D B1CE                pea.l      [A5 - 0x4E32]
00002824  2F3C 0000 0258           move.l     -[A7], 0x258
0000282A  3F3C 0004                move.w     -[A7], 0x4
0000282E  A815                     syscall    SCSIDispatch
00002830  3B5F F1FE                move.w     [A5 - 0xE02], [A7]+
00002834  4A6D B1D0                tst.w      [A5 - 0x4E30]
00002838  6602                     bne        +0x4 /* 0000283C */
0000283A  6008                     bra        +0xA /* 00002844 */
label0000283C:
0000283C  5247                     addq.w     D7, 1
0000283E  700A                     moveq.l    D0, 0x0A
00002840  B047                     cmp.w      D0, D7
00002842  6CAA                     bge        -0x54 /* 000027EE */
label00002844:
00002844  2E1F                     move.l     D7, [A7]+
00002846  4E5E                     unlink     A6
00002848  4E75                     rts
0000284A  8C4E 4F54 4849 4E47 5... dc.b       "NOTHINGTHERE"
export_18:
fn0000285A:
0000285A  4E56 FFD4                link       A6, -0x002C
0000285E  102D FFDD                move.b     D0, [A5 - 0x23]
00002862  6700 0086                beq        +0x88 /* 000028EA */
00002866  7000                     moveq.l    D0, 0x00
00002868  2D40 FFD4                move.l     [A6 - 0x2C], D0
0000286C  2D7C 0000 0028 FFD8      move.l     [A6 - 0x28], 0x28 /* '(' */
00002874  2D7C 8000 0000 FFDC      move.l     [A6 - 0x24], 0x80000000
0000287C  7000                     moveq.l    D0, 0x00
0000287E  2D40 FFE0                move.l     [A6 - 0x20], D0
00002882  2D40 FFE4                move.l     [A6 - 0x1C], D0
00002886  2D40 FFE8                move.l     [A6 - 0x18], D0
0000288A  2D40 FFEC                move.l     [A6 - 0x14], D0
0000288E  2D40 FFF0                move.l     [A6 - 0x10], D0
00002892  2D40 FFF4                move.l     [A6 - 0xC], D0
00002896  3D6D AA92 FFF8           move.w     [A6 - 0x8], [A5 - 0x556E]
0000289C  486E FFD4                pea.l      [A6 - 0x2C]
000028A0  4EBA 1F54                jsr        [PC + 0x1F54 /* 000047F6 */]
000028A4  2B6E FFE0 FF94           move.l     [A5 - 0x6C], [A6 - 0x20]
000028AA  426E FFF8                clr.w      [A6 - 0x8]
000028AE  422E FFFA                clr.b      [A6 - 0x6]
000028B2  1D7C 0086 FFDC           move.b     [A6 - 0x24], 0x86
000028B8  3D7C 002C FFDA           move.w     [A6 - 0x26], 0x2C /* ',' */
000028BE  42AE FFF8                clr.l      [A6 - 0x8]
000028C2  7000                     moveq.l    D0, 0x00
000028C4  2D40 FFFC                move.l     [A6 - 0x4], D0
000028C8  486E FFD4                pea.l      [A6 - 0x2C]
000028CC  4EBA 1F28                jsr        [PC + 0x1F28 /* 000047F6 */]
000028D0  4A6E FFF8                tst.w      [A6 - 0x8]
000028D4  660C                     bne        +0xE /* 000028E2 */
000028D6  70DF                     moveq.l    D0, 0xFFFFFFDF
000028D8  906D AA92                sub.w      D0, [A5 - 0x556E]
000028DC  3D40 0008                move.w     [A6 + 0x8], D0
000028E0  6012                     bra        +0x14 /* 000028F4 */
label000028E2:
000028E2  3D6E FFF8 0008           move.w     [A6 + 0x8], [A6 - 0x8]
000028E8  600A                     bra        +0xC /* 000028F4 */
label000028EA:
000028EA  70DF                     moveq.l    D0, 0xFFFFFFDF
000028EC  906D AA92                sub.w      D0, [A5 - 0x556E]
000028F0  3D40 0008                move.w     [A6 + 0x8], D0
label000028F4:
000028F4  4E5E                     unlink     A6
000028F6  4E75                     rts
000028F8  9847 4554 4452 4956 4... dc.b       "GETDRIVERREFERENCENUMBER"
fn00002914:
00002914  4E56 0000                link       A6, 0
00002918  2F2D F21C                move.l     -[A7], [A5 - 0xDE4]
0000291C  302D AA92                move.w     D0, [A5 - 0x556E]
00002920  5440                     addq.w     D0, 2
00002922  3F00                     move.w     -[A7], D0
00002924  486D F260                pea.l      [A5 - 0xDA0]
00002928  486D F25C                pea.l      [A5 - 0xDA4]
0000292C  486D F254                pea.l      [A5 - 0xDAC]
00002930  A98D                     syscall    GetDialogItem/GetDItem
00002932  486D F254                pea.l      [A5 - 0xDAC]
00002936  A928                     syscall    InvalRect
00002938  2F2D F21C                move.l     -[A7], [A5 - 0xDE4]
0000293C  A922                     syscall    BeginUpdate
0000293E  2F2D F21C                move.l     -[A7], [A5 - 0xDE4]
00002942  A981                     syscall    DrawDialog
00002944  2F2D F21C                move.l     -[A7], [A5 - 0xDE4]
00002948  A923                     syscall    EndUpdate
0000294A  206E 0008                movea.l    A0, [A6 + 0x8]
0000294E  2C48                     movea.l    A6, A0
00002950  4EFA 02EC                jmp        [PC + 0x2EC /* 00002C3E */]
00002954  0000 4E5E                ori.b      D0, 0x5E /* '^' */
00002958  2E9F                     move.l     [A7], [A7]+
0000295A  4E75                     rts
0000295C  864D 5945 5849 5400 0000 dc.b       "MYEXIT"
fn00002966:
00002966  4E56 0000                link       A6, 0
0000296A  4267                     clr.w      -[A7]
0000296C  4EAD 04D2                jsr        [A5 + 0x4D2 /* export_150, CODE:4 @ 00001A88 */]
00002970  7002                     moveq.l    D0, 0x02
00002972  B06D B1D0                cmp.w      D0, [A5 - 0x4E30]
00002976  6600 00D4                bne        +0xD6 /* 00002A4C */
0000297A  2B7C 0600 0000 B1F0      move.l     [A5 - 0x4E10], 0x6000000
00002982  3B7C 0900 B1F4           move.w     [A5 - 0x4E0C], 0x900 /* '\t\0' */
00002988  3B7C 0002 B1D2           move.w     [A5 - 0x4E2E], 0x2
0000298E  41ED B1FA                lea.l      A0, [A5 - 0x4E06]
00002992  2B48 B1D4                move.l     [A5 - 0x4E2C], A0
00002996  7009                     moveq.l    D0, 0x09
00002998  2B40 B1D8                move.l     [A5 - 0x4E28], D0
0000299C  3B7C 0007 B1DC           move.w     [A5 - 0x4E24], 0x7
000029A2  7000                     moveq.l    D0, 0x00
000029A4  2B40 B1DE                move.l     [A5 - 0x4E22], D0
000029A8  2B40 B1E2                move.l     [A5 - 0x4E1E], D0
000029AC  4267                     clr.w      -[A7]
000029AE  4EAD 03FA                jsr        [A5 + 0x3FA /* export_123, CODE:4 @ 00000166 */]
000029B2  101F                     move.b     D0, [A7]+
000029B4  673C                     beq        +0x3E /* 000029F2 */
000029B6  4267                     clr.w      -[A7]
000029B8  486D B1F0                pea.l      [A5 - 0x4E10]
000029BC  2F3C 0003 0006           move.l     -[A7], 0x30006
000029C2  A815                     syscall    SCSIDispatch
000029C4  3B5F F1FE                move.w     [A5 - 0xE02], [A7]+
000029C8  4267                     clr.w      -[A7]
000029CA  486D B1D2                pea.l      [A5 - 0x4E2E]
000029CE  3F3C 0005                move.w     -[A7], 0x5
000029D2  A815                     syscall    SCSIDispatch
000029D4  3B5F F1FC                move.w     [A5 - 0xE04], [A7]+
000029D8  4267                     clr.w      -[A7]
000029DA  486D B1D0                pea.l      [A5 - 0x4E30]
000029DE  486D B1CE                pea.l      [A5 - 0x4E32]
000029E2  2F3C 0000 0258           move.l     -[A7], 0x258
000029E8  3F3C 0004                move.w     -[A7], 0x4
000029EC  A815                     syscall    SCSIDispatch
000029EE  3B5F F1FA                move.w     [A5 - 0xE06], [A7]+
label000029F2:
000029F2  4A6D B1D0                tst.w      [A5 - 0x4E30]
000029F6  57C0                     seq        D0
000029F8  4A6D F1FE                tst.w      [A5 - 0xE02]
000029FC  57C1                     seq        D1
000029FE  C001                     and.b      D0, D1
00002A00  4A6D F1FC                tst.w      [A5 - 0xE04]
00002A04  57C1                     seq        D1
00002A06  C001                     and.b      D0, D1
00002A08  4A6D F1FA                tst.w      [A5 - 0xE06]
00002A0C  57C1                     seq        D1
00002A0E  C001                     and.b      D0, D1
00002A10  6732                     beq        +0x34 /* 00002A44 */
00002A12  4240                     clr.w      D0
00002A14  102D B1FB                move.b     D0, [A5 - 0x4E05]
00002A18  48C0                     ext.l      D0
00002A1A  2B40 FFB8                move.l     [A5 - 0x48], D0
00002A1E  4240                     clr.w      D0
00002A20  102D B1FA                move.b     D0, [A5 - 0x4E06]
00002A24  727F                     moveq.l    D1, 0x7F
00002A26  B240                     cmp.w      D1, D0
00002A28  57C0                     seq        D0
00002A2A  7206                     moveq.l    D1, 0x06
00002A2C  C2AD FFB8                and.l      D1, [A5 - 0x48]
00002A30  7406                     moveq.l    D2, 0x06
00002A32  B481                     cmp.l      D2, D1
00002A34  57C1                     seq        D1
00002A36  C001                     and.b      D0, D1
00002A38  6712                     beq        +0x14 /* 00002A4C */
00002A3A  4EBA D92A                jsr        [PC - 0x26D6 /* 00000366 */]
00002A3E  426D ABE8                clr.w      [A5 - 0x5418]
00002A42  6008                     bra        +0xA /* 00002A4C */
label00002A44:
00002A44  3F3C 0004                move.w     -[A7], 0x4
00002A48  4EAD 02FA                jsr        [A5 + 0x2FA /* export_91, CODE:2 @ 0000051E */]
label00002A4C:
00002A4C  4E5E                     unlink     A6
00002A4E  4E75                     rts
00002A50  8E43 4845 434B 464F 5... dc.b       "CHECKFORTEAC60"
fn00002A62:
00002A62  4E56 FFFE                link       A6, -0x0002
00002A66  48E7 1F38                movem.l    -[A7], D3,D4,D5,D6,D7,A2,A3,A4
00002A6A  4EBA D8FA                jsr        [PC - 0x2706 /* 00000366 */]
00002A6E  302D AA92                move.w     D0, [A5 - 0x556E]
00002A72  41BC 0007 41ED           .invalid   0, 0x741ED // invalid opcode 4 with b == 6
00002A78  AC5A                     syscall    BitNot, auto_pop
00002A7A  4230 0000                clr.b      [A0 + D0.w]
00002A7E  422D FFF0                clr.b      [A5 - 0x10]
00002A82  422D FFE0                clr.b      [A5 - 0x20]
00002A86  422D FFDF                clr.b      [A5 - 0x21]
00002A8A  426D ABE8                clr.w      [A5 - 0x5418]
00002A8E  7000                     moveq.l    D0, 0x00
00002A90  2B40 A4EE                move.l     [A5 - 0x5B12], D0
00002A94  422D AA94                clr.b      [A5 - 0x556C]
00002A98  422D AA9E                clr.b      [A5 - 0x5562]
00002A9C  42AD ABEC                clr.l      [A5 - 0x5414]
00002AA0  422D ABF0                clr.b      [A5 - 0x5410]
00002AA4  2B7C 0001 025C ABE2      move.l     [A5 - 0x541E], 0x1025C
00002AAC  4267                     clr.w      -[A7]
00002AAE  4EBA FCD4                jsr        [PC - 0x32C /* 00002784 */]
00002AB2  101F                     move.b     D0, [A7]+
00002AB4  6706                     beq        +0x8 /* 00002ABC */
00002AB6  2F0E                     move.l     -[A7], A6
00002AB8  4EBA FE5A                jsr        [PC - 0x1A6 /* 00002914 */]
label00002ABC:
00002ABC  4267                     clr.w      -[A7]
00002ABE  4EBA FEA6                jsr        [PC - 0x15A /* 00002966 */]
00002AC2  1B5F FFF0                move.b     [A5 - 0x10], [A7]+
00002AC6  4EBA EA0C                jsr        [PC - 0x15F4 /* 000014D4 */]
00002ACA  102D FFF2                move.b     D0, [A5 - 0xE]
00002ACE  6706                     beq        +0x8 /* 00002AD6 */
00002AD0  2F0E                     move.l     -[A7], A6
00002AD2  4EBA FE40                jsr        [PC - 0x1C0 /* 00002914 */]
label00002AD6:
00002AD6  4EBA FB1C                jsr        [PC - 0x4E4 /* 000025F4 */]
00002ADA  102D FFF2                move.b     D0, [A5 - 0xE]
00002ADE  6706                     beq        +0x8 /* 00002AE6 */
00002AE0  2F0E                     move.l     -[A7], A6
00002AE2  4EBA FE30                jsr        [PC - 0x1D0 /* 00002914 */]
label00002AE6:
00002AE6  3D6D AA92 FFFE           move.w     [A6 - 0x2], [A5 - 0x556E]
00002AEC  302E FFFE                move.w     D0, [A6 - 0x2]
00002AF0  41BC 0007 41ED           .invalid   0, 0x741ED // invalid opcode 4 with b == 6
00002AF6  AC5A                     syscall    BitNot, auto_pop
00002AF8  11BC 0001 0000           move.b     [A0 + D0.w], 0x1
00002AFE  302D ABEC                move.w     D0, [A5 - 0x5414]
00002B02  6724                     beq        +0x26 /* 00002B28 */
00002B04  5340                     subq.w     D0, 1
00002B06  6700 00BA                beq        +0xBC /* 00002BC2 */
00002B0A  5940                     subq.w     D0, 4
00002B0C  6700 00CA                beq        +0xCC /* 00002BD8 */
00002B10  5340                     subq.w     D0, 1
00002B12  6700 00DA                beq        +0xDC /* 00002BEE */
00002B16  5340                     subq.w     D0, 1
00002B18  6700 00EA                beq        +0xEC /* 00002C04 */
00002B1C  0440 0009                subi.w     D0, 0x9 /* '\t' */
00002B20  6700 00A0                beq        +0xA2 /* 00002BC2 */
00002B24  6000 00F4                bra        +0xF6 /* 00002C1A */
label00002B28:
00002B28  302E FFFE                move.w     D0, [A6 - 0x2]
00002B2C  41BC 0007 41ED           .invalid   0, 0x741ED // invalid opcode 4 with b == 6
00002B32  AC52                     syscall    HideCursor, auto_pop
00002B34  1230 0000                move.b     D1, [A0 + D0.w]
00002B38  6774                     beq        +0x76 /* 00002BAE */
00002B3A  302D ABE8                move.w     D0, [A5 - 0x5418]
00002B3E  0440 000C                subi.w     D0, 0xC
00002B42  6722                     beq        +0x24 /* 00002B66 */
00002B44  5540                     subq.w     D0, 2
00002B46  6706                     beq        +0x8 /* 00002B4E */
00002B48  5940                     subq.w     D0, 4
00002B4A  6732                     beq        +0x34 /* 00002B7E */
00002B4C  6048                     bra        +0x4A /* 00002B96 */
label00002B4E:
00002B4E  302E FFFE                move.w     D0, [A6 - 0x2]
00002B52  41BC 0007 D040           .invalid   0, 0x7D040 // invalid opcode 4 with b == 6
00002B58  41ED A620                lea.l      A0, [A5 - 0x59E0]
00002B5C  31BC 0007 0000           move.w     [A0 + D0.w], 0x7
00002B62  6000 00CA                bra        +0xCC /* 00002C2E */
label00002B66:
00002B66  302E FFFE                move.w     D0, [A6 - 0x2]
00002B6A  41BC 0007 D040           .invalid   0, 0x7D040 // invalid opcode 4 with b == 6
00002B70  41ED A620                lea.l      A0, [A5 - 0x59E0]
00002B74  31BC 0006 0000           move.w     [A0 + D0.w], 0x6
00002B7A  6000 00B2                bra        +0xB4 /* 00002C2E */
label00002B7E:
00002B7E  302E FFFE                move.w     D0, [A6 - 0x2]
00002B82  41BC 0007 D040           .invalid   0, 0x7D040 // invalid opcode 4 with b == 6
00002B88  41ED A620                lea.l      A0, [A5 - 0x59E0]
00002B8C  31BC 0003 0000           move.w     [A0 + D0.w], 0x3
00002B92  6000 009A                bra        +0x9C /* 00002C2E */
label00002B96:
00002B96  302E FFFE                move.w     D0, [A6 - 0x2]
00002B9A  41BC 0007 D040           .invalid   0, 0x7D040 // invalid opcode 4 with b == 6
00002BA0  41ED A620                lea.l      A0, [A5 - 0x59E0]
00002BA4  31BC 0001 0000           move.w     [A0 + D0.w], 0x1
00002BAA  6000 0082                bra        +0x84 /* 00002C2E */
label00002BAE:
00002BAE  302E FFFE                move.w     D0, [A6 - 0x2]
00002BB2  41BC 0007 D040           .invalid   0, 0x7D040 // invalid opcode 4 with b == 6
00002BB8  41ED A620                lea.l      A0, [A5 - 0x59E0]
00002BBC  4270 0000                clr.w      [A0 + D0.w]
00002BC0  606C                     bra        +0x6E /* 00002C2E */
label00002BC2:
00002BC2  302E FFFE                move.w     D0, [A6 - 0x2]
00002BC6  41BC 0007 D040           .invalid   0, 0x7D040 // invalid opcode 4 with b == 6
00002BCC  41ED A620                lea.l      A0, [A5 - 0x59E0]
00002BD0  31BC 0002 0000           move.w     [A0 + D0.w], 0x2
00002BD6  6056                     bra        +0x58 /* 00002C2E */
label00002BD8:
00002BD8  302E FFFE                move.w     D0, [A6 - 0x2]
00002BDC  41BC 0007 D040           .invalid   0, 0x7D040 // invalid opcode 4 with b == 6
00002BE2  41ED A620                lea.l      A0, [A5 - 0x59E0]
00002BE6  31BC 0008 0000           move.w     [A0 + D0.w], 0x8
00002BEC  6040                     bra        +0x42 /* 00002C2E */
label00002BEE:
00002BEE  302E FFFE                move.w     D0, [A6 - 0x2]
00002BF2  41BC 0007 D040           .invalid   0, 0x7D040 // invalid opcode 4 with b == 6
00002BF8  41ED A620                lea.l      A0, [A5 - 0x59E0]
00002BFC  31BC 0004 0000           move.w     [A0 + D0.w], 0x4
00002C02  602A                     bra        +0x2C /* 00002C2E */
label00002C04:
00002C04  302E FFFE                move.w     D0, [A6 - 0x2]
00002C08  41BC 0007 D040           .invalid   0, 0x7D040 // invalid opcode 4 with b == 6
00002C0E  41ED A620                lea.l      A0, [A5 - 0x59E0]
00002C12  31BC 0006 0000           move.w     [A0 + D0.w], 0x6
00002C18  6014                     bra        +0x16 /* 00002C2E */
label00002C1A:
00002C1A  302E FFFE                move.w     D0, [A6 - 0x2]
00002C1E  41BC 0007 D040           .invalid   0, 0x7D040 // invalid opcode 4 with b == 6
00002C24  41ED A620                lea.l      A0, [A5 - 0x59E0]
00002C28  31BC 0005 0000           move.w     [A0 + D0.w], 0x5
label00002C2E:
00002C2E  4267                     clr.w      -[A7]
00002C30  4EBA FC28                jsr        [PC - 0x3D8 /* 0000285A */]
00002C34  3B5F FFBC                move.w     [A5 - 0x44], [A7]+
00002C38  2F0E                     move.l     -[A7], A6
00002C3A  4EBA FCD8                jsr        [PC - 0x328 /* 00002914 */]
label00002C3E:
00002C3E  4FEE FFDE                lea.l      A7, [A6 - 0x22]
00002C42  4CDF 1CF8                movem.l    D3,D4,D5,D6,D7,A2,A3,A4, [A7]+
00002C46  4E5E                     unlink     A6
00002C48  4E75                     rts
00002C4A  8C47 4554 5448 4953 4... dc.b       "GETTHISDRIVE"
export_19:
fn00002C5A:
00002C5A  4E56 FFFA                link       A6, -0x0006
00002C5E  48E7 0720                movem.l    -[A7], D5,D6,D7,A2
00002C62  4EBA D462                jsr        [PC - 0x2B9E /* 000000C6 */]
00002C66  2F2D F21C                move.l     -[A7], [A5 - 0xDE4]
00002C6A  3F3C 0013                move.w     -[A7], 0x13
00002C6E  4EAD 038A                jsr        [A5 + 0x38A /* export_109, CODE:2 @ 00000EB6 */]
00002C72  102D FFEF                move.b     D0, [A5 - 0x11]
00002C76  6704                     beq        +0x6 /* 00002C7C */
00002C78  4EBA DD80                jsr        [PC - 0x2280 /* 000009FA */]
label00002C7C:
00002C7C  4247                     clr.w      D7
00002C7E  6046                     bra        +0x48 /* 00002CC6 */
label00002C80:
00002C80  3007                     move.w     D0, D7
00002C82  41BC 0007 41ED           .invalid   0, 0x741ED // invalid opcode 4 with b == 6
00002C88  AC5A                     syscall    BitNot, auto_pop
00002C8A  4230 0000                clr.b      [A0 + D0.w]
00002C8E  3007                     move.w     D0, D7
00002C90  41BC 0007 43ED           .invalid   0, 0x743ED // invalid opcode 4 with b == 6
00002C96  AC62                     syscall    ForeColor, auto_pop
00002C98  4231 0000                clr.b      [A1 + D0.w]
00002C9C  3007                     move.w     D0, D7
00002C9E  41BC 0007 C1FC           .invalid   0, 0x7C1FC // invalid opcode 4 with b == 6
00002CA4  0032 45ED AE02           ori.b      [A2 + A2 * 8 + 0x2], 0xED
00002CAA  35BC 0120 0000           move.w     [A2 + D0.w], 0x120
00002CB0  3007                     move.w     D0, D7
00002CB2  41BC 0007 C1FC           .invalid   0, 0x7C1FC // invalid opcode 4 with b == 6
00002CB8  0032 41ED AC72           ori.b      [A2 + A2 * 4 + 0x72], 0xED
00002CBE  31BC 0120 0000           move.w     [A0 + D0.w], 0x120
00002CC4  5247                     addq.w     D7, 1
label00002CC6:
00002CC6  7007                     moveq.l    D0, 0x07
00002CC8  B047                     cmp.w      D0, D7
00002CCA  6CB4                     bge        -0x4A /* 00002C80 */
00002CCC  422D FFEF                clr.b      [A5 - 0x11]
00002CD0  422D FFED                clr.b      [A5 - 0x13]
00002CD4  4246                     clr.w      D6
00002CD6  4245                     clr.w      D5
00002CD8  4EBA EC06                jsr        [PC - 0x13FA /* 000018E0 */]
00002CDC  4EAD 06EA                jsr        [A5 + 0x6EA /* export_217, CODE:12 @ 00000000 */]
00002CE0  7E06                     moveq.l    D7, 0x06
label00002CE2:
00002CE2  2F3C 0002 0000           move.l     -[A7], 0x20000
00002CE8  486D AC22                pea.l      [A5 - 0x53DE]
00002CEC  4EBA 1008                jsr        [PC + 0x1008 /* 00003CF6 */]
00002CF0  101F                     move.b     D0, [A7]+
00002CF2  6710                     beq        +0x12 /* 00002D04 */
00002CF4  206D F21C                movea.l    A0, [A5 - 0xDE4]
00002CF8  4868 0010                pea.l      [A0 + 0x10]
00002CFC  A928                     syscall    InvalRect
00002CFE  4EBA D3AE                jsr        [PC - 0x2C52 /* 000000AE */]
00002D02  607E                     bra        +0x80 /* 00002D82 */
label00002D04:
00002D04  4A47                     tst.w      D7
00002D06  6C02                     bge        +0x4 /* 00002D0A */
00002D08  7E06                     moveq.l    D7, 0x06
label00002D0A:
00002D0A  3B47 AA92                move.w     [A5 - 0x556E], D7
00002D0E  4EBA DCA2                jsr        [PC - 0x235E /* 000009B2 */]
00002D12  4EBA FD4E                jsr        [PC - 0x2B2 /* 00002A62 */]
00002D16  4EBA DCE2                jsr        [PC - 0x231E /* 000009FA */]
00002D1A  5347                     subq.w     D7, 1
00002D1C  5DC0                     slt        D0
00002D1E  802D FFED                or.b       D0, [A5 - 0x13]
00002D22  0240 0001                andi.w     D0, 0x1
00002D26  67BA                     beq        -0x44 /* 00002CE2 */
00002D28  7E06                     moveq.l    D7, 0x06
00002D2A  6016                     bra        +0x18 /* 00002D42 */
label00002D2C:
00002D2C  3007                     move.w     D0, D7
00002D2E  41BC 0007 41ED           .invalid   0, 0x741ED // invalid opcode 4 with b == 6
00002D34  AC62                     syscall    ForeColor, auto_pop
00002D36  1230 0000                move.b     D1, [A0 + D0.w]
00002D3A  6704                     beq        +0x6 /* 00002D40 */
00002D3C  5246                     addq.w     D6, 1
00002D3E  3A07                     move.w     D5, D7
label00002D40:
00002D40  5347                     subq.w     D7, 1
label00002D42:
00002D42  4A47                     tst.w      D7
00002D44  6CE6                     bge        -0x18 /* 00002D2C */
00002D46  7001                     moveq.l    D0, 0x01
00002D48  B046                     cmp.w      D0, D6
00002D4A  6628                     bne        +0x2A /* 00002D74 */
00002D4C  3B45 AA92                move.w     [A5 - 0x556E], D5
00002D50  302D AA92                move.w     D0, [A5 - 0x556E]
00002D54  41BC 0007 41ED           .invalid   0, 0x741ED // invalid opcode 4 with b == 6
00002D5A  AC6A                     syscall    HiWord, auto_pop
00002D5C  1230 0000                move.b     D1, [A0 + D0.w]
00002D60  0A01 0001                xori.b     D1, 0x1
00002D64  102D FFF2                move.b     D0, [A5 - 0xE]
00002D68  0A00 0001                xori.b     D0, 0x1
00002D6C  C200                     and.b      D1, D0
00002D6E  6704                     beq        +0x6 /* 00002D74 */
00002D70  4EBA F9D6                jsr        [PC - 0x62A /* 00002748 */]
label00002D74:
00002D74  206D F21C                movea.l    A0, [A5 - 0xDE4]
00002D78  4868 0010                pea.l      [A0 + 0x10]
00002D7C  A928                     syscall    InvalRect
00002D7E  4EBA D32E                jsr        [PC - 0x2CD2 /* 000000AE */]
label00002D82:
00002D82  4CDF 04E0                movem.l    D5,D6,D7,A2, [A7]+
00002D86  4E5E                     unlink     A6
00002D88  4E75                     rts
00002D8A  8C47 4554 414C 4C44 5... dc.b       "GETALLDRIVES"
export_20:
fn00002D9A:
00002D9A  4E56 0000                link       A6, 0
00002D9E  082D 0007 ABEF           btst.b     [A5 - 0x5411], 0x7
00002DA4  6708                     beq        +0xA /* 00002DAE */
00002DA6  1D7C 0001 0008           move.b     [A6 + 0x8], 0x1
00002DAC  6004                     bra        +0x6 /* 00002DB2 */
label00002DAE:
00002DAE  422E 0008                clr.b      [A6 + 0x8]
label00002DB2:
00002DB2  4E5E                     unlink     A6
00002DB4  4E75                     rts
00002DB6  8943 4845 434B 4946 5... dc.b       "CHECKIFRM"
export_21:
00002DC2  4E56 FFFA                link       A6, -0x0006
00002DC6  2F07                     move.l     -[A7], D7
00002DC8  7000                     moveq.l    D0, 0x00
00002DCA  2D40 FFFA                move.l     [A6 - 0x6], D0
00002DCE  422E 0008                clr.b      [A6 + 0x8]
00002DD2  7001                     moveq.l    D0, 0x01
00002DD4  2F00                     move.l     -[A7], D0
00002DD6  3F3C 0001                move.w     -[A7], 0x1
00002DDA  4EAD 0442                jsr        [A5 + 0x442 /* export_132, CODE:4 @ 000008D2 */]
00002DDE  4240                     clr.w      D0
00002DE0  102D B1FA                move.b     D0, [A5 - 0x4E06]
00002DE4  7250                     moveq.l    D1, 0x50
00002DE6  B240                     cmp.w      D1, D0
00002DE8  6600 00A2                bne        +0xA4 /* 00002E8C */
00002DEC  7E01                     moveq.l    D7, 0x01
00002DEE  6000 0094                bra        +0x96 /* 00002E84 */
label00002DF2:
00002DF2  3007                     move.w     D0, D7
00002DF4  48C0                     ext.l      D0
00002DF6  2F00                     move.l     -[A7], D0
00002DF8  3F3C 0001                move.w     -[A7], 0x1
00002DFC  4EAD 0442                jsr        [A5 + 0x442 /* export_132, CODE:4 @ 000008D2 */]
00002E00  486D B1FA                pea.l      [A5 - 0x4E06]
00002E04  486D FD94                pea.l      [A5 - 0x26C]
00002E08  2F3C 0000 0100           move.l     -[A7], 0x100
00002E0E  4EBA 0C32                jsr        [PC + 0xC32 /* 00003A42 */]
00002E12  487A 00A0                pea.l      [PC + 0xA0 /* 00002EB4, value 0xC417070, pstring "Apple_Driver" */]
00002E16  486D FD94                pea.l      [A5 - 0x26C]
00002E1A  4EAD 0752                jsr        [A5 + 0x752 /* export_230, CODE:16 @ 000000F6 */]
00002E1E  4A5F                     tst.w      [A7]+
00002E20  6760                     beq        +0x62 /* 00002E82 */
00002E22  486D B202                pea.l      [A5 - 0x4DFE]
00002E26  486E FFFA                pea.l      [A6 - 0x6]
00002E2A  7004                     moveq.l    D0, 0x04
00002E2C  2F00                     move.l     -[A7], D0
00002E2E  4EBA 0C12                jsr        [PC + 0xC12 /* 00003A42 */]
00002E32  2F2E FFFA                move.l     -[A7], [A6 - 0x6]
00002E36  3F3C 0001                move.w     -[A7], 0x1
00002E3A  4EAD 0442                jsr        [A5 + 0x442 /* export_132, CODE:4 @ 000008D2 */]
00002E3E  486D B1FA                pea.l      [A5 - 0x4E06]
00002E42  486D FD94                pea.l      [A5 - 0x26C]
00002E46  2F3C 0000 0100           move.l     -[A7], 0x100
00002E4C  4EBA 0BF4                jsr        [PC + 0xBF4 /* 00003A42 */]
00002E50  487A 0058                pea.l      [PC + 0x58 /* 00002EAA, value 0x92E434D '\t.CM', pstring ".CMS_SCSI" */]
00002E54  486D FD94                pea.l      [A5 - 0x26C]
00002E58  4EAD 0752                jsr        [A5 + 0x752 /* export_230, CODE:16 @ 000000F6 */]
00002E5C  4A5F                     tst.w      [A7]+
00002E5E  56C0                     sne        D0
00002E60  2F00                     move.l     -[A7], D0
00002E62  487A 003C                pea.l      [PC + 0x3C /* 00002EA0, value 0x92E5343 '\t.SC', pstring ".SCS_SCSI" */]
00002E66  486D FD94                pea.l      [A5 - 0x26C]
00002E6A  4EAD 0752                jsr        [A5 + 0x752 /* export_230, CODE:16 @ 000000F6 */]
00002E6E  321F                     move.w     D1, [A7]+
00002E70  201F                     move.l     D0, [A7]+
00002E72  4A41                     tst.w      D1
00002E74  56C1                     sne        D1
00002E76  8001                     or.b       D0, D1
00002E78  6708                     beq        +0xA /* 00002E82 */
00002E7A  1D7C 0001 0008           move.b     [A6 + 0x8], 0x1
00002E80  600A                     bra        +0xC /* 00002E8C */
label00002E82:
00002E82  5247                     addq.w     D7, 1
label00002E84:
00002E84  7014                     moveq.l    D0, 0x14
00002E86  B047                     cmp.w      D0, D7
00002E88  6C00 FF68                bge        -0x96 /* 00002DF2 */
label00002E8C:
00002E8C  2E1F                     move.l     D7, [A7]+
00002E8E  4E5E                     unlink     A6
00002E90  4E75                     rts
00002E92  8B43 4845 434B 4452 4... dc.b       "CHECKDRIVER" + 34 constant bytes
export_22:
00002EC2  4E56 FCFC                link       A6, -0x0304
00002EC6  48E7 0300                movem.l    -[A7], D6,D7
00002ECA  486E FE00                pea.l      [A6 - 0x200]
00002ECE  302E 000C                move.w     D0, [A6 + 0xC]
00002ED2  48C0                     ext.l      D0
00002ED4  2F00                     move.l     -[A7], D0
00002ED6  4EAD 064A                jsr        [A5 + 0x64A /* export_197, CODE:6 @ 00000928 */]
00002EDA  4247                     clr.w      D7
00002EDC  6016                     bra        +0x18 /* 00002EF4 */
label00002EDE:
00002EDE  3007                     move.w     D0, D7
00002EE0  41BC 001F 7200           .invalid   0, 0x1F7200 // invalid opcode 4 with b == 6
00002EE6  43BC 00FF 41EE           .invalid   1, 0xFF41EE // invalid opcode 4 with b == 6
00002EEC  FE30 1181                .unknown   0xFE30 0x1181 (W = 7)
00002EF0  0000 5247                ori.b      D0, 0x47 /* 'G' */
label00002EF4:
00002EF4  701F                     moveq.l    D0, 0x1F
00002EF6  B047                     cmp.w      D0, D7
00002EF8  6CE4                     bge        -0x1A /* 00002EDE */
00002EFA  486E FCFC                pea.l      [A6 - 0x304]
00002EFE  2F2E 0008                move.l     -[A7], [A6 + 0x8]
00002F02  4EBA 0E92                jsr        [PC + 0xE92 /* 00003D96 */]
00002F06  4246                     clr.w      D6
00002F08  1C2E FCFC                move.b     D6, [A6 - 0x304]
00002F0C  42A7                     clr.l      -[A7]
00002F0E  486E FCFC                pea.l      [A6 - 0x304]
00002F12  4EBA 117C                jsr        [PC + 0x117C /* 00004090 */]
00002F16  486E FE30                pea.l      [A6 - 0x1D0]
00002F1A  3006                     move.w     D0, D6
00002F1C  48C0                     ext.l      D0
00002F1E  2F00                     move.l     -[A7], D0
00002F20  4EBA 0B20                jsr        [PC + 0xB20 /* 00003A42 */]
00002F24  486E FE00                pea.l      [A6 - 0x200]
00002F28  302E 000C                move.w     D0, [A6 + 0xC]
00002F2C  48C0                     ext.l      D0
00002F2E  2F00                     move.l     -[A7], D0
00002F30  4EAD 0652                jsr        [A5 + 0x652 /* export_198, CODE:6 @ 00000962 */]
00002F34  4CDF 00C0                movem.l    D6,D7, [A7]+
00002F38  4E5E                     unlink     A6
00002F3A  205F                     movea.l    A0, [A7]+
00002F3C  5C4F                     addq.w     A7, 6
00002F3E  4ED0                     jmp        [A0]
00002F40  9343 4841 4E47 4550 4... dc.b       "CHANGEPARTITIONTYPE"
export_23:
00002F56  4E56 FFFA                link       A6, -0x0006
00002F5A  2F07                     move.l     -[A7], D7
00002F5C  7000                     moveq.l    D0, 0x00
00002F5E  2D40 FFFA                move.l     [A6 - 0x6], D0
00002F62  422E 0008                clr.b      [A6 + 0x8]
00002F66  7001                     moveq.l    D0, 0x01
00002F68  2F00                     move.l     -[A7], D0
00002F6A  3F3C 0001                move.w     -[A7], 0x1
00002F6E  4EAD 0442                jsr        [A5 + 0x442 /* export_132, CODE:4 @ 000008D2 */]
00002F72  4240                     clr.w      D0
00002F74  102D B1FA                move.b     D0, [A5 - 0x4E06]
00002F78  7250                     moveq.l    D1, 0x50
00002F7A  B240                     cmp.w      D1, D0
00002F7C  6600 00A2                bne        +0xA4 /* 00003020 */
00002F80  7E01                     moveq.l    D7, 0x01
00002F82  6000 0094                bra        +0x96 /* 00003018 */
label00002F86:
00002F86  3007                     move.w     D0, D7
00002F88  48C0                     ext.l      D0
00002F8A  2F00                     move.l     -[A7], D0
00002F8C  3F3C 0001                move.w     -[A7], 0x1
00002F90  4EAD 0442                jsr        [A5 + 0x442 /* export_132, CODE:4 @ 000008D2 */]
00002F94  486D B1FA                pea.l      [A5 - 0x4E06]
00002F98  486D FD94                pea.l      [A5 - 0x26C]
00002F9C  2F3C 0000 0100           move.l     -[A7], 0x100
00002FA2  4EBA 0A9E                jsr        [PC + 0xA9E /* 00003A42 */]
00002FA6  487A 009E                pea.l      [PC + 0x9E /* 00003046, value 0xC417070, pstring "Apple_Driver" */]
00002FAA  486D FD94                pea.l      [A5 - 0x26C]
00002FAE  4EAD 0752                jsr        [A5 + 0x752 /* export_230, CODE:16 @ 000000F6 */]
00002FB2  4A5F                     tst.w      [A7]+
00002FB4  6760                     beq        +0x62 /* 00003016 */
00002FB6  486D B202                pea.l      [A5 - 0x4DFE]
00002FBA  486E FFFA                pea.l      [A6 - 0x6]
00002FBE  7004                     moveq.l    D0, 0x04
00002FC0  2F00                     move.l     -[A7], D0
00002FC2  4EBA 0A7E                jsr        [PC + 0xA7E /* 00003A42 */]
00002FC6  2F2E FFFA                move.l     -[A7], [A6 - 0x6]
00002FCA  3F3C 0001                move.w     -[A7], 0x1
00002FCE  4EAD 0442                jsr        [A5 + 0x442 /* export_132, CODE:4 @ 000008D2 */]
00002FD2  486D B1FA                pea.l      [A5 - 0x4E06]
00002FD6  486D FD94                pea.l      [A5 - 0x26C]
00002FDA  2F3C 0000 0100           move.l     -[A7], 0x100
00002FE0  4EBA 0A60                jsr        [PC + 0xA60 /* 00003A42 */]
00002FE4  487A 0056                pea.l      [PC + 0x56 /* 0000303C, value 0x92E434D '\t.CM', pstring ".CMS_SCSI" */]
00002FE8  486D FD94                pea.l      [A5 - 0x26C]
00002FEC  4EAD 0752                jsr        [A5 + 0x752 /* export_230, CODE:16 @ 000000F6 */]
00002FF0  4A5F                     tst.w      [A7]+
00002FF2  56C0                     sne        D0
00002FF4  2F00                     move.l     -[A7], D0
00002FF6  487A 003A                pea.l      [PC + 0x3A /* 00003032, value 0x92E5343 '\t.SC', pstring ".SCS_SCSI" */]
00002FFA  486D FD94                pea.l      [A5 - 0x26C]
00002FFE  4EAD 0752                jsr        [A5 + 0x752 /* export_230, CODE:16 @ 000000F6 */]
00003002  321F                     move.w     D1, [A7]+
00003004  201F                     move.l     D0, [A7]+
00003006  4A41                     tst.w      D1
00003008  56C1                     sne        D1
0000300A  8001                     or.b       D0, D1
0000300C  6708                     beq        +0xA /* 00003016 */
0000300E  1D7C 0001 0008           move.b     [A6 + 0x8], 0x1
00003014  600A                     bra        +0xC /* 00003020 */
label00003016:
00003016  5247                     addq.w     D7, 1
label00003018:
00003018  7014                     moveq.l    D0, 0x14
0000301A  B047                     cmp.w      D0, D7
0000301C  6C00 FF68                bge        -0x96 /* 00002F86 */
label00003020:
00003020  2E1F                     move.l     D7, [A7]+
00003022  4E5E                     unlink     A6
00003024  4E75                     rts
00003026  894F 5552 4452 4956 4... dc.b       "OURDRIVER" + 34 constant bytes
fn00003054:
00003054  4E56 0000                link       A6, 0
00003058  102D ABF0                move.b     D0, [A5 - 0x5410]
0000305C  670E                     beq        +0x10 /* 0000306C */
0000305E  422E 000A                clr.b      [A6 + 0xA]
00003062  3F2E 0008                move.w     -[A7], [A6 + 0x8]
00003066  4EAD 02EA                jsr        [A5 + 0x2EA /* export_89, CODE:2 @ 000004A2 */]
0000306A  6006                     bra        +0x8 /* 00003072 */
label0000306C:
0000306C  1D7C 0001 000A           move.b     [A6 + 0xA], 0x1
label00003072:
00003072  4E5E                     unlink     A6
00003074  205F                     movea.l    A0, [A7]+
00003076  544F                     addq.w     A7, 2
00003078  4ED0                     jmp        [A0]
0000307A  9357 5249 5445 5052 4... dc.b       "WRITEPROTECTWARNING"
fn00003090:
00003090  4E56 0000                link       A6, 0
00003094  4267                     clr.w      -[A7]
00003096  4EAD 0572                jsr        [A5 + 0x572 /* export_170, CODE:5 @ 0000299E */]
0000309A  101F                     move.b     D0, [A7]+
0000309C  6728                     beq        +0x2A /* 000030C6 */
0000309E  4267                     clr.w      -[A7]
000030A0  4EBA DB96                jsr        [PC - 0x246A /* 00000C38 */]
000030A4  101F                     move.b     D0, [A7]+
000030A6  6714                     beq        +0x16 /* 000030BC */
000030A8  4267                     clr.w      -[A7]
000030AA  4EAD 05AA                jsr        [A5 + 0x5AA /* export_177, CODE:5 @ 0000346E */]
000030AE  101F                     move.b     D0, [A7]+
000030B0  671C                     beq        +0x1E /* 000030CE */
000030B2  3F3C 0009                move.w     -[A7], 0x9 /* '\t' */
000030B6  4EAD 02F2                jsr        [A5 + 0x2F2 /* export_90, CODE:2 @ 000004E0 */]
000030BA  6012                     bra        +0x14 /* 000030CE */
label000030BC:
000030BC  3F3C 001A                move.w     -[A7], 0x1A
000030C0  4EAD 02F2                jsr        [A5 + 0x2F2 /* export_90, CODE:2 @ 000004E0 */]
000030C4  6008                     bra        +0xA /* 000030CE */
label000030C6:
000030C6  3F3C 0023                move.w     -[A7], 0x23 /* '#' */
000030CA  4EAD 02EA                jsr        [A5 + 0x2EA /* export_89, CODE:2 @ 000004A2 */]
label000030CE:
000030CE  2F2D F21C                move.l     -[A7], [A5 - 0xDE4]
000030D2  A873                     syscall    SetPort
000030D4  4E5E                     unlink     A6
000030D6  4E75                     rts
000030D8  8D44 4F4D 4F55 4E54 4... dc.b       "DOMOUNTBUTTON"
fn000030E8:
000030E8  4E56 0000                link       A6, 0
000030EC  4267                     clr.w      -[A7]
000030EE  4EAD 0572                jsr        [A5 + 0x572 /* export_170, CODE:5 @ 0000299E */]
000030F2  101F                     move.b     D0, [A7]+
000030F4  6706                     beq        +0x8 /* 000030FC */
000030F6  4EAD 05FA                jsr        [A5 + 0x5FA /* export_187, CODE:5 @ 00004198 */]
000030FA  6008                     bra        +0xA /* 00003104 */
label000030FC:
000030FC  3F3C 0023                move.w     -[A7], 0x23 /* '#' */
00003100  4EAD 02EA                jsr        [A5 + 0x2EA /* export_89, CODE:2 @ 000004A2 */]
label00003104:
00003104  4E5E                     unlink     A6
00003106  4E75                     rts
00003108  8E44 4F55 5044 4154 4... dc.b       "DOUPDATEBUTTON"
fn0000311A:
0000311A  4E56 0000                link       A6, 0
0000311E  2F0A                     move.l     -[A7], A2
00003120  4EBA CFA4                jsr        [PC - 0x305C /* 000000C6 */]
00003124  302E 0008                move.w     D0, [A6 + 0x8]
00003128  5540                     subq.w     D0, 2
0000312A  3B40 AA92                move.w     [A5 - 0x556E], D0
0000312E  102D FFEF                move.b     D0, [A5 - 0x11]
00003132  6704                     beq        +0x6 /* 00003138 */
00003134  4EBA D8C4                jsr        [PC - 0x273C /* 000009FA */]
label00003138:
00003138  4EBA D878                jsr        [PC - 0x2788 /* 000009B2 */]
0000313C  1B7C 0001 FFEF           move.b     [A5 - 0x11], 0x1
00003142  4EBA E79C                jsr        [PC - 0x1864 /* 000018E0 */]
00003146  4EBA F91A                jsr        [PC - 0x6E6 /* 00002A62 */]
0000314A  302D AA92                move.w     D0, [A5 - 0x556E]
0000314E  41BC 0007 41ED           .invalid   0, 0x741ED // invalid opcode 4 with b == 6
00003154  AC6A                     syscall    HiWord, auto_pop
00003156  1230 0000                move.b     D1, [A0 + D0.w]
0000315A  0A01 0001                xori.b     D1, 0x1
0000315E  302D AA92                move.w     D0, [A5 - 0x556E]
00003162  41BC 0007 43ED           .invalid   0, 0x743ED // invalid opcode 4 with b == 6
00003168  AC62                     syscall    ForeColor, auto_pop
0000316A  C231 0000                and.b      D1, [A1 + D0.w]
0000316E  302D AA92                move.w     D0, [A5 - 0x556E]
00003172  41BC 0007 45ED           .invalid   0, 0x745ED // invalid opcode 4 with b == 6
00003178  AC5A                     syscall    BitNot, auto_pop
0000317A  C232 0000                and.b      D1, [A2 + D0.w]
0000317E  4AAD A4EE                tst.l      [A5 - 0x5B12]
00003182  5EC0                     sgt        D0
00003184  C200                     and.b      D1, D0
00003186  6706                     beq        +0x8 /* 0000318E */
00003188  4EBA E86C                jsr        [PC - 0x1794 /* 000019F6 */]
0000318C  6028                     bra        +0x2A /* 000031B6 */
label0000318E:
0000318E  422D FFEF                clr.b      [A5 - 0x11]
00003192  102D FFDF                move.b     D0, [A5 - 0x21]
00003196  802D FFE0                or.b       D0, [A5 - 0x20]
0000319A  6710                     beq        +0x12 /* 000031AC */
0000319C  42A7                     clr.l      -[A7]
0000319E  3F3C 0081                move.w     -[A7], 0x81
000031A2  A949                     syscall    GetMenuHandle
000031A4  3F3C 0002                move.w     -[A7], 0x2
000031A8  A939                     syscall    EnableItem
000031AA  600A                     bra        +0xC /* 000031B6 */
label000031AC:
000031AC  4EBA D84C                jsr        [PC - 0x27B4 /* 000009FA */]
000031B0  3F3C 0005                move.w     -[A7], 0x5
000031B4  A9C8                     syscall    SysBeep
label000031B6:
000031B6  A937                     syscall    DrawMenuBar
000031B8  4EBA CEF4                jsr        [PC - 0x310C /* 000000AE */]
000031BC  245F                     movea.l    A2, [A7]+
000031BE  4E5E                     unlink     A6
000031C0  205F                     movea.l    A0, [A7]+
000031C2  544F                     addq.w     A7, 2
000031C4  4ED0                     jmp        [A0]
000031C6  8D44 4F44 5249 5645 5... dc.b       "DODRIVESELECT"
fn000031D6:
000031D6  4E56 0000                link       A6, 0
000031DA  102D FFDE                move.b     D0, [A5 - 0x22]
000031DE  6712                     beq        +0x14 /* 000031F2 */
000031E0  2F3C 001C 0000           move.l     -[A7], 0x1C0000
000031E6  4EBA FE6C                jsr        [PC - 0x194 /* 00003054 */]
000031EA  101F                     move.b     D0, [A7]+
000031EC  6704                     beq        +0x6 /* 000031F2 */
000031EE  4EAD 0502                jsr        [A5 + 0x502 /* export_156, CODE:5 @ 00000142 */]
label000031F2:
000031F2  4E5E                     unlink     A6
000031F4  4E75                     rts
000031F6  8944 4F43 4D53 4C4F 4... dc.b       "DOCMSLOGO"
fn00003202:
00003202  4E56 0000                link       A6, 0
00003206  2F3C 001D 0000           move.l     -[A7], 0x1D0000
0000320C  4EBA FE46                jsr        [PC - 0x1BA /* 00003054 */]
00003210  7012                     moveq.l    D0, 0x12
00003212  B06D ABE8                cmp.w      D0, [A5 - 0x5418]
00003216  57C0                     seq        D0
00003218  C01F                     and.b      D0, [A7]+
0000321A  6706                     beq        +0x8 /* 00003222 */
0000321C  4EAD 0562                jsr        [A5 + 0x562 /* export_168, CODE:5 @ 00002314 */]
00003220  6016                     bra        +0x18 /* 00003238 */
label00003222:
00003222  2F3C 001D 0000           move.l     -[A7], 0x1D0000
00003228  4EBA FE2A                jsr        [PC - 0x1D6 /* 00003054 */]
0000322C  101F                     move.b     D0, [A7]+
0000322E  6708                     beq        +0xA /* 00003238 */
00003230  1F3C 0001                move.b     -[A7], 0x1
00003234  4EAD 05F2                jsr        [A5 + 0x5F2 /* export_186, CODE:5 @ 000040AC */]
label00003238:
00003238  4E5E                     unlink     A6
0000323A  4E75                     rts
0000323C  8C44 4F51 5549 434B 5... dc.b       "DOQUICKSTUFF"
fn0000324C:
0000324C  4E56 FFFE                link       A6, -0x0002
00003250  2F07                     move.l     -[A7], D7
00003252  3E2E 0008                move.w     D7, [A6 + 0x8]
00003256  7009                     moveq.l    D0, 0x09
00003258  B047                     cmp.w      D0, D7
0000325A  5DC0                     slt        D0
0000325C  7212                     moveq.l    D1, 0x12
0000325E  B247                     cmp.w      D1, D7
00003260  5EC1                     sgt        D1
00003262  C001                     and.b      D0, D1
00003264  6702                     beq        +0x4 /* 00003268 */
00003266  5147                     subq.w     D7, 8
label00003268:
00003268  3007                     move.w     D0, D7
0000326A  5340                     subq.w     D0, 1
0000326C  6B00 00AE                bmi        +0xB0 /* 0000331C */
00003270  0C40 0017                cmpi.w     D0, 0x17
00003274  6E00 00A6                bgt        +0xA8 /* 0000331C */
00003278  D040                     add.w      D0, D0
0000327A  303B 0006                move.w     D0, [PC + D0.w + 0x6]
0000327E  4EFB 0000                jmp        [PC + D0.w]
00003282  008A 0096 0096           ori.l      A2, 0x960096
00003288  0096 0096 0096           ori.l      [A6], 0x960096
0000328E  0096 0096 0090           ori.l      [A6], 0x960090
00003294  009C 009C 009C           ori.l      [A4]+, 0x9C009C
0000329A  009C 009C 009C           ori.l      [A4]+, 0x9C009C
000032A0  009C 009C 0084           ori.l      [A4]+, 0x9C0084
000032A6  0058 005E                ori.w      [A0]+, 0x5E /* '^' */
000032AA  0032 0070 006A           ori.b      [A2 + D0.w + 0x6A], 0x70 /* 'p' */
000032B0  0064 7012                ori.w      -[A4], 0x7012
000032B4  B06D ABE8                cmp.w      D0, [A5 - 0x5418]
000032B8  6608                     bne        +0xA /* 000032C2 */
000032BA  4267                     clr.w      -[A7]
000032BC  4EAD 05F2                jsr        [A5 + 0x5F2 /* export_186, CODE:5 @ 000040AC */]
000032C0  605A                     bra        +0x5C /* 0000331C */
label000032C2:
000032C2  2F3C 001D 0000           move.l     -[A7], 0x1D0000
000032C8  4EBA FD8A                jsr        [PC - 0x276 /* 00003054 */]
000032CC  101F                     move.b     D0, [A7]+
000032CE  674C                     beq        +0x4E /* 0000331C */
000032D0  4267                     clr.w      -[A7]
000032D2  4EAD 05F2                jsr        [A5 + 0x5F2 /* export_186, CODE:5 @ 000040AC */]
000032D6  6044                     bra        +0x46 /* 0000331C */
000032D8  4EAD 050A                jsr        [A5 + 0x50A /* export_157, CODE:5 @ 00000824 */]
000032DC  603E                     bra        +0x40 /* 0000331C */
000032DE  4EBA FF22                jsr        [PC - 0xDE /* 00003202 */]
000032E2  6038                     bra        +0x3A /* 0000331C */
000032E4  4EBA FEF0                jsr        [PC - 0x110 /* 000031D6 */]
000032E8  6032                     bra        +0x34 /* 0000331C */
000032EA  4EBA FDA4                jsr        [PC - 0x25C /* 00003090 */]
000032EE  602C                     bra        +0x2E /* 0000331C */
000032F0  2F3C 0022 0000           move.l     -[A7], 0x220000 /* '\"\0\0' */
000032F6  4EBA FD5C                jsr        [PC - 0x2A4 /* 00003054 */]
000032FA  101F                     move.b     D0, [A7]+
000032FC  671E                     beq        +0x20 /* 0000331C */
000032FE  4EBA FDE8                jsr        [PC - 0x218 /* 000030E8 */]
00003302  6018                     bra        +0x1A /* 0000331C */
00003304  4EAD 06CA                jsr        [A5 + 0x6CA /* export_213, CODE:10 @ 00000000 */]
00003308  6012                     bra        +0x14 /* 0000331C */
0000330A  4EBA F94E                jsr        [PC - 0x6B2 /* 00002C5A */]
0000330E  600C                     bra        +0xE /* 0000331C */
00003310  4EAD 0512                jsr        [A5 + 0x512 /* export_158, CODE:5 @ 000008AC */]
00003314  6006                     bra        +0x8 /* 0000331C */
00003316  3F07                     move.w     -[A7], D7
00003318  4EBA FE00                jsr        [PC - 0x200 /* 0000311A */]
label0000331C:
0000331C  2E1F                     move.l     D7, [A7]+
0000331E  4E5E                     unlink     A6
00003320  205F                     movea.l    A0, [A7]+
00003322  544F                     addq.w     A7, 2
00003324  4ED0                     jmp        [A0]
00003326  9048 414E 444C 454D 4... dc.b       "HANDLEMAINDIALOG"
fn0000333A:
0000333A  4E56 0000                link       A6, 0
0000333E  42A7                     clr.l      -[A7]
00003340  3F3C 0082                move.w     -[A7], 0x82
00003344  A949                     syscall    GetMenuHandle
00003346  4267                     clr.w      -[A7]
00003348  A93A                     syscall    DisableItem
0000334A  102D FFEF                move.b     D0, [A5 - 0x11]
0000334E  6724                     beq        +0x26 /* 00003374 */
00003350  42A7                     clr.l      -[A7]
00003352  3F3C 0085                move.w     -[A7], 0x85
00003356  A949                     syscall    GetMenuHandle
00003358  4267                     clr.w      -[A7]
0000335A  A939                     syscall    EnableItem
0000335C  42A7                     clr.l      -[A7]
0000335E  3F3C 0083                move.w     -[A7], 0x83
00003362  A949                     syscall    GetMenuHandle
00003364  4267                     clr.w      -[A7]
00003366  A939                     syscall    EnableItem
00003368  42A7                     clr.l      -[A7]
0000336A  3F3C 0084                move.w     -[A7], 0x84
0000336E  A949                     syscall    GetMenuHandle
00003370  4267                     clr.w      -[A7]
00003372  A939                     syscall    EnableItem
label00003374:
00003374  A937                     syscall    DrawMenuBar
00003376  4E5E                     unlink     A6
00003378  4E75                     rts
0000337A  8B54 5552 4E4F 4646 4... dc.b       "TURNOFFEDIT"
fn00003388:
00003388  4E56 0000                link       A6, 0
0000338C  42A7                     clr.l      -[A7]
0000338E  3F3C 0082                move.w     -[A7], 0x82
00003392  A949                     syscall    GetMenuHandle
00003394  4267                     clr.w      -[A7]
00003396  A939                     syscall    EnableItem
00003398  42A7                     clr.l      -[A7]
0000339A  3F3C 0085                move.w     -[A7], 0x85
0000339E  A949                     syscall    GetMenuHandle
000033A0  4267                     clr.w      -[A7]
000033A2  A93A                     syscall    DisableItem
000033A4  42A7                     clr.l      -[A7]
000033A6  3F3C 0083                move.w     -[A7], 0x83
000033AA  A949                     syscall    GetMenuHandle
000033AC  4267                     clr.w      -[A7]
000033AE  A939                     syscall    EnableItem
000033B0  42A7                     clr.l      -[A7]
000033B2  3F3C 0083                move.w     -[A7], 0x83
000033B6  A949                     syscall    GetMenuHandle
000033B8  3F3C 0001                move.w     -[A7], 0x1
000033BC  A93A                     syscall    DisableItem
000033BE  42A7                     clr.l      -[A7]
000033C0  3F3C 0083                move.w     -[A7], 0x83
000033C4  A949                     syscall    GetMenuHandle
000033C6  3F3C 0002                move.w     -[A7], 0x2
000033CA  A93A                     syscall    DisableItem
000033CC  42A7                     clr.l      -[A7]
000033CE  3F3C 0083                move.w     -[A7], 0x83
000033D2  A949                     syscall    GetMenuHandle
000033D4  3F3C 0004                move.w     -[A7], 0x4
000033D8  A93A                     syscall    DisableItem
000033DA  42A7                     clr.l      -[A7]
000033DC  3F3C 0083                move.w     -[A7], 0x83
000033E0  A949                     syscall    GetMenuHandle
000033E2  3F3C 0006                move.w     -[A7], 0x6
000033E6  A93A                     syscall    DisableItem
000033E8  42A7                     clr.l      -[A7]
000033EA  3F3C 0083                move.w     -[A7], 0x83
000033EE  A949                     syscall    GetMenuHandle
000033F0  3F3C 0005                move.w     -[A7], 0x5
000033F4  A93A                     syscall    DisableItem
000033F6  42A7                     clr.l      -[A7]
000033F8  3F3C 0084                move.w     -[A7], 0x84
000033FC  A949                     syscall    GetMenuHandle
000033FE  4267                     clr.w      -[A7]
00003400  A93A                     syscall    DisableItem
00003402  A937                     syscall    DrawMenuBar
00003404  4E5E                     unlink     A6
00003406  4E75                     rts
00003408  8A54 5552 4E4F 4E45 4... dc.b       "TURNONEDIT"
export_24:
fn00003416:
00003416  4E56 FEFE                link       A6, -0x0102
0000341A  2F07                     move.l     -[A7], D7
0000341C  3B6E 0008 FFD6           move.w     [A5 - 0x2A], [A6 + 0x8]
00003422  3E2E 000A                move.w     D7, [A6 + 0xA]
00003426  302D FFD6                move.w     D0, [A5 - 0x2A]
0000342A  0440 0080                subi.w     D0, 0x80
0000342E  6B00 026C                bmi        +0x26E /* 0000369C */
00003432  0C40 0006                cmpi.w     D0, 0x6
00003436  6E00 0264                bgt        +0x266 /* 0000369C */
0000343A  D040                     add.w      D0, D0
0000343C  303B 0006                move.w     D0, [PC + D0.w + 0x6]
00003440  4EFB 0000                jmp        [PC + D0.w]
00003444  0010 004E                ori.b      [A0], 0x4E /* 'N' */
00003448  00AC 00C0 0122 0196      ori.l      [A4 + 0x196], 0xC00122
00003450  0248 7001                andi.w     A0, 0x7001
00003454  B047                     cmp.w      D0, D7
00003456  6608                     bne        +0xA /* 00003460 */
00003458  4EAD 0522                jsr        [A5 + 0x522 /* export_160, CODE:5 @ 00000D78 */]
0000345C  6000 023E                bra        +0x240 /* 0000369C */
label00003460:
00003460  4EBA FF26                jsr        [PC - 0xDA /* 00003388 */]
00003464  42A7                     clr.l      -[A7]
00003466  3F3C 0080                move.w     -[A7], 0x80
0000346A  A949                     syscall    GetMenuHandle
0000346C  3F07                     move.w     -[A7], D7
0000346E  486E FF00                pea.l      [A6 - 0x100]
00003472  A946                     syscall    GetMenuItemText/GetItem
00003474  4267                     clr.w      -[A7]
00003476  41EE FF00                lea.l      A0, [A6 - 0x100]
0000347A  1F10                     move.b     -[A7], [A0]
0000347C  3F3C 00FF                move.w     -[A7], 0xFF
00003480  4EAD 074A                jsr        [A5 + 0x74A /* export_229, CODE:16 @ 000000B0 */]
00003484  2F08                     move.l     -[A7], A0
00003486  A9B6                     syscall    OpenDeskAcc
00003488  3B5F FFD8                move.w     [A5 - 0x28], [A7]+
0000348C  6000 020E                bra        +0x210 /* 0000369C */
00003490  3007                     move.w     D0, D7
00003492  5340                     subq.w     D0, 1
00003494  6714                     beq        +0x16 /* 000034AA */
00003496  5340                     subq.w     D0, 1
00003498  6718                     beq        +0x1A /* 000034B2 */
0000349A  5540                     subq.w     D0, 2
0000349C  671C                     beq        +0x1E /* 000034BA */
0000349E  5340                     subq.w     D0, 1
000034A0  672E                     beq        +0x30 /* 000034D0 */
000034A2  5540                     subq.w     D0, 2
000034A4  6740                     beq        +0x42 /* 000034E6 */
000034A6  6000 01F4                bra        +0x1F6 /* 0000369C */
label000034AA:
000034AA  4EAD 03EA                jsr        [A5 + 0x3EA /* export_121, CODE:4 @ 00000000 */]
000034AE  6000 01EC                bra        +0x1EE /* 0000369C */
label000034B2:
000034B2  4EAD 04FA                jsr        [A5 + 0x4FA /* export_155, CODE:5 @ 00000000 */]
000034B6  6000 01E4                bra        +0x1E6 /* 0000369C */
label000034BA:
000034BA  4267                     clr.w      -[A7]
000034BC  4EAD 0602                jsr        [A5 + 0x602 /* export_188, CODE:5 @ 00004298 */]
000034C0  101F                     move.b     D0, [A7]+
000034C2  6700 01D8                beq        +0x1DA /* 0000369C */
000034C6  3F3C 0002                move.w     -[A7], 0x2
000034CA  A895                     syscall    ShutDown
000034CC  6000 01CE                bra        +0x1D0 /* 0000369C */
label000034D0:
000034D0  4267                     clr.w      -[A7]
000034D2  4EAD 0602                jsr        [A5 + 0x602 /* export_188, CODE:5 @ 00004298 */]
000034D6  101F                     move.b     D0, [A7]+
000034D8  6700 01C2                beq        +0x1C4 /* 0000369C */
000034DC  3F3C 0001                move.w     -[A7], 0x1
000034E0  A895                     syscall    ShutDown
000034E2  6000 01B8                bra        +0x1BA /* 0000369C */
label000034E6:
000034E6  4EBA CDBC                jsr        [PC - 0x3244 /* 000002A4 */]
000034EA  6000 01B0                bra        +0x1B2 /* 0000369C */
000034EE  4267                     clr.w      -[A7]
000034F0  3007                     move.w     D0, D7
000034F2  5340                     subq.w     D0, 1
000034F4  3F00                     move.w     -[A7], D0
000034F6  A9C2                     syscall    SysEdit
000034F8  101F                     move.b     D0, [A7]+
000034FA  6600 01A0                bne        +0x1A2 /* 0000369C */
000034FE  6000 019C                bra        +0x19E /* 0000369C */
00003502  3007                     move.w     D0, D7
00003504  5340                     subq.w     D0, 1
00003506  6714                     beq        +0x16 /* 0000351C */
00003508  5340                     subq.w     D0, 1
0000350A  6718                     beq        +0x1A /* 00003524 */
0000350C  5540                     subq.w     D0, 2
0000350E  672C                     beq        +0x2E /* 0000353C */
00003510  5340                     subq.w     D0, 1
00003512  6730                     beq        +0x32 /* 00003544 */
00003514  5340                     subq.w     D0, 1
00003516  6734                     beq        +0x36 /* 0000354C */
00003518  6000 0182                bra        +0x184 /* 0000369C */
label0000351C:
0000351C  4EAD 03E2                jsr        [A5 + 0x3E2 /* export_120, CODE:3 @ 00003784 */]
00003520  6000 017A                bra        +0x17C /* 0000369C */
label00003524:
00003524  2F3C 0014 0000           move.l     -[A7], 0x140000
0000352A  4EBA FB28                jsr        [PC - 0x4D8 /* 00003054 */]
0000352E  101F                     move.b     D0, [A7]+
00003530  6700 016A                beq        +0x16C /* 0000369C */
00003534  4EAD 03DA                jsr        [A5 + 0x3DA /* export_119, CODE:3 @ 00002C04 */]
00003538  6000 0162                bra        +0x164 /* 0000369C */
label0000353C:
0000353C  4EAD 0392                jsr        [A5 + 0x392 /* export_110, CODE:3 @ 000003F8 */]
00003540  6000 015A                bra        +0x15C /* 0000369C */
label00003544:
00003544  4EAD 03A2                jsr        [A5 + 0x3A2 /* export_112, CODE:3 @ 00000E3A */]
00003548  6000 0152                bra        +0x154 /* 0000369C */
label0000354C:
0000354C  2F3C 0014 0000           move.l     -[A7], 0x140000
00003552  4EBA FB00                jsr        [PC - 0x500 /* 00003054 */]
00003556  101F                     move.b     D0, [A7]+
00003558  6700 0142                beq        +0x144 /* 0000369C */
0000355C  4EAD 039A                jsr        [A5 + 0x39A /* export_111, CODE:3 @ 00000C0A */]
00003560  6000 013A                bra        +0x13C /* 0000369C */
00003564  3007                     move.w     D0, D7
00003566  5340                     subq.w     D0, 1
00003568  6B00 0132                bmi        +0x134 /* 0000369C */
0000356C  0C40 000D                cmpi.w     D0, 0xD /* '\r' */
00003570  6E00 012A                bgt        +0x12C /* 0000369C */
00003574  D040                     add.w      D0, D0
00003576  303B 0006                move.w     D0, [PC + D0.w + 0x6]
0000357A  4EFB 0000                jmp        [PC + D0.w]
0000357E  001E 0120                ori.b      [A6]+, 0x20 /* ' ' */
00003582  0026 0120                ori.b      -[A6], 0x20 /* ' ' */
00003586  0042 0042                ori.w      D2, 0x42 /* 'B' */
0000358A  0042 0042                ori.w      D2, 0x42 /* 'B' */
0000358E  0120                     btst       -[A0], D0
00003590  0042 0042                ori.w      D2, 0x42 /* 'B' */
00003594  0042 0120                ori.w      D2, 0x120
00003598  0042 4EAD                ori.w      D2, 0x4EAD
0000359C  0672 6000 00FC           addi.w     [A2 + D0.w - 0x4], 0x6000 /* '`\0' */
000035A2  2F3C 001E 0000           move.l     -[A7], 0x1E0000
000035A8  4EBA FAAA                jsr        [PC - 0x556 /* 00003054 */]
000035AC  101F                     move.b     D0, [A7]+
000035AE  6700 00EC                beq        +0xEE /* 0000369C */
000035B2  1F3C 0001                move.b     -[A7], 0x1
000035B6  4EAD 0692                jsr        [A5 + 0x692 /* export_206, CODE:6 @ 00002972 */]
000035BA  6000 00E0                bra        +0xE2 /* 0000369C */
000035BE  2F3C 001E 0000           move.l     -[A7], 0x1E0000
000035C4  4EBA FA8E                jsr        [PC - 0x572 /* 00003054 */]
000035C8  101F                     move.b     D0, [A7]+
000035CA  6700 00D0                beq        +0xD2 /* 0000369C */
000035CE  3F07                     move.w     -[A7], D7
000035D0  4EAD 069A                jsr        [A5 + 0x69A /* export_207, CODE:6 @ 00002A22 */]
000035D4  6000 00C6                bra        +0xC8 /* 0000369C */
000035D8  3007                     move.w     D0, D7
000035DA  5340                     subq.w     D0, 1
000035DC  6B00 00BE                bmi        +0xC0 /* 0000369C */
000035E0  0C40 000B                cmpi.w     D0, 0xB
000035E4  6E00 00B6                bgt        +0xB8 /* 0000369C */
000035E8  D040                     add.w      D0, D0
000035EA  303B 0006                move.w     D0, [PC + D0.w + 0x6]
000035EE  4EFB 0000                jmp        [PC + D0.w]
000035F2  001A 00AC                ori.b      [A2]+, 0xAC
000035F6  0022 002A                ori.b      -[A2], 0x2A /* '*' */
000035FA  003E 0060                ori.b      <<invalid special address>>, 0x60 /* '`' */
000035FE  0066 0094                ori.w      -[A6], 0x94
00003602  00AC 007A 00AC 008E      ori.l      [A4 + 0x8E], 0x7A00AC
0000360A  4EAD 053A                jsr        [A5 + 0x53A /* export_163, CODE:5 @ 0000170C */]
0000360E  6000 008C                bra        +0x8E /* 0000369C */
00003612  4EAD 051A                jsr        [A5 + 0x51A /* export_159, CODE:5 @ 00000C0E */]
00003616  6000 0084                bra        +0x86 /* 0000369C */
0000361A  2F3C 000C 0000           move.l     -[A7], 0xC0000
00003620  4EBA FA32                jsr        [PC - 0x5CE /* 00003054 */]
00003624  101F                     move.b     D0, [A7]+
00003626  6774                     beq        +0x76 /* 0000369C */
00003628  4EAD 0582                jsr        [A5 + 0x582 /* export_172, CODE:5 @ 00002C38 */]
0000362C  606E                     bra        +0x70 /* 0000369C */
0000362E  7012                     moveq.l    D0, 0x12
00003630  B06D ABE8                cmp.w      D0, [A5 - 0x5418]
00003634  6606                     bne        +0x8 /* 0000363C */
00003636  4EAD 059A                jsr        [A5 + 0x59A /* export_175, CODE:5 @ 00003226 */]
0000363A  6060                     bra        +0x62 /* 0000369C */
label0000363C:
0000363C  2F3C 000C 0000           move.l     -[A7], 0xC0000
00003642  4EBA FA10                jsr        [PC - 0x5F0 /* 00003054 */]
00003646  101F                     move.b     D0, [A7]+
00003648  6752                     beq        +0x54 /* 0000369C */
0000364A  4EAD 058A                jsr        [A5 + 0x58A /* export_173, CODE:5 @ 00002E58 */]
0000364E  604C                     bra        +0x4E /* 0000369C */
00003650  4EAD 05A2                jsr        [A5 + 0x5A2 /* export_176, CODE:5 @ 00003318 */]
00003654  6046                     bra        +0x48 /* 0000369C */
00003656  2F3C 000C 0000           move.l     -[A7], 0xC0000
0000365C  4EBA F9F6                jsr        [PC - 0x60A /* 00003054 */]
00003660  101F                     move.b     D0, [A7]+
00003662  6738                     beq        +0x3A /* 0000369C */
00003664  4EAD 03D2                jsr        [A5 + 0x3D2 /* export_118, CODE:3 @ 00001EEE */]
00003668  6032                     bra        +0x34 /* 0000369C */
0000366A  2F3C 000C 0000           move.l     -[A7], 0xC0000
00003670  4EBA F9E2                jsr        [PC - 0x61E /* 00003054 */]
00003674  101F                     move.b     D0, [A7]+
00003676  6724                     beq        +0x26 /* 0000369C */
00003678  4EAD 0542                jsr        [A5 + 0x542 /* export_164, CODE:5 @ 000019CE */]
0000367C  601E                     bra        +0x20 /* 0000369C */
0000367E  4EAD 06BA                jsr        [A5 + 0x6BA /* export_211, CODE:8 @ 000008A2 */]
00003682  6018                     bra        +0x1A /* 0000369C */
00003684  4EAD 052A                jsr        [A5 + 0x52A /* export_161, CODE:5 @ 00000DCC */]
00003688  6012                     bra        +0x14 /* 0000369C */
0000368A  3007                     move.w     D0, D7
0000368C  5340                     subq.w     D0, 1
0000368E  6702                     beq        +0x4 /* 00003692 */
00003690  6006                     bra        +0x8 /* 00003698 */
label00003692:
00003692  4EAD 06C2                jsr        [A5 + 0x6C2 /* export_212, CODE:9 @ 00000000 */]
00003696  6004                     bra        +0x6 /* 0000369C */
label00003698:
00003698  4EAD 06C2                jsr        [A5 + 0x6C2 /* export_212, CODE:9 @ 00000000 */]
label0000369C:
0000369C  4267                     clr.w      -[A7]
0000369E  A938                     syscall    HiliteMenu
000036A0  2E1F                     move.l     D7, [A7]+
000036A2  4E5E                     unlink     A6
000036A4  2E9F                     move.l     [A7], [A7]+
000036A6  4E75                     rts
000036A8  8944 4F43 4F4D 4D41 4... dc.b       "DOCOMMAND"
fn000036B4:
000036B4  4E56 0000                link       A6, 0
000036B8  4EBA C9F4                jsr        [PC - 0x360C /* 000000AE */]
000036BC  4EBA FC7C                jsr        [PC - 0x384 /* 0000333A */]
000036C0  102D FFEF                move.b     D0, [A5 - 0x11]
000036C4  6706                     beq        +0x8 /* 000036CC */
000036C6  4EBA E32E                jsr        [PC - 0x1CD2 /* 000019F6 */]
000036CA  6026                     bra        +0x28 /* 000036F2 */
label000036CC:
000036CC  2F2D F21C                move.l     -[A7], [A5 - 0xDE4]
000036D0  3F3C 0012                move.w     -[A7], 0x12
000036D4  4EAD 038A                jsr        [A5 + 0x38A /* export_109, CODE:2 @ 00000EB6 */]
000036D8  2F2D F21C                move.l     -[A7], [A5 - 0xDE4]
000036DC  3F3C 0001                move.w     -[A7], 0x1
000036E0  4EAD 038A                jsr        [A5 + 0x38A /* export_109, CODE:2 @ 00000EB6 */]
000036E4  2F2D F21C                move.l     -[A7], [A5 - 0xDE4]
000036E8  3F3C 0013                move.w     -[A7], 0x13
000036EC  4EAD 038A                jsr        [A5 + 0x38A /* export_109, CODE:2 @ 00000EB6 */]
000036F0  A937                     syscall    DrawMenuBar
label000036F2:
000036F2  4E5E                     unlink     A6
000036F4  4E75                     rts
000036F6  8D52 4546 5245 5348 4... dc.b       "REFRESHDIALOG"
fn00003706:
00003706  4E56 0000                link       A6, 0
0000370A  2F2D F21C                move.l     -[A7], [A5 - 0xDE4]
0000370E  A922                     syscall    BeginUpdate
00003710  4267                     clr.w      -[A7]
00003712  206D F21C                movea.l    A0, [A5 - 0xDE4]
00003716  2F28 0018                move.l     -[A7], [A0 + 0x18]
0000371A  A8E2                     syscall    EmptyRgn
0000371C  101F                     move.b     D0, [A7]+
0000371E  6606                     bne        +0x8 /* 00003726 */
00003720  2F2D F21C                move.l     -[A7], [A5 - 0xDE4]
00003724  A981                     syscall    DrawDialog
label00003726:
00003726  2F2D F21C                move.l     -[A7], [A5 - 0xDE4]
0000372A  A923                     syscall    EndUpdate
0000372C  4E5E                     unlink     A6
0000372E  4E75                     rts
00003730  8844 4F55 5044 4154 4... dc.b       "DOUPDATE"
fn0000373C:
0000373C  4E56 FFE8                link       A6, -0x0018
00003740  206E 0008                movea.l    A0, [A6 + 0x8]
00003744  43EE FFF0                lea.l      A1, [A6 - 0x10]
00003748  22D8                     move.l     [A1]+, [A0]+
0000374A  22D8                     move.l     [A1]+, [A0]+
0000374C  22D8                     move.l     [A1]+, [A0]+
0000374E  22D8                     move.l     [A1]+, [A0]+
00003750  4267                     clr.w      -[A7]
00003752  486E FFF0                pea.l      [A6 - 0x10]
00003756  A97F                     syscall    IsDialogEvent
00003758  101F                     move.b     D0, [A7]+
0000375A  6700 014C                beq        +0x14E /* 000038A8 */
0000375E  4267                     clr.w      -[A7]
00003760  486E FFF0                pea.l      [A6 - 0x10]
00003764  486E FFEA                pea.l      [A6 - 0x16]
00003768  486E FFE8                pea.l      [A6 - 0x18]
0000376C  A980                     syscall    DialogSelect
0000376E  101F                     move.b     D0, [A7]+
00003770  6734                     beq        +0x36 /* 000037A6 */
00003772  202E FFEA                move.l     D0, [A6 - 0x16]
00003776  B0AD F21C                cmp.l      D0, [A5 - 0xDE4]
0000377A  6600 01CC                bne        +0x1CE /* 00003948 */
0000377E  7000                     moveq.l    D0, 0x00
00003780  302E FFFE                move.w     D0, [A6 - 0x2]
00003784  C0BC 0000 0800           and.l      D0, 0x800
0000378A  4A80                     tst.l      D0
0000378C  6708                     beq        +0xA /* 00003796 */
0000378E  1B7C 0001 FFDE           move.b     [A5 - 0x22], 0x1
00003794  6004                     bra        +0x6 /* 0000379A */
label00003796:
00003796  422D FFDE                clr.b      [A5 - 0x22]
label0000379A:
0000379A  3F2E FFE8                move.w     -[A7], [A6 - 0x18]
0000379E  4EBA FAAC                jsr        [PC - 0x554 /* 0000324C */]
000037A2  6000 01A4                bra        +0x1A6 /* 00003948 */
label000037A6:
000037A6  302E FFF0                move.w     D0, [A6 - 0x10]
000037AA  5740                     subq.w     D0, 3
000037AC  674A                     beq        +0x4C /* 000037F8 */
000037AE  5540                     subq.w     D0, 2
000037B0  6746                     beq        +0x48 /* 000037F8 */
000037B2  5340                     subq.w     D0, 1
000037B4  673A                     beq        +0x3C /* 000037F0 */
000037B6  5340                     subq.w     D0, 1
000037B8  677C                     beq        +0x7E /* 00003836 */
000037BA  5340                     subq.w     D0, 1
000037BC  670A                     beq        +0xC /* 000037C8 */
000037BE  5F40                     subq.w     D0, 7
000037C0  6700 00A6                beq        +0xA8 /* 00003868 */
000037C4  6000 0182                bra        +0x184 /* 00003948 */
label000037C8:
000037C8  202E FFF2                move.l     D0, [A6 - 0xE]
000037CC  B0AD F21C                cmp.l      D0, [A5 - 0xDE4]
000037D0  6708                     beq        +0xA /* 000037DA */
000037D2  4EBA FBB4                jsr        [PC - 0x44C /* 00003388 */]
000037D6  6000 0170                bra        +0x172 /* 00003948 */
label000037DA:
000037DA  42A7                     clr.l      -[A7]
000037DC  A924                     syscall    FrontWindow
000037DE  201F                     move.l     D0, [A7]+
000037E0  B0AD F21C                cmp.l      D0, [A5 - 0xDE4]
000037E4  6600 0162                bne        +0x164 /* 00003948 */
000037E8  4EBA FECA                jsr        [PC - 0x136 /* 000036B4 */]
000037EC  6000 015A                bra        +0x15C /* 00003948 */
label000037F0:
000037F0  4EBA FF14                jsr        [PC - 0xEC /* 00003706 */]
000037F4  6000 0152                bra        +0x154 /* 00003948 */
label000037F8:
000037F8  203C 0000 00FF           move.l     D0, 0xFF
000037FE  C0AE FFF2                and.l      D0, [A6 - 0xE]
00003802  41BC 00FF 3D40           .invalid   0, 0xFF3D40 // invalid opcode 4 with b == 6
00003808  FFEE                     .invalid   <<F/7/7>>
0000380A  7000                     moveq.l    D0, 0x00
0000380C  302E FFFE                move.w     D0, [A6 - 0x2]
00003810  C0BC 0000 0100           and.l      D0, 0x100
00003816  4A80                     tst.l      D0
00003818  6700 012E                beq        +0x130 /* 00003948 */
0000381C  7003                     moveq.l    D0, 0x03
0000381E  B06E FFF0                cmp.w      D0, [A6 - 0x10]
00003822  6600 0124                bne        +0x126 /* 00003948 */
00003826  42A7                     clr.l      -[A7]
00003828  3F2E FFEE                move.w     -[A7], [A6 - 0x12]
0000382C  A93E                     syscall    MenuKey
0000382E  4EBA FBE6                jsr        [PC - 0x41A /* 00003416 */]
00003832  6000 0114                bra        +0x116 /* 00003948 */
label00003836:
00003836  202E FFF2                move.l     D0, [A6 - 0xE]
0000383A  C0BC FFFF 0000           and.l      D0, 0xFFFF0000
00003840  4A80                     tst.l      D0
00003842  6700 0104                beq        +0x106 /* 00003948 */
00003846  486D A8F0                pea.l      [A5 - 0x5710]
0000384A  2F3C 0064 0096           move.l     -[A7], 0x640096
00003850  A880                     syscall    SetPt
00003852  4267                     clr.w      -[A7]
00003854  2F2D A8F0                move.l     -[A7], [A5 - 0x5710]
00003858  2F2E FFF2                move.l     -[A7], [A6 - 0xE]
0000385C  4EBA 0796                jsr        [PC + 0x796 /* 00003FF4 */]
00003860  3B5F F1FE                move.w     [A5 - 0xE02], [A7]+
00003864  6000 00E2                bra        +0xE4 /* 00003948 */
label00003868:
00003868  7018                     moveq.l    D0, 0x18
0000386A  222E FFF2                move.l     D1, [A6 - 0xE]
0000386E  E0A9                     lsr        D1, D0
00003870  5341                     subq.w     D1, 1
00003872  670C                     beq        +0xE /* 00003880 */
00003874  0441 00F9                subi.w     D1, 0xF9
00003878  6700 00CE                beq        +0xD0 /* 00003948 */
0000387C  6000 00CA                bra        +0xCC /* 00003948 */
label00003880:
00003880  7001                     moveq.l    D0, 0x01
00003882  C0AE FFF2                and.l      D0, [A6 - 0xE]
00003886  4A80                     tst.l      D0
00003888  670C                     beq        +0xE /* 00003896 */
0000388A  4EBA FE28                jsr        [PC - 0x1D8 /* 000036B4 */]
0000388E  422D FFE9                clr.b      [A5 - 0x17]
00003892  6000 00B4                bra        +0xB6 /* 00003948 */
label00003896:
00003896  4EBA E11A                jsr        [PC - 0x1EE6 /* 000019B2 */]
0000389A  1B7C 0001 FFE9           move.b     [A5 - 0x17], 0x1
000038A0  6000 00A6                bra        +0xA8 /* 00003948 */
000038A4  6000 00A2                bra        +0xA4 /* 00003948 */
label000038A8:
000038A8  302E FFF0                move.w     D0, [A6 - 0x10]
000038AC  5340                     subq.w     D0, 1
000038AE  6704                     beq        +0x6 /* 000038B4 */
000038B0  6000 0096                bra        +0x98 /* 00003948 */
label000038B4:
000038B4  4267                     clr.w      -[A7]
000038B6  2F2E FFFA                move.l     -[A7], [A6 - 0x6]
000038BA  486D F228                pea.l      [A5 - 0xDD8]
000038BE  A92C                     syscall    FindWindow
000038C0  3B5F FFDA                move.w     [A5 - 0x26], [A7]+
000038C4  302D FFDA                move.w     D0, [A5 - 0x26]
000038C8  5340                     subq.w     D0, 1
000038CA  6712                     beq        +0x14 /* 000038DE */
000038CC  5340                     subq.w     D0, 1
000038CE  671C                     beq        +0x1E /* 000038EC */
000038D0  5340                     subq.w     D0, 1
000038D2  6728                     beq        +0x2A /* 000038FC */
000038D4  5340                     subq.w     D0, 1
000038D6  6738                     beq        +0x3A /* 00003910 */
000038D8  5540                     subq.w     D0, 2
000038DA  6758                     beq        +0x5A /* 00003934 */
000038DC  606A                     bra        +0x6C /* 00003948 */
label000038DE:
000038DE  42A7                     clr.l      -[A7]
000038E0  2F2E FFFA                move.l     -[A7], [A6 - 0x6]
000038E4  A93D                     syscall    MenuSelect
000038E6  4EBA FB2E                jsr        [PC - 0x4D2 /* 00003416 */]
000038EA  605C                     bra        +0x5E /* 00003948 */
label000038EC:
000038EC  4EBA FA9A                jsr        [PC - 0x566 /* 00003388 */]
000038F0  486E FFF0                pea.l      [A6 - 0x10]
000038F4  2F2D F228                move.l     -[A7], [A5 - 0xDD8]
000038F8  A9B3                     syscall    SystemClick
000038FA  604C                     bra        +0x4E /* 00003948 */
label000038FC:
000038FC  42A7                     clr.l      -[A7]
000038FE  A924                     syscall    FrontWindow
00003900  202D F228                move.l     D0, [A5 - 0xDD8]
00003904  B09F                     cmp.l      D0, [A7]+
00003906  6740                     beq        +0x42 /* 00003948 */
00003908  2F2D F228                move.l     -[A7], [A5 - 0xDD8]
0000390C  A91F                     syscall    SelectWindow
0000390E  6038                     bra        +0x3A /* 00003948 */
label00003910:
00003910  42A7                     clr.l      -[A7]
00003912  A924                     syscall    FrontWindow
00003914  202D F228                move.l     D0, [A5 - 0xDD8]
00003918  B09F                     cmp.l      D0, [A7]+
0000391A  6708                     beq        +0xA /* 00003924 */
0000391C  2F2D F228                move.l     -[A7], [A5 - 0xDD8]
00003920  A91F                     syscall    SelectWindow
00003922  6024                     bra        +0x26 /* 00003948 */
label00003924:
00003924  2F2D F228                move.l     -[A7], [A5 - 0xDD8]
00003928  2F2E FFFA                move.l     -[A7], [A6 - 0x6]
0000392C  486D F244                pea.l      [A5 - 0xDBC]
00003930  A925                     syscall    DragWindow
00003932  6014                     bra        +0x16 /* 00003948 */
label00003934:
00003934  4267                     clr.w      -[A7]
00003936  2F2D F21C                move.l     -[A7], [A5 - 0xDE4]
0000393A  2F2E FFFA                move.l     -[A7], [A6 - 0x6]
0000393E  A91E                     syscall    TrackGoAway
00003940  101F                     move.b     D0, [A7]+
00003942  6704                     beq        +0x6 /* 00003948 */
00003944  4EBA C95E                jsr        [PC - 0x36A2 /* 000002A4 */]
label00003948:
00003948  4E5E                     unlink     A6
0000394A  2E9F                     move.l     [A7], [A7]+
0000394C  4E75                     rts
0000394E  8744 4F45 5645 4E54 0000 dc.b       "DOEVENT"
fn00003958:
00003958  4E56 0000                link       A6, 0
0000395C  42A7                     clr.l      -[A7]
0000395E  A8D8                     syscall    NewRgn
00003960  2B57 A680                move.l     [A5 - 0x5980], [A7]
00003964  42A7                     clr.l      -[A7]
00003966  2F3C 7FFE 7FFE           move.l     -[A7], 0x7FFE7FFE
0000396C  A8DE                     syscall    SetRecRgn
label0000396E:
0000396E  2F3C FFFF 0000           move.l     -[A7], 0xFFFF0000
00003974  486D AC22                pea.l      [A5 - 0x53DE]
00003978  703C                     moveq.l    D0, 0x3C
0000397A  2F00                     move.l     -[A7], D0
0000397C  2F2D A680                move.l     -[A7], [A5 - 0x5980]
00003980  A860                     syscall    WaitNextEvent
00003982  101F                     move.b     D0, [A7]+
00003984  67E8                     beq        -0x16 /* 0000396E */
00003986  486D AC22                pea.l      [A5 - 0x53DE]
0000398A  4EBA FDB0                jsr        [PC - 0x250 /* 0000373C */]
0000398E  60DE                     bra        -0x20 /* 0000396E */
00003990  4E5E                     unlink     A6
00003992  4E75                     rts
00003994  8945 5645 4E54 4C4F 4... dc.b       "EVENTLOOP"
export_0:
000039A0  4EBA 0D9C                jsr        [PC + 0xD9C /* 0000473E */]
000039A4  4E56 0000                link       A6, 0
000039A8  2C5F                     movea.l    A6, [A7]+
000039AA  4EBA 0D94                jsr        [PC + 0xD94 /* 00004740 */]
000039AE  4A80                     tst.l      D0
000039B0  6702                     beq        +0x4 /* 000039B4 */
000039B2  4E75                     rts
label000039B4:
000039B4  486D 070A                pea.l      [A5 + 0x70A /* export_221, CODE:14 @ 00000000 */]
000039B8  A9F1                     syscall    UnloadSeg
000039BA  A063                     syscall    MaxApplZone
000039BC  4EAD 06AA                jsr        [A5 + 0x6AA /* export_209, CODE:7 @ 0000048C */]
000039C0  486D 06AA                pea.l      [A5 + 0x6AA /* export_209, CODE:7 @ 0000048C */]
000039C4  A9F1                     syscall    UnloadSeg
000039C6  486D B1CE                pea.l      [A5 - 0x4E32]
000039CA  486D FFBE                pea.l      [A5 - 0x42]
000039CE  4EBA 0342                jsr        [PC + 0x342 /* 00003D12 */]
000039D2  4A6D FFBE                tst.w      [A5 - 0x42]
000039D6  6612                     bne        +0x14 /* 000039EA */
000039D8  102D A507                move.b     D0, [A5 - 0x5AF9]
000039DC  6706                     beq        +0x8 /* 000039E4 */
000039DE  4EBA DF00                jsr        [PC - 0x2100 /* 000018E0 */]
000039E2  600A                     bra        +0xC /* 000039EE */
label000039E4:
000039E4  4EBA F274                jsr        [PC - 0xD8C /* 00002C5A */]
000039E8  6004                     bra        +0x6 /* 000039EE */
label000039EA:
000039EA  4EAD 06CA                jsr        [A5 + 0x6CA /* export_213, CODE:10 @ 00000000 */]
label000039EE:
000039EE  4EBA FF68                jsr        [PC - 0x98 /* 00003958 */]
000039F2  4EBA 0DAE                jsr        [PC + 0xDAE /* 000047A2 */]
000039F6  4EBA 0DB0                jsr        [PC + 0xDB0 /* 000047A8 */]
000039FA  4E75                     rts
000039FC  4E5E                     unlink     A6
000039FE  4E75                     rts
00003A00  8853 4353 4955 5449 4... dc.b       "SCSIUTIL"
export_25:
00003A0C  225F                     movea.l    A1, [A7]+
00003A0E  201F                     move.l     D0, [A7]+
00003A10  A11E                     syscall    NewPtr, flags=1
00003A12  2E88                     move.l     [A7], A0
00003A14  4ED1                     jmp        [A1]
export_26:
00003A16  225F                     movea.l    A1, [A7]+
00003A18  201F                     move.l     D0, [A7]+
00003A1A  A51E                     syscall    NewPtrSys, flags=5
00003A1C  2E88                     move.l     [A7], A0
00003A1E  4ED1                     jmp        [A1]
export_27:
fn00003A20:
00003A20  225F                     movea.l    A1, [A7]+
00003A22  201F                     move.l     D0, [A7]+
00003A24  A31E                     syscall    NewPtrClear, flags=3
00003A26  2E88                     move.l     [A7], A0
00003A28  4ED1                     jmp        [A1]
export_28:
00003A2A  225F                     movea.l    A1, [A7]+
00003A2C  201F                     move.l     D0, [A7]+
00003A2E  A122                     syscall    NewHandle, flags=1
00003A30  2E88                     move.l     [A7], A0
00003A32  4ED1                     jmp        [A1]
export_29:
fn00003A34:
00003A34  225F                     movea.l    A1, [A7]+
00003A36  205F                     movea.l    A0, [A7]+
00003A38  A025                     syscall    GetHandleSize
00003A3A  2E80                     move.l     [A7], D0
00003A3C  6A02                     bpl        +0x4 /* 00003A40 */
00003A3E  4297                     clr.l      [A7]
label00003A40:
00003A40  4ED1                     jmp        [A1]
export_30:
fn00003A42:
00003A42  221F                     move.l     D1, [A7]+
00003A44  201F                     move.l     D0, [A7]+
00003A46  225F                     movea.l    A1, [A7]+
00003A48  205F                     movea.l    A0, [A7]+
00003A4A  A02E                     syscall    BlockMove/BlockMoveData
00003A4C  2241                     movea.l    A1, D1
00003A4E  4ED1                     jmp        [A1]
export_31:
00003A50  302F 0004                move.w     D0, [A7 + 0x4]
00003A54  9EFC 001E                sub.w      A7, 0x1E
00003A58  3F40 0018                move.w     [A7 + 0x18], D0
00003A5C  204F                     movea.l    A0, A7
00003A5E  A001                     syscall    Close
00003A60  4FEF 001E                lea.l      A7, [A7 + 0x1E]
00003A64  3F40 0006                move.w     [A7 + 0x6], D0
00003A68  205F                     movea.l    A0, [A7]+
00003A6A  544F                     addq.w     A7, 2
00003A6C  4ED0                     jmp        [A0]
export_32:
00003A6E  225F                     movea.l    A1, [A7]+
00003A70  121F                     move.b     D1, [A7]+
00003A72  301F                     move.w     D0, [A7]+
00003A74  4A01                     tst.b      D1
00003A76  6704                     beq        +0x6 /* 00003A7C */
00003A78  A746                     syscall    GetToolBoxTrapAddress/GetToolTrapAddress, flags=7
00003A7A  6002                     bra        +0x4 /* 00003A7E */
label00003A7C:
00003A7C  A346                     syscall    GetOSTrapAddress, flags=3
label00003A7E:
00003A7E  2E88                     move.l     [A7], A0
00003A80  4ED1                     jmp        [A1]
export_33:
fn00003A82:
00003A82  201F                     move.l     D0, [A7]+
00003A84  225F                     movea.l    A1, [A7]+
00003A86  205F                     movea.l    A0, [A7]+
00003A88  2F00                     move.l     -[A7], D0
00003A8A  A03B                     syscall    Delay
00003A8C  2280                     move.l     [A1], D0
00003A8E  4E75                     rts
export_34:
00003A90  206F 000C                movea.l    A0, [A7 + 0xC]
00003A94  226F 0008                movea.l    A1, [A7 + 0x8]
00003A98  7000                     moveq.l    D0, 0x00
00003A9A  1018                     move.b     D0, [A0]+
00003A9C  4840                     swap.w     D0
00003A9E  1019                     move.b     D0, [A1]+
00003AA0  4A2F 0004                tst.b      [A7 + 0x4]
00003AA4  670E                     beq        +0x10 /* 00003AB4 */
00003AA6  4A2F 0006                tst.b      [A7 + 0x6]
00003AAA  6704                     beq        +0x6 /* 00003AB0 */
00003AAC  A43C                     syscall    CmpString, flags=4
00003AAE  6010                     bra        +0x12 /* 00003AC0 */
label00003AB0:
00003AB0  A03C                     syscall    CmpString
00003AB2  600C                     bra        +0xE /* 00003AC0 */
label00003AB4:
00003AB4  4A2F 0006                tst.b      [A7 + 0x6]
00003AB8  6704                     beq        +0x6 /* 00003ABE */
00003ABA  A63C                     syscall    CmpString, flags=6
00003ABC  6002                     bra        +0x4 /* 00003AC0 */
label00003ABE:
00003ABE  A23C                     syscall    CmpString, flags=2
label00003AC0:
00003AC0  0A00 0001                xori.b     D0, 0x1
00003AC4  1F40 0010                move.b     [A7 + 0x10], D0
00003AC8  205F                     movea.l    A0, [A7]+
00003ACA  4FEF 000C                lea.l      A7, [A7 + 0xC]
00003ACE  4ED0                     jmp        [A0]
export_35:
00003AD0  201F                     move.l     D0, [A7]+
00003AD2  225F                     movea.l    A1, [A7]+
00003AD4  205F                     movea.l    A0, [A7]+
00003AD6  2F00                     move.l     -[A7], D0
00003AD8  A96E                     syscall    Dequeue
00003ADA  3F40 0004                move.w     [A7 + 0x4], D0
00003ADE  4E75                     rts
export_36:
00003AE0  205F                     movea.l    A0, [A7]+
00003AE2  301F                     move.w     D0, [A7]+
00003AE4  4297                     clr.l      [A7]
00003AE6  4640                     not.w      D0
00003AE8  B078 01D2                cmp.w      D0, [0x000001D2 /* UnitNtryCnt */]
00003AEC  640A                     bcc        +0xC /* 00003AF8 */
00003AEE  E548                     lsl        D0.w, 2
00003AF0  2278 011C                movea.l    A1, [0x0000011C /* UTableBase */]
00003AF4  2EB1 0000                move.l     [A7], [A1 + D0.w]
label00003AF8:
00003AF8  4ED0                     jmp        [A0]
export_37:
00003AFA  225F                     movea.l    A1, [A7]+
00003AFC  205F                     movea.l    A0, [A7]+
00003AFE  A00F                     syscall    MountVol
00003B00  3E80                     move.w     [A7], D0
00003B02  4ED1                     jmp        [A1]
export_38:
00003B04  225F                     movea.l    A1, [A7]+
00003B06  205F                     movea.l    A0, [A7]+
00003B08  A00E                     syscall    UnmountVol/HUnmountVol
00003B0A  3E80                     move.w     [A7], D0
00003B0C  4ED1                     jmp        [A1]
export_39:
00003B0E  225F                     movea.l    A1, [A7]+
00003B10  205F                     movea.l    A0, [A7]+
00003B12  A017                     syscall    Eject
00003B14  3E80                     move.w     [A7], D0
00003B16  4ED1                     jmp        [A1]
export_40:
00003B18  4E56 FFCE                link       A6, -0x0032
00003B1C  204F                     movea.l    A0, A7
00003B1E  216E 000E 0012           move.l     [A0 + 0x12], [A6 + 0xE]
00003B24  316E 000C 0016           move.w     [A0 + 0x16], [A6 + 0xC]
00003B2A  4228 001A                clr.b      [A0 + 0x1A]
00003B2E  4228 001B                clr.b      [A0 + 0x1B]
00003B32  42A8 001C                clr.l      [A0 + 0x1C]
00003B36  701A                     moveq.l    D0, 0x1A
00003B38  A060                     syscall    FSDispatch/HFSDispatch
00003B3A  0C40 FFCE                cmpi.w     D0, 0xFFCE
00003B3E  6602                     bne        +0x4 /* 00003B42 */
00003B40  A000                     syscall    Open/PBHOpen/HOpen
label00003B42:
00003B42  226E 0008                movea.l    A1, [A6 + 0x8]
00003B46  32A8 0018                move.w     [A1], [A0 + 0x18]
00003B4A  3D40 0012                move.w     [A6 + 0x12], D0
00003B4E  4E5E                     unlink     A6
00003B50  205F                     movea.l    A0, [A7]+
00003B52  4FEF 000A                lea.l      A7, [A7 + 0xA]
00003B56  4ED0                     jmp        [A0]
export_41:
00003B58  4E56 FFCE                link       A6, -0x0032
00003B5C  204F                     movea.l    A0, A7
00003B5E  316E 0008 0018           move.w     [A0 + 0x18], [A6 + 0x8]
00003B64  A001                     syscall    Close
00003B66  3D40 000A                move.w     [A6 + 0xA], D0
00003B6A  4E5E                     unlink     A6
00003B6C  205F                     movea.l    A0, [A7]+
00003B6E  548F                     addq.l     A7, 2
00003B70  4ED0                     jmp        [A0]
export_42:
00003B72  51C1                     sf         D1
00003B74  6002                     bra        +0x4 /* 00003B78 */
export_43:
00003B76  50C1                     st         D1
label00003B78:
00003B78  4E56 FFCE                link       A6, -0x0032
00003B7C  204F                     movea.l    A0, A7
00003B7E  216E 0008 0020           move.l     [A0 + 0x20], [A6 + 0x8]
00003B84  316E 0010 0018           move.w     [A0 + 0x18], [A6 + 0x10]
00003B8A  226E 000C                movea.l    A1, [A6 + 0xC]
00003B8E  2151 0024                move.l     [A0 + 0x24], [A1]
00003B92  4268 002C                clr.w      [A0 + 0x2C]
00003B96  42A8 002E                clr.l      [A0 + 0x2E]
00003B9A  4A01                     tst.b      D1
00003B9C  6604                     bne        +0x6 /* 00003BA2 */
00003B9E  A002                     syscall    Read
00003BA0  6002                     bra        +0x4 /* 00003BA4 */
label00003BA2:
00003BA2  A003                     syscall    Write
label00003BA4:
00003BA4  3D40 0012                move.w     [A6 + 0x12], D0
00003BA8  226E 000C                movea.l    A1, [A6 + 0xC]
00003BAC  22A8 0028                move.l     [A1], [A0 + 0x28]
00003BB0  4E5E                     unlink     A6
00003BB2  225F                     movea.l    A1, [A7]+
00003BB4  4FEF 000A                lea.l      A7, [A7 + 0xA]
00003BB8  4ED1                     jmp        [A1]
export_44:
00003BBA  4E56 FFB0                link       A6, -0x0050
00003BBE  204F                     movea.l    A0, A7
00003BC0  216E 000E 0012           move.l     [A0 + 0x12], [A6 + 0xE]
00003BC6  316E 000C 0016           move.w     [A0 + 0x16], [A6 + 0xC]
00003BCC  4228 001A                clr.b      [A0 + 0x1A]
00003BD0  4268 001C                clr.w      [A0 + 0x1C]
00003BD4  A00C                     syscall    GetFileInfo/PBHGetFInfo/HGetFileInfo
00003BD6  3D40 0012                move.w     [A6 + 0x12], D0
00003BDA  41E8 0020                lea.l      A0, [A0 + 0x20]
00003BDE  226E 0008                movea.l    A1, [A6 + 0x8]
00003BE2  7010                     moveq.l    D0, 0x10
00003BE4  A02E                     syscall    BlockMove/BlockMoveData
00003BE6  4E5E                     unlink     A6
00003BE8  225F                     movea.l    A1, [A7]+
00003BEA  4FEF 000A                lea.l      A7, [A7 + 0xA]
00003BEE  4ED1                     jmp        [A1]
export_45:
00003BF0  4E56 FFC0                link       A6, -0x0040
00003BF4  204F                     movea.l    A0, A7
00003BF6  216E 000A 0012           move.l     [A0 + 0x12], [A6 + 0xA]
00003BFC  316E 0008 0016           move.w     [A0 + 0x16], [A6 + 0x8]
00003C02  A015                     syscall    SetVol/PBHSetVol/HSetVol
00003C04  3D40 000E                move.w     [A6 + 0xE], D0
00003C08  4E5E                     unlink     A6
00003C0A  225F                     movea.l    A1, [A7]+
00003C0C  5C8F                     addq.l     A7, 6
00003C0E  4ED1                     jmp        [A1]
export_46:
00003C10  4E56 FFC0                link       A6, -0x0040
00003C14  204F                     movea.l    A0, A7
00003C16  316E 0008 0016           move.w     [A0 + 0x16], [A6 + 0x8]
00003C1C  216E 000A 0012           move.l     [A0 + 0x12], [A6 + 0xA]
00003C22  A013                     syscall    FlushVol
00003C24  3D40 000E                move.w     [A6 + 0xE], D0
00003C28  4E5E                     unlink     A6
00003C2A  225F                     movea.l    A1, [A7]+
00003C2C  5C8F                     addq.l     A7, 6
00003C2E  4ED1                     jmp        [A1]
export_47:
00003C30  4E56 FFB0                link       A6, -0x0050
00003C34  204F                     movea.l    A0, A7
00003C36  216E 0012 0012           move.l     [A0 + 0x12], [A6 + 0x12]
00003C3C  316E 0010 0016           move.w     [A0 + 0x16], [A6 + 0x10]
00003C42  4228 001A                clr.b      [A0 + 0x1A]
00003C46  A008                     syscall    Create/PBHCreate/HCreate
00003C48  6616                     bne        +0x18 /* 00003C60 */
00003C4A  4268 001C                clr.w      [A0 + 0x1C]
00003C4E  A00C                     syscall    GetFileInfo/PBHGetFInfo/HGetFileInfo
00003C50  660E                     bne        +0x10 /* 00003C60 */
00003C52  43E8 0020                lea.l      A1, [A0 + 0x20]
00003C56  22EE 0008                move.l     [A1]+, [A6 + 0x8]
00003C5A  22AE 000C                move.l     [A1], [A6 + 0xC]
00003C5E  A00D                     syscall    SetFileInfo/PBHSetFInfo/HSetFileInfo
label00003C60:
00003C60  3D40 0016                move.w     [A6 + 0x16], D0
00003C64  4E5E                     unlink     A6
00003C66  225F                     movea.l    A1, [A7]+
00003C68  4FEF 000E                lea.l      A7, [A7 + 0xE]
00003C6C  4ED1                     jmp        [A1]
export_48:
00003C6E  4E56 FFCE                link       A6, -0x0032
00003C72  204F                     movea.l    A0, A7
00003C74  216E 000A 0012           move.l     [A0 + 0x12], [A6 + 0xA]
00003C7A  316E 0008 0016           move.w     [A0 + 0x16], [A6 + 0x8]
00003C80  4228 001A                clr.b      [A0 + 0x1A]
00003C84  A009                     syscall    Delete/PBHDelete/HDelete
00003C86  3D40 000E                move.w     [A6 + 0xE], D0
00003C8A  4E5E                     unlink     A6
00003C8C  225F                     movea.l    A1, [A7]+
00003C8E  5C8F                     addq.l     A7, 6
00003C90  4ED1                     jmp        [A1]
export_49:
00003C92  4E56 FFCE                link       A6, -0x0032
00003C96  204F                     movea.l    A0, A7
00003C98  316E 000E 0018           move.w     [A0 + 0x18], [A6 + 0xE]
00003C9E  316E 000C 002C           move.w     [A0 + 0x2C], [A6 + 0xC]
00003CA4  216E 0008 002E           move.l     [A0 + 0x2E], [A6 + 0x8]
00003CAA  A044                     syscall    SetFPos
00003CAC  3D40 0010                move.w     [A6 + 0x10], D0
00003CB0  4E5E                     unlink     A6
00003CB2  225F                     movea.l    A1, [A7]+
00003CB4  508F                     addq.l     A7, 8
00003CB6  4ED1                     jmp        [A1]
export_50:
00003CB8  225F                     movea.l    A1, [A7]+
00003CBA  101F                     move.b     D0, [A7]+
00003CBC  205F                     movea.l    A0, [A7]+
00003CBE  6606                     bne        +0x8 /* 00003CC6 */
00003CC0  7009                     moveq.l    D0, 0x09
00003CC2  A260                     syscall    FSDispatch/HFSDispatch, flags=2
00003CC4  6004                     bra        +0x6 /* 00003CCA */
label00003CC6:
00003CC6  7009                     moveq.l    D0, 0x09
00003CC8  A660                     syscall    FSDispatch/HFSDispatch, flags=6
label00003CCA:
00003CCA  3E80                     move.w     [A7], D0
00003CCC  4ED1                     jmp        [A1]
export_51:
00003CCE  225F                     movea.l    A1, [A7]+
00003CD0  101F                     move.b     D0, [A7]+
00003CD2  205F                     movea.l    A0, [A7]+
00003CD4  6606                     bne        +0x8 /* 00003CDC */
00003CD6  700A                     moveq.l    D0, 0x0A
00003CD8  A260                     syscall    FSDispatch/HFSDispatch, flags=2
00003CDA  6004                     bra        +0x6 /* 00003CE0 */
label00003CDC:
00003CDC  700A                     moveq.l    D0, 0x0A
00003CDE  A660                     syscall    FSDispatch/HFSDispatch, flags=6
label00003CE0:
00003CE0  3E80                     move.w     [A7], D0
00003CE2  4ED1                     jmp        [A1]
fn00003CE4:
00003CE4  225F                     movea.l    A1, [A7]+
00003CE6  101F                     move.b     D0, [A7]+
00003CE8  205F                     movea.l    A0, [A7]+
00003CEA  6604                     bne        +0x6 /* 00003CF0 */
00003CEC  A210                     syscall    Allocate/PBAllocContig/AllocContig, flags=2
00003CEE  6002                     bra        +0x4 /* 00003CF2 */
label00003CF0:
00003CF0  A610                     syscall    Allocate/PBAllocContig/AllocContig, flags=6
label00003CF2:
00003CF2  3E80                     move.w     [A7], D0
00003CF4  4ED1                     jmp        [A1]
export_52:
fn00003CF6:
00003CF6  225F                     movea.l    A1, [A7]+
00003CF8  205F                     movea.l    A0, [A7]+
00003CFA  301F                     move.w     D0, [A7]+
00003CFC  A030                     syscall    OSEventAvail
00003CFE  5240                     addq.w     D0, 1
00003D00  1E80                     move.b     [A7], D0
00003D02  4ED1                     jmp        [A1]
export_53:
00003D04  225F                     movea.l    A1, [A7]+
00003D06  205F                     movea.l    A0, [A7]+
00003D08  301F                     move.w     D0, [A7]+
00003D0A  A031                     syscall    GetOSEvent
00003D0C  5240                     addq.w     D0, 1
00003D0E  1E80                     move.b     [A7], D0
00003D10  4ED1                     jmp        [A1]
fn00003D12:
00003D12  226F 0004                movea.l    A1, [A7 + 0x4]
00003D16  4251                     clr.w      [A1]
00003D18  2078 0AEC                movea.l    A0, [0x00000AEC /* AppParmHandle */]
00003D1C  A025                     syscall    GetHandleSize
00003D1E  4A80                     tst.l      D0
00003D20  6F0E                     ble        +0x10 /* 00003D30 */
00003D22  2050                     movea.l    A0, [A0]
00003D24  226F 0008                movea.l    A1, [A7 + 0x8]
00003D28  3298                     move.w     [A1], [A0]+
00003D2A  226F 0004                movea.l    A1, [A7 + 0x4]
00003D2E  3290                     move.w     [A1], [A0]
label00003D30:
00003D30  205F                     movea.l    A0, [A7]+
00003D32  504F                     addq.w     A7, 8
00003D34  4ED0                     jmp        [A0]
export_54:
00003D36  4E56 FFB0                link       A6, -0x0050
00003D3A  48E7 0108                movem.l    -[A7], D7,A4
00003D3E  286E 0008                movea.l    A4, [A6 + 0x8]
00003D42  3D6E 000C FFC8           move.w     [A6 - 0x38], [A6 + 0xC]
00003D48  2D54 FFD4                move.l     [A6 - 0x2C], [A4]
00003D4C  558F                     subq.l     A7, 2
00003D4E  486E FFB0                pea.l      [A6 - 0x50]
00003D52  7000                     moveq.l    D0, 0x00
00003D54  1F00                     move.b     -[A7], D0
00003D56  4EBA FF8C                jsr        [PC - 0x74 /* 00003CE4 */]
00003D5A  3E1F                     move.w     D7, [A7]+
00003D5C  28AE FFD8                move.l     [A4], [A6 - 0x28]
00003D60  3D47 000E                move.w     [A6 + 0xE], D7
00003D64  4CEE 1080 FFA8           movem.l    D7,A4, [A6 - 0x58]
00003D6A  4E5E                     unlink     A6
00003D6C  205F                     movea.l    A0, [A7]+
00003D6E  5C4F                     addq.w     A7, 6
00003D70  4ED0                     jmp        [A0]
00003D72  8B41 4C4C 4F43 434F 4... dc.b       "ALLOCCONTIG"
export_55:
00003D80  206F 0004                movea.l    A0, [A7 + 0x4]
00003D84  2050                     movea.l    A0, [A0]
00003D86  A9E1                     syscall    HandToHand
00003D88  226F 0004                movea.l    A1, [A7 + 0x4]
00003D8C  2288                     move.l     [A1], A0
00003D8E  3F40 0008                move.w     [A7 + 0x8], D0
00003D92  2E9F                     move.l     [A7], [A7]+
00003D94  4E75                     rts
export_56:
fn00003D96:
00003D96  4E56 0000                link       A6, 0
00003D9A  594F                     subq.w     A7, 4
00003D9C  2F3C 5354 5223           move.l     -[A7], 0x53545223 /* 'STR#' */
00003DA2  3F2E 000A                move.w     -[A7], [A6 + 0xA]
00003DA6  A9A0                     syscall    GetResource
00003DA8  226E 000C                movea.l    A1, [A6 + 0xC]
00003DAC  4211                     clr.b      [A1]
00003DAE  201F                     move.l     D0, [A7]+
00003DB0  6722                     beq        +0x24 /* 00003DD4 */
00003DB2  2040                     movea.l    A0, D0
00003DB4  2050                     movea.l    A0, [A0]
00003DB6  3018                     move.w     D0, [A0]+
00003DB8  322E 0008                move.w     D1, [A6 + 0x8]
00003DBC  6716                     beq        +0x18 /* 00003DD4 */
00003DBE  B240                     cmp.w      D1, D0
00003DC0  6212                     bhi        +0x14 /* 00003DD4 */
00003DC2  7000                     moveq.l    D0, 0x00
label00003DC4:
00003DC4  5341                     subq.w     D1, 1
00003DC6  6706                     beq        +0x8 /* 00003DCE */
00003DC8  1018                     move.b     D0, [A0]+
00003DCA  D1C0                     add.l      A0, D0
00003DCC  60F6                     bra        -0x8 /* 00003DC4 */
label00003DCE:
00003DCE  1010                     move.b     D0, [A0]
00003DD0  5240                     addq.w     D0, 1
00003DD2  A02E                     syscall    BlockMove/BlockMoveData
label00003DD4:
00003DD4  4E5E                     unlink     A6
00003DD6  205F                     movea.l    A0, [A7]+
00003DD8  508F                     addq.l     A7, 8
00003DDA  4ED0                     jmp        [A0]
export_57:
00003DDC  4E56 0000                link       A6, 0
00003DE0  203C 0000 A89F           move.l     D0, 0xA89F
00003DE6  A746                     syscall    GetToolBoxTrapAddress/GetToolTrapAddress, flags=7
00003DE8  2F08                     move.l     -[A7], A0
00003DEA  203C 0000 A0AD           move.l     D0, 0xA0AD
00003DF0  A346                     syscall    GetOSTrapAddress, flags=3
00003DF2  B1DF                     cmpa.l     A0, [A7]+
00003DF4  670E                     beq        +0x10 /* 00003E04 */
00003DF6  202E 000C                move.l     D0, [A6 + 0xC]
00003DFA  A1AD                     syscall    Gestalt, flags=1
00003DFC  226E 0008                movea.l    A1, [A6 + 0x8]
00003E00  2288                     move.l     [A1], A0
00003E02  6026                     bra        +0x28 /* 00003E2A */
label00003E04:
00003E04  41FA 0036                lea.l      A0, [PC + 0x36 /* 00003E3C, value 0x76657273 'vers', cstring "vers" */]
00003E08  303C EA51                move.w     D0, 0xEA51
00003E0C  222E 000C                move.l     D1, [A6 + 0xC]
label00003E10:
00003E10  B298                     cmp.l      D1, [A0]+
00003E12  6706                     beq        +0x8 /* 00003E1A */
00003E14  4A98                     tst.l      [A0]+
00003E16  6712                     beq        +0x14 /* 00003E2A */
00003E18  60F6                     bra        -0x8 /* 00003E10 */
label00003E1A:
00003E1A  43FA 0020                lea.l      A1, [PC + 0x20 /* 00003E3C, value 0x76657273 'vers', cstring "vers" */]
00003E1E  D3D0                     add.l      A1, [A0]
00003E20  4ED1                     jmp        [A1]
label00003E22:
00003E22  226E 0008                movea.l    A1, [A6 + 0x8]
00003E26  2280                     move.l     [A1], D0
00003E28  4240                     clr.w      D0
label00003E2A:
00003E2A  3D40 0010                move.w     [A6 + 0x10], D0
00003E2E  4E5E                     unlink     A6
00003E30  205F                     movea.l    A0, [A7]+
00003E32  508F                     addq.l     A7, 8
00003E34  4ED0                     jmp        [A0]
label00003E36:
00003E36  303C EA52                move.w     D0, 0xEA52
00003E3A  60EE                     bra        -0x10 /* 00003E2A */
00003E3C  7665                     moveq.l    D3, 0x65
00003E3E  7273                     moveq.l    D1, 0x73
00003E40  0000 0060                ori.b      D0, 0x60 /* '`' */
00003E44  6D61                     blt        +0x63 /* 00003EA7 */
00003E46  6368                     bls        +0x6A /* 00003EB0 */
00003E48  0000 0064                ori.b      D0, 0x64 /* 'd' */
00003E4C  7379                     moveq.l    D1, 0x79
00003E4E  7376                     moveq.l    D1, 0x76
00003E50  0000 0088                ori.b      D0, 0x88
00003E54  7072                     moveq.l    D0, 0x72
00003E56  6F63                     ble        +0x65 /* 00003EBB */
00003E58  0000 0092                ori.b      D0, 0x92
00003E5C  6670                     bne        +0x72 /* 00003ECE */
00003E5E  7520                     moveq.l    D2, 0x20
00003E60  0000 009E                ori.b      D0, 0x9E
00003E64  7164                     moveq.l    D0, 0x64
00003E66  2020                     move.l     D0, -[A0]
00003E68  0000 00E8                ori.b      D0, 0xE8
00003E6C  6B62                     bmi        +0x64 /* 00003ED0 */
00003E6E  6420                     bcc        +0x22 /* 00003E90 */
00003E70  0000 011A                ori.b      D0, 0x1A
00003E74  6174                     bsr        +0x76 /* 00003EEA */
00003E76  6C6B                     bge        +0x6D /* 00003EE3 */
00003E78  0000 0142                ori.b      D0, 0x42 /* 'B' */
00003E7C  6D6D                     blt        +0x6F /* 00003EEB */
00003E7E  7520                     moveq.l    D2, 0x20
00003E80  0000 0164                ori.b      D0, 0x64 /* 'd' */
00003E84  7261                     moveq.l    D1, 0x61
00003E86  6D20                     blt        +0x22 /* 00003EA8 */
00003E88  0000 0188                ori.b      D0, 0x88
00003E8C  6C72                     bge        +0x74 /* 00003F00 */
00003E8E  616D                     bsr        +0x6F /* 00003EFD */
label00003E90:
00003E90  0000 0188                ori.b      D0, 0x88
00003E94  0000 0000                ori.b      D0, 0x0
00003E98  0000 0000                ori.b      D0, 0x0
00003E9C  7001                     moveq.l    D0, 0x01
00003E9E  6082                     bra        -0x7C /* 00003E22 */
00003EA0  2278 02AE                movea.l    A1, [0x000002AE /* ROMBase */]
00003EA4  7004                     moveq.l    D0, 0x04
00003EA6  0C69 0075 0008           cmpi.w     [A1 + 0x8], 0x75 /* 'u' */
// begin alternate branch 00003EA8-00003EB0
label00003EA8:
00003EA8  0075 0008 6712 0C69      ori.w      [[A5 + D6 * 8] + 0xC69], 0x8
// end alternate branch 00003EA8-00003EB0
label00003EA8: // (misaligned)
00003EAC  6712                     beq        +0x14 /* 00003EC0 */
00003EAE  0C69 0276 0008           cmpi.w     [A1 + 0x8], 0x276
// begin alternate branch 00003EB0-00003EB6
label00003EB0:
00003EB0  0276 0008 6604           andi.w     [A6 + D6.w * 8 + 0x4], 0x8
// end alternate branch 00003EB0-00003EB6
label00003EB0: // (misaligned)
00003EB4  6604                     bne        +0x6 /* 00003EBA */
00003EB6  5240                     addq.w     D0, 1
00003EB8  6006                     bra        +0x8 /* 00003EC0 */
label00003EBA:
00003EBA  1038 0CB3                move.b     D0, [0x00000CB3 /* MMUFluff/MachineType */]
00003EBE  5C80                     addq.l     D0, 6
label00003EC0:
00003EC0  6000 FF60                bra        -0x9E /* 00003E22 */
00003EC4  7000                     moveq.l    D0, 0x00
00003EC6  3038 015A                move.w     D0, [0x0000015A /* SysVersion */]
00003ECA  6000 FF56                bra        -0xA8 /* 00003E22 */
label00003ECE:
00003ECE  7000                     moveq.l    D0, 0x00
label00003ED0:
00003ED0  1038 012F                move.b     D0, [0x0000012F /* CPUFlag */]
00003ED4  5240                     addq.w     D0, 1
00003ED6  6000 FF4A                bra        -0xB4 /* 00003E22 */
00003EDA  0C38 0004 012F           cmpi.b     [0x0000012F /* CPUFlag */], 0x4
00003EE0  6738                     beq        +0x3A /* 00003F1A */
00003EE2  0838 0004 0B22           btst.b     [0x00000B22 /* HWCfgFlags */], 0x4
00003EE8  6734                     beq        +0x36 /* 00003F1E */
fn00003EEA:
00003EEA  204F                     movea.l    A0, A7
00003EEC  F280 0000                fnop
00003EF0  F327                     .extension 0x327 <<F/4-5/1>> // unimplemented
00003EF2  3017                     move.w     D0, [A7]
00003EF4  2E48                     movea.l    A7, A0
00003EF6  0C40 1F18                cmpi.w     D0, 0x1F18
00003EFA  6716                     beq        +0x18 /* 00003F12 */
00003EFC  0C40 3F18                cmpi.w     D0, 0x3F18
label00003F00:
00003F00  6710                     beq        +0x12 /* 00003F12 */
00003F02  0C40 3F38                cmpi.w     D0, 0x3F38 /* '?8' */
00003F06  670E                     beq        +0x10 /* 00003F16 */
00003F08  0C40 1F38                cmpi.w     D0, 0x1F38
00003F0C  6708                     beq        +0xA /* 00003F16 */
00003F0E  7000                     moveq.l    D0, 0x00
00003F10  600E                     bra        +0x10 /* 00003F20 */
label00003F12:
00003F12  7001                     moveq.l    D0, 0x01
00003F14  600A                     bra        +0xC /* 00003F20 */
label00003F16:
00003F16  7002                     moveq.l    D0, 0x02
00003F18  6006                     bra        +0x8 /* 00003F20 */
label00003F1A:
00003F1A  7003                     moveq.l    D0, 0x03
00003F1C  6002                     bra        +0x4 /* 00003F20 */
label00003F1E:
00003F1E  7000                     moveq.l    D0, 0x00
label00003F20:
00003F20  6000 FF00                bra        -0xFE /* 00003E22 */
00003F24  0C78 3FFF 028E           cmpi.w     [0x0000028E /* ROM85 */], 0x3FFF
00003F2A  6E1C                     bgt        +0x1E /* 00003F48 */
00003F2C  303C A89F                move.w     D0, 0xA89F
00003F30  A746                     syscall    GetToolBoxTrapAddress/GetToolTrapAddress, flags=7
00003F32  2408                     move.l     D2, A0
00003F34  203C 0000 AB03           move.l     D0, 0xAB03
00003F3A  A746                     syscall    GetToolBoxTrapAddress/GetToolTrapAddress, flags=7
00003F3C  203C 0000 0100           move.l     D0, 0x100
00003F42  B488                     cmp.l      D2, A0
00003F44  6606                     bne        +0x8 /* 00003F4C */
00003F46  600A                     bra        +0xC /* 00003F52 */
label00003F48:
00003F48  7000                     moveq.l    D0, 0x00
00003F4A  6006                     bra        +0x8 /* 00003F52 */
label00003F4C:
00003F4C  203C 0000 0200           move.l     D0, 0x200
label00003F52:
00003F52  6000 FECE                bra        -0x130 /* 00003E22 */
00003F56  1038 021E                move.b     D0, [0x0000021E /* KbdType */]
00003F5A  41FA 0016                lea.l      A0, [PC + 0x16 /* 00003F72, value 0x3130B02 */]
00003F5E  2248                     movea.l    A1, A0
label00003F60:
00003F60  1218                     move.b     D1, [A0]+
00003F62  6700 FED2                beq        -0x12C /* 00003E36 */
00003F66  B200                     cmp.b      D1, D0
00003F68  66F6                     bne        -0x8 /* 00003F60 */
00003F6A  91C9                     sub.l      A0, A1
00003F6C  2008                     move.l     D0, A0
00003F6E  6000 FEB2                bra        -0x14C /* 00003E22 */
00003F72  0313                     btst       [A3], D1
00003F74  0B02                     btst       D2, D5
00003F76  0106                     btst       D6, D0
00003F78  0704                     btst       D4, D3
00003F7A  0508                     btst       A0, D2
00003F7C  0900                     btst       D0, D4
00003F7E  7000                     moveq.l    D0, 0x00
00003F80  4A38 0291                tst.b      [0x00000291 /* PortBUse */]
00003F84  6B16                     bmi        +0x18 /* 00003F9C */
00003F86  1238 01FB                move.b     D1, [0x000001FB /* SPConfig */]
00003F8A  0201 000F                andi.b     D1, 0xF
00003F8E  0C01 0001                cmpi.b     D1, 0x1
00003F92  6608                     bne        +0xA /* 00003F9C */
00003F94  2078 02DC                movea.l    A0, [0x000002DC /* ABusDCE */]
00003F98  1028 0007                move.b     D0, [A0 + 0x7]
label00003F9C:
00003F9C  6000 FE84                bra        -0x17A /* 00003E22 */
00003FA0  0C38 0002 012F           cmpi.b     [0x0000012F /* CPUFlag */], 0x2
00003FA6  6D16                     blt        +0x18 /* 00003FBE */
00003FA8  7000                     moveq.l    D0, 0x00
00003FAA  1038 0CB1                move.b     D0, [0x00000CB1 /* MMUType */]
00003FAE  0C00 0001                cmpi.b     D0, 0x1
00003FB2  670C                     beq        +0xE /* 00003FC0 */
00003FB4  0C00 0003                cmpi.b     D0, 0x3
00003FB8  6D04                     blt        +0x6 /* 00003FBE */
00003FBA  5340                     subq.w     D0, 1
00003FBC  6002                     bra        +0x4 /* 00003FC0 */
label00003FBE:
00003FBE  7000                     moveq.l    D0, 0x00
label00003FC0:
00003FC0  6000 FE60                bra        -0x19E /* 00003E22 */
00003FC4  303C A89F                move.w     D0, 0xA89F
00003FC8  A746                     syscall    GetToolBoxTrapAddress/GetToolTrapAddress, flags=7
00003FCA  2408                     move.l     D2, A0
00003FCC  203C 0000 A88F           move.l     D0, 0xA88F
00003FD2  A746                     syscall    GetToolBoxTrapAddress/GetToolTrapAddress, flags=7
00003FD4  2038 0108                move.l     D0, [0x00000108 /* MemTop */]
00003FD8  B488                     cmp.l      D2, A0
00003FDA  670A                     beq        +0xC /* 00003FE6 */
00003FDC  598F                     subq.l     A7, 4
00003FDE  3F3C 0016                move.w     -[A7], 0x16
00003FE2  A88F                     syscall    OSDispatch
00003FE4  201F                     move.l     D0, [A7]+
label00003FE6:
00003FE6  6000 FE3A                bra        -0x1C4 /* 00003E22 */
00003FEA  7402                     moveq.l    D2, 0x02
label00003FEC:
00003FEC  205F                     movea.l    A0, [A7]+
00003FEE  3F02                     move.w     -[A7], D2
00003FF0  2F08                     move.l     -[A7], A0
00003FF2  ADE9                     syscall    Pack2, auto_pop
fn00003FF4:
00003FF4  7400                     moveq.l    D2, 0x00
00003FF6  4EFA FFF4                jmp        [PC - 0xC /* 00003FEC */]
export_58:
00003FFA  343C 000A                move.w     D2, 0xA /* '\n' */
00003FFE  4EFA FFEC                jmp        [PC - 0x14 /* 00003FEC */]
export_59:
00004002  206F 0008                movea.l    A0, [A7 + 0x8]
00004006  3F3C 0001                move.w     -[A7], 0x1
0000400A  A9EE                     syscall    Pack7/DecStr68K
0000400C  206F 0004                movea.l    A0, [A7 + 0x4]
00004010  2080                     move.l     [A0], D0
00004012  4EFA 000E                jmp        [PC + 0xE /* 00004022 */]
export_60:
fn00004016:
00004016  206F 0004                movea.l    A0, [A7 + 0x4]
0000401A  202F 0008                move.l     D0, [A7 + 0x8]
0000401E  4267                     clr.w      -[A7]
00004020  A9EE                     syscall    Pack7/DecStr68K
label00004022:
00004022  205F                     movea.l    A0, [A7]+
00004024  504F                     addq.w     A7, 8
00004026  4ED0                     jmp        [A0]
export_61:
00004028  225F                     movea.l    A1, [A7]+
0000402A  201F                     move.l     D0, [A7]+
0000402C  0838 0006 028E           btst.b     [0x0000028E /* ROM85 */], 0x6
00004032  6606                     bne        +0x8 /* 0000403A */
00004034  A055                     syscall    StripAddress
00004036  2E80                     move.l     [A7], D0
00004038  4ED1                     jmp        [A1]
label0000403A:
0000403A  C0B8 031A                and.l      D0, [0x0000031A /* MaskBC/MaskHandle/MaskPtr/Lo3Bytes */]
0000403E  2E80                     move.l     [A7], D0
00004040  4ED1                     jmp        [A1]
export_62:
00004042  91C8                     sub.l      A0, A0
00004044  A07F                     syscall    InternalWait
00004046  225F                     movea.l    A1, [A7]+
00004048  205F                     movea.l    A0, [A7]+
0000404A  3080                     move.w     [A0], D0
0000404C  4ED1                     jmp        [A1]
export_63:
0000404E  225F                     movea.l    A1, [A7]+
00004050  301F                     move.w     D0, [A7]+
00004052  307C 0001                movea.w    A0, 0x1
00004056  A07F                     syscall    InternalWait
00004058  4ED1                     jmp        [A1]
export_64:
fn0000405A:
0000405A  202F 0004                move.l     D0, [A7 + 0x4]
0000405E  2F40 0008                move.l     [A7 + 0x8], D0
00004062  6726                     beq        +0x28 /* 0000408A */
00004064  2040                     movea.l    A0, D0
00004066  2248                     movea.l    A1, A0
00004068  1019                     move.b     D0, [A1]+
0000406A  671E                     beq        +0x20 /* 0000408A */
label0000406C:
0000406C  1211                     move.b     D1, [A1]
0000406E  12C0                     move.b     [A1]+, D0
00004070  1001                     move.b     D0, D1
00004072  66F8                     bne        -0x6 /* 0000406C */
00004074  93C8                     sub.l      A1, A0
00004076  2009                     move.l     D0, A1
00004078  5340                     subq.w     D0, 1
0000407A  0C80 0000 00FF           cmpi.l     D0, 0xFF
00004080  6F06                     ble        +0x8 /* 00004088 */
00004082  203C 0000 00FF           move.l     D0, 0xFF
label00004088:
00004088  1080                     move.b     [A0], D0
label0000408A:
0000408A  225F                     movea.l    A1, [A7]+
0000408C  584F                     addq.w     A7, 4
0000408E  4ED1                     jmp        [A1]
export_65:
fn00004090:
00004090  225F                     movea.l    A1, [A7]+
00004092  201F                     move.l     D0, [A7]+
00004094  2E80                     move.l     [A7], D0
00004096  6712                     beq        +0x14 /* 000040AA */
00004098  2040                     movea.l    A0, D0
0000409A  7000                     moveq.l    D0, 0x00
0000409C  1010                     move.b     D0, [A0]
0000409E  6004                     bra        +0x6 /* 000040A4 */
label000040A0:
000040A0  10E8 0001                move.b     [A0]+, [A0 + 0x1]
label000040A4:
000040A4  51C8 FFFA                dbf        D0, -0x8 /* 000040A0 */
000040A8  4210                     clr.b      [A0]
label000040AA:
000040AA  4ED1                     jmp        [A1]
export_66:
000040AC  2F02                     move.l     -[A7], D2
000040AE  2F2F 0008                move.l     -[A7], [A7 + 0x8]
000040B2  4EBA 0068                jsr        [PC + 0x68 /* 0000411C */]
000040B6  A884                     syscall    DrawString
000040B8  2F2F 0008                move.l     -[A7], [A7 + 0x8]
000040BC  4EBA 003A                jsr        [PC + 0x3A /* 000040F8 */]
000040C0  584F                     addq.w     A7, 4
000040C2  241F                     move.l     D2, [A7]+
000040C4  4E75                     rts
label000040C6:
000040C6  221F                     move.l     D1, [A7]+
000040C8  225F                     movea.l    A1, [A7]+
000040CA  205F                     movea.l    A0, [A7]+
000040CC  A05C                     syscall    MemoryDispatch/MemoryDispatchA0Result
000040CE  3E80                     move.w     [A7], D0
000040D0  2241                     movea.l    A1, D1
000040D2  4ED1                     jmp        [A1]
export_67:
000040D4  7002                     moveq.l    D0, 0x02
000040D6  6000 FFEE                bra        -0x10 /* 000040C6 */
fn000040DA:
000040DA  7003                     moveq.l    D0, 0x03
000040DC  6000 FFE8                bra        -0x16 /* 000040C6 */
export_68:
000040E0  221F                     move.l     D1, [A7]+
000040E2  241F                     move.l     D2, [A7]+
000040E4  2242                     movea.l    A1, D2
000040E6  2251                     movea.l    A1, [A1]
000040E8  205F                     movea.l    A0, [A7]+
000040EA  7005                     moveq.l    D0, 0x05
000040EC  A15C                     syscall    MemoryDispatch/MemoryDispatchA0Result, flags=1
000040EE  3E80                     move.w     [A7], D0
000040F0  2242                     movea.l    A1, D2
000040F2  2288                     move.l     [A1], A0
000040F4  2241                     movea.l    A1, D1
000040F6  4ED1                     jmp        [A1]
fn000040F8:
000040F8  202F 0004                move.l     D0, [A7 + 0x4]
000040FC  6712                     beq        +0x14 /* 00004110 */
000040FE  2040                     movea.l    A0, D0
00004100  4241                     clr.w      D1
00004102  1210                     move.b     D1, [A0]
00004104  6004                     bra        +0x6 /* 0000410A */
label00004106:
00004106  10E8 0001                move.b     [A0]+, [A0 + 0x1]
label0000410A:
0000410A  51C9 FFFA                dbf        D1, -0x8 /* 00004106 */
0000410E  4210                     clr.b      [A0]
label00004110:
00004110  4E75                     rts
00004112  8670 3263 7374 7200 0000 dc.b       "p2cstr"
fn0000411C:
0000411C  202F 0004                move.l     D0, [A7 + 0x4]
00004120  671C                     beq        +0x1E /* 0000413E */
00004122  2040                     movea.l    A0, D0
00004124  2240                     movea.l    A1, D0
00004126  343C 00FF                move.w     D2, 0xFF
label0000412A:
0000412A  1210                     move.b     D1, [A0]
0000412C  10C0                     move.b     [A0]+, D0
0000412E  1001                     move.b     D0, D1
00004130  57CA FFF8                dbeq       D2, -0xA /* 0000412A */
00004134  2208                     move.l     D1, A0
00004136  2009                     move.l     D0, A1
00004138  9280                     sub.l      D1, D0
0000413A  5301                     subq.b     D1, 1
0000413C  1281                     move.b     [A1], D1
label0000413E:
0000413E  4E75                     rts
00004140  8663 3270 7374 7200 0000 dc.b       "c2pstr"
export_69:
0000414A  2F00                     move.l     -[A7], D0
0000414C  2F01                     move.l     -[A7], D1
0000414E  302F 0010                move.w     D0, [A7 + 0x10]
00004152  C1EF 000E                muls.w     D0, [A7 + 0xE]
00004156  322F 000C                move.w     D1, [A7 + 0xC]
0000415A  C3EF 0012                muls.w     D1, [A7 + 0x12]
0000415E  D041                     add.w      D0, D1
00004160  4840                     swap.w     D0
00004162  4240                     clr.w      D0
00004164  322F 0012                move.w     D1, [A7 + 0x12]
00004168  C2EF 000E                mulu.w     D1, [A7 + 0xE]
0000416C  D081                     add.l      D0, D1
0000416E  2F40 0010                move.l     [A7 + 0x10], D0
00004172  221F                     move.l     D1, [A7]+
00004174  201F                     move.l     D0, [A7]+
00004176  2F57 0004                move.l     [A7 + 0x4], [A7]
0000417A  588F                     addq.l     A7, 4
0000417C  4E75                     rts
export_70:
0000417E  4E56 0000                link       A6, 0
00004182  2F00                     move.l     -[A7], D0
00004184  2F01                     move.l     -[A7], D1
00004186  202F 0014                move.l     D0, [A7 + 0x14]
0000418A  222F 0010                move.l     D1, [A7 + 0x10]
0000418E  4EBA 0014                jsr        [PC + 0x14 /* 000041A4 */]
00004192  2F41 0014                move.l     [A7 + 0x14], D1
00004196  221F                     move.l     D1, [A7]+
00004198  201F                     move.l     D0, [A7]+
0000419A  4E5E                     unlink     A6
0000419C  2F57 0004                move.l     [A7 + 0x4], [A7]
000041A0  588F                     addq.l     A7, 4
000041A2  4E75                     rts
fn000041A4:
000041A4  48E7 3E00                movem.l    -[A7], D2,D3,D4,D5,D6
000041A8  2A00                     move.l     D5, D0
000041AA  6A02                     bpl        +0x4 /* 000041AE */
000041AC  4480                     neg.l      D0
label000041AE:
000041AE  2C01                     move.l     D6, D1
000041B0  6A02                     bpl        +0x4 /* 000041B4 */
000041B2  4481                     neg.l      D1
label000041B4:
000041B4  2401                     move.l     D2, D1
000041B6  4842                     swap.w     D2
000041B8  4A42                     tst.w      D2
000041BA  661C                     bne        +0x1E /* 000041D8 */
000041BC  3600                     move.w     D3, D0
000041BE  4240                     clr.w      D0
000041C0  4840                     swap.w     D0
000041C2  6704                     beq        +0x6 /* 000041C8 */
000041C4  80C1                     divu.w     D0, D1
000041C6  3400                     move.w     D2, D0
label000041C8:
000041C8  4842                     swap.w     D2
000041CA  3003                     move.w     D0, D3
000041CC  80C1                     divu.w     D0, D1
000041CE  3400                     move.w     D2, D0
000041D0  2202                     move.l     D1, D2
000041D2  4240                     clr.w      D0
000041D4  4840                     swap.w     D0
000041D6  601C                     bra        +0x1E /* 000041F4 */
label000041D8:
000041D8  2400                     move.l     D2, D0
000041DA  2601                     move.l     D3, D1
000041DC  7000                     moveq.l    D0, 0x00
000041DE  7200                     moveq.l    D1, 0x00
000041E0  781F                     moveq.l    D4, 0x1F
label000041E2:
000041E2  D482                     add.l      D2, D2
000041E4  D180                     addx.l     D0, D0
000041E6  D281                     add.l      D1, D1
000041E8  B083                     cmp.l      D0, D3
000041EA  6D04                     blt        +0x6 /* 000041F0 */
000041EC  9083                     sub.l      D0, D3
000041EE  5201                     addq.b     D1, 1
label000041F0:
000041F0  51CC FFF0                dbf        D4, -0x12 /* 000041E2 */
label000041F4:
000041F4  4A85                     tst.l      D5
000041F6  6A02                     bpl        +0x4 /* 000041FA */
000041F8  4480                     neg.l      D0
label000041FA:
000041FA  BB86                     xor.l      D6, D5
000041FC  6A02                     bpl        +0x4 /* 00004200 */
000041FE  4481                     neg.l      D1
label00004200:
00004200  4CDF 007C                movem.l    D2,D3,D4,D5,D6, [A7]+
00004204  4E75                     rts
fn00004206:
00004206  4E56 FFFC                link       A6, -0x0004
0000420A  48E7 0318                movem.l    -[A7], D6,D7,A3,A4
0000420E  4A6D A388                tst.w      [A5 - 0x5C78]
00004212  6600 00BC                bne        +0xBE /* 000042D0 */
00004216  598F                     subq.l     A7, 4
00004218  2F3C 434F 4445           move.l     -[A7], 0x434F4445 /* 'CODE' */
0000421E  486D A332                pea.l      [A5 - 0x5CCE]
00004222  A820                     syscall    Get1NamedResource
00004224  285F                     movea.l    A4, [A7]+
00004226  200C                     move.l     D0, A4
00004228  6700 00A6                beq        +0xA8 /* 000042D0 */
0000422C  558F                     subq.l     A7, 2
0000422E  A994                     syscall    CurResFile
00004230  558F                     subq.l     A7, 2
00004232  2F0C                     move.l     -[A7], A4
00004234  A9A4                     syscall    HomeResFile
00004236  301F                     move.w     D0, [A7]+
00004238  B05F                     cmp.w      D0, [A7]+
0000423A  6600 0094                bne        +0x96 /* 000042D0 */
0000423E  41ED 025A                lea.l      A0, [A5 + 0x25A /* export_71, CODE:1 @ 000042E8 */]
00004242  226D A3A4                movea.l    A1, [A5 - 0x5C5C]
00004246  2348 000C                move.l     [A1 + 0xC], A0
0000424A  2654                     movea.l    A3, [A4]
0000424C  3013                     move.w     D0, [A3]
0000424E  0800 0000                btst.b     D0, 0x0
00004252  6708                     beq        +0xA /* 0000425C */
00004254  3B7C 0028 A386           move.w     [A5 - 0x5C7A], 0x28 /* '(' */
0000425A  6006                     bra        +0x8 /* 00004262 */
label0000425C:
0000425C  3B7C 0004 A386           move.w     [A5 - 0x5C7A], 0x4
label00004262:
00004262  598F                     subq.l     A7, 4
00004264  2F0C                     move.l     -[A7], A4
00004266  4EBA F7CC                jsr        [PC - 0x834 /* 00003A34 */]
0000426A  302D A386                move.w     D0, [A5 - 0x5C7A]
0000426E  48C0                     ext.l      D0
00004270  221F                     move.l     D1, [A7]+
00004272  9280                     sub.l      D1, D0
00004274  2001                     move.l     D0, D1
00004276  7204                     moveq.l    D1, 0x04
00004278  4EBA 039E                jsr        [PC + 0x39E /* 00004618 */]
0000427C  2C00                     move.l     D6, D0
0000427E  7000                     moveq.l    D0, 0x00
00004280  2640                     movea.l    A3, D0
00004282  6036                     bra        +0x38 /* 000042BA */
label00004284:
00004284  2F0C                     move.l     -[A7], A4
00004286  A9A2                     syscall    LoadResource
00004288  302D A386                move.w     D0, [A5 - 0x5C7A]
0000428C  48C0                     ext.l      D0
0000428E  D094                     add.l      D0, [A4]
00004290  2D40 FFFC                move.l     [A6 - 0x4], D0
00004294  302D A388                move.w     D0, [A5 - 0x5C78]
00004298  48C0                     ext.l      D0
0000429A  206E FFFC                movea.l    A0, [A6 - 0x4]
0000429E  E580                     asl        D0, 2
000042A0  3030 0800                move.w     D0, [A0 + D0]
000042A4  48C0                     ext.l      D0
000042A6  2E00                     move.l     D7, D0
000042A8  6708                     beq        +0xA /* 000042B2 */
000042AA  200D                     move.l     D0, A5
000042AC  2640                     movea.l    A3, D0
000042AE  D7C7                     add.l      A3, D7
000042B0  4E93                     jsr        [A3]
label000042B2:
000042B2  302D A388                move.w     D0, [A5 - 0x5C78]
000042B6  526D A388                addq.w     [A5 - 0x5C78], 1
label000042BA:
000042BA  302D A388                move.w     D0, [A5 - 0x5C78]
000042BE  48C0                     ext.l      D0
000042C0  BC80                     cmp.l      D6, D0
000042C2  6EC0                     bgt        -0x3E /* 00004284 */
000042C4  200B                     move.l     D0, A3
000042C6  6704                     beq        +0x6 /* 000042CC */
000042C8  2F0B                     move.l     -[A7], A3
000042CA  A9F1                     syscall    UnloadSeg
label000042CC:
000042CC  2F0C                     move.l     -[A7], A4
000042CE  A9A3                     syscall    ReleaseResource
label000042D0:
000042D0  4CEE 18C0 FFEC           movem.l    D6,D7,A3,A4, [A6 - 0x14]
000042D6  4E5E                     unlink     A6
000042D8  4E75                     rts
000042DA  8B5F 5F43 706C 7573 4... dc.b       "__CplusInit"
export_71:
000042E8  4E56 FFFC                link       A6, -0x0004
000042EC  48E7 0118                movem.l    -[A7], D7,A3,A4
000042F0  4A6D A388                tst.w      [A5 - 0x5C78]
000042F4  6764                     beq        +0x66 /* 0000435A */
000042F6  598F                     subq.l     A7, 4
000042F8  2F3C 434F 4445           move.l     -[A7], 0x434F4445 /* 'CODE' */
000042FE  486D A35C                pea.l      [A5 - 0x5CA4]
00004302  A9A1                     syscall    GetNamedResource
00004304  285F                     movea.l    A4, [A7]+
00004306  200C                     move.l     D0, A4
00004308  6750                     beq        +0x52 /* 0000435A */
0000430A  558F                     subq.l     A7, 2
0000430C  A994                     syscall    CurResFile
0000430E  558F                     subq.l     A7, 2
00004310  2F0C                     move.l     -[A7], A4
00004312  A9A4                     syscall    HomeResFile
00004314  301F                     move.w     D0, [A7]+
00004316  B05F                     cmp.w      D0, [A7]+
00004318  6640                     bne        +0x42 /* 0000435A */
0000431A  6034                     bra        +0x36 /* 00004350 */
label0000431C:
0000431C  2F0C                     move.l     -[A7], A4
0000431E  A9A2                     syscall    LoadResource
00004320  302D A386                move.w     D0, [A5 - 0x5C7A]
00004324  48C0                     ext.l      D0
00004326  D094                     add.l      D0, [A4]
00004328  2D40 FFFC                move.l     [A6 - 0x4], D0
0000432C  536D A388                subq.w     [A5 - 0x5C78], 1
00004330  302D A388                move.w     D0, [A5 - 0x5C78]
00004334  48C0                     ext.l      D0
00004336  206E FFFC                movea.l    A0, [A6 - 0x4]
0000433A  E580                     asl        D0, 2
0000433C  3030 0802                move.w     D0, [A0 + D0 + 0x2]
00004340  48C0                     ext.l      D0
00004342  2E00                     move.l     D7, D0
00004344  200D                     move.l     D0, A5
00004346  2640                     movea.l    A3, D0
00004348  D7C7                     add.l      A3, D7
0000434A  4A87                     tst.l      D7
0000434C  6702                     beq        +0x4 /* 00004350 */
0000434E  4E93                     jsr        [A3]
label00004350:
00004350  4A6D A388                tst.w      [A5 - 0x5C78]
00004354  6EC6                     bgt        -0x38 /* 0000431C */
00004356  2F0C                     move.l     -[A7], A4
00004358  A9A3                     syscall    ReleaseResource
label0000435A:
0000435A  4CEE 1880 FFF0           movem.l    D7,A3,A4, [A6 - 0x10]
00004360  4E5E                     unlink     A6
00004362  4E75                     rts
00004364  8964 746F 7273 5F5F 4... dc.b       "dtors__Fv"
fn00004370:
00004370  4E56 0000                link       A6, 0
00004374  48E7 1338                movem.l    -[A7], D3,D6,D7,A2,A3,A4
00004378  2E2E 0018                move.l     D7, [A6 + 0x18]
0000437C  266E 000C                movea.l    A3, [A6 + 0xC]
00004380  4EAD 0712                jsr        [A5 + 0x712 /* export_222, CODE:14 @ 00000000 */]
00004384  4A80                     tst.l      D0
00004386  6706                     beq        +0x8 /* 0000438E */
00004388  70FF                     moveq.l    D0, 0xFFFFFFFF
0000438A  6000 01C8                bra        +0x1CA /* 00004554 */
label0000438E:
0000438E  206D A3A4                movea.l    A0, [A5 - 0x5C5C]
00004392  20AE 0008                move.l     [A0], [A6 + 0x8]
00004396  7601                     moveq.l    D3, 0x01
00004398  4AB8 0316                tst.l      [0x00000316 /* HpChk/MacPgm */]
0000439C  672C                     beq        +0x2E /* 000043CA */
0000439E  7001                     moveq.l    D0, 0x01
000043A0  C0B8 0316                and.l      D0, [0x00000316 /* HpChk/MacPgm */]
000043A4  6624                     bne        +0x26 /* 000043CA */
000043A6  2078 0316                movea.l    A0, [0x00000316 /* HpChk/MacPgm */]
000043AA  0C90 4D50 474D           cmpi.l     [A0], 0x4D50474D /* 'MPGM' */
000043B0  6618                     bne        +0x1A /* 000043CA */
000043B2  2078 0316                movea.l    A0, [0x00000316 /* HpChk/MacPgm */]
000043B6  4AA8 0004                tst.l      [A0 + 0x4]
000043BA  670E                     beq        +0x10 /* 000043CA */
000043BC  2078 0316                movea.l    A0, [0x00000316 /* HpChk/MacPgm */]
000043C0  2068 0004                movea.l    A0, [A0 + 0x4]
000043C4  4A50                     tst.w      [A0]
000043C6  6702                     beq        +0x4 /* 000043CA */
000043C8  7600                     moveq.l    D3, 0x00
label000043CA:
000043CA  4883                     ext.w      D3
000043CC  48C3                     ext.l      D3
000043CE  2B43 A38A                move.l     [A5 - 0x5C76], D3
000043D2  6760                     beq        +0x62 /* 00004434 */
000043D4  41ED A45E                lea.l      A0, [A5 - 0x5BA2]
000043D8  43F8 0910                lea.l      A1, [0x00000910 /* CurApName */]
000043DC  7007                     moveq.l    D0, 0x07
label000043DE:
000043DE  20D9                     move.l     [A0]+, [A1]+
000043E0  51C8 FFFC                dbf        D0, -0x6 /* 000043DE */
000043E4  30D9                     move.w     [A0]+, [A1]+
000043E6  41ED A45E                lea.l      A0, [A5 - 0x5BA2]
000043EA  226D A394                movea.l    A1, [A5 - 0x5C6C]
000043EE  2288                     move.l     [A1], A0
000043F0  4A87                     tst.l      D7
000043F2  660E                     bne        +0x10 /* 00004402 */
000043F4  598F                     subq.l     A7, 4
000043F6  206D A394                movea.l    A0, [A5 - 0x5C6C]
000043FA  2F10                     move.l     -[A7], [A0]
000043FC  4EBA FC92                jsr        [PC - 0x36E /* 00004090 */]
00004400  584F                     addq.w     A7, 4
label00004402:
00004402  200B                     move.l     D0, A3
00004404  6704                     beq        +0x6 /* 0000440A */
00004406  7001                     moveq.l    D0, 0x01
00004408  2680                     move.l     [A3], D0
label0000440A:
0000440A  4AAE 0010                tst.l      [A6 + 0x10]
0000440E  6708                     beq        +0xA /* 00004418 */
00004410  206E 0010                movea.l    A0, [A6 + 0x10]
00004414  20AD A394                move.l     [A0], [A5 - 0x5C6C]
label00004418:
00004418  4AAE 0014                tst.l      [A6 + 0x14]
0000441C  6708                     beq        +0xA /* 00004426 */
0000441E  206E 0014                movea.l    A0, [A6 + 0x14]
00004422  20AD A398                move.l     [A0], [A5 - 0x5C68]
label00004426:
00004426  4EBA FDDE                jsr        [PC - 0x222 /* 00004206 */]
0000442A  7001                     moveq.l    D0, 0x01
0000442C  2B40 A38A                move.l     [A5 - 0x5C76], D0
00004430  6000 0122                bra        +0x124 /* 00004554 */
label00004434:
00004434  2078 0316                movea.l    A0, [0x00000316 /* HpChk/MacPgm */]
00004438  2068 0004                movea.l    A0, [A0 + 0x4]
0000443C  302D A38E                move.w     D0, [A5 - 0x5C72]
00004440  B050                     cmp.w      D0, [A0]
00004442  670C                     beq        +0xE /* 00004450 */
00004444  2F3C 8000 0000           move.l     -[A7], 0x80000000
0000444A  4EBA 013C                jsr        [PC + 0x13C /* 00004588 */]
0000444E  584F                     addq.w     A7, 4
label00004450:
00004450  41ED A38E                lea.l      A0, [A5 - 0x5C72]
00004454  2278 0316                movea.l    A1, [0x00000316 /* HpChk/MacPgm */]
00004458  2269 0004                movea.l    A1, [A1 + 0x4]
0000445C  2348 0024                move.l     [A1 + 0x24], A0
00004460  2078 0316                movea.l    A0, [0x00000316 /* HpChk/MacPgm */]
00004464  2B68 0004 A3B2           move.l     [A5 - 0x5C4E], [A0 + 0x4]
0000446A  2078 0316                movea.l    A0, [0x00000316 /* HpChk/MacPgm */]
0000446E  2068 0004                movea.l    A0, [A0 + 0x4]
00004472  2B68 0002 A390           move.l     [A5 - 0x5C70], [A0 + 0x2]
00004478  2078 0316                movea.l    A0, [0x00000316 /* HpChk/MacPgm */]
0000447C  2068 0004                movea.l    A0, [A0 + 0x4]
00004480  2B68 0006 A394           move.l     [A5 - 0x5C6C], [A0 + 0x6]
00004486  2078 0316                movea.l    A0, [0x00000316 /* HpChk/MacPgm */]
0000448A  2068 0004                movea.l    A0, [A0 + 0x4]
0000448E  2B68 000A A398           move.l     [A5 - 0x5C68], [A0 + 0xA]
00004494  4A87                     tst.l      D7
00004496  672C                     beq        +0x2E /* 000044C4 */
00004498  286D A394                movea.l    A4, [A5 - 0x5C6C]
0000449C  600C                     bra        +0xE /* 000044AA */
label0000449E:
0000449E  598F                     subq.l     A7, 4
000044A0  2F14                     move.l     -[A7], [A4]
000044A2  4EBA FBB6                jsr        [PC - 0x44A /* 0000405A */]
000044A6  584F                     addq.w     A7, 4
000044A8  584C                     addq.w     A4, 4
label000044AA:
000044AA  4A94                     tst.l      [A4]
000044AC  66F0                     bne        -0xE /* 0000449E */
000044AE  286D A398                movea.l    A4, [A5 - 0x5C68]
000044B2  600C                     bra        +0xE /* 000044C0 */
label000044B4:
000044B4  598F                     subq.l     A7, 4
000044B6  2F14                     move.l     -[A7], [A4]
000044B8  4EBA FBA0                jsr        [PC - 0x460 /* 0000405A */]
000044BC  584F                     addq.w     A7, 4
000044BE  584C                     addq.w     A4, 4
label000044C0:
000044C0  4A94                     tst.l      [A4]
000044C2  66F0                     bne        -0xE /* 000044B4 */
label000044C4:
000044C4  200B                     move.l     D0, A3
000044C6  6704                     beq        +0x6 /* 000044CC */
000044C8  26AD A390                move.l     [A3], [A5 - 0x5C70]
label000044CC:
000044CC  4AAE 0010                tst.l      [A6 + 0x10]
000044D0  6708                     beq        +0xA /* 000044DA */
000044D2  206E 0010                movea.l    A0, [A6 + 0x10]
000044D6  20AD A394                move.l     [A0], [A5 - 0x5C6C]
label000044DA:
000044DA  4AAE 0014                tst.l      [A6 + 0x14]
000044DE  6708                     beq        +0xA /* 000044E8 */
000044E0  206E 0014                movea.l    A0, [A6 + 0x14]
000044E4  20AD A398                move.l     [A0], [A5 - 0x5C68]
label000044E8:
000044E8  2078 0316                movea.l    A0, [0x00000316 /* HpChk/MacPgm */]
000044EC  2068 0004                movea.l    A0, [A0 + 0x4]
000044F0  4AA8 0020                tst.l      [A0 + 0x20]
000044F4  6754                     beq        +0x56 /* 0000454A */
000044F6  7078                     moveq.l    D0, 0x78
000044F8  A11E                     syscall    NewPtr, flags=1
000044FA  2B48 A3AE                move.l     [A5 - 0x5C52], A0
000044FE  660A                     bne        +0xC /* 0000450A */
00004500  7002                     moveq.l    D0, 0x02
00004502  2F00                     move.l     -[A7], D0
00004504  4EBA 0082                jsr        [PC + 0x82 /* 00004588 */]
00004508  584F                     addq.w     A7, 4
label0000450A:
0000450A  2078 0316                movea.l    A0, [0x00000316 /* HpChk/MacPgm */]
0000450E  2068 0004                movea.l    A0, [A0 + 0x4]
00004512  2668 0020                movea.l    A3, [A0 + 0x20]
00004516  7E00                     moveq.l    D7, 0x00
00004518  7605                     moveq.l    D3, 0x05
label0000451A:
0000451A  2207                     move.l     D1, D7
0000451C  2001                     move.l     D0, D1
0000451E  C2FC 0018                mulu.w     D1, 0x18
00004522  4840                     swap.w     D0
00004524  C0FC 0018                mulu.w     D0, 0x18
00004528  4840                     swap.w     D0
0000452A  4240                     clr.w      D0
0000452C  D280                     add.l      D1, D0
0000452E  2C01                     move.l     D6, D1
00004530  206D A3AE                movea.l    A0, [A5 - 0x5C52]
00004534  43F3 6800                lea.l      A1, [A3 + D6]
00004538  45F0 6800                lea.l      A2, [A0 + D6]
0000453C  7005                     moveq.l    D0, 0x05
label0000453E:
0000453E  24D9                     move.l     [A2]+, [A1]+
00004540  51C8 FFFC                dbf        D0, -0x6 /* 0000453E */
00004544  5287                     addq.l     D7, 1
00004546  B687                     cmp.l      D3, D7
00004548  6ED0                     bgt        -0x2E /* 0000451A */
label0000454A:
0000454A  4EBA FCBA                jsr        [PC - 0x346 /* 00004206 */]
0000454E  7000                     moveq.l    D0, 0x00
00004550  2B40 A38A                move.l     [A5 - 0x5C76], D0
label00004554:
00004554  4CEE 1CC8 FFE8           movem.l    D3,D6,D7,A2,A3,A4, [A6 - 0x18]
0000455A  4E5E                     unlink     A6
0000455C  4E75                     rts
0000455E  875F 5254 496E 6974 0000 dc.b       "_RTInit"
fn00004568:
00004568  4E56 0000                link       A6, 0
0000456C  203C 00FF FFFF           move.l     D0, 0xFFFFFF
00004572  C0AE 0008                and.l      D0, [A6 + 0x8]
00004576  2F00                     move.l     -[A7], D0
00004578  4EBA 000E                jsr        [PC + 0xE /* 00004588 */]
0000457C  4E5E                     unlink     A6
0000457E  4E75                     rts
00004580  8465 7869 7400 0000      dc.b       "exit"
fn00004588:
00004588  4E56 0000                link       A6, 0
0000458C  2F0C                     move.l     -[A7], A4
0000458E  206D A3A4                movea.l    A0, [A5 - 0x5C5C]
00004592  49E8 008C                lea.l      A4, [A0 + 0x8C]
00004596  600A                     bra        +0xC /* 000045A2 */
label00004598:
00004598  4A94                     tst.l      [A4]
0000459A  6704                     beq        +0x6 /* 000045A0 */
0000459C  2054                     movea.l    A0, [A4]
0000459E  4E90                     jsr        [A0]
label000045A0:
000045A0  594C                     subq.w     A4, 4
label000045A2:
000045A2  206D A3A4                movea.l    A0, [A5 - 0x5C5C]
000045A6  B1CC                     cmpa.l     A0, A4
000045A8  65EE                     bcs        -0x10 /* 00004598 */
000045AA  4AAD A3B2                tst.l      [A5 - 0x5C4E]
000045AE  670A                     beq        +0xC /* 000045BA */
000045B0  206D A3B2                movea.l    A0, [A5 - 0x5C4E]
000045B4  216E 0008 000E           move.l     [A0 + 0xE], [A6 + 0x8]
label000045BA:
000045BA  4AAD A498                tst.l      [A5 - 0x5B68]
000045BE  660A                     bne        +0xC /* 000045CA */
000045C0  206D A3A4                movea.l    A0, [A5 - 0x5C5C]
000045C4  2250                     movea.l    A1, [A0]
000045C6  4E91                     jsr        [A1]
000045C8  600E                     bra        +0x10 /* 000045D8 */
label000045CA:
000045CA  7001                     moveq.l    D0, 0x01
000045CC  2F00                     move.l     -[A7], D0
000045CE  486D A480                pea.l      [A5 - 0x5B80]
000045D2  4EBA 0158                jsr        [PC + 0x158 /* 0000472C */]
000045D6  504F                     addq.w     A7, 8
label000045D8:
000045D8  286E FFFC                movea.l    A4, [A6 - 0x4]
000045DC  4E5E                     unlink     A6
000045DE  4E75                     rts
000045E0  875F 5254 4578 6974 0000 dc.b       "_RTExit"
000045EA  202F 0004                move.l     D0, [A7 + 0x4]
000045EE  222F 0008                move.l     D1, [A7 + 0x8]
export_72:
000045F2  2F00                     move.l     -[A7], D0
000045F4  C0C1                     mulu.w     D0, D1
000045F6  2040                     movea.l    A0, D0
000045F8  2001                     move.l     D0, D1
000045FA  C2DF                     mulu.w     D1, [A7]+
000045FC  4240                     clr.w      D0
000045FE  4840                     swap.w     D0
00004600  6702                     beq        +0x4 /* 00004604 */
00004602  C0D7                     mulu.w     D0, [A7]
label00004604:
00004604  548F                     addq.l     A7, 2
00004606  D041                     add.w      D0, D1
00004608  4840                     swap.w     D0
0000460A  4240                     clr.w      D0
0000460C  D088                     add.l      D0, A0
0000460E  4E75                     rts
00004610  222F 0004                move.l     D1, [A7 + 0x4]
00004614  202F 0008                move.l     D0, [A7 + 0x8]
export_73:
fn00004618:
00004618  41FA 000A                lea.l      A0, [PC + 0xA /* 00004624, value 0x60064C41 */]
0000461C  327C 0002                movea.w    A1, 0x2
00004620  4EF0 92FE                jmp        [A0 + A1.w * 2 - 0x2]
00004624  6006                     bra        +0x8 /* 0000462C */
00004626  4C41 0801                divs.l     D1:D0, D1
0000462A  4E75                     rts
label0000462C:
0000462C  4EBA 0048                jsr        [PC + 0x48 /* 00004676 */]
00004630  2001                     move.l     D0, D1
00004632  4E75                     rts
00004634  222F 0004                move.l     D1, [A7 + 0x4]
00004638  202F 0008                move.l     D0, [A7 + 0x8]
export_74:
0000463C  41FA 000A                lea.l      A0, [PC + 0xA /* 00004648, value 0x60064C41 */]
00004640  327C 0002                movea.w    A1, 0x2
00004644  4EF0 92FE                jmp        [A0 + A1.w * 2 - 0x2]
00004648  6006                     bra        +0x8 /* 00004650 */
0000464A  4C41 0001                divu.l     D1:D0, D1
0000464E  4E75                     rts
label00004650:
00004650  4EBA 0074                jsr        [PC + 0x74 /* 000046C6 */]
00004654  2001                     move.l     D0, D1
00004656  4E75                     rts
00004658  222F 0004                move.l     D1, [A7 + 0x4]
0000465C  202F 0008                move.l     D0, [A7 + 0x8]
00004660  41FA 000A                lea.l      A0, [PC + 0xA /* 0000466C, value 0x60084C41 */]
00004664  327C 0002                movea.w    A1, 0x2
00004668  4EF0 92FE                jmp        [A0 + A1.w * 2 - 0x2]
0000466C  6008                     bra        +0xA /* 00004676 */
0000466E  4C41 0801                divs.l     D1:D0, D1
00004672  C340                     exg        D1, D0
00004674  4E75                     rts
fn00004676:
00004676  4A80                     tst.l      D0
00004678  6B14                     bmi        +0x16 /* 0000468E */
0000467A  4A81                     tst.l      D1
0000467C  6B06                     bmi        +0x8 /* 00004684 */
0000467E  4EBA 0046                jsr        [PC + 0x46 /* 000046C6 */]
00004682  4E75                     rts
label00004684:
00004684  4481                     neg.l      D1
00004686  4EBA 003E                jsr        [PC + 0x3E /* 000046C6 */]
0000468A  4481                     neg.l      D1
0000468C  4E75                     rts
label0000468E:
0000468E  4480                     neg.l      D0
00004690  4A81                     tst.l      D1
00004692  6B0A                     bmi        +0xC /* 0000469E */
00004694  4EBA 0030                jsr        [PC + 0x30 /* 000046C6 */]
00004698  4480                     neg.l      D0
0000469A  4481                     neg.l      D1
0000469C  4E75                     rts
label0000469E:
0000469E  4481                     neg.l      D1
000046A0  4EBA 0024                jsr        [PC + 0x24 /* 000046C6 */]
000046A4  4480                     neg.l      D0
000046A6  4E75                     rts
000046A8  222F 0004                move.l     D1, [A7 + 0x4]
000046AC  202F 0008                move.l     D0, [A7 + 0x8]
000046B0  41FA 000A                lea.l      A0, [PC + 0xA /* 000046BC, value 0x60084C41 */]
000046B4  327C 0002                movea.w    A1, 0x2
000046B8  4EF0 92FE                jmp        [A0 + A1.w * 2 - 0x2]
000046BC  6008                     bra        +0xA /* 000046C6 */
000046BE  4C41 0001                divu.l     D1:D0, D1
000046C2  C340                     exg        D1, D0
000046C4  4E75                     rts
fn000046C6:
000046C6  3F01                     move.w     -[A7], D1
000046C8  4841                     swap.w     D1
000046CA  4A41                     tst.w      D1
000046CC  661C                     bne        +0x1E /* 000046EA */
000046CE  2200                     move.l     D1, D0
000046D0  4241                     clr.w      D1
000046D2  4841                     swap.w     D1
000046D4  670A                     beq        +0xC /* 000046E0 */
000046D6  82D7                     divu.w     D1, [A7]
000046D8  4841                     swap.w     D1
000046DA  4840                     swap.w     D0
000046DC  3001                     move.w     D0, D1
000046DE  4840                     swap.w     D0
label000046E0:
000046E0  80DF                     divu.w     D0, [A7]+
000046E2  3200                     move.w     D1, D0
000046E4  4240                     clr.w      D0
000046E6  4840                     swap.w     D0
000046E8  4E75                     rts
label000046EA:
000046EA  4841                     swap.w     D1
000046EC  3E82                     move.w     [A7], D2
000046EE  2F03                     move.l     -[A7], D3
000046F0  3400                     move.w     D2, D0
000046F2  2601                     move.l     D3, D1
000046F4  7201                     moveq.l    D1, 0x01
000046F6  4240                     clr.w      D0
000046F8  4840                     swap.w     D0
000046FA  660C                     bne        +0xE /* 00004708 */
000046FC  4840                     swap.w     D0
000046FE  3002                     move.w     D0, D2
00004700  7200                     moveq.l    D1, 0x00
00004702  6016                     bra        +0x18 /* 0000471A */
label00004704:
00004704  D241                     add.w      D1, D1
00004706  6512                     bcs        +0x14 /* 0000471A */
label00004708:
00004708  D442                     add.w      D2, D2
0000470A  D180                     addx.l     D0, D0
0000470C  B083                     cmp.l      D0, D3
0000470E  65F4                     bcs        -0xA /* 00004704 */
00004710  9083                     sub.l      D0, D3
00004712  D241                     add.w      D1, D1
00004714  08C1 0000                bset.b     D1, 0x0
00004718  64EE                     bcc        -0x10 /* 00004708 */
label0000471A:
0000471A  261F                     move.l     D3, [A7]+
0000471C  341F                     move.w     D2, [A7]+
0000471E  4E75                     rts
fn00004720:
00004720  225F                     movea.l    A1, [A7]+
00004722  2057                     movea.l    A0, [A7]
00004724  48D0 DEFC                movem.l    [A0], D2,D3,D4,D5,D6,D7,A1,A2,A3,A4,A6,A7
00004728  7000                     moveq.l    D0, 0x00
0000472A  4ED1                     jmp        [A1]
fn0000472C:
0000472C  202F 0008                move.l     D0, [A7 + 0x8]
00004730  6602                     bne        +0x4 /* 00004734 */
00004732  7001                     moveq.l    D0, 0x01
label00004734:
00004734  206F 0004                movea.l    A0, [A7 + 0x4]
00004738  4CD0 DEFC                movem.l    D2,D3,D4,D5,D6,D7,A1,A2,A3,A4,A6,A7, [A0]
0000473C  4ED1                     jmp        [A1]
fn0000473E:
0000473E  4E75                     rts
fn00004740:
00004740  226F 0004                movea.l    A1, [A7 + 0x4]
00004744  4878 0001                push.l     0x1
00004748  486D A260                pea.l      [A5 - 0x5DA0]
0000474C  486D A4B4                pea.l      [A5 - 0x5B4C]
00004750  486D A4B0                pea.l      [A5 - 0x5B50]
00004754  2F09                     move.l     -[A7], A1
00004756  4EBA FC18                jsr        [PC - 0x3E8 /* 00004370 */]
0000475A  72FF                     moveq.l    D1, 0xFFFFFFFF
0000475C  B041                     cmp.w      D0, D1
0000475E  6718                     beq        +0x1A /* 00004778 */
00004760  4FEF 0014                lea.l      A7, [A7 + 0x14]
00004764  486D A480                pea.l      [A5 - 0x5B80]
00004768  4EBA FFB6                jsr        [PC - 0x4A /* 00004720 */]
0000476C  584F                     addq.w     A7, 4
0000476E  4A80                     tst.l      D0
00004770  6610                     bne        +0x12 /* 00004782 */
00004772  4EAD 073A                jsr        [A5 + 0x73A /* export_227, CODE:16 @ 00000000 */]
00004776  4E75                     rts
label00004778:
00004778  487A 000C                pea.l      [PC + 0xC /* 00004786, value 0x1B446174, pstring "Data initialization failed!" */]
0000477C  303C FE15                move.w     D0, 0xFE15
00004780  A9C9                     syscall    SysError
label00004782:
00004782  584F                     addq.w     A7, 4
00004784  4E75                     rts
00004786  1B44 6174                move.b     [A5 + 0x6174], D4
0000478A  6120                     bsr        +0x22 /* 000047AC */
0000478C  696E                     bvs        +0x70 /* 000047FC */
0000478E  6974                     bvs        +0x76 /* 00004804 */
00004790  6961                     bvs        +0x63 /* 000047F3 */
00004792  6C69                     bge        +0x6B /* 000047FD */
00004794  7A61                     moveq.l    D5, 0x61
00004796  7469                     moveq.l    D2, 0x69
00004798  6F6E                     ble        +0x70 /* 00004808 */
0000479A  2066                     movea.l    A0, -[A6]
0000479C  6169                     bsr        +0x6B /* 00004807 */
0000479E  6C65                     bge        +0x67 /* 00004805 */
000047A0  6421                     bcc        +0x23 /* 000047C3 */
fn000047A2:
000047A2  42A7                     clr.l      -[A7]
000047A4  4EBA FDC2                jsr        [PC - 0x23E /* 00004568 */]
fn000047A8:
000047A8  42A7                     clr.l      -[A7]
000047AA  4EBA FDBC                jsr        [PC - 0x244 /* 00004568 */]
// begin alternate branch 000047AC-000047AE
fn000047AC:
000047AC  FDBC                     .invalid   <<F/6/6>>
// end alternate branch 000047AC-000047AE
export_75:
fn000047AC: // (misaligned)
000047AE  48E7 04C0                movem.l    -[A7], D5,A0,A1
000047B2  206F 0010                movea.l    A0, [A7 + 0x10]
000047B6  226F 0016                movea.l    A1, [A7 + 0x16]
000047BA  2A3C 8000 0000           move.l     D5, 0x80000000
000047C0  3A2F 0014                move.w     D5, [A7 + 0x14]
000047C4  4E91                     jsr        [A1]
000047C6  4CDF 0320                movem.l    D5,A0,A1, [A7]+
000047CA  2F57 000A                move.l     [A7 + 0xA], [A7]
000047CE  DEFC 000A                add.w      A7, 0xA /* '\n' */
000047D2  4E75                     rts
export_76:
000047D4  48E7 04C0                movem.l    -[A7], D5,A0,A1
000047D8  206F 0010                movea.l    A0, [A7 + 0x10]
000047DC  226F 0018                movea.l    A1, [A7 + 0x18]
000047E0  2A2F 0014                move.l     D5, [A7 + 0x14]
000047E4  4EA9 0004                jsr        [A1 + 0x4]
000047E8  4CDF 0320                movem.l    D5,A0,A1, [A7]+
000047EC  2F57 000C                move.l     [A7 + 0xC], [A7]
000047F0  DEFC 000C                add.w      A7, 0xC
000047F4  4E75                     rts
fn000047F6:
000047F6  48E7 8080                movem.l    -[A7], D0,A0
000047FA  206F 000C                movea.l    A0, [A7 + 0xC]
// begin alternate branch 000047FC-00004800
label000047FC:
000047FC  000C 7001                ori.b      A4, 0x1
// end alternate branch 000047FC-00004800
label000047FC: // (misaligned)
000047FE  7001                     moveq.l    D0, 0x01
00004800  A089                     syscall    SCSIAtomic
00004802  4CDF 0101                movem.l    D0,A0, [A7]+
// begin alternate branch 00004804-00004806
label00004804:
00004804  0101                     btst       D1, D0
// end alternate branch 00004804-00004806
label00004804: // (misaligned)
00004806  2E9F                     move.l     [A7], [A7]+
label00004808:
00004808  4E75                     rts
export_77:
0000480A  48E7 80C0                movem.l    -[A7], D0,A0,A1
0000480E  202F 0010                move.l     D0, [A7 + 0x10]
00004812  206F 0014                movea.l    A0, [A7 + 0x14]
00004816  226F 0018                movea.l    A1, [A7 + 0x18]
0000481A  5340                     subq.w     D0, 1
label0000481C:
0000481C  B388                     cmpm.l     [A1]+, [A0]+
0000481E  56C8 FFFC                dbne       D0, -0x6 /* 0000481C */
00004822  56C0                     sne        D0
00004824  4880                     ext.w      D0
00004826  3F40 001C                move.w     [A7 + 0x1C], D0
0000482A  4CDF 0301                movem.l    D0,A0,A1, [A7]+
0000482E  2F57 000C                move.l     [A7 + 0xC], [A7]
00004832  DEFC 000C                add.w      A7, 0xC
00004836  4E75                     rts
export_78:
00004838  225F                     movea.l    A1, [A7]+
0000483A  301F                     move.w     D0, [A7]+
0000483C  A03E                     syscall    DrvrRemove
0000483E  3E80                     move.w     [A7], D0
00004840  4ED1                     jmp        [A1]
