# near model CODE resource
# jump table entries: 192-214 (23 of them)
fn00000000:
00000000  4E56 0000                link       A6, 0
00000004  48E7 0708                movem.l    -[A7], D5,D6,D7,A4
00000008  286E 0008                movea.l    A4, [A6 + 0x8]
0000000C  7CFF                     moveq.l    D6, 0xFFFFFFFF
0000000E  DC6D F48C                add.w      D6, [A5 - 0xB74]
00000012  3F06                     move.w     -[A7], D6
00000014  4EAD 00A2                jsr        [A5 + 0xA2 /* export_16, CODE:2 @ 000038AE */]
00000018  3E00                     move.w     D7, D0
0000001A  204D                     movea.l    A0, A5
0000001C  2007                     move.l     D0, D7
0000001E  48C0                     ext.l      D0
00000020  E788                     lsl        D0, 3
00000022  D1C0                     add.l      A0, D0
00000024  28A8 F45C                move.l     [A4], [A0 - 0xBA4]
00000028  2968 F460 0004           move.l     [A4 + 0x4], [A0 - 0xBA0]
0000002E  3007                     move.w     D0, D7
00000030  548F                     addq.l     A7, 2
00000032  670C                     beq        +0xE /* 00000040 */
00000034  6B24                     bmi        +0x26 /* 0000005A */
00000036  5740                     subq.w     D0, 3
00000038  670A                     beq        +0xC /* 00000044 */
0000003A  6A1E                     bpl        +0x20 /* 0000005A */
0000003C  5240                     addq.w     D0, 1
0000003E  6B1A                     bmi        +0x1C /* 0000005A */
label00000040:
00000040  7A01                     moveq.l    D5, 0x01
00000042  6018                     bra        +0x1A /* 0000005C */
label00000044:
00000044  3F3C 0002                move.w     -[A7], 0x2
00000048  4EAD 00A2                jsr        [A5 + 0xA2 /* export_16, CODE:2 @ 000038AE */]
0000004C  4A40                     tst.w      D0
0000004E  548F                     addq.l     A7, 2
00000050  6604                     bne        +0x6 /* 00000056 */
00000052  7A01                     moveq.l    D5, 0x01
00000054  6006                     bra        +0x8 /* 0000005C */
label00000056:
00000056  7A00                     moveq.l    D5, 0x00
00000058  6002                     bra        +0x4 /* 0000005C */
label0000005A:
0000005A  7A00                     moveq.l    D5, 0x00
label0000005C:
0000005C  302D F490                move.w     D0, [A5 - 0xB70]
00000060  48C0                     ext.l      D0
00000062  81FC 0005                divs.w     D0, 0x5
00000066  4840                     swap.w     D0
00000068  5940                     subq.w     D0, 4
0000006A  6624                     bne        +0x26 /* 00000090 */
0000006C  3F3C 0030                move.w     -[A7], 0x30 /* '0' */
00000070  4EAD 00A2                jsr        [A5 + 0xA2 /* export_16, CODE:2 @ 000038AE */]
00000074  0640 FFF4                addi.w     D0, 0xFFF4
00000078  D16C 0002                add.w      [A4 + 0x2], D0
0000007C  7018                     moveq.l    D0, 0x18
0000007E  D06C 0002                add.w      D0, [A4 + 0x2]
00000082  3940 0006                move.w     [A4 + 0x6], D0
00000086  70E8                     moveq.l    D0, 0xFFFFFFE8
00000088  D06C 0004                add.w      D0, [A4 + 0x4]
0000008C  3880                     move.w     [A4], D0
0000008E  548F                     addq.l     A7, 2
label00000090:
00000090  1005                     move.b     D0, D5
00000092  4CDF 10E0                movem.l    D5,D6,D7,A4, [A7]+
00000096  4E5E                     unlink     A6
00000098  4E75                     rts
fn0000009A:
0000009A  4E56 0000                link       A6, 0
0000009E  48E7 0300                movem.l    -[A7], D6,D7
000000A2  3E2E 0008                move.w     D7, [A6 + 0x8]
000000A6  7032                     moveq.l    D0, 0x32
000000A8  C1C7                     muls.w     D0, D7
000000AA  204D                     movea.l    A0, A5
000000AC  D1C0                     add.l      A0, D0
000000AE  7032                     moveq.l    D0, 0x32
000000B0  C1C7                     muls.w     D0, D7
000000B2  224D                     movea.l    A1, A5
000000B4  D3C0                     add.l      A1, D0
000000B6  3C28 F1A2                move.w     D6, [A0 - 0xE5E]
000000BA  DC69 F19E                add.w      D6, [A1 - 0xE62]
000000BE  E246                     asr        D6.w, 1
000000C0  0C46 0140                cmpi.w     D6, 0x140
000000C4  6C10                     bge        +0x12 /* 000000D6 */
000000C6  7032                     moveq.l    D0, 0x32
000000C8  C1C7                     muls.w     D0, D7
000000CA  204D                     movea.l    A0, A5
000000CC  D1C0                     add.l      A0, D0
000000CE  117C 0001 F1CC           move.b     [A0 - 0xE34], 0x1
000000D4  600C                     bra        +0xE /* 000000E2 */
label000000D6:
000000D6  7032                     moveq.l    D0, 0x32
000000D8  C1C7                     muls.w     D0, D7
000000DA  204D                     movea.l    A0, A5
000000DC  D1C0                     add.l      A0, D0
000000DE  4228 F1CC                clr.b      [A0 - 0xE34]
label000000E2:
000000E2  7032                     moveq.l    D0, 0x32
000000E4  C1C7                     muls.w     D0, D7
000000E6  204D                     movea.l    A0, A5
000000E8  D1C0                     add.l      A0, D0
000000EA  3028 F1BC                move.w     D0, [A0 - 0xE44]
000000EE  6710                     beq        +0x12 /* 00000100 */
000000F0  6B00 013E                bmi        +0x140 /* 00000230 */
000000F4  5540                     subq.w     D0, 2
000000F6  6700 00D4                beq        +0xD6 /* 000001CC */
000000FA  6A00 0134                bpl        +0x136 /* 00000230 */
000000FE  6066                     bra        +0x68 /* 00000166 */
label00000100:
00000100  7032                     moveq.l    D0, 0x32
00000102  C1C7                     muls.w     D0, D7
00000104  204D                     movea.l    A0, A5
00000106  D1C0                     add.l      A0, D0
00000108  4A28 F1CC                tst.b      [A0 - 0xE34]
0000010C  670E                     beq        +0x10 /* 0000011C */
0000010E  7032                     moveq.l    D0, 0x32
00000110  C1C7                     muls.w     D0, D7
00000112  204D                     movea.l    A0, A5
00000114  D1C0                     add.l      A0, D0
00000116  4268 F1B8                clr.w      [A0 - 0xE48]
0000011A  600E                     bra        +0x10 /* 0000012A */
label0000011C:
0000011C  7032                     moveq.l    D0, 0x32
0000011E  C1C7                     muls.w     D0, D7
00000120  204D                     movea.l    A0, A5
00000122  D1C0                     add.l      A0, D0
00000124  317C 0002 F1B8           move.w     [A0 - 0xE48], 0x2
label0000012A:
0000012A  7032                     moveq.l    D0, 0x32
0000012C  C1C7                     muls.w     D0, D7
0000012E  204D                     movea.l    A0, A5
00000130  D1C0                     add.l      A0, D0
00000132  317C 0060 F1C8           move.w     [A0 - 0xE38], 0x60 /* '`' */
00000138  7032                     moveq.l    D0, 0x32
0000013A  C1C7                     muls.w     D0, D7
0000013C  204D                     movea.l    A0, A5
0000013E  D1C0                     add.l      A0, D0
00000140  317C 0140 F1CA           move.w     [A0 - 0xE36], 0x140
00000146  7032                     moveq.l    D0, 0x32
00000148  C1C7                     muls.w     D0, D7
0000014A  204D                     movea.l    A0, A5
0000014C  D1C0                     add.l      A0, D0
0000014E  317C 0060 F1C0           move.w     [A0 - 0xE40], 0x60 /* '`' */
00000154  7032                     moveq.l    D0, 0x32
00000156  C1C7                     muls.w     D0, D7
00000158  204D                     movea.l    A0, A5
0000015A  D1C0                     add.l      A0, D0
0000015C  317C 0020 F1C4           move.w     [A0 - 0xE3C], 0x20 /* ' ' */
00000162  6000 00CC                bra        +0xCE /* 00000230 */
label00000166:
00000166  7032                     moveq.l    D0, 0x32
00000168  C1C7                     muls.w     D0, D7
0000016A  204D                     movea.l    A0, A5
0000016C  D1C0                     add.l      A0, D0
0000016E  4A28 F1CC                tst.b      [A0 - 0xE34]
00000172  6710                     beq        +0x12 /* 00000184 */
00000174  7032                     moveq.l    D0, 0x32
00000176  C1C7                     muls.w     D0, D7
00000178  204D                     movea.l    A0, A5
0000017A  D1C0                     add.l      A0, D0
0000017C  317C 0004 F1B8           move.w     [A0 - 0xE48], 0x4
00000182  600E                     bra        +0x10 /* 00000192 */
label00000184:
00000184  7032                     moveq.l    D0, 0x32
00000186  C1C7                     muls.w     D0, D7
00000188  204D                     movea.l    A0, A5
0000018A  D1C0                     add.l      A0, D0
0000018C  317C 0006 F1B8           move.w     [A0 - 0xE48], 0x6
label00000192:
00000192  7032                     moveq.l    D0, 0x32
00000194  C1C7                     muls.w     D0, D7
00000196  204D                     movea.l    A0, A5
00000198  D1C0                     add.l      A0, D0
0000019A  317C 0080 F1C8           move.w     [A0 - 0xE38], 0x80
000001A0  7032                     moveq.l    D0, 0x32
000001A2  C1C7                     muls.w     D0, D7
000001A4  204D                     movea.l    A0, A5
000001A6  D1C0                     add.l      A0, D0
000001A8  317C 0190 F1CA           move.w     [A0 - 0xE36], 0x190
000001AE  7032                     moveq.l    D0, 0x32
000001B0  C1C7                     muls.w     D0, D7
000001B2  204D                     movea.l    A0, A5
000001B4  D1C0                     add.l      A0, D0
000001B6  317C 00A0 F1C0           move.w     [A0 - 0xE40], 0xA0
000001BC  7032                     moveq.l    D0, 0x32
000001BE  C1C7                     muls.w     D0, D7
000001C0  204D                     movea.l    A0, A5
000001C2  D1C0                     add.l      A0, D0
000001C4  317C 0030 F1C4           move.w     [A0 - 0xE3C], 0x30 /* '0' */
000001CA  6064                     bra        +0x66 /* 00000230 */
label000001CC:
000001CC  7032                     moveq.l    D0, 0x32
000001CE  C1C7                     muls.w     D0, D7
000001D0  204D                     movea.l    A0, A5
000001D2  D1C0                     add.l      A0, D0
000001D4  4A28 F1CC                tst.b      [A0 - 0xE34]
000001D8  6710                     beq        +0x12 /* 000001EA */
000001DA  7032                     moveq.l    D0, 0x32
000001DC  C1C7                     muls.w     D0, D7
000001DE  204D                     movea.l    A0, A5
000001E0  D1C0                     add.l      A0, D0
000001E2  317C 0008 F1B8           move.w     [A0 - 0xE48], 0x8
000001E8  600E                     bra        +0x10 /* 000001F8 */
label000001EA:
000001EA  7032                     moveq.l    D0, 0x32
000001EC  C1C7                     muls.w     D0, D7
000001EE  204D                     movea.l    A0, A5
000001F0  D1C0                     add.l      A0, D0
000001F2  317C 000A F1B8           move.w     [A0 - 0xE48], 0xA /* '\n' */
label000001F8:
000001F8  7032                     moveq.l    D0, 0x32
000001FA  C1C7                     muls.w     D0, D7
000001FC  204D                     movea.l    A0, A5
000001FE  D1C0                     add.l      A0, D0
00000200  317C 00C0 F1C8           move.w     [A0 - 0xE38], 0xC0
00000206  7032                     moveq.l    D0, 0x32
00000208  C1C7                     muls.w     D0, D7
0000020A  204D                     movea.l    A0, A5
0000020C  D1C0                     add.l      A0, D0
0000020E  317C 0200 F1CA           move.w     [A0 - 0xE36], 0x200
00000214  7032                     moveq.l    D0, 0x32
00000216  C1C7                     muls.w     D0, D7
00000218  204D                     movea.l    A0, A5
0000021A  D1C0                     add.l      A0, D0
0000021C  317C 00F0 F1C0           move.w     [A0 - 0xE40], 0xF0
00000222  7032                     moveq.l    D0, 0x32
00000224  C1C7                     muls.w     D0, D7
00000226  204D                     movea.l    A0, A5
00000228  D1C0                     add.l      A0, D0
0000022A  317C 0048 F1C4           move.w     [A0 - 0xE3C], 0x48 /* 'H' */
label00000230:
00000230  4CDF 00C0                movem.l    D6,D7, [A7]+
00000234  4E5E                     unlink     A6
00000236  4E75                     rts
fn00000238:
00000238  48E7 0300                movem.l    -[A7], D6,D7
0000023C  3F3C 0004                move.w     -[A7], 0x4
00000240  4EAD 00A2                jsr        [A5 + 0xA2 /* export_16, CODE:2 @ 000038AE */]
00000244  3E00                     move.w     D7, D0
00000246  3007                     move.w     D0, D7
00000248  548F                     addq.l     A7, 2
0000024A  670E                     beq        +0x10 /* 0000025A */
0000024C  6B22                     bmi        +0x24 /* 00000270 */
0000024E  5740                     subq.w     D0, 3
00000250  671A                     beq        +0x1C /* 0000026C */
00000252  6A1C                     bpl        +0x1E /* 00000270 */
00000254  5240                     addq.w     D0, 1
00000256  6A0E                     bpl        +0x10 /* 00000266 */
00000258  6006                     bra        +0x8 /* 00000260 */
label0000025A:
0000025A  3C3C 0410                move.w     D6, 0x410
0000025E  6010                     bra        +0x12 /* 00000270 */
label00000260:
00000260  3C3C 0960                move.w     D6, 0x960 /* '\t`' */
00000264  600A                     bra        +0xC /* 00000270 */
label00000266:
00000266  3C3C 0F50                move.w     D6, 0xF50
0000026A  6004                     bra        +0x6 /* 00000270 */
label0000026C:
0000026C  3C3C 1800                move.w     D6, 0x1800
label00000270:
00000270  3006                     move.w     D0, D6
00000272  4CDF 00C0                movem.l    D6,D7, [A7]+
00000276  4E75                     rts
fn00000278:
00000278  4E56 0000                link       A6, 0
0000027C  48E7 0300                movem.l    -[A7], D6,D7
00000280  3E2E 0008                move.w     D7, [A6 + 0x8]
00000284  302D EA28                move.w     D0, [A5 - 0x15D8]
00000288  B06D EA2A                cmp.w      D0, [A5 - 0x15D6]
0000028C  6C00 01C0                bge        +0x1C2 /* 0000044E */
00000290  7032                     moveq.l    D0, 0x32
00000292  C1C7                     muls.w     D0, D7
00000294  204D                     movea.l    A0, A5
00000296  D1C0                     add.l      A0, D0
00000298  4868 F19C                pea.l      [A0 - 0xE64]
0000029C  4EBA FD62                jsr        [PC - 0x29E /* 00000000 */]
000002A0  1C00                     move.b     D6, D0
000002A2  7032                     moveq.l    D0, 0x32
000002A4  C1C7                     muls.w     D0, D7
000002A6  204D                     movea.l    A0, A5
000002A8  D1C0                     add.l      A0, D0
000002AA  7032                     moveq.l    D0, 0x32
000002AC  C1C7                     muls.w     D0, D7
000002AE  224D                     movea.l    A1, A5
000002B0  D3C0                     add.l      A1, D0
000002B2  2368 F19C F1A4           move.l     [A1 - 0xE5C], [A0 - 0xE64]
000002B8  2368 F1A0 F1A8           move.l     [A1 - 0xE58], [A0 - 0xE60]
000002BE  7032                     moveq.l    D0, 0x32
000002C0  C1C7                     muls.w     D0, D7
000002C2  204D                     movea.l    A0, A5
000002C4  D1C0                     add.l      A0, D0
000002C6  3028 F19E                move.w     D0, [A0 - 0xE62]
000002CA  E948                     lsl        D0.w, 4
000002CC  7232                     moveq.l    D1, 0x32
000002CE  C3C7                     muls.w     D1, D7
000002D0  204D                     movea.l    A0, A5
000002D2  D1C1                     add.l      A0, D1
000002D4  3140 F1AC                move.w     [A0 - 0xE54], D0
000002D8  7032                     moveq.l    D0, 0x32
000002DA  C1C7                     muls.w     D0, D7
000002DC  204D                     movea.l    A0, A5
000002DE  D1C0                     add.l      A0, D0
000002E0  3028 F19C                move.w     D0, [A0 - 0xE64]
000002E4  E948                     lsl        D0.w, 4
000002E6  7232                     moveq.l    D1, 0x32
000002E8  C3C7                     muls.w     D1, D7
000002EA  204D                     movea.l    A0, A5
000002EC  D1C1                     add.l      A0, D1
000002EE  3140 F1AE                move.w     [A0 - 0xE52], D0
000002F2  7032                     moveq.l    D0, 0x32
000002F4  C1C7                     muls.w     D0, D7
000002F6  204D                     movea.l    A0, A5
000002F8  D1C0                     add.l      A0, D0
000002FA  7032                     moveq.l    D0, 0x32
000002FC  C1C7                     muls.w     D0, D7
000002FE  224D                     movea.l    A1, A5
00000300  D3C0                     add.l      A1, D0
00000302  3368 F1AC F1B0           move.w     [A1 - 0xE50], [A0 - 0xE54]
00000308  7032                     moveq.l    D0, 0x32
0000030A  C1C7                     muls.w     D0, D7
0000030C  204D                     movea.l    A0, A5
0000030E  D1C0                     add.l      A0, D0
00000310  7032                     moveq.l    D0, 0x32
00000312  C1C7                     muls.w     D0, D7
00000314  224D                     movea.l    A1, A5
00000316  D3C0                     add.l      A1, D0
00000318  3368 F1AE F1B2           move.w     [A1 - 0xE4E], [A0 - 0xE52]
0000031E  7032                     moveq.l    D0, 0x32
00000320  C1C7                     muls.w     D0, D7
00000322  204D                     movea.l    A0, A5
00000324  D1C0                     add.l      A0, D0
00000326  7032                     moveq.l    D0, 0x32
00000328  C1C7                     muls.w     D0, D7
0000032A  3228 F1AE                move.w     D1, [A0 - 0xE52]
0000032E  0641 FD80                addi.w     D1, 0xFD80
00000332  204D                     movea.l    A0, A5
00000334  D1C0                     add.l      A0, D0
00000336  3141 F1C2                move.w     [A0 - 0xE3E], D1
0000033A  7032                     moveq.l    D0, 0x32
0000033C  C1C7                     muls.w     D0, D7
0000033E  204D                     movea.l    A0, A5
00000340  D1C0                     add.l      A0, D0
00000342  4268 F1B4                clr.w      [A0 - 0xE4C]
00000346  7032                     moveq.l    D0, 0x32
00000348  C1C7                     muls.w     D0, D7
0000034A  204D                     movea.l    A0, A5
0000034C  D1C0                     add.l      A0, D0
0000034E  4268 F1B6                clr.w      [A0 - 0xE4A]
00000352  7032                     moveq.l    D0, 0x32
00000354  C1C7                     muls.w     D0, D7
00000356  204D                     movea.l    A0, A5
00000358  D1C0                     add.l      A0, D0
0000035A  4268 F1C6                clr.w      [A0 - 0xE3A]
0000035E  302D F490                move.w     D0, [A5 - 0xB70]
00000362  48C0                     ext.l      D0
00000364  81FC 0005                divs.w     D0, 0x5
00000368  4840                     swap.w     D0
0000036A  5940                     subq.w     D0, 4
0000036C  588F                     addq.l     A7, 4
0000036E  6610                     bne        +0x12 /* 00000380 */
00000370  7032                     moveq.l    D0, 0x32
00000372  C1C7                     muls.w     D0, D7
00000374  204D                     movea.l    A0, A5
00000376  D1C0                     add.l      A0, D0
00000378  317C 0005 F1BA           move.w     [A0 - 0xE46], 0x5
0000037E  600E                     bra        +0x10 /* 0000038E */
label00000380:
00000380  7032                     moveq.l    D0, 0x32
00000382  C1C7                     muls.w     D0, D7
00000384  204D                     movea.l    A0, A5
00000386  D1C0                     add.l      A0, D0
00000388  317C FFFF F1BA           move.w     [A0 - 0xE46], 0xFFFF
label0000038E:
0000038E  BE6D EA2C                cmp.w      D7, [A5 - 0x15D4]
00000392  6C0E                     bge        +0x10 /* 000003A2 */
00000394  7032                     moveq.l    D0, 0x32
00000396  C1C7                     muls.w     D0, D7
00000398  204D                     movea.l    A0, A5
0000039A  D1C0                     add.l      A0, D0
0000039C  4268 F1BC                clr.w      [A0 - 0xE44]
000003A0  6028                     bra        +0x2A /* 000003CA */
label000003A2:
000003A2  7006                     moveq.l    D0, 0x06
000003A4  D06D EA2C                add.w      D0, [A5 - 0x15D4]
000003A8  B047                     cmp.w      D0, D7
000003AA  6C10                     bge        +0x12 /* 000003BC */
000003AC  7032                     moveq.l    D0, 0x32
000003AE  C1C7                     muls.w     D0, D7
000003B0  204D                     movea.l    A0, A5
000003B2  D1C0                     add.l      A0, D0
000003B4  317C 0002 F1BC           move.w     [A0 - 0xE44], 0x2
000003BA  600E                     bra        +0x10 /* 000003CA */
label000003BC:
000003BC  7032                     moveq.l    D0, 0x32
000003BE  C1C7                     muls.w     D0, D7
000003C0  204D                     movea.l    A0, A5
000003C2  D1C0                     add.l      A0, D0
000003C4  317C 0001 F1BC           move.w     [A0 - 0xE44], 0x1
label000003CA:
000003CA  7032                     moveq.l    D0, 0x32
000003CC  C1C7                     muls.w     D0, D7
000003CE  204D                     movea.l    A0, A5
000003D0  D1C0                     add.l      A0, D0
000003D2  1146 F1CC                move.b     [A0 - 0xE34], D6
000003D6  3F07                     move.w     -[A7], D7
000003D8  4EBA FCC0                jsr        [PC - 0x340 /* 0000009A */]
000003DC  4A2E 000A                tst.b      [A6 + 0xA]
000003E0  548F                     addq.l     A7, 2
000003E2  6722                     beq        +0x24 /* 00000406 */
000003E4  3F3C 0030                move.w     -[A7], 0x30 /* '0' */
000003E8  4EAD 00A2                jsr        [A5 + 0xA2 /* export_16, CODE:2 @ 000038AE */]
000003EC  322D EA2C                move.w     D1, [A5 - 0x15D4]
000003F0  EB49                     lsl        D1.w, 5
000003F2  5040                     addq.w     D0, 8
000003F4  D041                     add.w      D0, D1
000003F6  7232                     moveq.l    D1, 0x32
000003F8  C3C7                     muls.w     D1, D7
000003FA  204D                     movea.l    A0, A5
000003FC  D1C1                     add.l      A0, D1
000003FE  3140 F1BE                move.w     [A0 - 0xE42], D0
00000402  548F                     addq.l     A7, 2
00000404  6028                     bra        +0x2A /* 0000042E */
label00000406:
00000406  3F3C 0030                move.w     -[A7], 0x30 /* '0' */
0000040A  4EAD 00A2                jsr        [A5 + 0xA2 /* export_16, CODE:2 @ 000038AE */]
0000040E  3207                     move.w     D1, D7
00000410  ED49                     lsl        D1.w, 6
00000412  0640 0020                addi.w     D0, 0x20 /* ' ' */
00000416  D041                     add.w      D0, D1
00000418  322D EA2C                move.w     D1, [A5 - 0x15D4]
0000041C  EB49                     lsl        D1.w, 5
0000041E  D041                     add.w      D0, D1
00000420  7232                     moveq.l    D1, 0x32
00000422  C3C7                     muls.w     D1, D7
00000424  204D                     movea.l    A0, A5
00000426  D1C1                     add.l      A0, D1
00000428  3140 F1BE                move.w     [A0 - 0xE42], D0
0000042C  548F                     addq.l     A7, 2
label0000042E:
0000042E  302D F490                move.w     D0, [A5 - 0xB70]
00000432  48C0                     ext.l      D0
00000434  81FC 0005                divs.w     D0, 0x5
00000438  4840                     swap.w     D0
0000043A  5940                     subq.w     D0, 4
0000043C  660C                     bne        +0xE /* 0000044A */
0000043E  7032                     moveq.l    D0, 0x32
00000440  C1C7                     muls.w     D0, D7
00000442  204D                     movea.l    A0, A5
00000444  D1C0                     add.l      A0, D0
00000446  5368 F1BC                subq.w     [A0 - 0xE44], 1
label0000044A:
0000044A  526D EA28                addq.w     [A5 - 0x15D8], 1
label0000044E:
0000044E  4CDF 00C0                movem.l    D6,D7, [A7]+
00000452  4E5E                     unlink     A6
00000454  4E75                     rts
export_40:
00000456  2F07                     move.l     -[A7], D7
00000458  302D F490                move.w     D0, [A5 - 0xB70]
0000045C  48C0                     ext.l      D0
0000045E  81FC 0005                divs.w     D0, 0x5
00000462  4840                     swap.w     D0
00000464  5940                     subq.w     D0, 4
00000466  660E                     bne        +0x10 /* 00000476 */
00000468  3B7C 0008 F49A           move.w     [A5 - 0xB66], 0x8
0000046E  3B6D F49A EA2A           move.w     [A5 - 0x15D6], [A5 - 0xB66]
00000474  6026                     bra        +0x28 /* 0000049C */
label00000476:
00000476  302D F490                move.w     D0, [A5 - 0xB70]
0000047A  48C0                     ext.l      D0
0000047C  81FC 0005                divs.w     D0, 0x5
00000480  D040                     add.w      D0, D0
00000482  5840                     addq.w     D0, 4
00000484  3B40 F49A                move.w     [A5 - 0xB66], D0
00000488  5140                     subq.w     D0, 8
0000048A  6F06                     ble        +0x8 /* 00000492 */
0000048C  3B7C 0008 F49A           move.w     [A5 - 0xB66], 0x8
label00000492:
00000492  302D F49A                move.w     D0, [A5 - 0xB66]
00000496  D040                     add.w      D0, D0
00000498  3B40 EA2A                move.w     [A5 - 0x15D6], D0
label0000049C:
0000049C  426D EA26                clr.w      [A5 - 0x15DA]
000004A0  302D F490                move.w     D0, [A5 - 0xB70]
000004A4  5440                     addq.w     D0, 2
000004A6  48C0                     ext.l      D0
000004A8  81FC 0005                divs.w     D0, 0x5
000004AC  7204                     moveq.l    D1, 0x04
000004AE  9240                     sub.w      D1, D0
000004B0  3B41 EA2C                move.w     [A5 - 0x15D4], D1
000004B4  4A41                     tst.w      D1
000004B6  6C04                     bge        +0x6 /* 000004BC */
000004B8  426D EA2C                clr.w      [A5 - 0x15D4]
label000004BC:
000004BC  426D EA28                clr.w      [A5 - 0x15D8]
000004C0  7E00                     moveq.l    D7, 0x00
000004C2  600C                     bra        +0xE /* 000004D0 */
label000004C4:
000004C4  4227                     clr.b      -[A7]
000004C6  3F07                     move.w     -[A7], D7
000004C8  4EBA FDAE                jsr        [PC - 0x252 /* 00000278 */]
000004CC  588F                     addq.l     A7, 4
000004CE  5247                     addq.w     D7, 1
label000004D0:
000004D0  BE6D F49A                cmp.w      D7, [A5 - 0xB66]
000004D4  6DEE                     blt        -0x10 /* 000004C4 */
000004D6  2E1F                     move.l     D7, [A7]+
000004D8  4E75                     rts
fn000004DA:
000004DA  4E56 FFE8                link       A6, -0x0018
000004DE  48E7 0700                movem.l    -[A7], D5,D6,D7
000004E2  3E2E 0008                move.w     D7, [A6 + 0x8]
000004E6  7C00                     moveq.l    D6, 0x00
000004E8  6000 060A                bra        +0x60C /* 00000AF4 */
label000004EC:
000004EC  4227                     clr.b      -[A7]
000004EE  7032                     moveq.l    D0, 0x32
000004F0  C1C7                     muls.w     D0, D7
000004F2  204D                     movea.l    A0, A5
000004F4  D1C0                     add.l      A0, D0
000004F6  4868 F19C                pea.l      [A0 - 0xE64]
000004FA  204D                     movea.l    A0, A5
000004FC  2006                     move.l     D0, D6
000004FE  48C0                     ext.l      D0
00000500  E788                     lsl        D0, 3
00000502  D1C0                     add.l      A0, D0
00000504  4868 F33C                pea.l      [A0 - 0xCC4]
00000508  486E FFE8                pea.l      [A6 - 0x18]
0000050C  A8AA                     syscall    SectRect
0000050E  4A1F                     tst.b      [A7]+
00000510  6700 05E0                beq        +0x5E2 /* 00000AF2 */
00000514  7032                     moveq.l    D0, 0x32
00000516  C1C7                     muls.w     D0, D7
00000518  204D                     movea.l    A0, A5
0000051A  D1C0                     add.l      A0, D0
0000051C  3D68 F19E FFFA           move.w     [A6 - 0x6], [A0 - 0xE62]
00000522  7032                     moveq.l    D0, 0x32
00000524  C1C7                     muls.w     D0, D7
00000526  204D                     movea.l    A0, A5
00000528  D1C0                     add.l      A0, D0
0000052A  3D68 F1A2 FFFE           move.w     [A6 - 0x2], [A0 - 0xE5E]
00000530  7032                     moveq.l    D0, 0x32
00000532  C1C7                     muls.w     D0, D7
00000534  204D                     movea.l    A0, A5
00000536  D1C0                     add.l      A0, D0
00000538  3D68 F1A4 FFF8           move.w     [A6 - 0x8], [A0 - 0xE5C]
0000053E  7032                     moveq.l    D0, 0x32
00000540  C1C7                     muls.w     D0, D7
00000542  204D                     movea.l    A0, A5
00000544  D1C0                     add.l      A0, D0
00000546  3D68 F1A8 FFFC           move.w     [A6 - 0x4], [A0 - 0xE58]
0000054C  4227                     clr.b      -[A7]
0000054E  486E FFF8                pea.l      [A6 - 0x8]
00000552  204D                     movea.l    A0, A5
00000554  2006                     move.l     D0, D6
00000556  48C0                     ext.l      D0
00000558  E788                     lsl        D0, 3
0000055A  D1C0                     add.l      A0, D0
0000055C  4868 F33C                pea.l      [A0 - 0xCC4]
00000560  486E FFE8                pea.l      [A6 - 0x18]
00000564  A8AA                     syscall    SectRect
00000566  4A1F                     tst.b      [A7]+
00000568  6700 01B0                beq        +0x1B2 /* 0000071A */
0000056C  7032                     moveq.l    D0, 0x32
0000056E  C1C7                     muls.w     D0, D7
00000570  204D                     movea.l    A0, A5
00000572  D1C0                     add.l      A0, D0
00000574  7032                     moveq.l    D0, 0x32
00000576  C1C7                     muls.w     D0, D7
00000578  224D                     movea.l    A1, A5
0000057A  D3C0                     add.l      A1, D0
0000057C  3028 F1AC                move.w     D0, [A0 - 0xE54]
00000580  B069 F1B0                cmp.w      D0, [A1 - 0xE50]
00000584  6F00 00AA                ble        +0xAC /* 00000630 */
00000588  204D                     movea.l    A0, A5
0000058A  2006                     move.l     D0, D6
0000058C  48C0                     ext.l      D0
0000058E  E788                     lsl        D0, 3
00000590  D1C0                     add.l      A0, D0
00000592  7032                     moveq.l    D0, 0x32
00000594  C1C7                     muls.w     D0, D7
00000596  224D                     movea.l    A1, A5
00000598  D3C0                     add.l      A1, D0
0000059A  3A29 F1A2                move.w     D5, [A1 - 0xE5E]
0000059E  9A68 F33E                sub.w      D5, [A0 - 0xCC2]
000005A2  7032                     moveq.l    D0, 0x32
000005A4  C1C7                     muls.w     D0, D7
000005A6  204D                     movea.l    A0, A5
000005A8  D1C0                     add.l      A0, D0
000005AA  9B68 F19E                sub.w      [A0 - 0xE62], D5
000005AE  7032                     moveq.l    D0, 0x32
000005B0  C1C7                     muls.w     D0, D7
000005B2  204D                     movea.l    A0, A5
000005B4  D1C0                     add.l      A0, D0
000005B6  9B68 F1A2                sub.w      [A0 - 0xE5E], D5
000005BA  7032                     moveq.l    D0, 0x32
000005BC  C1C7                     muls.w     D0, D7
000005BE  204D                     movea.l    A0, A5
000005C0  D1C0                     add.l      A0, D0
000005C2  3028 F19E                move.w     D0, [A0 - 0xE62]
000005C6  E948                     lsl        D0.w, 4
000005C8  7232                     moveq.l    D1, 0x32
000005CA  C3C7                     muls.w     D1, D7
000005CC  204D                     movea.l    A0, A5
000005CE  D1C1                     add.l      A0, D1
000005D0  3140 F1AC                move.w     [A0 - 0xE54], D0
000005D4  7032                     moveq.l    D0, 0x32
000005D6  C1C7                     muls.w     D0, D7
000005D8  204D                     movea.l    A0, A5
000005DA  D1C0                     add.l      A0, D0
000005DC  7032                     moveq.l    D0, 0x32
000005DE  C1C7                     muls.w     D0, D7
000005E0  224D                     movea.l    A1, A5
000005E2  D3C0                     add.l      A1, D0
000005E4  3368 F1AC F1B0           move.w     [A1 - 0xE50], [A0 - 0xE54]
000005EA  7032                     moveq.l    D0, 0x32
000005EC  C1C7                     muls.w     D0, D7
000005EE  204D                     movea.l    A0, A5
000005F0  D1C0                     add.l      A0, D0
000005F2  4A68 F1B4                tst.w      [A0 - 0xE4C]
000005F6  6F1E                     ble        +0x20 /* 00000616 */
000005F8  7032                     moveq.l    D0, 0x32
000005FA  C1C7                     muls.w     D0, D7
000005FC  204D                     movea.l    A0, A5
000005FE  D1C0                     add.l      A0, D0
00000600  3028 F1B4                move.w     D0, [A0 - 0xE4C]
00000604  E240                     asr        D0.w, 1
00000606  4440                     neg.w      D0
00000608  7232                     moveq.l    D1, 0x32
0000060A  C3C7                     muls.w     D1, D7
0000060C  204D                     movea.l    A0, A5
0000060E  D1C1                     add.l      A0, D1
00000610  3140 F1B4                move.w     [A0 - 0xE4C], D0
00000614  601A                     bra        +0x1C /* 00000630 */
label00000616:
00000616  7032                     moveq.l    D0, 0x32
00000618  C1C7                     muls.w     D0, D7
0000061A  204D                     movea.l    A0, A5
0000061C  D1C0                     add.l      A0, D0
0000061E  3028 F1B4                move.w     D0, [A0 - 0xE4C]
00000622  E240                     asr        D0.w, 1
00000624  7232                     moveq.l    D1, 0x32
00000626  C3C7                     muls.w     D1, D7
00000628  204D                     movea.l    A0, A5
0000062A  D1C1                     add.l      A0, D1
0000062C  3140 F1B4                move.w     [A0 - 0xE4C], D0
label00000630:
00000630  7032                     moveq.l    D0, 0x32
00000632  C1C7                     muls.w     D0, D7
00000634  204D                     movea.l    A0, A5
00000636  D1C0                     add.l      A0, D0
00000638  7032                     moveq.l    D0, 0x32
0000063A  C1C7                     muls.w     D0, D7
0000063C  224D                     movea.l    A1, A5
0000063E  D3C0                     add.l      A1, D0
00000640  3028 F1AC                move.w     D0, [A0 - 0xE54]
00000644  B069 F1B0                cmp.w      D0, [A1 - 0xE50]
00000648  6C00 00AA                bge        +0xAC /* 000006F4 */
0000064C  7032                     moveq.l    D0, 0x32
0000064E  C1C7                     muls.w     D0, D7
00000650  204D                     movea.l    A0, A5
00000652  D1C0                     add.l      A0, D0
00000654  224D                     movea.l    A1, A5
00000656  2006                     move.l     D0, D6
00000658  48C0                     ext.l      D0
0000065A  E788                     lsl        D0, 3
0000065C  D3C0                     add.l      A1, D0
0000065E  3A29 F342                move.w     D5, [A1 - 0xCBE]
00000662  9A68 F19E                sub.w      D5, [A0 - 0xE62]
00000666  7032                     moveq.l    D0, 0x32
00000668  C1C7                     muls.w     D0, D7
0000066A  204D                     movea.l    A0, A5
0000066C  D1C0                     add.l      A0, D0
0000066E  DB68 F19E                add.w      [A0 - 0xE62], D5
00000672  7032                     moveq.l    D0, 0x32
00000674  C1C7                     muls.w     D0, D7
00000676  204D                     movea.l    A0, A5
00000678  D1C0                     add.l      A0, D0
0000067A  DB68 F1A2                add.w      [A0 - 0xE5E], D5
0000067E  7032                     moveq.l    D0, 0x32
00000680  C1C7                     muls.w     D0, D7
00000682  204D                     movea.l    A0, A5
00000684  D1C0                     add.l      A0, D0
00000686  3028 F19E                move.w     D0, [A0 - 0xE62]
0000068A  E948                     lsl        D0.w, 4
0000068C  7232                     moveq.l    D1, 0x32
0000068E  C3C7                     muls.w     D1, D7
00000690  204D                     movea.l    A0, A5
00000692  D1C1                     add.l      A0, D1
00000694  3140 F1AC                move.w     [A0 - 0xE54], D0
00000698  7032                     moveq.l    D0, 0x32
0000069A  C1C7                     muls.w     D0, D7
0000069C  204D                     movea.l    A0, A5
0000069E  D1C0                     add.l      A0, D0
000006A0  7032                     moveq.l    D0, 0x32
000006A2  C1C7                     muls.w     D0, D7
000006A4  224D                     movea.l    A1, A5
000006A6  D3C0                     add.l      A1, D0
000006A8  3368 F1AC F1B0           move.w     [A1 - 0xE50], [A0 - 0xE54]
000006AE  7032                     moveq.l    D0, 0x32
000006B0  C1C7                     muls.w     D0, D7
000006B2  204D                     movea.l    A0, A5
000006B4  D1C0                     add.l      A0, D0
000006B6  4A68 F1B4                tst.w      [A0 - 0xE4C]
000006BA  6C1E                     bge        +0x20 /* 000006DA */
000006BC  7032                     moveq.l    D0, 0x32
000006BE  C1C7                     muls.w     D0, D7
000006C0  204D                     movea.l    A0, A5
000006C2  D1C0                     add.l      A0, D0
000006C4  3028 F1B4                move.w     D0, [A0 - 0xE4C]
000006C8  E240                     asr        D0.w, 1
000006CA  4440                     neg.w      D0
000006CC  7232                     moveq.l    D1, 0x32
000006CE  C3C7                     muls.w     D1, D7
000006D0  204D                     movea.l    A0, A5
000006D2  D1C1                     add.l      A0, D1
000006D4  3140 F1B4                move.w     [A0 - 0xE4C], D0
000006D8  601A                     bra        +0x1C /* 000006F4 */
label000006DA:
000006DA  7032                     moveq.l    D0, 0x32
000006DC  C1C7                     muls.w     D0, D7
000006DE  204D                     movea.l    A0, A5
000006E0  D1C0                     add.l      A0, D0
000006E2  3028 F1B4                move.w     D0, [A0 - 0xE4C]
000006E6  E240                     asr        D0.w, 1
000006E8  7232                     moveq.l    D1, 0x32
000006EA  C3C7                     muls.w     D1, D7
000006EC  204D                     movea.l    A0, A5
000006EE  D1C1                     add.l      A0, D1
000006F0  3140 F1B4                move.w     [A0 - 0xE4C], D0
label000006F4:
000006F4  1B7C 0001 F4A3           move.b     [A5 - 0xB5D], 0x1
000006FA  7032                     moveq.l    D0, 0x32
000006FC  C1C7                     muls.w     D0, D7
000006FE  204D                     movea.l    A0, A5
00000700  D1C0                     add.l      A0, D0
00000702  4A28 F1CC                tst.b      [A0 - 0xE34]
00000706  57C0                     seq        D0
00000708  4400                     neg.b      D0
0000070A  7232                     moveq.l    D1, 0x32
0000070C  C3C7                     muls.w     D1, D7
0000070E  204D                     movea.l    A0, A5
00000710  D1C1                     add.l      A0, D1
00000712  1140 F1CC                move.b     [A0 - 0xE34], D0
00000716  6000 03DA                bra        +0x3DC /* 00000AF2 */
label0000071A:
0000071A  7032                     moveq.l    D0, 0x32
0000071C  C1C7                     muls.w     D0, D7
0000071E  204D                     movea.l    A0, A5
00000720  D1C0                     add.l      A0, D0
00000722  3D68 F1A6 FFF2           move.w     [A6 - 0xE], [A0 - 0xE5A]
00000728  7032                     moveq.l    D0, 0x32
0000072A  C1C7                     muls.w     D0, D7
0000072C  204D                     movea.l    A0, A5
0000072E  D1C0                     add.l      A0, D0
00000730  3D68 F1AA FFF6           move.w     [A6 - 0xA], [A0 - 0xE56]
00000736  7032                     moveq.l    D0, 0x32
00000738  C1C7                     muls.w     D0, D7
0000073A  204D                     movea.l    A0, A5
0000073C  D1C0                     add.l      A0, D0
0000073E  3D68 F19C FFF0           move.w     [A6 - 0x10], [A0 - 0xE64]
00000744  7032                     moveq.l    D0, 0x32
00000746  C1C7                     muls.w     D0, D7
00000748  204D                     movea.l    A0, A5
0000074A  D1C0                     add.l      A0, D0
0000074C  3D68 F1A0 FFF4           move.w     [A6 - 0xC], [A0 - 0xE60]
00000752  4227                     clr.b      -[A7]
00000754  486E FFF0                pea.l      [A6 - 0x10]
00000758  204D                     movea.l    A0, A5
0000075A  2006                     move.l     D0, D6
0000075C  48C0                     ext.l      D0
0000075E  E788                     lsl        D0, 3
00000760  D1C0                     add.l      A0, D0
00000762  4868 F33C                pea.l      [A0 - 0xCC4]
00000766  486E FFE8                pea.l      [A6 - 0x18]
0000076A  A8AA                     syscall    SectRect
0000076C  4A1F                     tst.b      [A7]+
0000076E  6700 0382                beq        +0x384 /* 00000AF2 */
00000772  7032                     moveq.l    D0, 0x32
00000774  C1C7                     muls.w     D0, D7
00000776  204D                     movea.l    A0, A5
00000778  D1C0                     add.l      A0, D0
0000077A  0C68 0004 F1BA           cmpi.w     [A0 - 0xE46], 0x4
00000780  6670                     bne        +0x72 /* 000007F2 */
00000782  7032                     moveq.l    D0, 0x32
00000784  C1C6                     muls.w     D0, D6
00000786  204D                     movea.l    A0, A5
00000788  D1C0                     add.l      A0, D0
0000078A  3028 F1B4                move.w     D0, [A0 - 0xE4C]
0000078E  E640                     asr        D0.w, 3
00000790  7232                     moveq.l    D1, 0x32
00000792  C3C6                     muls.w     D1, D6
00000794  204D                     movea.l    A0, A5
00000796  D1C1                     add.l      A0, D1
00000798  9168 F1B4                sub.w      [A0 - 0xE4C], D0
0000079C  7032                     moveq.l    D0, 0x32
0000079E  C1C6                     muls.w     D0, D6
000007A0  204D                     movea.l    A0, A5
000007A2  D1C0                     add.l      A0, D0
000007A4  0C68 0008 F1B4           cmpi.w     [A0 - 0xE4C], 0x8
000007AA  6C46                     bge        +0x48 /* 000007F2 */
000007AC  7032                     moveq.l    D0, 0x32
000007AE  C1C6                     muls.w     D0, D6
000007B0  204D                     movea.l    A0, A5
000007B2  D1C0                     add.l      A0, D0
000007B4  0C68 FFF8 F1B4           cmpi.w     [A0 - 0xE4C], 0xFFF8
000007BA  6F36                     ble        +0x38 /* 000007F2 */
000007BC  7032                     moveq.l    D0, 0x32
000007BE  C1C6                     muls.w     D0, D6
000007C0  204D                     movea.l    A0, A5
000007C2  D1C0                     add.l      A0, D0
000007C4  4A68 F1B4                tst.w      [A0 - 0xE4C]
000007C8  6F0E                     ble        +0x10 /* 000007D8 */
000007CA  7032                     moveq.l    D0, 0x32
000007CC  C1C6                     muls.w     D0, D6
000007CE  204D                     movea.l    A0, A5
000007D0  D1C0                     add.l      A0, D0
000007D2  5368 F1B4                subq.w     [A0 - 0xE4C], 1
000007D6  601A                     bra        +0x1C /* 000007F2 */
label000007D8:
000007D8  7032                     moveq.l    D0, 0x32
000007DA  C1C6                     muls.w     D0, D6
000007DC  204D                     movea.l    A0, A5
000007DE  D1C0                     add.l      A0, D0
000007E0  4A68 F1B4                tst.w      [A0 - 0xE4C]
000007E4  6C0C                     bge        +0xE /* 000007F2 */
000007E6  7032                     moveq.l    D0, 0x32
000007E8  C1C6                     muls.w     D0, D6
000007EA  204D                     movea.l    A0, A5
000007EC  D1C0                     add.l      A0, D0
000007EE  5268 F1B4                addq.w     [A0 - 0xE4C], 1
label000007F2:
000007F2  7032                     moveq.l    D0, 0x32
000007F4  C1C7                     muls.w     D0, D7
000007F6  204D                     movea.l    A0, A5
000007F8  D1C0                     add.l      A0, D0
000007FA  7032                     moveq.l    D0, 0x32
000007FC  C1C7                     muls.w     D0, D7
000007FE  224D                     movea.l    A1, A5
00000800  D3C0                     add.l      A1, D0
00000802  3028 F1AE                move.w     D0, [A0 - 0xE52]
00000806  B069 F1B2                cmp.w      D0, [A1 - 0xE4E]
0000080A  6F00 01AE                ble        +0x1B0 /* 000009BA */
0000080E  204D                     movea.l    A0, A5
00000810  2006                     move.l     D0, D6
00000812  48C0                     ext.l      D0
00000814  E788                     lsl        D0, 3
00000816  D1C0                     add.l      A0, D0
00000818  7032                     moveq.l    D0, 0x32
0000081A  C1C7                     muls.w     D0, D7
0000081C  224D                     movea.l    A1, A5
0000081E  D3C0                     add.l      A1, D0
00000820  3A29 F1A0                move.w     D5, [A1 - 0xE60]
00000824  9A68 F33C                sub.w      D5, [A0 - 0xCC4]
00000828  7032                     moveq.l    D0, 0x32
0000082A  C1C7                     muls.w     D0, D7
0000082C  204D                     movea.l    A0, A5
0000082E  D1C0                     add.l      A0, D0
00000830  9B68 F19C                sub.w      [A0 - 0xE64], D5
00000834  7032                     moveq.l    D0, 0x32
00000836  C1C7                     muls.w     D0, D7
00000838  204D                     movea.l    A0, A5
0000083A  D1C0                     add.l      A0, D0
0000083C  9B68 F1A0                sub.w      [A0 - 0xE60], D5
00000840  7032                     moveq.l    D0, 0x32
00000842  C1C7                     muls.w     D0, D7
00000844  204D                     movea.l    A0, A5
00000846  D1C0                     add.l      A0, D0
00000848  3028 F19C                move.w     D0, [A0 - 0xE64]
0000084C  E948                     lsl        D0.w, 4
0000084E  7232                     moveq.l    D1, 0x32
00000850  C3C7                     muls.w     D1, D7
00000852  204D                     movea.l    A0, A5
00000854  D1C1                     add.l      A0, D1
00000856  3140 F1AE                move.w     [A0 - 0xE52], D0
0000085A  7032                     moveq.l    D0, 0x32
0000085C  C1C7                     muls.w     D0, D7
0000085E  204D                     movea.l    A0, A5
00000860  D1C0                     add.l      A0, D0
00000862  7032                     moveq.l    D0, 0x32
00000864  C1C7                     muls.w     D0, D7
00000866  224D                     movea.l    A1, A5
00000868  D3C0                     add.l      A1, D0
0000086A  3368 F1AE F1B2           move.w     [A1 - 0xE4E], [A0 - 0xE52]
00000870  7032                     moveq.l    D0, 0x32
00000872  C1C7                     muls.w     D0, D7
00000874  204D                     movea.l    A0, A5
00000876  D1C0                     add.l      A0, D0
00000878  0C68 0008 F1B6           cmpi.w     [A0 - 0xE4A], 0x8
0000087E  6F06                     ble        +0x8 /* 00000886 */
00000880  1B7C 0001 F4A3           move.b     [A5 - 0xB5D], 0x1
label00000886:
00000886  7032                     moveq.l    D0, 0x32
00000888  C1C7                     muls.w     D0, D7
0000088A  204D                     movea.l    A0, A5
0000088C  D1C0                     add.l      A0, D0
0000088E  4A68 F1B6                tst.w      [A0 - 0xE4A]
00000892  6F1E                     ble        +0x20 /* 000008B2 */
00000894  7032                     moveq.l    D0, 0x32
00000896  C1C7                     muls.w     D0, D7
00000898  204D                     movea.l    A0, A5
0000089A  D1C0                     add.l      A0, D0
0000089C  3028 F1B6                move.w     D0, [A0 - 0xE4A]
000008A0  E240                     asr        D0.w, 1
000008A2  4440                     neg.w      D0
000008A4  7232                     moveq.l    D1, 0x32
000008A6  C3C7                     muls.w     D1, D7
000008A8  204D                     movea.l    A0, A5
000008AA  D1C1                     add.l      A0, D1
000008AC  3140 F1B6                move.w     [A0 - 0xE4A], D0
000008B0  601A                     bra        +0x1C /* 000008CC */
label000008B2:
000008B2  7032                     moveq.l    D0, 0x32
000008B4  C1C7                     muls.w     D0, D7
000008B6  204D                     movea.l    A0, A5
000008B8  D1C0                     add.l      A0, D0
000008BA  3028 F1B6                move.w     D0, [A0 - 0xE4A]
000008BE  E240                     asr        D0.w, 1
000008C0  7232                     moveq.l    D1, 0x32
000008C2  C3C7                     muls.w     D1, D7
000008C4  204D                     movea.l    A0, A5
000008C6  D1C1                     add.l      A0, D1
000008C8  3140 F1B6                move.w     [A0 - 0xE4A], D0
label000008CC:
000008CC  7032                     moveq.l    D0, 0x32
000008CE  C1C7                     muls.w     D0, D7
000008D0  204D                     movea.l    A0, A5
000008D2  D1C0                     add.l      A0, D0
000008D4  0C68 0008 F1B6           cmpi.w     [A0 - 0xE4A], 0x8
000008DA  6C00 00DE                bge        +0xE0 /* 000009BA */
000008DE  7032                     moveq.l    D0, 0x32
000008E0  C1C7                     muls.w     D0, D7
000008E2  204D                     movea.l    A0, A5
000008E4  D1C0                     add.l      A0, D0
000008E6  0C68 FFF8 F1B6           cmpi.w     [A0 - 0xE4A], 0xFFF8
000008EC  6F00 00CC                ble        +0xCE /* 000009BA */
000008F0  7032                     moveq.l    D0, 0x32
000008F2  C1C7                     muls.w     D0, D7
000008F4  204D                     movea.l    A0, A5
000008F6  D1C0                     add.l      A0, D0
000008F8  4A68 F1B4                tst.w      [A0 - 0xE4C]
000008FC  6600 00BC                bne        +0xBE /* 000009BA */
00000900  7032                     moveq.l    D0, 0x32
00000902  C1C7                     muls.w     D0, D7
00000904  204D                     movea.l    A0, A5
00000906  D1C0                     add.l      A0, D0
00000908  0C68 0004 F1BA           cmpi.w     [A0 - 0xE46], 0x4
0000090E  6600 00AA                bne        +0xAC /* 000009BA */
00000912  7032                     moveq.l    D0, 0x32
00000914  C1C7                     muls.w     D0, D7
00000916  204D                     movea.l    A0, A5
00000918  D1C0                     add.l      A0, D0
0000091A  224D                     movea.l    A1, A5
0000091C  2006                     move.l     D0, D6
0000091E  48C0                     ext.l      D0
00000920  E788                     lsl        D0, 3
00000922  D3C0                     add.l      A1, D0
00000924  70F8                     moveq.l    D0, 0xFFFFFFF8
00000926  D068 F1A2                add.w      D0, [A0 - 0xE5E]
0000092A  B069 F342                cmp.w      D0, [A1 - 0xCBE]
0000092E  6F1E                     ble        +0x20 /* 0000094E */
00000930  7032                     moveq.l    D0, 0x32
00000932  C1C7                     muls.w     D0, D7
00000934  204D                     movea.l    A0, A5
00000936  D1C0                     add.l      A0, D0
00000938  4A68 F1B4                tst.w      [A0 - 0xE4C]
0000093C  6610                     bne        +0x12 /* 0000094E */
0000093E  7032                     moveq.l    D0, 0x32
00000940  C1C7                     muls.w     D0, D7
00000942  204D                     movea.l    A0, A5
00000944  D1C0                     add.l      A0, D0
00000946  317C 0020 F1B4           move.w     [A0 - 0xE4C], 0x20 /* ' ' */
0000094C  606C                     bra        +0x6E /* 000009BA */
label0000094E:
0000094E  7032                     moveq.l    D0, 0x32
00000950  C1C7                     muls.w     D0, D7
00000952  204D                     movea.l    A0, A5
00000954  D1C0                     add.l      A0, D0
00000956  224D                     movea.l    A1, A5
00000958  2006                     move.l     D0, D6
0000095A  48C0                     ext.l      D0
0000095C  E788                     lsl        D0, 3
0000095E  D3C0                     add.l      A1, D0
00000960  7008                     moveq.l    D0, 0x08
00000962  D068 F19E                add.w      D0, [A0 - 0xE62]
00000966  B069 F33E                cmp.w      D0, [A1 - 0xCC2]
0000096A  6C1E                     bge        +0x20 /* 0000098A */
0000096C  7032                     moveq.l    D0, 0x32
0000096E  C1C7                     muls.w     D0, D7
00000970  204D                     movea.l    A0, A5
00000972  D1C0                     add.l      A0, D0
00000974  4A68 F1B4                tst.w      [A0 - 0xE4C]
00000978  6610                     bne        +0x12 /* 0000098A */
0000097A  7032                     moveq.l    D0, 0x32
0000097C  C1C7                     muls.w     D0, D7
0000097E  204D                     movea.l    A0, A5
00000980  D1C0                     add.l      A0, D0
00000982  317C FFE0 F1B4           move.w     [A0 - 0xE4C], 0xFFE0
00000988  6030                     bra        +0x32 /* 000009BA */
label0000098A:
0000098A  7032                     moveq.l    D0, 0x32
0000098C  C1C7                     muls.w     D0, D7
0000098E  204D                     movea.l    A0, A5
00000990  D1C0                     add.l      A0, D0
00000992  317C 0005 F1BA           move.w     [A0 - 0xE46], 0x5
00000998  7060                     moveq.l    D0, 0x60
0000099A  C1ED EA2C                muls.w     D0, [A5 - 0x15D4]
0000099E  7232                     moveq.l    D1, 0x32
000009A0  C3C7                     muls.w     D1, D7
000009A2  0640 0080                addi.w     D0, 0x80
000009A6  204D                     movea.l    A0, A5
000009A8  D1C1                     add.l      A0, D1
000009AA  3140 F1BE                move.w     [A0 - 0xE42], D0
000009AE  7032                     moveq.l    D0, 0x32
000009B0  C1C7                     muls.w     D0, D7
000009B2  204D                     movea.l    A0, A5
000009B4  D1C0                     add.l      A0, D0
000009B6  4268 F1B6                clr.w      [A0 - 0xE4A]
label000009BA:
000009BA  7032                     moveq.l    D0, 0x32
000009BC  C1C7                     muls.w     D0, D7
000009BE  204D                     movea.l    A0, A5
000009C0  D1C0                     add.l      A0, D0
000009C2  7032                     moveq.l    D0, 0x32
000009C4  C1C7                     muls.w     D0, D7
000009C6  224D                     movea.l    A1, A5
000009C8  D3C0                     add.l      A1, D0
000009CA  3028 F1AE                move.w     D0, [A0 - 0xE52]
000009CE  B069 F1B2                cmp.w      D0, [A1 - 0xE4E]
000009D2  6C00 011E                bge        +0x120 /* 00000AF2 */
000009D6  204D                     movea.l    A0, A5
000009D8  2006                     move.l     D0, D6
000009DA  48C0                     ext.l      D0
000009DC  E788                     lsl        D0, 3
000009DE  D1C0                     add.l      A0, D0
000009E0  7032                     moveq.l    D0, 0x32
000009E2  C1C7                     muls.w     D0, D7
000009E4  224D                     movea.l    A1, A5
000009E6  D3C0                     add.l      A1, D0
000009E8  3A29 F19C                move.w     D5, [A1 - 0xE64]
000009EC  9A68 F340                sub.w      D5, [A0 - 0xCC0]
000009F0  7032                     moveq.l    D0, 0x32
000009F2  C1C7                     muls.w     D0, D7
000009F4  204D                     movea.l    A0, A5
000009F6  D1C0                     add.l      A0, D0
000009F8  9B68 F19C                sub.w      [A0 - 0xE64], D5
000009FC  7032                     moveq.l    D0, 0x32
000009FE  C1C7                     muls.w     D0, D7
00000A00  204D                     movea.l    A0, A5
00000A02  D1C0                     add.l      A0, D0
00000A04  9B68 F1A0                sub.w      [A0 - 0xE60], D5
00000A08  7032                     moveq.l    D0, 0x32
00000A0A  C1C7                     muls.w     D0, D7
00000A0C  204D                     movea.l    A0, A5
00000A0E  D1C0                     add.l      A0, D0
00000A10  3028 F19C                move.w     D0, [A0 - 0xE64]
00000A14  E948                     lsl        D0.w, 4
00000A16  7232                     moveq.l    D1, 0x32
00000A18  C3C7                     muls.w     D1, D7
00000A1A  204D                     movea.l    A0, A5
00000A1C  D1C1                     add.l      A0, D1
00000A1E  3140 F1AE                move.w     [A0 - 0xE52], D0
00000A22  7032                     moveq.l    D0, 0x32
00000A24  C1C7                     muls.w     D0, D7
00000A26  204D                     movea.l    A0, A5
00000A28  D1C0                     add.l      A0, D0
00000A2A  7032                     moveq.l    D0, 0x32
00000A2C  C1C7                     muls.w     D0, D7
00000A2E  224D                     movea.l    A1, A5
00000A30  D3C0                     add.l      A1, D0
00000A32  3368 F1AE F1B2           move.w     [A1 - 0xE4E], [A0 - 0xE52]
00000A38  1B7C 0001 F4A3           move.b     [A5 - 0xB5D], 0x1
00000A3E  7032                     moveq.l    D0, 0x32
00000A40  C1C7                     muls.w     D0, D7
00000A42  204D                     movea.l    A0, A5
00000A44  D1C0                     add.l      A0, D0
00000A46  4A68 F1B6                tst.w      [A0 - 0xE4A]
00000A4A  6C1E                     bge        +0x20 /* 00000A6A */
00000A4C  7032                     moveq.l    D0, 0x32
00000A4E  C1C7                     muls.w     D0, D7
00000A50  204D                     movea.l    A0, A5
00000A52  D1C0                     add.l      A0, D0
00000A54  3028 F1B6                move.w     D0, [A0 - 0xE4A]
00000A58  E440                     asr        D0.w, 2
00000A5A  4440                     neg.w      D0
00000A5C  7232                     moveq.l    D1, 0x32
00000A5E  C3C7                     muls.w     D1, D7
00000A60  204D                     movea.l    A0, A5
00000A62  D1C1                     add.l      A0, D1
00000A64  3140 F1B6                move.w     [A0 - 0xE4A], D0
00000A68  601A                     bra        +0x1C /* 00000A84 */
label00000A6A:
00000A6A  7032                     moveq.l    D0, 0x32
00000A6C  C1C7                     muls.w     D0, D7
00000A6E  204D                     movea.l    A0, A5
00000A70  D1C0                     add.l      A0, D0
00000A72  3028 F1B6                move.w     D0, [A0 - 0xE4A]
00000A76  E440                     asr        D0.w, 2
00000A78  7232                     moveq.l    D1, 0x32
00000A7A  C3C7                     muls.w     D1, D7
00000A7C  204D                     movea.l    A0, A5
00000A7E  D1C1                     add.l      A0, D1
00000A80  3140 F1B6                move.w     [A0 - 0xE4A], D0
label00000A84:
00000A84  7032                     moveq.l    D0, 0x32
00000A86  C1C7                     muls.w     D0, D7
00000A88  204D                     movea.l    A0, A5
00000A8A  D1C0                     add.l      A0, D0
00000A8C  0C68 0008 F1B6           cmpi.w     [A0 - 0xE4A], 0x8
00000A92  6C5E                     bge        +0x60 /* 00000AF2 */
00000A94  7032                     moveq.l    D0, 0x32
00000A96  C1C7                     muls.w     D0, D7
00000A98  204D                     movea.l    A0, A5
00000A9A  D1C0                     add.l      A0, D0
00000A9C  0C68 FFF8 F1B6           cmpi.w     [A0 - 0xE4A], 0xFFF8
00000AA2  6F4E                     ble        +0x50 /* 00000AF2 */
00000AA4  7032                     moveq.l    D0, 0x32
00000AA6  C1C7                     muls.w     D0, D7
00000AA8  204D                     movea.l    A0, A5
00000AAA  D1C0                     add.l      A0, D0
00000AAC  4A68 F1B4                tst.w      [A0 - 0xE4C]
00000AB0  6640                     bne        +0x42 /* 00000AF2 */
00000AB2  7032                     moveq.l    D0, 0x32
00000AB4  C1C7                     muls.w     D0, D7
00000AB6  204D                     movea.l    A0, A5
00000AB8  D1C0                     add.l      A0, D0
00000ABA  0C68 0004 F1BA           cmpi.w     [A0 - 0xE46], 0x4
00000AC0  6630                     bne        +0x32 /* 00000AF2 */
00000AC2  7032                     moveq.l    D0, 0x32
00000AC4  C1C7                     muls.w     D0, D7
00000AC6  204D                     movea.l    A0, A5
00000AC8  D1C0                     add.l      A0, D0
00000ACA  317C 0005 F1BA           move.w     [A0 - 0xE46], 0x5
00000AD0  7060                     moveq.l    D0, 0x60
00000AD2  C1ED EA2C                muls.w     D0, [A5 - 0x15D4]
00000AD6  7232                     moveq.l    D1, 0x32
00000AD8  C3C7                     muls.w     D1, D7
00000ADA  0640 0080                addi.w     D0, 0x80
00000ADE  204D                     movea.l    A0, A5
00000AE0  D1C1                     add.l      A0, D1
00000AE2  3140 F1BE                move.w     [A0 - 0xE42], D0
00000AE6  7032                     moveq.l    D0, 0x32
00000AE8  C1C7                     muls.w     D0, D7
00000AEA  204D                     movea.l    A0, A5
00000AEC  D1C0                     add.l      A0, D0
00000AEE  4268 F1B6                clr.w      [A0 - 0xE4A]
label00000AF2:
00000AF2  5246                     addq.w     D6, 1
label00000AF4:
00000AF4  BC6D F48C                cmp.w      D6, [A5 - 0xB74]
00000AF8  6D00 F9F2                blt        -0x60C /* 000004EC */
00000AFC  4CDF 00E0                movem.l    D5,D6,D7, [A7]+
00000B00  4E5E                     unlink     A6
00000B02  4E75                     rts
fn00000B04:
00000B04  4E56 0000                link       A6, 0
00000B08  48E7 0300                movem.l    -[A7], D6,D7
00000B0C  3E2E 0008                move.w     D7, [A6 + 0x8]
00000B10  7032                     moveq.l    D0, 0x32
00000B12  C1C7                     muls.w     D0, D7
00000B14  204D                     movea.l    A0, A5
00000B16  D1C0                     add.l      A0, D0
00000B18  4A68 F19C                tst.w      [A0 - 0xE64]
00000B1C  6C64                     bge        +0x66 /* 00000B82 */
00000B1E  7032                     moveq.l    D0, 0x32
00000B20  C1C7                     muls.w     D0, D7
00000B22  204D                     movea.l    A0, A5
00000B24  D1C0                     add.l      A0, D0
00000B26  7C02                     moveq.l    D6, 0x02
00000B28  9C68 F19C                sub.w      D6, [A0 - 0xE64]
00000B2C  7032                     moveq.l    D0, 0x32
00000B2E  C1C7                     muls.w     D0, D7
00000B30  204D                     movea.l    A0, A5
00000B32  D1C0                     add.l      A0, D0
00000B34  DD68 F19C                add.w      [A0 - 0xE64], D6
00000B38  7032                     moveq.l    D0, 0x32
00000B3A  C1C7                     muls.w     D0, D7
00000B3C  204D                     movea.l    A0, A5
00000B3E  D1C0                     add.l      A0, D0
00000B40  DD68 F1A0                add.w      [A0 - 0xE60], D6
00000B44  7032                     moveq.l    D0, 0x32
00000B46  C1C7                     muls.w     D0, D7
00000B48  204D                     movea.l    A0, A5
00000B4A  D1C0                     add.l      A0, D0
00000B4C  3028 F19C                move.w     D0, [A0 - 0xE64]
00000B50  E948                     lsl        D0.w, 4
00000B52  7232                     moveq.l    D1, 0x32
00000B54  C3C7                     muls.w     D1, D7
00000B56  204D                     movea.l    A0, A5
00000B58  D1C1                     add.l      A0, D1
00000B5A  3140 F1AE                move.w     [A0 - 0xE52], D0
00000B5E  1B7C 0001 F4A3           move.b     [A5 - 0xB5D], 0x1
00000B64  7032                     moveq.l    D0, 0x32
00000B66  C1C7                     muls.w     D0, D7
00000B68  204D                     movea.l    A0, A5
00000B6A  D1C0                     add.l      A0, D0
00000B6C  3028 F1B6                move.w     D0, [A0 - 0xE4A]
00000B70  E440                     asr        D0.w, 2
00000B72  4440                     neg.w      D0
00000B74  7232                     moveq.l    D1, 0x32
00000B76  C3C7                     muls.w     D1, D7
00000B78  204D                     movea.l    A0, A5
00000B7A  D1C1                     add.l      A0, D1
00000B7C  3140 F1B6                move.w     [A0 - 0xE4A], D0
00000B80  6038                     bra        +0x3A /* 00000BBA */
label00000B82:
00000B82  7032                     moveq.l    D0, 0x32
00000B84  C1C7                     muls.w     D0, D7
00000B86  204D                     movea.l    A0, A5
00000B88  D1C0                     add.l      A0, D0
00000B8A  0C68 01C8 F19C           cmpi.w     [A0 - 0xE64], 0x1C8
00000B90  6F28                     ble        +0x2A /* 00000BBA */
00000B92  7032                     moveq.l    D0, 0x32
00000B94  C1C7                     muls.w     D0, D7
00000B96  204D                     movea.l    A0, A5
00000B98  D1C0                     add.l      A0, D0
00000B9A  317C 0006 F1BA           move.w     [A0 - 0xE46], 0x6
00000BA0  526D EA26                addq.w     [A5 - 0x15DA], 1
00000BA4  2F3C 0005 004B           move.l     -[A7], 0x5004B
00000BAA  4EAD 008A                jsr        [A5 + 0x8A /* export_13, CODE:2 @ 000035E8 */]
00000BAE  1EBC 0001                move.b     [A7], 0x1
00000BB2  3F07                     move.w     -[A7], D7
00000BB4  4EBA F6C2                jsr        [PC - 0x93E /* 00000278 */]
00000BB8  5C8F                     addq.l     A7, 6
label00000BBA:
00000BBA  4CDF 00C0                movem.l    D6,D7, [A7]+
00000BBE  4E5E                     unlink     A6
00000BC0  4E75                     rts
fn00000BC2:
00000BC2  4E56 0000                link       A6, 0
00000BC6  2F07                     move.l     -[A7], D7
00000BC8  3E2E 0008                move.w     D7, [A6 + 0x8]
00000BCC  7032                     moveq.l    D0, 0x32
00000BCE  C1C7                     muls.w     D0, D7
00000BD0  204D                     movea.l    A0, A5
00000BD2  D1C0                     add.l      A0, D0
00000BD4  5368 F1BE                subq.w     [A0 - 0xE42], 1
00000BD8  7032                     moveq.l    D0, 0x32
00000BDA  C1C7                     muls.w     D0, D7
00000BDC  204D                     movea.l    A0, A5
00000BDE  D1C0                     add.l      A0, D0
00000BE0  4A68 F1BE                tst.w      [A0 - 0xE42]
00000BE4  6E70                     bgt        +0x72 /* 00000C56 */
00000BE6  7032                     moveq.l    D0, 0x32
00000BE8  C1C7                     muls.w     D0, D7
00000BEA  204D                     movea.l    A0, A5
00000BEC  D1C0                     add.l      A0, D0
00000BEE  317C 0003 F1BA           move.w     [A0 - 0xE46], 0x3
00000BF4  7032                     moveq.l    D0, 0x32
00000BF6  C1C7                     muls.w     D0, D7
00000BF8  204D                     movea.l    A0, A5
00000BFA  D1C0                     add.l      A0, D0
00000BFC  7032                     moveq.l    D0, 0x32
00000BFE  C1C7                     muls.w     D0, D7
00000C00  224D                     movea.l    A1, A5
00000C02  D3C0                     add.l      A1, D0
00000C04  3368 F1AC F1B0           move.w     [A1 - 0xE50], [A0 - 0xE54]
00000C0A  7032                     moveq.l    D0, 0x32
00000C0C  C1C7                     muls.w     D0, D7
00000C0E  204D                     movea.l    A0, A5
00000C10  D1C0                     add.l      A0, D0
00000C12  7032                     moveq.l    D0, 0x32
00000C14  C1C7                     muls.w     D0, D7
00000C16  224D                     movea.l    A1, A5
00000C18  D3C0                     add.l      A1, D0
00000C1A  3368 F1AE F1B2           move.w     [A1 - 0xE4E], [A0 - 0xE52]
00000C20  7032                     moveq.l    D0, 0x32
00000C22  C1C7                     muls.w     D0, D7
00000C24  204D                     movea.l    A0, A5
00000C26  D1C0                     add.l      A0, D0
00000C28  4268 F1B4                clr.w      [A0 - 0xE4C]
00000C2C  7032                     moveq.l    D0, 0x32
00000C2E  C1C7                     muls.w     D0, D7
00000C30  204D                     movea.l    A0, A5
00000C32  D1C0                     add.l      A0, D0
00000C34  4268 F1B6                clr.w      [A0 - 0xE4A]
00000C38  7032                     moveq.l    D0, 0x32
00000C3A  C1C7                     muls.w     D0, D7
00000C3C  204D                     movea.l    A0, A5
00000C3E  D1C0                     add.l      A0, D0
00000C40  4268 F1BE                clr.w      [A0 - 0xE42]
00000C44  3F07                     move.w     -[A7], D7
00000C46  4EBA F452                jsr        [PC - 0xBAE /* 0000009A */]
00000C4A  2F3C 000D 005A           move.l     -[A7], 0xD005A /* '\r\0Z' */
00000C50  4EAD 008A                jsr        [A5 + 0x8A /* export_13, CODE:2 @ 000035E8 */]
00000C54  5C8F                     addq.l     A7, 6
label00000C56:
00000C56  2E1F                     move.l     D7, [A7]+
00000C58  4E5E                     unlink     A6
00000C5A  4E75                     rts
fn00000C5C:
00000C5C  4E56 0000                link       A6, 0
00000C60  48E7 0700                movem.l    -[A7], D5,D6,D7
00000C64  3E2E 0008                move.w     D7, [A6 + 0x8]
00000C68  7032                     moveq.l    D0, 0x32
00000C6A  C1C7                     muls.w     D0, D7
00000C6C  204D                     movea.l    A0, A5
00000C6E  D1C0                     add.l      A0, D0
00000C70  5868 F1B6                addq.w     [A0 - 0xE4A], 4
00000C74  7032                     moveq.l    D0, 0x32
00000C76  C1C7                     muls.w     D0, D7
00000C78  204D                     movea.l    A0, A5
00000C7A  D1C0                     add.l      A0, D0
00000C7C  3C2D F16C                move.w     D6, [A5 - 0xE94]
00000C80  9C68 F19C                sub.w      D6, [A0 - 0xE64]
00000C84  4A46                     tst.w      D6
00000C86  6C02                     bge        +0x4 /* 00000C8A */
00000C88  4446                     neg.w      D6
label00000C8A:
00000C8A  7032                     moveq.l    D0, 0x32
00000C8C  C1C7                     muls.w     D0, D7
00000C8E  204D                     movea.l    A0, A5
00000C90  D1C0                     add.l      A0, D0
00000C92  BC68 F1C0                cmp.w      D6, [A0 - 0xE40]
00000C96  6C00 00BE                bge        +0xC0 /* 00000D56 */
00000C9A  4A6D F192                tst.w      [A5 - 0xE6E]
00000C9E  670A                     beq        +0xC /* 00000CAA */
00000CA0  0C6D 0001 F192           cmpi.w     [A5 - 0xE6E], 0x1
00000CA6  6600 00AE                bne        +0xB0 /* 00000D56 */
label00000CAA:
00000CAA  7032                     moveq.l    D0, 0x32
00000CAC  C1C7                     muls.w     D0, D7
00000CAE  204D                     movea.l    A0, A5
00000CB0  D1C0                     add.l      A0, D0
00000CB2  302D F16E                move.w     D0, [A5 - 0xE92]
00000CB6  B068 F19E                cmp.w      D0, [A0 - 0xE62]
00000CBA  6C34                     bge        +0x36 /* 00000CF0 */
00000CBC  7032                     moveq.l    D0, 0x32
00000CBE  C1C7                     muls.w     D0, D7
00000CC0  204D                     movea.l    A0, A5
00000CC2  D1C0                     add.l      A0, D0
00000CC4  3C28 F19E                move.w     D6, [A0 - 0xE62]
00000CC8  9C6D F16E                sub.w      D6, [A5 - 0xE92]
00000CCC  0C46 0140                cmpi.w     D6, 0x140
00000CD0  6C0E                     bge        +0x10 /* 00000CE0 */
00000CD2  7032                     moveq.l    D0, 0x32
00000CD4  C1C7                     muls.w     D0, D7
00000CD6  204D                     movea.l    A0, A5
00000CD8  D1C0                     add.l      A0, D0
00000CDA  4228 F1CC                clr.b      [A0 - 0xE34]
00000CDE  6054                     bra        +0x56 /* 00000D34 */
label00000CE0:
00000CE0  7032                     moveq.l    D0, 0x32
00000CE2  C1C7                     muls.w     D0, D7
00000CE4  204D                     movea.l    A0, A5
00000CE6  D1C0                     add.l      A0, D0
00000CE8  117C 0001 F1CC           move.b     [A0 - 0xE34], 0x1
00000CEE  6044                     bra        +0x46 /* 00000D34 */
label00000CF0:
00000CF0  7032                     moveq.l    D0, 0x32
00000CF2  C1C7                     muls.w     D0, D7
00000CF4  204D                     movea.l    A0, A5
00000CF6  D1C0                     add.l      A0, D0
00000CF8  302D F16E                move.w     D0, [A5 - 0xE92]
00000CFC  B068 F19E                cmp.w      D0, [A0 - 0xE62]
00000D00  6F32                     ble        +0x34 /* 00000D34 */
00000D02  7032                     moveq.l    D0, 0x32
00000D04  C1C7                     muls.w     D0, D7
00000D06  204D                     movea.l    A0, A5
00000D08  D1C0                     add.l      A0, D0
00000D0A  3C2D F16E                move.w     D6, [A5 - 0xE92]
00000D0E  9C68 F19E                sub.w      D6, [A0 - 0xE62]
00000D12  0C46 0140                cmpi.w     D6, 0x140
00000D16  6C10                     bge        +0x12 /* 00000D28 */
00000D18  7032                     moveq.l    D0, 0x32
00000D1A  C1C7                     muls.w     D0, D7
00000D1C  204D                     movea.l    A0, A5
00000D1E  D1C0                     add.l      A0, D0
00000D20  117C 0001 F1CC           move.b     [A0 - 0xE34], 0x1
00000D26  600C                     bra        +0xE /* 00000D34 */
label00000D28:
00000D28  7032                     moveq.l    D0, 0x32
00000D2A  C1C7                     muls.w     D0, D7
00000D2C  204D                     movea.l    A0, A5
00000D2E  D1C0                     add.l      A0, D0
00000D30  4228 F1CC                clr.b      [A0 - 0xE34]
label00000D34:
00000D34  7032                     moveq.l    D0, 0x32
00000D36  C1C7                     muls.w     D0, D7
00000D38  204D                     movea.l    A0, A5
00000D3A  D1C0                     add.l      A0, D0
00000D3C  7010                     moveq.l    D0, 0x10
00000D3E  D068 F1AE                add.w      D0, [A0 - 0xE52]
00000D42  B06D F186                cmp.w      D0, [A5 - 0xE7A]
00000D46  6F0A                     ble        +0xC /* 00000D52 */
00000D48  4A2D F4A1                tst.b      [A5 - 0xB5F]
00000D4C  6704                     beq        +0x6 /* 00000D52 */
00000D4E  7A01                     moveq.l    D5, 0x01
00000D50  602A                     bra        +0x2C /* 00000D7C */
label00000D52:
00000D52  7A00                     moveq.l    D5, 0x00
00000D54  6026                     bra        +0x28 /* 00000D7C */
label00000D56:
00000D56  7032                     moveq.l    D0, 0x32
00000D58  C1C7                     muls.w     D0, D7
00000D5A  204D                     movea.l    A0, A5
00000D5C  D1C0                     add.l      A0, D0
00000D5E  7032                     moveq.l    D0, 0x32
00000D60  C1C7                     muls.w     D0, D7
00000D62  224D                     movea.l    A1, A5
00000D64  D3C0                     add.l      A1, D0
00000D66  3028 F1AE                move.w     D0, [A0 - 0xE52]
00000D6A  B069 F1C2                cmp.w      D0, [A1 - 0xE3E]
00000D6E  6F0A                     ble        +0xC /* 00000D7A */
00000D70  4A2D F4A1                tst.b      [A5 - 0xB5F]
00000D74  6704                     beq        +0x6 /* 00000D7A */
00000D76  7A01                     moveq.l    D5, 0x01
00000D78  6002                     bra        +0x4 /* 00000D7C */
label00000D7A:
00000D7A  7A00                     moveq.l    D5, 0x00
label00000D7C:
00000D7C  4A05                     tst.b      D5
00000D7E  671E                     beq        +0x20 /* 00000D9E */
00000D80  7032                     moveq.l    D0, 0x32
00000D82  C1C7                     muls.w     D0, D7
00000D84  204D                     movea.l    A0, A5
00000D86  D1C0                     add.l      A0, D0
00000D88  7032                     moveq.l    D0, 0x32
00000D8A  C1C7                     muls.w     D0, D7
00000D8C  3228 F1C4                move.w     D1, [A0 - 0xE3C]
00000D90  204D                     movea.l    A0, A5
00000D92  D1C0                     add.l      A0, D0
00000D94  9368 F1B6                sub.w      [A0 - 0xE4A], D1
00000D98  1B7C 0001 F4A2           move.b     [A5 - 0xB5E], 0x1
label00000D9E:
00000D9E  7032                     moveq.l    D0, 0x32
00000DA0  C1C7                     muls.w     D0, D7
00000DA2  204D                     movea.l    A0, A5
00000DA4  D1C0                     add.l      A0, D0
00000DA6  4A28 F1CC                tst.b      [A0 - 0xE34]
00000DAA  6700 00D2                beq        +0xD4 /* 00000E7E */
00000DAE  7032                     moveq.l    D0, 0x32
00000DB0  C1C7                     muls.w     D0, D7
00000DB2  204D                     movea.l    A0, A5
00000DB4  D1C0                     add.l      A0, D0
00000DB6  5068 F1B4                addq.w     [A0 - 0xE4C], 8
00000DBA  7032                     moveq.l    D0, 0x32
00000DBC  C1C7                     muls.w     D0, D7
00000DBE  204D                     movea.l    A0, A5
00000DC0  D1C0                     add.l      A0, D0
00000DC2  7032                     moveq.l    D0, 0x32
00000DC4  C1C7                     muls.w     D0, D7
00000DC6  224D                     movea.l    A1, A5
00000DC8  D3C0                     add.l      A1, D0
00000DCA  3028 F1B4                move.w     D0, [A0 - 0xE4C]
00000DCE  B069 F1C8                cmp.w      D0, [A1 - 0xE38]
00000DD2  6F16                     ble        +0x18 /* 00000DEA */
00000DD4  7032                     moveq.l    D0, 0x32
00000DD6  C1C7                     muls.w     D0, D7
00000DD8  204D                     movea.l    A0, A5
00000DDA  D1C0                     add.l      A0, D0
00000DDC  7032                     moveq.l    D0, 0x32
00000DDE  C1C7                     muls.w     D0, D7
00000DE0  224D                     movea.l    A1, A5
00000DE2  D3C0                     add.l      A1, D0
00000DE4  3368 F1C8 F1B4           move.w     [A1 - 0xE4C], [A0 - 0xE38]
label00000DEA:
00000DEA  7032                     moveq.l    D0, 0x32
00000DEC  C1C7                     muls.w     D0, D7
00000DEE  204D                     movea.l    A0, A5
00000DF0  D1C0                     add.l      A0, D0
00000DF2  3028 F1BC                move.w     D0, [A0 - 0xE44]
00000DF6  670E                     beq        +0x10 /* 00000E06 */
00000DF8  6B00 0148                bmi        +0x14A /* 00000F42 */
00000DFC  5540                     subq.w     D0, 2
00000DFE  6756                     beq        +0x58 /* 00000E56 */
00000E00  6A00 0140                bpl        +0x142 /* 00000F42 */
00000E04  6028                     bra        +0x2A /* 00000E2E */
label00000E06:
00000E06  4A05                     tst.b      D5
00000E08  6712                     beq        +0x14 /* 00000E1C */
00000E0A  7032                     moveq.l    D0, 0x32
00000E0C  C1C7                     muls.w     D0, D7
00000E0E  204D                     movea.l    A0, A5
00000E10  D1C0                     add.l      A0, D0
00000E12  317C 000C F1B8           move.w     [A0 - 0xE48], 0xC
00000E18  6000 0128                bra        +0x12A /* 00000F42 */
label00000E1C:
00000E1C  7032                     moveq.l    D0, 0x32
00000E1E  C1C7                     muls.w     D0, D7
00000E20  204D                     movea.l    A0, A5
00000E22  D1C0                     add.l      A0, D0
00000E24  317C 000D F1B8           move.w     [A0 - 0xE48], 0xD /* '\r' */
00000E2A  6000 0116                bra        +0x118 /* 00000F42 */
label00000E2E:
00000E2E  4A05                     tst.b      D5
00000E30  6712                     beq        +0x14 /* 00000E44 */
00000E32  7032                     moveq.l    D0, 0x32
00000E34  C1C7                     muls.w     D0, D7
00000E36  204D                     movea.l    A0, A5
00000E38  D1C0                     add.l      A0, D0
00000E3A  317C 0010 F1B8           move.w     [A0 - 0xE48], 0x10
00000E40  6000 0100                bra        +0x102 /* 00000F42 */
label00000E44:
00000E44  7032                     moveq.l    D0, 0x32
00000E46  C1C7                     muls.w     D0, D7
00000E48  204D                     movea.l    A0, A5
00000E4A  D1C0                     add.l      A0, D0
00000E4C  317C 0011 F1B8           move.w     [A0 - 0xE48], 0x11
00000E52  6000 00EE                bra        +0xF0 /* 00000F42 */
label00000E56:
00000E56  4A05                     tst.b      D5
00000E58  6712                     beq        +0x14 /* 00000E6C */
00000E5A  7032                     moveq.l    D0, 0x32
00000E5C  C1C7                     muls.w     D0, D7
00000E5E  204D                     movea.l    A0, A5
00000E60  D1C0                     add.l      A0, D0
00000E62  317C 0014 F1B8           move.w     [A0 - 0xE48], 0x14
00000E68  6000 00D8                bra        +0xDA /* 00000F42 */
label00000E6C:
00000E6C  7032                     moveq.l    D0, 0x32
00000E6E  C1C7                     muls.w     D0, D7
00000E70  204D                     movea.l    A0, A5
00000E72  D1C0                     add.l      A0, D0
00000E74  317C 0015 F1B8           move.w     [A0 - 0xE48], 0x15
00000E7A  6000 00C6                bra        +0xC8 /* 00000F42 */
label00000E7E:
00000E7E  7032                     moveq.l    D0, 0x32
00000E80  C1C7                     muls.w     D0, D7
00000E82  204D                     movea.l    A0, A5
00000E84  D1C0                     add.l      A0, D0
00000E86  5168 F1B4                subq.w     [A0 - 0xE4C], 8
00000E8A  7032                     moveq.l    D0, 0x32
00000E8C  C1C7                     muls.w     D0, D7
00000E8E  204D                     movea.l    A0, A5
00000E90  D1C0                     add.l      A0, D0
00000E92  7032                     moveq.l    D0, 0x32
00000E94  C1C7                     muls.w     D0, D7
00000E96  224D                     movea.l    A1, A5
00000E98  D3C0                     add.l      A1, D0
00000E9A  3029 F1C8                move.w     D0, [A1 - 0xE38]
00000E9E  4440                     neg.w      D0
00000EA0  B068 F1B4                cmp.w      D0, [A0 - 0xE4C]
00000EA4  6F1A                     ble        +0x1C /* 00000EC0 */
00000EA6  7032                     moveq.l    D0, 0x32
00000EA8  C1C7                     muls.w     D0, D7
00000EAA  204D                     movea.l    A0, A5
00000EAC  D1C0                     add.l      A0, D0
00000EAE  3028 F1C8                move.w     D0, [A0 - 0xE38]
00000EB2  4440                     neg.w      D0
00000EB4  7232                     moveq.l    D1, 0x32
00000EB6  C3C7                     muls.w     D1, D7
00000EB8  204D                     movea.l    A0, A5
00000EBA  D1C1                     add.l      A0, D1
00000EBC  3140 F1B4                move.w     [A0 - 0xE4C], D0
label00000EC0:
00000EC0  7032                     moveq.l    D0, 0x32
00000EC2  C1C7                     muls.w     D0, D7
00000EC4  204D                     movea.l    A0, A5
00000EC6  D1C0                     add.l      A0, D0
00000EC8  3028 F1BC                move.w     D0, [A0 - 0xE44]
00000ECC  670A                     beq        +0xC /* 00000ED8 */
00000ECE  6B72                     bmi        +0x74 /* 00000F42 */
00000ED0  5540                     subq.w     D0, 2
00000ED2  674C                     beq        +0x4E /* 00000F20 */
00000ED4  6A6C                     bpl        +0x6E /* 00000F42 */
00000ED6  6024                     bra        +0x26 /* 00000EFC */
label00000ED8:
00000ED8  4A05                     tst.b      D5
00000EDA  6710                     beq        +0x12 /* 00000EEC */
00000EDC  7032                     moveq.l    D0, 0x32
00000EDE  C1C7                     muls.w     D0, D7
00000EE0  204D                     movea.l    A0, A5
00000EE2  D1C0                     add.l      A0, D0
00000EE4  317C 000E F1B8           move.w     [A0 - 0xE48], 0xE
00000EEA  6056                     bra        +0x58 /* 00000F42 */
label00000EEC:
00000EEC  7032                     moveq.l    D0, 0x32
00000EEE  C1C7                     muls.w     D0, D7
00000EF0  204D                     movea.l    A0, A5
00000EF2  D1C0                     add.l      A0, D0
00000EF4  317C 000F F1B8           move.w     [A0 - 0xE48], 0xF
00000EFA  6046                     bra        +0x48 /* 00000F42 */
label00000EFC:
00000EFC  4A05                     tst.b      D5
00000EFE  6710                     beq        +0x12 /* 00000F10 */
00000F00  7032                     moveq.l    D0, 0x32
00000F02  C1C7                     muls.w     D0, D7
00000F04  204D                     movea.l    A0, A5
00000F06  D1C0                     add.l      A0, D0
00000F08  317C 0012 F1B8           move.w     [A0 - 0xE48], 0x12
00000F0E  6032                     bra        +0x34 /* 00000F42 */
label00000F10:
00000F10  7032                     moveq.l    D0, 0x32
00000F12  C1C7                     muls.w     D0, D7
00000F14  204D                     movea.l    A0, A5
00000F16  D1C0                     add.l      A0, D0
00000F18  317C 0013 F1B8           move.w     [A0 - 0xE48], 0x13
00000F1E  6022                     bra        +0x24 /* 00000F42 */
label00000F20:
00000F20  4A05                     tst.b      D5
00000F22  6710                     beq        +0x12 /* 00000F34 */
00000F24  7032                     moveq.l    D0, 0x32
00000F26  C1C7                     muls.w     D0, D7
00000F28  204D                     movea.l    A0, A5
00000F2A  D1C0                     add.l      A0, D0
00000F2C  317C 0016 F1B8           move.w     [A0 - 0xE48], 0x16
00000F32  600E                     bra        +0x10 /* 00000F42 */
label00000F34:
00000F34  7032                     moveq.l    D0, 0x32
00000F36  C1C7                     muls.w     D0, D7
00000F38  204D                     movea.l    A0, A5
00000F3A  D1C0                     add.l      A0, D0
00000F3C  317C 0017 F1B8           move.w     [A0 - 0xE48], 0x17
label00000F42:
00000F42  7032                     moveq.l    D0, 0x32
00000F44  C1C7                     muls.w     D0, D7
00000F46  204D                     movea.l    A0, A5
00000F48  D1C0                     add.l      A0, D0
00000F4A  7032                     moveq.l    D0, 0x32
00000F4C  C1C7                     muls.w     D0, D7
00000F4E  3228 F1B4                move.w     D1, [A0 - 0xE4C]
00000F52  204D                     movea.l    A0, A5
00000F54  D1C0                     add.l      A0, D0
00000F56  D368 F1AC                add.w      [A0 - 0xE54], D1
00000F5A  7032                     moveq.l    D0, 0x32
00000F5C  C1C7                     muls.w     D0, D7
00000F5E  204D                     movea.l    A0, A5
00000F60  D1C0                     add.l      A0, D0
00000F62  3028 F1AC                move.w     D0, [A0 - 0xE54]
00000F66  E840                     asr        D0.w, 4
00000F68  7232                     moveq.l    D1, 0x32
00000F6A  C3C7                     muls.w     D1, D7
00000F6C  204D                     movea.l    A0, A5
00000F6E  D1C1                     add.l      A0, D1
00000F70  3140 F19E                move.w     [A0 - 0xE62], D0
00000F74  7032                     moveq.l    D0, 0x32
00000F76  C1C7                     muls.w     D0, D7
00000F78  204D                     movea.l    A0, A5
00000F7A  D1C0                     add.l      A0, D0
00000F7C  7032                     moveq.l    D0, 0x32
00000F7E  C1C7                     muls.w     D0, D7
00000F80  7240                     moveq.l    D1, 0x40
00000F82  D268 F19E                add.w      D1, [A0 - 0xE62]
00000F86  204D                     movea.l    A0, A5
00000F88  D1C0                     add.l      A0, D0
00000F8A  3141 F1A2                move.w     [A0 - 0xE5E], D1
00000F8E  7032                     moveq.l    D0, 0x32
00000F90  C1C7                     muls.w     D0, D7
00000F92  204D                     movea.l    A0, A5
00000F94  D1C0                     add.l      A0, D0
00000F96  7032                     moveq.l    D0, 0x32
00000F98  C1C7                     muls.w     D0, D7
00000F9A  3228 F1B6                move.w     D1, [A0 - 0xE4A]
00000F9E  204D                     movea.l    A0, A5
00000FA0  D1C0                     add.l      A0, D0
00000FA2  D368 F1AE                add.w      [A0 - 0xE52], D1
00000FA6  7032                     moveq.l    D0, 0x32
00000FA8  C1C7                     muls.w     D0, D7
00000FAA  204D                     movea.l    A0, A5
00000FAC  D1C0                     add.l      A0, D0
00000FAE  3028 F1AE                move.w     D0, [A0 - 0xE52]
00000FB2  E840                     asr        D0.w, 4
00000FB4  7232                     moveq.l    D1, 0x32
00000FB6  C3C7                     muls.w     D1, D7
00000FB8  204D                     movea.l    A0, A5
00000FBA  D1C1                     add.l      A0, D1
00000FBC  3140 F19C                move.w     [A0 - 0xE64], D0
00000FC0  7032                     moveq.l    D0, 0x32
00000FC2  C1C7                     muls.w     D0, D7
00000FC4  204D                     movea.l    A0, A5
00000FC6  D1C0                     add.l      A0, D0
00000FC8  7032                     moveq.l    D0, 0x32
00000FCA  C1C7                     muls.w     D0, D7
00000FCC  7228                     moveq.l    D1, 0x28
00000FCE  D268 F19C                add.w      D1, [A0 - 0xE64]
00000FD2  204D                     movea.l    A0, A5
00000FD4  D1C0                     add.l      A0, D0
00000FD6  3141 F1A0                move.w     [A0 - 0xE60], D1
00000FDA  7032                     moveq.l    D0, 0x32
00000FDC  C1C7                     muls.w     D0, D7
00000FDE  204D                     movea.l    A0, A5
00000FE0  D1C0                     add.l      A0, D0
00000FE2  0C68 0280 F19E           cmpi.w     [A0 - 0xE62], 0x280
00000FE8  6F00 0082                ble        +0x84 /* 0000106C */
00000FEC  7032                     moveq.l    D0, 0x32
00000FEE  C1C7                     muls.w     D0, D7
00000FF0  204D                     movea.l    A0, A5
00000FF2  D1C0                     add.l      A0, D0
00000FF4  4868 F19C                pea.l      [A0 - 0xE64]
00000FF8  2F3C 0000 FD80           move.l     -[A7], 0xFD80
00000FFE  A8A8                     syscall    OffsetRect
00001000  7032                     moveq.l    D0, 0x32
00001002  C1C7                     muls.w     D0, D7
00001004  204D                     movea.l    A0, A5
00001006  D1C0                     add.l      A0, D0
00001008  3028 F19E                move.w     D0, [A0 - 0xE62]
0000100C  E948                     lsl        D0.w, 4
0000100E  7232                     moveq.l    D1, 0x32
00001010  C3C7                     muls.w     D1, D7
00001012  204D                     movea.l    A0, A5
00001014  D1C1                     add.l      A0, D1
00001016  3140 F1AC                move.w     [A0 - 0xE54], D0
0000101A  7032                     moveq.l    D0, 0x32
0000101C  C1C7                     muls.w     D0, D7
0000101E  204D                     movea.l    A0, A5
00001020  D1C0                     add.l      A0, D0
00001022  4868 F1A4                pea.l      [A0 - 0xE5C]
00001026  2F3C 0000 FD80           move.l     -[A7], 0xFD80
0000102C  A8A8                     syscall    OffsetRect
0000102E  7032                     moveq.l    D0, 0x32
00001030  C1C7                     muls.w     D0, D7
00001032  204D                     movea.l    A0, A5
00001034  D1C0                     add.l      A0, D0
00001036  5268 F1C6                addq.w     [A0 - 0xE3A], 1
0000103A  7032                     moveq.l    D0, 0x32
0000103C  C1C7                     muls.w     D0, D7
0000103E  204D                     movea.l    A0, A5
00001040  D1C0                     add.l      A0, D0
00001042  0C68 0002 F1C6           cmpi.w     [A0 - 0xE3A], 0x2
00001048  6F00 00A6                ble        +0xA8 /* 000010F0 */
0000104C  4EBA F1EA                jsr        [PC - 0xE16 /* 00000238 */]
00001050  7232                     moveq.l    D1, 0x32
00001052  C3C7                     muls.w     D1, D7
00001054  204D                     movea.l    A0, A5
00001056  D1C1                     add.l      A0, D1
00001058  3140 F1C2                move.w     [A0 - 0xE3E], D0
0000105C  7032                     moveq.l    D0, 0x32
0000105E  C1C7                     muls.w     D0, D7
00001060  204D                     movea.l    A0, A5
00001062  D1C0                     add.l      A0, D0
00001064  4268 F1C6                clr.w      [A0 - 0xE3A]
00001068  6000 0086                bra        +0x88 /* 000010F0 */
label0000106C:
0000106C  7032                     moveq.l    D0, 0x32
0000106E  C1C7                     muls.w     D0, D7
00001070  204D                     movea.l    A0, A5
00001072  D1C0                     add.l      A0, D0
00001074  4A68 F1A2                tst.w      [A0 - 0xE5E]
00001078  6C76                     bge        +0x78 /* 000010F0 */
0000107A  7032                     moveq.l    D0, 0x32
0000107C  C1C7                     muls.w     D0, D7
0000107E  204D                     movea.l    A0, A5
00001080  D1C0                     add.l      A0, D0
00001082  4868 F19C                pea.l      [A0 - 0xE64]
00001086  4878 0280                push.l     0x280
0000108A  A8A8                     syscall    OffsetRect
0000108C  7032                     moveq.l    D0, 0x32
0000108E  C1C7                     muls.w     D0, D7
00001090  204D                     movea.l    A0, A5
00001092  D1C0                     add.l      A0, D0
00001094  3028 F19E                move.w     D0, [A0 - 0xE62]
00001098  E948                     lsl        D0.w, 4
0000109A  7232                     moveq.l    D1, 0x32
0000109C  C3C7                     muls.w     D1, D7
0000109E  204D                     movea.l    A0, A5
000010A0  D1C1                     add.l      A0, D1
000010A2  3140 F1AC                move.w     [A0 - 0xE54], D0
000010A6  7032                     moveq.l    D0, 0x32
000010A8  C1C7                     muls.w     D0, D7
000010AA  204D                     movea.l    A0, A5
000010AC  D1C0                     add.l      A0, D0
000010AE  4868 F1A4                pea.l      [A0 - 0xE5C]
000010B2  4878 0280                push.l     0x280
000010B6  A8A8                     syscall    OffsetRect
000010B8  7032                     moveq.l    D0, 0x32
000010BA  C1C7                     muls.w     D0, D7
000010BC  204D                     movea.l    A0, A5
000010BE  D1C0                     add.l      A0, D0
000010C0  5268 F1C6                addq.w     [A0 - 0xE3A], 1
000010C4  7032                     moveq.l    D0, 0x32
000010C6  C1C7                     muls.w     D0, D7
000010C8  204D                     movea.l    A0, A5
000010CA  D1C0                     add.l      A0, D0
000010CC  0C68 0002 F1C6           cmpi.w     [A0 - 0xE3A], 0x2
000010D2  6F1C                     ble        +0x1E /* 000010F0 */
000010D4  4EBA F162                jsr        [PC - 0xE9E /* 00000238 */]
000010D8  7232                     moveq.l    D1, 0x32
000010DA  C3C7                     muls.w     D1, D7
000010DC  204D                     movea.l    A0, A5
000010DE  D1C1                     add.l      A0, D1
000010E0  3140 F1C2                move.w     [A0 - 0xE3E], D0
000010E4  7032                     moveq.l    D0, 0x32
000010E6  C1C7                     muls.w     D0, D7
000010E8  204D                     movea.l    A0, A5
000010EA  D1C0                     add.l      A0, D0
000010EC  4268 F1C6                clr.w      [A0 - 0xE3A]
label000010F0:
000010F0  7032                     moveq.l    D0, 0x32
000010F2  C1C7                     muls.w     D0, D7
000010F4  204D                     movea.l    A0, A5
000010F6  D1C0                     add.l      A0, D0
000010F8  3028 F1B6                move.w     D0, [A0 - 0xE4A]
000010FC  E840                     asr        D0.w, 4
000010FE  7232                     moveq.l    D1, 0x32
00001100  C3C7                     muls.w     D1, D7
00001102  204D                     movea.l    A0, A5
00001104  D1C1                     add.l      A0, D1
00001106  9168 F1B6                sub.w      [A0 - 0xE4A], D0
0000110A  7032                     moveq.l    D0, 0x32
0000110C  C1C7                     muls.w     D0, D7
0000110E  204D                     movea.l    A0, A5
00001110  D1C0                     add.l      A0, D0
00001112  7032                     moveq.l    D0, 0x32
00001114  C1C7                     muls.w     D0, D7
00001116  224D                     movea.l    A1, A5
00001118  D3C0                     add.l      A1, D0
0000111A  3028 F1B6                move.w     D0, [A0 - 0xE4A]
0000111E  B069 F1CA                cmp.w      D0, [A1 - 0xE36]
00001122  6F18                     ble        +0x1A /* 0000113C */
00001124  7032                     moveq.l    D0, 0x32
00001126  C1C7                     muls.w     D0, D7
00001128  204D                     movea.l    A0, A5
0000112A  D1C0                     add.l      A0, D0
0000112C  7032                     moveq.l    D0, 0x32
0000112E  C1C7                     muls.w     D0, D7
00001130  224D                     movea.l    A1, A5
00001132  D3C0                     add.l      A1, D0
00001134  3368 F1CA F1B6           move.w     [A1 - 0xE4A], [A0 - 0xE36]
0000113A  6036                     bra        +0x38 /* 00001172 */
label0000113C:
0000113C  7032                     moveq.l    D0, 0x32
0000113E  C1C7                     muls.w     D0, D7
00001140  204D                     movea.l    A0, A5
00001142  D1C0                     add.l      A0, D0
00001144  7032                     moveq.l    D0, 0x32
00001146  C1C7                     muls.w     D0, D7
00001148  224D                     movea.l    A1, A5
0000114A  D3C0                     add.l      A1, D0
0000114C  3029 F1CA                move.w     D0, [A1 - 0xE36]
00001150  4440                     neg.w      D0
00001152  B068 F1B6                cmp.w      D0, [A0 - 0xE4A]
00001156  6F1A                     ble        +0x1C /* 00001172 */
00001158  7032                     moveq.l    D0, 0x32
0000115A  C1C7                     muls.w     D0, D7
0000115C  204D                     movea.l    A0, A5
0000115E  D1C0                     add.l      A0, D0
00001160  3028 F1CA                move.w     D0, [A0 - 0xE36]
00001164  4440                     neg.w      D0
00001166  7232                     moveq.l    D1, 0x32
00001168  C3C7                     muls.w     D1, D7
0000116A  204D                     movea.l    A0, A5
0000116C  D1C1                     add.l      A0, D1
0000116E  3140 F1B6                move.w     [A0 - 0xE4A], D0
label00001172:
00001172  3F07                     move.w     -[A7], D7
00001174  4EBA F98E                jsr        [PC - 0x672 /* 00000B04 */]
00001178  3E87                     move.w     [A7], D7
0000117A  4EBA F35E                jsr        [PC - 0xCA2 /* 000004DA */]
0000117E  4CEE 00E0 FFF4           movem.l    D5,D6,D7, [A6 - 0xC]
00001184  4E5E                     unlink     A6
00001186  4E75                     rts
fn00001188:
00001188  4E56 0000                link       A6, 0
0000118C  2F07                     move.l     -[A7], D7
0000118E  3E2E 0008                move.w     D7, [A6 + 0x8]
00001192  7032                     moveq.l    D0, 0x32
00001194  C1C7                     muls.w     D0, D7
00001196  204D                     movea.l    A0, A5
00001198  D1C0                     add.l      A0, D0
0000119A  4A28 F1CC                tst.b      [A0 - 0xE34]
0000119E  6700 0096                beq        +0x98 /* 00001236 */
000011A2  7032                     moveq.l    D0, 0x32
000011A4  C1C7                     muls.w     D0, D7
000011A6  204D                     movea.l    A0, A5
000011A8  D1C0                     add.l      A0, D0
000011AA  5C68 F19E                addq.w     [A0 - 0xE62], 6
000011AE  7032                     moveq.l    D0, 0x32
000011B0  C1C7                     muls.w     D0, D7
000011B2  204D                     movea.l    A0, A5
000011B4  D1C0                     add.l      A0, D0
000011B6  5C68 F1A2                addq.w     [A0 - 0xE5E], 6
000011BA  7032                     moveq.l    D0, 0x32
000011BC  C1C7                     muls.w     D0, D7
000011BE  204D                     movea.l    A0, A5
000011C0  D1C0                     add.l      A0, D0
000011C2  3028 F1BC                move.w     D0, [A0 - 0xE44]
000011C6  670A                     beq        +0xC /* 000011D2 */
000011C8  6B5A                     bmi        +0x5C /* 00001224 */
000011CA  5540                     subq.w     D0, 2
000011CC  673C                     beq        +0x3E /* 0000120A */
000011CE  6A54                     bpl        +0x56 /* 00001224 */
000011D0  601C                     bra        +0x1E /* 000011EE */
label000011D2:
000011D2  7032                     moveq.l    D0, 0x32
000011D4  C1C7                     muls.w     D0, D7
000011D6  204D                     movea.l    A0, A5
000011D8  D1C0                     add.l      A0, D0
000011DA  7001                     moveq.l    D0, 0x01
000011DC  9068 F1B8                sub.w      D0, [A0 - 0xE48]
000011E0  7232                     moveq.l    D1, 0x32
000011E2  C3C7                     muls.w     D1, D7
000011E4  204D                     movea.l    A0, A5
000011E6  D1C1                     add.l      A0, D1
000011E8  3140 F1B8                move.w     [A0 - 0xE48], D0
000011EC  6036                     bra        +0x38 /* 00001224 */
label000011EE:
000011EE  7032                     moveq.l    D0, 0x32
000011F0  C1C7                     muls.w     D0, D7
000011F2  204D                     movea.l    A0, A5
000011F4  D1C0                     add.l      A0, D0
000011F6  7009                     moveq.l    D0, 0x09
000011F8  9068 F1B8                sub.w      D0, [A0 - 0xE48]
000011FC  7232                     moveq.l    D1, 0x32
000011FE  C3C7                     muls.w     D1, D7
00001200  204D                     movea.l    A0, A5
00001202  D1C1                     add.l      A0, D1
00001204  3140 F1B8                move.w     [A0 - 0xE48], D0
00001208  601A                     bra        +0x1C /* 00001224 */
label0000120A:
0000120A  7032                     moveq.l    D0, 0x32
0000120C  C1C7                     muls.w     D0, D7
0000120E  204D                     movea.l    A0, A5
00001210  D1C0                     add.l      A0, D0
00001212  7011                     moveq.l    D0, 0x11
00001214  9068 F1B8                sub.w      D0, [A0 - 0xE48]
00001218  7232                     moveq.l    D1, 0x32
0000121A  C3C7                     muls.w     D1, D7
0000121C  204D                     movea.l    A0, A5
0000121E  D1C1                     add.l      A0, D1
00001220  3140 F1B8                move.w     [A0 - 0xE48], D0
label00001224:
00001224  7032                     moveq.l    D0, 0x32
00001226  C1C7                     muls.w     D0, D7
00001228  204D                     movea.l    A0, A5
0000122A  D1C0                     add.l      A0, D0
0000122C  317C 0060 F1B4           move.w     [A0 - 0xE4C], 0x60 /* '`' */
00001232  6000 0092                bra        +0x94 /* 000012C6 */
label00001236:
00001236  7032                     moveq.l    D0, 0x32
00001238  C1C7                     muls.w     D0, D7
0000123A  204D                     movea.l    A0, A5
0000123C  D1C0                     add.l      A0, D0
0000123E  5D68 F19E                subq.w     [A0 - 0xE62], 6
00001242  7032                     moveq.l    D0, 0x32
00001244  C1C7                     muls.w     D0, D7
00001246  204D                     movea.l    A0, A5
00001248  D1C0                     add.l      A0, D0
0000124A  5D68 F1A2                subq.w     [A0 - 0xE5E], 6
0000124E  7032                     moveq.l    D0, 0x32
00001250  C1C7                     muls.w     D0, D7
00001252  204D                     movea.l    A0, A5
00001254  D1C0                     add.l      A0, D0
00001256  3028 F1BC                move.w     D0, [A0 - 0xE44]
0000125A  670A                     beq        +0xC /* 00001266 */
0000125C  6B5A                     bmi        +0x5C /* 000012B8 */
0000125E  5540                     subq.w     D0, 2
00001260  673C                     beq        +0x3E /* 0000129E */
00001262  6A54                     bpl        +0x56 /* 000012B8 */
00001264  601C                     bra        +0x1E /* 00001282 */
label00001266:
00001266  7032                     moveq.l    D0, 0x32
00001268  C1C7                     muls.w     D0, D7
0000126A  204D                     movea.l    A0, A5
0000126C  D1C0                     add.l      A0, D0
0000126E  7005                     moveq.l    D0, 0x05
00001270  9068 F1B8                sub.w      D0, [A0 - 0xE48]
00001274  7232                     moveq.l    D1, 0x32
00001276  C3C7                     muls.w     D1, D7
00001278  204D                     movea.l    A0, A5
0000127A  D1C1                     add.l      A0, D1
0000127C  3140 F1B8                move.w     [A0 - 0xE48], D0
00001280  6036                     bra        +0x38 /* 000012B8 */
label00001282:
00001282  7032                     moveq.l    D0, 0x32
00001284  C1C7                     muls.w     D0, D7
00001286  204D                     movea.l    A0, A5
00001288  D1C0                     add.l      A0, D0
0000128A  700D                     moveq.l    D0, 0x0D
0000128C  9068 F1B8                sub.w      D0, [A0 - 0xE48]
00001290  7232                     moveq.l    D1, 0x32
00001292  C3C7                     muls.w     D1, D7
00001294  204D                     movea.l    A0, A5
00001296  D1C1                     add.l      A0, D1
00001298  3140 F1B8                move.w     [A0 - 0xE48], D0
0000129C  601A                     bra        +0x1C /* 000012B8 */
label0000129E:
0000129E  7032                     moveq.l    D0, 0x32
000012A0  C1C7                     muls.w     D0, D7
000012A2  204D                     movea.l    A0, A5
000012A4  D1C0                     add.l      A0, D0
000012A6  7015                     moveq.l    D0, 0x15
000012A8  9068 F1B8                sub.w      D0, [A0 - 0xE48]
000012AC  7232                     moveq.l    D1, 0x32
000012AE  C3C7                     muls.w     D1, D7
000012B0  204D                     movea.l    A0, A5
000012B2  D1C1                     add.l      A0, D1
000012B4  3140 F1B8                move.w     [A0 - 0xE48], D0
label000012B8:
000012B8  7032                     moveq.l    D0, 0x32
000012BA  C1C7                     muls.w     D0, D7
000012BC  204D                     movea.l    A0, A5
000012BE  D1C0                     add.l      A0, D0
000012C0  317C FFA0 F1B4           move.w     [A0 - 0xE4C], 0xFFA0
label000012C6:
000012C6  7032                     moveq.l    D0, 0x32
000012C8  C1C7                     muls.w     D0, D7
000012CA  204D                     movea.l    A0, A5
000012CC  D1C0                     add.l      A0, D0
000012CE  5268 F1BE                addq.w     [A0 - 0xE42], 1
000012D2  7032                     moveq.l    D0, 0x32
000012D4  C1C7                     muls.w     D0, D7
000012D6  204D                     movea.l    A0, A5
000012D8  D1C0                     add.l      A0, D0
000012DA  0C68 0008 F1BE           cmpi.w     [A0 - 0xE42], 0x8
000012E0  6D00 0124                blt        +0x126 /* 00001406 */
000012E4  7032                     moveq.l    D0, 0x32
000012E6  C1C7                     muls.w     D0, D7
000012E8  204D                     movea.l    A0, A5
000012EA  D1C0                     add.l      A0, D0
000012EC  4268 F1BA                clr.w      [A0 - 0xE46]
000012F0  7032                     moveq.l    D0, 0x32
000012F2  C1C7                     muls.w     D0, D7
000012F4  204D                     movea.l    A0, A5
000012F6  D1C0                     add.l      A0, D0
000012F8  4268 F1BE                clr.w      [A0 - 0xE42]
000012FC  7032                     moveq.l    D0, 0x32
000012FE  C1C7                     muls.w     D0, D7
00001300  204D                     movea.l    A0, A5
00001302  D1C0                     add.l      A0, D0
00001304  3028 F1BC                move.w     D0, [A0 - 0xE44]
00001308  670E                     beq        +0x10 /* 00001318 */
0000130A  6B00 0094                bmi        +0x96 /* 000013A0 */
0000130E  5540                     subq.w     D0, 2
00001310  6762                     beq        +0x64 /* 00001374 */
00001312  6A00 008C                bpl        +0x8E /* 000013A0 */
00001316  602E                     bra        +0x30 /* 00001346 */
label00001318:
00001318  7032                     moveq.l    D0, 0x32
0000131A  C1C7                     muls.w     D0, D7
0000131C  204D                     movea.l    A0, A5
0000131E  D1C0                     add.l      A0, D0
00001320  4A28 F1CC                tst.b      [A0 - 0xE34]
00001324  6710                     beq        +0x12 /* 00001336 */
00001326  7032                     moveq.l    D0, 0x32
00001328  C1C7                     muls.w     D0, D7
0000132A  204D                     movea.l    A0, A5
0000132C  D1C0                     add.l      A0, D0
0000132E  317C 000C F1B8           move.w     [A0 - 0xE48], 0xC
00001334  606A                     bra        +0x6C /* 000013A0 */
label00001336:
00001336  7032                     moveq.l    D0, 0x32
00001338  C1C7                     muls.w     D0, D7
0000133A  204D                     movea.l    A0, A5
0000133C  D1C0                     add.l      A0, D0
0000133E  317C 000E F1B8           move.w     [A0 - 0xE48], 0xE
00001344  605A                     bra        +0x5C /* 000013A0 */
label00001346:
00001346  7032                     moveq.l    D0, 0x32
00001348  C1C7                     muls.w     D0, D7
0000134A  204D                     movea.l    A0, A5
0000134C  D1C0                     add.l      A0, D0
0000134E  4A28 F1CC                tst.b      [A0 - 0xE34]
00001352  6710                     beq        +0x12 /* 00001364 */
00001354  7032                     moveq.l    D0, 0x32
00001356  C1C7                     muls.w     D0, D7
00001358  204D                     movea.l    A0, A5
0000135A  D1C0                     add.l      A0, D0
0000135C  317C 0010 F1B8           move.w     [A0 - 0xE48], 0x10
00001362  603C                     bra        +0x3E /* 000013A0 */
label00001364:
00001364  7032                     moveq.l    D0, 0x32
00001366  C1C7                     muls.w     D0, D7
00001368  204D                     movea.l    A0, A5
0000136A  D1C0                     add.l      A0, D0
0000136C  317C 0012 F1B8           move.w     [A0 - 0xE48], 0x12
00001372  602C                     bra        +0x2E /* 000013A0 */
label00001374:
00001374  7032                     moveq.l    D0, 0x32
00001376  C1C7                     muls.w     D0, D7
00001378  204D                     movea.l    A0, A5
0000137A  D1C0                     add.l      A0, D0
0000137C  4A28 F1CC                tst.b      [A0 - 0xE34]
00001380  6710                     beq        +0x12 /* 00001392 */
00001382  7032                     moveq.l    D0, 0x32
00001384  C1C7                     muls.w     D0, D7
00001386  204D                     movea.l    A0, A5
00001388  D1C0                     add.l      A0, D0
0000138A  317C 0014 F1B8           move.w     [A0 - 0xE48], 0x14
00001390  600E                     bra        +0x10 /* 000013A0 */
label00001392:
00001392  7032                     moveq.l    D0, 0x32
00001394  C1C7                     muls.w     D0, D7
00001396  204D                     movea.l    A0, A5
00001398  D1C0                     add.l      A0, D0
0000139A  317C 0016 F1B8           move.w     [A0 - 0xE48], 0x16
label000013A0:
000013A0  7032                     moveq.l    D0, 0x32
000013A2  C1C7                     muls.w     D0, D7
000013A4  204D                     movea.l    A0, A5
000013A6  D1C0                     add.l      A0, D0
000013A8  5168 F19E                subq.w     [A0 - 0xE62], 8
000013AC  7032                     moveq.l    D0, 0x32
000013AE  C1C7                     muls.w     D0, D7
000013B0  204D                     movea.l    A0, A5
000013B2  D1C0                     add.l      A0, D0
000013B4  5068 F1A2                addq.w     [A0 - 0xE5E], 8
000013B8  7032                     moveq.l    D0, 0x32
000013BA  C1C7                     muls.w     D0, D7
000013BC  204D                     movea.l    A0, A5
000013BE  D1C0                     add.l      A0, D0
000013C0  7032                     moveq.l    D0, 0x32
000013C2  C1C7                     muls.w     D0, D7
000013C4  7228                     moveq.l    D1, 0x28
000013C6  D268 F19C                add.w      D1, [A0 - 0xE64]
000013CA  204D                     movea.l    A0, A5
000013CC  D1C0                     add.l      A0, D0
000013CE  3141 F1A0                move.w     [A0 - 0xE60], D1
000013D2  7032                     moveq.l    D0, 0x32
000013D4  C1C7                     muls.w     D0, D7
000013D6  204D                     movea.l    A0, A5
000013D8  D1C0                     add.l      A0, D0
000013DA  3028 F19E                move.w     D0, [A0 - 0xE62]
000013DE  E948                     lsl        D0.w, 4
000013E0  7232                     moveq.l    D1, 0x32
000013E2  C3C7                     muls.w     D1, D7
000013E4  204D                     movea.l    A0, A5
000013E6  D1C1                     add.l      A0, D1
000013E8  3140 F1AC                move.w     [A0 - 0xE54], D0
000013EC  7032                     moveq.l    D0, 0x32
000013EE  C1C7                     muls.w     D0, D7
000013F0  204D                     movea.l    A0, A5
000013F2  D1C0                     add.l      A0, D0
000013F4  3028 F19C                move.w     D0, [A0 - 0xE64]
000013F8  E948                     lsl        D0.w, 4
000013FA  7232                     moveq.l    D1, 0x32
000013FC  C3C7                     muls.w     D1, D7
000013FE  204D                     movea.l    A0, A5
00001400  D1C1                     add.l      A0, D1
00001402  3140 F1AE                move.w     [A0 - 0xE52], D0
label00001406:
00001406  2E1F                     move.l     D7, [A7]+
00001408  4E5E                     unlink     A6
0000140A  4E75                     rts
fn0000140C:
0000140C  4E56 0000                link       A6, 0
00001410  2F07                     move.l     -[A7], D7
00001412  3E2E 0008                move.w     D7, [A6 + 0x8]
00001416  7032                     moveq.l    D0, 0x32
00001418  C1C7                     muls.w     D0, D7
0000141A  204D                     movea.l    A0, A5
0000141C  D1C0                     add.l      A0, D0
0000141E  5268 F1BE                addq.w     [A0 - 0xE42], 1
00001422  7032                     moveq.l    D0, 0x32
00001424  C1C7                     muls.w     D0, D7
00001426  204D                     movea.l    A0, A5
00001428  D1C0                     add.l      A0, D0
0000142A  0C68 0030 F1BE           cmpi.w     [A0 - 0xE42], 0x30 /* '0' */
00001430  6D00 00C4                blt        +0xC6 /* 000014F6 */
00001434  7032                     moveq.l    D0, 0x32
00001436  C1C7                     muls.w     D0, D7
00001438  204D                     movea.l    A0, A5
0000143A  D1C0                     add.l      A0, D0
0000143C  317C 0001 F1BA           move.w     [A0 - 0xE46], 0x1
00001442  7032                     moveq.l    D0, 0x32
00001444  C1C7                     muls.w     D0, D7
00001446  204D                     movea.l    A0, A5
00001448  D1C0                     add.l      A0, D0
0000144A  4268 F1BE                clr.w      [A0 - 0xE42]
0000144E  7032                     moveq.l    D0, 0x32
00001450  C1C7                     muls.w     D0, D7
00001452  204D                     movea.l    A0, A5
00001454  D1C0                     add.l      A0, D0
00001456  3028 F1BC                move.w     D0, [A0 - 0xE44]
0000145A  670E                     beq        +0x10 /* 0000146A */
0000145C  6B00 00BC                bmi        +0xBE /* 0000151A */
00001460  5540                     subq.w     D0, 2
00001462  6764                     beq        +0x66 /* 000014C8 */
00001464  6A00 00B4                bpl        +0xB6 /* 0000151A */
00001468  6030                     bra        +0x32 /* 0000149A */
label0000146A:
0000146A  7032                     moveq.l    D0, 0x32
0000146C  C1C7                     muls.w     D0, D7
0000146E  204D                     movea.l    A0, A5
00001470  D1C0                     add.l      A0, D0
00001472  4A28 F1CC                tst.b      [A0 - 0xE34]
00001476  6710                     beq        +0x12 /* 00001488 */
00001478  7032                     moveq.l    D0, 0x32
0000147A  C1C7                     muls.w     D0, D7
0000147C  204D                     movea.l    A0, A5
0000147E  D1C0                     add.l      A0, D0
00001480  4268 F1B8                clr.w      [A0 - 0xE48]
00001484  6000 0094                bra        +0x96 /* 0000151A */
label00001488:
00001488  7032                     moveq.l    D0, 0x32
0000148A  C1C7                     muls.w     D0, D7
0000148C  204D                     movea.l    A0, A5
0000148E  D1C0                     add.l      A0, D0
00001490  317C 0002 F1B8           move.w     [A0 - 0xE48], 0x2
00001496  6000 0082                bra        +0x84 /* 0000151A */
label0000149A:
0000149A  7032                     moveq.l    D0, 0x32
0000149C  C1C7                     muls.w     D0, D7
0000149E  204D                     movea.l    A0, A5
000014A0  D1C0                     add.l      A0, D0
000014A2  4A28 F1CC                tst.b      [A0 - 0xE34]
000014A6  6710                     beq        +0x12 /* 000014B8 */
000014A8  7032                     moveq.l    D0, 0x32
000014AA  C1C7                     muls.w     D0, D7
000014AC  204D                     movea.l    A0, A5
000014AE  D1C0                     add.l      A0, D0
000014B0  317C 0004 F1B8           move.w     [A0 - 0xE48], 0x4
000014B6  6062                     bra        +0x64 /* 0000151A */
label000014B8:
000014B8  7032                     moveq.l    D0, 0x32
000014BA  C1C7                     muls.w     D0, D7
000014BC  204D                     movea.l    A0, A5
000014BE  D1C0                     add.l      A0, D0
000014C0  317C 0006 F1B8           move.w     [A0 - 0xE48], 0x6
000014C6  6052                     bra        +0x54 /* 0000151A */
label000014C8:
000014C8  7032                     moveq.l    D0, 0x32
000014CA  C1C7                     muls.w     D0, D7
000014CC  204D                     movea.l    A0, A5
000014CE  D1C0                     add.l      A0, D0
000014D0  4A28 F1CC                tst.b      [A0 - 0xE34]
000014D4  6710                     beq        +0x12 /* 000014E6 */
000014D6  7032                     moveq.l    D0, 0x32
000014D8  C1C7                     muls.w     D0, D7
000014DA  204D                     movea.l    A0, A5
000014DC  D1C0                     add.l      A0, D0
000014DE  317C 0008 F1B8           move.w     [A0 - 0xE48], 0x8
000014E4  6034                     bra        +0x36 /* 0000151A */
label000014E6:
000014E6  7032                     moveq.l    D0, 0x32
000014E8  C1C7                     muls.w     D0, D7
000014EA  204D                     movea.l    A0, A5
000014EC  D1C0                     add.l      A0, D0
000014EE  317C 000A F1B8           move.w     [A0 - 0xE48], 0xA /* '\n' */
000014F4  6024                     bra        +0x26 /* 0000151A */
label000014F6:
000014F6  7032                     moveq.l    D0, 0x32
000014F8  C1C7                     muls.w     D0, D7
000014FA  204D                     movea.l    A0, A5
000014FC  D1C0                     add.l      A0, D0
000014FE  7032                     moveq.l    D0, 0x32
00001500  C1C7                     muls.w     D0, D7
00001502  224D                     movea.l    A1, A5
00001504  D3C0                     add.l      A1, D0
00001506  3029 F1A0                move.w     D0, [A1 - 0xE60]
0000150A  9068 F1BE                sub.w      D0, [A0 - 0xE42]
0000150E  7232                     moveq.l    D1, 0x32
00001510  C3C7                     muls.w     D1, D7
00001512  204D                     movea.l    A0, A5
00001514  D1C1                     add.l      A0, D1
00001516  3140 F19C                move.w     [A0 - 0xE64], D0
label0000151A:
0000151A  2E1F                     move.l     D7, [A7]+
0000151C  4E5E                     unlink     A6
0000151E  4E75                     rts
fn00001520:
00001520  4E56 0000                link       A6, 0
00001524  2F07                     move.l     -[A7], D7
00001526  3E2E 0008                move.w     D7, [A6 + 0x8]
0000152A  7032                     moveq.l    D0, 0x32
0000152C  C1C7                     muls.w     D0, D7
0000152E  204D                     movea.l    A0, A5
00001530  D1C0                     add.l      A0, D0
00001532  5868 F1B6                addq.w     [A0 - 0xE4A], 4
00001536  7032                     moveq.l    D0, 0x32
00001538  C1C7                     muls.w     D0, D7
0000153A  204D                     movea.l    A0, A5
0000153C  D1C0                     add.l      A0, D0
0000153E  7032                     moveq.l    D0, 0x32
00001540  C1C7                     muls.w     D0, D7
00001542  224D                     movea.l    A1, A5
00001544  D3C0                     add.l      A1, D0
00001546  3028 F1B6                move.w     D0, [A0 - 0xE4A]
0000154A  B069 F1CA                cmp.w      D0, [A1 - 0xE36]
0000154E  6F18                     ble        +0x1A /* 00001568 */
00001550  7032                     moveq.l    D0, 0x32
00001552  C1C7                     muls.w     D0, D7
00001554  204D                     movea.l    A0, A5
00001556  D1C0                     add.l      A0, D0
00001558  7032                     moveq.l    D0, 0x32
0000155A  C1C7                     muls.w     D0, D7
0000155C  224D                     movea.l    A1, A5
0000155E  D3C0                     add.l      A1, D0
00001560  3368 F1CA F1B6           move.w     [A1 - 0xE4A], [A0 - 0xE36]
00001566  6036                     bra        +0x38 /* 0000159E */
label00001568:
00001568  7032                     moveq.l    D0, 0x32
0000156A  C1C7                     muls.w     D0, D7
0000156C  204D                     movea.l    A0, A5
0000156E  D1C0                     add.l      A0, D0
00001570  7032                     moveq.l    D0, 0x32
00001572  C1C7                     muls.w     D0, D7
00001574  224D                     movea.l    A1, A5
00001576  D3C0                     add.l      A1, D0
00001578  3029 F1CA                move.w     D0, [A1 - 0xE36]
0000157C  4440                     neg.w      D0
0000157E  B068 F1B6                cmp.w      D0, [A0 - 0xE4A]
00001582  6F1A                     ble        +0x1C /* 0000159E */
00001584  7032                     moveq.l    D0, 0x32
00001586  C1C7                     muls.w     D0, D7
00001588  204D                     movea.l    A0, A5
0000158A  D1C0                     add.l      A0, D0
0000158C  3028 F1CA                move.w     D0, [A0 - 0xE36]
00001590  4440                     neg.w      D0
00001592  7232                     moveq.l    D1, 0x32
00001594  C3C7                     muls.w     D1, D7
00001596  204D                     movea.l    A0, A5
00001598  D1C1                     add.l      A0, D1
0000159A  3140 F1B6                move.w     [A0 - 0xE4A], D0
label0000159E:
0000159E  4A2D F4A1                tst.b      [A5 - 0xB5F]
000015A2  6770                     beq        +0x72 /* 00001614 */
000015A4  7032                     moveq.l    D0, 0x32
000015A6  C1C7                     muls.w     D0, D7
000015A8  204D                     movea.l    A0, A5
000015AA  D1C0                     add.l      A0, D0
000015AC  3028 F1B4                move.w     D0, [A0 - 0xE4C]
000015B0  EA40                     asr        D0.w, 5
000015B2  7232                     moveq.l    D1, 0x32
000015B4  C3C7                     muls.w     D1, D7
000015B6  204D                     movea.l    A0, A5
000015B8  D1C1                     add.l      A0, D1
000015BA  9168 F1B4                sub.w      [A0 - 0xE4C], D0
000015BE  7032                     moveq.l    D0, 0x32
000015C0  C1C7                     muls.w     D0, D7
000015C2  204D                     movea.l    A0, A5
000015C4  D1C0                     add.l      A0, D0
000015C6  0C68 0020 F1B4           cmpi.w     [A0 - 0xE4C], 0x20 /* ' ' */
000015CC  6C46                     bge        +0x48 /* 00001614 */
000015CE  7032                     moveq.l    D0, 0x32
000015D0  C1C7                     muls.w     D0, D7
000015D2  204D                     movea.l    A0, A5
000015D4  D1C0                     add.l      A0, D0
000015D6  0C68 FFE0 F1B4           cmpi.w     [A0 - 0xE4C], 0xFFE0
000015DC  6F36                     ble        +0x38 /* 00001614 */
000015DE  7032                     moveq.l    D0, 0x32
000015E0  C1C7                     muls.w     D0, D7
000015E2  204D                     movea.l    A0, A5
000015E4  D1C0                     add.l      A0, D0
000015E6  4A68 F1B4                tst.w      [A0 - 0xE4C]
000015EA  6F0E                     ble        +0x10 /* 000015FA */
000015EC  7032                     moveq.l    D0, 0x32
000015EE  C1C7                     muls.w     D0, D7
000015F0  204D                     movea.l    A0, A5
000015F2  D1C0                     add.l      A0, D0
000015F4  5368 F1B4                subq.w     [A0 - 0xE4C], 1
000015F8  601A                     bra        +0x1C /* 00001614 */
label000015FA:
000015FA  7032                     moveq.l    D0, 0x32
000015FC  C1C7                     muls.w     D0, D7
000015FE  204D                     movea.l    A0, A5
00001600  D1C0                     add.l      A0, D0
00001602  4A68 F1B4                tst.w      [A0 - 0xE4C]
00001606  6C0C                     bge        +0xE /* 00001614 */
00001608  7032                     moveq.l    D0, 0x32
0000160A  C1C7                     muls.w     D0, D7
0000160C  204D                     movea.l    A0, A5
0000160E  D1C0                     add.l      A0, D0
00001610  5268 F1B4                addq.w     [A0 - 0xE4C], 1
label00001614:
00001614  7032                     moveq.l    D0, 0x32
00001616  C1C7                     muls.w     D0, D7
00001618  204D                     movea.l    A0, A5
0000161A  D1C0                     add.l      A0, D0
0000161C  7032                     moveq.l    D0, 0x32
0000161E  C1C7                     muls.w     D0, D7
00001620  3228 F1B4                move.w     D1, [A0 - 0xE4C]
00001624  204D                     movea.l    A0, A5
00001626  D1C0                     add.l      A0, D0
00001628  D368 F1AC                add.w      [A0 - 0xE54], D1
0000162C  7032                     moveq.l    D0, 0x32
0000162E  C1C7                     muls.w     D0, D7
00001630  204D                     movea.l    A0, A5
00001632  D1C0                     add.l      A0, D0
00001634  3028 F1AC                move.w     D0, [A0 - 0xE54]
00001638  E840                     asr        D0.w, 4
0000163A  7232                     moveq.l    D1, 0x32
0000163C  C3C7                     muls.w     D1, D7
0000163E  204D                     movea.l    A0, A5
00001640  D1C1                     add.l      A0, D1
00001642  3140 F19E                move.w     [A0 - 0xE62], D0
00001646  7032                     moveq.l    D0, 0x32
00001648  C1C7                     muls.w     D0, D7
0000164A  204D                     movea.l    A0, A5
0000164C  D1C0                     add.l      A0, D0
0000164E  7032                     moveq.l    D0, 0x32
00001650  C1C7                     muls.w     D0, D7
00001652  7218                     moveq.l    D1, 0x18
00001654  D268 F19E                add.w      D1, [A0 - 0xE62]
00001658  204D                     movea.l    A0, A5
0000165A  D1C0                     add.l      A0, D0
0000165C  3141 F1A2                move.w     [A0 - 0xE5E], D1
00001660  7032                     moveq.l    D0, 0x32
00001662  C1C7                     muls.w     D0, D7
00001664  204D                     movea.l    A0, A5
00001666  D1C0                     add.l      A0, D0
00001668  7032                     moveq.l    D0, 0x32
0000166A  C1C7                     muls.w     D0, D7
0000166C  3228 F1B6                move.w     D1, [A0 - 0xE4A]
00001670  204D                     movea.l    A0, A5
00001672  D1C0                     add.l      A0, D0
00001674  D368 F1AE                add.w      [A0 - 0xE52], D1
00001678  7032                     moveq.l    D0, 0x32
0000167A  C1C7                     muls.w     D0, D7
0000167C  204D                     movea.l    A0, A5
0000167E  D1C0                     add.l      A0, D0
00001680  3028 F1AE                move.w     D0, [A0 - 0xE52]
00001684  E840                     asr        D0.w, 4
00001686  7232                     moveq.l    D1, 0x32
00001688  C3C7                     muls.w     D1, D7
0000168A  204D                     movea.l    A0, A5
0000168C  D1C1                     add.l      A0, D1
0000168E  3140 F19C                move.w     [A0 - 0xE64], D0
00001692  7032                     moveq.l    D0, 0x32
00001694  C1C7                     muls.w     D0, D7
00001696  204D                     movea.l    A0, A5
00001698  D1C0                     add.l      A0, D0
0000169A  7032                     moveq.l    D0, 0x32
0000169C  C1C7                     muls.w     D0, D7
0000169E  7218                     moveq.l    D1, 0x18
000016A0  D268 F19C                add.w      D1, [A0 - 0xE64]
000016A4  204D                     movea.l    A0, A5
000016A6  D1C0                     add.l      A0, D0
000016A8  3141 F1A0                move.w     [A0 - 0xE60], D1
000016AC  7032                     moveq.l    D0, 0x32
000016AE  C1C7                     muls.w     D0, D7
000016B0  204D                     movea.l    A0, A5
000016B2  D1C0                     add.l      A0, D0
000016B4  0C68 0280 F19E           cmpi.w     [A0 - 0xE62], 0x280
000016BA  6F44                     ble        +0x46 /* 00001700 */
000016BC  7032                     moveq.l    D0, 0x32
000016BE  C1C7                     muls.w     D0, D7
000016C0  204D                     movea.l    A0, A5
000016C2  D1C0                     add.l      A0, D0
000016C4  4868 F19C                pea.l      [A0 - 0xE64]
000016C8  2F3C 0000 FD80           move.l     -[A7], 0xFD80
000016CE  A8A8                     syscall    OffsetRect
000016D0  7032                     moveq.l    D0, 0x32
000016D2  C1C7                     muls.w     D0, D7
000016D4  204D                     movea.l    A0, A5
000016D6  D1C0                     add.l      A0, D0
000016D8  3028 F19E                move.w     D0, [A0 - 0xE62]
000016DC  E948                     lsl        D0.w, 4
000016DE  7232                     moveq.l    D1, 0x32
000016E0  C3C7                     muls.w     D1, D7
000016E2  204D                     movea.l    A0, A5
000016E4  D1C1                     add.l      A0, D1
000016E6  3140 F1AC                move.w     [A0 - 0xE54], D0
000016EA  7032                     moveq.l    D0, 0x32
000016EC  C1C7                     muls.w     D0, D7
000016EE  204D                     movea.l    A0, A5
000016F0  D1C0                     add.l      A0, D0
000016F2  4868 F1A4                pea.l      [A0 - 0xE5C]
000016F6  2F3C 0000 FD80           move.l     -[A7], 0xFD80
000016FC  A8A8                     syscall    OffsetRect
000016FE  604C                     bra        +0x4E /* 0000174C */
label00001700:
00001700  7032                     moveq.l    D0, 0x32
00001702  C1C7                     muls.w     D0, D7
00001704  204D                     movea.l    A0, A5
00001706  D1C0                     add.l      A0, D0
00001708  4A68 F1A2                tst.w      [A0 - 0xE5E]
0000170C  6C3E                     bge        +0x40 /* 0000174C */
0000170E  7032                     moveq.l    D0, 0x32
00001710  C1C7                     muls.w     D0, D7
00001712  204D                     movea.l    A0, A5
00001714  D1C0                     add.l      A0, D0
00001716  4868 F19C                pea.l      [A0 - 0xE64]
0000171A  4878 0280                push.l     0x280
0000171E  A8A8                     syscall    OffsetRect
00001720  7032                     moveq.l    D0, 0x32
00001722  C1C7                     muls.w     D0, D7
00001724  204D                     movea.l    A0, A5
00001726  D1C0                     add.l      A0, D0
00001728  3028 F19E                move.w     D0, [A0 - 0xE62]
0000172C  E948                     lsl        D0.w, 4
0000172E  7232                     moveq.l    D1, 0x32
00001730  C3C7                     muls.w     D1, D7
00001732  204D                     movea.l    A0, A5
00001734  D1C1                     add.l      A0, D1
00001736  3140 F1AC                move.w     [A0 - 0xE54], D0
0000173A  7032                     moveq.l    D0, 0x32
0000173C  C1C7                     muls.w     D0, D7
0000173E  204D                     movea.l    A0, A5
00001740  D1C0                     add.l      A0, D0
00001742  4868 F1A4                pea.l      [A0 - 0xE5C]
00001746  4878 0280                push.l     0x280
0000174A  A8A8                     syscall    OffsetRect
label0000174C:
0000174C  3F07                     move.w     -[A7], D7
0000174E  4EBA F3B4                jsr        [PC - 0xC4C /* 00000B04 */]
00001752  3E87                     move.w     [A7], D7
00001754  4EBA ED84                jsr        [PC - 0x127C /* 000004DA */]
00001758  2E2E FFFC                move.l     D7, [A6 - 0x4]
0000175C  4E5E                     unlink     A6
0000175E  4E75                     rts
fn00001760:
00001760  4E56 0000                link       A6, 0
00001764  48E7 0300                movem.l    -[A7], D6,D7
00001768  3E2E 0008                move.w     D7, [A6 + 0x8]
0000176C  7032                     moveq.l    D0, 0x32
0000176E  C1C7                     muls.w     D0, D7
00001770  204D                     movea.l    A0, A5
00001772  D1C0                     add.l      A0, D0
00001774  5368 F1BE                subq.w     [A0 - 0xE42], 1
00001778  7032                     moveq.l    D0, 0x32
0000177A  C1C7                     muls.w     D0, D7
0000177C  204D                     movea.l    A0, A5
0000177E  D1C0                     add.l      A0, D0
00001780  0C68 0018 F1BE           cmpi.w     [A0 - 0xE42], 0x18
00001786  6C00 015C                bge        +0x15E /* 000018E4 */
0000178A  7032                     moveq.l    D0, 0x32
0000178C  C1C7                     muls.w     D0, D7
0000178E  204D                     movea.l    A0, A5
00001790  D1C0                     add.l      A0, D0
00001792  7032                     moveq.l    D0, 0x32
00001794  C1C7                     muls.w     D0, D7
00001796  224D                     movea.l    A1, A5
00001798  D3C0                     add.l      A1, D0
0000179A  3029 F1A0                move.w     D0, [A1 - 0xE60]
0000179E  9068 F1BE                sub.w      D0, [A0 - 0xE42]
000017A2  7232                     moveq.l    D1, 0x32
000017A4  C3C7                     muls.w     D1, D7
000017A6  204D                     movea.l    A0, A5
000017A8  D1C1                     add.l      A0, D1
000017AA  3140 F19C                move.w     [A0 - 0xE64], D0
000017AE  7032                     moveq.l    D0, 0x32
000017B0  C1C7                     muls.w     D0, D7
000017B2  204D                     movea.l    A0, A5
000017B4  D1C0                     add.l      A0, D0
000017B6  4A68 F1BE                tst.w      [A0 - 0xE42]
000017BA  6600 0128                bne        +0x12A /* 000018E4 */
000017BE  7032                     moveq.l    D0, 0x32
000017C0  C1C7                     muls.w     D0, D7
000017C2  204D                     movea.l    A0, A5
000017C4  D1C0                     add.l      A0, D0
000017C6  4268 F1BE                clr.w      [A0 - 0xE42]
000017CA  2F3C 000D 005A           move.l     -[A7], 0xD005A /* '\r\0Z' */
000017D0  4EAD 008A                jsr        [A5 + 0x8A /* export_13, CODE:2 @ 000035E8 */]
000017D4  7032                     moveq.l    D0, 0x32
000017D6  C1C7                     muls.w     D0, D7
000017D8  204D                     movea.l    A0, A5
000017DA  D1C0                     add.l      A0, D0
000017DC  7032                     moveq.l    D0, 0x32
000017DE  C1C7                     muls.w     D0, D7
000017E0  224D                     movea.l    A1, A5
000017E2  D3C0                     add.l      A1, D0
000017E4  3C28 F1A2                move.w     D6, [A0 - 0xE5E]
000017E8  DC69 F19E                add.w      D6, [A1 - 0xE62]
000017EC  E246                     asr        D6.w, 1
000017EE  7032                     moveq.l    D0, 0x32
000017F0  C1C7                     muls.w     D0, D7
000017F2  72E8                     moveq.l    D1, 0xFFFFFFE8
000017F4  D246                     add.w      D1, D6
000017F6  204D                     movea.l    A0, A5
000017F8  D1C0                     add.l      A0, D0
000017FA  3141 F19E                move.w     [A0 - 0xE62], D1
000017FE  7032                     moveq.l    D0, 0x32
00001800  C1C7                     muls.w     D0, D7
00001802  7218                     moveq.l    D1, 0x18
00001804  D246                     add.w      D1, D6
00001806  204D                     movea.l    A0, A5
00001808  D1C0                     add.l      A0, D0
0000180A  3141 F1A2                move.w     [A0 - 0xE5E], D1
0000180E  7032                     moveq.l    D0, 0x32
00001810  C1C7                     muls.w     D0, D7
00001812  204D                     movea.l    A0, A5
00001814  D1C0                     add.l      A0, D0
00001816  7032                     moveq.l    D0, 0x32
00001818  C1C7                     muls.w     D0, D7
0000181A  224D                     movea.l    A1, A5
0000181C  D3C0                     add.l      A1, D0
0000181E  2368 F19C F1A4           move.l     [A1 - 0xE5C], [A0 - 0xE64]
00001824  2368 F1A0 F1A8           move.l     [A1 - 0xE58], [A0 - 0xE60]
0000182A  7032                     moveq.l    D0, 0x32
0000182C  C1C7                     muls.w     D0, D7
0000182E  204D                     movea.l    A0, A5
00001830  D1C0                     add.l      A0, D0
00001832  3028 F19E                move.w     D0, [A0 - 0xE62]
00001836  E948                     lsl        D0.w, 4
00001838  7232                     moveq.l    D1, 0x32
0000183A  C3C7                     muls.w     D1, D7
0000183C  204D                     movea.l    A0, A5
0000183E  D1C1                     add.l      A0, D1
00001840  3140 F1AC                move.w     [A0 - 0xE54], D0
00001844  7032                     moveq.l    D0, 0x32
00001846  C1C7                     muls.w     D0, D7
00001848  204D                     movea.l    A0, A5
0000184A  D1C0                     add.l      A0, D0
0000184C  3028 F19C                move.w     D0, [A0 - 0xE64]
00001850  E948                     lsl        D0.w, 4
00001852  7232                     moveq.l    D1, 0x32
00001854  C3C7                     muls.w     D1, D7
00001856  204D                     movea.l    A0, A5
00001858  D1C1                     add.l      A0, D1
0000185A  3140 F1AE                move.w     [A0 - 0xE52], D0
0000185E  7032                     moveq.l    D0, 0x32
00001860  C1C7                     muls.w     D0, D7
00001862  204D                     movea.l    A0, A5
00001864  D1C0                     add.l      A0, D0
00001866  7032                     moveq.l    D0, 0x32
00001868  C1C7                     muls.w     D0, D7
0000186A  224D                     movea.l    A1, A5
0000186C  D3C0                     add.l      A1, D0
0000186E  3368 F1AC F1B0           move.w     [A1 - 0xE50], [A0 - 0xE54]
00001874  7032                     moveq.l    D0, 0x32
00001876  C1C7                     muls.w     D0, D7
00001878  204D                     movea.l    A0, A5
0000187A  D1C0                     add.l      A0, D0
0000187C  7032                     moveq.l    D0, 0x32
0000187E  C1C7                     muls.w     D0, D7
00001880  224D                     movea.l    A1, A5
00001882  D3C0                     add.l      A1, D0
00001884  3368 F1AE F1B2           move.w     [A1 - 0xE4E], [A0 - 0xE52]
0000188A  7032                     moveq.l    D0, 0x32
0000188C  C1C7                     muls.w     D0, D7
0000188E  204D                     movea.l    A0, A5
00001890  D1C0                     add.l      A0, D0
00001892  4268 F1B4                clr.w      [A0 - 0xE4C]
00001896  7032                     moveq.l    D0, 0x32
00001898  C1C7                     muls.w     D0, D7
0000189A  204D                     movea.l    A0, A5
0000189C  D1C0                     add.l      A0, D0
0000189E  4268 F1B6                clr.w      [A0 - 0xE4A]
000018A2  7032                     moveq.l    D0, 0x32
000018A4  C1C7                     muls.w     D0, D7
000018A6  204D                     movea.l    A0, A5
000018A8  D1C0                     add.l      A0, D0
000018AA  317C 0003 F1BA           move.w     [A0 - 0xE46], 0x3
000018B0  7032                     moveq.l    D0, 0x32
000018B2  C1C7                     muls.w     D0, D7
000018B4  204D                     movea.l    A0, A5
000018B6  D1C0                     add.l      A0, D0
000018B8  5268 F1BC                addq.w     [A0 - 0xE44], 1
000018BC  7032                     moveq.l    D0, 0x32
000018BE  C1C7                     muls.w     D0, D7
000018C0  204D                     movea.l    A0, A5
000018C2  D1C0                     add.l      A0, D0
000018C4  0C68 0002 F1BC           cmpi.w     [A0 - 0xE44], 0x2
000018CA  588F                     addq.l     A7, 4
000018CC  6F0E                     ble        +0x10 /* 000018DC */
000018CE  7032                     moveq.l    D0, 0x32
000018D0  C1C7                     muls.w     D0, D7
000018D2  204D                     movea.l    A0, A5
000018D4  D1C0                     add.l      A0, D0
000018D6  317C 0002 F1BC           move.w     [A0 - 0xE44], 0x2
label000018DC:
000018DC  3F07                     move.w     -[A7], D7
000018DE  4EBA E7BA                jsr        [PC - 0x1846 /* 0000009A */]
000018E2  548F                     addq.l     A7, 2
label000018E4:
000018E4  4CDF 00C0                movem.l    D6,D7, [A7]+
000018E8  4E5E                     unlink     A6
000018EA  4E75                     rts
export_41:
000018EC  2F07                     move.l     -[A7], D7
000018EE  422D F4A2                clr.b      [A5 - 0xB5E]
000018F2  422D F4A3                clr.b      [A5 - 0xB5D]
000018F6  7E00                     moveq.l    D7, 0x00
000018F8  605C                     bra        +0x5E /* 00001956 */
label000018FA:
000018FA  7032                     moveq.l    D0, 0x32
000018FC  C1C7                     muls.w     D0, D7
000018FE  204D                     movea.l    A0, A5
00001900  D1C0                     add.l      A0, D0
00001902  3028 F1BA                move.w     D0, [A0 - 0xE46]
00001906  5240                     addq.w     D0, 1
00001908  0C40 0007                cmpi.w     D0, 0x7
0000190C  6246                     bhi        +0x48 /* 00001954 */
0000190E  43FA 008A                lea.l      A1, [PC + 0x8A /* 0000199A, value 0xFF80FF8A */]
00001912  D040                     add.w      D0, D0
00001914  D2F1 0000                add.w      A1, [A1 + D0.w]
00001918  4ED1                     jmp        [A1]
0000191A  3F07                     move.w     -[A7], D7
0000191C  4EBA F2A4                jsr        [PC - 0xD5C /* 00000BC2 */]
00001920  548F                     addq.l     A7, 2
00001922  6030                     bra        +0x32 /* 00001954 */
00001924  3F07                     move.w     -[A7], D7
00001926  4EBA F334                jsr        [PC - 0xCCC /* 00000C5C */]
0000192A  548F                     addq.l     A7, 2
0000192C  6026                     bra        +0x28 /* 00001954 */
0000192E  3F07                     move.w     -[A7], D7
00001930  4EBA F856                jsr        [PC - 0x7AA /* 00001188 */]
00001934  548F                     addq.l     A7, 2
00001936  601C                     bra        +0x1E /* 00001954 */
00001938  3F07                     move.w     -[A7], D7
0000193A  4EBA FAD0                jsr        [PC - 0x530 /* 0000140C */]
0000193E  548F                     addq.l     A7, 2
00001940  6012                     bra        +0x14 /* 00001954 */
00001942  3F07                     move.w     -[A7], D7
00001944  4EBA FBDA                jsr        [PC - 0x426 /* 00001520 */]
00001948  548F                     addq.l     A7, 2
0000194A  6008                     bra        +0xA /* 00001954 */
0000194C  3F07                     move.w     -[A7], D7
0000194E  4EBA FE10                jsr        [PC - 0x1F0 /* 00001760 */]
00001952  548F                     addq.l     A7, 2
label00001954:
00001954  5247                     addq.w     D7, 1
label00001956:
00001956  BE6D F49A                cmp.w      D7, [A5 - 0xB66]
0000195A  6D9E                     blt        -0x60 /* 000018FA */
0000195C  4A2D F4A2                tst.b      [A5 - 0xB5E]
00001960  670C                     beq        +0xE /* 0000196E */
00001962  2F3C 000F 0014           move.l     -[A7], 0xF0014
00001968  4EAD 008A                jsr        [A5 + 0x8A /* export_13, CODE:2 @ 000035E8 */]
0000196C  588F                     addq.l     A7, 4
label0000196E:
0000196E  4A2D F4A3                tst.b      [A5 - 0xB5D]
00001972  670C                     beq        +0xE /* 00001980 */
00001974  2F3C 0010 000A           move.l     -[A7], 0x10000A
0000197A  4EAD 008A                jsr        [A5 + 0x8A /* export_13, CODE:2 @ 000035E8 */]
0000197E  588F                     addq.l     A7, 4
label00001980:
00001980  302D EA26                move.w     D0, [A5 - 0x15DA]
00001984  B06D EA2A                cmp.w      D0, [A5 - 0x15D6]
00001988  6D0C                     blt        +0xE /* 00001996 */
0000198A  4A6D F49C                tst.w      [A5 - 0xB64]
0000198E  6606                     bne        +0x8 /* 00001996 */
00001990  3B7C 001E F49C           move.w     [A5 - 0xB64], 0x1E
label00001996:
00001996  2E1F                     move.l     D7, [A7]+
00001998  4E75                     rts
0000199A  FF80                     .invalid   <<F/6/7>>
0000199C  FF8A                     .invalid   <<F/6/7>>
0000199E  FF94                     .invalid   <<F/6/7>>
000019A0  FFBA                     .invalid   <<F/6/7>>
000019A2  FF9E                     .invalid   <<F/6/7>>
000019A4  FFA8                     .invalid   <<F/6/7>>
000019A6  FFB2                     .invalid   <<F/6/7>>
000019A8  FFBA                     .invalid   <<F/6/7>>
export_42:
fn000019AA:
000019AA  486D EA02                pea.l      [A5 - 0x15FE]
000019AE  42A7                     clr.l      -[A7]
000019B0  2F3C 0039 0038           move.l     -[A7], 0x390038 /* '9\08' */
000019B6  A8A7                     syscall    SetRect
000019B8  486D EA02                pea.l      [A5 - 0x15FE]
000019BC  2F3C 01CC 0030           move.l     -[A7], 0x1CC0030
000019C2  A8A8                     syscall    OffsetRect
000019C4  4E75                     rts
export_43:
000019C6  4E56 FFF8                link       A6, -0x0008
000019CA  48E7 0F00                movem.l    -[A7], D4,D5,D6,D7
000019CE  302D EA0A                move.w     D0, [A5 - 0x15F6]
000019D2  6B00 0168                bmi        +0x16A /* 00001B3C */
000019D6  0440 000A                subi.w     D0, 0xA /* '\n' */
000019DA  670C                     beq        +0xE /* 000019E8 */
000019DC  6B00 015E                bmi        +0x160 /* 00001B3C */
000019E0  5740                     subq.w     D0, 3
000019E2  6A00 0158                bpl        +0x15A /* 00001B3C */
000019E6  602C                     bra        +0x2E /* 00001A14 */
label000019E8:
000019E8  4A6D F192                tst.w      [A5 - 0xE6E]
000019EC  6600 014E                bne        +0x150 /* 00001B3C */
000019F0  4227                     clr.b      -[A7]
000019F2  486D F16C                pea.l      [A5 - 0xE94]
000019F6  486D EA1E                pea.l      [A5 - 0x15E2]
000019FA  486E FFF8                pea.l      [A6 - 0x8]
000019FE  A8AA                     syscall    SectRect
00001A00  4A1F                     tst.b      [A7]+
00001A02  6700 0138                beq        +0x13A /* 00001B3C */
00001A06  3B7C 000B EA0A           move.w     [A5 - 0x15F6], 0xB
00001A0C  4EBA FF9C                jsr        [PC - 0x64 /* 000019AA */]
00001A10  6000 012A                bra        +0x12C /* 00001B3C */
label00001A14:
00001A14  4227                     clr.b      -[A7]
00001A16  486D F16C                pea.l      [A5 - 0xE94]
00001A1A  486D EA1E                pea.l      [A5 - 0x15E2]
00001A1E  486E FFF8                pea.l      [A6 - 0x8]
00001A22  A8AA                     syscall    SectRect
00001A24  4A1F                     tst.b      [A7]+
00001A26  6700 00F2                beq        +0xF4 /* 00001B1A */
00001A2A  3E2D EA04                move.w     D7, [A5 - 0x15FC]
00001A2E  9E6D F16E                sub.w      D7, [A5 - 0xE92]
00001A32  3C2D EA02                move.w     D6, [A5 - 0x15FE]
00001A36  9C6D F16C                sub.w      D6, [A5 - 0xE94]
00001A3A  4A2D F196                tst.b      [A5 - 0xE6A]
00001A3E  6704                     beq        +0x6 /* 00001A44 */
00001A40  5747                     subq.w     D7, 3
00001A42  6004                     bra        +0x6 /* 00001A48 */
label00001A44:
00001A44  0647 FFEB                addi.w     D7, 0xFFEB
label00001A48:
00001A48  0646 FFE3                addi.w     D6, 0xFFE3
00001A4C  382D F490                move.w     D4, [A5 - 0xB70]
00001A50  E644                     asr        D4.w, 3
00001A52  5244                     addq.w     D4, 1
00001A54  4A47                     tst.w      D7
00001A56  6C0A                     bge        +0xC /* 00001A62 */
00001A58  D96D EA04                add.w      [A5 - 0x15FC], D4
00001A5C  D96D EA08                add.w      [A5 - 0x15F8], D4
00001A60  600C                     bra        +0xE /* 00001A6E */
label00001A62:
00001A62  4A47                     tst.w      D7
00001A64  6F08                     ble        +0xA /* 00001A6E */
00001A66  996D EA04                sub.w      [A5 - 0x15FC], D4
00001A6A  996D EA08                sub.w      [A5 - 0x15F8], D4
label00001A6E:
00001A6E  4A46                     tst.w      D6
00001A70  6C0A                     bge        +0xC /* 00001A7C */
00001A72  D96D EA02                add.w      [A5 - 0x15FE], D4
00001A76  D96D EA06                add.w      [A5 - 0x15FA], D4
00001A7A  600C                     bra        +0xE /* 00001A88 */
label00001A7C:
00001A7C  4A46                     tst.w      D6
00001A7E  6F08                     ble        +0xA /* 00001A88 */
00001A80  996D EA02                sub.w      [A5 - 0x15FE], D4
00001A84  996D EA06                sub.w      [A5 - 0x15FA], D4
label00001A88:
00001A88  4A47                     tst.w      D7
00001A8A  6C02                     bge        +0x4 /* 00001A8E */
00001A8C  4447                     neg.w      D7
label00001A8E:
00001A8E  4A46                     tst.w      D6
00001A90  6C02                     bge        +0x4 /* 00001A94 */
00001A92  4446                     neg.w      D6
label00001A94:
00001A94  0C47 0008                cmpi.w     D7, 0x8
00001A98  6C74                     bge        +0x76 /* 00001B0E */
00001A9A  0C46 0008                cmpi.w     D6, 0x8
00001A9E  6C6E                     bge        +0x70 /* 00001B0E */
00001AA0  3B7C 000C EA0A           move.w     [A5 - 0x15F6], 0xC
00001AA6  1B7C 0001 F19A           move.b     [A5 - 0xE66], 0x1
00001AAC  302D F18C                move.w     D0, [A5 - 0xE74]
00001AB0  E640                     asr        D0.w, 3
00001AB2  3B40 F18C                move.w     [A5 - 0xE74], D0
00001AB6  302D F18E                move.w     D0, [A5 - 0xE72]
00001ABA  E640                     asr        D0.w, 3
00001ABC  3B40 F18E                move.w     [A5 - 0xE72], D0
00001AC0  3A2D F490                move.w     D5, [A5 - 0xB70]
00001AC4  E54D                     lsl        D5.w, 2
00001AC6  0C45 0030                cmpi.w     D5, 0x30 /* '0' */
00001ACA  6F02                     ble        +0x4 /* 00001ACE */
00001ACC  7A30                     moveq.l    D5, 0x30
label00001ACE:
00001ACE  DB6D F18E                add.w      [A5 - 0xE72], D5
00001AD2  701D                     moveq.l    D0, 0x1D
00001AD4  D06D F16C                add.w      D0, [A5 - 0xE94]
00001AD8  3B40 EA02                move.w     [A5 - 0x15FE], D0
00001ADC  7039                     moveq.l    D0, 0x39
00001ADE  D06D EA02                add.w      D0, [A5 - 0x15FE]
00001AE2  3B40 EA06                move.w     [A5 - 0x15FA], D0
00001AE6  4A2D F196                tst.b      [A5 - 0xE6A]
00001AEA  670C                     beq        +0xE /* 00001AF8 */
00001AEC  7003                     moveq.l    D0, 0x03
00001AEE  D06D F16E                add.w      D0, [A5 - 0xE92]
00001AF2  3B40 EA04                move.w     [A5 - 0x15FC], D0
00001AF6  600A                     bra        +0xC /* 00001B02 */
label00001AF8:
00001AF8  7015                     moveq.l    D0, 0x15
00001AFA  D06D F16E                add.w      D0, [A5 - 0xE92]
00001AFE  3B40 EA04                move.w     [A5 - 0x15FC], D0
label00001B02:
00001B02  703A                     moveq.l    D0, 0x3A
00001B04  D06D EA04                add.w      D0, [A5 - 0x15FC]
00001B08  3B40 EA08                move.w     [A5 - 0x15F8], D0
00001B0C  602E                     bra        +0x30 /* 00001B3C */
label00001B0E:
00001B0E  422D F19A                clr.b      [A5 - 0xE66]
00001B12  3B7C 000B EA0A           move.w     [A5 - 0x15F6], 0xB
00001B18  6022                     bra        +0x24 /* 00001B3C */
label00001B1A:
00001B1A  526D EA02                addq.w     [A5 - 0x15FE], 1
00001B1E  526D EA06                addq.w     [A5 - 0x15FA], 1
00001B22  0C6D 01CC EA02           cmpi.w     [A5 - 0x15FE], 0x1CC
00001B28  6F08                     ble        +0xA /* 00001B32 */
00001B2A  3B7C 000A EA0A           move.w     [A5 - 0x15F6], 0xA /* '\n' */
00001B30  6006                     bra        +0x8 /* 00001B38 */
label00001B32:
00001B32  3B7C 000B EA0A           move.w     [A5 - 0x15F6], 0xB
label00001B38:
00001B38  422D F19A                clr.b      [A5 - 0xE66]
label00001B3C:
00001B3C  4CDF 00F0                movem.l    D4,D5,D6,D7, [A7]+
00001B40  4E5E                     unlink     A6
00001B42  4E75                     rts
fn00001B44:
00001B44  486D EA0C                pea.l      [A5 - 0x15F4]
00001B48  42A7                     clr.l      -[A7]
00001B4A  2F3C 001F 0030           move.l     -[A7], 0x1F0030
00001B50  A8A7                     syscall    SetRect
00001B52  486D EA0C                pea.l      [A5 - 0x15F4]
00001B56  2F3C 0061 0128           move.l     -[A7], 0x610128
00001B5C  A8A8                     syscall    OffsetRect
00001B5E  3B7C 000F EA14           move.w     [A5 - 0x15EC], 0xF
00001B64  7002                     moveq.l    D0, 0x02
00001B66  D06D EA2C                add.w      D0, [A5 - 0x15D4]
00001B6A  C1FC 02D0                muls.w     D0, 0x2D0
00001B6E  3B40 EA1A                move.w     [A5 - 0x15E6], D0
00001B72  426D EA18                clr.w      [A5 - 0x15E8]
00001B76  3B7C 0001 EA16           move.w     [A5 - 0x15EA], 0x1
00001B7C  422D EA1C                clr.b      [A5 - 0x15E4]
00001B80  422D EA1D                clr.b      [A5 - 0x15E3]
00001B84  4E75                     rts
export_44:
fn00001B86:
00001B86  0C6D 0010 EA14           cmpi.w     [A5 - 0x15EC], 0x10
00001B8C  661E                     bne        +0x20 /* 00001BAC */
00001B8E  1B7C 0001 EA1C           move.b     [A5 - 0x15E4], 0x1
00001B94  3B7C 0001 EA16           move.w     [A5 - 0x15EA], 0x1
00001B9A  422D EA1D                clr.b      [A5 - 0x15E3]
00001B9E  4A6D EA18                tst.w      [A5 - 0x15E8]
00001BA2  660C                     bne        +0xE /* 00001BB0 */
00001BA4  3B7C 0001 EA18           move.w     [A5 - 0x15E8], 0x1
00001BAA  6004                     bra        +0x6 /* 00001BB0 */
label00001BAC:
00001BAC  4EBA FF96                jsr        [PC - 0x6A /* 00001B44 */]
label00001BB0:
00001BB0  4E75                     rts
export_45:
00001BB2  48E7 0700                movem.l    -[A7], D5,D6,D7
00001BB6  0C6D 0010 EA14           cmpi.w     [A5 - 0x15EC], 0x10
00001BBC  6600 0210                bne        +0x212 /* 00001DCE */
00001BC0  3A2D F490                move.w     D5, [A5 - 0xB70]
00001BC4  E845                     asr        D5.w, 4
00001BC6  5245                     addq.w     D5, 1
00001BC8  0C45 0003                cmpi.w     D5, 0x3
00001BCC  6F02                     ble        +0x4 /* 00001BD0 */
00001BCE  7A03                     moveq.l    D5, 0x03
label00001BD0:
00001BD0  4A2D EA1C                tst.b      [A5 - 0x15E4]
00001BD4  6606                     bne        +0x8 /* 00001BDC */
00001BD6  4A2D EA1D                tst.b      [A5 - 0x15E3]
00001BDA  6704                     beq        +0x6 /* 00001BE0 */
label00001BDC:
00001BDC  7A00                     moveq.l    D5, 0x00
00001BDE  602E                     bra        +0x30 /* 00001C0E */
label00001BE0:
00001BE0  4A6D F192                tst.w      [A5 - 0xE6E]
00001BE4  6718                     beq        +0x1A /* 00001BFE */
00001BE6  0C6D 0001 F192           cmpi.w     [A5 - 0xE6E], 0x1
00001BEC  6710                     beq        +0x12 /* 00001BFE */
00001BEE  3E2D EA0E                move.w     D7, [A5 - 0x15F2]
00001BF2  0647 FED8                addi.w     D7, 0xFED8
00001BF6  7C80                     moveq.l    D6, 0xFFFFFF80
00001BF8  DC6D EA10                add.w      D6, [A5 - 0x15F0]
00001BFC  6010                     bra        +0x12 /* 00001C0E */
label00001BFE:
00001BFE  3E2D EA0E                move.w     D7, [A5 - 0x15F2]
00001C02  9E6D F16E                sub.w      D7, [A5 - 0xE92]
00001C06  3C2D EA10                move.w     D6, [A5 - 0x15F0]
00001C0A  9C6D F170                sub.w      D6, [A5 - 0xE90]
label00001C0E:
00001C0E  4A47                     tst.w      D7
00001C10  6F1A                     ble        +0x1C /* 00001C2C */
00001C12  BA47                     cmp.w      D5, D7
00001C14  6F06                     ble        +0x8 /* 00001C1C */
00001C16  9F6D EA0E                sub.w      [A5 - 0x15F2], D7
00001C1A  6004                     bra        +0x6 /* 00001C20 */
label00001C1C:
00001C1C  9B6D EA0E                sub.w      [A5 - 0x15F2], D5
label00001C20:
00001C20  7030                     moveq.l    D0, 0x30
00001C22  D06D EA0E                add.w      D0, [A5 - 0x15F2]
00001C26  3B40 EA12                move.w     [A5 - 0x15EE], D0
00001C2A  6020                     bra        +0x22 /* 00001C4C */
label00001C2C:
00001C2C  4A47                     tst.w      D7
00001C2E  6C1C                     bge        +0x1E /* 00001C4C */
00001C30  3007                     move.w     D0, D7
00001C32  4440                     neg.w      D0
00001C34  BA40                     cmp.w      D5, D0
00001C36  6F06                     ble        +0x8 /* 00001C3E */
00001C38  9F6D EA0E                sub.w      [A5 - 0x15F2], D7
00001C3C  6004                     bra        +0x6 /* 00001C42 */
label00001C3E:
00001C3E  DB6D EA0E                add.w      [A5 - 0x15F2], D5
label00001C42:
00001C42  7030                     moveq.l    D0, 0x30
00001C44  D06D EA0E                add.w      D0, [A5 - 0x15F2]
00001C48  3B40 EA12                move.w     [A5 - 0x15EE], D0
label00001C4C:
00001C4C  4A46                     tst.w      D6
00001C4E  6F1A                     ble        +0x1C /* 00001C6A */
00001C50  BA46                     cmp.w      D5, D6
00001C52  6F06                     ble        +0x8 /* 00001C5A */
00001C54  9D6D EA10                sub.w      [A5 - 0x15F0], D6
00001C58  6004                     bra        +0x6 /* 00001C5E */
label00001C5A:
00001C5A  9B6D EA10                sub.w      [A5 - 0x15F0], D5
label00001C5E:
00001C5E  70E1                     moveq.l    D0, 0xFFFFFFE1
00001C60  D06D EA10                add.w      D0, [A5 - 0x15F0]
00001C64  3B40 EA0C                move.w     [A5 - 0x15F4], D0
00001C68  6020                     bra        +0x22 /* 00001C8A */
label00001C6A:
00001C6A  4A46                     tst.w      D6
00001C6C  6C1C                     bge        +0x1E /* 00001C8A */
00001C6E  3006                     move.w     D0, D6
00001C70  4440                     neg.w      D0
00001C72  BA40                     cmp.w      D5, D0
00001C74  6F06                     ble        +0x8 /* 00001C7C */
00001C76  9D6D EA10                sub.w      [A5 - 0x15F0], D6
00001C7A  6004                     bra        +0x6 /* 00001C80 */
label00001C7C:
00001C7C  DB6D EA10                add.w      [A5 - 0x15F0], D5
label00001C80:
00001C80  70E1                     moveq.l    D0, 0xFFFFFFE1
00001C82  D06D EA10                add.w      D0, [A5 - 0x15F0]
00001C86  3B40 EA0C                move.w     [A5 - 0x15F4], D0
label00001C8A:
00001C8A  526D EA1A                addq.w     [A5 - 0x15E6], 1
00001C8E  4A6D EA18                tst.w      [A5 - 0x15E8]
00001C92  674E                     beq        +0x50 /* 00001CE2 */
00001C94  0C6D 0003 EA1A           cmpi.w     [A5 - 0x15E6], 0x3
00001C9A  6F5E                     ble        +0x60 /* 00001CFA */
00001C9C  426D EA1A                clr.w      [A5 - 0x15E6]
00001CA0  302D EA16                move.w     D0, [A5 - 0x15EA]
00001CA4  D16D EA18                add.w      [A5 - 0x15E8], D0
00001CA8  0C6D 0003 EA18           cmpi.w     [A5 - 0x15E8], 0x3
00001CAE  6F18                     ble        +0x1A /* 00001CC8 */
00001CB0  3B7C 0003 EA18           move.w     [A5 - 0x15E8], 0x3
00001CB6  3B7C FFFF EA16           move.w     [A5 - 0x15EA], 0xFFFF
00001CBC  4A2D EA1C                tst.b      [A5 - 0x15E4]
00001CC0  6738                     beq        +0x3A /* 00001CFA */
00001CC2  4EBA FE80                jsr        [PC - 0x180 /* 00001B44 */]
00001CC6  6032                     bra        +0x34 /* 00001CFA */
label00001CC8:
00001CC8  4A6D EA18                tst.w      [A5 - 0x15E8]
00001CCC  6E2C                     bgt        +0x2E /* 00001CFA */
00001CCE  426D EA18                clr.w      [A5 - 0x15E8]
00001CD2  3B7C 0001 EA16           move.w     [A5 - 0x15EA], 0x1
00001CD8  426D EA1A                clr.w      [A5 - 0x15E6]
00001CDC  422D EA1D                clr.b      [A5 - 0x15E3]
00001CE0  6018                     bra        +0x1A /* 00001CFA */
label00001CE2:
00001CE2  0C6D 0100 EA1A           cmpi.w     [A5 - 0x15E6], 0x100
00001CE8  6F10                     ble        +0x12 /* 00001CFA */
00001CEA  3B7C 0001 EA18           move.w     [A5 - 0x15E8], 0x1
00001CF0  3B7C 0001 EA16           move.w     [A5 - 0x15EA], 0x1
00001CF6  426D EA1A                clr.w      [A5 - 0x15E6]
label00001CFA:
00001CFA  3E2D EA0E                move.w     D7, [A5 - 0x15F2]
00001CFE  9E6D F16E                sub.w      D7, [A5 - 0xE92]
00001D02  3C2D EA10                move.w     D6, [A5 - 0x15F0]
00001D06  9C6D F170                sub.w      D6, [A5 - 0xE90]
00001D0A  4A47                     tst.w      D7
00001D0C  6C02                     bge        +0x4 /* 00001D10 */
00001D0E  4447                     neg.w      D7
label00001D10:
00001D10  4A46                     tst.w      D6
00001D12  6C02                     bge        +0x4 /* 00001D16 */
00001D14  4446                     neg.w      D6
label00001D16:
00001D16  0C47 0010                cmpi.w     D7, 0x10
00001D1A  6C00 00FA                bge        +0xFC /* 00001E16 */
00001D1E  0C46 0010                cmpi.w     D6, 0x10
00001D22  6C00 00F2                bge        +0xF4 /* 00001E16 */
00001D26  4A2D EA1D                tst.b      [A5 - 0x15E3]
00001D2A  6600 00EA                bne        +0xEC /* 00001E16 */
00001D2E  4A2D EA1C                tst.b      [A5 - 0x15E4]
00001D32  6600 00E2                bne        +0xE4 /* 00001E16 */
00001D36  4A6D EA18                tst.w      [A5 - 0x15E8]
00001D3A  6654                     bne        +0x56 /* 00001D90 */
00001D3C  4A6D F498                tst.w      [A5 - 0xB68]
00001D40  661A                     bne        +0x1C /* 00001D5C */
00001D42  7018                     moveq.l    D0, 0x18
00001D44  D06D F16E                add.w      D0, [A5 - 0xE92]
00001D48  3B40 F494                move.w     [A5 - 0xB6C], D0
00001D4C  72E8                     moveq.l    D1, 0xFFFFFFE8
00001D4E  D26D F170                add.w      D1, [A5 - 0xE90]
00001D52  3B41 F496                move.w     [A5 - 0xB6A], D1
00001D56  3B7C 0006 F498           move.w     [A5 - 0xB68], 0x6
label00001D5C:
00001D5C  3B7C 0004 F192           move.w     [A5 - 0xE6E], 0x4
00001D62  4A2D F196                tst.b      [A5 - 0xE6A]
00001D66  6708                     beq        +0xA /* 00001D70 */
00001D68  3B7C 0008 F190           move.w     [A5 - 0xE70], 0x8
00001D6E  6006                     bra        +0x8 /* 00001D76 */
label00001D70:
00001D70  3B7C 0009 F190           move.w     [A5 - 0xE70], 0x9 /* '\t' */
label00001D76:
00001D76  7025                     moveq.l    D0, 0x25
00001D78  D06D F16C                add.w      D0, [A5 - 0xE94]
00001D7C  3B40 F170                move.w     [A5 - 0xE90], D0
00001D80  2F3C 0004 006E           move.l     -[A7], 0x4006E
00001D86  4EAD 008A                jsr        [A5 + 0x8A /* export_13, CODE:2 @ 000035E8 */]
00001D8A  588F                     addq.l     A7, 4
00001D8C  6000 0088                bra        +0x8A /* 00001E16 */
label00001D90:
00001D90  4A6D F498                tst.w      [A5 - 0xB68]
00001D94  661A                     bne        +0x1C /* 00001DB0 */
00001D96  7018                     moveq.l    D0, 0x18
00001D98  D06D EA0E                add.w      D0, [A5 - 0x15F2]
00001D9C  3B40 F494                move.w     [A5 - 0xB6C], D0
00001DA0  7210                     moveq.l    D1, 0x10
00001DA2  D26D EA0C                add.w      D1, [A5 - 0x15F4]
00001DA6  3B41 F496                move.w     [A5 - 0xB6A], D1
00001DAA  3B7C 000F F498           move.w     [A5 - 0xB68], 0xF
label00001DB0:
00001DB0  06AD 0000 07D0 F484      addi.l     [A5 - 0xB7C], 0x7D0
00001DB8  4EAD 0072                jsr        [A5 + 0x72 /* export_10, CODE:2 @ 0000068E */]
00001DBC  2F3C 0002 0055           move.l     -[A7], 0x20055
00001DC2  4EAD 008A                jsr        [A5 + 0x8A /* export_13, CODE:2 @ 000035E8 */]
00001DC6  4EBA FDBE                jsr        [PC - 0x242 /* 00001B86 */]
00001DCA  588F                     addq.l     A7, 4
00001DCC  6048                     bra        +0x4A /* 00001E16 */
label00001DCE:
00001DCE  4A6D EA1A                tst.w      [A5 - 0x15E6]
00001DD2  6F42                     ble        +0x44 /* 00001E16 */
00001DD4  536D EA1A                subq.w     [A5 - 0x15E6], 1
00001DD8  4A6D EA1A                tst.w      [A5 - 0x15E6]
00001DDC  6638                     bne        +0x3A /* 00001E16 */
00001DDE  3B7C 0010 EA14           move.w     [A5 - 0x15EC], 0x10
00001DE4  4A6D F498                tst.w      [A5 - 0xB68]
00001DE8  661A                     bne        +0x1C /* 00001E04 */
00001DEA  7018                     moveq.l    D0, 0x18
00001DEC  D06D EA0E                add.w      D0, [A5 - 0x15F2]
00001DF0  3B40 F494                move.w     [A5 - 0xB6C], D0
00001DF4  7210                     moveq.l    D1, 0x10
00001DF6  D26D EA0C                add.w      D1, [A5 - 0x15F4]
00001DFA  3B41 F496                move.w     [A5 - 0xB6A], D1
00001DFE  3B7C 0006 F498           move.w     [A5 - 0xB68], 0x6
label00001E04:
00001E04  3B7C 0003 EA18           move.w     [A5 - 0x15E8], 0x3
00001E0A  3B7C 0001 EA16           move.w     [A5 - 0x15EA], 0x1
00001E10  1B7C 0001 EA1D           move.b     [A5 - 0x15E3], 0x1
label00001E16:
00001E16  4CDF 00E0                movem.l    D5,D6,D7, [A7]+
00001E1A  4E75                     rts
fn00001E1C:
00001E1C  4E56 0000                link       A6, 0
00001E20  48E7 1F00                movem.l    -[A7], D3,D4,D5,D6,D7
00001E24  3E2E 0008                move.w     D7, [A6 + 0x8]
00001E28  7032                     moveq.l    D0, 0x32
00001E2A  C1C7                     muls.w     D0, D7
00001E2C  204D                     movea.l    A0, A5
00001E2E  D1C0                     add.l      A0, D0
00001E30  0C68 0004 F1BA           cmpi.w     [A0 - 0xE46], 0x4
00001E36  6710                     beq        +0x12 /* 00001E48 */
00001E38  7032                     moveq.l    D0, 0x32
00001E3A  C1C7                     muls.w     D0, D7
00001E3C  204D                     movea.l    A0, A5
00001E3E  D1C0                     add.l      A0, D0
00001E40  0C68 0005 F1BA           cmpi.w     [A0 - 0xE46], 0x5
00001E46  6638                     bne        +0x3A /* 00001E80 */
label00001E48:
00001E48  526D EA26                addq.w     [A5 - 0x15DA], 1
00001E4C  7032                     moveq.l    D0, 0x32
00001E4E  C1C7                     muls.w     D0, D7
00001E50  204D                     movea.l    A0, A5
00001E52  D1C0                     add.l      A0, D0
00001E54  317C 0006 F1BA           move.w     [A0 - 0xE46], 0x6
00001E5A  06AD 0000 01F4 F484      addi.l     [A5 - 0xB7C], 0x1F4
00001E62  4EAD 0072                jsr        [A5 + 0x72 /* export_10, CODE:2 @ 0000068E */]
00001E66  2F3C 0002 0055           move.l     -[A7], 0x20055
00001E6C  4EAD 008A                jsr        [A5 + 0x8A /* export_13, CODE:2 @ 000035E8 */]
00001E70  1EBC 0001                move.b     [A7], 0x1
00001E74  3F07                     move.w     -[A7], D7
00001E76  4EBA E400                jsr        [PC - 0x1C00 /* 00000278 */]
00001E7A  5C8F                     addq.l     A7, 6
00001E7C  6000 029A                bra        +0x29C /* 00002118 */
label00001E80:
00001E80  7032                     moveq.l    D0, 0x32
00001E82  C1C7                     muls.w     D0, D7
00001E84  204D                     movea.l    A0, A5
00001E86  D1C0                     add.l      A0, D0
00001E88  7A06                     moveq.l    D5, 0x06
00001E8A  DA68 F19C                add.w      D5, [A0 - 0xE64]
00001E8E  9A6D F16C                sub.w      D5, [A5 - 0xE94]
00001E92  0C45 FFFE                cmpi.w     D5, 0xFFFE
00001E96  6C54                     bge        +0x56 /* 00001EEC */
00001E98  4A6D F498                tst.w      [A5 - 0xB68]
00001E9C  661A                     bne        +0x1C /* 00001EB8 */
00001E9E  7018                     moveq.l    D0, 0x18
00001EA0  D06D F16E                add.w      D0, [A5 - 0xE92]
00001EA4  3B40 F494                move.w     [A5 - 0xB6C], D0
00001EA8  72E8                     moveq.l    D1, 0xFFFFFFE8
00001EAA  D26D F170                add.w      D1, [A5 - 0xE90]
00001EAE  3B41 F496                move.w     [A5 - 0xB6A], D1
00001EB2  3B7C 0006 F498           move.w     [A5 - 0xB68], 0x6
label00001EB8:
00001EB8  3B7C 0004 F192           move.w     [A5 - 0xE6E], 0x4
00001EBE  4A2D F196                tst.b      [A5 - 0xE6A]
00001EC2  6708                     beq        +0xA /* 00001ECC */
00001EC4  3B7C 0008 F190           move.w     [A5 - 0xE70], 0x8
00001ECA  6006                     bra        +0x8 /* 00001ED2 */
label00001ECC:
00001ECC  3B7C 0009 F190           move.w     [A5 - 0xE70], 0x9 /* '\t' */
label00001ED2:
00001ED2  7025                     moveq.l    D0, 0x25
00001ED4  D06D F16C                add.w      D0, [A5 - 0xE94]
00001ED8  3B40 F170                move.w     [A5 - 0xE90], D0
00001EDC  2F3C 0004 006E           move.l     -[A7], 0x4006E
00001EE2  4EAD 008A                jsr        [A5 + 0x8A /* export_13, CODE:2 @ 000035E8 */]
00001EE6  588F                     addq.l     A7, 4
00001EE8  6000 01F2                bra        +0x1F4 /* 000020DC */
label00001EEC:
00001EEC  0C45 0002                cmpi.w     D5, 0x2
00001EF0  6F00 01B4                ble        +0x1B6 /* 000020A6 */
00001EF4  7032                     moveq.l    D0, 0x32
00001EF6  C1C7                     muls.w     D0, D7
00001EF8  204D                     movea.l    A0, A5
00001EFA  D1C0                     add.l      A0, D0
00001EFC  0C68 0003 F1BA           cmpi.w     [A0 - 0xE46], 0x3
00001F02  6612                     bne        +0x14 /* 00001F16 */
00001F04  7032                     moveq.l    D0, 0x32
00001F06  C1C7                     muls.w     D0, D7
00001F08  204D                     movea.l    A0, A5
00001F0A  D1C0                     add.l      A0, D0
00001F0C  0C68 0010 F1BE           cmpi.w     [A0 - 0xE42], 0x10
00001F12  6D00 0204                blt        +0x206 /* 00002118 */
label00001F16:
00001F16  7032                     moveq.l    D0, 0x32
00001F18  C1C7                     muls.w     D0, D7
00001F1A  204D                     movea.l    A0, A5
00001F1C  D1C0                     add.l      A0, D0
00001F1E  7032                     moveq.l    D0, 0x32
00001F20  C1C7                     muls.w     D0, D7
00001F22  224D                     movea.l    A1, A5
00001F24  D3C0                     add.l      A1, D0
00001F26  3828 F1A2                move.w     D4, [A0 - 0xE5E]
00001F2A  D869 F19E                add.w      D4, [A1 - 0xE62]
00001F2E  E244                     asr        D4.w, 1
00001F30  7032                     moveq.l    D0, 0x32
00001F32  C1C7                     muls.w     D0, D7
00001F34  204D                     movea.l    A0, A5
00001F36  D1C0                     add.l      A0, D0
00001F38  0C68 0003 F1BA           cmpi.w     [A0 - 0xE46], 0x3
00001F3E  6610                     bne        +0x12 /* 00001F50 */
00001F40  7032                     moveq.l    D0, 0x32
00001F42  C1C7                     muls.w     D0, D7
00001F44  204D                     movea.l    A0, A5
00001F46  D1C0                     add.l      A0, D0
00001F48  76FE                     moveq.l    D3, 0xFFFFFFFE
00001F4A  D668 F1A0                add.w      D3, [A0 - 0xE60]
00001F4E  601A                     bra        +0x1C /* 00001F6A */
label00001F50:
00001F50  7032                     moveq.l    D0, 0x32
00001F52  C1C7                     muls.w     D0, D7
00001F54  204D                     movea.l    A0, A5
00001F56  D1C0                     add.l      A0, D0
00001F58  7032                     moveq.l    D0, 0x32
00001F5A  C1C7                     muls.w     D0, D7
00001F5C  224D                     movea.l    A1, A5
00001F5E  D3C0                     add.l      A1, D0
00001F60  3628 F1A0                move.w     D3, [A0 - 0xE60]
00001F64  D669 F19C                add.w      D3, [A1 - 0xE64]
00001F68  E243                     asr        D3.w, 1
label00001F6A:
00001F6A  7032                     moveq.l    D0, 0x32
00001F6C  C1C7                     muls.w     D0, D7
00001F6E  72F4                     moveq.l    D1, 0xFFFFFFF4
00001F70  D244                     add.w      D1, D4
00001F72  204D                     movea.l    A0, A5
00001F74  D1C0                     add.l      A0, D0
00001F76  3141 F19E                move.w     [A0 - 0xE62], D1
00001F7A  7032                     moveq.l    D0, 0x32
00001F7C  C1C7                     muls.w     D0, D7
00001F7E  720C                     moveq.l    D1, 0x0C
00001F80  D244                     add.w      D1, D4
00001F82  204D                     movea.l    A0, A5
00001F84  D1C0                     add.l      A0, D0
00001F86  3141 F1A2                move.w     [A0 - 0xE5E], D1
00001F8A  7032                     moveq.l    D0, 0x32
00001F8C  C1C7                     muls.w     D0, D7
00001F8E  204D                     movea.l    A0, A5
00001F90  D1C0                     add.l      A0, D0
00001F92  0C68 0003 F1BA           cmpi.w     [A0 - 0xE46], 0x3
00001F98  6612                     bne        +0x14 /* 00001FAC */
00001F9A  7032                     moveq.l    D0, 0x32
00001F9C  C1C7                     muls.w     D0, D7
00001F9E  72E8                     moveq.l    D1, 0xFFFFFFE8
00001FA0  D243                     add.w      D1, D3
00001FA2  204D                     movea.l    A0, A5
00001FA4  D1C0                     add.l      A0, D0
00001FA6  3141 F19C                move.w     [A0 - 0xE64], D1
00001FAA  6010                     bra        +0x12 /* 00001FBC */
label00001FAC:
00001FAC  7032                     moveq.l    D0, 0x32
00001FAE  C1C7                     muls.w     D0, D7
00001FB0  72F4                     moveq.l    D1, 0xFFFFFFF4
00001FB2  D243                     add.w      D1, D3
00001FB4  204D                     movea.l    A0, A5
00001FB6  D1C0                     add.l      A0, D0
00001FB8  3141 F19C                move.w     [A0 - 0xE64], D1
label00001FBC:
00001FBC  7032                     moveq.l    D0, 0x32
00001FBE  C1C7                     muls.w     D0, D7
00001FC0  204D                     movea.l    A0, A5
00001FC2  D1C0                     add.l      A0, D0
00001FC4  7032                     moveq.l    D0, 0x32
00001FC6  C1C7                     muls.w     D0, D7
00001FC8  7218                     moveq.l    D1, 0x18
00001FCA  D268 F19C                add.w      D1, [A0 - 0xE64]
00001FCE  204D                     movea.l    A0, A5
00001FD0  D1C0                     add.l      A0, D0
00001FD2  3141 F1A0                move.w     [A0 - 0xE60], D1
00001FD6  7032                     moveq.l    D0, 0x32
00001FD8  C1C7                     muls.w     D0, D7
00001FDA  204D                     movea.l    A0, A5
00001FDC  D1C0                     add.l      A0, D0
00001FDE  3028 F19E                move.w     D0, [A0 - 0xE62]
00001FE2  E948                     lsl        D0.w, 4
00001FE4  7232                     moveq.l    D1, 0x32
00001FE6  C3C7                     muls.w     D1, D7
00001FE8  204D                     movea.l    A0, A5
00001FEA  D1C1                     add.l      A0, D1
00001FEC  3140 F1AC                move.w     [A0 - 0xE54], D0
00001FF0  7032                     moveq.l    D0, 0x32
00001FF2  C1C7                     muls.w     D0, D7
00001FF4  204D                     movea.l    A0, A5
00001FF6  D1C0                     add.l      A0, D0
00001FF8  3028 F19C                move.w     D0, [A0 - 0xE64]
00001FFC  E948                     lsl        D0.w, 4
00001FFE  7232                     moveq.l    D1, 0x32
00002000  C3C7                     muls.w     D1, D7
00002002  204D                     movea.l    A0, A5
00002004  D1C1                     add.l      A0, D1
00002006  3140 F1AE                move.w     [A0 - 0xE52], D0
0000200A  7032                     moveq.l    D0, 0x32
0000200C  C1C7                     muls.w     D0, D7
0000200E  204D                     movea.l    A0, A5
00002010  D1C0                     add.l      A0, D0
00002012  317C 0004 F1BA           move.w     [A0 - 0xE46], 0x4
00002018  7032                     moveq.l    D0, 0x32
0000201A  C1C7                     muls.w     D0, D7
0000201C  204D                     movea.l    A0, A5
0000201E  D1C0                     add.l      A0, D0
00002020  7032                     moveq.l    D0, 0x32
00002022  C1C7                     muls.w     D0, D7
00002024  224D                     movea.l    A1, A5
00002026  D3C0                     add.l      A1, D0
00002028  2368 F19C F1A4           move.l     [A1 - 0xE5C], [A0 - 0xE64]
0000202E  2368 F1A0 F1A8           move.l     [A1 - 0xE58], [A0 - 0xE60]
00002034  7032                     moveq.l    D0, 0x32
00002036  C1C7                     muls.w     D0, D7
00002038  204D                     movea.l    A0, A5
0000203A  D1C0                     add.l      A0, D0
0000203C  7032                     moveq.l    D0, 0x32
0000203E  C1C7                     muls.w     D0, D7
00002040  224D                     movea.l    A1, A5
00002042  D3C0                     add.l      A1, D0
00002044  3368 F1AC F1B0           move.w     [A1 - 0xE50], [A0 - 0xE54]
0000204A  7032                     moveq.l    D0, 0x32
0000204C  C1C7                     muls.w     D0, D7
0000204E  204D                     movea.l    A0, A5
00002050  D1C0                     add.l      A0, D0
00002052  7032                     moveq.l    D0, 0x32
00002054  C1C7                     muls.w     D0, D7
00002056  224D                     movea.l    A1, A5
00002058  D3C0                     add.l      A1, D0
0000205A  3368 F1AE F1B2           move.w     [A1 - 0xE4E], [A0 - 0xE52]
00002060  7032                     moveq.l    D0, 0x32
00002062  C1C7                     muls.w     D0, D7
00002064  204D                     movea.l    A0, A5
00002066  D1C0                     add.l      A0, D0
00002068  3028 F1BC                move.w     D0, [A0 - 0xE44]
0000206C  670A                     beq        +0xC /* 00002078 */
0000206E  6B24                     bmi        +0x26 /* 00002094 */
00002070  5540                     subq.w     D0, 2
00002072  6718                     beq        +0x1A /* 0000208C */
00002074  6A1E                     bpl        +0x20 /* 00002094 */
00002076  600A                     bra        +0xC /* 00002082 */
label00002078:
00002078  06AD 0000 01F4 F484      addi.l     [A5 - 0xB7C], 0x1F4
00002080  6012                     bra        +0x14 /* 00002094 */
label00002082:
00002082  06AD 0000 03E8 F484      addi.l     [A5 - 0xB7C], 0x3E8
0000208A  6008                     bra        +0xA /* 00002094 */
label0000208C:
0000208C  06AD 0000 05DC F484      addi.l     [A5 - 0xB7C], 0x5DC
label00002094:
00002094  4EAD 0072                jsr        [A5 + 0x72 /* export_10, CODE:2 @ 0000068E */]
00002098  2F3C 0004 006E           move.l     -[A7], 0x4006E
0000209E  4EAD 008A                jsr        [A5 + 0x8A /* export_13, CODE:2 @ 000035E8 */]
000020A2  588F                     addq.l     A7, 4
000020A4  6036                     bra        +0x38 /* 000020DC */
label000020A6:
000020A6  7032                     moveq.l    D0, 0x32
000020A8  C1C7                     muls.w     D0, D7
000020AA  204D                     movea.l    A0, A5
000020AC  D1C0                     add.l      A0, D0
000020AE  4A68 F1B4                tst.w      [A0 - 0xE4C]
000020B2  6F10                     ble        +0x12 /* 000020C4 */
000020B4  7032                     moveq.l    D0, 0x32
000020B6  C1C7                     muls.w     D0, D7
000020B8  204D                     movea.l    A0, A5
000020BA  D1C0                     add.l      A0, D0
000020BC  117C 0001 F1CC           move.b     [A0 - 0xE34], 0x1
000020C2  600C                     bra        +0xE /* 000020D0 */
label000020C4:
000020C4  7032                     moveq.l    D0, 0x32
000020C6  C1C7                     muls.w     D0, D7
000020C8  204D                     movea.l    A0, A5
000020CA  D1C0                     add.l      A0, D0
000020CC  4228 F1CC                clr.b      [A0 - 0xE34]
label000020D0:
000020D0  2F3C 000C 0032           move.l     -[A7], 0xC0032
000020D6  4EAD 008A                jsr        [A5 + 0x8A /* export_13, CODE:2 @ 000035E8 */]
000020DA  588F                     addq.l     A7, 4
label000020DC:
000020DC  3C2D F18C                move.w     D6, [A5 - 0xE74]
000020E0  7032                     moveq.l    D0, 0x32
000020E2  C1C7                     muls.w     D0, D7
000020E4  204D                     movea.l    A0, A5
000020E6  D1C0                     add.l      A0, D0
000020E8  3B68 F1B4 F18C           move.w     [A5 - 0xE74], [A0 - 0xE4C]
000020EE  7032                     moveq.l    D0, 0x32
000020F0  C1C7                     muls.w     D0, D7
000020F2  204D                     movea.l    A0, A5
000020F4  D1C0                     add.l      A0, D0
000020F6  3146 F1B4                move.w     [A0 - 0xE4C], D6
000020FA  3C2D F18E                move.w     D6, [A5 - 0xE72]
000020FE  7032                     moveq.l    D0, 0x32
00002100  C1C7                     muls.w     D0, D7
00002102  204D                     movea.l    A0, A5
00002104  D1C0                     add.l      A0, D0
00002106  3B68 F1B6 F18E           move.w     [A5 - 0xE72], [A0 - 0xE4A]
0000210C  7032                     moveq.l    D0, 0x32
0000210E  C1C7                     muls.w     D0, D7
00002110  204D                     movea.l    A0, A5
00002112  D1C0                     add.l      A0, D0
00002114  3146 F1B6                move.w     [A0 - 0xE4A], D6
label00002118:
00002118  4CDF 00F8                movem.l    D3,D4,D5,D6,D7, [A7]+
0000211C  4E5E                     unlink     A6
0000211E  4E75                     rts
export_46:
00002120  4E56 FFE8                link       A6, -0x0018
00002124  2F07                     move.l     -[A7], D7
00002126  2D6D F16C FFF0           move.l     [A6 - 0x10], [A5 - 0xE94]
0000212C  2D6D F170 FFF4           move.l     [A6 - 0xC], [A5 - 0xE90]
00002132  486E FFF0                pea.l      [A6 - 0x10]
00002136  2F3C 0008 0008           move.l     -[A7], 0x80008
0000213C  A8A9                     syscall    InsetRect
0000213E  4A2D F199                tst.b      [A5 - 0xE67]
00002142  670C                     beq        +0xE /* 00002150 */
00002144  2D6D F17C FFE8           move.l     [A6 - 0x18], [A5 - 0xE84]
0000214A  2D6D F180 FFEC           move.l     [A6 - 0x14], [A5 - 0xE80]
label00002150:
00002150  486E FFE8                pea.l      [A6 - 0x18]
00002154  2F3C 0008 0008           move.l     -[A7], 0x80008
0000215A  A8A9                     syscall    InsetRect
0000215C  7E00                     moveq.l    D7, 0x00
0000215E  6072                     bra        +0x74 /* 000021D2 */
label00002160:
00002160  7032                     moveq.l    D0, 0x32
00002162  C1C7                     muls.w     D0, D7
00002164  204D                     movea.l    A0, A5
00002166  D1C0                     add.l      A0, D0
00002168  0C68 FFFF F1BA           cmpi.w     [A0 - 0xE46], 0xFFFF
0000216E  6760                     beq        +0x62 /* 000021D0 */
00002170  7032                     moveq.l    D0, 0x32
00002172  C1C7                     muls.w     D0, D7
00002174  204D                     movea.l    A0, A5
00002176  D1C0                     add.l      A0, D0
00002178  0C68 0006 F1BA           cmpi.w     [A0 - 0xE46], 0x6
0000217E  6750                     beq        +0x52 /* 000021D0 */
00002180  4227                     clr.b      -[A7]
00002182  486E FFF0                pea.l      [A6 - 0x10]
00002186  7032                     moveq.l    D0, 0x32
00002188  C1C7                     muls.w     D0, D7
0000218A  204D                     movea.l    A0, A5
0000218C  D1C0                     add.l      A0, D0
0000218E  4868 F19C                pea.l      [A0 - 0xE64]
00002192  486E FFF8                pea.l      [A6 - 0x8]
00002196  A8AA                     syscall    SectRect
00002198  4A1F                     tst.b      [A7]+
0000219A  670A                     beq        +0xC /* 000021A6 */
0000219C  3F07                     move.w     -[A7], D7
0000219E  4EBA FC7C                jsr        [PC - 0x384 /* 00001E1C */]
000021A2  548F                     addq.l     A7, 2
000021A4  602A                     bra        +0x2C /* 000021D0 */
label000021A6:
000021A6  4A2D F199                tst.b      [A5 - 0xE67]
000021AA  6724                     beq        +0x26 /* 000021D0 */
000021AC  4227                     clr.b      -[A7]
000021AE  486E FFE8                pea.l      [A6 - 0x18]
000021B2  7032                     moveq.l    D0, 0x32
000021B4  C1C7                     muls.w     D0, D7
000021B6  204D                     movea.l    A0, A5
000021B8  D1C0                     add.l      A0, D0
000021BA  4868 F19C                pea.l      [A0 - 0xE64]
000021BE  486E FFF8                pea.l      [A6 - 0x8]
000021C2  A8AA                     syscall    SectRect
000021C4  4A1F                     tst.b      [A7]+
000021C6  6708                     beq        +0xA /* 000021D0 */
000021C8  3F07                     move.w     -[A7], D7
000021CA  4EBA FC50                jsr        [PC - 0x3B0 /* 00001E1C */]
000021CE  548F                     addq.l     A7, 2
label000021D0:
000021D0  5247                     addq.w     D7, 1
label000021D2:
000021D2  BE6D F49A                cmp.w      D7, [A5 - 0xB66]
000021D6  6D88                     blt        -0x76 /* 00002160 */
000021D8  2E1F                     move.l     D7, [A7]+
000021DA  4E5E                     unlink     A6
000021DC  4E75                     rts
export_24:
000021DE  4A78 028E                tst.w      [0x0000028E /* ROM85 */]
000021E2  6B22                     bmi        +0x24 /* 00002206 */
000021E4  303C 0090                move.w     D0, 0x90
000021E8  A346                     syscall    GetOSTrapAddress, flags=3
000021EA  2248                     movea.l    A1, A0
000021EC  303C 009F                move.w     D0, 0x9F
000021F0  A746                     syscall    GetToolBoxTrapAddress/GetToolTrapAddress, flags=7
000021F2  B3C8                     cmpa.l     A1, A0
000021F4  6710                     beq        +0x12 /* 00002206 */
000021F6  225F                     movea.l    A1, [A7]+
000021F8  205F                     movea.l    A0, [A7]+
000021FA  301F                     move.w     D0, [A7]+
000021FC  2F09                     move.l     -[A7], A1
000021FE  A090                     syscall    SysEnvirons
00002200  3F40 0004                move.w     [A7 + 0x4], D0
00002204  4E75                     rts
label00002206:
00002206  206F 0004                movea.l    A0, [A7 + 0x4]
0000220A  303C 0001                move.w     D0, 0x1
0000220E  2248                     movea.l    A1, A0
00002210  6006                     bra        +0x8 /* 00002218 */
00002212  0313                     btst       [A3], D1
00002214  0B02                     btst       D2, D5
00002216  0100                     btst       D0, D0
label00002218:
00002218  303C 0010                move.w     D0, 0x10
0000221C  E240                     asr        D0.w, 1
0000221E  5340                     subq.w     D0, 1
label00002220:
00002220  4258                     clr.w      [A0]+
00002222  51C8 FFFC                dbf        D0, -0x6 /* 00002220 */
00002226  32BC 0002                move.w     [A1], 0x2
0000222A  2078 02AE                movea.l    A0, [0x000002AE /* ROMBase */]
0000222E  337C FFFE 0002           move.w     [A1 + 0x2], 0xFFFE
00002234  0C28 00FF 0009           cmpi.b     [A0 + 0x9], 0xFF
0000223A  6742                     beq        +0x44 /* 0000227E */
0000223C  4A28 0008                tst.b      [A0 + 0x8]
00002240  6E20                     bgt        +0x22 /* 00002262 */
00002242  337C FFFF 0002           move.w     [A1 + 0x2], 0xFFFF
00002248  4A78 028E                tst.w      [0x0000028E /* ROM85 */]
0000224C  6B30                     bmi        +0x32 /* 0000227E */
0000224E  337C 0001 0002           move.w     [A1 + 0x2], 0x1
00002254  4A78 0B22                tst.w      [0x00000B22 /* HWCfgFlags */]
00002258  6A24                     bpl        +0x26 /* 0000227E */
0000225A  337C 0002 0002           move.w     [A1 + 0x2], 0x2
00002260  601C                     bra        +0x1E /* 0000227E */
label00002262:
00002262  4269 0002                clr.w      [A1 + 0x2]
00002266  0C28 0002 0008           cmpi.b     [A0 + 0x8], 0x2
0000226C  6E10                     bgt        +0x12 /* 0000227E */
0000226E  6708                     beq        +0xA /* 00002278 */
00002270  337C 0004 0002           move.w     [A1 + 0x2], 0x4
00002276  6006                     bra        +0x8 /* 0000227E */
label00002278:
00002278  337C 0003 0002           move.w     [A1 + 0x2], 0x3
label0000227E:
0000227E  4269 0004                clr.w      [A1 + 0x4]
00002282  0C38 0002 012F           cmpi.b     [0x0000012F /* CPUFlag */], 0x2
00002288  6E0A                     bgt        +0xC /* 00002294 */
0000228A  1038 012F                move.b     D0, [0x0000012F /* CPUFlag */]
0000228E  5240                     addq.w     D0, 1
00002290  1340 0007                move.b     [A1 + 0x7], D0
label00002294:
00002294  4A78 028E                tst.w      [0x0000028E /* ROM85 */]
00002298  6B0E                     bmi        +0x10 /* 000022A8 */
0000229A  0838 0004 0B22           btst.b     [0x00000B22 /* HWCfgFlags */], 0x4
000022A0  6706                     beq        +0x8 /* 000022A8 */
000022A2  137C 0001 0008           move.b     [A1 + 0x8], 0x1
label000022A8:
000022A8  0C78 3FFF 028E           cmpi.w     [0x0000028E /* ROM85 */], 0x3FFF
000022AE  6206                     bhi        +0x8 /* 000022B6 */
000022B0  137C 0001 0009           move.b     [A1 + 0x9], 0x1
label000022B6:
000022B6  1038 021E                move.b     D0, [0x0000021E /* KbdType */]
000022BA  41FA FF5B                lea.l      A0, [PC - 0xA5 /* 00002217, value 0x303C00 '0<\0', cstring "" */]
000022BE  323C 0004                move.w     D1, 0x4
label000022C2:
000022C2  B020                     cmp.b      D0, -[A0]
000022C4  57C9 FFFC                dbeq       D1, -0x6 /* 000022C2 */
000022C8  5241                     addq.w     D1, 1
000022CA  3341 000A                move.w     [A1 + 0xA], D1
000022CE  4A38 0291                tst.b      [0x00000291 /* PortBUse */]
000022D2  6B18                     bmi        +0x1A /* 000022EC */
000022D4  1238 01FB                move.b     D1, [0x000001FB /* SPConfig */]
000022D8  0201 000F                andi.b     D1, 0xF
000022DC  0C01 0001                cmpi.b     D1, 0x1
000022E0  660A                     bne        +0xC /* 000022EC */
000022E2  2078 02DC                movea.l    A0, [0x000002DC /* ABusDCE */]
000022E6  1368 0007 000D           move.b     [A1 + 0xD], [A0 + 0x7]
label000022EC:
000022EC  3378 0210 000E           move.w     [A1 + 0xE], [0x00000210 /* BootDrive */]
000022F2  4A78 03F6                tst.w      [0x000003F6 /* FSFCBLen */]
000022F6  6D44                     blt        +0x46 /* 0000233C */
000022F8  4269 000E                clr.w      [A1 + 0xE]
000022FC  323C 003C                move.w     D1, 0x3C /* '<' */
label00002300:
00002300  4267                     clr.w      -[A7]
00002302  51C9 FFFC                dbf        D1, -0x6 /* 00002300 */
00002306  204F                     movea.l    A0, A7
00002308  3178 0A58 0018           move.w     [A0 + 0x18], [0x00000A58 /* SysMap */]
0000230E  7008                     moveq.l    D0, 0x08
00002310  A260                     syscall    FSDispatch/HFSDispatch, flags=2
00002312  6624                     bne        +0x26 /* 00002338 */
00002314  3168 0034 0016           move.w     [A0 + 0x16], [A0 + 0x34]
0000231A  A207                     syscall    GetVolInfo/PBHGetVInfo/HGetVInfo, flags=2
0000231C  661A                     bne        +0x1C /* 00002338 */
0000231E  2168 005A 0030           move.l     [A0 + 0x30], [A0 + 0x5A]
00002324  217C 4552 494B 001C      move.l     [A0 + 0x1C], 0x4552494B /* 'ERIK' */
0000232C  7001                     moveq.l    D0, 0x01
0000232E  A260                     syscall    FSDispatch/HFSDispatch, flags=2
00002330  6606                     bne        +0x8 /* 00002338 */
00002332  3368 0016 000E           move.w     [A1 + 0xE], [A0 + 0x16]
label00002338:
00002338  4FEF 007A                lea.l      A7, [A7 + 0x7A]
label0000233C:
0000233C  2049                     movea.l    A0, A1
0000233E  225F                     movea.l    A1, [A7]+
00002340  5C4F                     addq.w     A7, 6
00002342  3EBC EA84                move.w     [A7], 0xEA84
00002346  4ED1                     jmp        [A1]
export_25:
fn00002348:
00002348  4E56 0000                link       A6, 0
0000234C  203C 0000 A89F           move.l     D0, 0xA89F
00002352  A746                     syscall    GetToolBoxTrapAddress/GetToolTrapAddress, flags=7
00002354  2F08                     move.l     -[A7], A0
00002356  203C 0000 A0AD           move.l     D0, 0xA0AD
0000235C  A346                     syscall    GetOSTrapAddress, flags=3
0000235E  B1DF                     cmpa.l     A0, [A7]+
00002360  670E                     beq        +0x10 /* 00002370 */
00002362  202E 000C                move.l     D0, [A6 + 0xC]
00002366  A1AD                     syscall    Gestalt, flags=1
00002368  226E 0008                movea.l    A1, [A6 + 0x8]
0000236C  2288                     move.l     [A1], A0
0000236E  6026                     bra        +0x28 /* 00002396 */
label00002370:
00002370  41FA 0036                lea.l      A0, [PC + 0x36 /* 000023A8, value 0x76657273 'vers', cstring "vers" */]
00002374  303C EA51                move.w     D0, 0xEA51
00002378  222E 000C                move.l     D1, [A6 + 0xC]
label0000237C:
0000237C  B298                     cmp.l      D1, [A0]+
0000237E  6706                     beq        +0x8 /* 00002386 */
00002380  4A98                     tst.l      [A0]+
00002382  6712                     beq        +0x14 /* 00002396 */
00002384  60F6                     bra        -0x8 /* 0000237C */
label00002386:
00002386  43FA 0020                lea.l      A1, [PC + 0x20 /* 000023A8, value 0x76657273 'vers', cstring "vers" */]
0000238A  D3D0                     add.l      A1, [A0]
0000238C  4ED1                     jmp        [A1]
label0000238E:
0000238E  226E 0008                movea.l    A1, [A6 + 0x8]
00002392  2280                     move.l     [A1], D0
00002394  4240                     clr.w      D0
label00002396:
00002396  3D40 0010                move.w     [A6 + 0x10], D0
0000239A  4E5E                     unlink     A6
0000239C  205F                     movea.l    A0, [A7]+
0000239E  508F                     addq.l     A7, 8
000023A0  4ED0                     jmp        [A0]
label000023A2:
000023A2  303C EA52                move.w     D0, 0xEA52
000023A6  60EE                     bra        -0x10 /* 00002396 */
000023A8  7665                     moveq.l    D3, 0x65
000023AA  7273                     moveq.l    D1, 0x73
000023AC  0000 0060                ori.b      D0, 0x60 /* '`' */
000023B0  6D61                     blt        +0x63 /* 00002413 */
000023B2  6368                     bls        +0x6A /* 0000241C */
000023B4  0000 0064                ori.b      D0, 0x64 /* 'd' */
000023B8  7379                     moveq.l    D1, 0x79
000023BA  7376                     moveq.l    D1, 0x76
000023BC  0000 0088                ori.b      D0, 0x88
000023C0  7072                     moveq.l    D0, 0x72
000023C2  6F63                     ble        +0x65 /* 00002427 */
000023C4  0000 0092                ori.b      D0, 0x92
000023C8  6670                     bne        +0x72 /* 0000243A */
000023CA  7520                     moveq.l    D2, 0x20
000023CC  0000 009E                ori.b      D0, 0x9E
000023D0  7164                     moveq.l    D0, 0x64
000023D2  2020                     move.l     D0, -[A0]
000023D4  0000 00E8                ori.b      D0, 0xE8
000023D8  6B62                     bmi        +0x64 /* 0000243C */
000023DA  6420                     bcc        +0x22 /* 000023FC */
000023DC  0000 011A                ori.b      D0, 0x1A
000023E0  6174                     bsr        +0x76 /* 00002456 */
000023E2  6C6B                     bge        +0x6D /* 0000244F */
000023E4  0000 0142                ori.b      D0, 0x42 /* 'B' */
000023E8  6D6D                     blt        +0x6F /* 00002457 */
000023EA  7520                     moveq.l    D2, 0x20
000023EC  0000 0164                ori.b      D0, 0x64 /* 'd' */
000023F0  7261                     moveq.l    D1, 0x61
000023F2  6D20                     blt        +0x22 /* 00002414 */
000023F4  0000 0188                ori.b      D0, 0x88
000023F8  6C72                     bge        +0x74 /* 0000246C */
000023FA  616D                     bsr        +0x6F /* 00002469 */
label000023FC:
000023FC  0000 0188                ori.b      D0, 0x88
00002400  0000 0000                ori.b      D0, 0x0
00002404  0000 0000                ori.b      D0, 0x0
00002408  7001                     moveq.l    D0, 0x01
0000240A  6082                     bra        -0x7C /* 0000238E */
0000240C  2278 02AE                movea.l    A1, [0x000002AE /* ROMBase */]
00002410  7004                     moveq.l    D0, 0x04
00002412  0C69 0075 0008           cmpi.w     [A1 + 0x8], 0x75 /* 'u' */
// begin alternate branch 00002414-0000241C
label00002414:
00002414  0075 0008 6712 0C69      ori.w      [[A5 + D6 * 8] + 0xC69], 0x8
// end alternate branch 00002414-0000241C
label00002414: // (misaligned)
00002418  6712                     beq        +0x14 /* 0000242C */
0000241A  0C69 0276 0008           cmpi.w     [A1 + 0x8], 0x276
// begin alternate branch 0000241C-00002422
label0000241C:
0000241C  0276 0008 6604           andi.w     [A6 + D6.w * 8 + 0x4], 0x8
// end alternate branch 0000241C-00002422
label0000241C: // (misaligned)
00002420  6604                     bne        +0x6 /* 00002426 */
00002422  5240                     addq.w     D0, 1
00002424  6006                     bra        +0x8 /* 0000242C */
label00002426:
00002426  1038 0CB3                move.b     D0, [0x00000CB3 /* MMUFluff/MachineType */]
0000242A  5C80                     addq.l     D0, 6
label0000242C:
0000242C  6000 FF60                bra        -0x9E /* 0000238E */
00002430  7000                     moveq.l    D0, 0x00
00002432  3038 015A                move.w     D0, [0x0000015A /* SysVersion */]
00002436  6000 FF56                bra        -0xA8 /* 0000238E */
label0000243A:
0000243A  7000                     moveq.l    D0, 0x00
label0000243C:
0000243C  1038 012F                move.b     D0, [0x0000012F /* CPUFlag */]
00002440  5240                     addq.w     D0, 1
00002442  6000 FF4A                bra        -0xB4 /* 0000238E */
00002446  0C38 0004 012F           cmpi.b     [0x0000012F /* CPUFlag */], 0x4
0000244C  6738                     beq        +0x3A /* 00002486 */
0000244E  0838 0004 0B22           btst.b     [0x00000B22 /* HWCfgFlags */], 0x4
00002454  6734                     beq        +0x36 /* 0000248A */
fn00002456:
00002456  204F                     movea.l    A0, A7
00002458  F280 0000                fnop
0000245C  F327                     .extension 0x327 <<F/4-5/1>> // unimplemented
0000245E  3017                     move.w     D0, [A7]
00002460  2E48                     movea.l    A7, A0
00002462  0C40 1F18                cmpi.w     D0, 0x1F18
00002466  6716                     beq        +0x18 /* 0000247E */
00002468  0C40 3F18                cmpi.w     D0, 0x3F18
label0000246C:
0000246C  6710                     beq        +0x12 /* 0000247E */
0000246E  0C40 3F38                cmpi.w     D0, 0x3F38 /* '?8' */
00002472  670E                     beq        +0x10 /* 00002482 */
00002474  0C40 1F38                cmpi.w     D0, 0x1F38
00002478  6708                     beq        +0xA /* 00002482 */
0000247A  7000                     moveq.l    D0, 0x00
0000247C  600E                     bra        +0x10 /* 0000248C */
label0000247E:
0000247E  7001                     moveq.l    D0, 0x01
00002480  600A                     bra        +0xC /* 0000248C */
label00002482:
00002482  7002                     moveq.l    D0, 0x02
00002484  6006                     bra        +0x8 /* 0000248C */
label00002486:
00002486  7003                     moveq.l    D0, 0x03
00002488  6002                     bra        +0x4 /* 0000248C */
label0000248A:
0000248A  7000                     moveq.l    D0, 0x00
label0000248C:
0000248C  6000 FF00                bra        -0xFE /* 0000238E */
00002490  0C78 3FFF 028E           cmpi.w     [0x0000028E /* ROM85 */], 0x3FFF
00002496  6E1C                     bgt        +0x1E /* 000024B4 */
00002498  303C A89F                move.w     D0, 0xA89F
0000249C  A746                     syscall    GetToolBoxTrapAddress/GetToolTrapAddress, flags=7
0000249E  2408                     move.l     D2, A0
000024A0  203C 0000 AB03           move.l     D0, 0xAB03
000024A6  A746                     syscall    GetToolBoxTrapAddress/GetToolTrapAddress, flags=7
000024A8  203C 0000 0100           move.l     D0, 0x100
000024AE  B488                     cmp.l      D2, A0
000024B0  6606                     bne        +0x8 /* 000024B8 */
000024B2  600A                     bra        +0xC /* 000024BE */
label000024B4:
000024B4  7000                     moveq.l    D0, 0x00
000024B6  6006                     bra        +0x8 /* 000024BE */
label000024B8:
000024B8  203C 0000 0200           move.l     D0, 0x200
label000024BE:
000024BE  6000 FECE                bra        -0x130 /* 0000238E */
000024C2  1038 021E                move.b     D0, [0x0000021E /* KbdType */]
000024C6  41FA 0016                lea.l      A0, [PC + 0x16 /* 000024DE, value 0x3130B02 */]
000024CA  2248                     movea.l    A1, A0
label000024CC:
000024CC  1218                     move.b     D1, [A0]+
000024CE  6700 FED2                beq        -0x12C /* 000023A2 */
000024D2  B200                     cmp.b      D1, D0
000024D4  66F6                     bne        -0x8 /* 000024CC */
000024D6  91C9                     sub.l      A0, A1
000024D8  2008                     move.l     D0, A0
000024DA  6000 FEB2                bra        -0x14C /* 0000238E */
000024DE  0313                     btst       [A3], D1
000024E0  0B02                     btst       D2, D5
000024E2  0106                     btst       D6, D0
000024E4  0704                     btst       D4, D3
000024E6  0508                     btst       A0, D2
000024E8  0900                     btst       D0, D4
000024EA  7000                     moveq.l    D0, 0x00
000024EC  4A38 0291                tst.b      [0x00000291 /* PortBUse */]
000024F0  6B16                     bmi        +0x18 /* 00002508 */
000024F2  1238 01FB                move.b     D1, [0x000001FB /* SPConfig */]
000024F6  0201 000F                andi.b     D1, 0xF
000024FA  0C01 0001                cmpi.b     D1, 0x1
000024FE  6608                     bne        +0xA /* 00002508 */
00002500  2078 02DC                movea.l    A0, [0x000002DC /* ABusDCE */]
00002504  1028 0007                move.b     D0, [A0 + 0x7]
label00002508:
00002508  6000 FE84                bra        -0x17A /* 0000238E */
0000250C  0C38 0002 012F           cmpi.b     [0x0000012F /* CPUFlag */], 0x2
00002512  6D16                     blt        +0x18 /* 0000252A */
00002514  7000                     moveq.l    D0, 0x00
00002516  1038 0CB1                move.b     D0, [0x00000CB1 /* MMUType */]
0000251A  0C00 0001                cmpi.b     D0, 0x1
0000251E  670C                     beq        +0xE /* 0000252C */
00002520  0C00 0003                cmpi.b     D0, 0x3
00002524  6D04                     blt        +0x6 /* 0000252A */
00002526  5340                     subq.w     D0, 1
00002528  6002                     bra        +0x4 /* 0000252C */
label0000252A:
0000252A  7000                     moveq.l    D0, 0x00
label0000252C:
0000252C  6000 FE60                bra        -0x19E /* 0000238E */
00002530  303C A89F                move.w     D0, 0xA89F
00002534  A746                     syscall    GetToolBoxTrapAddress/GetToolTrapAddress, flags=7
00002536  2408                     move.l     D2, A0
00002538  203C 0000 A88F           move.l     D0, 0xA88F
0000253E  A746                     syscall    GetToolBoxTrapAddress/GetToolTrapAddress, flags=7
00002540  2038 0108                move.l     D0, [0x00000108 /* MemTop */]
00002544  B488                     cmp.l      D2, A0
00002546  670A                     beq        +0xC /* 00002552 */
00002548  598F                     subq.l     A7, 4
0000254A  3F3C 0016                move.w     -[A7], 0x16
0000254E  A88F                     syscall    OSDispatch
00002550  201F                     move.l     D0, [A7]+
label00002552:
00002552  6000 FE3A                bra        -0x1C4 /* 0000238E */
export_26:
00002556  225F                     movea.l    A1, [A7]+
00002558  205F                     movea.l    A0, [A7]+
0000255A  A025                     syscall    GetHandleSize
0000255C  2E80                     move.l     [A7], D0
0000255E  6A02                     bpl        +0x4 /* 00002562 */
00002560  4297                     clr.l      [A7]
label00002562:
00002562  4ED1                     jmp        [A1]
export_27:
00002564  225F                     movea.l    A1, [A7]+
00002566  121F                     move.b     D1, [A7]+
00002568  301F                     move.w     D0, [A7]+
0000256A  4A01                     tst.b      D1
0000256C  6704                     beq        +0x6 /* 00002572 */
0000256E  A746                     syscall    GetToolBoxTrapAddress/GetToolTrapAddress, flags=7
00002570  6002                     bra        +0x4 /* 00002574 */
label00002572:
00002572  A346                     syscall    GetOSTrapAddress, flags=3
label00002574:
00002574  2E88                     move.l     [A7], A0
00002576  4ED1                     jmp        [A1]
export_28:
00002578  4E56 FFCE                link       A6, -0x0032
0000257C  204F                     movea.l    A0, A7
0000257E  216E 000E 0012           move.l     [A0 + 0x12], [A6 + 0xE]
00002584  316E 000C 0016           move.w     [A0 + 0x16], [A6 + 0xC]
0000258A  4228 001A                clr.b      [A0 + 0x1A]
0000258E  4228 001B                clr.b      [A0 + 0x1B]
00002592  42A8 001C                clr.l      [A0 + 0x1C]
00002596  701A                     moveq.l    D0, 0x1A
00002598  A060                     syscall    FSDispatch/HFSDispatch
0000259A  0C40 FFCE                cmpi.w     D0, 0xFFCE
0000259E  6602                     bne        +0x4 /* 000025A2 */
000025A0  A000                     syscall    Open/PBHOpen/HOpen
label000025A2:
000025A2  226E 0008                movea.l    A1, [A6 + 0x8]
000025A6  32A8 0018                move.w     [A1], [A0 + 0x18]
000025AA  3D40 0012                move.w     [A6 + 0x12], D0
000025AE  4E5E                     unlink     A6
000025B0  205F                     movea.l    A0, [A7]+
000025B2  4FEF 000A                lea.l      A7, [A7 + 0xA]
000025B6  4ED0                     jmp        [A0]
export_29:
000025B8  4E56 FFCE                link       A6, -0x0032
000025BC  204F                     movea.l    A0, A7
000025BE  316E 0008 0018           move.w     [A0 + 0x18], [A6 + 0x8]
000025C4  A001                     syscall    Close
000025C6  3D40 000A                move.w     [A6 + 0xA], D0
000025CA  4E5E                     unlink     A6
000025CC  205F                     movea.l    A0, [A7]+
000025CE  548F                     addq.l     A7, 2
000025D0  4ED0                     jmp        [A0]
export_30:
000025D2  51C1                     sf         D1
000025D4  6002                     bra        +0x4 /* 000025D8 */
export_31:
000025D6  50C1                     st         D1
label000025D8:
000025D8  4E56 FFCE                link       A6, -0x0032
000025DC  204F                     movea.l    A0, A7
000025DE  216E 0008 0020           move.l     [A0 + 0x20], [A6 + 0x8]
000025E4  316E 0010 0018           move.w     [A0 + 0x18], [A6 + 0x10]
000025EA  226E 000C                movea.l    A1, [A6 + 0xC]
000025EE  2151 0024                move.l     [A0 + 0x24], [A1]
000025F2  4268 002C                clr.w      [A0 + 0x2C]
000025F6  42A8 002E                clr.l      [A0 + 0x2E]
000025FA  4A01                     tst.b      D1
000025FC  6604                     bne        +0x6 /* 00002602 */
000025FE  A002                     syscall    Read
00002600  6002                     bra        +0x4 /* 00002604 */
label00002602:
00002602  A003                     syscall    Write
label00002604:
00002604  3D40 0012                move.w     [A6 + 0x12], D0
00002608  226E 000C                movea.l    A1, [A6 + 0xC]
0000260C  22A8 0028                move.l     [A1], [A0 + 0x28]
00002610  4E5E                     unlink     A6
00002612  225F                     movea.l    A1, [A7]+
00002614  4FEF 000A                lea.l      A7, [A7 + 0xA]
00002618  4ED1                     jmp        [A1]
export_32:
0000261A  4E56 FFB0                link       A6, -0x0050
0000261E  204F                     movea.l    A0, A7
00002620  216E 0012 0012           move.l     [A0 + 0x12], [A6 + 0x12]
00002626  316E 0010 0016           move.w     [A0 + 0x16], [A6 + 0x10]
0000262C  4228 001A                clr.b      [A0 + 0x1A]
00002630  A008                     syscall    Create/PBHCreate/HCreate
00002632  6616                     bne        +0x18 /* 0000264A */
00002634  4268 001C                clr.w      [A0 + 0x1C]
00002638  A00C                     syscall    GetFileInfo/PBHGetFInfo/HGetFileInfo
0000263A  660E                     bne        +0x10 /* 0000264A */
0000263C  43E8 0020                lea.l      A1, [A0 + 0x20]
00002640  22EE 0008                move.l     [A1]+, [A6 + 0x8]
00002644  22AE 000C                move.l     [A1], [A6 + 0xC]
00002648  A00D                     syscall    SetFileInfo/PBHSetFInfo/HSetFileInfo
label0000264A:
0000264A  3D40 0016                move.w     [A6 + 0x16], D0
0000264E  4E5E                     unlink     A6
00002650  225F                     movea.l    A1, [A7]+
00002652  4FEF 000E                lea.l      A7, [A7 + 0xE]
00002656  4ED1                     jmp        [A1]
export_33:
00002658  4E56 FFCE                link       A6, -0x0032
0000265C  204F                     movea.l    A0, A7
0000265E  216E 000A 0012           move.l     [A0 + 0x12], [A6 + 0xA]
00002664  316E 0008 0016           move.w     [A0 + 0x16], [A6 + 0x8]
0000266A  4228 001A                clr.b      [A0 + 0x1A]
0000266E  A009                     syscall    Delete/PBHDelete/HDelete
00002670  3D40 000E                move.w     [A6 + 0xE], D0
00002674  4E5E                     unlink     A6
00002676  225F                     movea.l    A1, [A7]+
00002678  5C8F                     addq.l     A7, 6
0000267A  4ED1                     jmp        [A1]
export_34:
0000267C  205F                     movea.l    A0, [A7]+
0000267E  301F                     move.w     D0, [A7]+
00002680  2F08                     move.l     -[A7], A0
00002682  4E56 FFE0                link       A6, -0x0020
00002686  204F                     movea.l    A0, A7
00002688  317C FFFC 0018           move.w     [A0 + 0x18], 0xFFFC
0000268E  317C 0002 001A           move.w     [A0 + 0x1A], 0x2
00002694  3140 001C                move.w     [A0 + 0x1C], D0
00002698  A204                     syscall    Control, flags=2
0000269A  4E5E                     unlink     A6
0000269C  4E75                     rts
export_35:
0000269E  206F 0008                movea.l    A0, [A7 + 0x8]
000026A2  3F3C 0001                move.w     -[A7], 0x1
000026A6  A9EE                     syscall    Pack7/DecStr68K
000026A8  206F 0004                movea.l    A0, [A7 + 0x4]
000026AC  2080                     move.l     [A0], D0
000026AE  4EFA 000E                jmp        [PC + 0xE /* 000026BE */]
export_36:
000026B2  206F 0004                movea.l    A0, [A7 + 0x4]
000026B6  202F 0008                move.l     D0, [A7 + 0x8]
000026BA  4267                     clr.w      -[A7]
000026BC  A9EE                     syscall    Pack7/DecStr68K
label000026BE:
000026BE  205F                     movea.l    A0, [A7]+
000026C0  504F                     addq.w     A7, 8
000026C2  4ED0                     jmp        [A0]
export_37:
000026C4  206F 0004                movea.l    A0, [A7 + 0x4]
000026C8  2050                     movea.l    A0, [A0]
000026CA  A9E1                     syscall    HandToHand
000026CC  226F 0004                movea.l    A1, [A7 + 0x4]
000026D0  2288                     move.l     [A1], A0
000026D2  3F40 0008                move.w     [A7 + 0x8], D0
000026D6  2E9F                     move.l     [A7], [A7]+
000026D8  4E75                     rts
export_38:
000026DA  4E56 0000                link       A6, 0
000026DE  594F                     subq.w     A7, 4
000026E0  2F3C 5354 5223           move.l     -[A7], 0x53545223 /* 'STR#' */
000026E6  3F2E 000A                move.w     -[A7], [A6 + 0xA]
000026EA  A9A0                     syscall    GetResource
000026EC  226E 000C                movea.l    A1, [A6 + 0xC]
000026F0  4211                     clr.b      [A1]
000026F2  201F                     move.l     D0, [A7]+
000026F4  6722                     beq        +0x24 /* 00002718 */
000026F6  2040                     movea.l    A0, D0
000026F8  2050                     movea.l    A0, [A0]
000026FA  3018                     move.w     D0, [A0]+
000026FC  322E 0008                move.w     D1, [A6 + 0x8]
00002700  6716                     beq        +0x18 /* 00002718 */
00002702  B240                     cmp.w      D1, D0
00002704  6212                     bhi        +0x14 /* 00002718 */
00002706  7000                     moveq.l    D0, 0x00
label00002708:
00002708  5341                     subq.w     D1, 1
0000270A  6706                     beq        +0x8 /* 00002712 */
0000270C  1018                     move.b     D0, [A0]+
0000270E  D1C0                     add.l      A0, D0
00002710  60F6                     bra        -0x8 /* 00002708 */
label00002712:
00002712  1010                     move.b     D0, [A0]
00002714  5240                     addq.w     D0, 1
00002716  A02E                     syscall    BlockMove/BlockMoveData
label00002718:
00002718  4E5E                     unlink     A6
0000271A  205F                     movea.l    A0, [A7]+
0000271C  508F                     addq.l     A7, 8
0000271E  4ED0                     jmp        [A0]
export_39:
00002720  4E56 FF7C                link       A6, -0x0084
00002724  48E7 0F18                movem.l    -[A7], D4,D5,D6,D7,A3,A4
00002728  266E 0008                movea.l    A3, [A6 + 0x8]
0000272C  286E 000C                movea.l    A4, [A6 + 0xC]
00002730  3A2E 0016                move.w     D5, [A6 + 0x16]
00002734  2C2E 0012                move.l     D6, [A6 + 0x12]
00002738  4204                     clr.b      D4
0000273A  558F                     subq.l     A7, 2
0000273C  2F3C 666F 6C64           move.l     -[A7], 0x666F6C64 /* 'fold' */
00002742  486E FF7C                pea.l      [A6 - 0x84]
00002746  4EBA FC00                jsr        [PC - 0x400 /* 00002348 */]
0000274A  3E1F                     move.w     D7, [A7]+
0000274C  660C                     bne        +0xE /* 0000275A */
0000274E  202E FF7C                move.l     D0, [A6 - 0x84]
00002752  0800 0000                btst.b     D0, 0x0
00002756  6702                     beq        +0x4 /* 0000275A */
00002758  7801                     moveq.l    D4, 0x01
label0000275A:
0000275A  4A04                     tst.b      D4
0000275C  671A                     beq        +0x1C /* 00002778 */
0000275E  558F                     subq.l     A7, 2
00002760  3F05                     move.w     -[A7], D5
00002762  2F06                     move.l     -[A7], D6
00002764  1F2E 0010                move.b     -[A7], [A6 + 0x10]
00002768  2F0C                     move.l     -[A7], A4
0000276A  2F0B                     move.l     -[A7], A3
0000276C  7000                     moveq.l    D0, 0x00
0000276E  A823                     syscall    AliasDispatch
00002770  3D5F 0018                move.w     [A6 + 0x18], [A7]+
00002774  6000 00EA                bra        +0xEC /* 00002860 */
label00002778:
00002778  0C86 6D61 6373           cmpi.l     D6, 0x6D616373 /* 'macs' */
0000277E  6742                     beq        +0x44 /* 000027C2 */
00002780  0C86 7465 6D70           cmpi.l     D6, 0x74656D70 /* 'temp' */
00002786  673A                     beq        +0x3C /* 000027C2 */
00002788  0C86 7072 6566           cmpi.l     D6, 0x70726566 /* 'pref' */
0000278E  6732                     beq        +0x34 /* 000027C2 */
00002790  0C86 6578 746E           cmpi.l     D6, 0x6578746E /* 'extn' */
00002796  672A                     beq        +0x2C /* 000027C2 */
00002798  0C86 6374 726C           cmpi.l     D6, 0x6374726C /* 'ctrl' */
0000279E  6722                     beq        +0x24 /* 000027C2 */
000027A0  0C86 616D 6E75           cmpi.l     D6, 0x616D6E75 /* 'amnu' */
000027A6  671A                     beq        +0x1C /* 000027C2 */
000027A8  0C86 7374 7274           cmpi.l     D6, 0x73747274 /* 'strt' */
000027AE  6712                     beq        +0x14 /* 000027C2 */
000027B0  0C86 7072 6E74           cmpi.l     D6, 0x70726E74 /* 'prnt' */
000027B6  670A                     beq        +0xC /* 000027C2 */
000027B8  3D7C FFCE 0018           move.w     [A6 + 0x18], 0xFFCE
000027BE  6000 00A0                bra        +0xA2 /* 00002860 */
label000027C2:
000027C2  7000                     moveq.l    D0, 0x00
000027C4  2D40 FF92                move.l     [A6 - 0x6E], D0
000027C8  0C45 8000                cmpi.w     D5, 0x8000
000027CC  6626                     bne        +0x28 /* 000027F4 */
000027CE  3D78 0A58 FF98           move.w     [A6 - 0x68], [0x00000A58 /* SysMap */]
000027D4  426E FF9C                clr.w      [A6 - 0x64]
000027D8  7002                     moveq.l    D0, 0x02
000027DA  2D40 FFBA                move.l     [A6 - 0x46], D0
000027DE  43EE FF80                lea.l      A1, [A6 - 0x80]
000027E2  2049                     movea.l    A0, A1
000027E4  7008                     moveq.l    D0, 0x08
000027E6  A260                     syscall    FSDispatch/HFSDispatch, flags=2
000027E8  3E00                     move.w     D7, D0
000027EA  6670                     bne        +0x72 /* 0000285C */
000027EC  3D6E FFB4 FF96           move.w     [A6 - 0x6A], [A6 - 0x4C]
000027F2  6004                     bra        +0x6 /* 000027F8 */
label000027F4:
000027F4  3D45 FF96                move.w     [A6 - 0x6A], D5
label000027F8:
000027F8  7006                     moveq.l    D0, 0x06
000027FA  2D40 FFA4                move.l     [A6 - 0x5C], D0
000027FE  41EE FFFA                lea.l      A0, [A6 - 0x6]
00002802  2D48 FFA0                move.l     [A6 - 0x60], A0
00002806  43EE FF80                lea.l      A1, [A6 - 0x80]
0000280A  2049                     movea.l    A0, A1
0000280C  7030                     moveq.l    D0, 0x30
0000280E  A260                     syscall    FSDispatch/HFSDispatch, flags=2
00002810  3E00                     move.w     D7, D0
00002812  0C47 FFCE                cmpi.w     D7, 0xFFCE
00002816  6710                     beq        +0x12 /* 00002828 */
00002818  4A47                     tst.w      D7
0000281A  663A                     bne        +0x3C /* 00002856 */
0000281C  203C 0002 0000           move.l     D0, 0x20000
00002822  C0AE FFFC                and.l      D0, [A6 - 0x4]
00002826  662E                     bne        +0x30 /* 00002856 */
label00002828:
00002828  426E FF9C                clr.w      [A6 - 0x64]
0000282C  7000                     moveq.l    D0, 0x00
0000282E  2D40 FFDA                move.l     [A6 - 0x26], D0
00002832  2D40 FFB0                move.l     [A6 - 0x50], D0
00002836  43EE FF80                lea.l      A1, [A6 - 0x80]
0000283A  2049                     movea.l    A0, A1
0000283C  A207                     syscall    GetVolInfo/PBHGetVInfo/HGetVInfo, flags=2
0000283E  3E00                     move.w     D7, D0
00002840  661A                     bne        +0x1C /* 0000285C */
00002842  4AAE FFDA                tst.l      [A6 - 0x26]
00002846  670A                     beq        +0xC /* 00002852 */
00002848  38AE FF96                move.w     [A4], [A6 - 0x6A]
0000284C  26AE FFDA                move.l     [A3], [A6 - 0x26]
00002850  600A                     bra        +0xC /* 0000285C */
label00002852:
00002852  7ED5                     moveq.l    D7, 0xFFFFFFD5
00002854  6006                     bra        +0x8 /* 0000285C */
label00002856:
00002856  4A47                     tst.w      D7
00002858  6602                     bne        +0x4 /* 0000285C */
0000285A  7ED5                     moveq.l    D7, 0xFFFFFFD5
label0000285C:
0000285C  3D47 0018                move.w     [A6 + 0x18], D7
label00002860:
00002860  4CEE 18F0 FF64           movem.l    D4,D5,D6,D7,A3,A4, [A6 - 0x9C]
00002866  4E5E                     unlink     A6
00002868  205F                     movea.l    A0, [A7]+
0000286A  4FEF 0010                lea.l      A7, [A7 + 0x10]
0000286E  4ED0                     jmp        [A0]
00002870  8A46 494E 4446 4F4C 4... dc.b       "FINDFOLDER"
