# near model CODE resource
# jump table entries: 80-93 (14 of them)
fn00000000:
00000000  4E56 0000                link       A6, 0
00000004  0C6E 0003 0008           cmpi.w     [A6 + 0x8], 0x3
0000000A  6F00 0098                ble        +0x9A /* 000000A4 */
0000000E  206D EEEA                movea.l    A0, [A5 - 0x1116]
00000012  4868 0002                pea.l      [A0 + 0x2]
00000016  226D EEBE                movea.l    A1, [A5 - 0x1142]
0000001A  4869 0002                pea.l      [A1 + 0x2]
0000001E  486D EDEE                pea.l      [A5 - 0x1212]
00000022  486D EE16                pea.l      [A5 - 0x11EA]
00000026  4267                     clr.w      -[A7]
00000028  2F2D EF0E                move.l     -[A7], [A5 - 0x10F2]
0000002C  A8EC                     syscall    CopyBits
0000002E  206D EEBE                movea.l    A0, [A5 - 0x1142]
00000032  4868 0002                pea.l      [A0 + 0x2]
00000036  226D EEC2                movea.l    A1, [A5 - 0x113E]
0000003A  4869 0002                pea.l      [A1 + 0x2]
0000003E  486D EE16                pea.l      [A5 - 0x11EA]
00000042  486D EE16                pea.l      [A5 - 0x11EA]
00000046  4267                     clr.w      -[A7]
00000048  2F2D EF0E                move.l     -[A7], [A5 - 0x10F2]
0000004C  A8EC                     syscall    CopyBits
0000004E  486D EE16                pea.l      [A5 - 0x11EA]
00000052  4EBA 0CE2                jsr        [PC + 0xCE2 /* 00000D36 */]
00000056  206D EEEA                movea.l    A0, [A5 - 0x1116]
0000005A  4868 0002                pea.l      [A0 + 0x2]
0000005E  226D EEBE                movea.l    A1, [A5 - 0x1142]
00000062  4869 0002                pea.l      [A1 + 0x2]
00000066  486D EDFE                pea.l      [A5 - 0x1202]
0000006A  486D EE1E                pea.l      [A5 - 0x11E2]
0000006E  4267                     clr.w      -[A7]
00000070  2F2D EF0E                move.l     -[A7], [A5 - 0x10F2]
00000074  A8EC                     syscall    CopyBits
00000076  206D EEBE                movea.l    A0, [A5 - 0x1142]
0000007A  4868 0002                pea.l      [A0 + 0x2]
0000007E  226D EEC2                movea.l    A1, [A5 - 0x113E]
00000082  4869 0002                pea.l      [A1 + 0x2]
00000086  486D EE1E                pea.l      [A5 - 0x11E2]
0000008A  486D EE1E                pea.l      [A5 - 0x11E2]
0000008E  4267                     clr.w      -[A7]
00000090  2F2D EF0E                move.l     -[A7], [A5 - 0x10F2]
00000094  A8EC                     syscall    CopyBits
00000096  486D EE1E                pea.l      [A5 - 0x11E2]
0000009A  4EBA 0C9A                jsr        [PC + 0xC9A /* 00000D36 */]
0000009E  508F                     addq.l     A7, 8
000000A0  6000 0094                bra        +0x96 /* 00000136 */
label000000A4:
000000A4  206D EEEA                movea.l    A0, [A5 - 0x1116]
000000A8  4868 0002                pea.l      [A0 + 0x2]
000000AC  226D EEBE                movea.l    A1, [A5 - 0x1142]
000000B0  4869 0002                pea.l      [A1 + 0x2]
000000B4  486D EDF6                pea.l      [A5 - 0x120A]
000000B8  486D EE16                pea.l      [A5 - 0x11EA]
000000BC  4267                     clr.w      -[A7]
000000BE  2F2D EF0E                move.l     -[A7], [A5 - 0x10F2]
000000C2  A8EC                     syscall    CopyBits
000000C4  206D EEBE                movea.l    A0, [A5 - 0x1142]
000000C8  4868 0002                pea.l      [A0 + 0x2]
000000CC  226D EEC2                movea.l    A1, [A5 - 0x113E]
000000D0  4869 0002                pea.l      [A1 + 0x2]
000000D4  486D EE16                pea.l      [A5 - 0x11EA]
000000D8  486D EE16                pea.l      [A5 - 0x11EA]
000000DC  4267                     clr.w      -[A7]
000000DE  2F2D EF0E                move.l     -[A7], [A5 - 0x10F2]
000000E2  A8EC                     syscall    CopyBits
000000E4  486D EE16                pea.l      [A5 - 0x11EA]
000000E8  4EBA 0C4C                jsr        [PC + 0xC4C /* 00000D36 */]
000000EC  206D EEEA                movea.l    A0, [A5 - 0x1116]
000000F0  4868 0002                pea.l      [A0 + 0x2]
000000F4  226D EEBE                movea.l    A1, [A5 - 0x1142]
000000F8  4869 0002                pea.l      [A1 + 0x2]
000000FC  486D EE06                pea.l      [A5 - 0x11FA]
00000100  486D EE1E                pea.l      [A5 - 0x11E2]
00000104  4267                     clr.w      -[A7]
00000106  2F2D EF0E                move.l     -[A7], [A5 - 0x10F2]
0000010A  A8EC                     syscall    CopyBits
0000010C  206D EEBE                movea.l    A0, [A5 - 0x1142]
00000110  4868 0002                pea.l      [A0 + 0x2]
00000114  226D EEC2                movea.l    A1, [A5 - 0x113E]
00000118  4869 0002                pea.l      [A1 + 0x2]
0000011C  486D EE1E                pea.l      [A5 - 0x11E2]
00000120  486D EE1E                pea.l      [A5 - 0x11E2]
00000124  4267                     clr.w      -[A7]
00000126  2F2D EF0E                move.l     -[A7], [A5 - 0x10F2]
0000012A  A8EC                     syscall    CopyBits
0000012C  486D EE1E                pea.l      [A5 - 0x11E2]
00000130  4EBA 0C04                jsr        [PC + 0xC04 /* 00000D36 */]
00000134  508F                     addq.l     A7, 8
label00000136:
00000136  0C6E 0005 0008           cmpi.w     [A6 + 0x8], 0x5
0000013C  6F4C                     ble        +0x4E /* 0000018A */
0000013E  206D EEEA                movea.l    A0, [A5 - 0x1116]
00000142  4868 0002                pea.l      [A0 + 0x2]
00000146  226D EEBE                movea.l    A1, [A5 - 0x1142]
0000014A  4869 0002                pea.l      [A1 + 0x2]
0000014E  486D EDDE                pea.l      [A5 - 0x1222]
00000152  486D EE0E                pea.l      [A5 - 0x11F2]
00000156  4267                     clr.w      -[A7]
00000158  2F2D EF0E                move.l     -[A7], [A5 - 0x10F2]
0000015C  A8EC                     syscall    CopyBits
0000015E  206D EEBE                movea.l    A0, [A5 - 0x1142]
00000162  4868 0002                pea.l      [A0 + 0x2]
00000166  226D EEC2                movea.l    A1, [A5 - 0x113E]
0000016A  4869 0002                pea.l      [A1 + 0x2]
0000016E  486D EE0E                pea.l      [A5 - 0x11F2]
00000172  486D EE0E                pea.l      [A5 - 0x11F2]
00000176  4267                     clr.w      -[A7]
00000178  2F2D EF0E                move.l     -[A7], [A5 - 0x10F2]
0000017C  A8EC                     syscall    CopyBits
0000017E  486D EE0E                pea.l      [A5 - 0x11F2]
00000182  4EBA 0BB2                jsr        [PC + 0xBB2 /* 00000D36 */]
00000186  588F                     addq.l     A7, 4
00000188  604A                     bra        +0x4C /* 000001D4 */
label0000018A:
0000018A  206D EEEA                movea.l    A0, [A5 - 0x1116]
0000018E  4868 0002                pea.l      [A0 + 0x2]
00000192  226D EEBE                movea.l    A1, [A5 - 0x1142]
00000196  4869 0002                pea.l      [A1 + 0x2]
0000019A  486D EDE6                pea.l      [A5 - 0x121A]
0000019E  486D EE0E                pea.l      [A5 - 0x11F2]
000001A2  4267                     clr.w      -[A7]
000001A4  2F2D EF0E                move.l     -[A7], [A5 - 0x10F2]
000001A8  A8EC                     syscall    CopyBits
000001AA  206D EEBE                movea.l    A0, [A5 - 0x1142]
000001AE  4868 0002                pea.l      [A0 + 0x2]
000001B2  226D EEC2                movea.l    A1, [A5 - 0x113E]
000001B6  4869 0002                pea.l      [A1 + 0x2]
000001BA  486D EE0E                pea.l      [A5 - 0x11F2]
000001BE  486D EE0E                pea.l      [A5 - 0x11F2]
000001C2  4267                     clr.w      -[A7]
000001C4  2F2D EF0E                move.l     -[A7], [A5 - 0x10F2]
000001C8  A8EC                     syscall    CopyBits
000001CA  486D EE0E                pea.l      [A5 - 0x11F2]
000001CE  4EBA 0B66                jsr        [PC + 0xB66 /* 00000D36 */]
000001D2  588F                     addq.l     A7, 4
label000001D4:
000001D4  4E5E                     unlink     A6
000001D6  4E75                     rts
fn000001D8:
000001D8  4E56 0000                link       A6, 0
000001DC  486D EE36                pea.l      [A5 - 0x11CA]
000001E0  4267                     clr.w      -[A7]
000001E2  3F2E 0008                move.w     -[A7], [A6 + 0x8]
000001E6  A8A8                     syscall    OffsetRect
000001E8  0C6D 018E EE3A           cmpi.w     [A5 - 0x11C6], 0x18E
000001EE  6F14                     ble        +0x16 /* 00000204 */
000001F0  3B7C 018E EE3A           move.w     [A5 - 0x11C6], 0x18E
000001F6  302D EE3A                move.w     D0, [A5 - 0x11C6]
000001FA  0640 FF39                addi.w     D0, 0xFF39
000001FE  3B40 EE36                move.w     [A5 - 0x11CA], D0
00000202  6016                     bra        +0x18 /* 0000021A */
label00000204:
00000204  4A6D EE36                tst.w      [A5 - 0x11CA]
00000208  6C10                     bge        +0x12 /* 0000021A */
0000020A  426D EE36                clr.w      [A5 - 0x11CA]
0000020E  302D EE36                move.w     D0, [A5 - 0x11CA]
00000212  0640 00C7                addi.w     D0, 0xC7
00000216  3B40 EE3A                move.w     [A5 - 0x11C6], D0
label0000021A:
0000021A  206D EEEE                movea.l    A0, [A5 - 0x1112]
0000021E  4868 0002                pea.l      [A0 + 0x2]
00000222  226D EF3A                movea.l    A1, [A5 - 0x10C6]
00000226  4869 0002                pea.l      [A1 + 0x2]
0000022A  486D EE36                pea.l      [A5 - 0x11CA]
0000022E  486D EE3E                pea.l      [A5 - 0x11C2]
00000232  4267                     clr.w      -[A7]
00000234  42A7                     clr.l      -[A7]
00000236  A8EC                     syscall    CopyBits
00000238  4E5E                     unlink     A6
0000023A  4E75                     rts
fn0000023C:
0000023C  4E56 FFF0                link       A6, -0x0010
00000240  2F07                     move.l     -[A7], D7
00000242  486D EE36                pea.l      [A5 - 0x11CA]
00000246  42A7                     clr.l      -[A7]
00000248  4878 00E7                push.l     0xE7
0000024C  A8A7                     syscall    SetRect
0000024E  2B6D EE36 EE3E           move.l     [A5 - 0x11C2], [A5 - 0x11CA]
00000254  2B6D EE3A EE42           move.l     [A5 - 0x11BE], [A5 - 0x11C6]
0000025A  486D EE3E                pea.l      [A5 - 0x11C2]
0000025E  2F3C 00AB 00CC           move.l     -[A7], 0xAB00CC
00000264  A8A8                     syscall    OffsetRect
00000266  486E FFF8                pea.l      [A6 - 0x8]
0000026A  42A7                     clr.l      -[A7]
0000026C  2F3C 00C7 00E7           move.l     -[A7], 0xC700E7
00000272  A8A7                     syscall    SetRect
00000274  486E FFF8                pea.l      [A6 - 0x8]
00000278  2F3C 00AB 00CC           move.l     -[A7], 0xAB00CC
0000027E  A8A8                     syscall    OffsetRect
00000280  2D6E FFF8 FFF0           move.l     [A6 - 0x10], [A6 - 0x8]
00000286  2D6E FFFC FFF4           move.l     [A6 - 0xC], [A6 - 0x4]
0000028C  7E00                     moveq.l    D7, 0x00
0000028E  605C                     bra        +0x5E /* 000002EC */
label00000290:
00000290  4878 0001                push.l     0x1
00000294  4EBA 391E                jsr        [PC + 0x391E /* 00003BB4 */]
00000298  526D EE3A                addq.w     [A5 - 0x11C6], 1
0000029C  526D EE42                addq.w     [A5 - 0x11BE], 1
000002A0  536E FFFC                subq.w     [A6 - 0x4], 1
000002A4  526E FFF0                addq.w     [A6 - 0x10], 1
000002A8  206D EEEE                movea.l    A0, [A5 - 0x1112]
000002AC  4868 0002                pea.l      [A0 + 0x2]
000002B0  226D EF3A                movea.l    A1, [A5 - 0x10C6]
000002B4  4869 0002                pea.l      [A1 + 0x2]
000002B8  486D EE36                pea.l      [A5 - 0x11CA]
000002BC  486D EE3E                pea.l      [A5 - 0x11C2]
000002C0  4267                     clr.w      -[A7]
000002C2  42A7                     clr.l      -[A7]
000002C4  A8EC                     syscall    CopyBits
000002C6  206D EEBE                movea.l    A0, [A5 - 0x1142]
000002CA  4868 0002                pea.l      [A0 + 0x2]
000002CE  226D EF3A                movea.l    A1, [A5 - 0x10C6]
000002D2  4869 0002                pea.l      [A1 + 0x2]
000002D6  486E FFF8                pea.l      [A6 - 0x8]
000002DA  486E FFF0                pea.l      [A6 - 0x10]
000002DE  4267                     clr.w      -[A7]
000002E0  42A7                     clr.l      -[A7]
000002E2  A8EC                     syscall    CopyBits
000002E4  4EBA 38E4                jsr        [PC + 0x38E4 /* 00003BCA */]
000002E8  588F                     addq.l     A7, 4
000002EA  5247                     addq.w     D7, 1
label000002EC:
000002EC  0C47 00C7                cmpi.w     D7, 0xC7
000002F0  6D9E                     blt        -0x60 /* 00000290 */
000002F2  1B7C 0001 EF17           move.b     [A5 - 0x10E9], 0x1
000002F8  2E1F                     move.l     D7, [A7]+
000002FA  4E5E                     unlink     A6
000002FC  4E75                     rts
fn000002FE:
000002FE  4E56 FFF0                link       A6, -0x0010
00000302  2F07                     move.l     -[A7], D7
00000304  486E FFF8                pea.l      [A6 - 0x8]
00000308  42A7                     clr.l      -[A7]
0000030A  4878 00E7                push.l     0xE7
0000030E  A8A7                     syscall    SetRect
00000310  2D6E FFF8 FFF0           move.l     [A6 - 0x10], [A6 - 0x8]
00000316  2D6E FFFC FFF4           move.l     [A6 - 0xC], [A6 - 0x4]
0000031C  486E FFF0                pea.l      [A6 - 0x10]
00000320  2F3C 0172 00CC           move.l     -[A7], 0x17200CC
00000326  A8A8                     syscall    OffsetRect
00000328  486E FFF8                pea.l      [A6 - 0x8]
0000032C  2F3C 00AB 00CC           move.l     -[A7], 0xAB00CC
00000332  A8A8                     syscall    OffsetRect
00000334  7E00                     moveq.l    D7, 0x00
00000336  6028                     bra        +0x2A /* 00000360 */
label00000338:
00000338  526E FFFC                addq.w     [A6 - 0x4], 1
0000033C  536E FFF0                subq.w     [A6 - 0x10], 1
00000340  206D EEBE                movea.l    A0, [A5 - 0x1142]
00000344  4868 0002                pea.l      [A0 + 0x2]
00000348  226D EF3A                movea.l    A1, [A5 - 0x10C6]
0000034C  4869 0002                pea.l      [A1 + 0x2]
00000350  486E FFF8                pea.l      [A6 - 0x8]
00000354  486E FFF0                pea.l      [A6 - 0x10]
00000358  4267                     clr.w      -[A7]
0000035A  42A7                     clr.l      -[A7]
0000035C  A8EC                     syscall    CopyBits
0000035E  5247                     addq.w     D7, 1
label00000360:
00000360  0C47 00C7                cmpi.w     D7, 0xC7
00000364  6DD2                     blt        -0x2C /* 00000338 */
00000366  2E1F                     move.l     D7, [A7]+
00000368  4E5E                     unlink     A6
0000036A  4E75                     rts
fn0000036C:
0000036C  4E56 FED4                link       A6, -0x012C
00000370  48E7 0300                movem.l    -[A7], D6,D7
00000374  486E FFDC                pea.l      [A6 - 0x24]
00000378  42A7                     clr.l      -[A7]
0000037A  4878 00E7                push.l     0xE7
0000037E  A8A7                     syscall    SetRect
00000380  486E FFDC                pea.l      [A6 - 0x24]
00000384  2F3C 00AB 00CC           move.l     -[A7], 0xAB00CC
0000038A  A8A8                     syscall    OffsetRect
0000038C  2D6E FFDC FFD4           move.l     [A6 - 0x2C], [A6 - 0x24]
00000392  2D6E FFE0 FFD8           move.l     [A6 - 0x28], [A6 - 0x20]
00000398  486E FFEC                pea.l      [A6 - 0x14]
0000039C  42A7                     clr.l      -[A7]
0000039E  2F3C 00C7 00E7           move.l     -[A7], 0xC700E7
000003A4  A8A7                     syscall    SetRect
000003A6  486E FFEC                pea.l      [A6 - 0x14]
000003AA  2F3C 00AB 00CC           move.l     -[A7], 0xAB00CC
000003B0  A8A8                     syscall    OffsetRect
000003B2  2D6E FFEC FFE4           move.l     [A6 - 0x1C], [A6 - 0x14]
000003B8  2D6E FFF0 FFE8           move.l     [A6 - 0x18], [A6 - 0x10]
000003BE  2F2D EEC2                move.l     -[A7], [A5 - 0x113E]
000003C2  A873                     syscall    SetPort
000003C4  486E FFEC                pea.l      [A6 - 0x14]
000003C8  A8A2                     syscall    PaintRect
000003CA  486E FFF4                pea.l      [A6 - 0xC]
000003CE  AA19                     syscall    GetForeColor
000003D0  3F3C 0003                move.w     -[A7], 0x3
000003D4  A887                     syscall    TextFont
000003D6  3F3C 000C                move.w     -[A7], 0xC
000003DA  A88A                     syscall    TextSize
000003DC  3F3C 0001                move.w     -[A7], 0x1
000003E0  A888                     syscall    TextFace
000003E2  4878 0084                push.l     0x84
000003E6  486E FFFA                pea.l      [A6 - 0x6]
000003EA  AA34                     syscall    Index2Color
000003EC  486E FFFA                pea.l      [A6 - 0x6]
000003F0  AA14                     syscall    RGBForeColor
000003F2  7024                     moveq.l    D0, 0x24
000003F4  D06E FFDE                add.w      D0, [A6 - 0x22]
000003F8  3F00                     move.w     -[A7], D0
000003FA  7014                     moveq.l    D0, 0x14
000003FC  D06E FFDC                add.w      D0, [A6 - 0x24]
00000400  3F00                     move.w     -[A7], D0
00000402  A893                     syscall    MoveTo
00000404  486D EF1A                pea.l      [A5 - 0x10E6]
00000408  A884                     syscall    DrawString
0000040A  3F3C 0003                move.w     -[A7], 0x3
0000040E  A887                     syscall    TextFont
00000410  3F3C 0009                move.w     -[A7], 0x9 /* '\t' */
00000414  A88A                     syscall    TextSize
00000416  3F3C 0001                move.w     -[A7], 0x1
0000041A  A888                     syscall    TextFace
0000041C  7E00                     moveq.l    D7, 0x00
0000041E  6000 011A                bra        +0x11C /* 0000053A */
label00000422:
00000422  4878 0085                push.l     0x85
00000426  486E FFFA                pea.l      [A6 - 0x6]
0000042A  AA34                     syscall    Index2Color
0000042C  486E FFFA                pea.l      [A6 - 0x6]
00000430  AA14                     syscall    RGBForeColor
00000432  3047                     movea.w    A0, D7
00000434  4868 0001                pea.l      [A0 + 0x1]
00000438  486E FED4                pea.l      [A6 - 0x12C]
0000043C  4EAD 0142                jsr        [A5 + 0x142 /* export_36, CODE:4 @ 000026B2 */]
00000440  7008                     moveq.l    D0, 0x08
00000442  D06E FFDE                add.w      D0, [A6 - 0x22]
00000446  3F00                     move.w     -[A7], D0
00000448  3007                     move.w     D0, D7
0000044A  E948                     lsl        D0.w, 4
0000044C  D06E FFDC                add.w      D0, [A6 - 0x24]
00000450  0640 0028                addi.w     D0, 0x28 /* '(' */
00000454  3F00                     move.w     -[A7], D0
00000456  A893                     syscall    MoveTo
00000458  486E FED4                pea.l      [A6 - 0x12C]
0000045C  A884                     syscall    DrawString
0000045E  4878 0080                push.l     0x80
00000462  486E FFFA                pea.l      [A6 - 0x6]
00000466  AA34                     syscall    Index2Color
00000468  486E FFFA                pea.l      [A6 - 0x6]
0000046C  AA14                     syscall    RGBForeColor
0000046E  7020                     moveq.l    D0, 0x20
00000470  D06E FFDE                add.w      D0, [A6 - 0x22]
00000474  3F00                     move.w     -[A7], D0
00000476  3007                     move.w     D0, D7
00000478  E948                     lsl        D0.w, 4
0000047A  D06E FFDC                add.w      D0, [A6 - 0x24]
0000047E  0640 0028                addi.w     D0, 0x28 /* '(' */
00000482  3F00                     move.w     -[A7], D0
00000484  A893                     syscall    MoveTo
00000486  2007                     move.l     D0, D7
00000488  48C0                     ext.l      D0
0000048A  E988                     lsl        D0, 4
0000048C  204D                     movea.l    A0, A5
0000048E  D1C0                     add.l      A0, D0
00000490  4868 F07C                pea.l      [A0 - 0xF84]
00000494  A884                     syscall    DrawString
00000496  4878 00A4                push.l     0xA4
0000049A  486E FFFA                pea.l      [A6 - 0x6]
0000049E  AA34                     syscall    Index2Color
000004A0  486E FFFA                pea.l      [A6 - 0x6]
000004A4  AA14                     syscall    RGBForeColor
000004A6  204D                     movea.l    A0, A5
000004A8  2007                     move.l     D0, D7
000004AA  48C0                     ext.l      D0
000004AC  E588                     lsl        D0, 2
000004AE  D1C0                     add.l      A0, D0
000004B0  2F28 F11C                move.l     -[A7], [A0 - 0xEE4]
000004B4  486E FED4                pea.l      [A6 - 0x12C]
000004B8  4EAD 0142                jsr        [A5 + 0x142 /* export_36, CODE:4 @ 000026B2 */]
000004BC  4267                     clr.w      -[A7]
000004BE  486E FED4                pea.l      [A6 - 0x12C]
000004C2  A88C                     syscall    StringWidth
000004C4  3C1F                     move.w     D6, [A7]+
000004C6  302E FFDE                move.w     D0, [A6 - 0x22]
000004CA  0640 00BF                addi.w     D0, 0xBF
000004CE  9046                     sub.w      D0, D6
000004D0  3F00                     move.w     -[A7], D0
000004D2  3007                     move.w     D0, D7
000004D4  E948                     lsl        D0.w, 4
000004D6  D06E FFDC                add.w      D0, [A6 - 0x24]
000004DA  0640 0028                addi.w     D0, 0x28 /* '(' */
000004DE  3F00                     move.w     -[A7], D0
000004E0  A893                     syscall    MoveTo
000004E2  486E FED4                pea.l      [A6 - 0x12C]
000004E6  A884                     syscall    DrawString
000004E8  4878 0086                push.l     0x86
000004EC  486E FFFA                pea.l      [A6 - 0x6]
000004F0  AA34                     syscall    Index2Color
000004F2  486E FFFA                pea.l      [A6 - 0x6]
000004F6  AA14                     syscall    RGBForeColor
000004F8  204D                     movea.l    A0, A5
000004FA  D0C7                     add.w      A0, D7
000004FC  D0C7                     add.w      A0, D7
000004FE  3068 F144                movea.w    A0, [A0 - 0xEBC]
00000502  2F08                     move.l     -[A7], A0
00000504  486E FED4                pea.l      [A6 - 0x12C]
00000508  4EAD 0142                jsr        [A5 + 0x142 /* export_36, CODE:4 @ 000026B2 */]
0000050C  4267                     clr.w      -[A7]
0000050E  486E FED4                pea.l      [A6 - 0x12C]
00000512  A88C                     syscall    StringWidth
00000514  3C1F                     move.w     D6, [A7]+
00000516  302E FFDE                move.w     D0, [A6 - 0x22]
0000051A  0640 00DF                addi.w     D0, 0xDF
0000051E  9046                     sub.w      D0, D6
00000520  3F00                     move.w     -[A7], D0
00000522  3007                     move.w     D0, D7
00000524  E948                     lsl        D0.w, 4
00000526  D06E FFDC                add.w      D0, [A6 - 0x24]
0000052A  0640 0028                addi.w     D0, 0x28 /* '(' */
0000052E  3F00                     move.w     -[A7], D0
00000530  A893                     syscall    MoveTo
00000532  486E FED4                pea.l      [A6 - 0x12C]
00000536  A884                     syscall    DrawString
00000538  5247                     addq.w     D7, 1
label0000053A:
0000053A  0C47 000A                cmpi.w     D7, 0xA /* '\n' */
0000053E  6D00 FEE2                blt        -0x11C /* 00000422 */
00000542  486E FFF4                pea.l      [A6 - 0xC]
00000546  AA14                     syscall    RGBForeColor
00000548  2F2D EF3A                move.l     -[A7], [A5 - 0x10C6]
0000054C  A873                     syscall    SetPort
0000054E  7E00                     moveq.l    D7, 0x00
00000550  605C                     bra        +0x5E /* 000005AE */
label00000552:
00000552  4878 0001                push.l     0x1
00000556  4EBA 365C                jsr        [PC + 0x365C /* 00003BB4 */]
0000055A  526E FFE0                addq.w     [A6 - 0x20], 1
0000055E  526E FFD8                addq.w     [A6 - 0x28], 1
00000562  536E FFF0                subq.w     [A6 - 0x10], 1
00000566  526E FFE4                addq.w     [A6 - 0x1C], 1
0000056A  206D EEC2                movea.l    A0, [A5 - 0x113E]
0000056E  4868 0002                pea.l      [A0 + 0x2]
00000572  226D EF3A                movea.l    A1, [A5 - 0x10C6]
00000576  4869 0002                pea.l      [A1 + 0x2]
0000057A  486E FFDC                pea.l      [A6 - 0x24]
0000057E  486E FFD4                pea.l      [A6 - 0x2C]
00000582  4267                     clr.w      -[A7]
00000584  42A7                     clr.l      -[A7]
00000586  A8EC                     syscall    CopyBits
00000588  206D EEBE                movea.l    A0, [A5 - 0x1142]
0000058C  4868 0002                pea.l      [A0 + 0x2]
00000590  226D EF3A                movea.l    A1, [A5 - 0x10C6]
00000594  4869 0002                pea.l      [A1 + 0x2]
00000598  486E FFEC                pea.l      [A6 - 0x14]
0000059C  486E FFE4                pea.l      [A6 - 0x1C]
000005A0  4267                     clr.w      -[A7]
000005A2  42A7                     clr.l      -[A7]
000005A4  A8EC                     syscall    CopyBits
000005A6  4EBA 3622                jsr        [PC + 0x3622 /* 00003BCA */]
000005AA  588F                     addq.l     A7, 4
000005AC  5247                     addq.w     D7, 1
label000005AE:
000005AE  0C47 00C7                cmpi.w     D7, 0xC7
000005B2  6D9E                     blt        -0x60 /* 00000552 */
000005B4  1B7C 0001 EF18           move.b     [A5 - 0x10E8], 0x1
000005BA  4CDF 00C0                movem.l    D6,D7, [A7]+
000005BE  4E5E                     unlink     A6
000005C0  4E75                     rts
fn000005C2:
000005C2  2F07                     move.l     -[A7], D7
000005C4  3E2D F492                move.w     D7, [A5 - 0xB6E]
000005C8  5347                     subq.w     D7, 1
000005CA  48C7                     ext.l      D7
000005CC  8FFC 000A                divs.w     D7, 0xA /* '\n' */
000005D0  4878 000A                push.l     0xA /* '\n' */
000005D4  3047                     movea.w    A0, D7
000005D6  2F08                     move.l     -[A7], A0
000005D8  4EAD 0062                jsr        [A5 + 0x62 /* export_8, CODE:1 @ 00000182 */]
000005DC  3E00                     move.w     D7, D0
000005DE  4A47                     tst.w      D7
000005E0  660E                     bne        +0x10 /* 000005F0 */
000005E2  70FF                     moveq.l    D0, 0xFFFFFFFF
000005E4  D06D F492                add.w      D0, [A5 - 0xB6E]
000005E8  0C40 0064                cmpi.w     D0, 0x64 /* 'd' */
000005EC  6C02                     bge        +0x4 /* 000005F0 */
000005EE  7E0A                     moveq.l    D7, 0x0A
label000005F0:
000005F0  206D EED2                movea.l    A0, [A5 - 0x112E]
000005F4  4868 0002                pea.l      [A0 + 0x2]
000005F8  226D EEBE                movea.l    A1, [A5 - 0x1142]
000005FC  4869 0002                pea.l      [A1 + 0x2]
00000600  204D                     movea.l    A0, A5
00000602  2007                     move.l     D0, D7
00000604  48C0                     ext.l      D0
00000606  E788                     lsl        D0, 3
00000608  D1C0                     add.l      A0, D0
0000060A  4868 EAE6                pea.l      [A0 - 0x151A]
0000060E  486D EB3E                pea.l      [A5 - 0x14C2]
00000612  4267                     clr.w      -[A7]
00000614  42A7                     clr.l      -[A7]
00000616  A8EC                     syscall    CopyBits
00000618  206D EEBE                movea.l    A0, [A5 - 0x1142]
0000061C  4868 0002                pea.l      [A0 + 0x2]
00000620  226D EF3A                movea.l    A1, [A5 - 0x10C6]
00000624  4869 0002                pea.l      [A1 + 0x2]
00000628  486D EB3E                pea.l      [A5 - 0x14C2]
0000062C  486D EB3E                pea.l      [A5 - 0x14C2]
00000630  4267                     clr.w      -[A7]
00000632  42A7                     clr.l      -[A7]
00000634  A8EC                     syscall    CopyBits
00000636  3E2D F492                move.w     D7, [A5 - 0xB6E]
0000063A  5347                     subq.w     D7, 1
0000063C  48C7                     ext.l      D7
0000063E  8FFC 000A                divs.w     D7, 0xA /* '\n' */
00000642  4847                     swap.w     D7
00000644  206D EED2                movea.l    A0, [A5 - 0x112E]
00000648  4868 0002                pea.l      [A0 + 0x2]
0000064C  226D EEBE                movea.l    A1, [A5 - 0x1142]
00000650  4869 0002                pea.l      [A1 + 0x2]
00000654  204D                     movea.l    A0, A5
00000656  2007                     move.l     D0, D7
00000658  48C0                     ext.l      D0
0000065A  E788                     lsl        D0, 3
0000065C  D1C0                     add.l      A0, D0
0000065E  4868 EAE6                pea.l      [A0 - 0x151A]
00000662  486D EB46                pea.l      [A5 - 0x14BA]
00000666  4267                     clr.w      -[A7]
00000668  42A7                     clr.l      -[A7]
0000066A  A8EC                     syscall    CopyBits
0000066C  206D EEBE                movea.l    A0, [A5 - 0x1142]
00000670  4868 0002                pea.l      [A0 + 0x2]
00000674  226D EF3A                movea.l    A1, [A5 - 0x10C6]
00000678  4869 0002                pea.l      [A1 + 0x2]
0000067C  486D EB46                pea.l      [A5 - 0x14BA]
00000680  486D EB46                pea.l      [A5 - 0x14BA]
00000684  4267                     clr.w      -[A7]
00000686  42A7                     clr.l      -[A7]
00000688  A8EC                     syscall    CopyBits
0000068A  2E1F                     move.l     D7, [A7]+
0000068C  4E75                     rts
export_10:
fn0000068E:
0000068E  2F07                     move.l     -[A7], D7
00000690  2F3C 0001 86A0           move.l     -[A7], 0x186A0
00000696  2F2D F484                move.l     -[A7], [A5 - 0xB7C]
0000069A  4EAD 005A                jsr        [A5 + 0x5A /* export_7, CODE:1 @ 00000162 */]
0000069E  2E00                     move.l     D7, D0
000006A0  4878 000A                push.l     0xA /* '\n' */
000006A4  2F07                     move.l     -[A7], D7
000006A6  4EAD 0062                jsr        [A5 + 0x62 /* export_8, CODE:1 @ 00000182 */]
000006AA  2E00                     move.l     D7, D0
000006AC  4A87                     tst.l      D7
000006AE  660C                     bne        +0xE /* 000006BC */
000006B0  0CAD 000F 4240 F484      cmpi.l     [A5 - 0xB7C], 0xF4240
000006B8  6C02                     bge        +0x4 /* 000006BC */
000006BA  7E0A                     moveq.l    D7, 0x0A
label000006BC:
000006BC  206D EED2                movea.l    A0, [A5 - 0x112E]
000006C0  4868 0002                pea.l      [A0 + 0x2]
000006C4  226D EEBE                movea.l    A1, [A5 - 0x1142]
000006C8  4869 0002                pea.l      [A1 + 0x2]
000006CC  204D                     movea.l    A0, A5
000006CE  2007                     move.l     D0, D7
000006D0  E788                     lsl        D0, 3
000006D2  D1C0                     add.l      A0, D0
000006D4  4868 EAE6                pea.l      [A0 - 0x151A]
000006D8  486D EB4E                pea.l      [A5 - 0x14B2]
000006DC  4267                     clr.w      -[A7]
000006DE  42A7                     clr.l      -[A7]
000006E0  A8EC                     syscall    CopyBits
000006E2  206D EEBE                movea.l    A0, [A5 - 0x1142]
000006E6  4868 0002                pea.l      [A0 + 0x2]
000006EA  226D EF3A                movea.l    A1, [A5 - 0x10C6]
000006EE  4869 0002                pea.l      [A1 + 0x2]
000006F2  486D EB4E                pea.l      [A5 - 0x14B2]
000006F6  486D EB4E                pea.l      [A5 - 0x14B2]
000006FA  4267                     clr.w      -[A7]
000006FC  42A7                     clr.l      -[A7]
000006FE  A8EC                     syscall    CopyBits
00000700  4878 2710                push.l     0x2710
00000704  2F2D F484                move.l     -[A7], [A5 - 0xB7C]
00000708  4EAD 005A                jsr        [A5 + 0x5A /* export_7, CODE:1 @ 00000162 */]
0000070C  2E00                     move.l     D7, D0
0000070E  BEAD F488                cmp.l      D7, [A5 - 0xB78]
00000712  6F0C                     ble        +0xE /* 00000720 */
00000714  526D F492                addq.w     [A5 - 0xB6E], 1
00000718  4EBA FEA8                jsr        [PC - 0x158 /* 000005C2 */]
0000071C  2B47 F488                move.l     [A5 - 0xB78], D7
label00000720:
00000720  4878 000A                push.l     0xA /* '\n' */
00000724  2F07                     move.l     -[A7], D7
00000726  4EAD 0062                jsr        [A5 + 0x62 /* export_8, CODE:1 @ 00000182 */]
0000072A  2E00                     move.l     D7, D0
0000072C  4A87                     tst.l      D7
0000072E  660C                     bne        +0xE /* 0000073C */
00000730  0CAD 0001 86A0 F484      cmpi.l     [A5 - 0xB7C], 0x186A0
00000738  6C02                     bge        +0x4 /* 0000073C */
0000073A  7E0A                     moveq.l    D7, 0x0A
label0000073C:
0000073C  206D EED2                movea.l    A0, [A5 - 0x112E]
00000740  4868 0002                pea.l      [A0 + 0x2]
00000744  226D EEBE                movea.l    A1, [A5 - 0x1142]
00000748  4869 0002                pea.l      [A1 + 0x2]
0000074C  204D                     movea.l    A0, A5
0000074E  2007                     move.l     D0, D7
00000750  E788                     lsl        D0, 3
00000752  D1C0                     add.l      A0, D0
00000754  4868 EAE6                pea.l      [A0 - 0x151A]
00000758  486D EB56                pea.l      [A5 - 0x14AA]
0000075C  4267                     clr.w      -[A7]
0000075E  42A7                     clr.l      -[A7]
00000760  A8EC                     syscall    CopyBits
00000762  206D EEBE                movea.l    A0, [A5 - 0x1142]
00000766  4868 0002                pea.l      [A0 + 0x2]
0000076A  226D EF3A                movea.l    A1, [A5 - 0x10C6]
0000076E  4869 0002                pea.l      [A1 + 0x2]
00000772  486D EB56                pea.l      [A5 - 0x14AA]
00000776  486D EB56                pea.l      [A5 - 0x14AA]
0000077A  4267                     clr.w      -[A7]
0000077C  42A7                     clr.l      -[A7]
0000077E  A8EC                     syscall    CopyBits
00000780  4878 03E8                push.l     0x3E8
00000784  2F2D F484                move.l     -[A7], [A5 - 0xB7C]
00000788  4EAD 005A                jsr        [A5 + 0x5A /* export_7, CODE:1 @ 00000162 */]
0000078C  2E00                     move.l     D7, D0
0000078E  4878 000A                push.l     0xA /* '\n' */
00000792  2F07                     move.l     -[A7], D7
00000794  4EAD 0062                jsr        [A5 + 0x62 /* export_8, CODE:1 @ 00000182 */]
00000798  2E00                     move.l     D7, D0
0000079A  4A87                     tst.l      D7
0000079C  660C                     bne        +0xE /* 000007AA */
0000079E  0CAD 0000 2710 F484      cmpi.l     [A5 - 0xB7C], 0x2710
000007A6  6C02                     bge        +0x4 /* 000007AA */
000007A8  7E0A                     moveq.l    D7, 0x0A
label000007AA:
000007AA  206D EED2                movea.l    A0, [A5 - 0x112E]
000007AE  4868 0002                pea.l      [A0 + 0x2]
000007B2  226D EEBE                movea.l    A1, [A5 - 0x1142]
000007B6  4869 0002                pea.l      [A1 + 0x2]
000007BA  204D                     movea.l    A0, A5
000007BC  2007                     move.l     D0, D7
000007BE  E788                     lsl        D0, 3
000007C0  D1C0                     add.l      A0, D0
000007C2  4868 EAE6                pea.l      [A0 - 0x151A]
000007C6  486D EB5E                pea.l      [A5 - 0x14A2]
000007CA  4267                     clr.w      -[A7]
000007CC  42A7                     clr.l      -[A7]
000007CE  A8EC                     syscall    CopyBits
000007D0  206D EEBE                movea.l    A0, [A5 - 0x1142]
000007D4  4868 0002                pea.l      [A0 + 0x2]
000007D8  226D EF3A                movea.l    A1, [A5 - 0x10C6]
000007DC  4869 0002                pea.l      [A1 + 0x2]
000007E0  486D EB5E                pea.l      [A5 - 0x14A2]
000007E4  486D EB5E                pea.l      [A5 - 0x14A2]
000007E8  4267                     clr.w      -[A7]
000007EA  42A7                     clr.l      -[A7]
000007EC  A8EC                     syscall    CopyBits
000007EE  4878 0064                push.l     0x64 /* 'd' */
000007F2  2F2D F484                move.l     -[A7], [A5 - 0xB7C]
000007F6  4EAD 005A                jsr        [A5 + 0x5A /* export_7, CODE:1 @ 00000162 */]
000007FA  2E00                     move.l     D7, D0
000007FC  4878 000A                push.l     0xA /* '\n' */
00000800  2F07                     move.l     -[A7], D7
00000802  4EAD 0062                jsr        [A5 + 0x62 /* export_8, CODE:1 @ 00000182 */]
00000806  2E00                     move.l     D7, D0
00000808  4A87                     tst.l      D7
0000080A  660C                     bne        +0xE /* 00000818 */
0000080C  0CAD 0000 03E8 F484      cmpi.l     [A5 - 0xB7C], 0x3E8
00000814  6C02                     bge        +0x4 /* 00000818 */
00000816  7E0A                     moveq.l    D7, 0x0A
label00000818:
00000818  206D EED2                movea.l    A0, [A5 - 0x112E]
0000081C  4868 0002                pea.l      [A0 + 0x2]
00000820  226D EEBE                movea.l    A1, [A5 - 0x1142]
00000824  4869 0002                pea.l      [A1 + 0x2]
00000828  204D                     movea.l    A0, A5
0000082A  2007                     move.l     D0, D7
0000082C  E788                     lsl        D0, 3
0000082E  D1C0                     add.l      A0, D0
00000830  4868 EAE6                pea.l      [A0 - 0x151A]
00000834  486D EB66                pea.l      [A5 - 0x149A]
00000838  4267                     clr.w      -[A7]
0000083A  42A7                     clr.l      -[A7]
0000083C  A8EC                     syscall    CopyBits
0000083E  206D EEBE                movea.l    A0, [A5 - 0x1142]
00000842  4868 0002                pea.l      [A0 + 0x2]
00000846  226D EF3A                movea.l    A1, [A5 - 0x10C6]
0000084A  4869 0002                pea.l      [A1 + 0x2]
0000084E  486D EB66                pea.l      [A5 - 0x149A]
00000852  486D EB66                pea.l      [A5 - 0x149A]
00000856  4267                     clr.w      -[A7]
00000858  42A7                     clr.l      -[A7]
0000085A  A8EC                     syscall    CopyBits
0000085C  4878 000A                push.l     0xA /* '\n' */
00000860  2F2D F484                move.l     -[A7], [A5 - 0xB7C]
00000864  4EAD 005A                jsr        [A5 + 0x5A /* export_7, CODE:1 @ 00000162 */]
00000868  2E00                     move.l     D7, D0
0000086A  4878 000A                push.l     0xA /* '\n' */
0000086E  2F07                     move.l     -[A7], D7
00000870  4EAD 0062                jsr        [A5 + 0x62 /* export_8, CODE:1 @ 00000182 */]
00000874  2E00                     move.l     D7, D0
00000876  4A87                     tst.l      D7
00000878  660A                     bne        +0xC /* 00000884 */
0000087A  7064                     moveq.l    D0, 0x64
0000087C  B0AD F484                cmp.l      D0, [A5 - 0xB7C]
00000880  6F02                     ble        +0x4 /* 00000884 */
00000882  7E0A                     moveq.l    D7, 0x0A
label00000884:
00000884  206D EED2                movea.l    A0, [A5 - 0x112E]
00000888  4868 0002                pea.l      [A0 + 0x2]
0000088C  226D EEBE                movea.l    A1, [A5 - 0x1142]
00000890  4869 0002                pea.l      [A1 + 0x2]
00000894  204D                     movea.l    A0, A5
00000896  2007                     move.l     D0, D7
00000898  E788                     lsl        D0, 3
0000089A  D1C0                     add.l      A0, D0
0000089C  4868 EAE6                pea.l      [A0 - 0x151A]
000008A0  486D EB6E                pea.l      [A5 - 0x1492]
000008A4  4267                     clr.w      -[A7]
000008A6  42A7                     clr.l      -[A7]
000008A8  A8EC                     syscall    CopyBits
000008AA  206D EEBE                movea.l    A0, [A5 - 0x1142]
000008AE  4868 0002                pea.l      [A0 + 0x2]
000008B2  226D EF3A                movea.l    A1, [A5 - 0x10C6]
000008B6  4869 0002                pea.l      [A1 + 0x2]
000008BA  486D EB6E                pea.l      [A5 - 0x1492]
000008BE  486D EB6E                pea.l      [A5 - 0x1492]
000008C2  4267                     clr.w      -[A7]
000008C4  42A7                     clr.l      -[A7]
000008C6  A8EC                     syscall    CopyBits
000008C8  4878 000A                push.l     0xA /* '\n' */
000008CC  2F2D F484                move.l     -[A7], [A5 - 0xB7C]
000008D0  4EAD 0062                jsr        [A5 + 0x62 /* export_8, CODE:1 @ 00000182 */]
000008D4  2E00                     move.l     D7, D0
000008D6  206D EED2                movea.l    A0, [A5 - 0x112E]
000008DA  4868 0002                pea.l      [A0 + 0x2]
000008DE  226D EEBE                movea.l    A1, [A5 - 0x1142]
000008E2  4869 0002                pea.l      [A1 + 0x2]
000008E6  204D                     movea.l    A0, A5
000008E8  2007                     move.l     D0, D7
000008EA  E788                     lsl        D0, 3
000008EC  D1C0                     add.l      A0, D0
000008EE  4868 EAE6                pea.l      [A0 - 0x151A]
000008F2  486D EB76                pea.l      [A5 - 0x148A]
000008F6  4267                     clr.w      -[A7]
000008F8  42A7                     clr.l      -[A7]
000008FA  A8EC                     syscall    CopyBits
000008FC  206D EEBE                movea.l    A0, [A5 - 0x1142]
00000900  4868 0002                pea.l      [A0 + 0x2]
00000904  226D EF3A                movea.l    A1, [A5 - 0x10C6]
00000908  4869 0002                pea.l      [A1 + 0x2]
0000090C  486D EB76                pea.l      [A5 - 0x148A]
00000910  486D EB76                pea.l      [A5 - 0x148A]
00000914  4267                     clr.w      -[A7]
00000916  42A7                     clr.l      -[A7]
00000918  A8EC                     syscall    CopyBits
0000091A  2E1F                     move.l     D7, [A7]+
0000091C  4E75                     rts
fn0000091E:
0000091E  2F07                     move.l     -[A7], D7
00000920  3E2D F490                move.w     D7, [A5 - 0xB70]
00000924  5247                     addq.w     D7, 1
00000926  48C7                     ext.l      D7
00000928  8FFC 0064                divs.w     D7, 0x64 /* 'd' */
0000092C  4878 000A                push.l     0xA /* '\n' */
00000930  3047                     movea.w    A0, D7
00000932  2F08                     move.l     -[A7], A0
00000934  4EAD 0062                jsr        [A5 + 0x62 /* export_8, CODE:1 @ 00000182 */]
00000938  3E00                     move.w     D7, D0
0000093A  4A47                     tst.w      D7
0000093C  660E                     bne        +0x10 /* 0000094C */
0000093E  7001                     moveq.l    D0, 0x01
00000940  D06D F490                add.w      D0, [A5 - 0xB70]
00000944  0C40 03E8                cmpi.w     D0, 0x3E8
00000948  6C02                     bge        +0x4 /* 0000094C */
0000094A  7E0A                     moveq.l    D7, 0x0A
label0000094C:
0000094C  206D EED2                movea.l    A0, [A5 - 0x112E]
00000950  4868 0002                pea.l      [A0 + 0x2]
00000954  226D EEBE                movea.l    A1, [A5 - 0x1142]
00000958  4869 0002                pea.l      [A1 + 0x2]
0000095C  204D                     movea.l    A0, A5
0000095E  2007                     move.l     D0, D7
00000960  48C0                     ext.l      D0
00000962  E788                     lsl        D0, 3
00000964  D1C0                     add.l      A0, D0
00000966  4868 EAE6                pea.l      [A0 - 0x151A]
0000096A  486D EB7E                pea.l      [A5 - 0x1482]
0000096E  4267                     clr.w      -[A7]
00000970  42A7                     clr.l      -[A7]
00000972  A8EC                     syscall    CopyBits
00000974  206D EEBE                movea.l    A0, [A5 - 0x1142]
00000978  4868 0002                pea.l      [A0 + 0x2]
0000097C  226D EF3A                movea.l    A1, [A5 - 0x10C6]
00000980  4869 0002                pea.l      [A1 + 0x2]
00000984  486D EB7E                pea.l      [A5 - 0x1482]
00000988  486D EB7E                pea.l      [A5 - 0x1482]
0000098C  4267                     clr.w      -[A7]
0000098E  42A7                     clr.l      -[A7]
00000990  A8EC                     syscall    CopyBits
00000992  3E2D F490                move.w     D7, [A5 - 0xB70]
00000996  5247                     addq.w     D7, 1
00000998  48C7                     ext.l      D7
0000099A  8FFC 000A                divs.w     D7, 0xA /* '\n' */
0000099E  4878 000A                push.l     0xA /* '\n' */
000009A2  3047                     movea.w    A0, D7
000009A4  2F08                     move.l     -[A7], A0
000009A6  4EAD 0062                jsr        [A5 + 0x62 /* export_8, CODE:1 @ 00000182 */]
000009AA  3E00                     move.w     D7, D0
000009AC  4A47                     tst.w      D7
000009AE  660E                     bne        +0x10 /* 000009BE */
000009B0  7001                     moveq.l    D0, 0x01
000009B2  D06D F490                add.w      D0, [A5 - 0xB70]
000009B6  0C40 0064                cmpi.w     D0, 0x64 /* 'd' */
000009BA  6C02                     bge        +0x4 /* 000009BE */
000009BC  7E0A                     moveq.l    D7, 0x0A
label000009BE:
000009BE  206D EED2                movea.l    A0, [A5 - 0x112E]
000009C2  4868 0002                pea.l      [A0 + 0x2]
000009C6  226D EEBE                movea.l    A1, [A5 - 0x1142]
000009CA  4869 0002                pea.l      [A1 + 0x2]
000009CE  204D                     movea.l    A0, A5
000009D0  2007                     move.l     D0, D7
000009D2  48C0                     ext.l      D0
000009D4  E788                     lsl        D0, 3
000009D6  D1C0                     add.l      A0, D0
000009D8  4868 EAE6                pea.l      [A0 - 0x151A]
000009DC  486D EB86                pea.l      [A5 - 0x147A]
000009E0  4267                     clr.w      -[A7]
000009E2  42A7                     clr.l      -[A7]
000009E4  A8EC                     syscall    CopyBits
000009E6  206D EEBE                movea.l    A0, [A5 - 0x1142]
000009EA  4868 0002                pea.l      [A0 + 0x2]
000009EE  226D EF3A                movea.l    A1, [A5 - 0x10C6]
000009F2  4869 0002                pea.l      [A1 + 0x2]
000009F6  486D EB86                pea.l      [A5 - 0x147A]
000009FA  486D EB86                pea.l      [A5 - 0x147A]
000009FE  4267                     clr.w      -[A7]
00000A00  42A7                     clr.l      -[A7]
00000A02  A8EC                     syscall    CopyBits
00000A04  3E2D F490                move.w     D7, [A5 - 0xB70]
00000A08  5247                     addq.w     D7, 1
00000A0A  48C7                     ext.l      D7
00000A0C  8FFC 000A                divs.w     D7, 0xA /* '\n' */
00000A10  4847                     swap.w     D7
00000A12  206D EED2                movea.l    A0, [A5 - 0x112E]
00000A16  4868 0002                pea.l      [A0 + 0x2]
00000A1A  226D EEBE                movea.l    A1, [A5 - 0x1142]
00000A1E  4869 0002                pea.l      [A1 + 0x2]
00000A22  204D                     movea.l    A0, A5
00000A24  2007                     move.l     D0, D7
00000A26  48C0                     ext.l      D0
00000A28  E788                     lsl        D0, 3
00000A2A  D1C0                     add.l      A0, D0
00000A2C  4868 EAE6                pea.l      [A0 - 0x151A]
00000A30  486D EB8E                pea.l      [A5 - 0x1472]
00000A34  4267                     clr.w      -[A7]
00000A36  42A7                     clr.l      -[A7]
00000A38  A8EC                     syscall    CopyBits
00000A3A  206D EEBE                movea.l    A0, [A5 - 0x1142]
00000A3E  4868 0002                pea.l      [A0 + 0x2]
00000A42  226D EF3A                movea.l    A1, [A5 - 0x10C6]
00000A46  4869 0002                pea.l      [A1 + 0x2]
00000A4A  486D EB8E                pea.l      [A5 - 0x1472]
00000A4E  486D EB8E                pea.l      [A5 - 0x1472]
00000A52  4267                     clr.w      -[A7]
00000A54  42A7                     clr.l      -[A7]
00000A56  A8EC                     syscall    CopyBits
00000A58  2E1F                     move.l     D7, [A7]+
00000A5A  4E75                     rts
export_11:
fn00000A5C:
00000A5C  4E56 FFFE                link       A6, -0x0002
00000A60  48E7 1F00                movem.l    -[A7], D3,D4,D5,D6,D7
00000A64  3C2E 0008                move.w     D6, [A6 + 0x8]
00000A68  0646 FF54                addi.w     D6, 0xFF54
00000A6C  3A2E 0008                move.w     D5, [A6 + 0x8]
00000A70  0645 FE2C                addi.w     D5, 0xFE2C
00000A74  382E 000A                move.w     D4, [A6 + 0xA]
00000A78  0644 FF06                addi.w     D4, 0xFF06
00000A7C  302E 000A                move.w     D0, [A6 + 0xA]
00000A80  0640 FF06                addi.w     D0, 0xFF06
00000A84  3D40 FFFE                move.w     [A6 - 0x2], D0
00000A88  7E00                     moveq.l    D7, 0x00
00000A8A  6074                     bra        +0x76 /* 00000B00 */
label00000A8C:
00000A8C  3006                     move.w     D0, D6
00000A8E  C1C7                     muls.w     D0, D7
00000A90  48C0                     ext.l      D0
00000A92  81FC 0007                divs.w     D0, 0x7
00000A96  0640 00AC                addi.w     D0, 0xAC
00000A9A  204D                     movea.l    A0, A5
00000A9C  2207                     move.l     D1, D7
00000A9E  48C1                     ext.l      D1
00000AA0  E589                     lsl        D1, 2
00000AA2  D1C1                     add.l      A0, D1
00000AA4  3140 EE80                move.w     [A0 - 0x1180], D0
00000AA8  3004                     move.w     D0, D4
00000AAA  C1C7                     muls.w     D0, D7
00000AAC  48C0                     ext.l      D0
00000AAE  81FC 0007                divs.w     D0, 0x7
00000AB2  0640 00FA                addi.w     D0, 0xFA
00000AB6  204D                     movea.l    A0, A5
00000AB8  2207                     move.l     D1, D7
00000ABA  48C1                     ext.l      D1
00000ABC  E589                     lsl        D1, 2
00000ABE  D1C1                     add.l      A0, D1
00000AC0  3140 EE7E                move.w     [A0 - 0x1182], D0
00000AC4  3005                     move.w     D0, D5
00000AC6  C1C7                     muls.w     D0, D7
00000AC8  48C0                     ext.l      D0
00000ACA  81FC 0007                divs.w     D0, 0x7
00000ACE  0640 01D4                addi.w     D0, 0x1D4
00000AD2  204D                     movea.l    A0, A5
00000AD4  2207                     move.l     D1, D7
00000AD6  48C1                     ext.l      D1
00000AD8  E589                     lsl        D1, 2
00000ADA  D1C1                     add.l      A0, D1
00000ADC  3140 EEA0                move.w     [A0 - 0x1160], D0
00000AE0  302E FFFE                move.w     D0, [A6 - 0x2]
00000AE4  C1C7                     muls.w     D0, D7
00000AE6  48C0                     ext.l      D0
00000AE8  81FC 0007                divs.w     D0, 0x7
00000AEC  0640 00FA                addi.w     D0, 0xFA
00000AF0  204D                     movea.l    A0, A5
00000AF2  2207                     move.l     D1, D7
00000AF4  48C1                     ext.l      D1
00000AF6  E589                     lsl        D1, 2
00000AF8  D1C1                     add.l      A0, D1
00000AFA  3140 EE9E                move.w     [A0 - 0x1162], D0
00000AFE  5247                     addq.w     D7, 1
label00000B00:
00000B00  0C47 0008                cmpi.w     D7, 0x8
00000B04  6D86                     blt        -0x78 /* 00000A8C */
00000B06  7621                     moveq.l    D3, 0x21
00000B08  7E01                     moveq.l    D7, 0x01
00000B0A  6034                     bra        +0x36 /* 00000B40 */
label00000B0C:
00000B0C  3F03                     move.w     -[A7], D3
00000B0E  4EBA 2D9E                jsr        [PC + 0x2D9E /* 000038AE */]
00000B12  0640 FFF0                addi.w     D0, 0xFFF0
00000B16  204D                     movea.l    A0, A5
00000B18  2207                     move.l     D1, D7
00000B1A  48C1                     ext.l      D1
00000B1C  E589                     lsl        D1, 2
00000B1E  D1C1                     add.l      A0, D1
00000B20  D168 EE7E                add.w      [A0 - 0x1182], D0
00000B24  3E83                     move.w     [A7], D3
00000B26  4EBA 2D86                jsr        [PC + 0x2D86 /* 000038AE */]
00000B2A  0640 FFF0                addi.w     D0, 0xFFF0
00000B2E  204D                     movea.l    A0, A5
00000B30  2207                     move.l     D1, D7
00000B32  48C1                     ext.l      D1
00000B34  E589                     lsl        D1, 2
00000B36  D1C1                     add.l      A0, D1
00000B38  D168 EE9E                add.w      [A0 - 0x1162], D0
00000B3C  548F                     addq.l     A7, 2
00000B3E  5247                     addq.w     D7, 1
label00000B40:
00000B40  0C47 0007                cmpi.w     D7, 0x7
00000B44  6DC6                     blt        -0x38 /* 00000B0C */
00000B46  4CDF 00F8                movem.l    D3,D4,D5,D6,D7, [A7]+
00000B4A  4E5E                     unlink     A6
00000B4C  4E75                     rts
fn00000B4E:
00000B4E  4E56 0000                link       A6, 0
00000B52  4A2E 0008                tst.b      [A6 + 0x8]
00000B56  673E                     beq        +0x40 /* 00000B96 */
00000B58  206D EEC6                movea.l    A0, [A5 - 0x113A]
00000B5C  4868 0002                pea.l      [A0 + 0x2]
00000B60  226D EF3A                movea.l    A1, [A5 - 0x10C6]
00000B64  4869 0002                pea.l      [A1 + 0x2]
00000B68  486D EA6E                pea.l      [A5 - 0x1592]
00000B6C  486D EA7E                pea.l      [A5 - 0x1582]
00000B70  4267                     clr.w      -[A7]
00000B72  42A7                     clr.l      -[A7]
00000B74  A8EC                     syscall    CopyBits
00000B76  206D EEC6                movea.l    A0, [A5 - 0x113A]
00000B7A  4868 0002                pea.l      [A0 + 0x2]
00000B7E  226D EF3A                movea.l    A1, [A5 - 0x10C6]
00000B82  4869 0002                pea.l      [A1 + 0x2]
00000B86  486D EA76                pea.l      [A5 - 0x158A]
00000B8A  486D EA86                pea.l      [A5 - 0x157A]
00000B8E  4267                     clr.w      -[A7]
00000B90  42A7                     clr.l      -[A7]
00000B92  A8EC                     syscall    CopyBits
00000B94  603C                     bra        +0x3E /* 00000BD2 */
label00000B96:
00000B96  206D EEBE                movea.l    A0, [A5 - 0x1142]
00000B9A  4868 0002                pea.l      [A0 + 0x2]
00000B9E  226D EF3A                movea.l    A1, [A5 - 0x10C6]
00000BA2  4869 0002                pea.l      [A1 + 0x2]
00000BA6  486D EA7E                pea.l      [A5 - 0x1582]
00000BAA  486D EA7E                pea.l      [A5 - 0x1582]
00000BAE  4267                     clr.w      -[A7]
00000BB0  42A7                     clr.l      -[A7]
00000BB2  A8EC                     syscall    CopyBits
00000BB4  206D EEBE                movea.l    A0, [A5 - 0x1142]
00000BB8  4868 0002                pea.l      [A0 + 0x2]
00000BBC  226D EF3A                movea.l    A1, [A5 - 0x10C6]
00000BC0  4869 0002                pea.l      [A1 + 0x2]
00000BC4  486D EA86                pea.l      [A5 - 0x157A]
00000BC8  486D EA86                pea.l      [A5 - 0x157A]
00000BCC  4267                     clr.w      -[A7]
00000BCE  42A7                     clr.l      -[A7]
00000BD0  A8EC                     syscall    CopyBits
label00000BD2:
00000BD2  4E5E                     unlink     A6
00000BD4  4E75                     rts
fn00000BD6:
00000BD6  2F07                     move.l     -[A7], D7
00000BD8  2F2D EF3A                move.l     -[A7], [A5 - 0x10C6]
00000BDC  A873                     syscall    SetPort
00000BDE  2F3C 0002 0001           move.l     -[A7], 0x20001
00000BE4  A89B                     syscall    PenSize
00000BE6  3F3C 000A                move.w     -[A7], 0xA /* '\n' */
00000BEA  A89C                     syscall    PenMode
00000BEC  3F2D EE80                move.w     -[A7], [A5 - 0x1180]
00000BF0  3F2D EE7E                move.w     -[A7], [A5 - 0x1182]
00000BF4  A893                     syscall    MoveTo
00000BF6  7E00                     moveq.l    D7, 0x00
00000BF8  6042                     bra        +0x44 /* 00000C3C */
label00000BFA:
00000BFA  204D                     movea.l    A0, A5
00000BFC  2007                     move.l     D0, D7
00000BFE  48C0                     ext.l      D0
00000C00  E588                     lsl        D0, 2
00000C02  D1C0                     add.l      A0, D0
00000C04  3F28 EE80                move.w     -[A7], [A0 - 0x1180]
00000C08  204D                     movea.l    A0, A5
00000C0A  2007                     move.l     D0, D7
00000C0C  48C0                     ext.l      D0
00000C0E  E588                     lsl        D0, 2
00000C10  D1C0                     add.l      A0, D0
00000C12  3F28 EE7E                move.w     -[A7], [A0 - 0x1182]
00000C16  A893                     syscall    MoveTo
00000C18  204D                     movea.l    A0, A5
00000C1A  2007                     move.l     D0, D7
00000C1C  48C0                     ext.l      D0
00000C1E  E588                     lsl        D0, 2
00000C20  D1C0                     add.l      A0, D0
00000C22  70FF                     moveq.l    D0, 0xFFFFFFFF
00000C24  D068 EE84                add.w      D0, [A0 - 0x117C]
00000C28  3F00                     move.w     -[A7], D0
00000C2A  204D                     movea.l    A0, A5
00000C2C  2007                     move.l     D0, D7
00000C2E  48C0                     ext.l      D0
00000C30  E588                     lsl        D0, 2
00000C32  D1C0                     add.l      A0, D0
00000C34  3F28 EE82                move.w     -[A7], [A0 - 0x117E]
00000C38  A891                     syscall    LineTo
00000C3A  5247                     addq.w     D7, 1
label00000C3C:
00000C3C  0C47 0007                cmpi.w     D7, 0x7
00000C40  6DB8                     blt        -0x46 /* 00000BFA */
00000C42  3F2D EEA0                move.w     -[A7], [A5 - 0x1160]
00000C46  3F2D EE9E                move.w     -[A7], [A5 - 0x1162]
00000C4A  A893                     syscall    MoveTo
00000C4C  7E00                     moveq.l    D7, 0x00
00000C4E  6042                     bra        +0x44 /* 00000C92 */
label00000C50:
00000C50  204D                     movea.l    A0, A5
00000C52  2007                     move.l     D0, D7
00000C54  48C0                     ext.l      D0
00000C56  E588                     lsl        D0, 2
00000C58  D1C0                     add.l      A0, D0
00000C5A  3F28 EEA0                move.w     -[A7], [A0 - 0x1160]
00000C5E  204D                     movea.l    A0, A5
00000C60  2007                     move.l     D0, D7
00000C62  48C0                     ext.l      D0
00000C64  E588                     lsl        D0, 2
00000C66  D1C0                     add.l      A0, D0
00000C68  3F28 EE9E                move.w     -[A7], [A0 - 0x1162]
00000C6C  A893                     syscall    MoveTo
00000C6E  204D                     movea.l    A0, A5
00000C70  2007                     move.l     D0, D7
00000C72  48C0                     ext.l      D0
00000C74  E588                     lsl        D0, 2
00000C76  D1C0                     add.l      A0, D0
00000C78  70FF                     moveq.l    D0, 0xFFFFFFFF
00000C7A  D068 EEA4                add.w      D0, [A0 - 0x115C]
00000C7E  3F00                     move.w     -[A7], D0
00000C80  204D                     movea.l    A0, A5
00000C82  2007                     move.l     D0, D7
00000C84  48C0                     ext.l      D0
00000C86  E588                     lsl        D0, 2
00000C88  D1C0                     add.l      A0, D0
00000C8A  3F28 EEA2                move.w     -[A7], [A0 - 0x115E]
00000C8E  A891                     syscall    LineTo
00000C90  5247                     addq.w     D7, 1
label00000C92:
00000C92  0C47 0007                cmpi.w     D7, 0x7
00000C96  6DB8                     blt        -0x46 /* 00000C50 */
00000C98  A89E                     syscall    PenNormal
00000C9A  2E1F                     move.l     D7, [A7]+
00000C9C  4E75                     rts
fn00000C9E:
00000C9E  206D EEBE                movea.l    A0, [A5 - 0x1142]
00000CA2  4868 0002                pea.l      [A0 + 0x2]
00000CA6  226D EEC2                movea.l    A1, [A5 - 0x113E]
00000CAA  4869 0002                pea.l      [A1 + 0x2]
00000CAE  486D EA2E                pea.l      [A5 - 0x15D2]
00000CB2  486D EA2E                pea.l      [A5 - 0x15D2]
00000CB6  4267                     clr.w      -[A7]
00000CB8  42A7                     clr.l      -[A7]
00000CBA  A8EC                     syscall    CopyBits
00000CBC  4E75                     rts
fn00000CBE:
00000CBE  206D EF3A                movea.l    A0, [A5 - 0x10C6]
00000CC2  4868 0002                pea.l      [A0 + 0x2]
00000CC6  226D EEC2                movea.l    A1, [A5 - 0x113E]
00000CCA  4869 0002                pea.l      [A1 + 0x2]
00000CCE  486D EA2E                pea.l      [A5 - 0x15D2]
00000CD2  486D EA2E                pea.l      [A5 - 0x15D2]
00000CD6  4267                     clr.w      -[A7]
00000CD8  42A7                     clr.l      -[A7]
00000CDA  A8EC                     syscall    CopyBits
00000CDC  4E75                     rts
00000CDE  4E56 0000                link       A6, 0
00000CE2  48E7 0038                movem.l    -[A7], A2,A3,A4
00000CE6  286E 0008                movea.l    A4, [A6 + 0x8]
00000CEA  266E 000C                movea.l    A3, [A6 + 0xC]
00000CEE  246E 0010                movea.l    A2, [A6 + 0x10]
00000CF2  302C 0002                move.w     D0, [A4 + 0x2]
00000CF6  B06B 0002                cmp.w      D0, [A3 + 0x2]
00000CFA  6C0E                     bge        +0x10 /* 00000D0A */
00000CFC  356C 0002 0002           move.w     [A2 + 0x2], [A4 + 0x2]
00000D02  356B 0006 0006           move.w     [A2 + 0x6], [A3 + 0x6]
00000D08  600C                     bra        +0xE /* 00000D16 */
label00000D0A:
00000D0A  356B 0002 0002           move.w     [A2 + 0x2], [A3 + 0x2]
00000D10  356C 0006 0006           move.w     [A2 + 0x6], [A4 + 0x6]
label00000D16:
00000D16  3014                     move.w     D0, [A4]
00000D18  B053                     cmp.w      D0, [A3]
00000D1A  6C0A                     bge        +0xC /* 00000D26 */
00000D1C  3494                     move.w     [A2], [A4]
00000D1E  356B 0004 0004           move.w     [A2 + 0x4], [A3 + 0x4]
00000D24  6008                     bra        +0xA /* 00000D2E */
label00000D26:
00000D26  3493                     move.w     [A2], [A3]
00000D28  356C 0004 0004           move.w     [A2 + 0x4], [A4 + 0x4]
label00000D2E:
00000D2E  4CDF 1C00                movem.l    A2,A3,A4, [A7]+
00000D32  4E5E                     unlink     A6
00000D34  4E75                     rts
fn00000D36:
00000D36  4E56 0000                link       A6, 0
00000D3A  4A2D EF16                tst.b      [A5 - 0x10EA]
00000D3E  6700 00C6                beq        +0xC8 /* 00000E06 */
00000D42  0C6D 001F EF12           cmpi.w     [A5 - 0x10EE], 0x1F
00000D48  6C00 0178                bge        +0x17A /* 00000EC2 */
00000D4C  206E 0008                movea.l    A0, [A6 + 0x8]
00000D50  302D EF12                move.w     D0, [A5 - 0x10EE]
00000D54  224D                     movea.l    A1, A5
00000D56  48C0                     ext.l      D0
00000D58  E788                     lsl        D0, 3
00000D5A  D3C0                     add.l      A1, D0
00000D5C  2350 EB96                move.l     [A1 - 0x146A], [A0]
00000D60  2368 0004 EB9A           move.l     [A1 - 0x1466], [A0 + 0x4]
00000D66  526D EF12                addq.w     [A5 - 0x10EE], 1
00000D6A  302D EF12                move.w     D0, [A5 - 0x10EE]
00000D6E  224D                     movea.l    A1, A5
00000D70  48C0                     ext.l      D0
00000D72  E788                     lsl        D0, 3
00000D74  D3C0                     add.l      A1, D0
00000D76  4A69 EB98                tst.w      [A1 - 0x1468]
00000D7A  6C12                     bge        +0x14 /* 00000D8E */
00000D7C  302D EF12                move.w     D0, [A5 - 0x10EE]
00000D80  204D                     movea.l    A0, A5
00000D82  48C0                     ext.l      D0
00000D84  E788                     lsl        D0, 3
00000D86  D1C0                     add.l      A0, D0
00000D88  4268 EB98                clr.w      [A0 - 0x1468]
00000D8C  6026                     bra        +0x28 /* 00000DB4 */
label00000D8E:
00000D8E  302D EF12                move.w     D0, [A5 - 0x10EE]
00000D92  204D                     movea.l    A0, A5
00000D94  48C0                     ext.l      D0
00000D96  E788                     lsl        D0, 3
00000D98  D1C0                     add.l      A0, D0
00000D9A  0C68 0280 EB9C           cmpi.w     [A0 - 0x1464], 0x280
00000DA0  6F12                     ble        +0x14 /* 00000DB4 */
00000DA2  302D EF12                move.w     D0, [A5 - 0x10EE]
00000DA6  204D                     movea.l    A0, A5
00000DA8  48C0                     ext.l      D0
00000DAA  E788                     lsl        D0, 3
00000DAC  D1C0                     add.l      A0, D0
00000DAE  317C 0280 EB9C           move.w     [A0 - 0x1464], 0x280
label00000DB4:
00000DB4  302D EF12                move.w     D0, [A5 - 0x10EE]
00000DB8  204D                     movea.l    A0, A5
00000DBA  48C0                     ext.l      D0
00000DBC  E788                     lsl        D0, 3
00000DBE  D1C0                     add.l      A0, D0
00000DC0  4A68 EB96                tst.w      [A0 - 0x146A]
00000DC4  6C14                     bge        +0x16 /* 00000DDA */
00000DC6  302D EF12                move.w     D0, [A5 - 0x10EE]
00000DCA  204D                     movea.l    A0, A5
00000DCC  48C0                     ext.l      D0
00000DCE  E788                     lsl        D0, 3
00000DD0  D1C0                     add.l      A0, D0
00000DD2  4268 EB96                clr.w      [A0 - 0x146A]
00000DD6  6000 00EA                bra        +0xEC /* 00000EC2 */
label00000DDA:
00000DDA  302D EF12                move.w     D0, [A5 - 0x10EE]
00000DDE  204D                     movea.l    A0, A5
00000DE0  48C0                     ext.l      D0
00000DE2  E788                     lsl        D0, 3
00000DE4  D1C0                     add.l      A0, D0
00000DE6  0C68 01E0 EB9A           cmpi.w     [A0 - 0x1466], 0x1E0
00000DEC  6F00 00D4                ble        +0xD6 /* 00000EC2 */
00000DF0  302D EF12                move.w     D0, [A5 - 0x10EE]
00000DF4  204D                     movea.l    A0, A5
00000DF6  48C0                     ext.l      D0
00000DF8  E788                     lsl        D0, 3
00000DFA  D1C0                     add.l      A0, D0
00000DFC  317C 01E0 EB9A           move.w     [A0 - 0x1466], 0x1E0
00000E02  6000 00BE                bra        +0xC0 /* 00000EC2 */
label00000E06:
00000E06  0C6D 001F EF14           cmpi.w     [A5 - 0x10EC], 0x1F
00000E0C  6C00 00B4                bge        +0xB6 /* 00000EC2 */
00000E10  206E 0008                movea.l    A0, [A6 + 0x8]
00000E14  302D EF14                move.w     D0, [A5 - 0x10EC]
00000E18  224D                     movea.l    A1, A5
00000E1A  48C0                     ext.l      D0
00000E1C  E788                     lsl        D0, 3
00000E1E  D3C0                     add.l      A1, D0
00000E20  2350 EC96                move.l     [A1 - 0x136A], [A0]
00000E24  2368 0004 EC9A           move.l     [A1 - 0x1366], [A0 + 0x4]
00000E2A  526D EF14                addq.w     [A5 - 0x10EC], 1
00000E2E  302D EF14                move.w     D0, [A5 - 0x10EC]
00000E32  224D                     movea.l    A1, A5
00000E34  48C0                     ext.l      D0
00000E36  E788                     lsl        D0, 3
00000E38  D3C0                     add.l      A1, D0
00000E3A  4A69 EC98                tst.w      [A1 - 0x1368]
00000E3E  6C12                     bge        +0x14 /* 00000E52 */
00000E40  302D EF14                move.w     D0, [A5 - 0x10EC]
00000E44  204D                     movea.l    A0, A5
00000E46  48C0                     ext.l      D0
00000E48  E788                     lsl        D0, 3
00000E4A  D1C0                     add.l      A0, D0
00000E4C  4268 EC98                clr.w      [A0 - 0x1368]
00000E50  6026                     bra        +0x28 /* 00000E78 */
label00000E52:
00000E52  302D EF14                move.w     D0, [A5 - 0x10EC]
00000E56  204D                     movea.l    A0, A5
00000E58  48C0                     ext.l      D0
00000E5A  E788                     lsl        D0, 3
00000E5C  D1C0                     add.l      A0, D0
00000E5E  0C68 0280 EC9C           cmpi.w     [A0 - 0x1364], 0x280
00000E64  6F12                     ble        +0x14 /* 00000E78 */
00000E66  302D EF14                move.w     D0, [A5 - 0x10EC]
00000E6A  204D                     movea.l    A0, A5
00000E6C  48C0                     ext.l      D0
00000E6E  E788                     lsl        D0, 3
00000E70  D1C0                     add.l      A0, D0
00000E72  317C 0280 EC9C           move.w     [A0 - 0x1364], 0x280
label00000E78:
00000E78  302D EF14                move.w     D0, [A5 - 0x10EC]
00000E7C  204D                     movea.l    A0, A5
00000E7E  48C0                     ext.l      D0
00000E80  E788                     lsl        D0, 3
00000E82  D1C0                     add.l      A0, D0
00000E84  4A68 EC96                tst.w      [A0 - 0x136A]
00000E88  6C12                     bge        +0x14 /* 00000E9C */
00000E8A  302D EF14                move.w     D0, [A5 - 0x10EC]
00000E8E  204D                     movea.l    A0, A5
00000E90  48C0                     ext.l      D0
00000E92  E788                     lsl        D0, 3
00000E94  D1C0                     add.l      A0, D0
00000E96  4268 EC96                clr.w      [A0 - 0x136A]
00000E9A  6026                     bra        +0x28 /* 00000EC2 */
label00000E9C:
00000E9C  302D EF14                move.w     D0, [A5 - 0x10EC]
00000EA0  204D                     movea.l    A0, A5
00000EA2  48C0                     ext.l      D0
00000EA4  E788                     lsl        D0, 3
00000EA6  D1C0                     add.l      A0, D0
00000EA8  0C68 01E0 EC9A           cmpi.w     [A0 - 0x1366], 0x1E0
00000EAE  6F12                     ble        +0x14 /* 00000EC2 */
00000EB0  302D EF14                move.w     D0, [A5 - 0x10EC]
00000EB4  204D                     movea.l    A0, A5
00000EB6  48C0                     ext.l      D0
00000EB8  E788                     lsl        D0, 3
00000EBA  D1C0                     add.l      A0, D0
00000EBC  317C 01E0 EC9A           move.w     [A0 - 0x1366], 0x1E0
label00000EC2:
00000EC2  4E5E                     unlink     A6
00000EC4  4E75                     rts
fn00000EC6:
00000EC6  4E56 FFE8                link       A6, -0x0018
00000ECA  0C6D 0280 F172           cmpi.w     [A5 - 0xE8E], 0x280
00000ED0  6F00 00E4                ble        +0xE6 /* 00000FB6 */
00000ED4  1B7C 0001 F199           move.b     [A5 - 0xE67], 0x1
00000EDA  2D6D F16C FFF8           move.l     [A6 - 0x8], [A5 - 0xE94]
00000EE0  2D6D F170 FFFC           move.l     [A6 - 0x4], [A5 - 0xE90]
00000EE6  046E 0280 FFFA           subi.w     [A6 - 0x6], 0x280
00000EEC  046E 0280 FFFE           subi.w     [A6 - 0x2], 0x280
00000EF2  2D6D F174 FFF0           move.l     [A6 - 0x10], [A5 - 0xE8C]
00000EF8  2D6D F178 FFF4           move.l     [A6 - 0xC], [A5 - 0xE88]
00000EFE  046E 0280 FFF2           subi.w     [A6 - 0xE], 0x280
00000F04  046E 0280 FFF6           subi.w     [A6 - 0xA], 0x280
00000F0A  0C6D 0007 F192           cmpi.w     [A5 - 0xE6E], 0x7
00000F10  664C                     bne        +0x4E /* 00000F5E */
00000F12  302D F190                move.w     D0, [A5 - 0xE70]
00000F16  204D                     movea.l    A0, A5
00000F18  48C0                     ext.l      D0
00000F1A  E788                     lsl        D0, 3
00000F1C  D1C0                     add.l      A0, D0
00000F1E  2D68 EA8E FFE8           move.l     [A6 - 0x18], [A0 - 0x1572]
00000F24  2D68 EA92 FFEC           move.l     [A6 - 0x14], [A0 - 0x156E]
00000F2A  302E FFE8                move.w     D0, [A6 - 0x18]
00000F2E  D06D F194                add.w      D0, [A5 - 0xE6C]
00000F32  3D40 FFEC                move.w     [A6 - 0x14], D0
00000F36  206D EECA                movea.l    A0, [A5 - 0x1136]
00000F3A  4868 0002                pea.l      [A0 + 0x2]
00000F3E  226D EEF6                movea.l    A1, [A5 - 0x110A]
00000F42  4869 0002                pea.l      [A1 + 0x2]
00000F46  206D EEC2                movea.l    A0, [A5 - 0x113E]
00000F4A  4868 0002                pea.l      [A0 + 0x2]
00000F4E  486E FFE8                pea.l      [A6 - 0x18]
00000F52  486E FFE8                pea.l      [A6 - 0x18]
00000F56  486E FFF8                pea.l      [A6 - 0x8]
00000F5A  A817                     syscall    CopyMask
00000F5C  603E                     bra        +0x40 /* 00000F9C */
label00000F5E:
00000F5E  206D EECA                movea.l    A0, [A5 - 0x1136]
00000F62  4868 0002                pea.l      [A0 + 0x2]
00000F66  226D EEF6                movea.l    A1, [A5 - 0x110A]
00000F6A  4869 0002                pea.l      [A1 + 0x2]
00000F6E  206D EEC2                movea.l    A0, [A5 - 0x113E]
00000F72  4868 0002                pea.l      [A0 + 0x2]
00000F76  302D F190                move.w     D0, [A5 - 0xE70]
00000F7A  204D                     movea.l    A0, A5
00000F7C  48C0                     ext.l      D0
00000F7E  E788                     lsl        D0, 3
00000F80  D1C0                     add.l      A0, D0
00000F82  4868 EA8E                pea.l      [A0 - 0x1572]
00000F86  302D F190                move.w     D0, [A5 - 0xE70]
00000F8A  204D                     movea.l    A0, A5
00000F8C  48C0                     ext.l      D0
00000F8E  E788                     lsl        D0, 3
00000F90  D1C0                     add.l      A0, D0
00000F92  4868 EA8E                pea.l      [A0 - 0x1572]
00000F96  486E FFF8                pea.l      [A6 - 0x8]
00000F9A  A817                     syscall    CopyMask
label00000F9C:
00000F9C  2B6E FFF8 F17C           move.l     [A5 - 0xE84], [A6 - 0x8]
00000FA2  2B6E FFFC F180           move.l     [A5 - 0xE80], [A6 - 0x4]
00000FA8  486E FFF8                pea.l      [A6 - 0x8]
00000FAC  4EBA FD88                jsr        [PC - 0x278 /* 00000D36 */]
00000FB0  588F                     addq.l     A7, 4
00000FB2  6000 00EE                bra        +0xF0 /* 000010A2 */
label00000FB6:
00000FB6  4A6D F16E                tst.w      [A5 - 0xE92]
00000FBA  6C00 00E2                bge        +0xE4 /* 0000109E */
00000FBE  1B7C 0001 F199           move.b     [A5 - 0xE67], 0x1
00000FC4  2D6D F16C FFF8           move.l     [A6 - 0x8], [A5 - 0xE94]
00000FCA  2D6D F170 FFFC           move.l     [A6 - 0x4], [A5 - 0xE90]
00000FD0  066E 0280 FFFA           addi.w     [A6 - 0x6], 0x280
00000FD6  066E 0280 FFFE           addi.w     [A6 - 0x2], 0x280
00000FDC  2D6D F174 FFF0           move.l     [A6 - 0x10], [A5 - 0xE8C]
00000FE2  2D6D F178 FFF4           move.l     [A6 - 0xC], [A5 - 0xE88]
00000FE8  066E 0280 FFF2           addi.w     [A6 - 0xE], 0x280
00000FEE  066E 0280 FFF6           addi.w     [A6 - 0xA], 0x280
00000FF4  0C6D 0007 F192           cmpi.w     [A5 - 0xE6E], 0x7
00000FFA  664C                     bne        +0x4E /* 00001048 */
00000FFC  302D F190                move.w     D0, [A5 - 0xE70]
00001000  204D                     movea.l    A0, A5
00001002  48C0                     ext.l      D0
00001004  E788                     lsl        D0, 3
00001006  D1C0                     add.l      A0, D0
00001008  2D68 EA8E FFE8           move.l     [A6 - 0x18], [A0 - 0x1572]
0000100E  2D68 EA92 FFEC           move.l     [A6 - 0x14], [A0 - 0x156E]
00001014  302E FFE8                move.w     D0, [A6 - 0x18]
00001018  D06D F194                add.w      D0, [A5 - 0xE6C]
0000101C  3D40 FFEC                move.w     [A6 - 0x14], D0
00001020  206D EECA                movea.l    A0, [A5 - 0x1136]
00001024  4868 0002                pea.l      [A0 + 0x2]
00001028  226D EEF6                movea.l    A1, [A5 - 0x110A]
0000102C  4869 0002                pea.l      [A1 + 0x2]
00001030  206D EEC2                movea.l    A0, [A5 - 0x113E]
00001034  4868 0002                pea.l      [A0 + 0x2]
00001038  486E FFE8                pea.l      [A6 - 0x18]
0000103C  486E FFE8                pea.l      [A6 - 0x18]
00001040  486E FFF8                pea.l      [A6 - 0x8]
00001044  A817                     syscall    CopyMask
00001046  603E                     bra        +0x40 /* 00001086 */
label00001048:
00001048  206D EECA                movea.l    A0, [A5 - 0x1136]
0000104C  4868 0002                pea.l      [A0 + 0x2]
00001050  226D EEF6                movea.l    A1, [A5 - 0x110A]
00001054  4869 0002                pea.l      [A1 + 0x2]
00001058  206D EEC2                movea.l    A0, [A5 - 0x113E]
0000105C  4868 0002                pea.l      [A0 + 0x2]
00001060  302D F190                move.w     D0, [A5 - 0xE70]
00001064  204D                     movea.l    A0, A5
00001066  48C0                     ext.l      D0
00001068  E788                     lsl        D0, 3
0000106A  D1C0                     add.l      A0, D0
0000106C  4868 EA8E                pea.l      [A0 - 0x1572]
00001070  302D F190                move.w     D0, [A5 - 0xE70]
00001074  204D                     movea.l    A0, A5
00001076  48C0                     ext.l      D0
00001078  E788                     lsl        D0, 3
0000107A  D1C0                     add.l      A0, D0
0000107C  4868 EA8E                pea.l      [A0 - 0x1572]
00001080  486E FFF8                pea.l      [A6 - 0x8]
00001084  A817                     syscall    CopyMask
label00001086:
00001086  2B6E FFF8 F17C           move.l     [A5 - 0xE84], [A6 - 0x8]
0000108C  2B6E FFFC F180           move.l     [A5 - 0xE80], [A6 - 0x4]
00001092  486E FFF8                pea.l      [A6 - 0x8]
00001096  4EBA FC9E                jsr        [PC - 0x362 /* 00000D36 */]
0000109A  588F                     addq.l     A7, 4
0000109C  6004                     bra        +0x6 /* 000010A2 */
label0000109E:
0000109E  422D F199                clr.b      [A5 - 0xE67]
label000010A2:
000010A2  4E5E                     unlink     A6
000010A4  4E75                     rts
fn000010A6:
000010A6  2F07                     move.l     -[A7], D7
000010A8  3F3C 0004                move.w     -[A7], 0x4
000010AC  4EBA 2800                jsr        [PC + 0x2800 /* 000038AE */]
000010B0  3E00                     move.w     D7, D0
000010B2  4A2D F4A1                tst.b      [A5 - 0xB5F]
000010B6  548F                     addq.l     A7, 2
000010B8  6734                     beq        +0x36 /* 000010EE */
000010BA  206D EEE2                movea.l    A0, [A5 - 0x111E]
000010BE  4868 0002                pea.l      [A0 + 0x2]
000010C2  226D EEC2                movea.l    A1, [A5 - 0x113E]
000010C6  4869 0002                pea.l      [A1 + 0x2]
000010CA  204D                     movea.l    A0, A5
000010CC  2007                     move.l     D0, D7
000010CE  48C0                     ext.l      D0
000010D0  E788                     lsl        D0, 3
000010D2  D1C0                     add.l      A0, D0
000010D4  4868 EDAE                pea.l      [A0 - 0x1252]
000010D8  486D ED9E                pea.l      [A5 - 0x1262]
000010DC  4267                     clr.w      -[A7]
000010DE  42A7                     clr.l      -[A7]
000010E0  A8EC                     syscall    CopyBits
000010E2  486D ED9E                pea.l      [A5 - 0x1262]
000010E6  4EBA FC4E                jsr        [PC - 0x3B2 /* 00000D36 */]
000010EA  588F                     addq.l     A7, 4
000010EC  6032                     bra        +0x34 /* 00001120 */
label000010EE:
000010EE  206D EEE2                movea.l    A0, [A5 - 0x111E]
000010F2  4868 0002                pea.l      [A0 + 0x2]
000010F6  226D EEC2                movea.l    A1, [A5 - 0x113E]
000010FA  4869 0002                pea.l      [A1 + 0x2]
000010FE  204D                     movea.l    A0, A5
00001100  2007                     move.l     D0, D7
00001102  48C0                     ext.l      D0
00001104  E788                     lsl        D0, 3
00001106  D1C0                     add.l      A0, D0
00001108  4868 EDAE                pea.l      [A0 - 0x1252]
0000110C  486D EDA6                pea.l      [A5 - 0x125A]
00001110  4267                     clr.w      -[A7]
00001112  42A7                     clr.l      -[A7]
00001114  A8EC                     syscall    CopyBits
00001116  486D EDA6                pea.l      [A5 - 0x125A]
0000111A  4EBA FC1A                jsr        [PC - 0x3E6 /* 00000D36 */]
0000111E  588F                     addq.l     A7, 4
label00001120:
00001120  2E1F                     move.l     D7, [A7]+
00001122  4E75                     rts
fn00001124:
00001124  0C6D 000B EA0A           cmpi.w     [A5 - 0x15F6], 0xB
0000112A  6632                     bne        +0x34 /* 0000115E */
0000112C  206D EEF2                movea.l    A0, [A5 - 0x110E]
00001130  4868 0002                pea.l      [A0 + 0x2]
00001134  226D EF06                movea.l    A1, [A5 - 0x10FA]
00001138  4869 0002                pea.l      [A1 + 0x2]
0000113C  206D EEC2                movea.l    A0, [A5 - 0x113E]
00001140  4868 0002                pea.l      [A0 + 0x2]
00001144  486D EE4E                pea.l      [A5 - 0x11B2]
00001148  486D EE4E                pea.l      [A5 - 0x11B2]
0000114C  486D EA02                pea.l      [A5 - 0x15FE]
00001150  A817                     syscall    CopyMask
00001152  486D EA02                pea.l      [A5 - 0x15FE]
00001156  4EBA FBDE                jsr        [PC - 0x422 /* 00000D36 */]
0000115A  588F                     addq.l     A7, 4
0000115C  6038                     bra        +0x3A /* 00001196 */
label0000115E:
0000115E  0C6D 000C EA0A           cmpi.w     [A5 - 0x15F6], 0xC
00001164  6630                     bne        +0x32 /* 00001196 */
00001166  206D EEF2                movea.l    A0, [A5 - 0x110E]
0000116A  4868 0002                pea.l      [A0 + 0x2]
0000116E  226D EF06                movea.l    A1, [A5 - 0x10FA]
00001172  4869 0002                pea.l      [A1 + 0x2]
00001176  206D EEC2                movea.l    A0, [A5 - 0x113E]
0000117A  4868 0002                pea.l      [A0 + 0x2]
0000117E  486D EE56                pea.l      [A5 - 0x11AA]
00001182  486D EE56                pea.l      [A5 - 0x11AA]
00001186  486D EA02                pea.l      [A5 - 0x15FE]
0000118A  A817                     syscall    CopyMask
0000118C  486D EA02                pea.l      [A5 - 0x15FE]
00001190  4EBA FBA4                jsr        [PC - 0x45C /* 00000D36 */]
00001194  588F                     addq.l     A7, 4
label00001196:
00001196  4E75                     rts
fn00001198:
00001198  0C6D 0010 EA14           cmpi.w     [A5 - 0x15EC], 0x10
0000119E  6648                     bne        +0x4A /* 000011E8 */
000011A0  206D EECE                movea.l    A0, [A5 - 0x1132]
000011A4  4868 0002                pea.l      [A0 + 0x2]
000011A8  226D EF0A                movea.l    A1, [A5 - 0x10F6]
000011AC  4869 0002                pea.l      [A1 + 0x2]
000011B0  206D EEC2                movea.l    A0, [A5 - 0x113E]
000011B4  4868 0002                pea.l      [A0 + 0x2]
000011B8  302D EA18                move.w     D0, [A5 - 0x15E8]
000011BC  204D                     movea.l    A0, A5
000011BE  48C0                     ext.l      D0
000011C0  E788                     lsl        D0, 3
000011C2  D1C0                     add.l      A0, D0
000011C4  4868 EE5E                pea.l      [A0 - 0x11A2]
000011C8  302D EA18                move.w     D0, [A5 - 0x15E8]
000011CC  204D                     movea.l    A0, A5
000011CE  48C0                     ext.l      D0
000011D0  E788                     lsl        D0, 3
000011D2  D1C0                     add.l      A0, D0
000011D4  4868 EE5E                pea.l      [A0 - 0x11A2]
000011D8  486D EA0C                pea.l      [A5 - 0x15F4]
000011DC  A817                     syscall    CopyMask
000011DE  486D EA0C                pea.l      [A5 - 0x15F4]
000011E2  4EBA FB52                jsr        [PC - 0x4AE /* 00000D36 */]
000011E6  588F                     addq.l     A7, 4
label000011E8:
000011E8  4E75                     rts
fn000011EA:
000011EA  2F07                     move.l     -[A7], D7
000011EC  4A2D EF16                tst.b      [A5 - 0x10EA]
000011F0  6700 00D6                beq        +0xD8 /* 000012C8 */
000011F4  7E00                     moveq.l    D7, 0x00
000011F6  6036                     bra        +0x38 /* 0000122E */
label000011F8:
000011F8  206D EEC2                movea.l    A0, [A5 - 0x113E]
000011FC  4868 0002                pea.l      [A0 + 0x2]
00001200  226D EF3A                movea.l    A1, [A5 - 0x10C6]
00001204  4869 0002                pea.l      [A1 + 0x2]
00001208  204D                     movea.l    A0, A5
0000120A  2007                     move.l     D0, D7
0000120C  48C0                     ext.l      D0
0000120E  E788                     lsl        D0, 3
00001210  D1C0                     add.l      A0, D0
00001212  4868 EB96                pea.l      [A0 - 0x146A]
00001216  204D                     movea.l    A0, A5
00001218  2007                     move.l     D0, D7
0000121A  48C0                     ext.l      D0
0000121C  E788                     lsl        D0, 3
0000121E  D1C0                     add.l      A0, D0
00001220  4868 EB96                pea.l      [A0 - 0x146A]
00001224  4267                     clr.w      -[A7]
00001226  2F2D EF0E                move.l     -[A7], [A5 - 0x10F2]
0000122A  A8EC                     syscall    CopyBits
0000122C  5247                     addq.w     D7, 1
label0000122E:
0000122E  BE6D EF12                cmp.w      D7, [A5 - 0x10EE]
00001232  6DC4                     blt        -0x3A /* 000011F8 */
00001234  7E00                     moveq.l    D7, 0x00
00001236  6036                     bra        +0x38 /* 0000126E */
label00001238:
00001238  206D EEC2                movea.l    A0, [A5 - 0x113E]
0000123C  4868 0002                pea.l      [A0 + 0x2]
00001240  226D EF3A                movea.l    A1, [A5 - 0x10C6]
00001244  4869 0002                pea.l      [A1 + 0x2]
00001248  204D                     movea.l    A0, A5
0000124A  2007                     move.l     D0, D7
0000124C  48C0                     ext.l      D0
0000124E  E788                     lsl        D0, 3
00001250  D1C0                     add.l      A0, D0
00001252  4868 EC96                pea.l      [A0 - 0x136A]
00001256  204D                     movea.l    A0, A5
00001258  2007                     move.l     D0, D7
0000125A  48C0                     ext.l      D0
0000125C  E788                     lsl        D0, 3
0000125E  D1C0                     add.l      A0, D0
00001260  4868 EC96                pea.l      [A0 - 0x136A]
00001264  4267                     clr.w      -[A7]
00001266  2F2D EF0E                move.l     -[A7], [A5 - 0x10F2]
0000126A  A8EC                     syscall    CopyBits
0000126C  5247                     addq.w     D7, 1
label0000126E:
0000126E  BE6D EF14                cmp.w      D7, [A5 - 0x10EC]
00001272  6DC4                     blt        -0x3A /* 00001238 */
00001274  7E00                     moveq.l    D7, 0x00
00001276  6036                     bra        +0x38 /* 000012AE */
label00001278:
00001278  206D EEBE                movea.l    A0, [A5 - 0x1142]
0000127C  4868 0002                pea.l      [A0 + 0x2]
00001280  226D EEC2                movea.l    A1, [A5 - 0x113E]
00001284  4869 0002                pea.l      [A1 + 0x2]
00001288  204D                     movea.l    A0, A5
0000128A  2007                     move.l     D0, D7
0000128C  48C0                     ext.l      D0
0000128E  E788                     lsl        D0, 3
00001290  D1C0                     add.l      A0, D0
00001292  4868 EB96                pea.l      [A0 - 0x146A]
00001296  204D                     movea.l    A0, A5
00001298  2007                     move.l     D0, D7
0000129A  48C0                     ext.l      D0
0000129C  E788                     lsl        D0, 3
0000129E  D1C0                     add.l      A0, D0
000012A0  4868 EB96                pea.l      [A0 - 0x146A]
000012A4  4267                     clr.w      -[A7]
000012A6  2F2D EF0E                move.l     -[A7], [A5 - 0x10F2]
000012AA  A8EC                     syscall    CopyBits
000012AC  5247                     addq.w     D7, 1
label000012AE:
000012AE  BE6D EF12                cmp.w      D7, [A5 - 0x10EE]
000012B2  6DC4                     blt        -0x3A /* 00001278 */
000012B4  426D EF14                clr.w      [A5 - 0x10EC]
000012B8  4A2D EF16                tst.b      [A5 - 0x10EA]
000012BC  57C0                     seq        D0
000012BE  4400                     neg.b      D0
000012C0  1B40 EF16                move.b     [A5 - 0x10EA], D0
000012C4  6000 00D2                bra        +0xD4 /* 00001398 */
label000012C8:
000012C8  7E00                     moveq.l    D7, 0x00
000012CA  6036                     bra        +0x38 /* 00001302 */
label000012CC:
000012CC  206D EEC2                movea.l    A0, [A5 - 0x113E]
000012D0  4868 0002                pea.l      [A0 + 0x2]
000012D4  226D EF3A                movea.l    A1, [A5 - 0x10C6]
000012D8  4869 0002                pea.l      [A1 + 0x2]
000012DC  204D                     movea.l    A0, A5
000012DE  2007                     move.l     D0, D7
000012E0  48C0                     ext.l      D0
000012E2  E788                     lsl        D0, 3
000012E4  D1C0                     add.l      A0, D0
000012E6  4868 EC96                pea.l      [A0 - 0x136A]
000012EA  204D                     movea.l    A0, A5
000012EC  2007                     move.l     D0, D7
000012EE  48C0                     ext.l      D0
000012F0  E788                     lsl        D0, 3
000012F2  D1C0                     add.l      A0, D0
000012F4  4868 EC96                pea.l      [A0 - 0x136A]
000012F8  4267                     clr.w      -[A7]
000012FA  2F2D EF0E                move.l     -[A7], [A5 - 0x10F2]
000012FE  A8EC                     syscall    CopyBits
00001300  5247                     addq.w     D7, 1
label00001302:
00001302  BE6D EF14                cmp.w      D7, [A5 - 0x10EC]
00001306  6DC4                     blt        -0x3A /* 000012CC */
00001308  7E00                     moveq.l    D7, 0x00
0000130A  6036                     bra        +0x38 /* 00001342 */
label0000130C:
0000130C  206D EEC2                movea.l    A0, [A5 - 0x113E]
00001310  4868 0002                pea.l      [A0 + 0x2]
00001314  226D EF3A                movea.l    A1, [A5 - 0x10C6]
00001318  4869 0002                pea.l      [A1 + 0x2]
0000131C  204D                     movea.l    A0, A5
0000131E  2007                     move.l     D0, D7
00001320  48C0                     ext.l      D0
00001322  E788                     lsl        D0, 3
00001324  D1C0                     add.l      A0, D0
00001326  4868 EB96                pea.l      [A0 - 0x146A]
0000132A  204D                     movea.l    A0, A5
0000132C  2007                     move.l     D0, D7
0000132E  48C0                     ext.l      D0
00001330  E788                     lsl        D0, 3
00001332  D1C0                     add.l      A0, D0
00001334  4868 EB96                pea.l      [A0 - 0x146A]
00001338  4267                     clr.w      -[A7]
0000133A  2F2D EF0E                move.l     -[A7], [A5 - 0x10F2]
0000133E  A8EC                     syscall    CopyBits
00001340  5247                     addq.w     D7, 1
label00001342:
00001342  BE6D EF12                cmp.w      D7, [A5 - 0x10EE]
00001346  6DC4                     blt        -0x3A /* 0000130C */
00001348  7E00                     moveq.l    D7, 0x00
0000134A  6036                     bra        +0x38 /* 00001382 */
label0000134C:
0000134C  206D EEBE                movea.l    A0, [A5 - 0x1142]
00001350  4868 0002                pea.l      [A0 + 0x2]
00001354  226D EEC2                movea.l    A1, [A5 - 0x113E]
00001358  4869 0002                pea.l      [A1 + 0x2]
0000135C  204D                     movea.l    A0, A5
0000135E  2007                     move.l     D0, D7
00001360  48C0                     ext.l      D0
00001362  E788                     lsl        D0, 3
00001364  D1C0                     add.l      A0, D0
00001366  4868 EC96                pea.l      [A0 - 0x136A]
0000136A  204D                     movea.l    A0, A5
0000136C  2007                     move.l     D0, D7
0000136E  48C0                     ext.l      D0
00001370  E788                     lsl        D0, 3
00001372  D1C0                     add.l      A0, D0
00001374  4868 EC96                pea.l      [A0 - 0x136A]
00001378  4267                     clr.w      -[A7]
0000137A  2F2D EF0E                move.l     -[A7], [A5 - 0x10F2]
0000137E  A8EC                     syscall    CopyBits
00001380  5247                     addq.w     D7, 1
label00001382:
00001382  BE6D EF14                cmp.w      D7, [A5 - 0x10EC]
00001386  6DC4                     blt        -0x3A /* 0000134C */
00001388  426D EF12                clr.w      [A5 - 0x10EE]
0000138C  4A2D EF16                tst.b      [A5 - 0x10EA]
00001390  57C0                     seq        D0
00001392  4400                     neg.b      D0
00001394  1B40 EF16                move.b     [A5 - 0x10EA], D0
label00001398:
00001398  2E1F                     move.l     D7, [A7]+
0000139A  4E75                     rts
fn0000139C:
0000139C  4E56 FFF8                link       A6, -0x0008
000013A0  4A2D F4A1                tst.b      [A5 - 0xB5F]
000013A4  673E                     beq        +0x40 /* 000013E4 */
000013A6  0C6D FFFF F192           cmpi.w     [A5 - 0xE6E], 0xFFFF
000013AC  6636                     bne        +0x38 /* 000013E4 */
000013AE  206D EED6                movea.l    A0, [A5 - 0x112A]
000013B2  4868 0002                pea.l      [A0 + 0x2]
000013B6  226D EEF6                movea.l    A1, [A5 - 0x110A]
000013BA  4869 0002                pea.l      [A1 + 0x2]
000013BE  206D EEC2                movea.l    A0, [A5 - 0x113E]
000013C2  4868 0002                pea.l      [A0 + 0x2]
000013C6  486D EA56                pea.l      [A5 - 0x15AA]
000013CA  302D F190                move.w     D0, [A5 - 0xE70]
000013CE  204D                     movea.l    A0, A5
000013D0  48C0                     ext.l      D0
000013D2  E788                     lsl        D0, 3
000013D4  D1C0                     add.l      A0, D0
000013D6  4868 EA8E                pea.l      [A0 - 0x1572]
000013DA  486D F16C                pea.l      [A5 - 0xE94]
000013DE  A817                     syscall    CopyMask
000013E0  6000 0094                bra        +0x96 /* 00001476 */
label000013E4:
000013E4  0C6D 0007 F192           cmpi.w     [A5 - 0xE6E], 0x7
000013EA  664C                     bne        +0x4E /* 00001438 */
000013EC  302D F190                move.w     D0, [A5 - 0xE70]
000013F0  204D                     movea.l    A0, A5
000013F2  48C0                     ext.l      D0
000013F4  E788                     lsl        D0, 3
000013F6  D1C0                     add.l      A0, D0
000013F8  2D68 EA8E FFF8           move.l     [A6 - 0x8], [A0 - 0x1572]
000013FE  2D68 EA92 FFFC           move.l     [A6 - 0x4], [A0 - 0x156E]
00001404  302E FFF8                move.w     D0, [A6 - 0x8]
00001408  D06D F194                add.w      D0, [A5 - 0xE6C]
0000140C  3D40 FFFC                move.w     [A6 - 0x4], D0
00001410  206D EECA                movea.l    A0, [A5 - 0x1136]
00001414  4868 0002                pea.l      [A0 + 0x2]
00001418  226D EEF6                movea.l    A1, [A5 - 0x110A]
0000141C  4869 0002                pea.l      [A1 + 0x2]
00001420  206D EEC2                movea.l    A0, [A5 - 0x113E]
00001424  4868 0002                pea.l      [A0 + 0x2]
00001428  486E FFF8                pea.l      [A6 - 0x8]
0000142C  486E FFF8                pea.l      [A6 - 0x8]
00001430  486D F16C                pea.l      [A5 - 0xE94]
00001434  A817                     syscall    CopyMask
00001436  603E                     bra        +0x40 /* 00001476 */
label00001438:
00001438  206D EECA                movea.l    A0, [A5 - 0x1136]
0000143C  4868 0002                pea.l      [A0 + 0x2]
00001440  226D EEF6                movea.l    A1, [A5 - 0x110A]
00001444  4869 0002                pea.l      [A1 + 0x2]
00001448  206D EEC2                movea.l    A0, [A5 - 0x113E]
0000144C  4868 0002                pea.l      [A0 + 0x2]
00001450  302D F190                move.w     D0, [A5 - 0xE70]
00001454  204D                     movea.l    A0, A5
00001456  48C0                     ext.l      D0
00001458  E788                     lsl        D0, 3
0000145A  D1C0                     add.l      A0, D0
0000145C  4868 EA8E                pea.l      [A0 - 0x1572]
00001460  302D F190                move.w     D0, [A5 - 0xE70]
00001464  204D                     movea.l    A0, A5
00001466  48C0                     ext.l      D0
00001468  E788                     lsl        D0, 3
0000146A  D1C0                     add.l      A0, D0
0000146C  4868 EA8E                pea.l      [A0 - 0x1572]
00001470  486D F16C                pea.l      [A5 - 0xE94]
00001474  A817                     syscall    CopyMask
label00001476:
00001476  486D F16C                pea.l      [A5 - 0xE94]
0000147A  4EBA F8BA                jsr        [PC - 0x746 /* 00000D36 */]
0000147E  3B6D F184 F188           move.w     [A5 - 0xE78], [A5 - 0xE7C]
00001484  3B6D F186 F18A           move.w     [A5 - 0xE76], [A5 - 0xE7A]
0000148A  2B6D F16C F174           move.l     [A5 - 0xE8C], [A5 - 0xE94]
00001490  2B6D F170 F178           move.l     [A5 - 0xE88], [A5 - 0xE90]
00001496  4E5E                     unlink     A6
00001498  4E75                     rts
fn0000149A:
0000149A  4E56 FFE8                link       A6, -0x0018
0000149E  2F07                     move.l     -[A7], D7
000014A0  3E2E 0008                move.w     D7, [A6 + 0x8]
000014A4  7032                     moveq.l    D0, 0x32
000014A6  C1C7                     muls.w     D0, D7
000014A8  204D                     movea.l    A0, A5
000014AA  D1C0                     add.l      A0, D0
000014AC  0C68 0280 F1A2           cmpi.w     [A0 - 0xE5E], 0x280
000014B2  6F00 0134                ble        +0x136 /* 000015E8 */
000014B6  7032                     moveq.l    D0, 0x32
000014B8  C1C7                     muls.w     D0, D7
000014BA  204D                     movea.l    A0, A5
000014BC  D1C0                     add.l      A0, D0
000014BE  2D68 F19C FFF8           move.l     [A6 - 0x8], [A0 - 0xE64]
000014C4  2D68 F1A0 FFFC           move.l     [A6 - 0x4], [A0 - 0xE60]
000014CA  046E 0280 FFFA           subi.w     [A6 - 0x6], 0x280
000014D0  046E 0280 FFFE           subi.w     [A6 - 0x2], 0x280
000014D6  7032                     moveq.l    D0, 0x32
000014D8  C1C7                     muls.w     D0, D7
000014DA  204D                     movea.l    A0, A5
000014DC  D1C0                     add.l      A0, D0
000014DE  2D68 F1A4 FFF0           move.l     [A6 - 0x10], [A0 - 0xE5C]
000014E4  2D68 F1A8 FFF4           move.l     [A6 - 0xC], [A0 - 0xE58]
000014EA  046E 0280 FFF2           subi.w     [A6 - 0xE], 0x280
000014F0  046E 0280 FFF6           subi.w     [A6 - 0xA], 0x280
000014F6  7032                     moveq.l    D0, 0x32
000014F8  C1C7                     muls.w     D0, D7
000014FA  204D                     movea.l    A0, A5
000014FC  D1C0                     add.l      A0, D0
000014FE  0C68 0004 F1BA           cmpi.w     [A0 - 0xE46], 0x4
00001504  6710                     beq        +0x12 /* 00001516 */
00001506  7032                     moveq.l    D0, 0x32
00001508  C1C7                     muls.w     D0, D7
0000150A  204D                     movea.l    A0, A5
0000150C  D1C0                     add.l      A0, D0
0000150E  0C68 0005 F1BA           cmpi.w     [A0 - 0xE46], 0x5
00001514  6676                     bne        +0x78 /* 0000158C */
label00001516:
00001516  7032                     moveq.l    D0, 0x32
00001518  C1C7                     muls.w     D0, D7
0000151A  204D                     movea.l    A0, A5
0000151C  D1C0                     add.l      A0, D0
0000151E  0C68 0005 F1BA           cmpi.w     [A0 - 0xE46], 0x5
00001524  6632                     bne        +0x34 /* 00001558 */
00001526  7032                     moveq.l    D0, 0x32
00001528  C1C7                     muls.w     D0, D7
0000152A  204D                     movea.l    A0, A5
0000152C  D1C0                     add.l      A0, D0
0000152E  0C68 0018 F1BE           cmpi.w     [A0 - 0xE42], 0x18
00001534  6C22                     bge        +0x24 /* 00001558 */
00001536  2D6D EDCE FFE8           move.l     [A6 - 0x18], [A5 - 0x1232]
0000153C  2D6D EDD2 FFEC           move.l     [A6 - 0x14], [A5 - 0x122E]
00001542  7032                     moveq.l    D0, 0x32
00001544  C1C7                     muls.w     D0, D7
00001546  204D                     movea.l    A0, A5
00001548  D1C0                     add.l      A0, D0
0000154A  3028 F1BE                move.w     D0, [A0 - 0xE42]
0000154E  D06E FFE8                add.w      D0, [A6 - 0x18]
00001552  3D40 FFEC                move.w     [A6 - 0x14], D0
00001556  600C                     bra        +0xE /* 00001564 */
label00001558:
00001558  2D6D EDCE FFE8           move.l     [A6 - 0x18], [A5 - 0x1232]
0000155E  2D6D EDD2 FFEC           move.l     [A6 - 0x14], [A5 - 0x122E]
label00001564:
00001564  206D EEE6                movea.l    A0, [A5 - 0x111A]
00001568  4868 0002                pea.l      [A0 + 0x2]
0000156C  226D EF02                movea.l    A1, [A5 - 0x10FE]
00001570  4869 0002                pea.l      [A1 + 0x2]
00001574  206D EEC2                movea.l    A0, [A5 - 0x113E]
00001578  4868 0002                pea.l      [A0 + 0x2]
0000157C  486E FFE8                pea.l      [A6 - 0x18]
00001580  486E FFE8                pea.l      [A6 - 0x18]
00001584  486E FFF8                pea.l      [A6 - 0x8]
00001588  A817                     syscall    CopyMask
0000158A  604E                     bra        +0x50 /* 000015DA */
label0000158C:
0000158C  206D EEDE                movea.l    A0, [A5 - 0x1122]
00001590  4868 0002                pea.l      [A0 + 0x2]
00001594  226D EEFE                movea.l    A1, [A5 - 0x1102]
00001598  4869 0002                pea.l      [A1 + 0x2]
0000159C  206D EEC2                movea.l    A0, [A5 - 0x113E]
000015A0  4868 0002                pea.l      [A0 + 0x2]
000015A4  7032                     moveq.l    D0, 0x32
000015A6  C1C7                     muls.w     D0, D7
000015A8  204D                     movea.l    A0, A5
000015AA  D1C0                     add.l      A0, D0
000015AC  3028 F1B8                move.w     D0, [A0 - 0xE48]
000015B0  204D                     movea.l    A0, A5
000015B2  48C0                     ext.l      D0
000015B4  E788                     lsl        D0, 3
000015B6  D1C0                     add.l      A0, D0
000015B8  4868 F39C                pea.l      [A0 - 0xC64]
000015BC  7032                     moveq.l    D0, 0x32
000015BE  C1C7                     muls.w     D0, D7
000015C0  204D                     movea.l    A0, A5
000015C2  D1C0                     add.l      A0, D0
000015C4  3028 F1B8                move.w     D0, [A0 - 0xE48]
000015C8  204D                     movea.l    A0, A5
000015CA  48C0                     ext.l      D0
000015CC  E788                     lsl        D0, 3
000015CE  D1C0                     add.l      A0, D0
000015D0  4868 F39C                pea.l      [A0 - 0xC64]
000015D4  486E FFF8                pea.l      [A6 - 0x8]
000015D8  A817                     syscall    CopyMask
label000015DA:
000015DA  486E FFF8                pea.l      [A6 - 0x8]
000015DE  4EBA F756                jsr        [PC - 0x8AA /* 00000D36 */]
000015E2  588F                     addq.l     A7, 4
000015E4  6000 0140                bra        +0x142 /* 00001726 */
label000015E8:
000015E8  7032                     moveq.l    D0, 0x32
000015EA  C1C7                     muls.w     D0, D7
000015EC  204D                     movea.l    A0, A5
000015EE  D1C0                     add.l      A0, D0
000015F0  4A68 F19E                tst.w      [A0 - 0xE62]
000015F4  6C00 0130                bge        +0x132 /* 00001726 */
000015F8  7032                     moveq.l    D0, 0x32
000015FA  C1C7                     muls.w     D0, D7
000015FC  204D                     movea.l    A0, A5
000015FE  D1C0                     add.l      A0, D0
00001600  2D68 F19C FFF8           move.l     [A6 - 0x8], [A0 - 0xE64]
00001606  2D68 F1A0 FFFC           move.l     [A6 - 0x4], [A0 - 0xE60]
0000160C  066E 0280 FFFA           addi.w     [A6 - 0x6], 0x280
00001612  066E 0280 FFFE           addi.w     [A6 - 0x2], 0x280
00001618  7032                     moveq.l    D0, 0x32
0000161A  C1C7                     muls.w     D0, D7
0000161C  204D                     movea.l    A0, A5
0000161E  D1C0                     add.l      A0, D0
00001620  2D68 F1A4 FFF0           move.l     [A6 - 0x10], [A0 - 0xE5C]
00001626  2D68 F1A8 FFF4           move.l     [A6 - 0xC], [A0 - 0xE58]
0000162C  066E 0280 FFF2           addi.w     [A6 - 0xE], 0x280
00001632  066E 0280 FFF6           addi.w     [A6 - 0xA], 0x280
00001638  7032                     moveq.l    D0, 0x32
0000163A  C1C7                     muls.w     D0, D7
0000163C  204D                     movea.l    A0, A5
0000163E  D1C0                     add.l      A0, D0
00001640  0C68 0004 F1BA           cmpi.w     [A0 - 0xE46], 0x4
00001646  6710                     beq        +0x12 /* 00001658 */
00001648  7032                     moveq.l    D0, 0x32
0000164A  C1C7                     muls.w     D0, D7
0000164C  204D                     movea.l    A0, A5
0000164E  D1C0                     add.l      A0, D0
00001650  0C68 0005 F1BA           cmpi.w     [A0 - 0xE46], 0x5
00001656  6676                     bne        +0x78 /* 000016CE */
label00001658:
00001658  7032                     moveq.l    D0, 0x32
0000165A  C1C7                     muls.w     D0, D7
0000165C  204D                     movea.l    A0, A5
0000165E  D1C0                     add.l      A0, D0
00001660  0C68 0005 F1BA           cmpi.w     [A0 - 0xE46], 0x5
00001666  6632                     bne        +0x34 /* 0000169A */
00001668  7032                     moveq.l    D0, 0x32
0000166A  C1C7                     muls.w     D0, D7
0000166C  204D                     movea.l    A0, A5
0000166E  D1C0                     add.l      A0, D0
00001670  0C68 0018 F1BE           cmpi.w     [A0 - 0xE42], 0x18
00001676  6C22                     bge        +0x24 /* 0000169A */
00001678  2D6D EDCE FFE8           move.l     [A6 - 0x18], [A5 - 0x1232]
0000167E  2D6D EDD2 FFEC           move.l     [A6 - 0x14], [A5 - 0x122E]
00001684  7032                     moveq.l    D0, 0x32
00001686  C1C7                     muls.w     D0, D7
00001688  204D                     movea.l    A0, A5
0000168A  D1C0                     add.l      A0, D0
0000168C  3028 F1BE                move.w     D0, [A0 - 0xE42]
00001690  D06E FFE8                add.w      D0, [A6 - 0x18]
00001694  3D40 FFEC                move.w     [A6 - 0x14], D0
00001698  600C                     bra        +0xE /* 000016A6 */
label0000169A:
0000169A  2D6D EDCE FFE8           move.l     [A6 - 0x18], [A5 - 0x1232]
000016A0  2D6D EDD2 FFEC           move.l     [A6 - 0x14], [A5 - 0x122E]
label000016A6:
000016A6  206D EEE6                movea.l    A0, [A5 - 0x111A]
000016AA  4868 0002                pea.l      [A0 + 0x2]
000016AE  226D EF02                movea.l    A1, [A5 - 0x10FE]
000016B2  4869 0002                pea.l      [A1 + 0x2]
000016B6  206D EEC2                movea.l    A0, [A5 - 0x113E]
000016BA  4868 0002                pea.l      [A0 + 0x2]
000016BE  486E FFE8                pea.l      [A6 - 0x18]
000016C2  486E FFE8                pea.l      [A6 - 0x18]
000016C6  486E FFF8                pea.l      [A6 - 0x8]
000016CA  A817                     syscall    CopyMask
000016CC  604E                     bra        +0x50 /* 0000171C */
label000016CE:
000016CE  206D EEDE                movea.l    A0, [A5 - 0x1122]
000016D2  4868 0002                pea.l      [A0 + 0x2]
000016D6  226D EEFE                movea.l    A1, [A5 - 0x1102]
000016DA  4869 0002                pea.l      [A1 + 0x2]
000016DE  206D EEC2                movea.l    A0, [A5 - 0x113E]
000016E2  4868 0002                pea.l      [A0 + 0x2]
000016E6  7032                     moveq.l    D0, 0x32
000016E8  C1C7                     muls.w     D0, D7
000016EA  204D                     movea.l    A0, A5
000016EC  D1C0                     add.l      A0, D0
000016EE  3028 F1B8                move.w     D0, [A0 - 0xE48]
000016F2  204D                     movea.l    A0, A5
000016F4  48C0                     ext.l      D0
000016F6  E788                     lsl        D0, 3
000016F8  D1C0                     add.l      A0, D0
000016FA  4868 F39C                pea.l      [A0 - 0xC64]
000016FE  7032                     moveq.l    D0, 0x32
00001700  C1C7                     muls.w     D0, D7
00001702  204D                     movea.l    A0, A5
00001704  D1C0                     add.l      A0, D0
00001706  3028 F1B8                move.w     D0, [A0 - 0xE48]
0000170A  204D                     movea.l    A0, A5
0000170C  48C0                     ext.l      D0
0000170E  E788                     lsl        D0, 3
00001710  D1C0                     add.l      A0, D0
00001712  4868 F39C                pea.l      [A0 - 0xC64]
00001716  486E FFF8                pea.l      [A6 - 0x8]
0000171A  A817                     syscall    CopyMask
label0000171C:
0000171C  486E FFF8                pea.l      [A6 - 0x8]
00001720  4EBA F614                jsr        [PC - 0x9EC /* 00000D36 */]
00001724  588F                     addq.l     A7, 4
label00001726:
00001726  2E1F                     move.l     D7, [A7]+
00001728  4E5E                     unlink     A6
0000172A  4E75                     rts
fn0000172C:
0000172C  4E56 FFF8                link       A6, -0x0008
00001730  2F07                     move.l     -[A7], D7
00001732  7E00                     moveq.l    D7, 0x00
00001734  6000 03C2                bra        +0x3C4 /* 00001AF8 */
label00001738:
00001738  7032                     moveq.l    D0, 0x32
0000173A  C1C7                     muls.w     D0, D7
0000173C  204D                     movea.l    A0, A5
0000173E  D1C0                     add.l      A0, D0
00001740  3028 F1BA                move.w     D0, [A0 - 0xE46]
00001744  6700 00E4                beq        +0xE6 /* 0000182A */
00001748  6B00 03AC                bmi        +0x3AE /* 00001AF6 */
0000174C  5940                     subq.w     D0, 4
0000174E  6700 0248                beq        +0x24A /* 00001998 */
00001752  6A0C                     bpl        +0xE /* 00001760 */
00001754  5440                     addq.w     D0, 2
00001756  6700 039E                beq        +0x3A0 /* 00001AF6 */
0000175A  6A0E                     bpl        +0x10 /* 0000176A */
0000175C  6000 0186                bra        +0x188 /* 000018E4 */
label00001760:
00001760  5540                     subq.w     D0, 2
00001762  6A00 0392                bpl        +0x394 /* 00001AF6 */
00001766  6000 02C2                bra        +0x2C4 /* 00001A2A */
label0000176A:
0000176A  7032                     moveq.l    D0, 0x32
0000176C  C1C7                     muls.w     D0, D7
0000176E  204D                     movea.l    A0, A5
00001770  D1C0                     add.l      A0, D0
00001772  3028 F1B8                move.w     D0, [A0 - 0xE48]
00001776  204D                     movea.l    A0, A5
00001778  48C0                     ext.l      D0
0000177A  E788                     lsl        D0, 3
0000177C  D1C0                     add.l      A0, D0
0000177E  2D68 F39C FFF8           move.l     [A6 - 0x8], [A0 - 0xC64]
00001784  2D68 F3A0 FFFC           move.l     [A6 - 0x4], [A0 - 0xC60]
0000178A  7032                     moveq.l    D0, 0x32
0000178C  C1C7                     muls.w     D0, D7
0000178E  204D                     movea.l    A0, A5
00001790  D1C0                     add.l      A0, D0
00001792  3028 F1BE                move.w     D0, [A0 - 0xE42]
00001796  D06E FFF8                add.w      D0, [A6 - 0x8]
0000179A  3D40 FFFC                move.w     [A6 - 0x4], D0
0000179E  206D EEDA                movea.l    A0, [A5 - 0x1126]
000017A2  4868 0002                pea.l      [A0 + 0x2]
000017A6  226D EEFA                movea.l    A1, [A5 - 0x1106]
000017AA  4869 0002                pea.l      [A1 + 0x2]
000017AE  206D EEC2                movea.l    A0, [A5 - 0x113E]
000017B2  4868 0002                pea.l      [A0 + 0x2]
000017B6  486E FFF8                pea.l      [A6 - 0x8]
000017BA  486E FFF8                pea.l      [A6 - 0x8]
000017BE  7032                     moveq.l    D0, 0x32
000017C0  C1C7                     muls.w     D0, D7
000017C2  204D                     movea.l    A0, A5
000017C4  D1C0                     add.l      A0, D0
000017C6  4868 F19C                pea.l      [A0 - 0xE64]
000017CA  A817                     syscall    CopyMask
000017CC  7032                     moveq.l    D0, 0x32
000017CE  C1C7                     muls.w     D0, D7
000017D0  204D                     movea.l    A0, A5
000017D2  D1C0                     add.l      A0, D0
000017D4  4868 F19C                pea.l      [A0 - 0xE64]
000017D8  4EBA F55C                jsr        [PC - 0xAA4 /* 00000D36 */]
000017DC  7032                     moveq.l    D0, 0x32
000017DE  C1C7                     muls.w     D0, D7
000017E0  204D                     movea.l    A0, A5
000017E2  D1C0                     add.l      A0, D0
000017E4  7032                     moveq.l    D0, 0x32
000017E6  C1C7                     muls.w     D0, D7
000017E8  224D                     movea.l    A1, A5
000017EA  D3C0                     add.l      A1, D0
000017EC  2368 F19C F1A4           move.l     [A1 - 0xE5C], [A0 - 0xE64]
000017F2  2368 F1A0 F1A8           move.l     [A1 - 0xE58], [A0 - 0xE60]
000017F8  7032                     moveq.l    D0, 0x32
000017FA  C1C7                     muls.w     D0, D7
000017FC  204D                     movea.l    A0, A5
000017FE  D1C0                     add.l      A0, D0
00001800  7032                     moveq.l    D0, 0x32
00001802  C1C7                     muls.w     D0, D7
00001804  224D                     movea.l    A1, A5
00001806  D3C0                     add.l      A1, D0
00001808  3368 F1AC F1B0           move.w     [A1 - 0xE50], [A0 - 0xE54]
0000180E  7032                     moveq.l    D0, 0x32
00001810  C1C7                     muls.w     D0, D7
00001812  204D                     movea.l    A0, A5
00001814  D1C0                     add.l      A0, D0
00001816  7032                     moveq.l    D0, 0x32
00001818  C1C7                     muls.w     D0, D7
0000181A  224D                     movea.l    A1, A5
0000181C  D3C0                     add.l      A1, D0
0000181E  3368 F1AE F1B2           move.w     [A1 - 0xE4E], [A0 - 0xE52]
00001824  588F                     addq.l     A7, 4
00001826  6000 02CE                bra        +0x2D0 /* 00001AF6 */
label0000182A:
0000182A  206D EEDE                movea.l    A0, [A5 - 0x1122]
0000182E  4868 0002                pea.l      [A0 + 0x2]
00001832  226D EEFE                movea.l    A1, [A5 - 0x1102]
00001836  4869 0002                pea.l      [A1 + 0x2]
0000183A  206D EEC2                movea.l    A0, [A5 - 0x113E]
0000183E  4868 0002                pea.l      [A0 + 0x2]
00001842  7032                     moveq.l    D0, 0x32
00001844  C1C7                     muls.w     D0, D7
00001846  204D                     movea.l    A0, A5
00001848  D1C0                     add.l      A0, D0
0000184A  3028 F1B8                move.w     D0, [A0 - 0xE48]
0000184E  204D                     movea.l    A0, A5
00001850  48C0                     ext.l      D0
00001852  E788                     lsl        D0, 3
00001854  D1C0                     add.l      A0, D0
00001856  4868 F39C                pea.l      [A0 - 0xC64]
0000185A  7032                     moveq.l    D0, 0x32
0000185C  C1C7                     muls.w     D0, D7
0000185E  204D                     movea.l    A0, A5
00001860  D1C0                     add.l      A0, D0
00001862  3028 F1B8                move.w     D0, [A0 - 0xE48]
00001866  204D                     movea.l    A0, A5
00001868  48C0                     ext.l      D0
0000186A  E788                     lsl        D0, 3
0000186C  D1C0                     add.l      A0, D0
0000186E  4868 F39C                pea.l      [A0 - 0xC64]
00001872  7032                     moveq.l    D0, 0x32
00001874  C1C7                     muls.w     D0, D7
00001876  204D                     movea.l    A0, A5
00001878  D1C0                     add.l      A0, D0
0000187A  4868 F19C                pea.l      [A0 - 0xE64]
0000187E  A817                     syscall    CopyMask
00001880  7032                     moveq.l    D0, 0x32
00001882  C1C7                     muls.w     D0, D7
00001884  204D                     movea.l    A0, A5
00001886  D1C0                     add.l      A0, D0
00001888  4868 F19C                pea.l      [A0 - 0xE64]
0000188C  4EBA F4A8                jsr        [PC - 0xB58 /* 00000D36 */]
00001890  3E87                     move.w     [A7], D7
00001892  4EBA FC06                jsr        [PC - 0x3FA /* 0000149A */]
00001896  7032                     moveq.l    D0, 0x32
00001898  C1C7                     muls.w     D0, D7
0000189A  204D                     movea.l    A0, A5
0000189C  D1C0                     add.l      A0, D0
0000189E  7032                     moveq.l    D0, 0x32
000018A0  C1C7                     muls.w     D0, D7
000018A2  224D                     movea.l    A1, A5
000018A4  D3C0                     add.l      A1, D0
000018A6  2368 F19C F1A4           move.l     [A1 - 0xE5C], [A0 - 0xE64]
000018AC  2368 F1A0 F1A8           move.l     [A1 - 0xE58], [A0 - 0xE60]
000018B2  7032                     moveq.l    D0, 0x32
000018B4  C1C7                     muls.w     D0, D7
000018B6  204D                     movea.l    A0, A5
000018B8  D1C0                     add.l      A0, D0
000018BA  7032                     moveq.l    D0, 0x32
000018BC  C1C7                     muls.w     D0, D7
000018BE  224D                     movea.l    A1, A5
000018C0  D3C0                     add.l      A1, D0
000018C2  3368 F1AC F1B0           move.w     [A1 - 0xE50], [A0 - 0xE54]
000018C8  7032                     moveq.l    D0, 0x32
000018CA  C1C7                     muls.w     D0, D7
000018CC  204D                     movea.l    A0, A5
000018CE  D1C0                     add.l      A0, D0
000018D0  7032                     moveq.l    D0, 0x32
000018D2  C1C7                     muls.w     D0, D7
000018D4  224D                     movea.l    A1, A5
000018D6  D3C0                     add.l      A1, D0
000018D8  3368 F1AE F1B2           move.w     [A1 - 0xE4E], [A0 - 0xE52]
000018DE  588F                     addq.l     A7, 4
000018E0  6000 0214                bra        +0x216 /* 00001AF6 */
label000018E4:
000018E4  206D EEDA                movea.l    A0, [A5 - 0x1126]
000018E8  4868 0002                pea.l      [A0 + 0x2]
000018EC  226D EEFA                movea.l    A1, [A5 - 0x1106]
000018F0  4869 0002                pea.l      [A1 + 0x2]
000018F4  206D EEC2                movea.l    A0, [A5 - 0x113E]
000018F8  4868 0002                pea.l      [A0 + 0x2]
000018FC  7032                     moveq.l    D0, 0x32
000018FE  C1C7                     muls.w     D0, D7
00001900  204D                     movea.l    A0, A5
00001902  D1C0                     add.l      A0, D0
00001904  3028 F1B8                move.w     D0, [A0 - 0xE48]
00001908  204D                     movea.l    A0, A5
0000190A  48C0                     ext.l      D0
0000190C  E788                     lsl        D0, 3
0000190E  D1C0                     add.l      A0, D0
00001910  4868 F39C                pea.l      [A0 - 0xC64]
00001914  7032                     moveq.l    D0, 0x32
00001916  C1C7                     muls.w     D0, D7
00001918  204D                     movea.l    A0, A5
0000191A  D1C0                     add.l      A0, D0
0000191C  3028 F1B8                move.w     D0, [A0 - 0xE48]
00001920  204D                     movea.l    A0, A5
00001922  48C0                     ext.l      D0
00001924  E788                     lsl        D0, 3
00001926  D1C0                     add.l      A0, D0
00001928  4868 F39C                pea.l      [A0 - 0xC64]
0000192C  7032                     moveq.l    D0, 0x32
0000192E  C1C7                     muls.w     D0, D7
00001930  204D                     movea.l    A0, A5
00001932  D1C0                     add.l      A0, D0
00001934  4868 F19C                pea.l      [A0 - 0xE64]
00001938  A817                     syscall    CopyMask
0000193A  7032                     moveq.l    D0, 0x32
0000193C  C1C7                     muls.w     D0, D7
0000193E  204D                     movea.l    A0, A5
00001940  D1C0                     add.l      A0, D0
00001942  4868 F19C                pea.l      [A0 - 0xE64]
00001946  4EBA F3EE                jsr        [PC - 0xC12 /* 00000D36 */]
0000194A  7032                     moveq.l    D0, 0x32
0000194C  C1C7                     muls.w     D0, D7
0000194E  204D                     movea.l    A0, A5
00001950  D1C0                     add.l      A0, D0
00001952  7032                     moveq.l    D0, 0x32
00001954  C1C7                     muls.w     D0, D7
00001956  224D                     movea.l    A1, A5
00001958  D3C0                     add.l      A1, D0
0000195A  2368 F19C F1A4           move.l     [A1 - 0xE5C], [A0 - 0xE64]
00001960  2368 F1A0 F1A8           move.l     [A1 - 0xE58], [A0 - 0xE60]
00001966  7032                     moveq.l    D0, 0x32
00001968  C1C7                     muls.w     D0, D7
0000196A  204D                     movea.l    A0, A5
0000196C  D1C0                     add.l      A0, D0
0000196E  7032                     moveq.l    D0, 0x32
00001970  C1C7                     muls.w     D0, D7
00001972  224D                     movea.l    A1, A5
00001974  D3C0                     add.l      A1, D0
00001976  3368 F1AC F1B0           move.w     [A1 - 0xE50], [A0 - 0xE54]
0000197C  7032                     moveq.l    D0, 0x32
0000197E  C1C7                     muls.w     D0, D7
00001980  204D                     movea.l    A0, A5
00001982  D1C0                     add.l      A0, D0
00001984  7032                     moveq.l    D0, 0x32
00001986  C1C7                     muls.w     D0, D7
00001988  224D                     movea.l    A1, A5
0000198A  D3C0                     add.l      A1, D0
0000198C  3368 F1AE F1B2           move.w     [A1 - 0xE4E], [A0 - 0xE52]
00001992  588F                     addq.l     A7, 4
00001994  6000 0160                bra        +0x162 /* 00001AF6 */
label00001998:
00001998  206D EEE6                movea.l    A0, [A5 - 0x111A]
0000199C  4868 0002                pea.l      [A0 + 0x2]
000019A0  226D EF02                movea.l    A1, [A5 - 0x10FE]
000019A4  4869 0002                pea.l      [A1 + 0x2]
000019A8  206D EEC2                movea.l    A0, [A5 - 0x113E]
000019AC  4868 0002                pea.l      [A0 + 0x2]
000019B0  486D EDCE                pea.l      [A5 - 0x1232]
000019B4  486D EDCE                pea.l      [A5 - 0x1232]
000019B8  7032                     moveq.l    D0, 0x32
000019BA  C1C7                     muls.w     D0, D7
000019BC  204D                     movea.l    A0, A5
000019BE  D1C0                     add.l      A0, D0
000019C0  4868 F19C                pea.l      [A0 - 0xE64]
000019C4  A817                     syscall    CopyMask
000019C6  7032                     moveq.l    D0, 0x32
000019C8  C1C7                     muls.w     D0, D7
000019CA  204D                     movea.l    A0, A5
000019CC  D1C0                     add.l      A0, D0
000019CE  4868 F19C                pea.l      [A0 - 0xE64]
000019D2  4EBA F362                jsr        [PC - 0xC9E /* 00000D36 */]
000019D6  3E87                     move.w     [A7], D7
000019D8  4EBA FAC0                jsr        [PC - 0x540 /* 0000149A */]
000019DC  7032                     moveq.l    D0, 0x32
000019DE  C1C7                     muls.w     D0, D7
000019E0  204D                     movea.l    A0, A5
000019E2  D1C0                     add.l      A0, D0
000019E4  7032                     moveq.l    D0, 0x32
000019E6  C1C7                     muls.w     D0, D7
000019E8  224D                     movea.l    A1, A5
000019EA  D3C0                     add.l      A1, D0
000019EC  2368 F19C F1A4           move.l     [A1 - 0xE5C], [A0 - 0xE64]
000019F2  2368 F1A0 F1A8           move.l     [A1 - 0xE58], [A0 - 0xE60]
000019F8  7032                     moveq.l    D0, 0x32
000019FA  C1C7                     muls.w     D0, D7
000019FC  204D                     movea.l    A0, A5
000019FE  D1C0                     add.l      A0, D0
00001A00  7032                     moveq.l    D0, 0x32
00001A02  C1C7                     muls.w     D0, D7
00001A04  224D                     movea.l    A1, A5
00001A06  D3C0                     add.l      A1, D0
00001A08  3368 F1AC F1B0           move.w     [A1 - 0xE50], [A0 - 0xE54]
00001A0E  7032                     moveq.l    D0, 0x32
00001A10  C1C7                     muls.w     D0, D7
00001A12  204D                     movea.l    A0, A5
00001A14  D1C0                     add.l      A0, D0
00001A16  7032                     moveq.l    D0, 0x32
00001A18  C1C7                     muls.w     D0, D7
00001A1A  224D                     movea.l    A1, A5
00001A1C  D3C0                     add.l      A1, D0
00001A1E  3368 F1AE F1B2           move.w     [A1 - 0xE4E], [A0 - 0xE52]
00001A24  588F                     addq.l     A7, 4
00001A26  6000 00CE                bra        +0xD0 /* 00001AF6 */
label00001A2A:
00001A2A  7032                     moveq.l    D0, 0x32
00001A2C  C1C7                     muls.w     D0, D7
00001A2E  204D                     movea.l    A0, A5
00001A30  D1C0                     add.l      A0, D0
00001A32  0C68 0018 F1BE           cmpi.w     [A0 - 0xE42], 0x18
00001A38  6C22                     bge        +0x24 /* 00001A5C */
00001A3A  2D6D EDCE FFF8           move.l     [A6 - 0x8], [A5 - 0x1232]
00001A40  2D6D EDD2 FFFC           move.l     [A6 - 0x4], [A5 - 0x122E]
00001A46  7032                     moveq.l    D0, 0x32
00001A48  C1C7                     muls.w     D0, D7
00001A4A  204D                     movea.l    A0, A5
00001A4C  D1C0                     add.l      A0, D0
00001A4E  3028 F1BE                move.w     D0, [A0 - 0xE42]
00001A52  D06E FFF8                add.w      D0, [A6 - 0x8]
00001A56  3D40 FFFC                move.w     [A6 - 0x4], D0
00001A5A  600C                     bra        +0xE /* 00001A68 */
label00001A5C:
00001A5C  2D6D EDCE FFF8           move.l     [A6 - 0x8], [A5 - 0x1232]
00001A62  2D6D EDD2 FFFC           move.l     [A6 - 0x4], [A5 - 0x122E]
label00001A68:
00001A68  206D EEE6                movea.l    A0, [A5 - 0x111A]
00001A6C  4868 0002                pea.l      [A0 + 0x2]
00001A70  226D EF02                movea.l    A1, [A5 - 0x10FE]
00001A74  4869 0002                pea.l      [A1 + 0x2]
00001A78  206D EEC2                movea.l    A0, [A5 - 0x113E]
00001A7C  4868 0002                pea.l      [A0 + 0x2]
00001A80  486E FFF8                pea.l      [A6 - 0x8]
00001A84  486E FFF8                pea.l      [A6 - 0x8]
00001A88  7032                     moveq.l    D0, 0x32
00001A8A  C1C7                     muls.w     D0, D7
00001A8C  204D                     movea.l    A0, A5
00001A8E  D1C0                     add.l      A0, D0
00001A90  4868 F19C                pea.l      [A0 - 0xE64]
00001A94  A817                     syscall    CopyMask
00001A96  7032                     moveq.l    D0, 0x32
00001A98  C1C7                     muls.w     D0, D7
00001A9A  204D                     movea.l    A0, A5
00001A9C  D1C0                     add.l      A0, D0
00001A9E  4868 F19C                pea.l      [A0 - 0xE64]
00001AA2  4EBA F292                jsr        [PC - 0xD6E /* 00000D36 */]
00001AA6  3E87                     move.w     [A7], D7
00001AA8  4EBA F9F0                jsr        [PC - 0x610 /* 0000149A */]
00001AAC  7032                     moveq.l    D0, 0x32
00001AAE  C1C7                     muls.w     D0, D7
00001AB0  204D                     movea.l    A0, A5
00001AB2  D1C0                     add.l      A0, D0
00001AB4  7032                     moveq.l    D0, 0x32
00001AB6  C1C7                     muls.w     D0, D7
00001AB8  224D                     movea.l    A1, A5
00001ABA  D3C0                     add.l      A1, D0
00001ABC  2368 F19C F1A4           move.l     [A1 - 0xE5C], [A0 - 0xE64]
00001AC2  2368 F1A0 F1A8           move.l     [A1 - 0xE58], [A0 - 0xE60]
00001AC8  7032                     moveq.l    D0, 0x32
00001ACA  C1C7                     muls.w     D0, D7
00001ACC  204D                     movea.l    A0, A5
00001ACE  D1C0                     add.l      A0, D0
00001AD0  7032                     moveq.l    D0, 0x32
00001AD2  C1C7                     muls.w     D0, D7
00001AD4  224D                     movea.l    A1, A5
00001AD6  D3C0                     add.l      A1, D0
00001AD8  3368 F1AC F1B0           move.w     [A1 - 0xE50], [A0 - 0xE54]
00001ADE  7032                     moveq.l    D0, 0x32
00001AE0  C1C7                     muls.w     D0, D7
00001AE2  204D                     movea.l    A0, A5
00001AE4  D1C0                     add.l      A0, D0
00001AE6  7032                     moveq.l    D0, 0x32
00001AE8  C1C7                     muls.w     D0, D7
00001AEA  224D                     movea.l    A1, A5
00001AEC  D3C0                     add.l      A1, D0
00001AEE  3368 F1AE F1B2           move.w     [A1 - 0xE4E], [A0 - 0xE52]
00001AF4  588F                     addq.l     A7, 4
label00001AF6:
00001AF6  5247                     addq.w     D7, 1
label00001AF8:
00001AF8  BE6D F49A                cmp.w      D7, [A5 - 0xB66]
00001AFC  6D00 FC3A                blt        -0x3C4 /* 00001738 */
00001B00  2E1F                     move.l     D7, [A7]+
00001B02  4E5E                     unlink     A6
00001B04  4E75                     rts
fn00001B06:
00001B06  4EBA F59E                jsr        [PC - 0xA62 /* 000010A6 */]
00001B0A  4EBA F618                jsr        [PC - 0x9E8 /* 00001124 */]
00001B0E  4EBA F688                jsr        [PC - 0x978 /* 00001198 */]
00001B12  4EBA F888                jsr        [PC - 0x778 /* 0000139C */]
00001B16  4EBA F3AE                jsr        [PC - 0xC52 /* 00000EC6 */]
00001B1A  4EBA FC10                jsr        [PC - 0x3F0 /* 0000172C */]
00001B1E  4EBA F6CA                jsr        [PC - 0x936 /* 000011EA */]
00001B22  4E75                     rts
fn00001B24:
00001B24  4A2D F49E                tst.b      [A5 - 0xB62]
00001B28  674C                     beq        +0x4E /* 00001B76 */
00001B2A  2F2D EF42                move.l     -[A7], [A5 - 0x10BE]
00001B2E  3F3C 0001                move.w     -[A7], 0x1
00001B32  A93A                     syscall    DisableItem
00001B34  2F2D EF42                move.l     -[A7], [A5 - 0x10BE]
00001B38  3F3C 0002                move.w     -[A7], 0x2
00001B3C  A939                     syscall    EnableItem
00001B3E  4A2D F49F                tst.b      [A5 - 0xB61]
00001B42  6710                     beq        +0x12 /* 00001B54 */
00001B44  2F2D EF42                move.l     -[A7], [A5 - 0x10BE]
00001B48  3F3C 0002                move.w     -[A7], 0x2
00001B4C  486D EF4E                pea.l      [A5 - 0x10B2]
00001B50  A947                     syscall    SetMenuItemText/SetItem
00001B52  600E                     bra        +0x10 /* 00001B62 */
label00001B54:
00001B54  2F2D EF42                move.l     -[A7], [A5 - 0x10BE]
00001B58  3F3C 0002                move.w     -[A7], 0x2
00001B5C  486D EF5A                pea.l      [A5 - 0x10A6]
00001B60  A947                     syscall    SetMenuItemText/SetItem
label00001B62:
00001B62  2F2D EF42                move.l     -[A7], [A5 - 0x10BE]
00001B66  3F3C 0003                move.w     -[A7], 0x3
00001B6A  A939                     syscall    EnableItem
00001B6C  2F2D EF46                move.l     -[A7], [A5 - 0x10BA]
00001B70  4267                     clr.w      -[A7]
00001B72  A93A                     syscall    DisableItem
00001B74  6034                     bra        +0x36 /* 00001BAA */
label00001B76:
00001B76  2F2D EF42                move.l     -[A7], [A5 - 0x10BE]
00001B7A  3F3C 0001                move.w     -[A7], 0x1
00001B7E  A939                     syscall    EnableItem
00001B80  2F2D EF42                move.l     -[A7], [A5 - 0x10BE]
00001B84  3F3C 0002                move.w     -[A7], 0x2
00001B88  A93A                     syscall    DisableItem
00001B8A  2F2D EF42                move.l     -[A7], [A5 - 0x10BE]
00001B8E  3F3C 0002                move.w     -[A7], 0x2
00001B92  486D EF66                pea.l      [A5 - 0x109A]
00001B96  A947                     syscall    SetMenuItemText/SetItem
00001B98  2F2D EF42                move.l     -[A7], [A5 - 0x10BE]
00001B9C  3F3C 0003                move.w     -[A7], 0x3
00001BA0  A93A                     syscall    DisableItem
00001BA2  2F2D EF46                move.l     -[A7], [A5 - 0x10BA]
00001BA6  4267                     clr.w      -[A7]
00001BA8  A939                     syscall    EnableItem
label00001BAA:
00001BAA  4E75                     rts
fn00001BAC:
00001BAC  4E56 FEFA                link       A6, -0x0106
00001BB0  302E 0008                move.w     D0, [A6 + 0x8]
00001BB4  6740                     beq        +0x42 /* 00001BF6 */
00001BB6  6B3E                     bmi        +0x40 /* 00001BF6 */
00001BB8  5540                     subq.w     D0, 2
00001BBA  6A3A                     bpl        +0x3C /* 00001BF6 */
00001BBC  4A2D EF18                tst.b      [A5 - 0x10E8]
00001BC0  6606                     bne        +0x8 /* 00001BC8 */
00001BC2  4A2D EF17                tst.b      [A5 - 0x10E9]
00001BC6  6728                     beq        +0x2A /* 00001BF0 */
label00001BC8:
00001BC8  4EBA E734                jsr        [PC - 0x18CC /* 000002FE */]
00001BCC  422D EF18                clr.b      [A5 - 0x10E8]
00001BD0  422D EF17                clr.b      [A5 - 0x10E9]
00001BD4  2F2D EF46                move.l     -[A7], [A5 - 0x10BA]
00001BD8  3F3C 0002                move.w     -[A7], 0x2
00001BDC  1F2D EF17                move.b     -[A7], [A5 - 0x10E9]
00001BE0  A945                     syscall    CheckItem
00001BE2  2F2D EF46                move.l     -[A7], [A5 - 0x10BA]
00001BE6  3F3C 0003                move.w     -[A7], 0x3
00001BEA  1F2D EF18                move.b     -[A7], [A5 - 0x10E8]
00001BEE  A945                     syscall    CheckItem
label00001BF0:
00001BF0  4EBA 0584                jsr        [PC + 0x584 /* 00002176 */]
00001BF4  6026                     bra        +0x28 /* 00001C1C */
label00001BF6:
00001BF6  2F2D EF3E                move.l     -[A7], [A5 - 0x10C2]
00001BFA  3F2E 0008                move.w     -[A7], [A6 + 0x8]
00001BFE  486E FF00                pea.l      [A6 - 0x100]
00001C02  A946                     syscall    GetMenuItemText/GetItem
00001C04  486E FEFC                pea.l      [A6 - 0x104]
00001C08  A874                     syscall    GetPort
00001C0A  4267                     clr.w      -[A7]
00001C0C  486E FF00                pea.l      [A6 - 0x100]
00001C10  A9B6                     syscall    OpenDeskAcc
00001C12  3D5F FEFA                move.w     [A6 - 0x106], [A7]+
00001C16  2F2E FEFC                move.l     -[A7], [A6 - 0x104]
00001C1A  A873                     syscall    SetPort
label00001C1C:
00001C1C  4E5E                     unlink     A6
00001C1E  4E75                     rts
fn00001C20:
00001C20  4E56 0000                link       A6, 0
00001C24  302E 0008                move.w     D0, [A6 + 0x8]
00001C28  676A                     beq        +0x6C /* 00001C94 */
00001C2A  6B68                     bmi        +0x6A /* 00001C94 */
00001C2C  5940                     subq.w     D0, 4
00001C2E  6764                     beq        +0x66 /* 00001C94 */
00001C30  6A08                     bpl        +0xA /* 00001C3A */
00001C32  5440                     addq.w     D0, 2
00001C34  6748                     beq        +0x4A /* 00001C7E */
00001C36  6A5C                     bpl        +0x5E /* 00001C94 */
00001C38  6006                     bra        +0x8 /* 00001C40 */
label00001C3A:
00001C3A  5540                     subq.w     D0, 2
00001C3C  6A56                     bpl        +0x58 /* 00001C94 */
00001C3E  604E                     bra        +0x50 /* 00001C8E */
label00001C40:
00001C40  4A2D EF18                tst.b      [A5 - 0x10E8]
00001C44  6606                     bne        +0x8 /* 00001C4C */
00001C46  4A2D EF17                tst.b      [A5 - 0x10E9]
00001C4A  6728                     beq        +0x2A /* 00001C74 */
label00001C4C:
00001C4C  4EBA E6B0                jsr        [PC - 0x1950 /* 000002FE */]
00001C50  422D EF18                clr.b      [A5 - 0x10E8]
00001C54  422D EF17                clr.b      [A5 - 0x10E9]
00001C58  2F2D EF46                move.l     -[A7], [A5 - 0x10BA]
00001C5C  3F3C 0002                move.w     -[A7], 0x2
00001C60  1F2D EF17                move.b     -[A7], [A5 - 0x10E9]
00001C64  A945                     syscall    CheckItem
00001C66  2F2D EF46                move.l     -[A7], [A5 - 0x10BA]
00001C6A  3F3C 0003                move.w     -[A7], 0x3
00001C6E  1F2D EF18                move.b     -[A7], [A5 - 0x10E8]
00001C72  A945                     syscall    CheckItem
label00001C74:
00001C74  4EBA 07C0                jsr        [PC + 0x7C0 /* 00002436 */]
00001C78  4EBA FEAA                jsr        [PC - 0x156 /* 00001B24 */]
00001C7C  6016                     bra        +0x18 /* 00001C94 */
label00001C7E:
00001C7E  4A2D F49F                tst.b      [A5 - 0xB61]
00001C82  6710                     beq        +0x12 /* 00001C94 */
00001C84  422D F49F                clr.b      [A5 - 0xB61]
00001C88  4EBA F014                jsr        [PC - 0xFEC /* 00000C9E */]
00001C8C  6006                     bra        +0x8 /* 00001C94 */
label00001C8E:
00001C8E  1B7C 0001 EF4B           move.b     [A5 - 0x10B5], 0x1
label00001C94:
00001C94  4E5E                     unlink     A6
00001C96  4E75                     rts
fn00001C98:
00001C98  4E56 0000                link       A6, 0
00001C9C  302E 0008                move.w     D0, [A6 + 0x8]
00001CA0  6700 00CE                beq        +0xD0 /* 00001D70 */
00001CA4  6B00 00CA                bmi        +0xCC /* 00001D70 */
00001CA8  5740                     subq.w     D0, 3
00001CAA  6700 0086                beq        +0x88 /* 00001D32 */
00001CAE  6A00 00C0                bpl        +0xC2 /* 00001D70 */
00001CB2  5240                     addq.w     D0, 1
00001CB4  6A3C                     bpl        +0x3E /* 00001CF2 */
00001CB6  4A2D EF18                tst.b      [A5 - 0x10E8]
00001CBA  6606                     bne        +0x8 /* 00001CC2 */
00001CBC  4A2D EF17                tst.b      [A5 - 0x10E9]
00001CC0  6728                     beq        +0x2A /* 00001CEA */
label00001CC2:
00001CC2  4EBA E63A                jsr        [PC - 0x19C6 /* 000002FE */]
00001CC6  422D EF18                clr.b      [A5 - 0x10E8]
00001CCA  422D EF17                clr.b      [A5 - 0x10E9]
00001CCE  2F2D EF46                move.l     -[A7], [A5 - 0x10BA]
00001CD2  3F3C 0002                move.w     -[A7], 0x2
00001CD6  1F2D EF17                move.b     -[A7], [A5 - 0x10E9]
00001CDA  A945                     syscall    CheckItem
00001CDC  2F2D EF46                move.l     -[A7], [A5 - 0x10BA]
00001CE0  3F3C 0003                move.w     -[A7], 0x3
00001CE4  1F2D EF18                move.b     -[A7], [A5 - 0x10E8]
00001CE8  A945                     syscall    CheckItem
label00001CEA:
00001CEA  4EBA 0504                jsr        [PC + 0x504 /* 000021F0 */]
00001CEE  6000 0080                bra        +0x82 /* 00001D70 */
label00001CF2:
00001CF2  4A2D EF17                tst.b      [A5 - 0x10E9]
00001CF6  670A                     beq        +0xC /* 00001D02 */
00001CF8  4EBA E604                jsr        [PC - 0x19FC /* 000002FE */]
00001CFC  422D EF17                clr.b      [A5 - 0x10E9]
00001D00  6020                     bra        +0x22 /* 00001D22 */
label00001D02:
00001D02  4A2D EF18                tst.b      [A5 - 0x10E8]
00001D06  6716                     beq        +0x18 /* 00001D1E */
00001D08  4EBA E5F4                jsr        [PC - 0x1A0C /* 000002FE */]
00001D0C  422D EF18                clr.b      [A5 - 0x10E8]
00001D10  2F2D EF46                move.l     -[A7], [A5 - 0x10BA]
00001D14  3F3C 0003                move.w     -[A7], 0x3
00001D18  1F2D EF18                move.b     -[A7], [A5 - 0x10E8]
00001D1C  A945                     syscall    CheckItem
label00001D1E:
00001D1E  4EBA E51C                jsr        [PC - 0x1AE4 /* 0000023C */]
label00001D22:
00001D22  2F2D EF46                move.l     -[A7], [A5 - 0x10BA]
00001D26  3F3C 0002                move.w     -[A7], 0x2
00001D2A  1F2D EF17                move.b     -[A7], [A5 - 0x10E9]
00001D2E  A945                     syscall    CheckItem
00001D30  603E                     bra        +0x40 /* 00001D70 */
label00001D32:
00001D32  4A2D EF18                tst.b      [A5 - 0x10E8]
00001D36  670A                     beq        +0xC /* 00001D42 */
00001D38  4EBA E5C4                jsr        [PC - 0x1A3C /* 000002FE */]
00001D3C  422D EF18                clr.b      [A5 - 0x10E8]
00001D40  6020                     bra        +0x22 /* 00001D62 */
label00001D42:
00001D42  4A2D EF17                tst.b      [A5 - 0x10E9]
00001D46  6716                     beq        +0x18 /* 00001D5E */
00001D48  4EBA E5B4                jsr        [PC - 0x1A4C /* 000002FE */]
00001D4C  422D EF17                clr.b      [A5 - 0x10E9]
00001D50  2F2D EF46                move.l     -[A7], [A5 - 0x10BA]
00001D54  3F3C 0002                move.w     -[A7], 0x2
00001D58  1F2D EF17                move.b     -[A7], [A5 - 0x10E9]
00001D5C  A945                     syscall    CheckItem
label00001D5E:
00001D5E  4EBA E60C                jsr        [PC - 0x19F4 /* 0000036C */]
label00001D62:
00001D62  2F2D EF46                move.l     -[A7], [A5 - 0x10BA]
00001D66  3F3C 0003                move.w     -[A7], 0x3
00001D6A  1F2D EF18                move.b     -[A7], [A5 - 0x10E8]
00001D6E  A945                     syscall    CheckItem
label00001D70:
00001D70  4E5E                     unlink     A6
00001D72  4E75                     rts
fn00001D74:
00001D74  4E56 0000                link       A6, 0
00001D78  48E7 0700                movem.l    -[A7], D5,D6,D7
00001D7C  2E2E 0008                move.l     D7, [A6 + 0x8]
00001D80  4A87                     tst.l      D7
00001D82  6740                     beq        +0x42 /* 00001DC4 */
00001D84  2C07                     move.l     D6, D7
00001D86  7010                     moveq.l    D0, 0x10
00001D88  E0A6                     asr        D6, D0
00001D8A  3A07                     move.w     D5, D7
00001D8C  3006                     move.w     D0, D6
00001D8E  6B30                     bmi        +0x32 /* 00001DC0 */
00001D90  0440 0081                subi.w     D0, 0x81
00001D94  6718                     beq        +0x1A /* 00001DAE */
00001D96  6A06                     bpl        +0x8 /* 00001D9E */
00001D98  5240                     addq.w     D0, 1
00001D9A  6A08                     bpl        +0xA /* 00001DA4 */
00001D9C  6022                     bra        +0x24 /* 00001DC0 */
label00001D9E:
00001D9E  5540                     subq.w     D0, 2
00001DA0  6A1E                     bpl        +0x20 /* 00001DC0 */
00001DA2  6014                     bra        +0x16 /* 00001DB8 */
label00001DA4:
00001DA4  3F05                     move.w     -[A7], D5
00001DA6  4EBA FE04                jsr        [PC - 0x1FC /* 00001BAC */]
00001DAA  548F                     addq.l     A7, 2
00001DAC  6012                     bra        +0x14 /* 00001DC0 */
label00001DAE:
00001DAE  3F05                     move.w     -[A7], D5
00001DB0  4EBA FE6E                jsr        [PC - 0x192 /* 00001C20 */]
00001DB4  548F                     addq.l     A7, 2
00001DB6  6008                     bra        +0xA /* 00001DC0 */
label00001DB8:
00001DB8  3F05                     move.w     -[A7], D5
00001DBA  4EBA FEDC                jsr        [PC - 0x124 /* 00001C98 */]
00001DBE  548F                     addq.l     A7, 2
label00001DC0:
00001DC0  4267                     clr.w      -[A7]
00001DC2  A938                     syscall    HiliteMenu
label00001DC4:
00001DC4  4CDF 00E0                movem.l    D5,D6,D7, [A7]+
00001DC8  4E5E                     unlink     A6
00001DCA  4E75                     rts
fn00001DCC:
00001DCC  206D EEBE                movea.l    A0, [A5 - 0x1142]
00001DD0  4868 0002                pea.l      [A0 + 0x2]
00001DD4  226D EF3A                movea.l    A1, [A5 - 0x10C6]
00001DD8  4869 0002                pea.l      [A1 + 0x2]
00001DDC  486D EF32                pea.l      [A5 - 0x10CE]
00001DE0  486D EF32                pea.l      [A5 - 0x10CE]
00001DE4  4267                     clr.w      -[A7]
00001DE6  42A7                     clr.l      -[A7]
00001DE8  A8EC                     syscall    CopyBits
00001DEA  4E75                     rts
fn00001DEC:
00001DEC  4E56 FFFC                link       A6, -0x0004
00001DF0  48E7 0308                movem.l    -[A7], D6,D7,A4
00001DF4  286E 0008                movea.l    A4, [A6 + 0x8]
00001DF8  4267                     clr.w      -[A7]
00001DFA  2F2C 000A                move.l     -[A7], [A4 + 0xA]
00001DFE  486E FFFC                pea.l      [A6 - 0x4]
00001E02  A92C                     syscall    FindWindow
00001E04  3C1F                     move.w     D6, [A7]+
00001E06  3006                     move.w     D0, D6
00001E08  6700 0128                beq        +0x12A /* 00001F32 */
00001E0C  6B00 0124                bmi        +0x126 /* 00001F32 */
00001E10  5740                     subq.w     D0, 3
00001E12  6738                     beq        +0x3A /* 00001E4C */
00001E14  6A06                     bpl        +0x8 /* 00001E1C */
00001E16  5240                     addq.w     D0, 1
00001E18  6A08                     bpl        +0xA /* 00001E22 */
00001E1A  6012                     bra        +0x14 /* 00001E2E */
label00001E1C:
00001E1C  5D40                     subq.w     D0, 6
00001E1E  6000 0112                bra        +0x114 /* 00001F32 */
label00001E22:
00001E22  2F0C                     move.l     -[A7], A4
00001E24  2F2E FFFC                move.l     -[A7], [A6 - 0x4]
00001E28  A9B3                     syscall    SystemClick
00001E2A  6000 0106                bra        +0x108 /* 00001F32 */
label00001E2E:
00001E2E  42A7                     clr.l      -[A7]
00001E30  2F2C 000A                move.l     -[A7], [A4 + 0xA]
00001E34  A93D                     syscall    MenuSelect
00001E36  2E1F                     move.l     D7, [A7]+
00001E38  4A2D EF4C                tst.b      [A5 - 0x10B4]
00001E3C  6700 00F4                beq        +0xF6 /* 00001F32 */
00001E40  2F07                     move.l     -[A7], D7
00001E42  4EBA FF30                jsr        [PC - 0xD0 /* 00001D74 */]
00001E46  588F                     addq.l     A7, 4
00001E48  6000 00E8                bra        +0xEA /* 00001F32 */
label00001E4C:
00001E4C  1F3C 0001                move.b     -[A7], 0x1
00001E50  4EBA ECFC                jsr        [PC - 0x1304 /* 00000B4E */]
00001E54  4878 0003                push.l     0x3
00001E58  4EBA 1D5A                jsr        [PC + 0x1D5A /* 00003BB4 */]
00001E5C  70EC                     moveq.l    D0, 0xFFFFFFEC
00001E5E  D06C 000A                add.w      D0, [A4 + 0xA]
00001E62  3E80                     move.w     [A7], D0
00001E64  3F2C 000C                move.w     -[A7], [A4 + 0xC]
00001E68  4EBA EBF2                jsr        [PC - 0x140E /* 00000A5C */]
00001E6C  4EBA ED68                jsr        [PC - 0x1298 /* 00000BD6 */]
00001E70  4EBA 1D58                jsr        [PC + 0x1D58 /* 00003BCA */]
00001E74  4EBA ED60                jsr        [PC - 0x12A0 /* 00000BD6 */]
00001E78  7002                     moveq.l    D0, 0x02
00001E7A  2E80                     move.l     [A7], D0
00001E7C  4EBA 1D36                jsr        [PC + 0x1D36 /* 00003BB4 */]
00001E80  4EBA 1D48                jsr        [PC + 0x1D48 /* 00003BCA */]
00001E84  2EBC 0009 0064           move.l     [A7], 0x90064 /* '\t\0d' */
00001E8A  4EBA 175C                jsr        [PC + 0x175C /* 000035E8 */]
00001E8E  7003                     moveq.l    D0, 0x03
00001E90  2E80                     move.l     [A7], D0
00001E92  4EBA 1D20                jsr        [PC + 0x1D20 /* 00003BB4 */]
00001E96  70EC                     moveq.l    D0, 0xFFFFFFEC
00001E98  D06C 000A                add.w      D0, [A4 + 0xA]
00001E9C  3E80                     move.w     [A7], D0
00001E9E  3F2C 000C                move.w     -[A7], [A4 + 0xC]
00001EA2  4EBA EBB8                jsr        [PC - 0x1448 /* 00000A5C */]
00001EA6  4EBA ED2E                jsr        [PC - 0x12D2 /* 00000BD6 */]
00001EAA  4EBA 1D1E                jsr        [PC + 0x1D1E /* 00003BCA */]
00001EAE  4EBA ED26                jsr        [PC - 0x12DA /* 00000BD6 */]
00001EB2  7002                     moveq.l    D0, 0x02
00001EB4  2E80                     move.l     [A7], D0
00001EB6  4EBA 1CFC                jsr        [PC + 0x1CFC /* 00003BB4 */]
00001EBA  4EBA 1D0E                jsr        [PC + 0x1D0E /* 00003BCA */]
00001EBE  7003                     moveq.l    D0, 0x03
00001EC0  2E80                     move.l     [A7], D0
00001EC2  4EBA 1CF0                jsr        [PC + 0x1CF0 /* 00003BB4 */]
00001EC6  70EC                     moveq.l    D0, 0xFFFFFFEC
00001EC8  D06C 000A                add.w      D0, [A4 + 0xA]
00001ECC  3E80                     move.w     [A7], D0
00001ECE  3F2C 000C                move.w     -[A7], [A4 + 0xC]
00001ED2  4EBA EB88                jsr        [PC - 0x1478 /* 00000A5C */]
00001ED6  4EBA ECFE                jsr        [PC - 0x1302 /* 00000BD6 */]
00001EDA  4EBA 1CEE                jsr        [PC + 0x1CEE /* 00003BCA */]
00001EDE  4EBA ECF6                jsr        [PC - 0x130A /* 00000BD6 */]
00001EE2  7002                     moveq.l    D0, 0x02
00001EE4  2E80                     move.l     [A7], D0
00001EE6  4EBA 1CCC                jsr        [PC + 0x1CCC /* 00003BB4 */]
00001EEA  4EBA 1CDE                jsr        [PC + 0x1CDE /* 00003BCA */]
00001EEE  2EBC 0009 0064           move.l     [A7], 0x90064 /* '\t\0d' */
00001EF4  4EBA 16F2                jsr        [PC + 0x16F2 /* 000035E8 */]
00001EF8  7003                     moveq.l    D0, 0x03
00001EFA  2E80                     move.l     [A7], D0
00001EFC  4EBA 1CB6                jsr        [PC + 0x1CB6 /* 00003BB4 */]
00001F00  70EC                     moveq.l    D0, 0xFFFFFFEC
00001F02  D06C 000A                add.w      D0, [A4 + 0xA]
00001F06  3E80                     move.w     [A7], D0
00001F08  3F2C 000C                move.w     -[A7], [A4 + 0xC]
00001F0C  4EBA EB4E                jsr        [PC - 0x14B2 /* 00000A5C */]
00001F10  4EBA ECC4                jsr        [PC - 0x133C /* 00000BD6 */]
00001F14  4EBA 1CB4                jsr        [PC + 0x1CB4 /* 00003BCA */]
00001F18  4EBA ECBC                jsr        [PC - 0x1344 /* 00000BD6 */]
00001F1C  7002                     moveq.l    D0, 0x02
00001F1E  2E80                     move.l     [A7], D0
00001F20  4EBA 1C92                jsr        [PC + 0x1C92 /* 00003BB4 */]
00001F24  4EBA 1CA4                jsr        [PC + 0x1CA4 /* 00003BCA */]
00001F28  4217                     clr.b      [A7]
00001F2A  4EBA EC22                jsr        [PC - 0x13DE /* 00000B4E */]
00001F2E  4FEF 000E                lea.l      A7, [A7 + 0xE]
label00001F32:
00001F32  4CDF 10C0                movem.l    D6,D7,A4, [A7]+
00001F36  4E5E                     unlink     A6
00001F38  4E75                     rts
fn00001F3A:
00001F3A  4E56 0000                link       A6, 0
00001F3E  48E7 0308                movem.l    -[A7], D6,D7,A4
00001F42  286E 0008                movea.l    A4, [A6 + 0x8]
00001F46  7EFF                     moveq.l    D7, 0xFFFFFFFF
00001F48  CE2C 0005                and.b      D7, [A4 + 0x5]
00001F4C  082C 0000 000E           btst.b     [A4 + 0xE], 0x0
00001F52  56C6                     sne        D6
00001F54  4406                     neg.b      D6
00001F56  4A06                     tst.b      D6
00001F58  671C                     beq        +0x1E /* 00001F76 */
00001F5A  4A2D EF4C                tst.b      [A5 - 0x10B4]
00001F5E  6700 00F0                beq        +0xF2 /* 00002050 */
00001F62  42A7                     clr.l      -[A7]
00001F64  1007                     move.b     D0, D7
00001F66  4880                     ext.w      D0
00001F68  3F00                     move.w     -[A7], D0
00001F6A  A93E                     syscall    MenuKey
00001F6C  4EBA FE06                jsr        [PC - 0x1FA /* 00001D74 */]
00001F70  588F                     addq.l     A7, 4
00001F72  6000 00DC                bra        +0xDE /* 00002050 */
label00001F76:
00001F76  4A2D EF17                tst.b      [A5 - 0x10E9]
00001F7A  6700 009A                beq        +0x9C /* 00002016 */
00001F7E  0C07 001E                cmpi.b     D7, 0x1E
00001F82  6622                     bne        +0x24 /* 00001FA6 */
00001F84  0C54 0005                cmpi.w     [A4], 0x5
00001F88  660E                     bne        +0x10 /* 00001F98 */
00001F8A  3F3C FFFD                move.w     -[A7], 0xFFFD
00001F8E  4EBA E248                jsr        [PC - 0x1DB8 /* 000001D8 */]
00001F92  548F                     addq.l     A7, 2
00001F94  6000 00BA                bra        +0xBC /* 00002050 */
label00001F98:
00001F98  3F3C FFFF                move.w     -[A7], 0xFFFF
00001F9C  4EBA E23A                jsr        [PC - 0x1DC6 /* 000001D8 */]
00001FA0  548F                     addq.l     A7, 2
00001FA2  6000 00AC                bra        +0xAE /* 00002050 */
label00001FA6:
00001FA6  0C07 001F                cmpi.b     D7, 0x1F
00001FAA  6622                     bne        +0x24 /* 00001FCE */
00001FAC  0C54 0005                cmpi.w     [A4], 0x5
00001FB0  660E                     bne        +0x10 /* 00001FC0 */
00001FB2  3F3C 0003                move.w     -[A7], 0x3
00001FB6  4EBA E220                jsr        [PC - 0x1DE0 /* 000001D8 */]
00001FBA  548F                     addq.l     A7, 2
00001FBC  6000 0092                bra        +0x94 /* 00002050 */
label00001FC0:
00001FC0  3F3C 0001                move.w     -[A7], 0x1
00001FC4  4EBA E212                jsr        [PC - 0x1DEE /* 000001D8 */]
00001FC8  548F                     addq.l     A7, 2
00001FCA  6000 0084                bra        +0x86 /* 00002050 */
label00001FCE:
00001FCE  0C07 000C                cmpi.b     D7, 0xC
00001FD2  660C                     bne        +0xE /* 00001FE0 */
00001FD4  3F3C 00C7                move.w     -[A7], 0xC7
00001FD8  4EBA E1FE                jsr        [PC - 0x1E02 /* 000001D8 */]
00001FDC  548F                     addq.l     A7, 2
00001FDE  6070                     bra        +0x72 /* 00002050 */
label00001FE0:
00001FE0  0C07 000B                cmpi.b     D7, 0xB
00001FE4  660C                     bne        +0xE /* 00001FF2 */
00001FE6  3F3C FF39                move.w     -[A7], 0xFF39
00001FEA  4EBA E1EC                jsr        [PC - 0x1E14 /* 000001D8 */]
00001FEE  548F                     addq.l     A7, 2
00001FF0  605E                     bra        +0x60 /* 00002050 */
label00001FF2:
00001FF2  0C07 0005                cmpi.b     D7, 0x5
00001FF6  6658                     bne        +0x5A /* 00002050 */
00001FF8  4A2D F49E                tst.b      [A5 - 0xB62]
00001FFC  6652                     bne        +0x54 /* 00002050 */
00001FFE  4EBA E2FE                jsr        [PC - 0x1D02 /* 000002FE */]
00002002  422D EF17                clr.b      [A5 - 0x10E9]
00002006  2F2D EF46                move.l     -[A7], [A5 - 0x10BA]
0000200A  3F3C 0002                move.w     -[A7], 0x2
0000200E  1F2D EF17                move.b     -[A7], [A5 - 0x10E9]
00002012  A945                     syscall    CheckItem
00002014  603A                     bra        +0x3C /* 00002050 */
label00002016:
00002016  0C07 0005                cmpi.b     D7, 0x5
0000201A  6634                     bne        +0x36 /* 00002050 */
0000201C  4A2D F49E                tst.b      [A5 - 0xB62]
00002020  662E                     bne        +0x30 /* 00002050 */
00002022  4A2D EF18                tst.b      [A5 - 0x10E8]
00002026  6716                     beq        +0x18 /* 0000203E */
00002028  4EBA E2D4                jsr        [PC - 0x1D2C /* 000002FE */]
0000202C  422D EF18                clr.b      [A5 - 0x10E8]
00002030  2F2D EF46                move.l     -[A7], [A5 - 0x10BA]
00002034  3F3C 0003                move.w     -[A7], 0x3
00002038  1F2D EF18                move.b     -[A7], [A5 - 0x10E8]
0000203C  A945                     syscall    CheckItem
label0000203E:
0000203E  4EBA E1FC                jsr        [PC - 0x1E04 /* 0000023C */]
00002042  2F2D EF46                move.l     -[A7], [A5 - 0x10BA]
00002046  3F3C 0002                move.w     -[A7], 0x2
0000204A  1F2D EF17                move.b     -[A7], [A5 - 0x10E9]
0000204E  A945                     syscall    CheckItem
label00002050:
00002050  4CDF 10C0                movem.l    D6,D7,A4, [A7]+
00002054  4E5E                     unlink     A6
00002056  4E75                     rts
fn00002058:
00002058  4E56 0000                link       A6, 0
0000205C  206E 0008                movea.l    A0, [A6 + 0x8]
00002060  2028 0002                move.l     D0, [A0 + 0x2]
00002064  B0AD EF3A                cmp.l      D0, [A5 - 0x10C6]
00002068  661C                     bne        +0x1E /* 00002086 */
0000206A  2F2D EF3A                move.l     -[A7], [A5 - 0x10C6]
0000206E  A873                     syscall    SetPort
00002070  2F2D EF3A                move.l     -[A7], [A5 - 0x10C6]
00002074  A922                     syscall    BeginUpdate
00002076  4EBA FD54                jsr        [PC - 0x2AC /* 00001DCC */]
0000207A  2F2D EF3A                move.l     -[A7], [A5 - 0x10C6]
0000207E  A923                     syscall    EndUpdate
00002080  1B7C 0001 EF4C           move.b     [A5 - 0x10B4], 0x1
label00002086:
00002086  4E5E                     unlink     A6
00002088  4E75                     rts
fn0000208A:
0000208A  4E56 0000                link       A6, 0
0000208E  206E 0008                movea.l    A0, [A6 + 0x8]
00002092  0828 0000 0002           btst.b     [A0 + 0x2], 0x0
00002098  6718                     beq        +0x1A /* 000020B2 */
0000209A  206E 0008                movea.l    A0, [A6 + 0x8]
0000209E  0828 0000 0005           btst.b     [A0 + 0x5], 0x0
000020A4  6706                     beq        +0x8 /* 000020AC */
000020A6  422D EF4A                clr.b      [A5 - 0x10B6]
000020AA  6006                     bra        +0x8 /* 000020B2 */
label000020AC:
000020AC  1B7C 0001 EF4A           move.b     [A5 - 0x10B6], 0x1
label000020B2:
000020B2  4E5E                     unlink     A6
000020B4  4E75                     rts
fn000020B6:
000020B6  4E56 0000                link       A6, 0
000020BA  4E5E                     unlink     A6
000020BC  4E75                     rts
fn000020BE:
000020BE  4E56 FFF0                link       A6, -0x0010
000020C2  48E7 0300                movem.l    -[A7], D6,D7
000020C6  7E01                     moveq.l    D7, 0x01
000020C8  4227                     clr.b      -[A7]
000020CA  3F3C FFFF                move.w     -[A7], 0xFFFF
000020CE  486E FFF0                pea.l      [A6 - 0x10]
000020D2  2F07                     move.l     -[A7], D7
000020D4  42A7                     clr.l      -[A7]
000020D6  A860                     syscall    WaitNextEvent
000020D8  1C1F                     move.b     D6, [A7]+
000020DA  4A06                     tst.b      D6
000020DC  6752                     beq        +0x54 /* 00002130 */
000020DE  302E FFF0                move.w     D0, [A6 - 0x10]
000020E2  0C40 0017                cmpi.w     D0, 0x17
000020E6  6256                     bhi        +0x58 /* 0000213E */
000020E8  43FA 005C                lea.l      A1, [PC + 0x5C /* 00002146, value 0xFFF8FFAE */]
000020EC  D040                     add.w      D0, D0
000020EE  D2F1 0000                add.w      A1, [A1 + D0.w]
000020F2  4ED1                     jmp        [A1]
000020F4  486E FFF0                pea.l      [A6 - 0x10]
000020F8  4EBA FCF2                jsr        [PC - 0x30E /* 00001DEC */]
000020FC  588F                     addq.l     A7, 4
000020FE  603E                     bra        +0x40 /* 0000213E */
00002100  486E FFF0                pea.l      [A6 - 0x10]
00002104  4EBA FE34                jsr        [PC - 0x1CC /* 00001F3A */]
00002108  588F                     addq.l     A7, 4
0000210A  6032                     bra        +0x34 /* 0000213E */
0000210C  486E FFF0                pea.l      [A6 - 0x10]
00002110  4EBA FF46                jsr        [PC - 0xBA /* 00002058 */]
00002114  588F                     addq.l     A7, 4
00002116  6026                     bra        +0x28 /* 0000213E */
00002118  486E FFF0                pea.l      [A6 - 0x10]
0000211C  4EBA FF6C                jsr        [PC - 0x94 /* 0000208A */]
00002120  588F                     addq.l     A7, 4
00002122  601A                     bra        +0x1C /* 0000213E */
00002124  486E FFF0                pea.l      [A6 - 0x10]
00002128  4EBA FF8C                jsr        [PC - 0x74 /* 000020B6 */]
0000212C  588F                     addq.l     A7, 4
0000212E  600E                     bra        +0x10 /* 0000213E */
label00002130:
00002130  4A2D EF4D                tst.b      [A5 - 0x10B3]
00002134  6708                     beq        +0xA /* 0000213E */
00002136  422D EF4D                clr.b      [A5 - 0x10B3]
0000213A  4EBA E230                jsr        [PC - 0x1DD0 /* 0000036C */]
label0000213E:
0000213E  4CDF 00C0                movem.l    D6,D7, [A7]+
00002142  4E5E                     unlink     A6
00002144  4E75                     rts
00002146  FFF8                     .invalid   <<F/7/7>>
00002148  FFAE                     .invalid   <<F/6/7>>
0000214A  FFF8                     .invalid   <<F/7/7>>
0000214C  FFBA                     .invalid   <<F/6/7>>
0000214E  FFF8                     .invalid   <<F/7/7>>
00002150  FFBA                     .invalid   <<F/6/7>>
00002152  FFC6                     .invalid   <<F/7/7>>
00002154  FFF8                     .invalid   <<F/7/7>>
00002156  FFF8                     .invalid   <<F/7/7>>
00002158  FFF8                     .invalid   <<F/7/7>>
0000215A  FFF8                     .invalid   <<F/7/7>>
0000215C  FFF8                     .invalid   <<F/7/7>>
0000215E  FFF8                     .invalid   <<F/7/7>>
00002160  FFF8                     .invalid   <<F/7/7>>
00002162  FFF8                     .invalid   <<F/7/7>>
00002164  FFD2                     .invalid   <<F/7/7>>
00002166  FFF8                     .invalid   <<F/7/7>>
00002168  FFF8                     .invalid   <<F/7/7>>
0000216A  FFF8                     .invalid   <<F/7/7>>
0000216C  FFF8                     .invalid   <<F/7/7>>
0000216E  FFF8                     .invalid   <<F/7/7>>
00002170  FFF8                     .invalid   <<F/7/7>>
00002172  FFF8                     .invalid   <<F/7/7>>
00002174  FFDE                     .invalid   <<F/7/7>>
fn00002176:
00002176  4E56 FFF8                link       A6, -0x0008
0000217A  2F0C                     move.l     -[A7], A4
0000217C  486E FFF8                pea.l      [A6 - 0x8]
00002180  42A7                     clr.l      -[A7]
00002182  2F3C 013E 0145           move.l     -[A7], 0x13E0145
00002188  A8A7                     syscall    SetRect
0000218A  486D FF88                pea.l      [A5 - 0x78]
0000218E  486E FFF8                pea.l      [A6 - 0x8]
00002192  4EBA 1B50                jsr        [PC + 0x1B50 /* 00003CE4 */]
00002196  4297                     clr.l      [A7]
00002198  3F3C 0081                move.w     -[A7], 0x81
0000219C  42A7                     clr.l      -[A7]
0000219E  4878 FFFF                push.l     0xFFFF
000021A2  AA46                     syscall    GetNewCWindow
000021A4  285F                     movea.l    A4, [A7]+
000021A6  2E8C                     move.l     [A7], A4
000021A8  3F2E FFFA                move.w     -[A7], [A6 - 0x6]
000021AC  3F2E FFF8                move.w     -[A7], [A6 - 0x8]
000021B0  1F3C 0001                move.b     -[A7], 0x1
000021B4  A91B                     syscall    MoveWindow
000021B6  2F0C                     move.l     -[A7], A4
000021B8  A915                     syscall    ShowWindow
000021BA  2F0C                     move.l     -[A7], A4
000021BC  A873                     syscall    SetPort
000021BE  3F3C 0084                move.w     -[A7], 0x84
000021C2  4EBA 176E                jsr        [PC + 0x176E /* 00003932 */]
000021C6  548F                     addq.l     A7, 2
label000021C8:
000021C8  4227                     clr.b      -[A7]
000021CA  A974                     syscall    Button
000021CC  4A1F                     tst.b      [A7]+
000021CE  66F8                     bne        -0x6 /* 000021C8 */
label000021D0:
000021D0  4227                     clr.b      -[A7]
000021D2  A974                     syscall    Button
000021D4  4A1F                     tst.b      [A7]+
000021D6  67F8                     beq        -0x6 /* 000021D0 */
000021D8  2F3C 0000 FFFF           move.l     -[A7], 0xFFFF
000021DE  201F                     move.l     D0, [A7]+
000021E0  A032                     syscall    FlushEvents
000021E2  200C                     move.l     D0, A4
000021E4  6704                     beq        +0x6 /* 000021EA */
000021E6  2F0C                     move.l     -[A7], A4
000021E8  A914                     syscall    DisposeWindow
label000021EA:
000021EA  285F                     movea.l    A4, [A7]+
000021EC  4E5E                     unlink     A6
000021EE  4E75                     rts
fn000021F0:
000021F0  4E56 FFFA                link       A6, -0x0006
000021F4  48E7 0308                movem.l    -[A7], D6,D7,A4
000021F8  3F3C 0085                move.w     -[A7], 0x85
000021FC  4EBA 1B8A                jsr        [PC + 0x1B8A /* 00003D88 */]
00002200  42A7                     clr.l      -[A7]
00002202  3F3C 0085                move.w     -[A7], 0x85
00002206  42A7                     clr.l      -[A7]
00002208  4878 FFFF                push.l     0xFFFF
0000220C  A97C                     syscall    GetNewDialog
0000220E  285F                     movea.l    A4, [A7]+
00002210  2F0C                     move.l     -[A7], A4
00002212  A873                     syscall    SetPort
00002214  2F0C                     move.l     -[A7], A4
00002216  A915                     syscall    ShowWindow
00002218  2F0C                     move.l     -[A7], A4
0000221A  4EBA 1C16                jsr        [PC + 0x1C16 /* 00003E32 */]
0000221E  2EBC 0000 FFFF           move.l     [A7], 0xFFFF
00002224  201F                     move.l     D0, [A7]+
00002226  A032                     syscall    FlushEvents
00002228  306D F158                movea.w    A0, [A5 - 0xEA8]
0000222C  2F08                     move.l     -[A7], A0
0000222E  3F3C 0003                move.w     -[A7], 0x3
00002232  2F0C                     move.l     -[A7], A4
00002234  4EBA 1CC6                jsr        [PC + 0x1CC6 /* 00003EFC */]
00002238  2E8C                     move.l     [A7], A4
0000223A  4878 0003                push.l     0x3
0000223E  3F3C 0400                move.w     -[A7], 0x400
00002242  A97E                     syscall    SelectDialogItemText/SelIText
00002244  7C00                     moveq.l    D6, 0x00
00002246  508F                     addq.l     A7, 8
00002248  6000 00C0                bra        +0xC2 /* 0000230A */
label0000224C:
0000224C  42A7                     clr.l      -[A7]
0000224E  486E FFFA                pea.l      [A6 - 0x6]
00002252  A991                     syscall    ModalDialog
00002254  0C6E 0001 FFFA           cmpi.w     [A6 - 0x6], 0x1
0000225A  6658                     bne        +0x5A /* 000022B4 */
0000225C  486E FFFC                pea.l      [A6 - 0x4]
00002260  3F3C 0003                move.w     -[A7], 0x3
00002264  2F0C                     move.l     -[A7], A4
00002266  4EBA 1CC8                jsr        [PC + 0x1CC8 /* 00003F30 */]
0000226A  4AAE FFFC                tst.l      [A6 - 0x4]
0000226E  4FEF 000A                lea.l      A7, [A7 + 0xA]
00002272  6D1A                     blt        +0x1C /* 0000228E */
00002274  7007                     moveq.l    D0, 0x07
00002276  B0AE FFFC                cmp.l      D0, [A6 - 0x4]
0000227A  6D12                     blt        +0x14 /* 0000228E */
0000227C  3B6E FFFE F158           move.w     [A5 - 0xEA8], [A6 - 0x2]
00002282  3F2E FFFE                move.w     -[A7], [A6 - 0x2]
00002286  4EAD 0132                jsr        [A5 + 0x132 /* export_34, CODE:4 @ 0000267C */]
0000228A  7C01                     moveq.l    D6, 0x01
0000228C  607C                     bra        +0x7E /* 0000230A */
label0000228E:
0000228E  3F3C 0001                move.w     -[A7], 0x1
00002292  A9C8                     syscall    SysBeep
00002294  306D F158                movea.w    A0, [A5 - 0xEA8]
00002298  2F08                     move.l     -[A7], A0
0000229A  3F3C 0003                move.w     -[A7], 0x3
0000229E  2F0C                     move.l     -[A7], A4
000022A0  4EBA 1C5A                jsr        [PC + 0x1C5A /* 00003EFC */]
000022A4  2E8C                     move.l     [A7], A4
000022A6  4878 0003                push.l     0x3
000022AA  3F3C 0400                move.w     -[A7], 0x400
000022AE  A97E                     syscall    SelectDialogItemText/SelIText
000022B0  5C8F                     addq.l     A7, 6
000022B2  6056                     bra        +0x58 /* 0000230A */
label000022B4:
000022B4  0C6E 0002 FFFA           cmpi.w     [A6 - 0x6], 0x2
000022BA  664E                     bne        +0x50 /* 0000230A */
000022BC  7E00                     moveq.l    D7, 0x00
000022BE  6038                     bra        +0x3A /* 000022F8 */
label000022C0:
000022C0  2007                     move.l     D0, D7
000022C2  48C0                     ext.l      D0
000022C4  E988                     lsl        D0, 4
000022C6  204D                     movea.l    A0, A5
000022C8  D1C0                     add.l      A0, D0
000022CA  4868 F07C                pea.l      [A0 - 0xF84]
000022CE  486D EF72                pea.l      [A5 - 0x108E]
000022D2  4EBA 1A74                jsr        [PC + 0x1A74 /* 00003D48 */]
000022D6  204D                     movea.l    A0, A5
000022D8  2007                     move.l     D0, D7
000022DA  48C0                     ext.l      D0
000022DC  E588                     lsl        D0, 2
000022DE  D1C0                     add.l      A0, D0
000022E0  42A8 F11C                clr.l      [A0 - 0xEE4]
000022E4  204D                     movea.l    A0, A5
000022E6  D0C7                     add.w      A0, D7
000022E8  D0C7                     add.w      A0, D7
000022EA  4268 F144                clr.w      [A0 - 0xEBC]
000022EE  1B7C 0001 EF4D           move.b     [A5 - 0x10B3], 0x1
000022F4  508F                     addq.l     A7, 8
000022F6  5247                     addq.w     D7, 1
label000022F8:
000022F8  0C47 000A                cmpi.w     D7, 0xA /* '\n' */
000022FC  6DC2                     blt        -0x3C /* 000022C0 */
000022FE  3F3C 0002                move.w     -[A7], 0x2
00002302  2F0C                     move.l     -[A7], A4
00002304  4EBA 1C5E                jsr        [PC + 0x1C5E /* 00003F64 */]
00002308  5C8F                     addq.l     A7, 6
label0000230A:
0000230A  4A06                     tst.b      D6
0000230C  6700 FF3E                beq        -0xC0 /* 0000224C */
00002310  2F0C                     move.l     -[A7], A4
00002312  A983                     syscall    DisposeDialog
00002314  4CDF 10C0                movem.l    D6,D7,A4, [A7]+
00002318  4E5E                     unlink     A6
0000231A  4E75                     rts
fn0000231C:
0000231C  2F07                     move.l     -[A7], D7
0000231E  3F3C 0001                move.w     -[A7], 0x1
00002322  486D EF78                pea.l      [A5 - 0x1088]
00002326  4EAD 01A2                jsr        [A5 + 0x1A2 /* export_48, CODE:5 @ 00000640 */]
0000232A  4A00                     tst.b      D0
0000232C  5C8F                     addq.l     A7, 6
0000232E  670A                     beq        +0xC /* 0000233A */
00002330  3F2D F158                move.w     -[A7], [A5 - 0xEA8]
00002334  4EAD 0132                jsr        [A5 + 0x132 /* export_34, CODE:4 @ 0000267C */]
00002338  605E                     bra        +0x60 /* 00002398 */
label0000233A:
0000233A  3B7C 0001 EF78           move.w     [A5 - 0x1088], 0x1
00002340  426D EF7A                clr.w      [A5 - 0x1086]
00002344  486D EF7C                pea.l      [A5 - 0x1084]
00002348  486D F15C                pea.l      [A5 - 0xEA4]
0000234C  4EBA 19FA                jsr        [PC + 0x19FA /* 00003D48 */]
00002350  7E00                     moveq.l    D7, 0x00
00002352  508F                     addq.l     A7, 8
00002354  6032                     bra        +0x34 /* 00002388 */
label00002356:
00002356  2007                     move.l     D0, D7
00002358  48C0                     ext.l      D0
0000235A  E988                     lsl        D0, 4
0000235C  204D                     movea.l    A0, A5
0000235E  D1C0                     add.l      A0, D0
00002360  4868 F07C                pea.l      [A0 - 0xF84]
00002364  486D F166                pea.l      [A5 - 0xE9A]
00002368  4EBA 19DE                jsr        [PC + 0x19DE /* 00003D48 */]
0000236C  204D                     movea.l    A0, A5
0000236E  2007                     move.l     D0, D7
00002370  48C0                     ext.l      D0
00002372  E588                     lsl        D0, 2
00002374  D1C0                     add.l      A0, D0
00002376  42A8 F11C                clr.l      [A0 - 0xEE4]
0000237A  204D                     movea.l    A0, A5
0000237C  D0C7                     add.w      A0, D7
0000237E  D0C7                     add.w      A0, D7
00002380  4268 F144                clr.w      [A0 - 0xEBC]
00002384  508F                     addq.l     A7, 8
00002386  5247                     addq.w     D7, 1
label00002388:
00002388  0C47 000A                cmpi.w     D7, 0xA /* '\n' */
0000238C  6DC8                     blt        -0x36 /* 00002356 */
0000238E  41ED F158                lea.l      A0, [A5 - 0xEA8]
00002392  4218                     clr.b      [A0]+
00002394  10B8 0260                move.b     [A0], [0x00000260 /* SdVolume */]
label00002398:
00002398  41ED F15A                lea.l      A0, [A5 - 0xEA6]
0000239C  4218                     clr.b      [A0]+
0000239E  10B8 0260                move.b     [A0], [0x00000260 /* SdVolume */]
000023A2  2E1F                     move.l     D7, [A7]+
000023A4  4E75                     rts
fn000023A6:
000023A6  3F3C 0001                move.w     -[A7], 0x1
000023AA  486D EF78                pea.l      [A5 - 0x1088]
000023AE  4EAD 019A                jsr        [A5 + 0x19A /* export_47, CODE:5 @ 000003B2 */]
000023B2  4A00                     tst.b      D0
000023B4  5C8F                     addq.l     A7, 6
000023B6  6606                     bne        +0x8 /* 000023BE */
000023B8  3F3C 0001                move.w     -[A7], 0x1
000023BC  A9C8                     syscall    SysBeep
label000023BE:
000023BE  3F2D F15A                move.w     -[A7], [A5 - 0xEA6]
000023C2  4EAD 0132                jsr        [A5 + 0x132 /* export_34, CODE:4 @ 0000267C */]
000023C6  4E75                     rts
export_12:
000023C8  2F07                     move.l     -[A7], D7
000023CA  4EAD 01AA                jsr        [A5 + 0x1AA /* export_49, CODE:6 @ 00000000 */]
000023CE  4EAD 01B2                jsr        [A5 + 0x1B2 /* export_50, CODE:6 @ 0000015A */]
000023D2  4EAD 01BA                jsr        [A5 + 0x1BA /* export_51, CODE:6 @ 000001B4 */]
000023D6  4EAD 01CA                jsr        [A5 + 0x1CA /* export_53, CODE:6 @ 000002C8 */]
000023DA  4EBA 147C                jsr        [PC + 0x147C /* 00003858 */]
000023DE  4EAD 01C2                jsr        [A5 + 0x1C2 /* export_52, CODE:6 @ 0000024C */]
000023E2  4EBA FF38                jsr        [PC - 0xC8 /* 0000231C */]
label000023E6:
000023E6  4EBA FCD6                jsr        [PC - 0x32A /* 000020BE */]
000023EA  4A2D F49E                tst.b      [A5 - 0xB62]
000023EE  670C                     beq        +0xE /* 000023FC */
000023F0  4A2D F49F                tst.b      [A5 - 0xB61]
000023F4  6606                     bne        +0x8 /* 000023FC */
000023F6  4EBA 0E86                jsr        [PC + 0xE86 /* 0000327E */]
000023FA  6024                     bra        +0x26 /* 00002420 */
label000023FC:
000023FC  42A7                     clr.l      -[A7]
000023FE  A975                     syscall    TickCount
00002400  7E02                     moveq.l    D7, 0x02
00002402  DE9F                     add.l      D7, [A7]+
00002404  4A2D F4A1                tst.b      [A5 - 0xB5F]
00002408  57C0                     seq        D0
0000240A  4400                     neg.b      D0
0000240C  1B40 F4A1                move.b     [A5 - 0xB5F], D0
00002410  4EBA EC94                jsr        [PC - 0x136C /* 000010A6 */]
00002414  4EBA EDD4                jsr        [PC - 0x122C /* 000011EA */]
label00002418:
00002418  42A7                     clr.l      -[A7]
0000241A  A975                     syscall    TickCount
0000241C  BE9F                     cmp.l      D7, [A7]+
0000241E  62F8                     bhi        -0x6 /* 00002418 */
label00002420:
00002420  4A2D EF4B                tst.b      [A5 - 0x10B5]
00002424  67C0                     beq        -0x3E /* 000023E6 */
00002426  4EBA 1474                jsr        [PC + 0x1474 /* 0000389C */]
0000242A  4EAD 01D2                jsr        [A5 + 0x1D2 /* export_54, CODE:6 @ 00000C8C */]
0000242E  4EBA FF76                jsr        [PC - 0x8A /* 000023A6 */]
00002432  2E1F                     move.l     D7, [A7]+
00002434  4E75                     rts
fn00002436:
00002436  426D F49C                clr.w      [A5 - 0xB64]
0000243A  3B7C 0003 F48C           move.w     [A5 - 0xB74], 0x3
00002440  3B7C 0001 F48E           move.w     [A5 - 0xB72], 0x1
00002446  426D F490                clr.w      [A5 - 0xB70]
0000244A  3B7C 0005 F492           move.w     [A5 - 0xB6E], 0x5
00002450  42AD F484                clr.l      [A5 - 0xB7C]
00002454  1B7C 0001 F49E           move.b     [A5 - 0xB62], 0x1
0000245A  422D F49F                clr.b      [A5 - 0xB61]
0000245E  1B7C 0001 F4A1           move.b     [A5 - 0xB5F], 0x1
00002464  42AD F488                clr.l      [A5 - 0xB78]
00002468  3B7C 0004 EA2C           move.w     [A5 - 0x15D4], 0x4
0000246E  426D EF12                clr.w      [A5 - 0x10EE]
00002472  426D EF14                clr.w      [A5 - 0x10EC]
00002476  4EAD 0172                jsr        [A5 + 0x172 /* export_42, CODE:4 @ 000019AA */]
0000247A  3B7C 000A EA0A           move.w     [A5 - 0x15F6], 0xA /* '\n' */
00002480  4EBA 0022                jsr        [PC + 0x22 /* 000024A4 */]
00002484  4EBA E818                jsr        [PC - 0x17E8 /* 00000C9E */]
00002488  4EBA E138                jsr        [PC - 0x1EC8 /* 000005C2 */]
0000248C  4EBA E200                jsr        [PC - 0x1E00 /* 0000068E */]
00002490  4EBA E48C                jsr        [PC - 0x1B74 /* 0000091E */]
00002494  4EAD 0162                jsr        [A5 + 0x162 /* export_40, CODE:4 @ 00000456 */]
00002498  1F3C 0001                move.b     -[A7], 0x1
0000249C  4EBA 0144                jsr        [PC + 0x144 /* 000025E2 */]
000024A0  548F                     addq.l     A7, 2
000024A2  4E75                     rts
fn000024A4:
000024A4  48E7 0300                movem.l    -[A7], D6,D7
000024A8  4EAD 0182                jsr        [A5 + 0x182 /* export_44, CODE:4 @ 00001B86 */]
000024AC  3E2D F48C                move.w     D7, [A5 - 0xB74]
000024B0  3C2D F490                move.w     D6, [A5 - 0xB70]
000024B4  48C6                     ext.l      D6
000024B6  8DFC 0005                divs.w     D6, 0x5
000024BA  4846                     swap.w     D6
000024BC  3006                     move.w     D0, D6
000024BE  6714                     beq        +0x16 /* 000024D4 */
000024C0  6B38                     bmi        +0x3A /* 000024FA */
000024C2  5740                     subq.w     D0, 3
000024C4  6726                     beq        +0x28 /* 000024EC */
000024C6  6A06                     bpl        +0x8 /* 000024CE */
000024C8  5240                     addq.w     D0, 1
000024CA  6A18                     bpl        +0x1A /* 000024E4 */
000024CC  600E                     bra        +0x10 /* 000024DC */
label000024CE:
000024CE  5540                     subq.w     D0, 2
000024D0  6A28                     bpl        +0x2A /* 000024FA */
000024D2  6020                     bra        +0x22 /* 000024F4 */
label000024D4:
000024D4  3B7C 0005 F48C           move.w     [A5 - 0xB74], 0x5
000024DA  601E                     bra        +0x20 /* 000024FA */
label000024DC:
000024DC  3B7C 0006 F48C           move.w     [A5 - 0xB74], 0x6
000024E2  6016                     bra        +0x18 /* 000024FA */
label000024E4:
000024E4  3B7C 0005 F48C           move.w     [A5 - 0xB74], 0x5
000024EA  600E                     bra        +0x10 /* 000024FA */
label000024EC:
000024EC  3B7C 0003 F48C           move.w     [A5 - 0xB74], 0x3
000024F2  6006                     bra        +0x8 /* 000024FA */
label000024F4:
000024F4  3B7C 0006 F48C           move.w     [A5 - 0xB74], 0x6
label000024FA:
000024FA  BE6D F48C                cmp.w      D7, [A5 - 0xB74]
000024FE  670A                     beq        +0xC /* 0000250A */
00002500  3F2D F48C                move.w     -[A7], [A5 - 0xB74]
00002504  4EBA DAFA                jsr        [PC - 0x2506 /* 00000000 */]
00002508  548F                     addq.l     A7, 2
label0000250A:
0000250A  1F3C 0001                move.b     -[A7], 0x1
0000250E  4EBA E63E                jsr        [PC - 0x19C2 /* 00000B4E */]
00002512  2F3C 0140 01AD           move.l     -[A7], 0x14001AD
00002518  4EBA E542                jsr        [PC - 0x1ABE /* 00000A5C */]
0000251C  4EBA E6B8                jsr        [PC - 0x1948 /* 00000BD6 */]
00002520  7002                     moveq.l    D0, 0x02
00002522  2E80                     move.l     [A7], D0
00002524  4EBA 168E                jsr        [PC + 0x168E /* 00003BB4 */]
00002528  4EBA 16A0                jsr        [PC + 0x16A0 /* 00003BCA */]
0000252C  4EBA E6A8                jsr        [PC - 0x1958 /* 00000BD6 */]
00002530  2EBC 005F 0121           move.l     [A7], 0x5F0121
00002536  4EBA E524                jsr        [PC - 0x1ADC /* 00000A5C */]
0000253A  4EBA E69A                jsr        [PC - 0x1966 /* 00000BD6 */]
0000253E  7002                     moveq.l    D0, 0x02
00002540  2E80                     move.l     [A7], D0
00002542  4EBA 1670                jsr        [PC + 0x1670 /* 00003BB4 */]
00002546  4EBA 1682                jsr        [PC + 0x1682 /* 00003BCA */]
0000254A  4EBA E68A                jsr        [PC - 0x1976 /* 00000BD6 */]
0000254E  2EBC 005F 006E           move.l     [A7], 0x5F006E /* '_\0n' */
00002554  4EBA E506                jsr        [PC - 0x1AFA /* 00000A5C */]
00002558  4EBA E67C                jsr        [PC - 0x1984 /* 00000BD6 */]
0000255C  7002                     moveq.l    D0, 0x02
0000255E  2E80                     move.l     [A7], D0
00002560  4EBA 1652                jsr        [PC + 0x1652 /* 00003BB4 */]
00002564  4EBA 1664                jsr        [PC + 0x1664 /* 00003BCA */]
00002568  4EBA E66C                jsr        [PC - 0x1994 /* 00000BD6 */]
0000256C  2EBC 0140 00C3           move.l     [A7], 0x14000C3
00002572  4EBA E4E8                jsr        [PC - 0x1B18 /* 00000A5C */]
00002576  4EBA E65E                jsr        [PC - 0x19A2 /* 00000BD6 */]
0000257A  7002                     moveq.l    D0, 0x02
0000257C  2E80                     move.l     [A7], D0
0000257E  4EBA 1634                jsr        [PC + 0x1634 /* 00003BB4 */]
00002582  4EBA 1646                jsr        [PC + 0x1646 /* 00003BCA */]
00002586  4EBA E64E                jsr        [PC - 0x19B2 /* 00000BD6 */]
0000258A  2EBC 0221 006E           move.l     [A7], 0x221006E
00002590  4EBA E4CA                jsr        [PC - 0x1B36 /* 00000A5C */]
00002594  4EBA E640                jsr        [PC - 0x19C0 /* 00000BD6 */]
00002598  7002                     moveq.l    D0, 0x02
0000259A  2E80                     move.l     [A7], D0
0000259C  4EBA 1616                jsr        [PC + 0x1616 /* 00003BB4 */]
000025A0  4EBA 1628                jsr        [PC + 0x1628 /* 00003BCA */]
000025A4  4EBA E630                jsr        [PC - 0x19D0 /* 00000BD6 */]
000025A8  2EBC 0221 0121           move.l     [A7], 0x2210121
000025AE  4EBA E4AC                jsr        [PC - 0x1B54 /* 00000A5C */]
000025B2  4EBA E622                jsr        [PC - 0x19DE /* 00000BD6 */]
000025B6  7002                     moveq.l    D0, 0x02
000025B8  2E80                     move.l     [A7], D0
000025BA  4EBA 15F8                jsr        [PC + 0x15F8 /* 00003BB4 */]
000025BE  4EBA 160A                jsr        [PC + 0x160A /* 00003BCA */]
000025C2  4EBA E612                jsr        [PC - 0x19EE /* 00000BD6 */]
000025C6  4217                     clr.b      [A7]
000025C8  4EBA E584                jsr        [PC - 0x1A7C /* 00000B4E */]
000025CC  2EBC 0009 0064           move.l     [A7], 0x90064 /* '\t\0d' */
000025D2  4EBA 1014                jsr        [PC + 0x1014 /* 000035E8 */]
000025D6  4EBA E346                jsr        [PC - 0x1CBA /* 0000091E */]
000025DA  5C8F                     addq.l     A7, 6
000025DC  4CDF 00C0                movem.l    D6,D7, [A7]+
000025E0  4E75                     rts
fn000025E2:
000025E2  4E56 0000                link       A6, 0
000025E6  2F07                     move.l     -[A7], D7
000025E8  3B7C 0005 F190           move.w     [A5 - 0xE70], 0x5
000025EE  3B7C 0140 F194           move.w     [A5 - 0xE6C], 0x140
000025F4  4A2E 0008                tst.b      [A6 + 0x8]
000025F8  6704                     beq        +0x6 /* 000025FE */
000025FA  7E00                     moveq.l    D7, 0x00
000025FC  600C                     bra        +0xE /* 0000260A */
label000025FE:
000025FE  3F2D F48C                move.w     -[A7], [A5 - 0xB74]
00002602  4EBA 12AA                jsr        [PC + 0x12AA /* 000038AE */]
00002606  3E00                     move.w     D7, D0
00002608  548F                     addq.l     A7, 2
label0000260A:
0000260A  3007                     move.w     D0, D7
0000260C  6716                     beq        +0x18 /* 00002624 */
0000260E  6B66                     bmi        +0x68 /* 00002676 */
00002610  5940                     subq.w     D0, 4
00002612  6748                     beq        +0x4A /* 0000265C */
00002614  6A08                     bpl        +0xA /* 0000261E */
00002616  5440                     addq.w     D0, 2
00002618  6726                     beq        +0x28 /* 00002640 */
0000261A  6A32                     bpl        +0x34 /* 0000264E */
0000261C  6014                     bra        +0x16 /* 00002632 */
label0000261E:
0000261E  5540                     subq.w     D0, 2
00002620  6A54                     bpl        +0x56 /* 00002676 */
00002622  6046                     bra        +0x48 /* 0000266A */
label00002624:
00002624  3B7C 1280 F184           move.w     [A5 - 0xE7C], 0x1280
0000262A  3B7C 1790 F186           move.w     [A5 - 0xE7A], 0x1790
00002630  6044                     bra        +0x46 /* 00002676 */
label00002632:
00002632  3B7C 0660 F184           move.w     [A5 - 0xE7C], 0x660
00002638  3B7C 0ED0 F186           move.w     [A5 - 0xE7A], 0xED0
0000263E  6036                     bra        +0x38 /* 00002676 */
label00002640:
00002640  3B7C 1E90 F184           move.w     [A5 - 0xE7C], 0x1E90
00002646  3B7C 0ED0 F186           move.w     [A5 - 0xE7A], 0xED0
0000264C  6028                     bra        +0x2A /* 00002676 */
label0000264E:
0000264E  3B7C 0660 F184           move.w     [A5 - 0xE7C], 0x660
00002654  3B7C 03A0 F186           move.w     [A5 - 0xE7A], 0x3A0
0000265A  601A                     bra        +0x1C /* 00002676 */
label0000265C:
0000265C  3B7C 1E90 F184           move.w     [A5 - 0xE7C], 0x1E90
00002662  3B7C 03A0 F186           move.w     [A5 - 0xE7A], 0x3A0
00002668  600C                     bra        +0xE /* 00002676 */
label0000266A:
0000266A  3B7C 1280 F184           move.w     [A5 - 0xE7C], 0x1280
00002670  3B7C 08F0 F186           move.w     [A5 - 0xE7A], 0x8F0
label00002676:
00002676  302D F190                move.w     D0, [A5 - 0xE70]
0000267A  204D                     movea.l    A0, A5
0000267C  48C0                     ext.l      D0
0000267E  E788                     lsl        D0, 3
00002680  D1C0                     add.l      A0, D0
00002682  2B68 EA8E F16C           move.l     [A5 - 0xE94], [A0 - 0x1572]
00002688  2B68 EA92 F170           move.l     [A5 - 0xE90], [A0 - 0x156E]
0000268E  486D F16C                pea.l      [A5 - 0xE94]
00002692  4EBA 14A2                jsr        [PC + 0x14A2 /* 00003B36 */]
00002696  486D F16C                pea.l      [A5 - 0xE94]
0000269A  302D F184                move.w     D0, [A5 - 0xE7C]
0000269E  E840                     asr        D0.w, 4
000026A0  3F00                     move.w     -[A7], D0
000026A2  302D F186                move.w     D0, [A5 - 0xE7A]
000026A6  E840                     asr        D0.w, 4
000026A8  3F00                     move.w     -[A7], D0
000026AA  A8A8                     syscall    OffsetRect
000026AC  2B6D F16C F174           move.l     [A5 - 0xE8C], [A5 - 0xE94]
000026B2  2B6D F170 F178           move.l     [A5 - 0xE88], [A5 - 0xE90]
000026B8  426D F18C                clr.w      [A5 - 0xE74]
000026BC  426D F18E                clr.w      [A5 - 0xE72]
000026C0  1B7C 0001 F196           move.b     [A5 - 0xE6A], 0x1
000026C6  422D F197                clr.b      [A5 - 0xE69]
000026CA  422D F199                clr.b      [A5 - 0xE67]
000026CE  422D F19A                clr.b      [A5 - 0xE66]
000026D2  3B7C FFFF F192           move.w     [A5 - 0xE6E], 0xFFFF
000026D8  4A6D F498                tst.w      [A5 - 0xB68]
000026DC  588F                     addq.l     A7, 4
000026DE  661A                     bne        +0x1C /* 000026FA */
000026E0  7018                     moveq.l    D0, 0x18
000026E2  D06D F16E                add.w      D0, [A5 - 0xE92]
000026E6  3B40 F494                move.w     [A5 - 0xB6C], D0
000026EA  72E8                     moveq.l    D1, 0xFFFFFFE8
000026EC  D26D F170                add.w      D1, [A5 - 0xE90]
000026F0  3B41 F496                move.w     [A5 - 0xB6A], D1
000026F4  3B7C 0005 F498           move.w     [A5 - 0xB68], 0x5
label000026FA:
000026FA  2E1F                     move.l     D7, [A7]+
000026FC  4E5E                     unlink     A6
000026FE  4E75                     rts
fn00002700:
00002700  536D F492                subq.w     [A5 - 0xB6E], 1
00002704  4A6D F492                tst.w      [A5 - 0xB6E]
00002708  6F0E                     ble        +0x10 /* 00002718 */
0000270A  4227                     clr.b      -[A7]
0000270C  4EBA FED4                jsr        [PC - 0x12C /* 000025E2 */]
00002710  4EBA DEB0                jsr        [PC - 0x2150 /* 000005C2 */]
00002714  548F                     addq.l     A7, 2
00002716  6004                     bra        +0x6 /* 0000271C */
label00002718:
00002718  422D F49E                clr.b      [A5 - 0xB62]
label0000271C:
0000271C  4E75                     rts
fn0000271E:
0000271E  4227                     clr.b      -[A7]
00002720  486D F32C                pea.l      [A5 - 0xCD4]
00002724  4878 0009                push.l     0x9 /* '\t' */
00002728  A85D                     syscall    BitTst
0000272A  4A1F                     tst.b      [A7]+
0000272C  6706                     beq        +0x8 /* 00002734 */
0000272E  422D F49E                clr.b      [A5 - 0xB62]
00002732  603A                     bra        +0x3C /* 0000276E */
label00002734:
00002734  4227                     clr.b      -[A7]
00002736  486D F32C                pea.l      [A5 - 0xCD4]
0000273A  4878 0024                push.l     0x24 /* '$' */
0000273E  A85D                     syscall    BitTst
00002740  4A1F                     tst.b      [A7]+
00002742  6710                     beq        +0x12 /* 00002754 */
00002744  1B7C 0001 F49F           move.b     [A5 - 0xB61], 0x1
0000274A  4EBA F3D8                jsr        [PC - 0xC28 /* 00001B24 */]
0000274E  4EBA E56E                jsr        [PC - 0x1A92 /* 00000CBE */]
00002752  601A                     bra        +0x1C /* 0000276E */
label00002754:
00002754  4227                     clr.b      -[A7]
00002756  486D F32C                pea.l      [A5 - 0xCD4]
0000275A  4878 000B                push.l     0xB
0000275E  A85D                     syscall    BitTst
00002760  4A1F                     tst.b      [A7]+
00002762  670A                     beq        +0xC /* 0000276E */
00002764  422D F49E                clr.b      [A5 - 0xB62]
00002768  1B7C 0001 EF4B           move.b     [A5 - 0x10B5], 0x1
label0000276E:
0000276E  4E75                     rts
fn00002770:
00002770  422D F197                clr.b      [A5 - 0xE69]
00002774  422D F198                clr.b      [A5 - 0xE68]
00002778  486D F32C                pea.l      [A5 - 0xCD4]
0000277C  A976                     syscall    GetKeys
0000277E  4227                     clr.b      -[A7]
00002780  486D F32C                pea.l      [A5 - 0xCD4]
00002784  4878 0030                push.l     0x30 /* '0' */
00002788  A85D                     syscall    BitTst
0000278A  4A1F                     tst.b      [A7]+
0000278C  6708                     beq        +0xA /* 00002796 */
0000278E  4EBA FF8E                jsr        [PC - 0x72 /* 0000271E */]
00002792  6000 01D2                bra        +0x1D4 /* 00002966 */
label00002796:
00002796  4227                     clr.b      -[A7]
00002798  486D F32C                pea.l      [A5 - 0xCD4]
0000279C  4878 0036                push.l     0x36 /* '6' */
000027A0  A85D                     syscall    BitTst
000027A2  4A1F                     tst.b      [A7]+
000027A4  6610                     bne        +0x12 /* 000027B6 */
000027A6  4227                     clr.b      -[A7]
000027A8  486D F32C                pea.l      [A5 - 0xCD4]
000027AC  4878 007A                push.l     0x7A /* 'z' */
000027B0  A85D                     syscall    BitTst
000027B2  4A1F                     tst.b      [A7]+
000027B4  6748                     beq        +0x4A /* 000027FE */
label000027B6:
000027B6  0C6D FFFF F192           cmpi.w     [A5 - 0xE6E], 0xFFFF
000027BC  660C                     bne        +0xE /* 000027CA */
000027BE  3B7C 0001 F192           move.w     [A5 - 0xE6E], 0x1
000027C4  426D F194                clr.w      [A5 - 0xE6C]
000027C8  6038                     bra        +0x3A /* 00002802 */
label000027CA:
000027CA  4A6D F192                tst.w      [A5 - 0xE6E]
000027CE  6708                     beq        +0xA /* 000027D8 */
000027D0  0C6D 0001 F192           cmpi.w     [A5 - 0xE6E], 0x1
000027D6  662A                     bne        +0x2C /* 00002802 */
label000027D8:
000027D8  4A2D F4A0                tst.b      [A5 - 0xB60]
000027DC  6624                     bne        +0x26 /* 00002802 */
000027DE  046D 0030 F18E           subi.w     [A5 - 0xE72], 0x30 /* '0' */
000027E4  1B7C 0001 F4A0           move.b     [A5 - 0xB60], 0x1
000027EA  2F3C 0006 0046           move.l     -[A7], 0x60046
000027F0  4EBA 0DF6                jsr        [PC + 0xDF6 /* 000035E8 */]
000027F4  1B7C 0001 F197           move.b     [A5 - 0xE69], 0x1
000027FA  588F                     addq.l     A7, 4
000027FC  6004                     bra        +0x6 /* 00002802 */
label000027FE:
000027FE  422D F4A0                clr.b      [A5 - 0xB60]
label00002802:
00002802  4227                     clr.b      -[A7]
00002804  486D F32C                pea.l      [A5 - 0xCD4]
00002808  4878 007B                push.l     0x7B /* '{' */
0000280C  A85D                     syscall    BitTst
0000280E  4A1F                     tst.b      [A7]+
00002810  6622                     bne        +0x24 /* 00002834 */
00002812  4227                     clr.b      -[A7]
00002814  486D F32C                pea.l      [A5 - 0xCD4]
00002818  4878 0006                push.l     0x6
0000281C  A85D                     syscall    BitTst
0000281E  4A1F                     tst.b      [A7]+
00002820  6612                     bne        +0x14 /* 00002834 */
00002822  4227                     clr.b      -[A7]
00002824  486D F32C                pea.l      [A5 - 0xCD4]
00002828  4878 0020                push.l     0x20 /* ' ' */
0000282C  A85D                     syscall    BitTst
0000282E  4A1F                     tst.b      [A7]+
00002830  6700 008C                beq        +0x8E /* 000028BE */
label00002834:
00002834  0C6D 00C0 F18C           cmpi.w     [A5 - 0xE74], 0xC0
0000283A  6C00 0082                bge        +0x84 /* 000028BE */
0000283E  0C6D FFFF F192           cmpi.w     [A5 - 0xE6E], 0xFFFF
00002844  660E                     bne        +0x10 /* 00002854 */
00002846  3B7C 0001 F192           move.w     [A5 - 0xE6E], 0x1
0000284C  426D F194                clr.w      [A5 - 0xE6C]
00002850  6000 0114                bra        +0x116 /* 00002966 */
label00002854:
00002854  4A6D F192                tst.w      [A5 - 0xE6E]
00002858  670A                     beq        +0xC /* 00002864 */
0000285A  0C6D 0001 F192           cmpi.w     [A5 - 0xE6E], 0x1
00002860  6600 0104                bne        +0x106 /* 00002966 */
label00002864:
00002864  4A2D F196                tst.b      [A5 - 0xE6A]
00002868  663A                     bne        +0x3C /* 000028A4 */
0000286A  1B7C 0001 F196           move.b     [A5 - 0xE6A], 0x1
00002870  4A2D F19A                tst.b      [A5 - 0xE66]
00002874  6700 00F0                beq        +0xF2 /* 00002966 */
00002878  066D 0012 F16E           addi.w     [A5 - 0xE92], 0x12
0000287E  066D 0012 F172           addi.w     [A5 - 0xE8E], 0x12
00002884  302D F16E                move.w     D0, [A5 - 0xE92]
00002888  E948                     lsl        D0.w, 4
0000288A  3B40 F184                move.w     [A5 - 0xE7C], D0
0000288E  3B6D F184 F188           move.w     [A5 - 0xE78], [A5 - 0xE7C]
00002894  2B6D F16C F174           move.l     [A5 - 0xE8C], [A5 - 0xE94]
0000289A  2B6D F170 F178           move.l     [A5 - 0xE88], [A5 - 0xE90]
000028A0  6000 00C4                bra        +0xC6 /* 00002966 */
label000028A4:
000028A4  4A6D F192                tst.w      [A5 - 0xE6E]
000028A8  660A                     bne        +0xC /* 000028B4 */
000028AA  066D 000C F18C           addi.w     [A5 - 0xE74], 0xC
000028B0  6000 00B4                bra        +0xB6 /* 00002966 */
label000028B4:
000028B4  1B7C 0001 F198           move.b     [A5 - 0xE68], 0x1
000028BA  6000 00AA                bra        +0xAC /* 00002966 */
label000028BE:
000028BE  4227                     clr.b      -[A7]
000028C0  486D F32C                pea.l      [A5 - 0xCD4]
000028C4  4878 007C                push.l     0x7C /* '|' */
000028C8  A85D                     syscall    BitTst
000028CA  4A1F                     tst.b      [A7]+
000028CC  6620                     bne        +0x22 /* 000028EE */
000028CE  4227                     clr.b      -[A7]
000028D0  486D F32C                pea.l      [A5 - 0xCD4]
000028D4  4878 0007                push.l     0x7
000028D8  A85D                     syscall    BitTst
000028DA  4A1F                     tst.b      [A7]+
000028DC  6610                     bne        +0x12 /* 000028EE */
000028DE  4227                     clr.b      -[A7]
000028E0  486D F32C                pea.l      [A5 - 0xCD4]
000028E4  4878 002E                push.l     0x2E /* '.' */
000028E8  A85D                     syscall    BitTst
000028EA  4A1F                     tst.b      [A7]+
000028EC  6778                     beq        +0x7A /* 00002966 */
label000028EE:
000028EE  0C6D FF40 F18C           cmpi.w     [A5 - 0xE74], 0xFF40
000028F4  6F70                     ble        +0x72 /* 00002966 */
000028F6  0C6D FFFF F192           cmpi.w     [A5 - 0xE6E], 0xFFFF
000028FC  660C                     bne        +0xE /* 0000290A */
000028FE  3B7C 0001 F192           move.w     [A5 - 0xE6E], 0x1
00002904  426D F194                clr.w      [A5 - 0xE6C]
00002908  605C                     bra        +0x5E /* 00002966 */
label0000290A:
0000290A  4A6D F192                tst.w      [A5 - 0xE6E]
0000290E  6708                     beq        +0xA /* 00002918 */
00002910  0C6D 0001 F192           cmpi.w     [A5 - 0xE6E], 0x1
00002916  664E                     bne        +0x50 /* 00002966 */
label00002918:
00002918  4A2D F196                tst.b      [A5 - 0xE6A]
0000291C  6734                     beq        +0x36 /* 00002952 */
0000291E  422D F196                clr.b      [A5 - 0xE6A]
00002922  4A2D F19A                tst.b      [A5 - 0xE66]
00002926  673E                     beq        +0x40 /* 00002966 */
00002928  046D 0012 F16E           subi.w     [A5 - 0xE92], 0x12
0000292E  046D 0012 F172           subi.w     [A5 - 0xE8E], 0x12
00002934  302D F16E                move.w     D0, [A5 - 0xE92]
00002938  E948                     lsl        D0.w, 4
0000293A  3B40 F184                move.w     [A5 - 0xE7C], D0
0000293E  3B6D F184 F188           move.w     [A5 - 0xE78], [A5 - 0xE7C]
00002944  2B6D F16C F174           move.l     [A5 - 0xE8C], [A5 - 0xE94]
0000294A  2B6D F170 F178           move.l     [A5 - 0xE88], [A5 - 0xE90]
00002950  6014                     bra        +0x16 /* 00002966 */
label00002952:
00002952  4A6D F192                tst.w      [A5 - 0xE6E]
00002956  6608                     bne        +0xA /* 00002960 */
00002958  046D 000C F18C           subi.w     [A5 - 0xE74], 0xC
0000295E  6006                     bra        +0x8 /* 00002966 */
label00002960:
00002960  1B7C 0001 F198           move.b     [A5 - 0xE68], 0x1
label00002966:
00002966  4E75                     rts
fn00002968:
00002968  536D F194                subq.w     [A5 - 0xE6C], 1
0000296C  4A6D F194                tst.w      [A5 - 0xE6C]
00002970  6606                     bne        +0x8 /* 00002978 */
00002972  3B7C 0001 F192           move.w     [A5 - 0xE6E], 0x1
label00002978:
00002978  4EBA 07F6                jsr        [PC + 0x7F6 /* 00003170 */]
0000297C  4E75                     rts
fn0000297E:
0000297E  4A6D F18C                tst.w      [A5 - 0xE74]
00002982  6F10                     ble        +0x12 /* 00002994 */
00002984  556D F18C                subq.w     [A5 - 0xE74], 2
00002988  4A6D F18C                tst.w      [A5 - 0xE74]
0000298C  6C1A                     bge        +0x1C /* 000029A8 */
0000298E  426D F18C                clr.w      [A5 - 0xE74]
00002992  6014                     bra        +0x16 /* 000029A8 */
label00002994:
00002994  4A6D F18C                tst.w      [A5 - 0xE74]
00002998  6C0E                     bge        +0x10 /* 000029A8 */
0000299A  546D F18C                addq.w     [A5 - 0xE74], 2
0000299E  4A6D F18C                tst.w      [A5 - 0xE74]
000029A2  6F04                     ble        +0x6 /* 000029A8 */
000029A4  426D F18C                clr.w      [A5 - 0xE74]
label000029A8:
000029A8  586D F18E                addq.w     [A5 - 0xE72], 4
000029AC  0C6D 0200 F18E           cmpi.w     [A5 - 0xE72], 0x200
000029B2  6F08                     ble        +0xA /* 000029BC */
000029B4  3B7C 0200 F18E           move.w     [A5 - 0xE72], 0x200
000029BA  600E                     bra        +0x10 /* 000029CA */
label000029BC:
000029BC  0C6D FE00 F18E           cmpi.w     [A5 - 0xE72], 0xFE00
000029C2  6C06                     bge        +0x8 /* 000029CA */
000029C4  3B7C FE00 F18E           move.w     [A5 - 0xE72], 0xFE00
label000029CA:
000029CA  302D F18C                move.w     D0, [A5 - 0xE74]
000029CE  D16D F184                add.w      [A5 - 0xE7C], D0
000029D2  302D F18E                move.w     D0, [A5 - 0xE72]
000029D6  D16D F186                add.w      [A5 - 0xE7A], D0
000029DA  4A2D F196                tst.b      [A5 - 0xE6A]
000029DE  674C                     beq        +0x4E /* 00002A2C */
000029E0  3B7C 0001 F190           move.w     [A5 - 0xE70], 0x1
000029E6  0C6D FFF8 F18E           cmpi.w     [A5 - 0xE72], 0xFFF8
000029EC  6C16                     bge        +0x18 /* 00002A04 */
000029EE  4A2D F197                tst.b      [A5 - 0xE69]
000029F2  6708                     beq        +0xA /* 000029FC */
000029F4  426D F190                clr.w      [A5 - 0xE70]
000029F8  6000 0080                bra        +0x82 /* 00002A7A */
label000029FC:
000029FC  3B7C 0001 F190           move.w     [A5 - 0xE70], 0x1
00002A02  6076                     bra        +0x78 /* 00002A7A */
label00002A04:
00002A04  0C6D 0008 F18E           cmpi.w     [A5 - 0xE72], 0x8
00002A0A  6F14                     ble        +0x16 /* 00002A20 */
00002A0C  4A2D F197                tst.b      [A5 - 0xE69]
00002A10  6708                     beq        +0xA /* 00002A1A */
00002A12  3B7C 0001 F190           move.w     [A5 - 0xE70], 0x1
00002A18  6060                     bra        +0x62 /* 00002A7A */
label00002A1A:
00002A1A  426D F190                clr.w      [A5 - 0xE70]
00002A1E  605A                     bra        +0x5C /* 00002A7A */
label00002A20:
00002A20  4A2D F197                tst.b      [A5 - 0xE69]
00002A24  6754                     beq        +0x56 /* 00002A7A */
00002A26  426D F190                clr.w      [A5 - 0xE70]
00002A2A  604E                     bra        +0x50 /* 00002A7A */
label00002A2C:
00002A2C  3B7C 0002 F190           move.w     [A5 - 0xE70], 0x2
00002A32  0C6D FFF8 F18E           cmpi.w     [A5 - 0xE72], 0xFFF8
00002A38  6C16                     bge        +0x18 /* 00002A50 */
00002A3A  4A2D F197                tst.b      [A5 - 0xE69]
00002A3E  6708                     beq        +0xA /* 00002A48 */
00002A40  3B7C 0003 F190           move.w     [A5 - 0xE70], 0x3
00002A46  6032                     bra        +0x34 /* 00002A7A */
label00002A48:
00002A48  3B7C 0002 F190           move.w     [A5 - 0xE70], 0x2
00002A4E  602A                     bra        +0x2C /* 00002A7A */
label00002A50:
00002A50  0C6D 0008 F18E           cmpi.w     [A5 - 0xE72], 0x8
00002A56  6F16                     ble        +0x18 /* 00002A6E */
00002A58  4A2D F197                tst.b      [A5 - 0xE69]
00002A5C  6708                     beq        +0xA /* 00002A66 */
00002A5E  3B7C 0002 F190           move.w     [A5 - 0xE70], 0x2
00002A64  6014                     bra        +0x16 /* 00002A7A */
label00002A66:
00002A66  3B7C 0003 F190           move.w     [A5 - 0xE70], 0x3
00002A6C  600C                     bra        +0xE /* 00002A7A */
label00002A6E:
00002A6E  4A2D F197                tst.b      [A5 - 0xE69]
00002A72  6706                     beq        +0x8 /* 00002A7A */
00002A74  3B7C 0003 F190           move.w     [A5 - 0xE70], 0x3
label00002A7A:
00002A7A  4EBA 06F4                jsr        [PC + 0x6F4 /* 00003170 */]
00002A7E  4EBA 067E                jsr        [PC + 0x67E /* 000030FE */]
00002A82  4EAD 0192                jsr        [A5 + 0x192 /* export_46, CODE:4 @ 00002120 */]
00002A86  4EBA 032E                jsr        [PC + 0x32E /* 00002DB6 */]
00002A8A  4EBA 024E                jsr        [PC + 0x24E /* 00002CDA */]
00002A8E  4E75                     rts
fn00002A90:
00002A90  2F07                     move.l     -[A7], D7
00002A92  4A2D F198                tst.b      [A5 - 0xE68]
00002A96  6700 0092                beq        +0x94 /* 00002B2A */
00002A9A  4A2D F4A1                tst.b      [A5 - 0xB5F]
00002A9E  6700 00BA                beq        +0xBC /* 00002B5A */
00002AA2  4A2D F196                tst.b      [A5 - 0xE6A]
00002AA6  6714                     beq        +0x16 /* 00002ABC */
00002AA8  0C6D 0004 F190           cmpi.w     [A5 - 0xE70], 0x4
00002AAE  6606                     bne        +0x8 /* 00002AB6 */
00002AB0  3E3C 00D0                move.w     D7, 0xD0
00002AB4  6016                     bra        +0x18 /* 00002ACC */
label00002AB6:
00002AB6  3E3C 0080                move.w     D7, 0x80
00002ABA  6010                     bra        +0x12 /* 00002ACC */
label00002ABC:
00002ABC  0C6D 0007 F190           cmpi.w     [A5 - 0xE70], 0x7
00002AC2  6606                     bne        +0x8 /* 00002ACA */
00002AC4  3E3C FF30                move.w     D7, 0xFF30
00002AC8  6002                     bra        +0x4 /* 00002ACC */
label00002ACA:
00002ACA  7E80                     moveq.l    D7, 0xFFFFFF80
label00002ACC:
00002ACC  BE6D F18C                cmp.w      D7, [A5 - 0xE74]
00002AD0  6F2C                     ble        +0x2E /* 00002AFE */
00002AD2  066D 0050 F18C           addi.w     [A5 - 0xE74], 0x50 /* 'P' */
00002AD8  BE6D F18C                cmp.w      D7, [A5 - 0xE74]
00002ADC  6C12                     bge        +0x14 /* 00002AF0 */
00002ADE  3B47 F18C                move.w     [A5 - 0xE74], D7
00002AE2  2F3C 000E 001E           move.l     -[A7], 0xE001E
00002AE8  4EBA 0AFE                jsr        [PC + 0xAFE /* 000035E8 */]
00002AEC  588F                     addq.l     A7, 4
00002AEE  606A                     bra        +0x6C /* 00002B5A */
label00002AF0:
00002AF0  2F3C 000C 0032           move.l     -[A7], 0xC0032
00002AF6  4EBA 0AF0                jsr        [PC + 0xAF0 /* 000035E8 */]
00002AFA  588F                     addq.l     A7, 4
00002AFC  605C                     bra        +0x5E /* 00002B5A */
label00002AFE:
00002AFE  046D 0050 F18C           subi.w     [A5 - 0xE74], 0x50 /* 'P' */
00002B04  BE6D F18C                cmp.w      D7, [A5 - 0xE74]
00002B08  6F12                     ble        +0x14 /* 00002B1C */
00002B0A  3B47 F18C                move.w     [A5 - 0xE74], D7
00002B0E  2F3C 000E 001E           move.l     -[A7], 0xE001E
00002B14  4EBA 0AD2                jsr        [PC + 0xAD2 /* 000035E8 */]
00002B18  588F                     addq.l     A7, 4
00002B1A  603E                     bra        +0x40 /* 00002B5A */
label00002B1C:
00002B1C  2F3C 000C 0032           move.l     -[A7], 0xC0032
00002B22  4EBA 0AC4                jsr        [PC + 0xAC4 /* 000035E8 */]
00002B26  588F                     addq.l     A7, 4
00002B28  6030                     bra        +0x32 /* 00002B5A */
label00002B2A:
00002B2A  302D F18C                move.w     D0, [A5 - 0xE74]
00002B2E  48C0                     ext.l      D0
00002B30  81FC 0004                divs.w     D0, 0x4
00002B34  916D F18C                sub.w      [A5 - 0xE74], D0
00002B38  0C6D 0004 F18C           cmpi.w     [A5 - 0xE74], 0x4
00002B3E  6C0E                     bge        +0x10 /* 00002B4E */
00002B40  0C6D FFFC F18C           cmpi.w     [A5 - 0xE74], 0xFFFC
00002B46  6F06                     ble        +0x8 /* 00002B4E */
00002B48  426D F18C                clr.w      [A5 - 0xE74]
00002B4C  600C                     bra        +0xE /* 00002B5A */
label00002B4E:
00002B4E  2F3C 000C 0032           move.l     -[A7], 0xC0032
00002B54  4EBA 0A92                jsr        [PC + 0xA92 /* 000035E8 */]
00002B58  588F                     addq.l     A7, 4
label00002B5A:
00002B5A  0C6D 0200 F18E           cmpi.w     [A5 - 0xE72], 0x200
00002B60  6F08                     ble        +0xA /* 00002B6A */
00002B62  3B7C 0200 F18E           move.w     [A5 - 0xE72], 0x200
00002B68  600E                     bra        +0x10 /* 00002B78 */
label00002B6A:
00002B6A  0C6D FE00 F18E           cmpi.w     [A5 - 0xE72], 0xFE00
00002B70  6C06                     bge        +0x8 /* 00002B78 */
00002B72  3B7C FE00 F18E           move.w     [A5 - 0xE72], 0xFE00
label00002B78:
00002B78  302D F18C                move.w     D0, [A5 - 0xE74]
00002B7C  D16D F184                add.w      [A5 - 0xE7C], D0
00002B80  302D F18E                move.w     D0, [A5 - 0xE72]
00002B84  D16D F186                add.w      [A5 - 0xE7A], D0
00002B88  4A2D F198                tst.b      [A5 - 0xE68]
00002B8C  6724                     beq        +0x26 /* 00002BB2 */
00002B8E  4A2D F4A1                tst.b      [A5 - 0xB5F]
00002B92  6732                     beq        +0x34 /* 00002BC6 */
00002B94  4A2D F196                tst.b      [A5 - 0xE6A]
00002B98  670C                     beq        +0xE /* 00002BA6 */
00002B9A  7009                     moveq.l    D0, 0x09
00002B9C  906D F190                sub.w      D0, [A5 - 0xE70]
00002BA0  3B40 F190                move.w     [A5 - 0xE70], D0
00002BA4  6020                     bra        +0x22 /* 00002BC6 */
label00002BA6:
00002BA6  700D                     moveq.l    D0, 0x0D
00002BA8  906D F190                sub.w      D0, [A5 - 0xE70]
00002BAC  3B40 F190                move.w     [A5 - 0xE70], D0
00002BB0  6014                     bra        +0x16 /* 00002BC6 */
label00002BB2:
00002BB2  4A2D F196                tst.b      [A5 - 0xE6A]
00002BB6  6708                     beq        +0xA /* 00002BC0 */
00002BB8  3B7C 0005 F190           move.w     [A5 - 0xE70], 0x5
00002BBE  6006                     bra        +0x8 /* 00002BC6 */
label00002BC0:
00002BC0  3B7C 0006 F190           move.w     [A5 - 0xE70], 0x6
label00002BC6:
00002BC6  4EBA 05A8                jsr        [PC + 0x5A8 /* 00003170 */]
00002BCA  4EBA 010E                jsr        [PC + 0x10E /* 00002CDA */]
00002BCE  4EBA 04BE                jsr        [PC + 0x4BE /* 0000308E */]
00002BD2  4EAD 0192                jsr        [A5 + 0x192 /* export_46, CODE:4 @ 00002120 */]
00002BD6  2E1F                     move.l     D7, [A7]+
00002BD8  4E75                     rts
fn00002BDA:
00002BDA  426D F18C                clr.w      [A5 - 0xE74]
00002BDE  3B7C 0010 F18E           move.w     [A5 - 0xE72], 0x10
00002BE4  0C6D 01C8 F16C           cmpi.w     [A5 - 0xE94], 0x1C8
00002BEA  6F04                     ble        +0x6 /* 00002BF0 */
00002BEC  4EBA FB12                jsr        [PC - 0x4EE /* 00002700 */]
label00002BF0:
00002BF0  302D F18E                move.w     D0, [A5 - 0xE72]
00002BF4  D16D F186                add.w      [A5 - 0xE7A], D0
00002BF8  4EBA 0576                jsr        [PC + 0x576 /* 00003170 */]
00002BFC  4E75                     rts
fn00002BFE:
00002BFE  4A6D F18C                tst.w      [A5 - 0xE74]
00002C02  6F10                     ble        +0x12 /* 00002C14 */
00002C04  556D F18C                subq.w     [A5 - 0xE74], 2
00002C08  4A6D F18C                tst.w      [A5 - 0xE74]
00002C0C  6C1A                     bge        +0x1C /* 00002C28 */
00002C0E  426D F18C                clr.w      [A5 - 0xE74]
00002C12  6014                     bra        +0x16 /* 00002C28 */
label00002C14:
00002C14  4A6D F18C                tst.w      [A5 - 0xE74]
00002C18  6C0E                     bge        +0x10 /* 00002C28 */
00002C1A  546D F18C                addq.w     [A5 - 0xE74], 2
00002C1E  4A6D F18C                tst.w      [A5 - 0xE74]
00002C22  6F04                     ble        +0x6 /* 00002C28 */
00002C24  426D F18C                clr.w      [A5 - 0xE74]
label00002C28:
00002C28  586D F18E                addq.w     [A5 - 0xE72], 4
00002C2C  0C6D 0200 F18E           cmpi.w     [A5 - 0xE72], 0x200
00002C32  6F08                     ble        +0xA /* 00002C3C */
00002C34  3B7C 0200 F18E           move.w     [A5 - 0xE72], 0x200
00002C3A  600E                     bra        +0x10 /* 00002C4A */
label00002C3C:
00002C3C  0C6D FE00 F18E           cmpi.w     [A5 - 0xE72], 0xFE00
00002C42  6C06                     bge        +0x8 /* 00002C4A */
00002C44  3B7C FE00 F18E           move.w     [A5 - 0xE72], 0xFE00
label00002C4A:
00002C4A  302D F18C                move.w     D0, [A5 - 0xE74]
00002C4E  D16D F184                add.w      [A5 - 0xE7C], D0
00002C52  302D F18E                move.w     D0, [A5 - 0xE72]
00002C56  D16D F186                add.w      [A5 - 0xE7A], D0
00002C5A  4EBA 0514                jsr        [PC + 0x514 /* 00003170 */]
00002C5E  4EBA 049E                jsr        [PC + 0x49E /* 000030FE */]
00002C62  4EBA 0152                jsr        [PC + 0x152 /* 00002DB6 */]
00002C66  4E75                     rts
fn00002C68:
00002C68  4A2D F4A1                tst.b      [A5 - 0xB5F]
00002C6C  671C                     beq        +0x1E /* 00002C8A */
00002C6E  536D F194                subq.w     [A5 - 0xE6C], 1
00002C72  4A6D F194                tst.w      [A5 - 0xE6C]
00002C76  6606                     bne        +0x8 /* 00002C7E */
00002C78  4EBA FA86                jsr        [PC - 0x57A /* 00002700 */]
00002C7C  600C                     bra        +0xE /* 00002C8A */
label00002C7E:
00002C7E  302D F170                move.w     D0, [A5 - 0xE90]
00002C82  906D F194                sub.w      D0, [A5 - 0xE6C]
00002C86  3B40 F16C                move.w     [A5 - 0xE94], D0
label00002C8A:
00002C8A  4E75                     rts
fn00002C8C:
00002C8C  302D F192                move.w     D0, [A5 - 0xE6E]
00002C90  5240                     addq.w     D0, 1
00002C92  0C40 0008                cmpi.w     D0, 0x8
00002C96  622E                     bhi        +0x30 /* 00002CC6 */
00002C98  43FA 002E                lea.l      A1, [PC + 0x2E /* 00002CC8, value 0xFFDCFFE2 */]
00002C9C  D040                     add.w      D0, D0
00002C9E  D2F1 0000                add.w      A1, [A1 + D0.w]
00002CA2  4ED1                     jmp        [A1]
00002CA4  4EBA FCC2                jsr        [PC - 0x33E /* 00002968 */]
00002CA8  601C                     bra        +0x1E /* 00002CC6 */
00002CAA  4EBA FCD2                jsr        [PC - 0x32E /* 0000297E */]
00002CAE  6016                     bra        +0x18 /* 00002CC6 */
00002CB0  4EBA FDDE                jsr        [PC - 0x222 /* 00002A90 */]
00002CB4  6010                     bra        +0x12 /* 00002CC6 */
00002CB6  4EBA FF22                jsr        [PC - 0xDE /* 00002BDA */]
00002CBA  600A                     bra        +0xC /* 00002CC6 */
00002CBC  4EBA FF40                jsr        [PC - 0xC0 /* 00002BFE */]
00002CC0  6004                     bra        +0x6 /* 00002CC6 */
00002CC2  4EBA FFA4                jsr        [PC - 0x5C /* 00002C68 */]
label00002CC6:
00002CC6  4E75                     rts
00002CC8  FFDC                     .invalid   <<F/7/7>>
00002CCA  FFE2                     .invalid   <<F/7/7>>
00002CCC  FFE8                     .invalid   <<F/7/7>>
00002CCE  FFEE                     .invalid   <<F/7/7>>
00002CD0  FFFE                     .invalid   <<F/7/7>>
00002CD2  FFF4                     .invalid   <<F/7/7>>
00002CD4  FFFE                     .invalid   <<F/7/7>>
00002CD6  FFFE                     .invalid   <<F/7/7>>
00002CD8  FFFA                     .invalid   <<F/7/7>>
fn00002CDA:
00002CDA  4E56 FFF0                link       A6, -0x0010
00002CDE  48E7 0700                movem.l    -[A7], D5,D6,D7
00002CE2  7A00                     moveq.l    D5, 0x00
00002CE4  7E00                     moveq.l    D7, 0x00
00002CE6  6000 00A2                bra        +0xA4 /* 00002D8A */
label00002CEA:
00002CEA  204D                     movea.l    A0, A5
00002CEC  2007                     move.l     D0, D7
00002CEE  48C0                     ext.l      D0
00002CF0  E788                     lsl        D0, 3
00002CF2  D1C0                     add.l      A0, D0
00002CF4  2D68 F36C FFF8           move.l     [A6 - 0x8], [A0 - 0xC94]
00002CFA  2D68 F370 FFFC           move.l     [A6 - 0x4], [A0 - 0xC90]
00002D00  0C6D 0001 F192           cmpi.w     [A5 - 0xE6E], 0x1
00002D06  660C                     bne        +0xE /* 00002D14 */
00002D08  486E FFF8                pea.l      [A6 - 0x8]
00002D0C  2F3C 000B 0000           move.l     -[A7], 0xB0000
00002D12  A8A8                     syscall    OffsetRect
label00002D14:
00002D14  4227                     clr.b      -[A7]
00002D16  486D F16C                pea.l      [A5 - 0xE94]
00002D1A  486E FFF8                pea.l      [A6 - 0x8]
00002D1E  486E FFF0                pea.l      [A6 - 0x10]
00002D22  A8AA                     syscall    SectRect
00002D24  4A1F                     tst.b      [A7]+
00002D26  6760                     beq        +0x62 /* 00002D88 */
00002D28  4A6D F192                tst.w      [A5 - 0xE6E]
00002D2C  6658                     bne        +0x5A /* 00002D86 */
00002D2E  3B7C 0001 F192           move.w     [A5 - 0xE6E], 0x1
00002D34  4A2D F196                tst.b      [A5 - 0xE6A]
00002D38  6708                     beq        +0xA /* 00002D42 */
00002D3A  3B7C 0005 F190           move.w     [A5 - 0xE70], 0x5
00002D40  6006                     bra        +0x8 /* 00002D48 */
label00002D42:
00002D42  3B7C 0006 F190           move.w     [A5 - 0xE70], 0x6
label00002D48:
00002D48  4A6D F18E                tst.w      [A5 - 0xE72]
00002D4C  6F04                     ble        +0x6 /* 00002D52 */
00002D4E  426D F18E                clr.w      [A5 - 0xE72]
label00002D52:
00002D52  066D 000B F170           addi.w     [A5 - 0xE90], 0xB
00002D58  066D 000B F178           addi.w     [A5 - 0xE88], 0xB
00002D5E  3C2D F170                move.w     D6, [A5 - 0xE90]
00002D62  9C6E FFFC                sub.w      D6, [A6 - 0x4]
00002D66  5346                     subq.w     D6, 1
00002D68  9D6D F170                sub.w      [A5 - 0xE90], D6
00002D6C  9D6D F16C                sub.w      [A5 - 0xE94], D6
00002D70  302D F16C                move.w     D0, [A5 - 0xE94]
00002D74  E948                     lsl        D0.w, 4
00002D76  3B40 F186                move.w     [A5 - 0xE7A], D0
00002D7A  2F3C 0008 0028           move.l     -[A7], 0x80028
00002D80  4EBA 0866                jsr        [PC + 0x866 /* 000035E8 */]
00002D84  588F                     addq.l     A7, 4
label00002D86:
00002D86  7A01                     moveq.l    D5, 0x01
label00002D88:
00002D88  5247                     addq.w     D7, 1
label00002D8A:
00002D8A  BE6D F48C                cmp.w      D7, [A5 - 0xB74]
00002D8E  6D00 FF5A                blt        -0xA4 /* 00002CEA */
00002D92  4A05                     tst.b      D5
00002D94  6618                     bne        +0x1A /* 00002DAE */
00002D96  0C6D 0001 F192           cmpi.w     [A5 - 0xE6E], 0x1
00002D9C  6610                     bne        +0x12 /* 00002DAE */
00002D9E  426D F192                clr.w      [A5 - 0xE6E]
00002DA2  046D 000B F170           subi.w     [A5 - 0xE90], 0xB
00002DA8  046D 000B F178           subi.w     [A5 - 0xE88], 0xB
label00002DAE:
00002DAE  4CDF 00E0                movem.l    D5,D6,D7, [A7]+
00002DB2  4E5E                     unlink     A6
00002DB4  4E75                     rts
fn00002DB6:
00002DB6  4E56 FFE8                link       A6, -0x0018
00002DBA  48E7 0300                movem.l    -[A7], D6,D7
00002DBE  7E00                     moveq.l    D7, 0x00
00002DC0  6000 02BC                bra        +0x2BE /* 0000307E */
label00002DC4:
00002DC4  4227                     clr.b      -[A7]
00002DC6  486D F16C                pea.l      [A5 - 0xE94]
00002DCA  204D                     movea.l    A0, A5
00002DCC  2007                     move.l     D0, D7
00002DCE  48C0                     ext.l      D0
00002DD0  E788                     lsl        D0, 3
00002DD2  D1C0                     add.l      A0, D0
00002DD4  4868 F33C                pea.l      [A0 - 0xCC4]
00002DD8  486E FFE8                pea.l      [A6 - 0x18]
00002DDC  A8AA                     syscall    SectRect
00002DDE  4A1F                     tst.b      [A7]+
00002DE0  6700 029A                beq        +0x29C /* 0000307C */
00002DE4  3D6D F16E FFFA           move.w     [A6 - 0x6], [A5 - 0xE92]
00002DEA  3D6D F172 FFFE           move.w     [A6 - 0x2], [A5 - 0xE8E]
00002DF0  3D6D F174 FFF8           move.w     [A6 - 0x8], [A5 - 0xE8C]
00002DF6  3D6D F178 FFFC           move.w     [A6 - 0x4], [A5 - 0xE88]
00002DFC  4227                     clr.b      -[A7]
00002DFE  486E FFF8                pea.l      [A6 - 0x8]
00002E02  204D                     movea.l    A0, A5
00002E04  2007                     move.l     D0, D7
00002E06  48C0                     ext.l      D0
00002E08  E788                     lsl        D0, 3
00002E0A  D1C0                     add.l      A0, D0
00002E0C  4868 F33C                pea.l      [A0 - 0xCC4]
00002E10  486E FFE8                pea.l      [A6 - 0x18]
00002E14  A8AA                     syscall    SectRect
00002E16  4A1F                     tst.b      [A7]+
00002E18  6700 00AC                beq        +0xAE /* 00002EC6 */
00002E1C  302D F184                move.w     D0, [A5 - 0xE7C]
00002E20  B06D F188                cmp.w      D0, [A5 - 0xE78]
00002E24  6F44                     ble        +0x46 /* 00002E6A */
00002E26  204D                     movea.l    A0, A5
00002E28  2007                     move.l     D0, D7
00002E2A  48C0                     ext.l      D0
00002E2C  E788                     lsl        D0, 3
00002E2E  D1C0                     add.l      A0, D0
00002E30  3C2D F172                move.w     D6, [A5 - 0xE8E]
00002E34  9C68 F33E                sub.w      D6, [A0 - 0xCC2]
00002E38  9D6D F16E                sub.w      [A5 - 0xE92], D6
00002E3C  9D6D F172                sub.w      [A5 - 0xE8E], D6
00002E40  302D F16E                move.w     D0, [A5 - 0xE92]
00002E44  E948                     lsl        D0.w, 4
00002E46  3B40 F184                move.w     [A5 - 0xE7C], D0
00002E4A  4A6D F18C                tst.w      [A5 - 0xE74]
00002E4E  6F0E                     ble        +0x10 /* 00002E5E */
00002E50  302D F18C                move.w     D0, [A5 - 0xE74]
00002E54  E240                     asr        D0.w, 1
00002E56  4440                     neg.w      D0
00002E58  3B40 F18C                move.w     [A5 - 0xE74], D0
00002E5C  6058                     bra        +0x5A /* 00002EB6 */
label00002E5E:
00002E5E  302D F18C                move.w     D0, [A5 - 0xE74]
00002E62  E240                     asr        D0.w, 1
00002E64  3B40 F18C                move.w     [A5 - 0xE74], D0
00002E68  604C                     bra        +0x4E /* 00002EB6 */
label00002E6A:
00002E6A  302D F184                move.w     D0, [A5 - 0xE7C]
00002E6E  B06D F188                cmp.w      D0, [A5 - 0xE78]
00002E72  6C42                     bge        +0x44 /* 00002EB6 */
00002E74  204D                     movea.l    A0, A5
00002E76  2007                     move.l     D0, D7
00002E78  48C0                     ext.l      D0
00002E7A  E788                     lsl        D0, 3
00002E7C  D1C0                     add.l      A0, D0
00002E7E  3C28 F342                move.w     D6, [A0 - 0xCBE]
00002E82  9C6D F16E                sub.w      D6, [A5 - 0xE92]
00002E86  DD6D F16E                add.w      [A5 - 0xE92], D6
00002E8A  DD6D F172                add.w      [A5 - 0xE8E], D6
00002E8E  302D F16E                move.w     D0, [A5 - 0xE92]
00002E92  E948                     lsl        D0.w, 4
00002E94  3B40 F184                move.w     [A5 - 0xE7C], D0
00002E98  4A6D F18C                tst.w      [A5 - 0xE74]
00002E9C  6C0E                     bge        +0x10 /* 00002EAC */
00002E9E  302D F18C                move.w     D0, [A5 - 0xE74]
00002EA2  E240                     asr        D0.w, 1
00002EA4  4440                     neg.w      D0
00002EA6  3B40 F18C                move.w     [A5 - 0xE74], D0
00002EAA  600A                     bra        +0xC /* 00002EB6 */
label00002EAC:
00002EAC  302D F18C                move.w     D0, [A5 - 0xE74]
00002EB0  E240                     asr        D0.w, 1
00002EB2  3B40 F18C                move.w     [A5 - 0xE74], D0
label00002EB6:
00002EB6  2F3C 0008 0028           move.l     -[A7], 0x80028
00002EBC  4EBA 072A                jsr        [PC + 0x72A /* 000035E8 */]
00002EC0  588F                     addq.l     A7, 4
00002EC2  6000 01B8                bra        +0x1BA /* 0000307C */
label00002EC6:
00002EC6  3D6D F176 FFF2           move.w     [A6 - 0xE], [A5 - 0xE8A]
00002ECC  3D6D F17A FFF6           move.w     [A6 - 0xA], [A5 - 0xE86]
00002ED2  3D6D F16C FFF0           move.w     [A6 - 0x10], [A5 - 0xE94]
00002ED8  3D6D F170 FFF4           move.w     [A6 - 0xC], [A5 - 0xE90]
00002EDE  4227                     clr.b      -[A7]
00002EE0  486E FFF0                pea.l      [A6 - 0x10]
00002EE4  204D                     movea.l    A0, A5
00002EE6  2007                     move.l     D0, D7
00002EE8  48C0                     ext.l      D0
00002EEA  E788                     lsl        D0, 3
00002EEC  D1C0                     add.l      A0, D0
00002EEE  4868 F33C                pea.l      [A0 - 0xCC4]
00002EF2  486E FFE8                pea.l      [A6 - 0x18]
00002EF6  A8AA                     syscall    SectRect
00002EF8  4A1F                     tst.b      [A7]+
00002EFA  6700 0180                beq        +0x182 /* 0000307C */
00002EFE  302D F18A                move.w     D0, [A5 - 0xE76]
00002F02  B06D F186                cmp.w      D0, [A5 - 0xE7A]
00002F06  6C00 011C                bge        +0x11E /* 00003024 */
00002F0A  204D                     movea.l    A0, A5
00002F0C  2007                     move.l     D0, D7
00002F0E  48C0                     ext.l      D0
00002F10  E788                     lsl        D0, 3
00002F12  D1C0                     add.l      A0, D0
00002F14  3C2D F170                move.w     D6, [A5 - 0xE90]
00002F18  9C68 F33C                sub.w      D6, [A0 - 0xCC4]
00002F1C  9D6D F16C                sub.w      [A5 - 0xE94], D6
00002F20  9D6D F170                sub.w      [A5 - 0xE90], D6
00002F24  302D F16C                move.w     D0, [A5 - 0xE94]
00002F28  E948                     lsl        D0.w, 4
00002F2A  3B40 F186                move.w     [A5 - 0xE7A], D0
00002F2E  0C6D 0008 F18E           cmpi.w     [A5 - 0xE72], 0x8
00002F34  6F0C                     ble        +0xE /* 00002F42 */
00002F36  2F3C 0008 0028           move.l     -[A7], 0x80028
00002F3C  4EBA 06AA                jsr        [PC + 0x6AA /* 000035E8 */]
00002F40  588F                     addq.l     A7, 4
label00002F42:
00002F42  0C6D 0004 F192           cmpi.w     [A5 - 0xE6E], 0x4
00002F48  6600 00BA                bne        +0xBC /* 00003004 */
00002F4C  204D                     movea.l    A0, A5
00002F4E  2007                     move.l     D0, D7
00002F50  48C0                     ext.l      D0
00002F52  E788                     lsl        D0, 3
00002F54  D1C0                     add.l      A0, D0
00002F56  70F0                     moveq.l    D0, 0xFFFFFFF0
00002F58  D06D F172                add.w      D0, [A5 - 0xE8E]
00002F5C  B068 F342                cmp.w      D0, [A0 - 0xCBE]
00002F60  6F2A                     ble        +0x2C /* 00002F8C */
00002F62  3B7C 0010 F18C           move.w     [A5 - 0xE74], 0x10
00002F68  4A6D F18E                tst.w      [A5 - 0xE72]
00002F6C  6F10                     ble        +0x12 /* 00002F7E */
00002F6E  302D F18E                move.w     D0, [A5 - 0xE72]
00002F72  E240                     asr        D0.w, 1
00002F74  4440                     neg.w      D0
00002F76  3B40 F18E                move.w     [A5 - 0xE72], D0
00002F7A  6000 0100                bra        +0x102 /* 0000307C */
label00002F7E:
00002F7E  302D F18E                move.w     D0, [A5 - 0xE72]
00002F82  E240                     asr        D0.w, 1
00002F84  3B40 F18E                move.w     [A5 - 0xE72], D0
00002F88  6000 00F2                bra        +0xF4 /* 0000307C */
label00002F8C:
00002F8C  204D                     movea.l    A0, A5
00002F8E  2007                     move.l     D0, D7
00002F90  48C0                     ext.l      D0
00002F92  E788                     lsl        D0, 3
00002F94  D1C0                     add.l      A0, D0
00002F96  7010                     moveq.l    D0, 0x10
00002F98  D06D F16E                add.w      D0, [A5 - 0xE92]
00002F9C  B068 F33E                cmp.w      D0, [A0 - 0xCC2]
00002FA0  6C2A                     bge        +0x2C /* 00002FCC */
00002FA2  3B7C FFF0 F18C           move.w     [A5 - 0xE74], 0xFFF0
00002FA8  4A6D F18E                tst.w      [A5 - 0xE72]
00002FAC  6F10                     ble        +0x12 /* 00002FBE */
00002FAE  302D F18E                move.w     D0, [A5 - 0xE72]
00002FB2  E240                     asr        D0.w, 1
00002FB4  4440                     neg.w      D0
00002FB6  3B40 F18E                move.w     [A5 - 0xE72], D0
00002FBA  6000 00C0                bra        +0xC2 /* 0000307C */
label00002FBE:
00002FBE  302D F18E                move.w     D0, [A5 - 0xE72]
00002FC2  E240                     asr        D0.w, 1
00002FC4  3B40 F18E                move.w     [A5 - 0xE72], D0
00002FC8  6000 00B2                bra        +0xB4 /* 0000307C */
label00002FCC:
00002FCC  2F3C 0003 0073           move.l     -[A7], 0x30073
00002FD2  4EBA 0614                jsr        [PC + 0x614 /* 000035E8 */]
00002FD6  426D F18E                clr.w      [A5 - 0xE72]
00002FDA  3B7C 0007 F192           move.w     [A5 - 0xE6E], 0x7
00002FE0  3B7C 0016 F194           move.w     [A5 - 0xE6C], 0x16
00002FE6  70EA                     moveq.l    D0, 0xFFFFFFEA
00002FE8  D06D F170                add.w      D0, [A5 - 0xE90]
00002FEC  3B40 F16C                move.w     [A5 - 0xE94], D0
00002FF0  302D F16C                move.w     D0, [A5 - 0xE94]
00002FF4  E948                     lsl        D0.w, 4
00002FF6  3B40 F186                move.w     [A5 - 0xE7A], D0
00002FFA  3B7C 000A F190           move.w     [A5 - 0xE70], 0xA /* '\n' */
00003000  588F                     addq.l     A7, 4
00003002  6078                     bra        +0x7A /* 0000307C */
label00003004:
00003004  4A6D F18E                tst.w      [A5 - 0xE72]
00003008  6F0E                     ble        +0x10 /* 00003018 */
0000300A  302D F18E                move.w     D0, [A5 - 0xE72]
0000300E  E240                     asr        D0.w, 1
00003010  4440                     neg.w      D0
00003012  3B40 F18E                move.w     [A5 - 0xE72], D0
00003016  6064                     bra        +0x66 /* 0000307C */
label00003018:
00003018  302D F18E                move.w     D0, [A5 - 0xE72]
0000301C  E240                     asr        D0.w, 1
0000301E  3B40 F18E                move.w     [A5 - 0xE72], D0
00003022  6058                     bra        +0x5A /* 0000307C */
label00003024:
00003024  302D F18A                move.w     D0, [A5 - 0xE76]
00003028  B06D F186                cmp.w      D0, [A5 - 0xE7A]
0000302C  6F4E                     ble        +0x50 /* 0000307C */
0000302E  204D                     movea.l    A0, A5
00003030  2007                     move.l     D0, D7
00003032  48C0                     ext.l      D0
00003034  E788                     lsl        D0, 3
00003036  D1C0                     add.l      A0, D0
00003038  3C28 F340                move.w     D6, [A0 - 0xCC0]
0000303C  9C6D F16C                sub.w      D6, [A5 - 0xE94]
00003040  DD6D F16C                add.w      [A5 - 0xE94], D6
00003044  DD6D F170                add.w      [A5 - 0xE90], D6
00003048  302D F16C                move.w     D0, [A5 - 0xE94]
0000304C  E948                     lsl        D0.w, 4
0000304E  3B40 F186                move.w     [A5 - 0xE7A], D0
00003052  2F3C 0008 0028           move.l     -[A7], 0x80028
00003058  4EBA 058E                jsr        [PC + 0x58E /* 000035E8 */]
0000305C  4A6D F18E                tst.w      [A5 - 0xE72]
00003060  588F                     addq.l     A7, 4
00003062  6C0E                     bge        +0x10 /* 00003072 */
00003064  302D F18E                move.w     D0, [A5 - 0xE72]
00003068  E240                     asr        D0.w, 1
0000306A  4440                     neg.w      D0
0000306C  3B40 F18E                move.w     [A5 - 0xE72], D0
00003070  600A                     bra        +0xC /* 0000307C */
label00003072:
00003072  302D F18E                move.w     D0, [A5 - 0xE72]
00003076  E240                     asr        D0.w, 1
00003078  3B40 F18E                move.w     [A5 - 0xE72], D0
label0000307C:
0000307C  5247                     addq.w     D7, 1
label0000307E:
0000307E  BE6D F48C                cmp.w      D7, [A5 - 0xB74]
00003082  6D00 FD40                blt        -0x2BE /* 00002DC4 */
00003086  4CDF 00C0                movem.l    D6,D7, [A7]+
0000308A  4E5E                     unlink     A6
0000308C  4E75                     rts
fn0000308E:
0000308E  4E56 FFF8                link       A6, -0x0008
00003092  48E7 0300                movem.l    -[A7], D6,D7
00003096  7E00                     moveq.l    D7, 0x00
00003098  604C                     bra        +0x4E /* 000030E6 */
label0000309A:
0000309A  4227                     clr.b      -[A7]
0000309C  486D F16C                pea.l      [A5 - 0xE94]
000030A0  204D                     movea.l    A0, A5
000030A2  2007                     move.l     D0, D7
000030A4  48C0                     ext.l      D0
000030A6  E788                     lsl        D0, 3
000030A8  D1C0                     add.l      A0, D0
000030AA  4868 F33C                pea.l      [A0 - 0xCC4]
000030AE  486E FFF8                pea.l      [A6 - 0x8]
000030B2  A8AA                     syscall    SectRect
000030B4  4A1F                     tst.b      [A7]+
000030B6  672C                     beq        +0x2E /* 000030E4 */
000030B8  4A6D F18E                tst.w      [A5 - 0xE72]
000030BC  6F26                     ble        +0x28 /* 000030E4 */
000030BE  204D                     movea.l    A0, A5
000030C0  2007                     move.l     D0, D7
000030C2  48C0                     ext.l      D0
000030C4  E788                     lsl        D0, 3
000030C6  D1C0                     add.l      A0, D0
000030C8  3C2D F170                move.w     D6, [A5 - 0xE90]
000030CC  9C68 F33C                sub.w      D6, [A0 - 0xCC4]
000030D0  5346                     subq.w     D6, 1
000030D2  9D6D F16C                sub.w      [A5 - 0xE94], D6
000030D6  9D6D F170                sub.w      [A5 - 0xE90], D6
000030DA  302D F16C                move.w     D0, [A5 - 0xE94]
000030DE  E948                     lsl        D0.w, 4
000030E0  3B40 F186                move.w     [A5 - 0xE7A], D0
label000030E4:
000030E4  5247                     addq.w     D7, 1
label000030E6:
000030E6  BE6D F48C                cmp.w      D7, [A5 - 0xB74]
000030EA  6DAE                     blt        -0x50 /* 0000309A */
000030EC  4A6D F18E                tst.w      [A5 - 0xE72]
000030F0  6F04                     ble        +0x6 /* 000030F6 */
000030F2  426D F18E                clr.w      [A5 - 0xE72]
label000030F6:
000030F6  4CDF 00C0                movem.l    D6,D7, [A7]+
000030FA  4E5E                     unlink     A6
000030FC  4E75                     rts
fn000030FE:
000030FE  2F07                     move.l     -[A7], D7
00003100  0C6D 01C8 F170           cmpi.w     [A5 - 0xE90], 0x1C8
00003106  6F2A                     ble        +0x2C /* 00003132 */
00003108  0C6D 0004 F192           cmpi.w     [A5 - 0xE6E], 0x4
0000310E  660E                     bne        +0x10 /* 0000311E */
00003110  2F3C 0005 004B           move.l     -[A7], 0x5004B
00003116  4EBA 04D0                jsr        [PC + 0x4D0 /* 000035E8 */]
0000311A  588F                     addq.l     A7, 4
0000311C  600C                     bra        +0xE /* 0000312A */
label0000311E:
0000311E  2F3C 0001 0050           move.l     -[A7], 0x10050
00003124  4EBA 04C2                jsr        [PC + 0x4C2 /* 000035E8 */]
00003128  588F                     addq.l     A7, 4
label0000312A:
0000312A  3B7C 0002 F192           move.w     [A5 - 0xE6E], 0x2
00003130  603A                     bra        +0x3C /* 0000316C */
label00003132:
00003132  0C6D 0002 F16C           cmpi.w     [A5 - 0xE94], 0x2
00003138  6C32                     bge        +0x34 /* 0000316C */
0000313A  7E02                     moveq.l    D7, 0x02
0000313C  9E6D F16C                sub.w      D7, [A5 - 0xE94]
00003140  DF6D F16C                add.w      [A5 - 0xE94], D7
00003144  DF6D F170                add.w      [A5 - 0xE90], D7
00003148  302D F16C                move.w     D0, [A5 - 0xE94]
0000314C  E948                     lsl        D0.w, 4
0000314E  3B40 F186                move.w     [A5 - 0xE7A], D0
00003152  2F3C 0008 0028           move.l     -[A7], 0x80028
00003158  4EBA 048E                jsr        [PC + 0x48E /* 000035E8 */]
0000315C  302D F18E                move.w     D0, [A5 - 0xE72]
00003160  48C0                     ext.l      D0
00003162  81FC FFFE                divs.w     D0, 0xFFFE
00003166  3B40 F18E                move.w     [A5 - 0xE72], D0
0000316A  588F                     addq.l     A7, 4
label0000316C:
0000316C  2E1F                     move.l     D7, [A7]+
0000316E  4E75                     rts
fn00003170:
00003170  48E7 0300                movem.l    -[A7], D6,D7
00003174  3E2D F170                move.w     D7, [A5 - 0xE90]
00003178  9E6D F16C                sub.w      D7, [A5 - 0xE94]
0000317C  3C2D F172                move.w     D6, [A5 - 0xE8E]
00003180  9C6D F16E                sub.w      D6, [A5 - 0xE92]
00003184  302D F184                move.w     D0, [A5 - 0xE7C]
00003188  E840                     asr        D0.w, 4
0000318A  3B40 F16E                move.w     [A5 - 0xE92], D0
0000318E  302D F16E                move.w     D0, [A5 - 0xE92]
00003192  D046                     add.w      D0, D6
00003194  3B40 F172                move.w     [A5 - 0xE8E], D0
00003198  302D F186                move.w     D0, [A5 - 0xE7A]
0000319C  E840                     asr        D0.w, 4
0000319E  3B40 F16C                move.w     [A5 - 0xE94], D0
000031A2  302D F16C                move.w     D0, [A5 - 0xE94]
000031A6  D047                     add.w      D0, D7
000031A8  3B40 F170                move.w     [A5 - 0xE90], D0
000031AC  0C6D 0280 F16E           cmpi.w     [A5 - 0xE92], 0x280
000031B2  6F24                     ble        +0x26 /* 000031D8 */
000031B4  486D F16C                pea.l      [A5 - 0xE94]
000031B8  2F3C 0000 FD80           move.l     -[A7], 0xFD80
000031BE  A8A8                     syscall    OffsetRect
000031C0  302D F16E                move.w     D0, [A5 - 0xE92]
000031C4  E948                     lsl        D0.w, 4
000031C6  3B40 F184                move.w     [A5 - 0xE7C], D0
000031CA  486D F174                pea.l      [A5 - 0xE8C]
000031CE  2F3C 0000 FD80           move.l     -[A7], 0xFD80
000031D4  A8A8                     syscall    OffsetRect
000031D6  6024                     bra        +0x26 /* 000031FC */
label000031D8:
000031D8  4A6D F172                tst.w      [A5 - 0xE8E]
000031DC  6C1E                     bge        +0x20 /* 000031FC */
000031DE  486D F16C                pea.l      [A5 - 0xE94]
000031E2  4878 0280                push.l     0x280
000031E6  A8A8                     syscall    OffsetRect
000031E8  302D F16E                move.w     D0, [A5 - 0xE92]
000031EC  E948                     lsl        D0.w, 4
000031EE  3B40 F184                move.w     [A5 - 0xE7C], D0
000031F2  486D F174                pea.l      [A5 - 0xE8C]
000031F6  4878 0280                push.l     0x280
000031FA  A8A8                     syscall    OffsetRect
label000031FC:
000031FC  4CDF 00C0                movem.l    D6,D7, [A7]+
00003200  4E75                     rts
fn00003202:
00003202  4A6D F498                tst.w      [A5 - 0xB68]
00003206  6F24                     ble        +0x26 /* 0000322C */
00003208  0C6D 0005 F498           cmpi.w     [A5 - 0xB68], 0x5
0000320E  660A                     bne        +0xC /* 0000321A */
00003210  1F3C 0001                move.b     -[A7], 0x1
00003214  4EBA D938                jsr        [PC - 0x26C8 /* 00000B4E */]
00003218  548F                     addq.l     A7, 2
label0000321A:
0000321A  3F2D F496                move.w     -[A7], [A5 - 0xB6A]
0000321E  3F2D F494                move.w     -[A7], [A5 - 0xB6C]
00003222  4EBA D838                jsr        [PC - 0x27C8 /* 00000A5C */]
00003226  4EBA D9AE                jsr        [PC - 0x2652 /* 00000BD6 */]
0000322A  588F                     addq.l     A7, 4
label0000322C:
0000322C  4E75                     rts
fn0000322E:
0000322E  4A6D F498                tst.w      [A5 - 0xB68]
00003232  6F22                     ble        +0x24 /* 00003256 */
00003234  4EBA D9A0                jsr        [PC - 0x2660 /* 00000BD6 */]
00003238  536D F498                subq.w     [A5 - 0xB68], 1
0000323C  4A6D F498                tst.w      [A5 - 0xB68]
00003240  6608                     bne        +0xA /* 0000324A */
00003242  4227                     clr.b      -[A7]
00003244  4EBA D908                jsr        [PC - 0x26F8 /* 00000B4E */]
00003248  548F                     addq.l     A7, 2
label0000324A:
0000324A  2F3C 0009 0064           move.l     -[A7], 0x90064 /* '\t\0d' */
00003250  4EBA 0396                jsr        [PC + 0x396 /* 000035E8 */]
00003254  588F                     addq.l     A7, 4
label00003256:
00003256  4E75                     rts
fn00003258:
00003258  4A6D F49C                tst.w      [A5 - 0xB64]
0000325C  671E                     beq        +0x20 /* 0000327C */
0000325E  536D F49C                subq.w     [A5 - 0xB64], 1
00003262  4A6D F49C                tst.w      [A5 - 0xB64]
00003266  6614                     bne        +0x16 /* 0000327C */
00003268  426D F49C                clr.w      [A5 - 0xB64]
0000326C  526D F490                addq.w     [A5 - 0xB70], 1
00003270  4EBA D6AC                jsr        [PC - 0x2954 /* 0000091E */]
00003274  4EBA F22E                jsr        [PC - 0xDD2 /* 000024A4 */]
00003278  4EAD 0162                jsr        [A5 + 0x162 /* export_40, CODE:4 @ 00000456 */]
label0000327C:
0000327C  4E75                     rts
fn0000327E:
0000327E  4E56 FFFC                link       A6, -0x0004
00003282  2F07                     move.l     -[A7], D7
00003284  426E FFFE                clr.w      [A6 - 0x2]
00003288  3D7C 0014 FFFC           move.w     [A6 - 0x4], 0x14
0000328E  486D EF32                pea.l      [A5 - 0x10CE]
00003292  2F2E FFFC                move.l     -[A7], [A6 - 0x4]
00003296  A855                     syscall    ShieldCursor
00003298  42A7                     clr.l      -[A7]
0000329A  A975                     syscall    TickCount
0000329C  7E02                     moveq.l    D7, 0x02
0000329E  DE9F                     add.l      D7, [A7]+
label000032A0:
000032A0  4EBA F9EA                jsr        [PC - 0x616 /* 00002C8C */]
000032A4  4EAD 016A                jsr        [A5 + 0x16A /* export_41, CODE:4 @ 000018EC */]
000032A8  4EAD 017A                jsr        [A5 + 0x17A /* export_43, CODE:4 @ 000019C6 */]
000032AC  4EAD 018A                jsr        [A5 + 0x18A /* export_45, CODE:4 @ 00001BB2 */]
000032B0  4EBA E854                jsr        [PC - 0x17AC /* 00001B06 */]
000032B4  4EBA FF4C                jsr        [PC - 0xB4 /* 00003202 */]
label000032B8:
000032B8  42A7                     clr.l      -[A7]
000032BA  A975                     syscall    TickCount
000032BC  BE9F                     cmp.l      D7, [A7]+
000032BE  62F8                     bhi        -0x6 /* 000032B8 */
000032C0  42A7                     clr.l      -[A7]
000032C2  A975                     syscall    TickCount
000032C4  7E02                     moveq.l    D7, 0x02
000032C6  DE9F                     add.l      D7, [A7]+
000032C8  4A2D F4A1                tst.b      [A5 - 0xB5F]
000032CC  57C0                     seq        D0
000032CE  4400                     neg.b      D0
000032D0  1B40 F4A1                move.b     [A5 - 0xB5F], D0
000032D4  4EBA F49A                jsr        [PC - 0xB66 /* 00002770 */]
000032D8  4EBA FF7E                jsr        [PC - 0x82 /* 00003258 */]
000032DC  4EBA FF50                jsr        [PC - 0xB0 /* 0000322E */]
000032E0  4A2D F49E                tst.b      [A5 - 0xB62]
000032E4  6706                     beq        +0x8 /* 000032EC */
000032E6  4A2D F49F                tst.b      [A5 - 0xB61]
000032EA  67B4                     beq        -0x4A /* 000032A0 */
label000032EC:
000032EC  4A2D F49E                tst.b      [A5 - 0xB62]
000032F0  6616                     bne        +0x18 /* 00003308 */
000032F2  4A2D EF4B                tst.b      [A5 - 0x10B5]
000032F6  6610                     bne        +0x12 /* 00003308 */
000032F8  2F3C 000A 0078           move.l     -[A7], 0xA0078 /* '\n\0x' */
000032FE  4EBA 02E8                jsr        [PC + 0x2E8 /* 000035E8 */]
00003302  4EBA 001A                jsr        [PC + 0x1A /* 0000331E */]
00003306  588F                     addq.l     A7, 4
label00003308:
00003308  A853                     syscall    ShowCursor
0000330A  4EBA E818                jsr        [PC - 0x17E8 /* 00001B24 */]
0000330E  2F3C 0000 FFFF           move.l     -[A7], 0xFFFF
00003314  201F                     move.l     D0, [A7]+
00003316  A032                     syscall    FlushEvents
00003318  2E1F                     move.l     D7, [A7]+
0000331A  4E5E                     unlink     A6
0000331C  4E75                     rts
fn0000331E:
0000331E  4E56 FDFE                link       A6, -0x0202
00003322  48E7 0308                movem.l    -[A7], D6,D7,A4
00003326  202D F484                move.l     D0, [A5 - 0xB7C]
0000332A  B0AD F140                cmp.l      D0, [A5 - 0xEC0]
0000332E  6F00 0174                ble        +0x176 /* 000034A4 */
00003332  1B7C 0001 EF4D           move.b     [A5 - 0x10B3], 0x1
00003338  2F3C 0002 0077           move.l     -[A7], 0x20077
0000333E  4EBA 02A8                jsr        [PC + 0x2A8 /* 000035E8 */]
00003342  7E08                     moveq.l    D7, 0x08
00003344  588F                     addq.l     A7, 4
00003346  6052                     bra        +0x54 /* 0000339A */
label00003348:
00003348  204D                     movea.l    A0, A5
0000334A  2007                     move.l     D0, D7
0000334C  48C0                     ext.l      D0
0000334E  E588                     lsl        D0, 2
00003350  D1C0                     add.l      A0, D0
00003352  224D                     movea.l    A1, A5
00003354  2007                     move.l     D0, D7
00003356  48C0                     ext.l      D0
00003358  E588                     lsl        D0, 2
0000335A  D3C0                     add.l      A1, D0
0000335C  2368 F11C F120           move.l     [A1 - 0xEE0], [A0 - 0xEE4]
00003362  204D                     movea.l    A0, A5
00003364  D0C7                     add.w      A0, D7
00003366  D0C7                     add.w      A0, D7
00003368  224D                     movea.l    A1, A5
0000336A  D2C7                     add.w      A1, D7
0000336C  D2C7                     add.w      A1, D7
0000336E  3368 F144 F146           move.w     [A1 - 0xEBA], [A0 - 0xEBC]
00003374  2007                     move.l     D0, D7
00003376  5240                     addq.w     D0, 1
00003378  48C0                     ext.l      D0
0000337A  E988                     lsl        D0, 4
0000337C  204D                     movea.l    A0, A5
0000337E  D1C0                     add.l      A0, D0
00003380  4868 F07C                pea.l      [A0 - 0xF84]
00003384  2007                     move.l     D0, D7
00003386  48C0                     ext.l      D0
00003388  E988                     lsl        D0, 4
0000338A  204D                     movea.l    A0, A5
0000338C  D1C0                     add.l      A0, D0
0000338E  4868 F07C                pea.l      [A0 - 0xF84]
00003392  4EBA 09B4                jsr        [PC + 0x9B4 /* 00003D48 */]
00003396  5347                     subq.w     D7, 1
00003398  508F                     addq.l     A7, 8
label0000339A:
0000339A  204D                     movea.l    A0, A5
0000339C  2007                     move.l     D0, D7
0000339E  48C0                     ext.l      D0
000033A0  E588                     lsl        D0, 2
000033A2  D1C0                     add.l      A0, D0
000033A4  202D F484                move.l     D0, [A5 - 0xB7C]
000033A8  B0A8 F11C                cmp.l      D0, [A0 - 0xEE4]
000033AC  6F04                     ble        +0x6 /* 000033B2 */
000033AE  4A47                     tst.w      D7
000033B0  6C96                     bge        -0x68 /* 00003348 */
label000033B2:
000033B2  5247                     addq.w     D7, 1
000033B4  204D                     movea.l    A0, A5
000033B6  2007                     move.l     D0, D7
000033B8  48C0                     ext.l      D0
000033BA  E588                     lsl        D0, 2
000033BC  D1C0                     add.l      A0, D0
000033BE  216D F484 F11C           move.l     [A0 - 0xEE4], [A5 - 0xB7C]
000033C4  7001                     moveq.l    D0, 0x01
000033C6  D06D F490                add.w      D0, [A5 - 0xB70]
000033CA  204D                     movea.l    A0, A5
000033CC  D0C7                     add.w      A0, D7
000033CE  D0C7                     add.w      A0, D7
000033D0  3140 F144                move.w     [A0 - 0xEBC], D0
000033D4  3047                     movea.w    A0, D7
000033D6  4868 0001                pea.l      [A0 + 0x1]
000033DA  486E FF00                pea.l      [A6 - 0x100]
000033DE  4EAD 0142                jsr        [A5 + 0x142 /* export_36, CODE:4 @ 000026B2 */]
000033E2  486E FF00                pea.l      [A6 - 0x100]
000033E6  486D F4A4                pea.l      [A5 - 0xB5C]
000033EA  486D F4A6                pea.l      [A5 - 0xB5A]
000033EE  486D F4A8                pea.l      [A5 - 0xB58]
000033F2  A98B                     syscall    ParamText
000033F4  A850                     syscall    InitCursor
000033F6  3F3C 0082                move.w     -[A7], 0x82
000033FA  4EBA 098C                jsr        [PC + 0x98C /* 00003D88 */]
000033FE  42A7                     clr.l      -[A7]
00003400  3F3C 0082                move.w     -[A7], 0x82
00003404  42A7                     clr.l      -[A7]
00003406  4878 FFFF                push.l     0xFFFF
0000340A  A97C                     syscall    GetNewDialog
0000340C  285F                     movea.l    A4, [A7]+
0000340E  2F0C                     move.l     -[A7], A4
00003410  A873                     syscall    SetPort
00003412  2F0C                     move.l     -[A7], A4
00003414  A915                     syscall    ShowWindow
00003416  2F0C                     move.l     -[A7], A4
00003418  4EBA 0A18                jsr        [PC + 0xA18 /* 00003E32 */]
0000341C  2EBC 0000 FFFF           move.l     [A7], 0xFFFF
00003422  201F                     move.l     D0, [A7]+
00003424  A032                     syscall    FlushEvents
00003426  486D EF7C                pea.l      [A5 - 0x1084]
0000342A  3F3C 0002                move.w     -[A7], 0x2
0000342E  2F0C                     move.l     -[A7], A4
00003430  4EBA 0AA2                jsr        [PC + 0xAA2 /* 00003ED4 */]
00003434  2E8C                     move.l     [A7], A4
00003436  4878 0002                push.l     0x2
0000343A  3F3C 0400                move.w     -[A7], 0x400
0000343E  A97E                     syscall    SelectDialogItemText/SelIText
00003440  7C00                     moveq.l    D6, 0x00
00003442  508F                     addq.l     A7, 8
00003444  6054                     bra        +0x56 /* 0000349A */
label00003446:
00003446  42A7                     clr.l      -[A7]
00003448  486E FDFE                pea.l      [A6 - 0x202]
0000344C  A991                     syscall    ModalDialog
0000344E  0C6E 0001 FDFE           cmpi.w     [A6 - 0x202], 0x1
00003454  6644                     bne        +0x46 /* 0000349A */
00003456  486E FE00                pea.l      [A6 - 0x200]
0000345A  3F3C 0002                move.w     -[A7], 0x2
0000345E  2F0C                     move.l     -[A7], A4
00003460  4EBA 0A4A                jsr        [PC + 0xA4A /* 00003EAC */]
00003464  3EBC 000F                move.w     [A7], 0xF
00003468  2007                     move.l     D0, D7
0000346A  48C0                     ext.l      D0
0000346C  E988                     lsl        D0, 4
0000346E  204D                     movea.l    A0, A5
00003470  D1C0                     add.l      A0, D0
00003472  4868 F07C                pea.l      [A0 - 0xF84]
00003476  486E FE00                pea.l      [A6 - 0x200]
0000347A  4EBA 09F6                jsr        [PC + 0x9F6 /* 00003E72 */]
0000347E  486D EF7C                pea.l      [A5 - 0x1084]
00003482  2007                     move.l     D0, D7
00003484  48C0                     ext.l      D0
00003486  E988                     lsl        D0, 4
00003488  204D                     movea.l    A0, A5
0000348A  D1C0                     add.l      A0, D0
0000348C  4868 F07C                pea.l      [A0 - 0xF84]
00003490  4EBA 08B6                jsr        [PC + 0x8B6 /* 00003D48 */]
00003494  7C01                     moveq.l    D6, 0x01
00003496  4FEF 001A                lea.l      A7, [A7 + 0x1A]
label0000349A:
0000349A  4A06                     tst.b      D6
0000349C  67A8                     beq        -0x56 /* 00003446 */
0000349E  2F0C                     move.l     -[A7], A4
000034A0  A983                     syscall    DisposeDialog
000034A2  6004                     bra        +0x6 /* 000034A8 */
label000034A4:
000034A4  422D EF4D                clr.b      [A5 - 0x10B3]
label000034A8:
000034A8  4CDF 10C0                movem.l    D6,D7,A4, [A7]+
000034AC  4E5E                     unlink     A6
000034AE  4E75                     rts
fn000034B0:
000034B0  4E56 FFF8                link       A6, -0x0008
000034B4  2F07                     move.l     -[A7], D7
000034B6  3D7C 0004 FFF8           move.w     [A6 - 0x8], 0x4
000034BC  426E FFFA                clr.w      [A6 - 0x6]
000034C0  42AE FFFC                clr.l      [A6 - 0x4]
000034C4  4267                     clr.w      -[A7]
000034C6  2F2D FDF6                move.l     -[A7], [A5 - 0x20A]
000034CA  486E FFF8                pea.l      [A6 - 0x8]
000034CE  A804                     syscall    SndDoImmediate
000034D0  3E1F                     move.w     D7, [A7]+
000034D2  3D7C 0003 FFF8           move.w     [A6 - 0x8], 0x3
000034D8  426E FFFA                clr.w      [A6 - 0x6]
000034DC  42AE FFFC                clr.l      [A6 - 0x4]
000034E0  4267                     clr.w      -[A7]
000034E2  2F2D FDF6                move.l     -[A7], [A5 - 0x20A]
000034E6  486E FFF8                pea.l      [A6 - 0x8]
000034EA  A804                     syscall    SndDoImmediate
000034EC  3E1F                     move.w     D7, [A7]+
000034EE  3B6E 000A FE42           move.w     [A5 - 0x1BE], [A6 + 0xA]
000034F4  3D7C 0051 FFF8           move.w     [A6 - 0x8], 0x51 /* 'Q' */
000034FA  426E FFFA                clr.w      [A6 - 0x6]
000034FE  204D                     movea.l    A0, A5
00003500  302E 0008                move.w     D0, [A6 + 0x8]
00003504  48C0                     ext.l      D0
00003506  E588                     lsl        D0, 2
00003508  D1C0                     add.l      A0, D0
0000350A  2D68 FDFE FFFC           move.l     [A6 - 0x4], [A0 - 0x202]
00003510  4267                     clr.w      -[A7]
00003512  2F2D FDF6                move.l     -[A7], [A5 - 0x20A]
00003516  486E FFF8                pea.l      [A6 - 0x8]
0000351A  A804                     syscall    SndDoImmediate
0000351C  3E1F                     move.w     D7, [A7]+
0000351E  3D7C 000D FFF8           move.w     [A6 - 0x8], 0xD /* '\r' */
00003524  3D7C 0391 FFFA           move.w     [A6 - 0x6], 0x391
0000352A  200D                     move.l     D0, A5
0000352C  2A78 0904                movea.l    A5, [0x00000904 /* CurrentA5 */]
00003530  2D40 FFFC                move.l     [A6 - 0x4], D0
00003534  4267                     clr.w      -[A7]
00003536  2F2D FDF6                move.l     -[A7], [A5 - 0x20A]
0000353A  486E FFF8                pea.l      [A6 - 0x8]
0000353E  1F3C 0001                move.b     -[A7], 0x1
00003542  A803                     syscall    SndDoCommand
00003544  3E1F                     move.w     D7, [A7]+
00003546  2E1F                     move.l     D7, [A7]+
00003548  4E5E                     unlink     A6
0000354A  4E75                     rts
fn0000354C:
0000354C  4E56 FFF8                link       A6, -0x0008
00003550  2F07                     move.l     -[A7], D7
00003552  3D7C 0004 FFF8           move.w     [A6 - 0x8], 0x4
00003558  426E FFFA                clr.w      [A6 - 0x6]
0000355C  42AE FFFC                clr.l      [A6 - 0x4]
00003560  4267                     clr.w      -[A7]
00003562  2F2D FDFA                move.l     -[A7], [A5 - 0x206]
00003566  486E FFF8                pea.l      [A6 - 0x8]
0000356A  A804                     syscall    SndDoImmediate
0000356C  3E1F                     move.w     D7, [A7]+
0000356E  3D7C 0003 FFF8           move.w     [A6 - 0x8], 0x3
00003574  426E FFFA                clr.w      [A6 - 0x6]
00003578  42AE FFFC                clr.l      [A6 - 0x4]
0000357C  4267                     clr.w      -[A7]
0000357E  2F2D FDFA                move.l     -[A7], [A5 - 0x206]
00003582  486E FFF8                pea.l      [A6 - 0x8]
00003586  A804                     syscall    SndDoImmediate
00003588  3E1F                     move.w     D7, [A7]+
0000358A  3B6E 000A FE44           move.w     [A5 - 0x1BC], [A6 + 0xA]
00003590  3D7C 0051 FFF8           move.w     [A6 - 0x8], 0x51 /* 'Q' */
00003596  426E FFFA                clr.w      [A6 - 0x6]
0000359A  204D                     movea.l    A0, A5
0000359C  302E 0008                move.w     D0, [A6 + 0x8]
000035A0  48C0                     ext.l      D0
000035A2  E588                     lsl        D0, 2
000035A4  D1C0                     add.l      A0, D0
000035A6  2D68 FDFE FFFC           move.l     [A6 - 0x4], [A0 - 0x202]
000035AC  4267                     clr.w      -[A7]
000035AE  2F2D FDFA                move.l     -[A7], [A5 - 0x206]
000035B2  486E FFF8                pea.l      [A6 - 0x8]
000035B6  A804                     syscall    SndDoImmediate
000035B8  3E1F                     move.w     D7, [A7]+
000035BA  3D7C 000D FFF8           move.w     [A6 - 0x8], 0xD /* '\r' */
000035C0  3D7C 02ED FFFA           move.w     [A6 - 0x6], 0x2ED
000035C6  200D                     move.l     D0, A5
000035C8  2A78 0904                movea.l    A5, [0x00000904 /* CurrentA5 */]
000035CC  2D40 FFFC                move.l     [A6 - 0x4], D0
000035D0  4267                     clr.w      -[A7]
000035D2  2F2D FDFA                move.l     -[A7], [A5 - 0x206]
000035D6  486E FFF8                pea.l      [A6 - 0x8]
000035DA  1F3C 0001                move.b     -[A7], 0x1
000035DE  A803                     syscall    SndDoCommand
000035E0  3E1F                     move.w     D7, [A7]+
000035E2  2E1F                     move.l     D7, [A7]+
000035E4  4E5E                     unlink     A6
000035E6  4E75                     rts
export_13:
fn000035E8:
000035E8  4E56 0000                link       A6, 0
000035EC  48E7 0300                movem.l    -[A7], D6,D7
000035F0  3E2E 0008                move.w     D7, [A6 + 0x8]
000035F4  3C2E 000A                move.w     D6, [A6 + 0xA]
000035F8  4A47                     tst.w      D7
000035FA  6D38                     blt        +0x3A /* 00003634 */
000035FC  0C47 0011                cmpi.w     D7, 0x11
00003600  6C32                     bge        +0x34 /* 00003634 */
00003602  4A2D FE47                tst.b      [A5 - 0x1B9]
00003606  672C                     beq        +0x2E /* 00003634 */
00003608  302D FE42                move.w     D0, [A5 - 0x1BE]
0000360C  B06D FE44                cmp.w      D0, [A5 - 0x1BC]
00003610  6C12                     bge        +0x14 /* 00003624 */
00003612  BC6D FE42                cmp.w      D6, [A5 - 0x1BE]
00003616  6D1C                     blt        +0x1E /* 00003634 */
00003618  3F06                     move.w     -[A7], D6
0000361A  3F07                     move.w     -[A7], D7
0000361C  4EBA FE92                jsr        [PC - 0x16E /* 000034B0 */]
00003620  588F                     addq.l     A7, 4
00003622  6010                     bra        +0x12 /* 00003634 */
label00003624:
00003624  BC6D FE44                cmp.w      D6, [A5 - 0x1BC]
00003628  6D0A                     blt        +0xC /* 00003634 */
0000362A  3F06                     move.w     -[A7], D6
0000362C  3F07                     move.w     -[A7], D7
0000362E  4EBA FF1C                jsr        [PC - 0xE4 /* 0000354C */]
00003632  588F                     addq.l     A7, 4
label00003634:
00003634  4CDF 00C0                movem.l    D6,D7, [A7]+
00003638  4E5E                     unlink     A6
0000363A  4E75                     rts
export_14:
0000363C  4E56 FFF8                link       A6, -0x0008
00003640  48E7 0300                movem.l    -[A7], D6,D7
00003644  206E 0008                movea.l    A0, [A6 + 0x8]
00003648  2D50 FFF8                move.l     [A6 - 0x8], [A0]
0000364C  2D68 0004 FFFC           move.l     [A6 - 0x4], [A0 + 0x4]
00003652  0C6E 0391 FFFA           cmpi.w     [A6 - 0x6], 0x391
00003658  6614                     bne        +0x16 /* 0000366E */
0000365A  2C2E FFFC                move.l     D6, [A6 - 0x4]
0000365E  2006                     move.l     D0, D6
00003660  C18D                     exg        D0, A5
00003662  2E00                     move.l     D7, D0
00003664  426D FE42                clr.w      [A5 - 0x1BE]
00003668  2007                     move.l     D0, D7
0000366A  C18D                     exg        D0, A5
0000366C  2E00                     move.l     D7, D0
label0000366E:
0000366E  4CDF 00C0                movem.l    D6,D7, [A7]+
00003672  4E5E                     unlink     A6
00003674  205F                     movea.l    A0, [A7]+
00003676  508F                     addq.l     A7, 8
00003678  4ED0                     jmp        [A0]
export_15:
0000367A  4E56 FFF8                link       A6, -0x0008
0000367E  48E7 0300                movem.l    -[A7], D6,D7
00003682  206E 0008                movea.l    A0, [A6 + 0x8]
00003686  2D50 FFF8                move.l     [A6 - 0x8], [A0]
0000368A  2D68 0004 FFFC           move.l     [A6 - 0x4], [A0 + 0x4]
00003690  0C6E 02ED FFFA           cmpi.w     [A6 - 0x6], 0x2ED
00003696  6614                     bne        +0x16 /* 000036AC */
00003698  2C2E FFFC                move.l     D6, [A6 - 0x4]
0000369C  2006                     move.l     D0, D6
0000369E  C18D                     exg        D0, A5
000036A0  2E00                     move.l     D7, D0
000036A2  426D FE44                clr.w      [A5 - 0x1BC]
000036A6  2007                     move.l     D0, D7
000036A8  C18D                     exg        D0, A5
000036AA  2E00                     move.l     D7, D0
label000036AC:
000036AC  4CDF 00C0                movem.l    D6,D7, [A7]+
000036B0  4E5E                     unlink     A6
000036B2  205F                     movea.l    A0, [A7]+
000036B4  508F                     addq.l     A7, 8
000036B6  4ED0                     jmp        [A0]
fn000036B8:
000036B8  48E7 0708                movem.l    -[A7], D5,D6,D7,A4
000036BC  7C00                     moveq.l    D6, 0x00
000036BE  7A00                     moveq.l    D5, 0x00
000036C0  6000 0086                bra        +0x88 /* 00003748 */
label000036C4:
000036C4  42A7                     clr.l      -[A7]
000036C6  2F3C 736E 6420           move.l     -[A7], 0x736E6420 /* 'snd ' */
000036CC  3005                     move.w     D0, D5
000036CE  0640 03E8                addi.w     D0, 0x3E8
000036D2  3F00                     move.w     -[A7], D0
000036D4  A9A0                     syscall    GetResource
000036D6  285F                     movea.l    A4, [A7]+
000036D8  200C                     move.l     D0, A4
000036DA  6608                     bne        +0xA /* 000036E4 */
000036DC  4267                     clr.w      -[A7]
000036DE  A9AF                     syscall    ResError
000036E0  301F                     move.w     D0, [A7]+
000036E2  606E                     bra        +0x70 /* 00003752 */
label000036E4:
000036E4  204C                     movea.l    A0, A4
000036E6  A029                     syscall    HLock
000036E8  42A7                     clr.l      -[A7]
000036EA  2F0C                     move.l     -[A7], A4
000036EC  4EAD 00F2                jsr        [A5 + 0xF2 /* export_26, CODE:4 @ 00002556 */]
000036F0  7EEC                     moveq.l    D7, 0xFFFFFFEC
000036F2  DE9F                     add.l      D7, [A7]+
000036F4  204C                     movea.l    A0, A4
000036F6  A02A                     syscall    HUnlock
000036F8  2007                     move.l     D0, D7
000036FA  A11E                     syscall    NewPtr, flags=1
000036FC  224D                     movea.l    A1, A5
000036FE  2005                     move.l     D0, D5
00003700  48C0                     ext.l      D0
00003702  E588                     lsl        D0, 2
00003704  D3C0                     add.l      A1, D0
00003706  2348 FDFE                move.l     [A1 - 0x202], A0
0000370A  204D                     movea.l    A0, A5
0000370C  2005                     move.l     D0, D5
0000370E  48C0                     ext.l      D0
00003710  E588                     lsl        D0, 2
00003712  D1C0                     add.l      A0, D0
00003714  4AA8 FDFE                tst.l      [A0 - 0x202]
00003718  6608                     bne        +0xA /* 00003722 */
0000371A  4267                     clr.w      -[A7]
0000371C  A9AF                     syscall    ResError
0000371E  301F                     move.w     D0, [A7]+
00003720  6030                     bra        +0x32 /* 00003752 */
label00003722:
00003722  204C                     movea.l    A0, A4
00003724  A029                     syscall    HLock
00003726  7014                     moveq.l    D0, 0x14
00003728  D094                     add.l      D0, [A4]
0000372A  2040                     movea.l    A0, D0
0000372C  224D                     movea.l    A1, A5
0000372E  2005                     move.l     D0, D5
00003730  48C0                     ext.l      D0
00003732  E588                     lsl        D0, 2
00003734  D3C0                     add.l      A1, D0
00003736  2007                     move.l     D0, D7
00003738  2269 FDFE                movea.l    A1, [A1 - 0x202]
0000373C  A02E                     syscall    BlockMove/BlockMoveData
0000373E  204C                     movea.l    A0, A4
00003740  A02A                     syscall    HUnlock
00003742  2F0C                     move.l     -[A7], A4
00003744  A9A3                     syscall    ReleaseResource
00003746  5245                     addq.w     D5, 1
label00003748:
00003748  0C45 0011                cmpi.w     D5, 0x11
0000374C  6D00 FF76                blt        -0x88 /* 000036C4 */
00003750  3006                     move.w     D0, D6
label00003752:
00003752  4CDF 10E0                movem.l    D5,D6,D7,A4, [A7]+
00003756  4E75                     rts
fn00003758:
00003758  48E7 0300                movem.l    -[A7], D6,D7
0000375C  7E00                     moveq.l    D7, 0x00
0000375E  7C00                     moveq.l    D6, 0x00
00003760  6030                     bra        +0x32 /* 00003792 */
label00003762:
00003762  204D                     movea.l    A0, A5
00003764  2006                     move.l     D0, D6
00003766  48C0                     ext.l      D0
00003768  E588                     lsl        D0, 2
0000376A  D1C0                     add.l      A0, D0
0000376C  4AA8 FDFE                tst.l      [A0 - 0x202]
00003770  6710                     beq        +0x12 /* 00003782 */
00003772  204D                     movea.l    A0, A5
00003774  2006                     move.l     D0, D6
00003776  48C0                     ext.l      D0
00003778  E588                     lsl        D0, 2
0000377A  D1C0                     add.l      A0, D0
0000377C  2068 FDFE                movea.l    A0, [A0 - 0x202]
00003780  A01F                     syscall    DisposPtr/DisposePtr
label00003782:
00003782  204D                     movea.l    A0, A5
00003784  2006                     move.l     D0, D6
00003786  48C0                     ext.l      D0
00003788  E588                     lsl        D0, 2
0000378A  D1C0                     add.l      A0, D0
0000378C  42A8 FDFE                clr.l      [A0 - 0x202]
00003790  5246                     addq.w     D6, 1
label00003792:
00003792  0C46 0011                cmpi.w     D6, 0x11
00003796  6DCA                     blt        -0x34 /* 00003762 */
00003798  3007                     move.w     D0, D7
0000379A  4CDF 00C0                movem.l    D6,D7, [A7]+
0000379E  4E75                     rts
fn000037A0:
000037A0  2F07                     move.l     -[A7], D7
000037A2  41ED 0092                lea.l      A0, [A5 + 0x92 /* export_14, CODE:2 @ 0000363C */]
000037A6  2B48 FDEE                move.l     [A5 - 0x212], A0
000037AA  43ED 009A                lea.l      A1, [A5 + 0x9A /* export_15, CODE:2 @ 0000367A */]
000037AE  2B49 FDF2                move.l     [A5 - 0x20E], A1
000037B2  7E00                     moveq.l    D7, 0x00
000037B4  4A2D FE46                tst.b      [A5 - 0x1BA]
000037B8  6704                     beq        +0x6 /* 000037BE */
000037BA  3007                     move.w     D0, D7
000037BC  604A                     bra        +0x4C /* 00003808 */
label000037BE:
000037BE  42AD FDF6                clr.l      [A5 - 0x20A]
000037C2  4267                     clr.w      -[A7]
000037C4  486D FDF6                pea.l      [A5 - 0x20A]
000037C8  3F3C 0005                move.w     -[A7], 0x5
000037CC  4878 0084                push.l     0x84
000037D0  2F2D FDEE                move.l     -[A7], [A5 - 0x212]
000037D4  A807                     syscall    SndNewChannel
000037D6  3E1F                     move.w     D7, [A7]+
000037D8  4A47                     tst.w      D7
000037DA  6606                     bne        +0x8 /* 000037E2 */
000037DC  1B7C 0001 FE46           move.b     [A5 - 0x1BA], 0x1
label000037E2:
000037E2  42AD FDFA                clr.l      [A5 - 0x206]
000037E6  4267                     clr.w      -[A7]
000037E8  486D FDFA                pea.l      [A5 - 0x206]
000037EC  3F3C 0005                move.w     -[A7], 0x5
000037F0  4878 0084                push.l     0x84
000037F4  2F2D FDF2                move.l     -[A7], [A5 - 0x20E]
000037F8  A807                     syscall    SndNewChannel
000037FA  3E1F                     move.w     D7, [A7]+
000037FC  4A47                     tst.w      D7
000037FE  6606                     bne        +0x8 /* 00003806 */
00003800  1B7C 0001 FE46           move.b     [A5 - 0x1BA], 0x1
label00003806:
00003806  3007                     move.w     D0, D7
label00003808:
00003808  2E1F                     move.l     D7, [A7]+
0000380A  4E75                     rts
fn0000380C:
0000380C  2F07                     move.l     -[A7], D7
0000380E  7E00                     moveq.l    D7, 0x00
00003810  4A2D FE46                tst.b      [A5 - 0x1BA]
00003814  6604                     bne        +0x6 /* 0000381A */
00003816  3007                     move.w     D0, D7
00003818  603A                     bra        +0x3C /* 00003854 */
label0000381A:
0000381A  4AAD FDF6                tst.l      [A5 - 0x20A]
0000381E  670E                     beq        +0x10 /* 0000382E */
00003820  4267                     clr.w      -[A7]
00003822  2F2D FDF6                move.l     -[A7], [A5 - 0x20A]
00003826  1F3C 0001                move.b     -[A7], 0x1
0000382A  A801                     syscall    SndDisposeChannel
0000382C  3E1F                     move.w     D7, [A7]+
label0000382E:
0000382E  42AD FDF6                clr.l      [A5 - 0x20A]
00003832  4AAD FDFA                tst.l      [A5 - 0x206]
00003836  670E                     beq        +0x10 /* 00003846 */
00003838  4267                     clr.w      -[A7]
0000383A  2F2D FDFA                move.l     -[A7], [A5 - 0x206]
0000383E  1F3C 0001                move.b     -[A7], 0x1
00003842  A801                     syscall    SndDisposeChannel
00003844  3E1F                     move.w     D7, [A7]+
label00003846:
00003846  42AD FDFA                clr.l      [A5 - 0x206]
0000384A  4A47                     tst.w      D7
0000384C  6604                     bne        +0x6 /* 00003852 */
0000384E  422D FE46                clr.b      [A5 - 0x1BA]
label00003852:
00003852  3007                     move.w     D0, D7
label00003854:
00003854  2E1F                     move.l     D7, [A7]+
00003856  4E75                     rts
fn00003858:
00003858  2F07                     move.l     -[A7], D7
0000385A  1B7C 0001 FE47           move.b     [A5 - 0x1B9], 0x1
00003860  42AD FDF6                clr.l      [A5 - 0x20A]
00003864  42AD FDFA                clr.l      [A5 - 0x206]
00003868  426D FE42                clr.w      [A5 - 0x1BE]
0000386C  426D FE44                clr.w      [A5 - 0x1BC]
00003870  4EBA FE46                jsr        [PC - 0x1BA /* 000036B8 */]
00003874  3E00                     move.w     D7, D0
00003876  4A47                     tst.w      D7
00003878  670A                     beq        +0xC /* 00003884 */
0000387A  486D FE48                pea.l      [A5 - 0x1B8]
0000387E  4EBA 006E                jsr        [PC + 0x6E /* 000038EE */]
00003882  588F                     addq.l     A7, 4
label00003884:
00003884  4EBA FF1A                jsr        [PC - 0xE6 /* 000037A0 */]
00003888  3E00                     move.w     D7, D0
0000388A  4A47                     tst.w      D7
0000388C  670A                     beq        +0xC /* 00003898 */
0000388E  486D FE5E                pea.l      [A5 - 0x1A2]
00003892  4EBA 005A                jsr        [PC + 0x5A /* 000038EE */]
00003896  588F                     addq.l     A7, 4
label00003898:
00003898  2E1F                     move.l     D7, [A7]+
0000389A  4E75                     rts
fn0000389C:
0000389C  2F07                     move.l     -[A7], D7
0000389E  4EBA FEB8                jsr        [PC - 0x148 /* 00003758 */]
000038A2  3E00                     move.w     D7, D0
000038A4  4EBA FF66                jsr        [PC - 0x9A /* 0000380C */]
000038A8  3E00                     move.w     D7, D0
000038AA  2E1F                     move.l     D7, [A7]+
000038AC  4E75                     rts
export_16:
fn000038AE:
000038AE  4E56 0000                link       A6, 0
000038B2  2F07                     move.l     -[A7], D7
000038B4  4267                     clr.w      -[A7]
000038B6  A861                     syscall    Random
000038B8  3E1F                     move.w     D7, [A7]+
000038BA  48C7                     ext.l      D7
000038BC  4A87                     tst.l      D7
000038BE  6C0C                     bge        +0xE /* 000038CC */
000038C0  4878 FFFF                push.l     0xFFFF
000038C4  2F07                     move.l     -[A7], D7
000038C6  4EAD 0042                jsr        [A5 + 0x42 /* export_4, CODE:1 @ 000000EA */]
000038CA  2E00                     move.l     D7, D0
label000038CC:
000038CC  2F3C 0000 8000           move.l     -[A7], 0x8000
000038D2  2F07                     move.l     -[A7], D7
000038D4  306E 0008                movea.w    A0, [A6 + 0x8]
000038D8  2F08                     move.l     -[A7], A0
000038DA  4EAD 0042                jsr        [A5 + 0x42 /* export_4, CODE:1 @ 000000EA */]
000038DE  2F00                     move.l     -[A7], D0
000038E0  4EAD 005A                jsr        [A5 + 0x5A /* export_7, CODE:1 @ 00000162 */]
000038E4  2E00                     move.l     D7, D0
000038E6  3007                     move.w     D0, D7
000038E8  2E1F                     move.l     D7, [A7]+
000038EA  4E5E                     unlink     A6
000038EC  4E75                     rts
export_17:
fn000038EE:
000038EE  4E56 FFFE                link       A6, -0x0002
000038F2  2F2E 0008                move.l     -[A7], [A6 + 0x8]
000038F6  486D FE84                pea.l      [A5 - 0x17C]
000038FA  486D FE86                pea.l      [A5 - 0x17A]
000038FE  486D FE88                pea.l      [A5 - 0x178]
00003902  A98B                     syscall    ParamText
00003904  4267                     clr.w      -[A7]
00003906  3F3C 0080                move.w     -[A7], 0x80
0000390A  42A7                     clr.l      -[A7]
0000390C  A985                     syscall    Alert
0000390E  3D5F FFFE                move.w     [A6 - 0x2], [A7]+
00003912  A9F4                     syscall    ExitToShell
00003914  4E5E                     unlink     A6
00003916  4E75                     rts
export_18:
00003918  42A7                     clr.l      -[A7]
0000391A  AA2A                     syscall    GetMainDevice
0000391C  2B5F FE7C                move.l     [A5 - 0x184], [A7]+
00003920  4AAD FE7C                tst.l      [A5 - 0x184]
00003924  660A                     bne        +0xC /* 00003930 */
00003926  486D FE8A                pea.l      [A5 - 0x176]
0000392A  4EBA FFC2                jsr        [PC - 0x3E /* 000038EE */]
0000392E  588F                     addq.l     A7, 4
label00003930:
00003930  4E75                     rts
export_19:
fn00003932:
00003932  4E56 FFF8                link       A6, -0x0008
00003936  2F0C                     move.l     -[A7], A4
00003938  42A7                     clr.l      -[A7]
0000393A  3F2E 0008                move.w     -[A7], [A6 + 0x8]
0000393E  A9BC                     syscall    GetPicture
00003940  285F                     movea.l    A4, [A7]+
00003942  200C                     move.l     D0, A4
00003944  660A                     bne        +0xC /* 00003950 */
00003946  486D FEA4                pea.l      [A5 - 0x15C]
0000394A  4EBA FFA2                jsr        [PC - 0x5E /* 000038EE */]
0000394E  588F                     addq.l     A7, 4
label00003950:
00003950  204C                     movea.l    A0, A4
00003952  A029                     syscall    HLock
00003954  2054                     movea.l    A0, [A4]
00003956  2D68 0002 FFF8           move.l     [A6 - 0x8], [A0 + 0x2]
0000395C  2D68 0006 FFFC           move.l     [A6 - 0x4], [A0 + 0x6]
00003962  204C                     movea.l    A0, A4
00003964  A02A                     syscall    HUnlock
00003966  486E FFF8                pea.l      [A6 - 0x8]
0000396A  302E FFFA                move.w     D0, [A6 - 0x6]
0000396E  4440                     neg.w      D0
00003970  3F00                     move.w     -[A7], D0
00003972  302E FFF8                move.w     D0, [A6 - 0x8]
00003976  4440                     neg.w      D0
00003978  3F00                     move.w     -[A7], D0
0000397A  A8A8                     syscall    OffsetRect
0000397C  2F0C                     move.l     -[A7], A4
0000397E  486E FFF8                pea.l      [A6 - 0x8]
00003982  A8F6                     syscall    DrawPicture
00003984  2F0C                     move.l     -[A7], A4
00003986  A9A3                     syscall    ReleaseResource
00003988  285F                     movea.l    A4, [A7]+
0000398A  4E5E                     unlink     A6
0000398C  4E75                     rts
export_20:
0000398E  4E56 FFFC                link       A6, -0x0004
00003992  48E7 1F38                movem.l    -[A7], D3,D4,D5,D6,D7,A2,A3,A4
00003996  286E 0008                movea.l    A4, [A6 + 0x8]
0000399A  42A7                     clr.l      -[A7]
0000399C  AA32                     syscall    GetGDevice
0000399E  2E1F                     move.l     D7, [A7]+
000039A0  2F2D FE7C                move.l     -[A7], [A5 - 0x184]
000039A4  AA31                     syscall    SetGDevice
000039A6  95CA                     sub.l      A2, A2
000039A8  706C                     moveq.l    D0, 0x6C
000039AA  A31E                     syscall    NewPtrClear, flags=3
000039AC  2448                     movea.l    A2, A0
000039AE  200A                     move.l     D0, A2
000039B0  6700 00D6                beq        +0xD8 /* 00003A88 */
000039B4  2F0A                     move.l     -[A7], A2
000039B6  AA00                     syscall    OpenCPort
000039B8  206A 0002                movea.l    A0, [A2 + 0x2]
000039BC  2050                     movea.l    A0, [A0]
000039BE  3628 0020                move.w     D3, [A0 + 0x20]
000039C2  302C 0006                move.w     D0, [A4 + 0x6]
000039C6  906C 0002                sub.w      D0, [A4 + 0x2]
000039CA  C1C3                     muls.w     D0, D3
000039CC  7A0F                     moveq.l    D5, 0x0F
000039CE  DA80                     add.l      D5, D0
000039D0  E885                     asr        D5, 4
000039D2  DA85                     add.l      D5, D5
000039D4  2F05                     move.l     -[A7], D5
000039D6  302C 0004                move.w     D0, [A4 + 0x4]
000039DA  9054                     sub.w      D0, [A4]
000039DC  3040                     movea.w    A0, D0
000039DE  2F08                     move.l     -[A7], A0
000039E0  4EAD 0042                jsr        [A5 + 0x42 /* export_4, CODE:1 @ 000000EA */]
000039E4  2C00                     move.l     D6, D0
000039E6  2F0C                     move.l     -[A7], A4
000039E8  302C 0002                move.w     D0, [A4 + 0x2]
000039EC  4440                     neg.w      D0
000039EE  3F00                     move.w     -[A7], D0
000039F0  3014                     move.w     D0, [A4]
000039F2  4440                     neg.w      D0
000039F4  3F00                     move.w     -[A7], D0
000039F6  A8A8                     syscall    OffsetRect
000039F8  2006                     move.l     D0, D6
000039FA  A11E                     syscall    NewPtr, flags=1
000039FC  2648                     movea.l    A3, A0
000039FE  200B                     move.l     D0, A3
00003A00  6770                     beq        +0x72 /* 00003A72 */
00003A02  206A 0002                movea.l    A0, [A2 + 0x2]
00003A06  2050                     movea.l    A0, [A0]
00003A08  208B                     move.l     [A0], A3
00003A0A  3005                     move.w     D0, D5
00003A0C  0640 8000                addi.w     D0, 0x8000
00003A10  206A 0002                movea.l    A0, [A2 + 0x2]
00003A14  2050                     movea.l    A0, [A0]
00003A16  3140 0004                move.w     [A0 + 0x4], D0
00003A1A  206A 0002                movea.l    A0, [A2 + 0x2]
00003A1E  2050                     movea.l    A0, [A0]
00003A20  2154 0006                move.l     [A0 + 0x6], [A4]
00003A24  216C 0004 000A           move.l     [A0 + 0xA], [A4 + 0x4]
00003A2A  206D FE7C                movea.l    A0, [A5 - 0x184]
00003A2E  2050                     movea.l    A0, [A0]
00003A30  2068 0016                movea.l    A0, [A0 + 0x16]
00003A34  2050                     movea.l    A0, [A0]
00003A36  2D68 002A FFFC           move.l     [A6 - 0x4], [A0 + 0x2A]
00003A3C  4267                     clr.w      -[A7]
00003A3E  486E FFFC                pea.l      [A6 - 0x4]
00003A42  4EAD 014A                jsr        [A5 + 0x14A /* export_37, CODE:4 @ 000026C4 */]
00003A46  381F                     move.w     D4, [A7]+
00003A48  206A 0002                movea.l    A0, [A2 + 0x2]
00003A4C  2050                     movea.l    A0, [A0]
00003A4E  216E FFFC 002A           move.l     [A0 + 0x2A], [A6 - 0x4]
00003A54  2F0C                     move.l     -[A7], A4
00003A56  A87B                     syscall    ClipRect
00003A58  2F2A 0018                move.l     -[A7], [A2 + 0x18]
00003A5C  2F0C                     move.l     -[A7], A4
00003A5E  A8DF                     syscall    RectRgn
00003A60  4878 0021                push.l     0x21 /* '!' */
00003A64  A862                     syscall    ForeColor
00003A66  4878 001E                push.l     0x1E
00003A6A  A863                     syscall    BackColor
00003A6C  2F0C                     move.l     -[A7], A4
00003A6E  A8A3                     syscall    EraseRect
00003A70  6020                     bra        +0x22 /* 00003A92 */
label00003A72:
00003A72  2F0A                     move.l     -[A7], A2
00003A74  A87D                     syscall    ClosePort
00003A76  204A                     movea.l    A0, A2
00003A78  A01F                     syscall    DisposPtr/DisposePtr
00003A7A  95CA                     sub.l      A2, A2
00003A7C  486D FEC2                pea.l      [A5 - 0x13E]
00003A80  4EBA FE6C                jsr        [PC - 0x194 /* 000038EE */]
00003A84  588F                     addq.l     A7, 4
00003A86  600A                     bra        +0xC /* 00003A92 */
label00003A88:
00003A88  486D FEE2                pea.l      [A5 - 0x11E]
00003A8C  4EBA FE60                jsr        [PC - 0x1A0 /* 000038EE */]
00003A90  588F                     addq.l     A7, 4
label00003A92:
00003A92  206E 000C                movea.l    A0, [A6 + 0xC]
00003A96  208A                     move.l     [A0], A2
00003A98  2F07                     move.l     -[A7], D7
00003A9A  AA31                     syscall    SetGDevice
00003A9C  4CDF 1CF8                movem.l    D3,D4,D5,D6,D7,A2,A3,A4, [A7]+
00003AA0  4E5E                     unlink     A6
00003AA2  4E75                     rts
export_21:
00003AA4  4E56 FFF2                link       A6, -0x000E
00003AA8  48E7 0118                movem.l    -[A7], D7,A3,A4
00003AAC  286E 0008                movea.l    A4, [A6 + 0x8]
00003AB0  706C                     moveq.l    D0, 0x6C
00003AB2  A11E                     syscall    NewPtr, flags=1
00003AB4  2648                     movea.l    A3, A0
00003AB6  2F0B                     move.l     -[A7], A3
00003AB8  A86F                     syscall    OpenPort
00003ABA  4878 0010                push.l     0x10
00003ABE  302C 0006                move.w     D0, [A4 + 0x6]
00003AC2  906C 0002                sub.w      D0, [A4 + 0x2]
00003AC6  3040                     movea.w    A0, D0
00003AC8  4868 000F                pea.l      [A0 + 0xF]
00003ACC  4EAD 005A                jsr        [A5 + 0x5A /* export_7, CODE:1 @ 00000162 */]
00003AD0  D080                     add.l      D0, D0
00003AD2  2E00                     move.l     D7, D0
00003AD4  3D47 FFF6                move.w     [A6 - 0xA], D7
00003AD8  302C 0004                move.w     D0, [A4 + 0x4]
00003ADC  9054                     sub.w      D0, [A4]
00003ADE  C1EE FFF6                muls.w     D0, [A6 - 0xA]
00003AE2  A11E                     syscall    NewPtr, flags=1
00003AE4  2D48 FFF2                move.l     [A6 - 0xE], A0
00003AE8  4AAE FFF2                tst.l      [A6 - 0xE]
00003AEC  660A                     bne        +0xC /* 00003AF8 */
00003AEE  486D FF02                pea.l      [A5 - 0xFE]
00003AF2  4EBA FDFA                jsr        [PC - 0x206 /* 000038EE */]
00003AF6  588F                     addq.l     A7, 4
label00003AF8:
00003AF8  2D54 FFF8                move.l     [A6 - 0x8], [A4]
00003AFC  2D6C 0004 FFFC           move.l     [A6 - 0x4], [A4 + 0x4]
00003B02  4A78 0220                tst.w      [0x00000220 /* MemErr */]
00003B06  670A                     beq        +0xC /* 00003B12 */
00003B08  486D FF1A                pea.l      [A5 - 0xE6]
00003B0C  4EBA FDE0                jsr        [PC - 0x220 /* 000038EE */]
00003B10  588F                     addq.l     A7, 4
label00003B12:
00003B12  486E FFF2                pea.l      [A6 - 0xE]
00003B16  A875                     syscall    SetPBits/SetPortBits
00003B18  2F0C                     move.l     -[A7], A4
00003B1A  A87B                     syscall    ClipRect
00003B1C  2F2B 0018                move.l     -[A7], [A3 + 0x18]
00003B20  2F0C                     move.l     -[A7], A4
00003B22  A8DF                     syscall    RectRgn
00003B24  2F0C                     move.l     -[A7], A4
00003B26  A8A3                     syscall    EraseRect
00003B28  206E 000C                movea.l    A0, [A6 + 0xC]
00003B2C  208B                     move.l     [A0], A3
00003B2E  4CDF 1880                movem.l    D7,A3,A4, [A7]+
00003B32  4E5E                     unlink     A6
00003B34  4E75                     rts
export_22:
fn00003B36:
00003B36  4E56 0000                link       A6, 0
00003B3A  2F0C                     move.l     -[A7], A4
00003B3C  286E 0008                movea.l    A4, [A6 + 0x8]
00003B40  302C 0002                move.w     D0, [A4 + 0x2]
00003B44  916C 0006                sub.w      [A4 + 0x6], D0
00003B48  3014                     move.w     D0, [A4]
00003B4A  916C 0004                sub.w      [A4 + 0x4], D0
00003B4E  426C 0002                clr.w      [A4 + 0x2]
00003B52  4254                     clr.w      [A4]
00003B54  285F                     movea.l    A4, [A7]+
00003B56  4E5E                     unlink     A6
00003B58  4E75                     rts
00003B5A  4E56 FEF4                link       A6, -0x010C
00003B5E  2F0C                     move.l     -[A7], A4
00003B60  486E FFFC                pea.l      [A6 - 0x4]
00003B64  A874                     syscall    GetPort
00003B66  706C                     moveq.l    D0, 0x6C
00003B68  A31E                     syscall    NewPtrClear, flags=3
00003B6A  2848                     movea.l    A4, A0
00003B6C  2F0C                     move.l     -[A7], A4
00003B6E  A86F                     syscall    OpenPort
00003B70  306E 0008                movea.w    A0, [A6 + 0x8]
00003B74  2F08                     move.l     -[A7], A0
00003B76  486E FEFC                pea.l      [A6 - 0x104]
00003B7A  4EAD 0142                jsr        [A5 + 0x142 /* export_36, CODE:4 @ 000026B2 */]
00003B7E  2F3C 0028 0014           move.l     -[A7], 0x280014
00003B84  A893                     syscall    MoveTo
00003B86  486E FEF4                pea.l      [A6 - 0x10C]
00003B8A  2F3C 0014 0012           move.l     -[A7], 0x140012
00003B90  2F3C 002A 007A           move.l     -[A7], 0x2A007A /* '*\0z' */
00003B96  A8A7                     syscall    SetRect
00003B98  486E FEF4                pea.l      [A6 - 0x10C]
00003B9C  A8A3                     syscall    EraseRect
00003B9E  486E FEFC                pea.l      [A6 - 0x104]
00003BA2  A884                     syscall    DrawString
00003BA4  2F0C                     move.l     -[A7], A4
00003BA6  A87D                     syscall    ClosePort
00003BA8  2F2E FFFC                move.l     -[A7], [A6 - 0x4]
00003BAC  A873                     syscall    SetPort
00003BAE  285F                     movea.l    A4, [A7]+
00003BB0  4E5E                     unlink     A6
00003BB2  4E75                     rts
fn00003BB4:
00003BB4  4E56 0000                link       A6, 0
00003BB8  42A7                     clr.l      -[A7]
00003BBA  A975                     syscall    TickCount
00003BBC  201F                     move.l     D0, [A7]+
00003BBE  D0AE 0008                add.l      D0, [A6 + 0x8]
00003BC2  2B40 FE80                move.l     [A5 - 0x180], D0
00003BC6  4E5E                     unlink     A6
00003BC8  4E75                     rts
fn00003BCA:
00003BCA  42A7                     clr.l      -[A7]
00003BCC  A975                     syscall    TickCount
00003BCE  201F                     move.l     D0, [A7]+
00003BD0  B0AD FE80                cmp.l      D0, [A5 - 0x180]
00003BD4  65F4                     bcs        -0xA /* 00003BCA */
00003BD6  4E75                     rts
fn00003BD8:
00003BD8  4E56 FFFC                link       A6, -0x0004
00003BDC  42A7                     clr.l      -[A7]
00003BDE  3F2E 0008                move.w     -[A7], [A6 + 0x8]
00003BE2  1F3C 0001                move.b     -[A7], 0x1
00003BE6  4EAD 00FA                jsr        [A5 + 0xFA /* export_27, CODE:4 @ 00002564 */]
00003BEA  2D5F FFFC                move.l     [A6 - 0x4], [A7]+
00003BEE  42A7                     clr.l      -[A7]
00003BF0  2F3C 0100 009F           move.l     -[A7], 0x100009F
00003BF6  4EAD 00FA                jsr        [A5 + 0xFA /* export_27, CODE:4 @ 00002564 */]
00003BFA  202E FFFC                move.l     D0, [A6 - 0x4]
00003BFE  B09F                     cmp.l      D0, [A7]+
00003C00  56C0                     sne        D0
00003C02  4400                     neg.b      D0
00003C04  4E5E                     unlink     A6
00003C06  4E75                     rts
export_23:
00003C08  3F3C 00AD                move.w     -[A7], 0xAD
00003C0C  4EBA FFCA                jsr        [PC - 0x36 /* 00003BD8 */]
00003C10  548F                     addq.l     A7, 2
00003C12  4E75                     rts
00003C14  4E56 FFF0                link       A6, -0x0010
00003C18  48E7 0708                movem.l    -[A7], D5,D6,D7,A4
00003C1C  2D6D FF88 FFF8           move.l     [A6 - 0x8], [A5 - 0x78]
00003C22  2D6D FF8C FFFC           move.l     [A6 - 0x4], [A5 - 0x74]
00003C28  3038 0BAA                move.w     D0, [0x00000BAA /* MBarHeight */]
00003C2C  D16E FFF8                add.w      [A6 - 0x8], D0
00003C30  42A7                     clr.l      -[A7]
00003C32  2F3C 414C 5254           move.l     -[A7], 0x414C5254 /* 'ALRT' */
00003C38  3F2E 0008                move.w     -[A7], [A6 + 0x8]
00003C3C  A9A0                     syscall    GetResource
00003C3E  285F                     movea.l    A4, [A7]+
00003C40  200C                     move.l     D0, A4
00003C42  6772                     beq        +0x74 /* 00003CB6 */
00003C44  204C                     movea.l    A0, A4
00003C46  A069                     syscall    HGetState
00003C48  1A00                     move.b     D5, D0
00003C4A  204C                     movea.l    A0, A4
00003C4C  A029                     syscall    HLock
00003C4E  2054                     movea.l    A0, [A4]
00003C50  2D50 FFF0                move.l     [A6 - 0x10], [A0]
00003C54  2D68 0004 FFF4           move.l     [A6 - 0xC], [A0 + 0x4]
00003C5A  486E FFF0                pea.l      [A6 - 0x10]
00003C5E  302E FFF2                move.w     D0, [A6 - 0xE]
00003C62  4440                     neg.w      D0
00003C64  3F00                     move.w     -[A7], D0
00003C66  302E FFF0                move.w     D0, [A6 - 0x10]
00003C6A  4440                     neg.w      D0
00003C6C  3F00                     move.w     -[A7], D0
00003C6E  A8A8                     syscall    OffsetRect
00003C70  3E2E FFFE                move.w     D7, [A6 - 0x2]
00003C74  9E6E FFFA                sub.w      D7, [A6 - 0x6]
00003C78  9E6E FFF6                sub.w      D7, [A6 - 0xA]
00003C7C  48C7                     ext.l      D7
00003C7E  8FFC 0002                divs.w     D7, 0x2
00003C82  3C2E FFFC                move.w     D6, [A6 - 0x4]
00003C86  9C6E FFF8                sub.w      D6, [A6 - 0x8]
00003C8A  9C6E FFF4                sub.w      D6, [A6 - 0xC]
00003C8E  48C6                     ext.l      D6
00003C90  8DFC 0003                divs.w     D6, 0x3
00003C94  486E FFF0                pea.l      [A6 - 0x10]
00003C98  3F07                     move.w     -[A7], D7
00003C9A  3038 0BAA                move.w     D0, [0x00000BAA /* MBarHeight */]
00003C9E  D046                     add.w      D0, D6
00003CA0  3F00                     move.w     -[A7], D0
00003CA2  A8A8                     syscall    OffsetRect
00003CA4  2054                     movea.l    A0, [A4]
00003CA6  20AE FFF0                move.l     [A0], [A6 - 0x10]
00003CAA  216E FFF4 0004           move.l     [A0 + 0x4], [A6 - 0xC]
00003CB0  1005                     move.b     D0, D5
00003CB2  204C                     movea.l    A0, A4
00003CB4  A06A                     syscall    HSetState
label00003CB6:
00003CB6  4CDF 10E0                movem.l    D5,D6,D7,A4, [A7]+
00003CBA  4E5E                     unlink     A6
00003CBC  4E75                     rts
fn00003CBE:
00003CBE  4E56 0000                link       A6, 0
00003CC2  206E 0008                movea.l    A0, [A6 + 0x8]
00003CC6  3028 0006                move.w     D0, [A0 + 0x6]
00003CCA  9068 0002                sub.w      D0, [A0 + 0x2]
00003CCE  4E5E                     unlink     A6
00003CD0  4E75                     rts
fn00003CD2:
00003CD2  4E56 0000                link       A6, 0
00003CD6  206E 0008                movea.l    A0, [A6 + 0x8]
00003CDA  3028 0004                move.w     D0, [A0 + 0x4]
00003CDE  9050                     sub.w      D0, [A0]
00003CE0  4E5E                     unlink     A6
00003CE2  4E75                     rts
fn00003CE4:
00003CE4  4E56 0000                link       A6, 0
00003CE8  48E7 0318                movem.l    -[A7], D6,D7,A3,A4
00003CEC  286E 0008                movea.l    A4, [A6 + 0x8]
00003CF0  266E 000C                movea.l    A3, [A6 + 0xC]
00003CF4  2F0C                     move.l     -[A7], A4
00003CF6  4EBA FFC6                jsr        [PC - 0x3A /* 00003CBE */]
00003CFA  3E00                     move.w     D7, D0
00003CFC  2E8C                     move.l     [A7], A4
00003CFE  4EBA FFD2                jsr        [PC - 0x2E /* 00003CD2 */]
00003D02  3C00                     move.w     D6, D0
00003D04  2E8B                     move.l     [A7], A3
00003D06  4EBA FFB6                jsr        [PC - 0x4A /* 00003CBE */]
00003D0A  9047                     sub.w      D0, D7
00003D0C  48C0                     ext.l      D0
00003D0E  81FC 0002                divs.w     D0, 0x2
00003D12  D06B 0002                add.w      D0, [A3 + 0x2]
00003D16  3940 0002                move.w     [A4 + 0x2], D0
00003D1A  302C 0002                move.w     D0, [A4 + 0x2]
00003D1E  D047                     add.w      D0, D7
00003D20  3940 0006                move.w     [A4 + 0x6], D0
00003D24  2E8B                     move.l     [A7], A3
00003D26  4EBA FFAA                jsr        [PC - 0x56 /* 00003CD2 */]
00003D2A  9046                     sub.w      D0, D6
00003D2C  48C0                     ext.l      D0
00003D2E  81FC 0002                divs.w     D0, 0x2
00003D32  D053                     add.w      D0, [A3]
00003D34  3880                     move.w     [A4], D0
00003D36  3014                     move.w     D0, [A4]
00003D38  D046                     add.w      D0, D6
00003D3A  3940 0004                move.w     [A4 + 0x4], D0
00003D3E  4CEE 18C0 FFF0           movem.l    D6,D7,A3,A4, [A6 - 0x10]
00003D44  4E5E                     unlink     A6
00003D46  4E75                     rts
fn00003D48:
00003D48  4E56 0000                link       A6, 0
00003D4C  2F07                     move.l     -[A7], D7
00003D4E  206E 0008                movea.l    A0, [A6 + 0x8]
00003D52  52AE 0008                addq.l     [A6 + 0x8], 1
00003D56  226E 000C                movea.l    A1, [A6 + 0xC]
00003D5A  52AE 000C                addq.l     [A6 + 0xC], 1
00003D5E  1E10                     move.b     D7, [A0]
00003D60  1287                     move.b     [A1], D7
00003D62  7000                     moveq.l    D0, 0x00
00003D64  1007                     move.b     D0, D7
00003D66  3E00                     move.w     D7, D0
00003D68  6012                     bra        +0x14 /* 00003D7C */
label00003D6A:
00003D6A  206E 0008                movea.l    A0, [A6 + 0x8]
00003D6E  52AE 0008                addq.l     [A6 + 0x8], 1
00003D72  226E 000C                movea.l    A1, [A6 + 0xC]
00003D76  52AE 000C                addq.l     [A6 + 0xC], 1
00003D7A  1290                     move.b     [A1], [A0]
label00003D7C:
00003D7C  5347                     subq.w     D7, 1
00003D7E  4A47                     tst.w      D7
00003D80  6CE8                     bge        -0x16 /* 00003D6A */
00003D82  2E1F                     move.l     D7, [A7]+
00003D84  4E5E                     unlink     A6
00003D86  4E75                     rts
fn00003D88:
00003D88  4E56 FFF0                link       A6, -0x0010
00003D8C  48E7 0708                movem.l    -[A7], D5,D6,D7,A4
00003D90  2D6D FF88 FFF8           move.l     [A6 - 0x8], [A5 - 0x78]
00003D96  2D6D FF8C FFFC           move.l     [A6 - 0x4], [A5 - 0x74]
00003D9C  3038 0BAA                move.w     D0, [0x00000BAA /* MBarHeight */]
00003DA0  D16E FFF8                add.w      [A6 - 0x8], D0
00003DA4  42A7                     clr.l      -[A7]
00003DA6  2F3C 444C 4F47           move.l     -[A7], 0x444C4F47 /* 'DLOG' */
00003DAC  3F2E 0008                move.w     -[A7], [A6 + 0x8]
00003DB0  A9A0                     syscall    GetResource
00003DB2  285F                     movea.l    A4, [A7]+
00003DB4  200C                     move.l     D0, A4
00003DB6  6772                     beq        +0x74 /* 00003E2A */
00003DB8  204C                     movea.l    A0, A4
00003DBA  A069                     syscall    HGetState
00003DBC  1A00                     move.b     D5, D0
00003DBE  204C                     movea.l    A0, A4
00003DC0  A029                     syscall    HLock
00003DC2  2054                     movea.l    A0, [A4]
00003DC4  2D50 FFF0                move.l     [A6 - 0x10], [A0]
00003DC8  2D68 0004 FFF4           move.l     [A6 - 0xC], [A0 + 0x4]
00003DCE  486E FFF0                pea.l      [A6 - 0x10]
00003DD2  302E FFF2                move.w     D0, [A6 - 0xE]
00003DD6  4440                     neg.w      D0
00003DD8  3F00                     move.w     -[A7], D0
00003DDA  302E FFF0                move.w     D0, [A6 - 0x10]
00003DDE  4440                     neg.w      D0
00003DE0  3F00                     move.w     -[A7], D0
00003DE2  A8A8                     syscall    OffsetRect
00003DE4  3E2E FFFE                move.w     D7, [A6 - 0x2]
00003DE8  9E6E FFFA                sub.w      D7, [A6 - 0x6]
00003DEC  9E6E FFF6                sub.w      D7, [A6 - 0xA]
00003DF0  48C7                     ext.l      D7
00003DF2  8FFC 0002                divs.w     D7, 0x2
00003DF6  3C2E FFFC                move.w     D6, [A6 - 0x4]
00003DFA  9C6E FFF8                sub.w      D6, [A6 - 0x8]
00003DFE  9C6E FFF4                sub.w      D6, [A6 - 0xC]
00003E02  48C6                     ext.l      D6
00003E04  8DFC 0003                divs.w     D6, 0x3
00003E08  486E FFF0                pea.l      [A6 - 0x10]
00003E0C  3F07                     move.w     -[A7], D7
00003E0E  3038 0BAA                move.w     D0, [0x00000BAA /* MBarHeight */]
00003E12  D046                     add.w      D0, D6
00003E14  3F00                     move.w     -[A7], D0
00003E16  A8A8                     syscall    OffsetRect
00003E18  2054                     movea.l    A0, [A4]
00003E1A  20AE FFF0                move.l     [A0], [A6 - 0x10]
00003E1E  216E FFF4 0004           move.l     [A0 + 0x4], [A6 - 0xC]
00003E24  1005                     move.b     D0, D5
00003E26  204C                     movea.l    A0, A4
00003E28  A06A                     syscall    HSetState
label00003E2A:
00003E2A  4CDF 10E0                movem.l    D5,D6,D7,A4, [A7]+
00003E2E  4E5E                     unlink     A6
00003E30  4E75                     rts
fn00003E32:
00003E32  4E56 FFF2                link       A6, -0x000E
00003E36  2F2E 0008                move.l     -[A7], [A6 + 0x8]
00003E3A  3F3C 0001                move.w     -[A7], 0x1
00003E3E  486E FFF2                pea.l      [A6 - 0xE]
00003E42  486E FFF4                pea.l      [A6 - 0xC]
00003E46  486E FFF8                pea.l      [A6 - 0x8]
00003E4A  A98D                     syscall    GetDialogItem/GetDItem
00003E4C  486E FFF8                pea.l      [A6 - 0x8]
00003E50  2F3C FFFC FFFC           move.l     -[A7], 0xFFFCFFFC
00003E56  A8A9                     syscall    InsetRect
00003E58  2F3C 0003 0003           move.l     -[A7], 0x30003
00003E5E  A89B                     syscall    PenSize
00003E60  486E FFF8                pea.l      [A6 - 0x8]
00003E64  2F3C 0010 0010           move.l     -[A7], 0x100010
00003E6A  A8B0                     syscall    FrameRoundRect
00003E6C  A89E                     syscall    PenNormal
00003E6E  4E5E                     unlink     A6
00003E70  4E75                     rts
fn00003E72:
00003E72  4E56 0000                link       A6, 0
00003E76  48E7 0318                movem.l    -[A7], D6,D7,A3,A4
00003E7A  3E2E 0010                move.w     D7, [A6 + 0x10]
00003E7E  286E 0008                movea.l    A4, [A6 + 0x8]
00003E82  266E 000C                movea.l    A3, [A6 + 0xC]
00003E86  7000                     moveq.l    D0, 0x00
00003E88  1014                     move.b     D0, [A4]
00003E8A  B047                     cmp.w      D0, D7
00003E8C  6C04                     bge        +0x6 /* 00003E92 */
00003E8E  7E00                     moveq.l    D7, 0x00
00003E90  1E14                     move.b     D7, [A4]
label00003E92:
00003E92  1687                     move.b     [A3], D7
00003E94  528B                     addq.l     A3, 1
00003E96  528C                     addq.l     A4, 1
00003E98  7C00                     moveq.l    D6, 0x00
00003E9A  6004                     bra        +0x6 /* 00003EA0 */
label00003E9C:
00003E9C  16DC                     move.b     [A3]+, [A4]+
00003E9E  5246                     addq.w     D6, 1
label00003EA0:
00003EA0  BE46                     cmp.w      D7, D6
00003EA2  6EF8                     bgt        -0x6 /* 00003E9C */
00003EA4  4CDF 18C0                movem.l    D6,D7,A3,A4, [A7]+
00003EA8  4E5E                     unlink     A6
00003EAA  4E75                     rts
fn00003EAC:
00003EAC  4E56 FFF2                link       A6, -0x000E
00003EB0  2F2E 0008                move.l     -[A7], [A6 + 0x8]
00003EB4  3F2E 000C                move.w     -[A7], [A6 + 0xC]
00003EB8  486E FFF2                pea.l      [A6 - 0xE]
00003EBC  486E FFF4                pea.l      [A6 - 0xC]
00003EC0  486E FFF8                pea.l      [A6 - 0x8]
00003EC4  A98D                     syscall    GetDialogItem/GetDItem
00003EC6  2F2E FFF4                move.l     -[A7], [A6 - 0xC]
00003ECA  2F2E 000E                move.l     -[A7], [A6 + 0xE]
00003ECE  A990                     syscall    GetDialogItemText/GetIText
00003ED0  4E5E                     unlink     A6
00003ED2  4E75                     rts
fn00003ED4:
00003ED4  4E56 FFF2                link       A6, -0x000E
00003ED8  2F2E 0008                move.l     -[A7], [A6 + 0x8]
00003EDC  3F2E 000C                move.w     -[A7], [A6 + 0xC]
00003EE0  486E FFF2                pea.l      [A6 - 0xE]
00003EE4  486E FFF4                pea.l      [A6 - 0xC]
00003EE8  486E FFF8                pea.l      [A6 - 0x8]
00003EEC  A98D                     syscall    GetDialogItem/GetDItem
00003EEE  2F2E FFF4                move.l     -[A7], [A6 - 0xC]
00003EF2  2F2E 000E                move.l     -[A7], [A6 + 0xE]
00003EF6  A98F                     syscall    SetDialogItemText/SetIText
00003EF8  4E5E                     unlink     A6
00003EFA  4E75                     rts
fn00003EFC:
00003EFC  4E56 FEF2                link       A6, -0x010E
00003F00  2F2E 000E                move.l     -[A7], [A6 + 0xE]
00003F04  486E FF00                pea.l      [A6 - 0x100]
00003F08  4EAD 0142                jsr        [A5 + 0x142 /* export_36, CODE:4 @ 000026B2 */]
00003F0C  2F2E 0008                move.l     -[A7], [A6 + 0x8]
00003F10  3F2E 000C                move.w     -[A7], [A6 + 0xC]
00003F14  486E FEF2                pea.l      [A6 - 0x10E]
00003F18  486E FEF4                pea.l      [A6 - 0x10C]
00003F1C  486E FEF8                pea.l      [A6 - 0x108]
00003F20  A98D                     syscall    GetDialogItem/GetDItem
00003F22  2F2E FEF4                move.l     -[A7], [A6 - 0x10C]
00003F26  486E FF00                pea.l      [A6 - 0x100]
00003F2A  A98F                     syscall    SetDialogItemText/SetIText
00003F2C  4E5E                     unlink     A6
00003F2E  4E75                     rts
fn00003F30:
00003F30  4E56 FEF2                link       A6, -0x010E
00003F34  2F2E 0008                move.l     -[A7], [A6 + 0x8]
00003F38  3F2E 000C                move.w     -[A7], [A6 + 0xC]
00003F3C  486E FEF2                pea.l      [A6 - 0x10E]
00003F40  486E FEF4                pea.l      [A6 - 0x10C]
00003F44  486E FEF8                pea.l      [A6 - 0x108]
00003F48  A98D                     syscall    GetDialogItem/GetDItem
00003F4A  2F2E FEF4                move.l     -[A7], [A6 - 0x10C]
00003F4E  486E FF00                pea.l      [A6 - 0x100]
00003F52  A990                     syscall    GetDialogItemText/GetIText
00003F54  486E FF00                pea.l      [A6 - 0x100]
00003F58  2F2E 000E                move.l     -[A7], [A6 + 0xE]
00003F5C  4EAD 013A                jsr        [A5 + 0x13A /* export_35, CODE:4 @ 0000269E */]
00003F60  4E5E                     unlink     A6
00003F62  4E75                     rts
fn00003F64:
00003F64  4E56 FFF2                link       A6, -0x000E
00003F68  2F2E 0008                move.l     -[A7], [A6 + 0x8]
00003F6C  3F2E 000C                move.w     -[A7], [A6 + 0xC]
00003F70  486E FFF2                pea.l      [A6 - 0xE]
00003F74  486E FFF4                pea.l      [A6 - 0xC]
00003F78  486E FFF8                pea.l      [A6 - 0x8]
00003F7C  A98D                     syscall    GetDialogItem/GetDItem
00003F7E  2F2E FFF4                move.l     -[A7], [A6 - 0xC]
00003F82  3F3C 00FF                move.w     -[A7], 0xFF
00003F86  A95D                     syscall    HiliteControl
00003F88  4E5E                     unlink     A6
00003F8A  4E75                     rts
