# near model CODE resource
# jump table entries: 32809-65630 (32822 of them)
fn00000000:
00000000  4E56 0000                link       A6, 0
00000004  48E7 0018                movem.l    -[A7], A3,A4
00000008  266E 0008                movea.l    A3, [A6 + 0x8]
0000000C  286E 000C                movea.l    A4, [A6 + 0xC]
00000010  3893                     move.w     [A4], [A3]
00000012  396B 0004 0004           move.w     [A4 + 0x4], [A3 + 0x4]
00000018  396B 0002 0002           move.w     [A4 + 0x2], [A3 + 0x2]
0000001E  396B 0006 0006           move.w     [A4 + 0x6], [A3 + 0x6]
00000024  4CDF 1800                movem.l    A3,A4, [A7]+
00000028  4E5E                     unlink     A6
0000002A  4E75                     rts
fn0000002C:
0000002C  0C79 0078 FFFF B5EA      cmpi.w     [0xFFFFB5EA], 0x78 /* 'x' */
00000034  6C06                     bge        +0x8 /* 0000003C */
00000036  7001                     moveq.l    D0, 0x01
00000038  6000 00A2                bra        +0xA4 /* 000000DC */
label0000003C:
0000003C  0C79 00F0 FFFF B5EA      cmpi.w     [0xFFFFB5EA], 0xF0
00000044  6C06                     bge        +0x8 /* 0000004C */
00000046  70FF                     moveq.l    D0, 0xFFFFFFFF
00000048  6000 0092                bra        +0x94 /* 000000DC */
label0000004C:
0000004C  0C79 0118 FFFF B5EA      cmpi.w     [0xFFFFB5EA], 0x118
00000054  6C06                     bge        +0x8 /* 0000005C */
00000056  7002                     moveq.l    D0, 0x02
00000058  6000 0082                bra        +0x84 /* 000000DC */
label0000005C:
0000005C  0C79 0140 FFFF B5EA      cmpi.w     [0xFFFFB5EA], 0x140
00000064  6C04                     bge        +0x6 /* 0000006A */
00000066  7001                     moveq.l    D0, 0x01
00000068  6072                     bra        +0x74 /* 000000DC */
label0000006A:
0000006A  0C79 01B8 FFFF B5EA      cmpi.w     [0xFFFFB5EA], 0x1B8
00000072  6C04                     bge        +0x6 /* 00000078 */
00000074  70FF                     moveq.l    D0, 0xFFFFFFFF
00000076  6064                     bra        +0x66 /* 000000DC */
label00000078:
00000078  0C79 0230 FFFF B5EA      cmpi.w     [0xFFFFB5EA], 0x230
00000080  6C04                     bge        +0x6 /* 00000086 */
00000082  7001                     moveq.l    D0, 0x01
00000084  6056                     bra        +0x58 /* 000000DC */
label00000086:
00000086  0C79 0258 FFFF B5EA      cmpi.w     [0xFFFFB5EA], 0x258
0000008E  6C04                     bge        +0x6 /* 00000094 */
00000090  70FE                     moveq.l    D0, 0xFFFFFFFE
00000092  6048                     bra        +0x4A /* 000000DC */
label00000094:
00000094  0C79 0280 FFFF B5EA      cmpi.w     [0xFFFFB5EA], 0x280
0000009C  6C04                     bge        +0x6 /* 000000A2 */
0000009E  70FF                     moveq.l    D0, 0xFFFFFFFF
000000A0  603A                     bra        +0x3C /* 000000DC */
label000000A2:
000000A2  0C79 02F8 FFFF B5EA      cmpi.w     [0xFFFFB5EA], 0x2F8
000000AA  6C04                     bge        +0x6 /* 000000B0 */
000000AC  7001                     moveq.l    D0, 0x01
000000AE  602C                     bra        +0x2E /* 000000DC */
label000000B0:
000000B0  0C79 0370 FFFF B5EA      cmpi.w     [0xFFFFB5EA], 0x370
000000B8  6C04                     bge        +0x6 /* 000000BE */
000000BA  70FF                     moveq.l    D0, 0xFFFFFFFF
000000BC  601E                     bra        +0x20 /* 000000DC */
label000000BE:
000000BE  3039 FFFF B5EA           move.w     D0, [0xFFFFB5EA]
000000C4  0640 FC90                addi.w     D0, 0xFC90
000000C8  48C0                     ext.l      D0
000000CA  81FC 00F0                divs.w     D0, 0xF0
000000CE  4840                     swap.w     D0
000000D0  0C40 0078                cmpi.w     D0, 0x78 /* 'x' */
000000D4  6C04                     bge        +0x6 /* 000000DA */
000000D6  7001                     moveq.l    D0, 0x01
000000D8  6002                     bra        +0x4 /* 000000DC */
label000000DA:
000000DA  70FF                     moveq.l    D0, 0xFFFFFFFF
label000000DC:
000000DC  4E75                     rts
fn000000DE:
000000DE  0C79 0078 FFFF B5EA      cmpi.w     [0xFFFFB5EA], 0x78 /* 'x' */
000000E6  6C04                     bge        +0x6 /* 000000EC */
000000E8  70FF                     moveq.l    D0, 0xFFFFFFFF
000000EA  6056                     bra        +0x58 /* 00000142 */
label000000EC:
000000EC  0C79 00F0 FFFF B5EA      cmpi.w     [0xFFFFB5EA], 0xF0
000000F4  6C04                     bge        +0x6 /* 000000FA */
000000F6  7001                     moveq.l    D0, 0x01
000000F8  6048                     bra        +0x4A /* 00000142 */
label000000FA:
000000FA  0C79 0168 FFFF B5EA      cmpi.w     [0xFFFFB5EA], 0x168
00000102  6C04                     bge        +0x6 /* 00000108 */
00000104  70FF                     moveq.l    D0, 0xFFFFFFFF
00000106  603A                     bra        +0x3C /* 00000142 */
label00000108:
00000108  0C79 01E0 FFFF B5EA      cmpi.w     [0xFFFFB5EA], 0x1E0
00000110  6C04                     bge        +0x6 /* 00000116 */
00000112  7001                     moveq.l    D0, 0x01
00000114  602C                     bra        +0x2E /* 00000142 */
label00000116:
00000116  0C79 0258 FFFF B5EA      cmpi.w     [0xFFFFB5EA], 0x258
0000011E  6C04                     bge        +0x6 /* 00000124 */
00000120  70FF                     moveq.l    D0, 0xFFFFFFFF
00000122  601E                     bra        +0x20 /* 00000142 */
label00000124:
00000124  0C79 02D0 FFFF B5EA      cmpi.w     [0xFFFFB5EA], 0x2D0
0000012C  6C04                     bge        +0x6 /* 00000132 */
0000012E  7001                     moveq.l    D0, 0x01
00000130  6010                     bra        +0x12 /* 00000142 */
label00000132:
00000132  0C79 0301 FFFF B5EA      cmpi.w     [0xFFFFB5EA], 0x301
0000013A  6C04                     bge        +0x6 /* 00000140 */
0000013C  70FF                     moveq.l    D0, 0xFFFFFFFF
0000013E  6002                     bra        +0x4 /* 00000142 */
label00000140:
00000140  7000                     moveq.l    D0, 0x00
label00000142:
00000142  4E75                     rts
fn00000144:
00000144  4A79 FFFF B5C0           tst.w      [0xFFFFB5C0]
0000014A  6700 008C                beq        +0x8E /* 000001D8 */
0000014E  2F3C FFFF B5B2           move.l     -[A7], 0xFFFFB5B2
00000154  2079 FFFF FACC           movea.l    A0, [0xFFFFFACC]
0000015A  4868 0002                pea.l      [A0 + 0x2]
0000015E  2F3C FFFF B5B8           move.l     -[A7], 0xFFFFB5B8
00000164  2F3C FFFF B5C0           move.l     -[A7], 0xFFFFB5C0
0000016A  3F3C 0002                move.w     -[A7], 0x2
0000016E  42A7                     clr.l      -[A7]
00000170  A8EC                     syscall    CopyBits
00000172  2F3C FFFF B5C0           move.l     -[A7], 0xFFFFB5C0
00000178  4878 0005                push.l     0x5
0000017C  A8A8                     syscall    OffsetRect
0000017E  2F3C FFFF B5B2           move.l     -[A7], 0xFFFFB5B2
00000184  2079 FFFF FACC           movea.l    A0, [0xFFFFFACC]
0000018A  4868 0002                pea.l      [A0 + 0x2]
0000018E  2F3C FFFF B5B8           move.l     -[A7], 0xFFFFB5B8
00000194  2F3C FFFF B5C0           move.l     -[A7], 0xFFFFB5C0
0000019A  3F3C 0002                move.w     -[A7], 0x2
0000019E  42A7                     clr.l      -[A7]
000001A0  A8EC                     syscall    CopyBits
000001A2  2079 FFFF FACC           movea.l    A0, [0xFFFFFACC]
000001A8  3039 FFFF B5C2           move.w     D0, [0xFFFFB5C2]
000001AE  B068 0016                cmp.w      D0, [A0 + 0x16]
000001B2  6F0A                     ble        +0xC /* 000001BE */
000001B4  4279 FFFF B5C0           clr.w      [0xFFFFB5C0]
000001BA  6000 008E                bra        +0x90 /* 0000024A */
label000001BE:
000001BE  0C79 0301 FFFF B5EA      cmpi.w     [0xFFFFB5EA], 0x301
000001C6  6600 0082                bne        +0x84 /* 0000024A */
000001CA  4279 FFFF B5C0           clr.w      [0xFFFFB5C0]
000001D0  4279 FFFF B5FA           clr.w      [0xFFFFB5FA]
000001D6  6072                     bra        +0x74 /* 0000024A */
label000001D8:
000001D8  0C79 0058 FFFF B5EA      cmpi.w     [0xFFFFB5EA], 0x58 /* 'X' */
000001E0  671E                     beq        +0x20 /* 00000200 */
000001E2  0C79 00DD FFFF B5EA      cmpi.w     [0xFFFFB5EA], 0xDD
000001EA  6714                     beq        +0x16 /* 00000200 */
000001EC  0C79 01A6 FFFF B5EA      cmpi.w     [0xFFFFB5EA], 0x1A6
000001F4  670A                     beq        +0xC /* 00000200 */
000001F6  0C79 02BF FFFF B5EA      cmpi.w     [0xFFFFB5EA], 0x2BF
000001FE  664A                     bne        +0x4C /* 0000024A */
label00000200:
00000200  2F3C FFFF B5C0           move.l     -[A7], 0xFFFFB5C0
00000206  2F3C FFFF B5B8           move.l     -[A7], 0xFFFFB5B8
0000020C  4EBA FDF2                jsr        [PC - 0x20E /* 00000000 */]
00000210  2EBC FFFF B5C0           move.l     [A7], 0xFFFFB5C0
00000216  3F3C 0034                move.w     -[A7], 0x34 /* '4' */
0000021A  7017                     moveq.l    D0, 0x17
0000021C  D079 FFFF B54A           add.w      D0, [0xFFFFB54A]
00000222  3F00                     move.w     -[A7], D0
00000224  A8A8                     syscall    OffsetRect
00000226  2EBC FFFF B5B2           move.l     [A7], 0xFFFFB5B2
0000022C  2079 FFFF FACC           movea.l    A0, [0xFFFFFACC]
00000232  4868 0002                pea.l      [A0 + 0x2]
00000236  2F3C FFFF B5B8           move.l     -[A7], 0xFFFFB5B8
0000023C  2F3C FFFF B5C0           move.l     -[A7], 0xFFFFB5C0
00000242  3F3C 0002                move.w     -[A7], 0x2
00000246  42A7                     clr.l      -[A7]
00000248  A8EC                     syscall    CopyBits
label0000024A:
0000024A  4E75                     rts
fn0000024C:
0000024C  4A79 FFFF B5D6           tst.w      [0xFFFFB5D6]
00000252  6700 00AC                beq        +0xAE /* 00000300 */
00000256  2F3C FFFF B5C8           move.l     -[A7], 0xFFFFB5C8
0000025C  2079 FFFF FACC           movea.l    A0, [0xFFFFFACC]
00000262  4868 0002                pea.l      [A0 + 0x2]
00000266  2F3C FFFF B5CE           move.l     -[A7], 0xFFFFB5CE
0000026C  2F3C FFFF B5D6           move.l     -[A7], 0xFFFFB5D6
00000272  3F3C 0002                move.w     -[A7], 0x2
00000276  42A7                     clr.l      -[A7]
00000278  A8EC                     syscall    CopyBits
0000027A  3039 FFFF B5D6           move.w     D0, [0xFFFFB5D6]
00000280  B079 FFFF B54E           cmp.w      D0, [0xFFFFB54E]
00000286  6F0E                     ble        +0x10 /* 00000296 */
00000288  2F3C FFFF B5D6           move.l     -[A7], 0xFFFFB5D6
0000028E  4878 FFFE                push.l     0xFFFE
00000292  A8A8                     syscall    OffsetRect
00000294  602C                     bra        +0x2E /* 000002C2 */
label00000296:
00000296  3039 FFFF B5DA           move.w     D0, [0xFFFFB5DA]
0000029C  B079 FFFF B54A           cmp.w      D0, [0xFFFFB54A]
000002A2  6C10                     bge        +0x12 /* 000002B4 */
000002A4  2F3C FFFF B5D6           move.l     -[A7], 0xFFFFB5D6
000002AA  2F3C 0001 FFFE           move.l     -[A7], 0x1FFFE
000002B0  A8A8                     syscall    OffsetRect
000002B2  600E                     bra        +0x10 /* 000002C2 */
label000002B4:
000002B4  2F3C FFFF B5D6           move.l     -[A7], 0xFFFFB5D6
000002BA  2F3C 0000 FFFE           move.l     -[A7], 0xFFFE
000002C0  A8A8                     syscall    OffsetRect
label000002C2:
000002C2  2F3C FFFF B5C8           move.l     -[A7], 0xFFFFB5C8
000002C8  2079 FFFF FACC           movea.l    A0, [0xFFFFFACC]
000002CE  4868 0002                pea.l      [A0 + 0x2]
000002D2  2F3C FFFF B5CE           move.l     -[A7], 0xFFFFB5CE
000002D8  2F3C FFFF B5D6           move.l     -[A7], 0xFFFFB5D6
000002DE  3F3C 0002                move.w     -[A7], 0x2
000002E2  42A7                     clr.l      -[A7]
000002E4  A8EC                     syscall    CopyBits
000002E6  2079 FFFF FACC           movea.l    A0, [0xFFFFFACC]
000002EC  3039 FFFF B5DC           move.w     D0, [0xFFFFB5DC]
000002F2  B068 0012                cmp.w      D0, [A0 + 0x12]
000002F6  6C66                     bge        +0x68 /* 0000035E */
000002F8  4279 FFFF B5D6           clr.w      [0xFFFFB5D6]
000002FE  605E                     bra        +0x60 /* 0000035E */
label00000300:
00000300  0C79 007D FFFF B5EA      cmpi.w     [0xFFFFB5EA], 0x7D /* '}' */
00000308  670A                     beq        +0xC /* 00000314 */
0000030A  0C79 01B8 FFFF B5EA      cmpi.w     [0xFFFFB5EA], 0x1B8
00000312  664A                     bne        +0x4C /* 0000035E */
label00000314:
00000314  2F3C FFFF B5D6           move.l     -[A7], 0xFFFFB5D6
0000031A  2F3C FFFF B5CE           move.l     -[A7], 0xFFFFB5CE
00000320  4EBA FCDE                jsr        [PC - 0x322 /* 00000000 */]
00000324  2EBC FFFF B5D6           move.l     [A7], 0xFFFFB5D6
0000032A  3F3C 017B                move.w     -[A7], 0x17B
0000032E  7016                     moveq.l    D0, 0x16
00000330  D079 FFFF B556           add.w      D0, [0xFFFFB556]
00000336  3F00                     move.w     -[A7], D0
00000338  A8A8                     syscall    OffsetRect
0000033A  2EBC FFFF B5C8           move.l     [A7], 0xFFFFB5C8
00000340  2079 FFFF FACC           movea.l    A0, [0xFFFFFACC]
00000346  4868 0002                pea.l      [A0 + 0x2]
0000034A  2F3C FFFF B5CE           move.l     -[A7], 0xFFFFB5CE
00000350  2F3C FFFF B5D6           move.l     -[A7], 0xFFFFB5D6
00000356  3F3C 0002                move.w     -[A7], 0x2
0000035A  42A7                     clr.l      -[A7]
0000035C  A8EC                     syscall    CopyBits
label0000035E:
0000035E  4E75                     rts
fn00000360:
00000360  4E56 FFF8                link       A6, -0x0008
00000364  0C79 0007 FFFF B5FA      cmpi.w     [0xFFFFB5FA], 0x7
0000036C  6C48                     bge        +0x4A /* 000003B6 */
0000036E  3039 FFFF B5FA           move.w     D0, [0xFFFFB5FA]
00000374  48C0                     ext.l      D0
00000376  E588                     lsl        D0, 2
00000378  2040                     movea.l    A0, D0
0000037A  D1FC FFFF B55E           add.l      A0, 0xFFFFB55E
00000380  2F10                     move.l     -[A7], [A0]
00000382  3039 FFFF B5FA           move.w     D0, [0xFFFFB5FA]
00000388  48C0                     ext.l      D0
0000038A  E788                     lsl        D0, 3
0000038C  0680 FFFF B57A           addi.l     D0, 0xFFFFB57A
00000392  2F00                     move.l     -[A7], D0
00000394  A8F6                     syscall    DrawPicture
00000396  4A79 FFFF B544           tst.w      [0xFFFFB544]
0000039C  6708                     beq        +0xA /* 000003A6 */
0000039E  4279 FFFF B544           clr.w      [0xFFFFB544]
000003A4  603E                     bra        +0x40 /* 000003E4 */
label000003A6:
000003A6  33FC 0001 FFFF B544      move.w     [0xFFFFB544], 0x1
000003AE  5279 FFFF B5FA           addq.w     [0xFFFFB5FA], 1
000003B4  602E                     bra        +0x30 /* 000003E4 */
label000003B6:
000003B6  0C79 0007 FFFF B5FA      cmpi.w     [0xFFFFB5FA], 0x7
000003BE  6624                     bne        +0x26 /* 000003E4 */
000003C0  3D7C 0064 FFF8           move.w     [A6 - 0x8], 0x64 /* 'd' */
000003C6  3D7C 00FA FFFC           move.w     [A6 - 0x4], 0xFA
000003CC  3D7C 017B FFFA           move.w     [A6 - 0x6], 0x17B
000003D2  3D7C 01F4 FFFE           move.w     [A6 - 0x2], 0x1F4
000003D8  486E FFF8                pea.l      [A6 - 0x8]
000003DC  A8A3                     syscall    EraseRect
000003DE  5279 FFFF B5FA           addq.w     [0xFFFFB5FA], 1
label000003E4:
000003E4  4E5E                     unlink     A6
000003E6  4E75                     rts
fn000003E8:
000003E8  2F07                     move.l     -[A7], D7
000003EA  5279 FFFF B5EA           addq.w     [0xFFFFB5EA], 1
000003F0  4EBA FD52                jsr        [PC - 0x2AE /* 00000144 */]
000003F4  4EBA FE56                jsr        [PC - 0x1AA /* 0000024C */]
000003F8  4EBA FC32                jsr        [PC - 0x3CE /* 0000002C */]
000003FC  3E00                     move.w     D7, D0
000003FE  5479 FFFF B54E           addq.w     [0xFFFFB54E], 2
00000404  5579 FFFF B54A           subq.w     [0xFFFFB54A], 2
0000040A  2F3C FFFF B54A           move.l     -[A7], 0xFFFFB54A
00000410  4267                     clr.w      -[A7]
00000412  3F07                     move.w     -[A7], D7
00000414  2F39 FFFF B5E6           move.l     -[A7], [0xFFFFB5E6]
0000041A  A8EF                     syscall    ScrollRect
0000041C  5579 FFFF B54E           subq.w     [0xFFFFB54E], 2
00000422  5479 FFFF B54A           addq.w     [0xFFFFB54A], 2
00000428  2F3C FFFF B54A           move.l     -[A7], 0xFFFFB54A
0000042E  4267                     clr.w      -[A7]
00000430  3F07                     move.w     -[A7], D7
00000432  A8A8                     syscall    OffsetRect
00000434  0C79 FFFF FFFF B5FA      cmpi.w     [0xFFFFB5FA], 0xFFFF
0000043C  663E                     bne        +0x40 /* 0000047C */
0000043E  4EBA FC9E                jsr        [PC - 0x362 /* 000000DE */]
00000442  3E00                     move.w     D7, D0
00000444  5279 FFFF B55A           addq.w     [0xFFFFB55A], 1
0000044A  5379 FFFF B556           subq.w     [0xFFFFB556], 1
00000450  2F3C FFFF B556           move.l     -[A7], 0xFFFFB556
00000456  4267                     clr.w      -[A7]
00000458  3F07                     move.w     -[A7], D7
0000045A  2F39 FFFF B5E6           move.l     -[A7], [0xFFFFB5E6]
00000460  A8EF                     syscall    ScrollRect
00000462  5379 FFFF B55A           subq.w     [0xFFFFB55A], 1
00000468  5279 FFFF B556           addq.w     [0xFFFFB556], 1
0000046E  2F3C FFFF B556           move.l     -[A7], 0xFFFFB556
00000474  4267                     clr.w      -[A7]
00000476  3F07                     move.w     -[A7], D7
00000478  A8A8                     syscall    OffsetRect
0000047A  6004                     bra        +0x6 /* 00000480 */
label0000047C:
0000047C  4EBA FEE2                jsr        [PC - 0x11E /* 00000360 */]
label00000480:
00000480  2E1F                     move.l     D7, [A7]+
00000482  4E75                     rts
export_93:
00000484  4E56 0000                link       A6, 0
00000488  2F3C FFFF B5FC           move.l     -[A7], 0xFFFFB5FC
0000048E  A8A3                     syscall    EraseRect
00000490  2F39 FFFF B546           move.l     -[A7], [0xFFFFB546]
00000496  2F3C FFFF B54A           move.l     -[A7], 0xFFFFB54A
0000049C  A8F6                     syscall    DrawPicture
0000049E  0C79 FFFF FFFF B5FA      cmpi.w     [0xFFFFB5FA], 0xFFFF
000004A6  6610                     bne        +0x12 /* 000004B8 */
000004A8  2F39 FFFF B552           move.l     -[A7], [0xFFFFB552]
000004AE  2F3C FFFF B556           move.l     -[A7], 0xFFFFB556
000004B4  A8F6                     syscall    DrawPicture
000004B6  6032                     bra        +0x34 /* 000004EA */
label000004B8:
000004B8  0C79 0007 FFFF B5FA      cmpi.w     [0xFFFFB5FA], 0x7
000004C0  6C28                     bge        +0x2A /* 000004EA */
000004C2  3039 FFFF B5FA           move.w     D0, [0xFFFFB5FA]
000004C8  48C0                     ext.l      D0
000004CA  E588                     lsl        D0, 2
000004CC  2040                     movea.l    A0, D0
000004CE  D1FC FFFF B55E           add.l      A0, 0xFFFFB55E
000004D4  2F10                     move.l     -[A7], [A0]
000004D6  3039 FFFF B5FA           move.w     D0, [0xFFFFB5FA]
000004DC  48C0                     ext.l      D0
000004DE  E788                     lsl        D0, 3
000004E0  0680 FFFF B57A           addi.l     D0, 0xFFFFB57A
000004E6  2F00                     move.l     -[A7], D0
000004E8  A8F6                     syscall    DrawPicture
label000004EA:
000004EA  3F3C 0003                move.w     -[A7], 0x3
000004EE  A887                     syscall    TextFont
000004F0  3F3C 0009                move.w     -[A7], 0x9 /* '\t' */
000004F4  A88A                     syscall    TextSize
000004F6  4878 0199                push.l     0x199
000004FA  A862                     syscall    ForeColor
000004FC  3039 FFFF B5F8           move.w     D0, [0xFFFFB5F8]
00000502  48C0                     ext.l      D0
00000504  E588                     lsl        D0, 2
00000506  2040                     movea.l    A0, D0
00000508  D1FC FFFF B5EC           add.l      A0, 0xFFFFB5EC
0000050E  2050                     movea.l    A0, [A0]
00000510  A029                     syscall    HLock
00000512  3039 FFFF B5F8           move.w     D0, [0xFFFFB5F8]
00000518  48C0                     ext.l      D0
0000051A  E588                     lsl        D0, 2
0000051C  2040                     movea.l    A0, D0
0000051E  D1FC FFFF B5EC           add.l      A0, 0xFFFFB5EC
00000524  2050                     movea.l    A0, [A0]
00000526  2F10                     move.l     -[A7], [A0]
00000528  42A7                     clr.l      -[A7]
0000052A  3039 FFFF B5F8           move.w     D0, [0xFFFFB5F8]
00000530  48C0                     ext.l      D0
00000532  E588                     lsl        D0, 2
00000534  2040                     movea.l    A0, D0
00000536  D1FC FFFF B5EC           add.l      A0, 0xFFFFB5EC
0000053C  2F10                     move.l     -[A7], [A0]
0000053E  4EAD 03BA                jsr        [A5 + 0x3BA /* export_115, CODE:7 @ 0000272A */]
00000542  2F3C FFFF B5DE           move.l     -[A7], 0xFFFFB5DE
00000548  4267                     clr.w      -[A7]
0000054A  A9CE                     syscall    TETextBox/TextBox
0000054C  3039 FFFF B5F8           move.w     D0, [0xFFFFB5F8]
00000552  48C0                     ext.l      D0
00000554  E588                     lsl        D0, 2
00000556  2040                     movea.l    A0, D0
00000558  D1FC FFFF B5EC           add.l      A0, 0xFFFFB5EC
0000055E  2050                     movea.l    A0, [A0]
00000560  A02A                     syscall    HUnlock
00000562  4878 0021                push.l     0x21 /* '!' */
00000566  A862                     syscall    ForeColor
00000568  4267                     clr.w      -[A7]
0000056A  A887                     syscall    TextFont
0000056C  3F3C 000C                move.w     -[A7], 0xC
00000570  A88A                     syscall    TextSize
00000572  4A79 FFFF B5C0           tst.w      [0xFFFFB5C0]
00000578  6724                     beq        +0x26 /* 0000059E */
0000057A  2F3C FFFF B5B2           move.l     -[A7], 0xFFFFB5B2
00000580  2079 FFFF FACC           movea.l    A0, [0xFFFFFACC]
00000586  4868 0002                pea.l      [A0 + 0x2]
0000058A  2F3C FFFF B5B8           move.l     -[A7], 0xFFFFB5B8
00000590  2F3C FFFF B5C0           move.l     -[A7], 0xFFFFB5C0
00000596  3F3C 0002                move.w     -[A7], 0x2
0000059A  42A7                     clr.l      -[A7]
0000059C  A8EC                     syscall    CopyBits
label0000059E:
0000059E  4A79 FFFF B5D6           tst.w      [0xFFFFB5D6]
000005A4  6724                     beq        +0x26 /* 000005CA */
000005A6  2F3C FFFF B5C8           move.l     -[A7], 0xFFFFB5C8
000005AC  2079 FFFF FACC           movea.l    A0, [0xFFFFFACC]
000005B2  4868 0002                pea.l      [A0 + 0x2]
000005B6  2F3C FFFF B5CE           move.l     -[A7], 0xFFFFB5CE
000005BC  2F3C FFFF B5D6           move.l     -[A7], 0xFFFFB5D6
000005C2  3F3C 0002                move.w     -[A7], 0x2
000005C6  42A7                     clr.l      -[A7]
000005C8  A8EC                     syscall    CopyBits
label000005CA:
000005CA  4E5E                     unlink     A6
000005CC  205F                     movea.l    A0, [A7]+
000005CE  5C8F                     addq.l     A7, 6
000005D0  4ED0                     jmp        [A0]
fn000005D2:
000005D2  4E56 FFF2                link       A6, -0x000E
000005D6  48E7 0118                movem.l    -[A7], D7,A3,A4
000005DA  42A7                     clr.l      -[A7]
000005DC  2F3C 5049 4354           move.l     -[A7], 0x50494354 /* 'PICT' */
000005E2  3F3C 03ED                move.w     -[A7], 0x3ED
000005E6  A9A0                     syscall    GetResource
000005E8  23DF FFFF B546           move.l     [0xFFFFB546], [A7]+
000005EE  4A78 0A60                tst.w      [0x00000A60 /* ResErr */]
000005F2  6706                     beq        +0x8 /* 000005FA */
000005F4  3F3C 0001                move.w     -[A7], 0x1
000005F8  A9C8                     syscall    SysBeep
label000005FA:
000005FA  2079 FFFF B546           movea.l    A0, [0xFFFFB546]
00000600  A04A                     syscall    HNoPurge
00000602  2F3C FFFF B54A           move.l     -[A7], 0xFFFFB54A
00000608  2079 FFFF B546           movea.l    A0, [0xFFFFB546]
0000060E  2050                     movea.l    A0, [A0]
00000610  4868 0002                pea.l      [A0 + 0x2]
00000614  4EBA F9EA                jsr        [PC - 0x616 /* 00000000 */]
00000618  2EBC FFFF B54A           move.l     [A7], 0xFFFFB54A
0000061E  2F3C 0052 0000           move.l     -[A7], 0x520000 /* 'R\0\0' */
00000624  A8A8                     syscall    OffsetRect
00000626  4297                     clr.l      [A7]
00000628  2F3C 5049 4354           move.l     -[A7], 0x50494354 /* 'PICT' */
0000062E  3F3C 03EE                move.w     -[A7], 0x3EE
00000632  A9A0                     syscall    GetResource
00000634  23DF FFFF B552           move.l     [0xFFFFB552], [A7]+
0000063A  4A78 0A60                tst.w      [0x00000A60 /* ResErr */]
0000063E  6706                     beq        +0x8 /* 00000646 */
00000640  3F3C 0001                move.w     -[A7], 0x1
00000644  A9C8                     syscall    SysBeep
label00000646:
00000646  2079 FFFF B552           movea.l    A0, [0xFFFFB552]
0000064C  A04A                     syscall    HNoPurge
0000064E  2F3C FFFF B556           move.l     -[A7], 0xFFFFB556
00000654  2079 FFFF B552           movea.l    A0, [0xFFFFB552]
0000065A  2050                     movea.l    A0, [A0]
0000065C  4868 0002                pea.l      [A0 + 0x2]
00000660  4EBA F99E                jsr        [PC - 0x662 /* 00000000 */]
00000664  2EBC FFFF B556           move.l     [A7], 0xFFFFB556
0000066A  2F3C 00C8 018B           move.l     -[A7], 0xC8018B
00000670  A8A8                     syscall    OffsetRect
00000672  2079 FFFF FACC           movea.l    A0, [0xFFFFFACC]
00000678  43EE FFF2                lea.l      A1, [A6 - 0xE]
0000067C  5488                     addq.l     A0, 2
0000067E  22D8                     move.l     [A1]+, [A0]+
00000680  22D8                     move.l     [A1]+, [A0]+
00000682  22D8                     move.l     [A1]+, [A0]+
00000684  32D8                     move.w     [A1]+, [A0]+
00000686  4297                     clr.l      [A7]
00000688  2F3C 5049 4354           move.l     -[A7], 0x50494354 /* 'PICT' */
0000068E  3F3C 03EF                move.w     -[A7], 0x3EF
00000692  A9A0                     syscall    GetResource
00000694  285F                     movea.l    A4, [A7]+
00000696  4A78 0A60                tst.w      [0x00000A60 /* ResErr */]
0000069A  6706                     beq        +0x8 /* 000006A2 */
0000069C  3F3C 0001                move.w     -[A7], 0x1
000006A0  A9C8                     syscall    SysBeep
label000006A2:
000006A2  204C                     movea.l    A0, A4
000006A4  A04A                     syscall    HNoPurge
000006A6  2F3C FFFF B5B8           move.l     -[A7], 0xFFFFB5B8
000006AC  2054                     movea.l    A0, [A4]
000006AE  4868 0002                pea.l      [A0 + 0x2]
000006B2  4EBA F94C                jsr        [PC - 0x6B4 /* 00000000 */]
000006B6  2EBC FFFF B5B8           move.l     [A7], 0xFFFFB5B8
000006BC  3039 FFFF B5BA           move.w     D0, [0xFFFFB5BA]
000006C2  4440                     neg.w      D0
000006C4  3F00                     move.w     -[A7], D0
000006C6  3039 FFFF B5B8           move.w     D0, [0xFFFFB5B8]
000006CC  4440                     neg.w      D0
000006CE  3F00                     move.w     -[A7], D0
000006D0  A8A8                     syscall    OffsetRect
000006D2  33FC 0002 FFFF B5B6      move.w     [0xFFFFB5B6], 0x2
000006DA  3039 FFFF B5BC           move.w     D0, [0xFFFFB5BC]
000006E0  D040                     add.w      D0, D0
000006E2  48C0                     ext.l      D0
000006E4  A11E                     syscall    NewPtr, flags=1
000006E6  23C8 FFFF B5B2           move.l     [0xFFFFB5B2], A0
000006EC  2EBC FFFF B5B2           move.l     [A7], 0xFFFFB5B2
000006F2  A875                     syscall    SetPBits/SetPortBits
000006F4  2F3C FFFF B5B8           move.l     -[A7], 0xFFFFB5B8
000006FA  A8A3                     syscall    EraseRect
000006FC  2F0C                     move.l     -[A7], A4
000006FE  2F3C FFFF B5B8           move.l     -[A7], 0xFFFFB5B8
00000704  A8F6                     syscall    DrawPicture
00000706  204C                     movea.l    A0, A4
00000708  A049                     syscall    HPurge
0000070A  4279 FFFF B5C0           clr.w      [0xFFFFB5C0]
00000710  42A7                     clr.l      -[A7]
00000712  2F3C 5049 4354           move.l     -[A7], 0x50494354 /* 'PICT' */
00000718  3F3C 03F0                move.w     -[A7], 0x3F0
0000071C  A9A0                     syscall    GetResource
0000071E  285F                     movea.l    A4, [A7]+
00000720  4A78 0A60                tst.w      [0x00000A60 /* ResErr */]
00000724  6706                     beq        +0x8 /* 0000072C */
00000726  3F3C 0001                move.w     -[A7], 0x1
0000072A  A9C8                     syscall    SysBeep
label0000072C:
0000072C  204C                     movea.l    A0, A4
0000072E  A04A                     syscall    HNoPurge
00000730  2F3C FFFF B5CE           move.l     -[A7], 0xFFFFB5CE
00000736  2054                     movea.l    A0, [A4]
00000738  4868 0002                pea.l      [A0 + 0x2]
0000073C  4EBA F8C2                jsr        [PC - 0x73E /* 00000000 */]
00000740  2EBC FFFF B5CE           move.l     [A7], 0xFFFFB5CE
00000746  3039 FFFF B5D0           move.w     D0, [0xFFFFB5D0]
0000074C  4440                     neg.w      D0
0000074E  3F00                     move.w     -[A7], D0
00000750  3039 FFFF B5CE           move.w     D0, [0xFFFFB5CE]
00000756  4440                     neg.w      D0
00000758  3F00                     move.w     -[A7], D0
0000075A  A8A8                     syscall    OffsetRect
0000075C  33FC 0002 FFFF B5CC      move.w     [0xFFFFB5CC], 0x2
00000764  3039 FFFF B5D2           move.w     D0, [0xFFFFB5D2]
0000076A  D040                     add.w      D0, D0
0000076C  48C0                     ext.l      D0
0000076E  A11E                     syscall    NewPtr, flags=1
00000770  23C8 FFFF B5C8           move.l     [0xFFFFB5C8], A0
00000776  2EBC FFFF B5C8           move.l     [A7], 0xFFFFB5C8
0000077C  A875                     syscall    SetPBits/SetPortBits
0000077E  2F3C FFFF B5CE           move.l     -[A7], 0xFFFFB5CE
00000784  A8A3                     syscall    EraseRect
00000786  2F0C                     move.l     -[A7], A4
00000788  2F3C FFFF B5CE           move.l     -[A7], 0xFFFFB5CE
0000078E  A8F6                     syscall    DrawPicture
00000790  204C                     movea.l    A0, A4
00000792  A049                     syscall    HPurge
00000794  4279 FFFF B5D6           clr.w      [0xFFFFB5D6]
0000079A  486E FFF2                pea.l      [A6 - 0xE]
0000079E  A875                     syscall    SetPBits/SetPortBits
000007A0  7E00                     moveq.l    D7, 0x00
000007A2  287C FFFF B5EC           movea.l    A4, 0xFFFFB5EC
000007A8  6028                     bra        +0x2A /* 000007D2 */
label000007AA:
000007AA  42A7                     clr.l      -[A7]
000007AC  2F3C 5445 5854           move.l     -[A7], 0x54455854 /* 'TEXT' */
000007B2  3007                     move.w     D0, D7
000007B4  0640 03E8                addi.w     D0, 0x3E8
000007B8  3F00                     move.w     -[A7], D0
000007BA  A9A0                     syscall    GetResource
000007BC  289F                     move.l     [A4], [A7]+
000007BE  4A78 0A60                tst.w      [0x00000A60 /* ResErr */]
000007C2  6706                     beq        +0x8 /* 000007CA */
000007C4  3F3C 0001                move.w     -[A7], 0x1
000007C8  A9C8                     syscall    SysBeep
label000007CA:
000007CA  2054                     movea.l    A0, [A4]
000007CC  A04A                     syscall    HNoPurge
000007CE  5247                     addq.w     D7, 1
000007D0  588C                     addq.l     A4, 4
label000007D2:
000007D2  0C47 0003                cmpi.w     D7, 0x3
000007D6  6DD2                     blt        -0x2C /* 000007AA */
000007D8  33FC 0052 FFFF B5DE      move.w     [0xFFFFB5DE], 0x52 /* 'R' */
000007E0  33FC 00FA FFFF B5E2      move.w     [0xFFFFB5E2], 0xFA
000007E8  33FC 003C FFFF B5E0      move.w     [0xFFFFB5E0], 0x3C /* '<' */
000007F0  33FC 0180 FFFF B5E4      move.w     [0xFFFFB5E4], 0x180
000007F8  7E00                     moveq.l    D7, 0x00
000007FA  287C FFFF B57A           movea.l    A4, 0xFFFFB57A
00000800  267C FFFF B55E           movea.l    A3, 0xFFFFB55E
00000806  6054                     bra        +0x56 /* 0000085C */
label00000808:
00000808  42A7                     clr.l      -[A7]
0000080A  2F3C 5049 4354           move.l     -[A7], 0x50494354 /* 'PICT' */
00000810  3007                     move.w     D0, D7
00000812  0640 044C                addi.w     D0, 0x44C
00000816  3F00                     move.w     -[A7], D0
00000818  A9A0                     syscall    GetResource
0000081A  269F                     move.l     [A3], [A7]+
0000081C  4A78 0A60                tst.w      [0x00000A60 /* ResErr */]
00000820  6706                     beq        +0x8 /* 00000828 */
00000822  3F3C 0001                move.w     -[A7], 0x1
00000826  A9C8                     syscall    SysBeep
label00000828:
00000828  2F0C                     move.l     -[A7], A4
0000082A  2053                     movea.l    A0, [A3]
0000082C  2050                     movea.l    A0, [A0]
0000082E  4868 0002                pea.l      [A0 + 0x2]
00000832  4EBA F7CC                jsr        [PC - 0x834 /* 00000000 */]
00000836  2E8C                     move.l     [A7], A4
00000838  302C 0002                move.w     D0, [A4 + 0x2]
0000083C  4440                     neg.w      D0
0000083E  0640 017B                addi.w     D0, 0x17B
00000842  3F00                     move.w     -[A7], D0
00000844  3014                     move.w     D0, [A4]
00000846  4440                     neg.w      D0
00000848  0640 009F                addi.w     D0, 0x9F
0000084C  3F00                     move.w     -[A7], D0
0000084E  A8A8                     syscall    OffsetRect
00000850  2053                     movea.l    A0, [A3]
00000852  A04A                     syscall    HNoPurge
00000854  588F                     addq.l     A7, 4
00000856  5247                     addq.w     D7, 1
00000858  508C                     addq.l     A4, 8
0000085A  588B                     addq.l     A3, 4
label0000085C:
0000085C  0C47 0007                cmpi.w     D7, 0x7
00000860  6DA6                     blt        -0x58 /* 00000808 */
00000862  4279 FFFF B5EA           clr.w      [0xFFFFB5EA]
00000868  4279 FFFF B5F8           clr.w      [0xFFFFB5F8]
0000086E  33FC FFFF FFFF B5FA      move.w     [0xFFFFB5FA], 0xFFFF
00000876  42A7                     clr.l      -[A7]
00000878  A8D8                     syscall    NewRgn
0000087A  23DF FFFF B5E6           move.l     [0xFFFFB5E6], [A7]+
00000880  4CDF 1880                movem.l    D7,A3,A4, [A7]+
00000884  4E5E                     unlink     A6
00000886  4E75                     rts
fn00000888:
00000888  48E7 0108                movem.l    -[A7], D7,A4
0000088C  2079 FFFF B546           movea.l    A0, [0xFFFFB546]
00000892  A049                     syscall    HPurge
00000894  2079 FFFF B552           movea.l    A0, [0xFFFFB552]
0000089A  A049                     syscall    HPurge
0000089C  2079 FFFF B5B2           movea.l    A0, [0xFFFFB5B2]
000008A2  A01F                     syscall    DisposPtr/DisposePtr
000008A4  4A78 0220                tst.w      [0x00000220 /* MemErr */]
000008A8  6706                     beq        +0x8 /* 000008B0 */
000008AA  3F3C 0001                move.w     -[A7], 0x1
000008AE  A9C8                     syscall    SysBeep
label000008B0:
000008B0  2F39 FFFF B5E6           move.l     -[A7], [0xFFFFB5E6]
000008B6  A8D9                     syscall    DisposRgn/DisposeRgn
000008B8  7E00                     moveq.l    D7, 0x00
000008BA  287C FFFF B5EC           movea.l    A4, 0xFFFFB5EC
000008C0  6008                     bra        +0xA /* 000008CA */
label000008C2:
000008C2  2054                     movea.l    A0, [A4]
000008C4  A049                     syscall    HPurge
000008C6  5247                     addq.w     D7, 1
000008C8  588C                     addq.l     A4, 4
label000008CA:
000008CA  0C47 0003                cmpi.w     D7, 0x3
000008CE  6DF2                     blt        -0xC /* 000008C2 */
000008D0  7E00                     moveq.l    D7, 0x00
000008D2  287C FFFF B55E           movea.l    A4, 0xFFFFB55E
000008D8  6008                     bra        +0xA /* 000008E2 */
label000008DA:
000008DA  2054                     movea.l    A0, [A4]
000008DC  A049                     syscall    HPurge
000008DE  5247                     addq.w     D7, 1
000008E0  588C                     addq.l     A4, 4
label000008E2:
000008E2  0C47 0007                cmpi.w     D7, 0x7
000008E6  6DF2                     blt        -0xC /* 000008DA */
000008E8  4CDF 1080                movem.l    D7,A4, [A7]+
000008EC  4E75                     rts
export_94:
000008EE  4E56 FFEA                link       A6, -0x0016
000008F2  48E7 0108                movem.l    -[A7], D7,A4
000008F6  42A7                     clr.l      -[A7]
000008F8  A8D8                     syscall    NewRgn
000008FA  285F                     movea.l    A4, [A7]+
000008FC  2F0C                     move.l     -[A7], A4
000008FE  A87A                     syscall    GetClip
00000900  42A7                     clr.l      -[A7]
00000902  3F3C 03EE                move.w     -[A7], 0x3EE
00000906  42A7                     clr.l      -[A7]
00000908  4878 FFFF                push.l     0xFFFF
0000090C  A97C                     syscall    GetNewDialog
0000090E  2D5F FFFC                move.l     [A6 - 0x4], [A7]+
00000912  206E FFFC                movea.l    A0, [A6 - 0x4]
00000916  4868 0010                pea.l      [A0 + 0x10]
0000091A  A87B                     syscall    ClipRect
0000091C  4EBA FCB4                jsr        [PC - 0x34C /* 000005D2 */]
00000920  3F3C 0008                move.w     -[A7], 0x8
00000924  2F2E FFFC                move.l     -[A7], [A6 - 0x4]
00000928  4EBA 466C                jsr        [PC + 0x466C /* 00004F96 */]
0000092C  2EAE FFFC                move.l     [A7], [A6 - 0x4]
00000930  3F3C 0003                move.w     -[A7], 0x3
00000934  486E FFFA                pea.l      [A6 - 0x6]
00000938  486E FFF6                pea.l      [A6 - 0xA]
0000093C  2F3C FFFF B5FC           move.l     -[A7], 0xFFFFB5FC
00000942  A98D                     syscall    GetDialogItem/GetDItem
00000944  2F2E FFFC                move.l     -[A7], [A6 - 0x4]
00000948  3F3C 0003                move.w     -[A7], 0x3
0000094C  3F2E FFFA                move.w     -[A7], [A6 - 0x6]
00000950  486D 030A                pea.l      [A5 + 0x30A /* export_93, CODE:2 @ 00000484 */]
00000954  2F3C FFFF B5FC           move.l     -[A7], 0xFFFFB5FC
0000095A  A98E                     syscall    SetDialogItem/SetDItem
0000095C  486E FFEA                pea.l      [A6 - 0x16]
00000960  A874                     syscall    GetPort
00000962  2F2E FFFC                move.l     -[A7], [A6 - 0x4]
00000966  A873                     syscall    SetPort
00000968  3D7C FFFF FFFA           move.w     [A6 - 0x6], 0xFFFF
0000096E  548F                     addq.l     A7, 2
label00000970:
00000970  42A7                     clr.l      -[A7]
00000972  A975                     syscall    TickCount
00000974  7E02                     moveq.l    D7, 0x02
00000976  DE9F                     add.l      D7, [A7]+
label00000978:
00000978  42A7                     clr.l      -[A7]
0000097A  A975                     syscall    TickCount
0000097C  BE9F                     cmp.l      D7, [A7]+
0000097E  6304                     bls        +0x6 /* 00000984 */
00000980  A9B4                     syscall    SystemTask
00000982  60F4                     bra        -0xA /* 00000978 */
label00000984:
00000984  4EBA FA62                jsr        [PC - 0x59E /* 000003E8 */]
00000988  4227                     clr.b      -[A7]
0000098A  3F3C FFFF                move.w     -[A7], 0xFFFF
0000098E  2F3C FFFF 7D5A           move.l     -[A7], 0xFFFF7D5A
00000994  A970                     syscall    GetNextEvent
00000996  7E00                     moveq.l    D7, 0x00
00000998  1E1F                     move.b     D7, [A7]+
0000099A  4227                     clr.b      -[A7]
0000099C  2F3C FFFF 7D5A           move.l     -[A7], 0xFFFF7D5A
000009A2  A97F                     syscall    IsDialogEvent
000009A4  4A1F                     tst.b      [A7]+
000009A6  6612                     bne        +0x14 /* 000009BA */
000009A8  0C79 0001 FFFF 7D5A      cmpi.w     [0xFFFF7D5A], 0x1
000009B0  6666                     bne        +0x68 /* 00000A18 */
000009B2  3F3C 0001                move.w     -[A7], 0x1
000009B6  A9C8                     syscall    SysBeep
000009B8  605E                     bra        +0x60 /* 00000A18 */
label000009BA:
000009BA  0C79 0003 FFFF 7D5A      cmpi.w     [0xFFFF7D5A], 0x3
000009C2  6640                     bne        +0x42 /* 00000A04 */
000009C4  2039 FFFF 7D5C           move.l     D0, [0xFFFF7D5C]
000009CA  0280 0000 00FF           andi.l     D0, 0xFF
000009D0  720D                     moveq.l    D1, 0x0D
000009D2  B280                     cmp.l      D1, D0
000009D4  662E                     bne        +0x30 /* 00000A04 */
000009D6  33FC 0001 FFFF 7D5A      move.w     [0xFFFF7D5A], 0x1
000009DE  33FC 0100 FFFF 7D66      move.w     [0xFFFF7D66], 0x100
000009E6  33FC 013C FFFF 7D64      move.w     [0xFFFF7D64], 0x13C
000009EE  4227                     clr.b      -[A7]
000009F0  2F3C FFFF 7D5A           move.l     -[A7], 0xFFFF7D5A
000009F6  486E FFFC                pea.l      [A6 - 0x4]
000009FA  486E FFFA                pea.l      [A6 - 0x6]
000009FE  A980                     syscall    DialogSelect
00000A00  548F                     addq.l     A7, 2
00000A02  6014                     bra        +0x16 /* 00000A18 */
label00000A04:
00000A04  4227                     clr.b      -[A7]
00000A06  2F3C FFFF 7D5A           move.l     -[A7], 0xFFFF7D5A
00000A0C  486E FFFC                pea.l      [A6 - 0x4]
00000A10  486E FFFA                pea.l      [A6 - 0x6]
00000A14  A980                     syscall    DialogSelect
00000A16  548F                     addq.l     A7, 2
label00000A18:
00000A18  0C6E 0001 FFFA           cmpi.w     [A6 - 0x6], 0x1
00000A1E  664E                     bne        +0x50 /* 00000A6E */
00000A20  0C79 0002 FFFF B5F8      cmpi.w     [0xFFFFB5F8], 0x2
00000A28  6C44                     bge        +0x46 /* 00000A6E */
00000A2A  5279 FFFF B5F8           addq.w     [0xFFFFB5F8], 1
00000A30  0C79 0002 FFFF B5F8      cmpi.w     [0xFFFFB5F8], 0x2
00000A38  6622                     bne        +0x24 /* 00000A5C */
00000A3A  2F2E FFFC                move.l     -[A7], [A6 - 0x4]
00000A3E  3F3C 0001                move.w     -[A7], 0x1
00000A42  486E FFFA                pea.l      [A6 - 0x6]
00000A46  486E FFF6                pea.l      [A6 - 0xA]
00000A4A  486E FFEE                pea.l      [A6 - 0x12]
00000A4E  A98D                     syscall    GetDialogItem/GetDItem
00000A50  2F2E FFF6                move.l     -[A7], [A6 - 0xA]
00000A54  2F3C FFFF B604           move.l     -[A7], 0xFFFFB604
00000A5A  A95F                     syscall    SetControlTitle/SetCTitle
label00000A5C:
00000A5C  2079 FFFF FACC           movea.l    A0, [0xFFFFFACC]
00000A62  4868 0010                pea.l      [A0 + 0x10]
00000A66  A928                     syscall    InvalRect
00000A68  3D7C FFFF FFFA           move.w     [A6 - 0x6], 0xFFFF
label00000A6E:
00000A6E  0C6E 0001 FFFA           cmpi.w     [A6 - 0x6], 0x1
00000A74  6600 FEFA                bne        -0x104 /* 00000970 */
00000A78  2F2E FFEA                move.l     -[A7], [A6 - 0x16]
00000A7C  A873                     syscall    SetPort
00000A7E  2F2E FFFC                move.l     -[A7], [A6 - 0x4]
00000A82  A983                     syscall    DisposeDialog
00000A84  4EBA FE02                jsr        [PC - 0x1FE /* 00000888 */]
00000A88  2F0C                     move.l     -[A7], A4
00000A8A  A879                     syscall    SetClip
00000A8C  2F0C                     move.l     -[A7], A4
00000A8E  A8D9                     syscall    DisposRgn/DisposeRgn
00000A90  4CDF 1080                movem.l    D7,A4, [A7]+
00000A94  4E5E                     unlink     A6
00000A96  4E75                     rts
export_82:
00000A98  4279 FFFF 922C           clr.w      [0xFFFF922C]
00000A9E  4279 FFFF 922E           clr.w      [0xFFFF922E]
00000AA4  42B9 FFFF B7C6           clr.l      [0xFFFFB7C6]
00000AAA  33FC 0001 FFFF 9222      move.w     [0xFFFF9222], 0x1
00000AB2  2F39 FFFF 9078           move.l     -[A7], [0xFFFF9078]
00000AB8  0C79 0001 FFFF 9226      cmpi.w     [0xFFFF9226], 0x1
00000AC0  5DC0                     slt        D0
00000AC2  4400                     neg.b      D0
00000AC4  4880                     ext.w      D0
00000AC6  C1FC 00FF                muls.w     D0, 0xFF
00000ACA  3F00                     move.w     -[A7], D0
00000ACC  A95D                     syscall    HiliteControl
00000ACE  2079 FFFF 7D56           movea.l    A0, [0xFFFF7D56]
00000AD4  4868 0010                pea.l      [A0 + 0x10]
00000AD8  A928                     syscall    InvalRect
00000ADA  4EBA 10F4                jsr        [PC + 0x10F4 /* 00001BD0 */]
00000ADE  4E75                     rts
export_83:
00000AE0  4279 FFFF 922C           clr.w      [0xFFFF922C]
00000AE6  4A39 FFFF 9081           tst.b      [0xFFFF9081]
00000AEC  6616                     bne        +0x18 /* 00000B04 */
00000AEE  2079 FFFF B70A           movea.l    A0, [0xFFFFB70A]
00000AF4  A01F                     syscall    DisposPtr/DisposePtr
00000AF6  4A78 0220                tst.w      [0x00000220 /* MemErr */]
00000AFA  673C                     beq        +0x3E /* 00000B38 */
00000AFC  3F3C 0001                move.w     -[A7], 0x1
00000B00  A9C8                     syscall    SysBeep
00000B02  6034                     bra        +0x36 /* 00000B38 */
label00000B04:
00000B04  2079 FFFF B71A           movea.l    A0, [0xFFFFB71A]
00000B0A  A02A                     syscall    HUnlock
00000B0C  4A78 0220                tst.w      [0x00000220 /* MemErr */]
00000B10  6706                     beq        +0x8 /* 00000B18 */
00000B12  3F3C 0001                move.w     -[A7], 0x1
00000B16  A9C8                     syscall    SysBeep
label00000B18:
00000B18  2079 FFFF B71A           movea.l    A0, [0xFFFFB71A]
00000B1E  2050                     movea.l    A0, [A0]
00000B20  2050                     movea.l    A0, [A0]
00000B22  A01F                     syscall    DisposPtr/DisposePtr
00000B24  4A78 0220                tst.w      [0x00000220 /* MemErr */]
00000B28  6706                     beq        +0x8 /* 00000B30 */
00000B2A  3F3C 0001                move.w     -[A7], 0x1
00000B2E  A9C8                     syscall    SysBeep
label00000B30:
00000B30  2F3C FFFF B718           move.l     -[A7], 0xFFFFB718
00000B36  A87D                     syscall    ClosePort
label00000B38:
00000B38  4E75                     rts
export_84:
00000B3A  4E56 FBD6                link       A6, -0x042A
00000B3E  48E7 0738                movem.l    -[A7], D5,D6,D7,A2,A3,A4
00000B42  41EE FEE8                lea.l      A0, [A6 - 0x118]
00000B46  43F9 FFFF B60A           lea.l      A1, [0xFFFFB60A]
00000B4C  703F                     moveq.l    D0, 0x3F
label00000B4E:
00000B4E  20D9                     move.l     [A0]+, [A1]+
00000B50  51C8 FFFC                dbf        D0, -0x6 /* 00000B4E */
00000B54  4A79 FFFF 922C           tst.w      [0xFFFF922C]
00000B5A  6712                     beq        +0x14 /* 00000B6E */
00000B5C  0C79 0006 FFFF 923A      cmpi.w     [0xFFFF923A], 0x6
00000B64  6708                     beq        +0xA /* 00000B6E */
00000B66  4EAD 035A                jsr        [A5 + 0x35A /* export_103, CODE:3 @ 00002DA4 */]
00000B6A  6000 02DA                bra        +0x2DC /* 00000E46 */
label00000B6E:
00000B6E  426E FFF8                clr.w      [A6 - 0x8]
00000B72  3D7C 012C FFFC           move.w     [A6 - 0x4], 0x12C
00000B78  3D7C 012C FFFA           move.w     [A6 - 0x6], 0x12C
00000B7E  3D7C 01F4 FFFE           move.w     [A6 - 0x2], 0x1F4
00000B84  486E FFF8                pea.l      [A6 - 0x8]
00000B88  A8A3                     syscall    EraseRect
00000B8A  4267                     clr.w      -[A7]
00000B8C  A887                     syscall    TextFont
00000B8E  3F3C 000C                move.w     -[A7], 0xC
00000B92  A88A                     syscall    TextSize
00000B94  3E39 FFFF 9226           move.w     D7, [0xFFFF9226]
00000B9A  601A                     bra        +0x1C /* 00000BB6 */
label00000B9C:
00000B9C  3F3C 0136                move.w     -[A7], 0x136
00000BA0  7022                     moveq.l    D0, 0x22
00000BA2  C1C7                     muls.w     D0, D7
00000BA4  0640 0014                addi.w     D0, 0x14
00000BA8  3F00                     move.w     -[A7], D0
00000BAA  A893                     syscall    MoveTo
00000BAC  2F3C FFFF B7D0           move.l     -[A7], 0xFFFFB7D0
00000BB2  A884                     syscall    DrawString
00000BB4  5247                     addq.w     D7, 1
label00000BB6:
00000BB6  0C47 0006                cmpi.w     D7, 0x6
00000BBA  6DE0                     blt        -0x1E /* 00000B9C */
00000BBC  0C79 0006 FFFF 923A      cmpi.w     [0xFFFF923A], 0x6
00000BC4  6700 0090                beq        +0x92 /* 00000C56 */
00000BC8  7E22                     moveq.l    D7, 0x22
00000BCA  CFF9 FFFF 923A           muls.w     D7, [0xFFFF923A]
00000BD0  7015                     moveq.l    D0, 0x15
00000BD2  D047                     add.w      D0, D7
00000BD4  3D40 FFF0                move.w     [A6 - 0x10], D0
00000BD8  3D7C 0154 FFF2           move.w     [A6 - 0xE], 0x154
00000BDE  3D7C 0174 FFF6           move.w     [A6 - 0xA], 0x174
00000BE4  7035                     moveq.l    D0, 0x35
00000BE6  D047                     add.w      D0, D7
00000BE8  3D40 FFF4                move.w     [A6 - 0xC], D0
00000BEC  426E FBD8                clr.w      [A6 - 0x428]
00000BF0  426E FBD6                clr.w      [A6 - 0x42A]
00000BF4  486E FBD6                pea.l      [A6 - 0x42A]
00000BF8  A870                     syscall    LocalToGlobal
00000BFA  486E FFF0                pea.l      [A6 - 0x10]
00000BFE  3F2E FBD8                move.w     -[A7], [A6 - 0x428]
00000C02  3F2E FBD6                move.w     -[A7], [A6 - 0x42A]
00000C06  A8A8                     syscall    OffsetRect
00000C08  426E FFE8                clr.w      [A6 - 0x18]
00000C0C  426E FFEA                clr.w      [A6 - 0x16]
00000C10  3D7C 0020 FFEC           move.w     [A6 - 0x14], 0x20 /* ' ' */
00000C16  3D7C 0020 FFEE           move.w     [A6 - 0x12], 0x20 /* ' ' */
00000C1C  42A7                     clr.l      -[A7]
00000C1E  3F3C 0104                move.w     -[A7], 0x104
00000C22  A9BB                     syscall    GetIcon
00000C24  285F                     movea.l    A4, [A7]+
00000C26  2D54 FBDA                move.l     [A6 - 0x426], [A4]
00000C2A  3D7C 0004 FBDE           move.w     [A6 - 0x422], 0x4
00000C30  2D6E FFE8 FBE0           move.l     [A6 - 0x420], [A6 - 0x18]
00000C36  2D6E FFEC FBE4           move.l     [A6 - 0x41C], [A6 - 0x14]
00000C3C  486E FBDA                pea.l      [A6 - 0x426]
00000C40  2F3C FFFF FA52           move.l     -[A7], 0xFFFFFA52
00000C46  486E FFE8                pea.l      [A6 - 0x18]
00000C4A  486E FFF0                pea.l      [A6 - 0x10]
00000C4E  3F3C 0001                move.w     -[A7], 0x1
00000C52  42A7                     clr.l      -[A7]
00000C54  A8EC                     syscall    CopyBits
label00000C56:
00000C56  3D7C 0150 FFFA           move.w     [A6 - 0x6], 0x150
00000C5C  3D7C 01AC FFFE           move.w     [A6 - 0x2], 0x1AC
00000C62  42A7                     clr.l      -[A7]
00000C64  A8D8                     syscall    NewRgn
00000C66  285F                     movea.l    A4, [A7]+
00000C68  2F0C                     move.l     -[A7], A4
00000C6A  A87A                     syscall    GetClip
00000C6C  7E00                     moveq.l    D7, 0x00
00000C6E  267C FFFF 9442           movea.l    A3, 0xFFFF9442
00000C74  6000 017C                bra        +0x17E /* 00000DF2 */
label00000C78:
00000C78  7C22                     moveq.l    D6, 0x22
00000C7A  CDC7                     muls.w     D6, D7
00000C7C  0646 0012                addi.w     D6, 0x12
00000C80  7A22                     moveq.l    D5, 0x22
00000C82  CBC7                     muls.w     D5, D7
00000C84  3F2B 034E                move.w     -[A7], [A3 + 0x34E]
00000C88  42A7                     clr.l      -[A7]
00000C8A  2F3C 005A 0000           move.l     -[A7], 0x5A0000 /* 'Z\0\0' */
00000C90  3F06                     move.w     -[A7], D6
00000C92  3F3C 013F                move.w     -[A7], 0x13F
00000C96  3F07                     move.w     -[A7], D7
00000C98  4EBA 43D0                jsr        [PC + 0x43D0 /* 0000506A */]
00000C9C  3D45 FFF8                move.w     [A6 - 0x8], D5
00000CA0  7023                     moveq.l    D0, 0x23
00000CA2  D045                     add.w      D0, D5
00000CA4  3D40 FFFC                move.w     [A6 - 0x4], D0
00000CA8  486E FFF8                pea.l      [A6 - 0x8]
00000CAC  A87B                     syscall    ClipRect
00000CAE  4257                     clr.w      [A7]
00000CB0  A887                     syscall    TextFont
00000CB2  3EBC 000C                move.w     [A7], 0xC
00000CB6  A88A                     syscall    TextSize
00000CB8  3EBC 0150                move.w     [A7], 0x150
00000CBC  3F06                     move.w     -[A7], D6
00000CBE  A893                     syscall    MoveTo
00000CC0  486B 011C                pea.l      [A3 + 0x11C]
00000CC4  A884                     syscall    DrawString
00000CC6  2E8C                     move.l     [A7], A4
00000CC8  A879                     syscall    SetClip
00000CCA  3EBC 0004                move.w     [A7], 0x4
00000CCE  A887                     syscall    TextFont
00000CD0  3EBC 0009                move.w     [A7], 0x9 /* '\t' */
00000CD4  A88A                     syscall    TextSize
00000CD6  45EB 034C                lea.l      A2, [A3 + 0x34C]
00000CDA  4A52                     tst.w      [A2]
00000CDC  548F                     addq.l     A7, 2
00000CDE  671C                     beq        +0x1E /* 00000CFC */
00000CE0  3F3C 0150                move.w     -[A7], 0x150
00000CE4  701D                     moveq.l    D0, 0x1D
00000CE6  D045                     add.w      D0, D5
00000CE8  3F00                     move.w     -[A7], D0
00000CEA  A893                     syscall    MoveTo
00000CEC  7030                     moveq.l    D0, 0x30
00000CEE  D02A 0001                add.b      D0, [A2 + 0x1]
00000CF2  1D40 FEEE                move.b     [A6 - 0x112], D0
00000CF6  486E FEE8                pea.l      [A6 - 0x118]
00000CFA  A884                     syscall    DrawString
label00000CFC:
00000CFC  4A2B 0116                tst.b      [A3 + 0x116]
00000D00  6700 0080                beq        +0x82 /* 00000D82 */
00000D04  3F2B 00FE                move.w     -[A7], [A3 + 0xFE]
00000D08  2F3C FFFF B7E0           move.l     -[A7], 0xFFFFB7E0
00000D0E  486E FDE8                pea.l      [A6 - 0x218]
00000D12  4EAD 050A                jsr        [A5 + 0x50A /* export_157, CODE:7 @ 000020CA */]
00000D16  486E FDE8                pea.l      [A6 - 0x218]
00000D1A  4EAD 0482                jsr        [A5 + 0x482 /* export_140, CODE:7 @ 0000237C */]
00000D1E  3EAB 0108                move.w     [A7], [A3 + 0x108]
00000D22  2F3C FFFF B7E4           move.l     -[A7], 0xFFFFB7E4
00000D28  486E FCE8                pea.l      [A6 - 0x318]
00000D2C  4EAD 050A                jsr        [A5 + 0x50A /* export_157, CODE:7 @ 000020CA */]
00000D30  486E FCE8                pea.l      [A6 - 0x318]
00000D34  4EAD 0482                jsr        [A5 + 0x482 /* export_140, CODE:7 @ 0000237C */]
00000D38  3EBC 01AE                move.w     [A7], 0x1AE
00000D3C  3F06                     move.w     -[A7], D6
00000D3E  A893                     syscall    MoveTo
00000D40  2EBC FFFF B7E8           move.l     [A7], 0xFFFFB7E8
00000D46  A884                     syscall    DrawString
00000D48  3EBC 01DB                move.w     [A7], 0x1DB
00000D4C  3F06                     move.w     -[A7], D6
00000D4E  A893                     syscall    MoveTo
00000D50  486E FDE8                pea.l      [A6 - 0x218]
00000D54  A884                     syscall    DrawString
00000D56  7C22                     moveq.l    D6, 0x22
00000D58  CDC7                     muls.w     D6, D7
00000D5A  0646 001B                addi.w     D6, 0x1B
00000D5E  3EBC 01AE                move.w     [A7], 0x1AE
00000D62  3F06                     move.w     -[A7], D6
00000D64  A893                     syscall    MoveTo
00000D66  2EBC FFFF B7F0           move.l     [A7], 0xFFFFB7F0
00000D6C  A884                     syscall    DrawString
00000D6E  3EBC 01DB                move.w     [A7], 0x1DB
00000D72  3F06                     move.w     -[A7], D6
00000D74  A893                     syscall    MoveTo
00000D76  486E FCE8                pea.l      [A6 - 0x318]
00000D7A  A884                     syscall    DrawString
00000D7C  4FEF 000A                lea.l      A7, [A7 + 0xA]
00000D80  606A                     bra        +0x6C /* 00000DEC */
label00000D82:
00000D82  3F3C 01AE                move.w     -[A7], 0x1AE
00000D86  3F06                     move.w     -[A7], D6
00000D88  A893                     syscall    MoveTo
00000D8A  302B 010E                move.w     D0, [A3 + 0x10E]
00000D8E  6B20                     bmi        +0x22 /* 00000DB0 */
00000D90  0440 7D01                subi.w     D0, 0x7D01
00000D94  6710                     beq        +0x12 /* 00000DA6 */
00000D96  6A18                     bpl        +0x1A /* 00000DB0 */
00000D98  5240                     addq.w     D0, 1
00000D9A  6B14                     bmi        +0x16 /* 00000DB0 */
00000D9C  2F3C FFFF B7F8           move.l     -[A7], 0xFFFFB7F8
00000DA2  A884                     syscall    DrawString
00000DA4  6012                     bra        +0x14 /* 00000DB8 */
label00000DA6:
00000DA6  2F3C FFFF B7FE           move.l     -[A7], 0xFFFFB7FE
00000DAC  A884                     syscall    DrawString
00000DAE  6008                     bra        +0xA /* 00000DB8 */
label00000DB0:
00000DB0  2F3C FFFF B80A           move.l     -[A7], 0xFFFFB80A
00000DB6  A884                     syscall    DrawString
label00000DB8:
00000DB8  2F2B 0118                move.l     -[A7], [A3 + 0x118]
00000DBC  2F3C FFFF B814           move.l     -[A7], 0xFFFFB814
00000DC2  486E FDE8                pea.l      [A6 - 0x218]
00000DC6  4EAD 050A                jsr        [A5 + 0x50A /* export_157, CODE:7 @ 000020CA */]
00000DCA  486E FDE8                pea.l      [A6 - 0x218]
00000DCE  4EAD 0482                jsr        [A5 + 0x482 /* export_140, CODE:7 @ 0000237C */]
00000DD2  3EBC 01AE                move.w     [A7], 0x1AE
00000DD6  7022                     moveq.l    D0, 0x22
00000DD8  C1C7                     muls.w     D0, D7
00000DDA  0640 001B                addi.w     D0, 0x1B
00000DDE  3F00                     move.w     -[A7], D0
00000DE0  A893                     syscall    MoveTo
00000DE2  486E FDE8                pea.l      [A6 - 0x218]
00000DE6  A884                     syscall    DrawString
00000DE8  4FEF 000E                lea.l      A7, [A7 + 0xE]
label00000DEC:
00000DEC  5247                     addq.w     D7, 1
00000DEE  47EB 03C2                lea.l      A3, [A3 + 0x3C2]
label00000DF2:
00000DF2  BE79 FFFF 9226           cmp.w      D7, [0xFFFF9226]
00000DF8  6D00 FE7E                blt        -0x180 /* 00000C78 */
00000DFC  0C79 0006 FFFF 9228      cmpi.w     [0xFFFF9228], 0x6
00000E04  6730                     beq        +0x32 /* 00000E36 */
00000E06  4A79 FFFF 922C           tst.w      [0xFFFF922C]
00000E0C  6628                     bne        +0x2A /* 00000E36 */
00000E0E  7022                     moveq.l    D0, 0x22
00000E10  C1F9 FFFF 9228           muls.w     D0, [0xFFFF9228]
00000E16  3D40 FFF8                move.w     [A6 - 0x8], D0
00000E1A  7022                     moveq.l    D0, 0x22
00000E1C  D06E FFF8                add.w      D0, [A6 - 0x8]
00000E20  3D40 FFFC                move.w     [A6 - 0x4], D0
00000E24  3D7C 012E FFFA           move.w     [A6 - 0x6], 0x12E
00000E2A  3D7C 01F4 FFFE           move.w     [A6 - 0x2], 0x1F4
00000E30  486E FFF8                pea.l      [A6 - 0x8]
00000E34  A8A4                     syscall    InvertRect
label00000E36:
00000E36  2F0C                     move.l     -[A7], A4
00000E38  A8D9                     syscall    DisposRgn/DisposeRgn
00000E3A  4A78 0220                tst.w      [0x00000220 /* MemErr */]
00000E3E  6706                     beq        +0x8 /* 00000E46 */
00000E40  3F3C 0001                move.w     -[A7], 0x1
00000E44  A9C8                     syscall    SysBeep
label00000E46:
00000E46  3F3C 0004                move.w     -[A7], 0x4
00000E4A  A887                     syscall    TextFont
00000E4C  3F3C 0009                move.w     -[A7], 0x9 /* '\t' */
00000E50  A88A                     syscall    TextSize
00000E52  2F39 FFFF B7C6           move.l     -[A7], [0xFFFFB7C6]
00000E58  2F3C FFFF B81E           move.l     -[A7], 0xFFFFB81E
00000E5E  486E FBE8                pea.l      [A6 - 0x418]
00000E62  4EAD 050A                jsr        [A5 + 0x50A /* export_157, CODE:7 @ 000020CA */]
00000E66  486E FBE8                pea.l      [A6 - 0x418]
00000E6A  4EAD 0482                jsr        [A5 + 0x482 /* export_140, CODE:7 @ 0000237C */]
00000E6E  2EBC 00D8 0131           move.l     [A7], 0xD80131
00000E74  A893                     syscall    MoveTo
00000E76  2EBC FFFF B822           move.l     [A7], 0xFFFFB822
00000E7C  A884                     syscall    DrawString
00000E7E  2EBC 00D8 016D           move.l     [A7], 0xD8016D
00000E84  A893                     syscall    MoveTo
00000E86  486E FBE8                pea.l      [A6 - 0x418]
00000E8A  A884                     syscall    DrawString
00000E8C  2EBC 00D8 0195           move.l     [A7], 0xD80195
00000E92  A893                     syscall    MoveTo
00000E94  2F3C FFFF B82C           move.l     -[A7], 0xFFFFB82C
00000E9A  A884                     syscall    DrawString
00000E9C  4A79 FFFF 9222           tst.w      [0xFFFF9222]
00000EA2  670E                     beq        +0x10 /* 00000EB2 */
00000EA4  4279 FFFF 9222           clr.w      [0xFFFF9222]
00000EAA  2F39 FFFF 9078           move.l     -[A7], [0xFFFF9078]
00000EB0  A957                     syscall    ShowControl
label00000EB2:
00000EB2  4EBA 0D1C                jsr        [PC + 0xD1C /* 00001BD0 */]
00000EB6  4CDF 1CE0                movem.l    D5,D6,D7,A2,A3,A4, [A7]+
00000EBA  4E5E                     unlink     A6
00000EBC  4E75                     rts
export_85:
00000EBE  4A39 FFFF 9083           tst.b      [0xFFFF9083]
00000EC4  672A                     beq        +0x2C /* 00000EF0 */
00000EC6  41ED 012A                lea.l      A0, [A5 + 0x12A /* export_33, CODE:5 @ 00006D18 */]
00000ECA  23C8 FFFF AEBE           move.l     [0xFFFFAEBE], A0
00000ED0  43ED 013A                lea.l      A1, [A5 + 0x13A /* export_35, CODE:5 @ 000070B0 */]
00000ED4  23C9 FFFF AEC2           move.l     [0xFFFFAEC2], A1
00000EDA  41ED 014A                lea.l      A0, [A5 + 0x14A /* export_37, CODE:5 @ 00002990 */]
00000EDE  23C8 FFFF AEC6           move.l     [0xFFFFAEC6], A0
00000EE4  41ED 015A                lea.l      A0, [A5 + 0x15A /* export_39, CODE:5 @ 00003680 */]
00000EE8  23C8 FFFF AECA           move.l     [0xFFFFAECA], A0
00000EEE  6028                     bra        +0x2A /* 00000F18 */
label00000EF0:
00000EF0  41ED 0122                lea.l      A0, [A5 + 0x122 /* export_32, CODE:5 @ 000068F2 */]
00000EF4  23C8 FFFF AEBE           move.l     [0xFFFFAEBE], A0
00000EFA  43ED 0132                lea.l      A1, [A5 + 0x132 /* export_34, CODE:5 @ 00006F24 */]
00000EFE  23C9 FFFF AEC2           move.l     [0xFFFFAEC2], A1
00000F04  41ED 0142                lea.l      A0, [A5 + 0x142 /* export_36, CODE:5 @ 00002770 */]
00000F08  23C8 FFFF AEC6           move.l     [0xFFFFAEC6], A0
00000F0E  41ED 0152                lea.l      A0, [A5 + 0x152 /* export_38, CODE:5 @ 0000307E */]
00000F12  23C8 FFFF AECA           move.l     [0xFFFFAECA], A0
label00000F18:
00000F18  4E75                     rts
export_86:
00000F1A  2F39 FFFF 7D4A           move.l     -[A7], [0xFFFF7D4A]
00000F20  3F3C 0007                move.w     -[A7], 0x7
00000F24  1F39 FFFF 9233           move.b     -[A7], [0xFFFF9233]
00000F2A  A945                     syscall    CheckItem
00000F2C  4A79 FFFF 9232           tst.w      [0xFFFF9232]
00000F32  57C0                     seq        D0
00000F34  4400                     neg.b      D0
00000F36  4880                     ext.w      D0
00000F38  33C0 FFFF 9232           move.w     [0xFFFF9232], D0
00000F3E  4E75                     rts
export_87:
00000F40  4E56 0000                link       A6, 0
00000F44  2F39 FFFF 7D4E           move.l     -[A7], [0xFFFF7D4E]
00000F4A  7001                     moveq.l    D0, 0x01
00000F4C  D079 FFFF 9236           add.w      D0, [0xFFFF9236]
00000F52  3F00                     move.w     -[A7], D0
00000F54  4227                     clr.b      -[A7]
00000F56  A945                     syscall    CheckItem
00000F58  2F39 FFFF 7D4E           move.l     -[A7], [0xFFFF7D4E]
00000F5E  3F2E 0008                move.w     -[A7], [A6 + 0x8]
00000F62  1F3C 0001                move.b     -[A7], 0x1
00000F66  A945                     syscall    CheckItem
00000F68  70FF                     moveq.l    D0, 0xFFFFFFFF
00000F6A  D06E 0008                add.w      D0, [A6 + 0x8]
00000F6E  33C0 FFFF 9236           move.w     [0xFFFF9236], D0
00000F74  4E5E                     unlink     A6
00000F76  4E75                     rts
export_88:
00000F78  4E56 0000                link       A6, 0
00000F7C  2F39 FFFF 7D52           move.l     -[A7], [0xFFFF7D52]
00000F82  3F39 FFFF 9230           move.w     -[A7], [0xFFFF9230]
00000F88  4227                     clr.b      -[A7]
00000F8A  A945                     syscall    CheckItem
00000F8C  2F39 FFFF 7D52           move.l     -[A7], [0xFFFF7D52]
00000F92  3F2E 0008                move.w     -[A7], [A6 + 0x8]
00000F96  1F3C 0001                move.b     -[A7], 0x1
00000F9A  A945                     syscall    CheckItem
00000F9C  33EE 0008 FFFF 9230      move.w     [0xFFFF9230], [A6 + 0x8]
00000FA4  4E5E                     unlink     A6
00000FA6  4E75                     rts
export_89:
00000FA8  4E56 FEEE                link       A6, -0x0112
00000FAC  2F0C                     move.l     -[A7], A4
00000FAE  42A7                     clr.l      -[A7]
00000FB0  3F3C 03F2                move.w     -[A7], 0x3F2
00000FB4  42A7                     clr.l      -[A7]
00000FB6  4878 FFFF                push.l     0xFFFF
00000FBA  A97C                     syscall    GetNewDialog
00000FBC  285F                     movea.l    A4, [A7]+
00000FBE  3F3C 0003                move.w     -[A7], 0x3
00000FC2  2F0C                     move.l     -[A7], A4
00000FC4  4EBA 3FD0                jsr        [PC + 0x3FD0 /* 00004F96 */]
00000FC8  3EB9 FFFF B7CE           move.w     [A7], [0xFFFFB7CE]
00000FCE  2F3C FFFF B836           move.l     -[A7], 0xFFFFB836
00000FD4  486E FEEE                pea.l      [A6 - 0x112]
00000FD8  4EAD 050A                jsr        [A5 + 0x50A /* export_157, CODE:7 @ 000020CA */]
00000FDC  486E FEEE                pea.l      [A6 - 0x112]
00000FE0  4EAD 0482                jsr        [A5 + 0x482 /* export_140, CODE:7 @ 0000237C */]
00000FE4  486E FEEE                pea.l      [A6 - 0x112]
00000FE8  2F3C FFFF 9096           move.l     -[A7], 0xFFFF9096
00000FEE  2F3C FFFF 9096           move.l     -[A7], 0xFFFF9096
00000FF4  2F3C FFFF 9096           move.l     -[A7], 0xFFFF9096
00000FFA  A98B                     syscall    ParamText
00000FFC  2E8C                     move.l     [A7], A4
00000FFE  3F3C 0006                move.w     -[A7], 0x6
00001002  486E FFFC                pea.l      [A6 - 0x4]
00001006  486E FFF6                pea.l      [A6 - 0xA]
0000100A  486E FFEE                pea.l      [A6 - 0x12]
0000100E  A98D                     syscall    GetDialogItem/GetDItem
00001010  2EAE FFF6                move.l     [A7], [A6 - 0xA]
00001014  486E FEEE                pea.l      [A6 - 0x112]
00001018  A98F                     syscall    SetDialogItemText/SetIText
0000101A  2E8C                     move.l     [A7], A4
0000101C  4878 0006                push.l     0x6
00001020  3F3C 7FFF                move.w     -[A7], 0x7FFF
00001024  A97E                     syscall    SelectDialogItemText/SelIText
00001026  5C8F                     addq.l     A7, 6
label00001028:
00001028  42A7                     clr.l      -[A7]
0000102A  486E FFFE                pea.l      [A6 - 0x2]
0000102E  A991                     syscall    ModalDialog
00001030  0C6E 0002 FFFE           cmpi.w     [A6 - 0x2], 0x2
00001036  6EF0                     bgt        -0xE /* 00001028 */
00001038  0C6E 0001 FFFE           cmpi.w     [A6 - 0x2], 0x1
0000103E  6646                     bne        +0x48 /* 00001086 */
00001040  2F2E FFF6                move.l     -[A7], [A6 - 0xA]
00001044  486E FEEE                pea.l      [A6 - 0x112]
00001048  A990                     syscall    GetDialogItemText/GetIText
0000104A  486E FEEE                pea.l      [A6 - 0x112]
0000104E  4EAD 047A                jsr        [A5 + 0x47A /* export_139, CODE:7 @ 00002398 */]
00001052  486E FFFA                pea.l      [A6 - 0x6]
00001056  2F3C FFFF B83A           move.l     -[A7], 0xFFFFB83A
0000105C  486E FEEE                pea.l      [A6 - 0x112]
00001060  4EAD 0512                jsr        [A5 + 0x512 /* export_158, CODE:7 @ 0000211E */]
00001064  4A6E FFFA                tst.w      [A6 - 0x6]
00001068  4FEF 0010                lea.l      A7, [A7 + 0x10]
0000106C  6D12                     blt        +0x14 /* 00001080 */
0000106E  0C6E 0064 FFFA           cmpi.w     [A6 - 0x6], 0x64 /* 'd' */
00001074  6C0A                     bge        +0xC /* 00001080 */
00001076  33EE FFFA FFFF B7CE      move.w     [0xFFFFB7CE], [A6 - 0x6]
0000107E  6006                     bra        +0x8 /* 00001086 */
label00001080:
00001080  3F3C 0001                move.w     -[A7], 0x1
00001084  A9C8                     syscall    SysBeep
label00001086:
00001086  2F0C                     move.l     -[A7], A4
00001088  A983                     syscall    DisposeDialog
0000108A  285F                     movea.l    A4, [A7]+
0000108C  4E5E                     unlink     A6
0000108E  4E75                     rts
export_90:
00001090  4E56 FFF6                link       A6, -0x000A
00001094  48E7 0300                movem.l    -[A7], D6,D7
00001098  426E FFF8                clr.w      [A6 - 0x8]
0000109C  3D7C 00DC FFFC           move.w     [A6 - 0x4], 0xDC
000010A2  3D7C 012E FFFA           move.w     [A6 - 0x6], 0x12E
000010A8  3D7C 01F4 FFFE           move.w     [A6 - 0x2], 0x1F4
000010AE  4EBA 0782                jsr        [PC + 0x782 /* 00001832 */]
000010B2  4EBA 0824                jsr        [PC + 0x824 /* 000018D8 */]
000010B6  486E FFF8                pea.l      [A6 - 0x8]
000010BA  A928                     syscall    InvalRect
000010BC  2F39 FFFF 7D4A           move.l     -[A7], [0xFFFF7D4A]
000010C2  3F3C 0005                move.w     -[A7], 0x5
000010C6  A93A                     syscall    DisableItem
000010C8  7E01                     moveq.l    D7, 0x01
000010CA  0C79 0006 FFFF 923A      cmpi.w     [0xFFFF923A], 0x6
000010D2  6772                     beq        +0x74 /* 00001146 */
000010D4  33FC 0001 FFFF 9222      move.w     [0xFFFF9222], 0x1
000010DC  33FC 0001 FFFF 923C      move.w     [0xFFFF923C], 0x1
000010E4  303C 03C2                move.w     D0, 0x3C2
000010E8  C1F9 FFFF 923A           muls.w     D0, [0xFFFF923A]
000010EE  2040                     movea.l    A0, D0
000010F0  D1FC FFFF 9672           add.l      A0, 0xFFFF9672
000010F6  4A10                     tst.b      [A0]
000010F8  6652                     bne        +0x54 /* 0000114C */
000010FA  303C 03C2                move.w     D0, 0x3C2
000010FE  C1F9 FFFF 923A           muls.w     D0, [0xFFFF923A]
00001104  0680 FFFF 965E           addi.l     D0, 0xFFFF965E
0000110A  2F00                     move.l     -[A7], D0
0000110C  4EBA 3260                jsr        [PC + 0x3260 /* 0000436E */]
00001110  3C00                     move.w     D6, D0
00001112  4A46                     tst.w      D6
00001114  588F                     addq.l     A7, 4
00001116  6616                     bne        +0x18 /* 0000112E */
00001118  2F3C FFFF 9096           move.l     -[A7], 0xFFFF9096
0000111E  2F3C FFFF B83E           move.l     -[A7], 0xFFFFB83E
00001124  4EBA 3CA8                jsr        [PC + 0x3CA8 /* 00004DCE */]
00001128  7E00                     moveq.l    D7, 0x00
0000112A  508F                     addq.l     A7, 8
0000112C  601E                     bra        +0x20 /* 0000114C */
label0000112E:
0000112E  303C 03C2                move.w     D0, 0x3C2
00001132  C1F9 FFFF 923A           muls.w     D0, [0xFFFF923A]
00001138  2040                     movea.l    A0, D0
0000113A  D1FC FFFF 9672           add.l      A0, 0xFFFF9672
00001140  10BC 0001                move.b     [A0], 0x1
00001144  6006                     bra        +0x8 /* 0000114C */
label00001146:
00001146  4279 FFFF 923C           clr.w      [0xFFFF923C]
label0000114C:
0000114C  4A47                     tst.w      D7
0000114E  6704                     beq        +0x6 /* 00001154 */
00001150  4EAD 0162                jsr        [A5 + 0x162 /* export_40, CODE:5 @ 00003B68 */]
label00001154:
00001154  4279 FFFF 922C           clr.w      [0xFFFF922C]
0000115A  2F39 FFFF 9078           move.l     -[A7], [0xFFFF9078]
00001160  2F3C FFFF B85A           move.l     -[A7], 0xFFFFB85A
00001166  A95F                     syscall    SetControlTitle/SetCTitle
00001168  2F39 FFFF 9068           move.l     -[A7], [0xFFFF9068]
0000116E  A958                     syscall    HideControl
00001170  2F39 FFFF 906C           move.l     -[A7], [0xFFFF906C]
00001176  A958                     syscall    HideControl
00001178  2F39 FFFF 9070           move.l     -[A7], [0xFFFF9070]
0000117E  A958                     syscall    HideControl
00001180  2F39 FFFF 9074           move.l     -[A7], [0xFFFF9074]
00001186  A958                     syscall    HideControl
00001188  2F39 FFFF 7D4A           move.l     -[A7], [0xFFFF7D4A]
0000118E  3F3C 0005                move.w     -[A7], 0x5
00001192  A939                     syscall    EnableItem
00001194  4CDF 00C0                movem.l    D6,D7, [A7]+
00001198  4E5E                     unlink     A6
0000119A  4E75                     rts
fn0000119C:
0000119C  4E56 FFE4                link       A6, -0x001C
000011A0  48E7 0308                movem.l    -[A7], D6,D7,A4
000011A4  7E00                     moveq.l    D7, 0x00
000011A6  7C00                     moveq.l    D6, 0x00
000011A8  7C00                     moveq.l    D6, 0x00
000011AA  303C 03C2                move.w     D0, 0x3C2
000011AE  C1EE 0008                muls.w     D0, [A6 + 0x8]
000011B2  0680 FFFF 9748           addi.l     D0, 0xFFFF9748
000011B8  2840                     movea.l    A4, D0
000011BA  2F0C                     move.l     -[A7], A4
000011BC  4EAD 0072                jsr        [A5 + 0x72 /* export_10, CODE:4 @ 00001480 */]
000011C0  41EE FFE4                lea.l      A0, [A6 - 0x1C]
000011C4  43D4                     lea.l      A1, [A4]
000011C6  7006                     moveq.l    D0, 0x06
label000011C8:
000011C8  20D9                     move.l     [A0]+, [A1]+
000011CA  51C8 FFFC                dbf        D0, -0x6 /* 000011C8 */
000011CE  302E FFE4                move.w     D0, [A6 - 0x1C]
000011D2  588F                     addq.l     A7, 4
000011D4  6B1E                     bmi        +0x20 /* 000011F4 */
000011D6  0440 0064                subi.w     D0, 0x64 /* 'd' */
000011DA  671A                     beq        +0x1C /* 000011F6 */
000011DC  6A10                     bpl        +0x12 /* 000011EE */
000011DE  0440 FFD8                subi.w     D0, 0xFFD8
000011E2  6712                     beq        +0x14 /* 000011F6 */
000011E4  6A0E                     bpl        +0x10 /* 000011F4 */
000011E6  0440 FFEC                subi.w     D0, 0xFFEC
000011EA  670A                     beq        +0xC /* 000011F6 */
000011EC  6006                     bra        +0x8 /* 000011F4 */
label000011EE:
000011EE  0440 0032                subi.w     D0, 0x32 /* '2' */
000011F2  6702                     beq        +0x4 /* 000011F6 */
label000011F4:
000011F4  5247                     addq.w     D7, 1
label000011F6:
000011F6  302E FFE6                move.w     D0, [A6 - 0x1A]
000011FA  6B1E                     bmi        +0x20 /* 0000121A */
000011FC  0440 0064                subi.w     D0, 0x64 /* 'd' */
00001200  671A                     beq        +0x1C /* 0000121C */
00001202  6A10                     bpl        +0x12 /* 00001214 */
00001204  0440 FFD8                subi.w     D0, 0xFFD8
00001208  6712                     beq        +0x14 /* 0000121C */
0000120A  6A0E                     bpl        +0x10 /* 0000121A */
0000120C  0440 FFE2                subi.w     D0, 0xFFE2
00001210  670A                     beq        +0xC /* 0000121C */
00001212  6006                     bra        +0x8 /* 0000121A */
label00001214:
00001214  0440 0032                subi.w     D0, 0x32 /* '2' */
00001218  6702                     beq        +0x4 /* 0000121C */
label0000121A:
0000121A  5247                     addq.w     D7, 1
label0000121C:
0000121C  302E FFE8                move.w     D0, [A6 - 0x18]
00001220  671A                     beq        +0x1C /* 0000123C */
00001222  6B16                     bmi        +0x18 /* 0000123A */
00001224  0440 0032                subi.w     D0, 0x32 /* '2' */
00001228  6712                     beq        +0x14 /* 0000123C */
0000122A  6A08                     bpl        +0xA /* 00001234 */
0000122C  0440 FFE7                subi.w     D0, 0xFFE7
00001230  670A                     beq        +0xC /* 0000123C */
00001232  6006                     bra        +0x8 /* 0000123A */
label00001234:
00001234  0440 0032                subi.w     D0, 0x32 /* '2' */
00001238  6702                     beq        +0x4 /* 0000123C */
label0000123A:
0000123A  5247                     addq.w     D7, 1
label0000123C:
0000123C  302E FFEA                move.w     D0, [A6 - 0x16]
00001240  6B22                     bmi        +0x24 /* 00001264 */
00001242  0440 000F                subi.w     D0, 0xF
00001246  671E                     beq        +0x20 /* 00001266 */
00001248  6A0C                     bpl        +0xE /* 00001256 */
0000124A  5A40                     addq.w     D0, 5
0000124C  6718                     beq        +0x1A /* 00001266 */
0000124E  6A14                     bpl        +0x16 /* 00001264 */
00001250  5A40                     addq.w     D0, 5
00001252  6712                     beq        +0x14 /* 00001266 */
00001254  600E                     bra        +0x10 /* 00001264 */
label00001256:
00001256  0440 0023                subi.w     D0, 0x23 /* '#' */
0000125A  670A                     beq        +0xC /* 00001266 */
0000125C  6A06                     bpl        +0x8 /* 00001264 */
0000125E  0440 FFEC                subi.w     D0, 0xFFEC
00001262  6702                     beq        +0x4 /* 00001266 */
label00001264:
00001264  5247                     addq.w     D7, 1
label00001266:
00001266  302E FFEC                move.w     D0, [A6 - 0x14]
0000126A  6706                     beq        +0x8 /* 00001272 */
0000126C  6B04                     bmi        +0x6 /* 00001272 */
0000126E  5940                     subq.w     D0, 4
00001270  6B02                     bmi        +0x4 /* 00001274 */
label00001272:
00001272  5247                     addq.w     D7, 1
label00001274:
00001274  302E FFF2                move.w     D0, [A6 - 0xE]
00001278  B079 FFFF B7CE           cmp.w      D0, [0xFFFFB7CE]
0000127E  6F02                     ble        +0x4 /* 00001282 */
00001280  5247                     addq.w     D7, 1
label00001282:
00001282  0C79 0063 FFFF B7CE      cmpi.w     [0xFFFFB7CE], 0x63 /* 'c' */
0000128A  6602                     bne        +0x4 /* 0000128E */
0000128C  7E00                     moveq.l    D7, 0x00
label0000128E:
0000128E  3007                     move.w     D0, D7
00001290  4CDF 10C0                movem.l    D6,D7,A4, [A7]+
00001294  4E5E                     unlink     A6
00001296  4E75                     rts
fn00001298:
00001298  4E56 FED8                link       A6, -0x0128
0000129C  48E7 1F38                movem.l    -[A7], D3,D4,D5,D6,D7,A2,A3,A4
000012A0  362E 0008                move.w     D3, [A6 + 0x8]
000012A4  3D7C 0001 FF08           move.w     [A6 - 0xF8], 0x1
000012AA  303C 03C2                move.w     D0, 0x3C2
000012AE  C1C3                     muls.w     D0, D3
000012B0  0680 FFFF 9442           addi.l     D0, 0xFFFF9442
000012B6  2840                     movea.l    A4, D0
000012B8  3883                     move.w     [A4], D3
000012BA  3F2C 0322                move.w     -[A7], [A4 + 0x322]
000012BE  4EBA 4262                jsr        [PC + 0x4262 /* 00005522 */]
000012C2  3E3C 03C2                move.w     D7, 0x3C2
000012C6  CFC3                     muls.w     D7, D3
000012C8  0687 FFFF 955E           addi.l     D7, 0xFFFF955E
000012CE  4257                     clr.w      [A7]
000012D0  2F07                     move.l     -[A7], D7
000012D2  A997                     syscall    OpenResFile
000012D4  301F                     move.w     D0, [A7]+
000012D6  3D40 FF04                move.w     [A6 - 0xFC], D0
000012DA  5240                     addq.w     D0, 1
000012DC  6640                     bne        +0x42 /* 0000131E */
000012DE  2F07                     move.l     -[A7], D7
000012E0  4EAD 047A                jsr        [A5 + 0x47A /* export_139, CODE:7 @ 00002398 */]
000012E4  2E87                     move.l     [A7], D7
000012E6  2F3C FFFF B864           move.l     -[A7], 0xFFFFB864
000012EC  486E FFB0                pea.l      [A6 - 0x50]
000012F0  4EAD 050A                jsr        [A5 + 0x50A /* export_157, CODE:7 @ 000020CA */]
000012F4  3EB8 0A60                move.w     [A7], [0x00000A60 /* ResErr */]
000012F8  2F3C FFFF B87C           move.l     -[A7], 0xFFFFB87C
000012FE  486E FF60                pea.l      [A6 - 0xA0]
00001302  4EAD 050A                jsr        [A5 + 0x50A /* export_157, CODE:7 @ 000020CA */]
00001306  486E FF60                pea.l      [A6 - 0xA0]
0000130A  486E FFB0                pea.l      [A6 - 0x50]
0000130E  4EBA 3ABE                jsr        [PC + 0x3ABE /* 00004DCE */]
00001312  426E FF08                clr.w      [A6 - 0xF8]
00001316  4FEF 001C                lea.l      A7, [A7 + 0x1C]
0000131A  6000 037A                bra        +0x37C /* 00001696 */
label0000131E:
0000131E  42A7                     clr.l      -[A7]
00001320  2F3C 524C 454E           move.l     -[A7], 0x524C454E /* 'RLEN' */
00001326  3F3C 03E8                move.w     -[A7], 0x3E8
0000132A  A9A0                     syscall    GetResource
0000132C  265F                     movea.l    A3, [A7]+
0000132E  200B                     move.l     D0, A3
00001330  6612                     bne        +0x14 /* 00001344 */
00001332  303C 03C2                move.w     D0, 0x3C2
00001336  C1C3                     muls.w     D0, D3
00001338  0680 FFFF 9746           addi.l     D0, 0xFFFF9746
0000133E  2440                     movea.l    A2, D0
00001340  4252                     clr.w      [A2]
00001342  6056                     bra        +0x58 /* 0000139A */
label00001344:
00001344  303C 03C2                move.w     D0, 0x3C2
00001348  C1C3                     muls.w     D0, D3
0000134A  0680 FFFF 9746           addi.l     D0, 0xFFFF9746
00001350  2440                     movea.l    A2, D0
00001352  2053                     movea.l    A0, [A3]
00001354  3490                     move.w     [A2], [A0]
00001356  42A7                     clr.l      -[A7]
00001358  2F3C 5243 4F44           move.l     -[A7], 0x52434F44 /* 'RCOD' */
0000135E  3F3C 03E8                move.w     -[A7], 0x3E8
00001362  A9A0                     syscall    GetResource
00001364  2D5F FF0A                move.l     [A6 - 0xF6], [A7]+
00001368  4AAE FF0A                tst.l      [A6 - 0xF6]
0000136C  662C                     bne        +0x2E /* 0000139A */
0000136E  2F07                     move.l     -[A7], D7
00001370  4EAD 047A                jsr        [A5 + 0x47A /* export_139, CODE:7 @ 00002398 */]
00001374  2E87                     move.l     [A7], D7
00001376  2F3C FFFF B890           move.l     -[A7], 0xFFFFB890
0000137C  486E FFB0                pea.l      [A6 - 0x50]
00001380  4EAD 050A                jsr        [A5 + 0x50A /* export_157, CODE:7 @ 000020CA */]
00001384  2EBC FFFF 9096           move.l     [A7], 0xFFFF9096
0000138A  486E FFB0                pea.l      [A6 - 0x50]
0000138E  4EBA 3A3E                jsr        [PC + 0x3A3E /* 00004DCE */]
00001392  426E FF08                clr.w      [A6 - 0xF8]
00001396  4FEF 0010                lea.l      A7, [A7 + 0x10]
label0000139A:
0000139A  7800                     moveq.l    D4, 0x00
0000139C  303C 03C2                move.w     D0, 0x3C2
000013A0  C1C3                     muls.w     D0, D3
000013A2  0680 FFFF 9766           addi.l     D0, 0xFFFF9766
000013A8  2640                     movea.l    A3, D0
000013AA  2A04                     move.l     D5, D4
000013AC  E58D                     lsl        D5, 2
000013AE  6064                     bra        +0x66 /* 00001414 */
label000013B0:
000013B0  42A7                     clr.l      -[A7]
000013B2  2F3C 4943 4F4E           move.l     -[A7], 0x49434F4E /* 'ICON' */
000013B8  3004                     move.w     D0, D4
000013BA  0640 03E8                addi.w     D0, 0x3E8
000013BE  3F00                     move.w     -[A7], D0
000013C0  A9A0                     syscall    GetResource
000013C2  2D5F FF00                move.l     [A6 - 0x100], [A7]+
000013C6  4AAE FF00                tst.l      [A6 - 0x100]
000013CA  6606                     bne        +0x8 /* 000013D2 */
000013CC  42B3 5800                clr.l      [A3 + D5]
000013D0  603E                     bra        +0x40 /* 00001410 */
label000013D2:
000013D2  303C 03C2                move.w     D0, 0x3C2
000013D6  C1C3                     muls.w     D0, D3
000013D8  0680 FFFF 9766           addi.l     D0, 0xFFFF9766
000013DE  D085                     add.l      D0, D5
000013E0  2D40 FEFC                move.l     [A6 - 0x104], D0
000013E4  203C 0000 0080           move.l     D0, 0x80
000013EA  A11E                     syscall    NewPtr, flags=1
000013EC  226E FEFC                movea.l    A1, [A6 - 0x104]
000013F0  2288                     move.l     [A1], A0
000013F2  7C00                     moveq.l    D6, 0x00
000013F4  6014                     bra        +0x16 /* 0000140A */
label000013F6:
000013F6  206E FF00                movea.l    A0, [A6 - 0x100]
000013FA  2050                     movea.l    A0, [A0]
000013FC  226E FEFC                movea.l    A1, [A6 - 0x104]
00001400  2251                     movea.l    A1, [A1]
00001402  13B0 6000 6000           move.b     [A1 + D6.w], [A0 + D6.w]
00001408  5246                     addq.w     D6, 1
label0000140A:
0000140A  0C46 0080                cmpi.w     D6, 0x80
0000140E  6DE6                     blt        -0x18 /* 000013F6 */
label00001410:
00001410  5284                     addq.l     D4, 1
00001412  5885                     addq.l     D5, 4
label00001414:
00001414  700A                     moveq.l    D0, 0x0A
00001416  B084                     cmp.l      D0, D4
00001418  6E96                     bgt        -0x68 /* 000013B0 */
0000141A  7800                     moveq.l    D4, 0x00
0000141C  303C 03C2                move.w     D0, 0x3C2
00001420  C1C3                     muls.w     D0, D3
00001422  0680 FFFF 9792           addi.l     D0, 0xFFFF9792
00001428  2640                     movea.l    A3, D0
0000142A  2A04                     move.l     D5, D4
0000142C  E58D                     lsl        D5, 2
0000142E  6000 0088                bra        +0x8A /* 000014B8 */
label00001432:
00001432  42A7                     clr.l      -[A7]
00001434  2F3C 736E 6420           move.l     -[A7], 0x736E6420 /* 'snd ' */
0000143A  3004                     move.w     D0, D4
0000143C  0640 07D0                addi.w     D0, 0x7D0
00001440  3F00                     move.w     -[A7], D0
00001442  A9A0                     syscall    GetResource
00001444  2D5F FF00                move.l     [A6 - 0x100], [A7]+
00001448  4A78 0A60                tst.w      [0x00000A60 /* ResErr */]
0000144C  6714                     beq        +0x16 /* 00001462 */
0000144E  0C78 FF40 0A60           cmpi.w     [0x00000A60 /* ResErr */], 0xFF40
00001454  670C                     beq        +0xE /* 00001462 */
00001456  3F3C 0001                move.w     -[A7], 0x1
0000145A  A9C8                     syscall    SysBeep
0000145C  42B3 5800                clr.l      [A3 + D5]
00001460  6052                     bra        +0x54 /* 000014B4 */
label00001462:
00001462  4AAE FF00                tst.l      [A6 - 0x100]
00001466  673A                     beq        +0x3C /* 000014A2 */
00001468  303C 03C2                move.w     D0, 0x3C2
0000146C  C1C3                     muls.w     D0, D3
0000146E  0680 FFFF 9792           addi.l     D0, 0xFFFF9792
00001474  D085                     add.l      D0, D5
00001476  2D40 FEFC                move.l     [A6 - 0x104], D0
0000147A  2040                     movea.l    A0, D0
0000147C  20AE FF00                move.l     [A0], [A6 - 0x100]
00001480  4267                     clr.w      -[A7]
00001482  2F00                     move.l     -[A7], D0
00001484  4EAD 0452                jsr        [A5 + 0x452 /* export_134, CODE:7 @ 000029AC */]
00001488  4A5F                     tst.w      [A7]+
0000148A  6706                     beq        +0x8 /* 00001492 */
0000148C  3F3C 0001                move.w     -[A7], 0x1
00001490  A9C8                     syscall    SysBeep
label00001492:
00001492  206E FEFC                movea.l    A0, [A6 - 0x104]
00001496  2050                     movea.l    A0, [A0]
00001498  A049                     syscall    HPurge
0000149A  2F2E FF00                move.l     -[A7], [A6 - 0x100]
0000149E  A9A3                     syscall    ReleaseResource
000014A0  6012                     bra        +0x14 /* 000014B4 */
label000014A2:
000014A2  303C 03C2                move.w     D0, 0x3C2
000014A6  C1C3                     muls.w     D0, D3
000014A8  0680 FFFF 9792           addi.l     D0, 0xFFFF9792
000014AE  D085                     add.l      D0, D5
000014B0  2040                     movea.l    A0, D0
000014B2  4290                     clr.l      [A0]
label000014B4:
000014B4  5284                     addq.l     D4, 1
000014B6  5885                     addq.l     D5, 4
label000014B8:
000014B8  700A                     moveq.l    D0, 0x0A
000014BA  B084                     cmp.l      D0, D4
000014BC  6E00 FF74                bgt        -0x8A /* 00001432 */
000014C0  303C 03C2                move.w     D0, 0x3C2
000014C4  C1C3                     muls.w     D0, D3
000014C6  0680 FFFF 9674           addi.l     D0, 0xFFFF9674
000014CC  2640                     movea.l    A3, D0
000014CE  3012                     move.w     D0, [A2]
000014D0  D040                     add.w      D0, D0
000014D2  48C0                     ext.l      D0
000014D4  A11E                     syscall    NewPtr, flags=1
000014D6  2688                     move.l     [A3], A0
000014D8  4A78 0220                tst.w      [0x00000220 /* MemErr */]
000014DC  6716                     beq        +0x18 /* 000014F4 */
000014DE  2F3C FFFF 9096           move.l     -[A7], 0xFFFF9096
000014E4  2F3C FFFF B8A8           move.l     -[A7], 0xFFFFB8A8
000014EA  4EBA 38E2                jsr        [PC + 0x38E2 /* 00004DCE */]
000014EE  426E FF08                clr.w      [A6 - 0xF8]
000014F2  508F                     addq.l     A7, 8
label000014F4:
000014F4  7C00                     moveq.l    D6, 0x00
000014F6  2A06                     move.l     D5, D6
000014F8  48C5                     ext.l      D5
000014FA  DA85                     add.l      D5, D5
000014FC  6012                     bra        +0x14 /* 00001510 */
label000014FE:
000014FE  206E FF0A                movea.l    A0, [A6 - 0xF6]
00001502  2050                     movea.l    A0, [A0]
00001504  2253                     movea.l    A1, [A3]
00001506  33B0 5800 5800           move.w     [A1 + D5], [A0 + D5]
0000150C  5246                     addq.w     D6, 1
0000150E  5485                     addq.l     D5, 2
label00001510:
00001510  BC52                     cmp.w      D6, [A2]
00001512  6DEA                     blt        -0x14 /* 000014FE */
00001514  42A7                     clr.l      -[A7]
00001516  2F3C 4841 5244           move.l     -[A7], 0x48415244 /* 'HARD' */
0000151C  3F3C 03E8                move.w     -[A7], 0x3E8
00001520  A9A0                     syscall    GetResource
00001522  265F                     movea.l    A3, [A7]+
00001524  200B                     move.l     D0, A3
00001526  664A                     bne        +0x4C /* 00001572 */
00001528  303C 03C2                move.w     D0, 0x3C2
0000152C  C1C3                     muls.w     D0, D3
0000152E  0680 FFFF 9748           addi.l     D0, 0xFFFF9748
00001534  2440                     movea.l    A2, D0
00001536  34BC 0064                move.w     [A2], 0x64 /* 'd' */
0000153A  357C 0064 0002           move.w     [A2 + 0x2], 0x64 /* 'd' */
00001540  357C 0032 0004           move.w     [A2 + 0x4], 0x32 /* '2' */
00001546  357C 000A 0006           move.w     [A2 + 0x6], 0xA /* '\n' */
0000154C  357C 0002 0008           move.w     [A2 + 0x8], 0x2
00001552  426A 000A                clr.w      [A2 + 0xA]
00001556  426A 000C                clr.w      [A2 + 0xC]
0000155A  426A 0012                clr.w      [A2 + 0x12]
0000155E  426A 0014                clr.w      [A2 + 0x14]
00001562  426A 0010                clr.w      [A2 + 0x10]
00001566  426A 0016                clr.w      [A2 + 0x16]
0000156A  426A 001A                clr.w      [A2 + 0x1A]
0000156E  6000 00B2                bra        +0xB4 /* 00001622 */
label00001572:
00001572  42A7                     clr.l      -[A7]
00001574  2F0B                     move.l     -[A7], A3
00001576  4EAD 03BA                jsr        [A5 + 0x3BA /* export_115, CODE:7 @ 0000272A */]
0000157A  701A                     moveq.l    D0, 0x1A
0000157C  B09F                     cmp.l      D0, [A7]+
0000157E  6636                     bne        +0x38 /* 000015B6 */
00001580  701C                     moveq.l    D0, 0x1C
00001582  204B                     movea.l    A0, A3
00001584  A024                     syscall    SetHandleSize
00001586  303C 03C2                move.w     D0, 0x3C2
0000158A  C1C3                     muls.w     D0, D3
0000158C  0680 FFFF 9748           addi.l     D0, 0xFFFF9748
00001592  2440                     movea.l    A2, D0
00001594  2053                     movea.l    A0, [A3]
00001596  43D2                     lea.l      A1, [A2]
00001598  7006                     moveq.l    D0, 0x06
label0000159A:
0000159A  22D8                     move.l     [A1]+, [A0]+
0000159C  51C8 FFFC                dbf        D0, -0x6 /* 0000159A */
000015A0  303C 03C2                move.w     D0, 0x3C2
000015A4  C1C3                     muls.w     D0, D3
000015A6  0680 FFFF 9760           addi.l     D0, 0xFFFF9760
000015AC  2640                     movea.l    A3, D0
000015AE  3553 001A                move.w     [A2 + 0x1A], [A3]
000015B2  4253                     clr.w      [A3]
000015B4  606C                     bra        +0x6E /* 00001622 */
label000015B6:
000015B6  42A7                     clr.l      -[A7]
000015B8  2F0B                     move.l     -[A7], A3
000015BA  4EAD 03BA                jsr        [A5 + 0x3BA /* export_115, CODE:7 @ 0000272A */]
000015BE  701C                     moveq.l    D0, 0x1C
000015C0  B09F                     cmp.l      D0, [A7]+
000015C2  6346                     bls        +0x48 /* 0000160A */
000015C4  701C                     moveq.l    D0, 0x1C
000015C6  204B                     movea.l    A0, A3
000015C8  A024                     syscall    SetHandleSize
000015CA  303C 03C2                move.w     D0, 0x3C2
000015CE  C1C3                     muls.w     D0, D3
000015D0  0680 FFFF 9748           addi.l     D0, 0xFFFF9748
000015D6  2440                     movea.l    A2, D0
000015D8  2053                     movea.l    A0, [A3]
000015DA  43D2                     lea.l      A1, [A2]
000015DC  7006                     moveq.l    D0, 0x06
label000015DE:
000015DE  22D8                     move.l     [A1]+, [A0]+
000015E0  51C8 FFFC                dbf        D0, -0x6 /* 000015DE */
000015E4  426A 0010                clr.w      [A2 + 0x10]
000015E8  426A 0012                clr.w      [A2 + 0x12]
000015EC  426A 0014                clr.w      [A2 + 0x14]
000015F0  426A 0016                clr.w      [A2 + 0x16]
000015F4  303C 03C2                move.w     D0, 0x3C2
000015F8  C1C3                     muls.w     D0, D3
000015FA  2040                     movea.l    A0, D0
000015FC  D1FC FFFF 9760           add.l      A0, 0xFFFF9760
00001602  4250                     clr.w      [A0]
00001604  426A 001A                clr.w      [A2 + 0x1A]
00001608  6018                     bra        +0x1A /* 00001622 */
label0000160A:
0000160A  2053                     movea.l    A0, [A3]
0000160C  303C 03C2                move.w     D0, 0x3C2
00001610  C1C3                     muls.w     D0, D3
00001612  2240                     movea.l    A1, D0
00001614  D3FC FFFF 9748           add.l      A1, 0xFFFF9748
0000161A  7006                     moveq.l    D0, 0x06
label0000161C:
0000161C  22D8                     move.l     [A1]+, [A0]+
0000161E  51C8 FFFC                dbf        D0, -0x6 /* 0000161C */
label00001622:
00001622  3F03                     move.w     -[A7], D3
00001624  4EBA FB76                jsr        [PC - 0x48A /* 0000119C */]
00001628  4A40                     tst.w      D0
0000162A  548F                     addq.l     A7, 2
0000162C  672C                     beq        +0x2E /* 0000165A */
0000162E  2F07                     move.l     -[A7], D7
00001630  4EAD 047A                jsr        [A5 + 0x47A /* export_139, CODE:7 @ 00002398 */]
00001634  2E87                     move.l     [A7], D7
00001636  2F3C FFFF B8C6           move.l     -[A7], 0xFFFFB8C6
0000163C  486E FFB0                pea.l      [A6 - 0x50]
00001640  4EAD 050A                jsr        [A5 + 0x50A /* export_157, CODE:7 @ 000020CA */]
00001644  2EBC FFFF B8DE           move.l     [A7], 0xFFFFB8DE
0000164A  486E FFB0                pea.l      [A6 - 0x50]
0000164E  4EBA 377E                jsr        [PC + 0x377E /* 00004DCE */]
00001652  426E FF08                clr.w      [A6 - 0xF8]
00001656  4FEF 0010                lea.l      A7, [A7 + 0x10]
label0000165A:
0000165A  42A7                     clr.l      -[A7]
0000165C  2F3C 5455 5254           move.l     -[A7], 0x54555254 /* 'TURT' */
00001662  3F3C 03E8                move.w     -[A7], 0x3E8
00001666  A9A0                     syscall    GetResource
00001668  2E1F                     move.l     D7, [A7]+
0000166A  4A87                     tst.l      D7
0000166C  6608                     bne        +0xA /* 00001676 */
0000166E  397C 0001 034E           move.w     [A4 + 0x34E], 0x1
00001674  6008                     bra        +0xA /* 0000167E */
label00001676:
00001676  2047                     movea.l    A0, D7
00001678  2050                     movea.l    A0, [A0]
0000167A  3950 034E                move.w     [A4 + 0x34E], [A0]
label0000167E:
0000167E  3F2E FF04                move.w     -[A7], [A6 - 0xFC]
00001682  A99A                     syscall    CloseResFile
00001684  4A78 0220                tst.w      [0x00000220 /* MemErr */]
00001688  6606                     bne        +0x8 /* 00001690 */
0000168A  4A78 0A60                tst.w      [0x00000A60 /* ResErr */]
0000168E  6706                     beq        +0x8 /* 00001696 */
label00001690:
00001690  3F3C 0001                move.w     -[A7], 0x1
00001694  A9C8                     syscall    SysBeep
label00001696:
00001696  4EBA 3EB2                jsr        [PC + 0x3EB2 /* 0000554A */]
0000169A  397C 005A 0102           move.w     [A4 + 0x102], 0x5A /* 'Z' */
000016A0  197C 0001 0116           move.b     [A4 + 0x116], 0x1
000016A6  426C 0100                clr.w      [A4 + 0x100]
000016AA  422C 0117                clr.b      [A4 + 0x117]
000016AE  303C 03C2                move.w     D0, 0x3C2
000016B2  C1C3                     muls.w     D0, D3
000016B4  0680 FFFF 9748           addi.l     D0, 0xFFFF9748
000016BA  2440                     movea.l    A2, D0
000016BC  3952 00FE                move.w     [A4 + 0xFE], [A2]
000016C0  396A 0002 0108           move.w     [A4 + 0x108], [A2 + 0x2]
000016C6  7800                     moveq.l    D4, 0x00
000016C8  287C FFFF 9442           movea.l    A4, 0xFFFF9442
000016CE  6022                     bra        +0x24 /* 000016F2 */
label000016D0:
000016D0  7E30                     moveq.l    D7, 0x30
000016D2  DE8C                     add.l      D7, A4
000016D4  47EC 0002                lea.l      A3, [A4 + 0x2]
000016D8  2047                     movea.l    A0, D7
000016DA  0C50 1388                cmpi.w     [A0], 0x1388
000016DE  660C                     bne        +0xE /* 000016EC */
000016E0  377C FFD8 0030           move.w     [A3 + 0x30], 0xFFD8
000016E6  2047                     movea.l    A0, D7
000016E8  30BC FFD8                move.w     [A0], 0xFFD8
label000016EC:
000016EC  5284                     addq.l     D4, 1
000016EE  49EC 03C2                lea.l      A4, [A4 + 0x3C2]
label000016F2:
000016F2  3043                     movea.w    A0, D3
000016F4  B1C4                     cmpa.l     A0, D4
000016F6  6ED8                     bgt        -0x26 /* 000016D0 */
000016F8  303C 03C2                move.w     D0, 0x3C2
000016FC  C1C3                     muls.w     D0, D3
000016FE  0680 FFFF 9472           addi.l     D0, 0xFFFF9472
00001704  2840                     movea.l    A4, D0
00001706  3E3C 03C2                move.w     D7, 0x3C2
0000170A  CFC3                     muls.w     D7, D3
0000170C  0687 FFFF 9474           addi.l     D7, 0xFFFF9474
label00001712:
00001712  4EAD 03A2                jsr        [A5 + 0x3A2 /* export_112, CODE:7 @ 00003D82 */]
00001716  48C0                     ext.l      D0
00001718  81FC 010E                divs.w     D0, 0x10E
0000171C  4840                     swap.w     D0
0000171E  0640 000F                addi.w     D0, 0xF
00001722  3880                     move.w     [A4], D0
00001724  4EAD 03A2                jsr        [A5 + 0x3A2 /* export_112, CODE:7 @ 00003D82 */]
00001728  48C0                     ext.l      D0
0000172A  81FC 010E                divs.w     D0, 0x10E
0000172E  4840                     swap.w     D0
00001730  0640 000F                addi.w     D0, 0xF
00001734  2047                     movea.l    A0, D7
00001736  3080                     move.w     [A0], D0
00001738  2D7C 0000 03E8 FEF8      move.l     [A6 - 0x108], 0x3E8
00001740  7800                     moveq.l    D4, 0x00
00001742  267C FFFF 9442           movea.l    A3, 0xFFFF9442
00001748  6000 00B0                bra        +0xB2 /* 000017FA */
label0000174C:
0000174C  42A7                     clr.l      -[A7]
0000174E  2F3C 8000 0000           move.l     -[A7], 0x80000000
00001754  2F3C 4000 4000           move.l     -[A7], 0x40004000 /* '@\0@\0' */
0000175A  3014                     move.w     D0, [A4]
0000175C  906B 0030                sub.w      D0, [A3 + 0x30]
00001760  4FEF FFF6                lea.l      A7, [A7 - 0xA]
00001764  3D40 FEEA                move.w     [A6 - 0x116], D0
00001768  486E FEEA                pea.l      [A6 - 0x116]
0000176C  486F 0004                pea.l      [A7 + 0x4]
00001770  3F3C 200E                move.w     -[A7], 0x200E
00001774  A9EB                     syscall    Pack4/FP68K
00001776  3F17                     move.w     -[A7], [A7]
00001778  486E FEEC                pea.l      [A6 - 0x114]
0000177C  4EAD 039A                jsr        [A5 + 0x39A /* export_111, CODE:7 @ 00003A12 */]
00001780  4297                     clr.l      [A7]
00001782  2F3C 8000 0000           move.l     -[A7], 0x80000000
00001788  2F3C 4000 4000           move.l     -[A7], 0x40004000 /* '@\0@\0' */
0000178E  2047                     movea.l    A0, D7
00001790  3010                     move.w     D0, [A0]
00001792  906B 0032                sub.w      D0, [A3 + 0x32]
00001796  4FEF FFF6                lea.l      A7, [A7 - 0xA]
0000179A  3D40 FEDC                move.w     [A6 - 0x124], D0
0000179E  486E FEDC                pea.l      [A6 - 0x124]
000017A2  486F 0004                pea.l      [A7 + 0x4]
000017A6  3F3C 200E                move.w     -[A7], 0x200E
000017AA  A9EB                     syscall    Pack4/FP68K
000017AC  3F17                     move.w     -[A7], [A7]
000017AE  486E FEDE                pea.l      [A6 - 0x122]
000017B2  4EAD 039A                jsr        [A5 + 0x39A /* export_111, CODE:7 @ 00003A12 */]
000017B6  486E FEE0                pea.l      [A6 - 0x120]
000017BA  486E FEEE                pea.l      [A6 - 0x112]
000017BE  4267                     clr.w      -[A7]
000017C0  A9EB                     syscall    Pack4/FP68K
000017C2  486E FEEE                pea.l      [A6 - 0x112]
000017C6  3F3C 0016                move.w     -[A7], 0x16
000017CA  A9EB                     syscall    Pack4/FP68K
000017CC  486E FEEE                pea.l      [A6 - 0x112]
000017D0  486E FED8                pea.l      [A6 - 0x128]
000017D4  3F3C 2810                move.w     -[A7], 0x2810
000017D8  A9EB                     syscall    Pack4/FP68K
000017DA  2D6E FED8 FF04           move.l     [A6 - 0xFC], [A6 - 0x128]
000017E0  202E FF04                move.l     D0, [A6 - 0xFC]
000017E4  B0AE FEF8                cmp.l      D0, [A6 - 0x108]
000017E8  4FEF 0034                lea.l      A7, [A7 + 0x34]
000017EC  6C06                     bge        +0x8 /* 000017F4 */
000017EE  2D6E FF04 FEF8           move.l     [A6 - 0x108], [A6 - 0xFC]
label000017F4:
000017F4  5284                     addq.l     D4, 1
000017F6  47EB 03C2                lea.l      A3, [A3 + 0x3C2]
label000017FA:
000017FA  3043                     movea.w    A0, D3
000017FC  B1C4                     cmpa.l     A0, D4
000017FE  6E00 FF4C                bgt        -0xB2 /* 0000174C */
00001802  0CAE 0000 0271 FEF8      cmpi.l     [A6 - 0x108], 0x271
0000180A  6D00 FF06                blt        -0xF8 /* 00001712 */
0000180E  302E FF08                move.w     D0, [A6 - 0xF8]
00001812  4CDF 1CF8                movem.l    D3,D4,D5,D6,D7,A2,A3,A4, [A7]+
00001816  4E5E                     unlink     A6
00001818  4E75                     rts
export_78:
0000181A  4E56 FFFE                link       A6, -0x0002
0000181E  42A7                     clr.l      -[A7]
00001820  A975                     syscall    TickCount
00001822  201F                     move.l     D0, [A7]+
00001824  3F00                     move.w     -[A7], D0
00001826  4EAD 03AA                jsr        [A5 + 0x3AA /* export_113, CODE:7 @ 00003DAA */]
0000182A  4EBA 025A                jsr        [PC + 0x25A /* 00001A86 */]
0000182E  4E5E                     unlink     A6
00001830  4E75                     rts
export_80:
fn00001832:
00001832  48E7 0338                movem.l    -[A7], D6,D7,A2,A3,A4
00001836  33FC FFFF FFFF AEBC      move.w     [0xFFFFAEBC], 0xFFFF
0000183E  33FC 0001 FFFF 922C      move.w     [0xFFFF922C], 0x1
00001846  42B9 FFFF B7C6           clr.l      [0xFFFFB7C6]
0000184C  33F9 FFFF 9226 FFFF B7C4 move.w     [0xFFFFB7C4], [0xFFFF9226]
00001856  4AB9 FFFF AACE           tst.l      [0xFFFFAACE]
0000185C  6736                     beq        +0x38 /* 00001894 */
0000185E  2079 FFFF AACE           movea.l    A0, [0xFFFFAACE]
00001864  2868 0038                movea.l    A4, [A0 + 0x38]
label00001868:
00001868  2079 FFFF AACE           movea.l    A0, [0xFFFFAACE]
0000186E  A01F                     syscall    DisposPtr/DisposePtr
00001870  4A78 0220                tst.w      [0x00000220 /* MemErr */]
00001874  6706                     beq        +0x8 /* 0000187C */
00001876  3F3C 0001                move.w     -[A7], 0x1
0000187A  A9C8                     syscall    SysBeep
label0000187C:
0000187C  23CC FFFF AACE           move.l     [0xFFFFAACE], A4
00001882  2079 FFFF AACE           movea.l    A0, [0xFFFFAACE]
00001888  2868 0038                movea.l    A4, [A0 + 0x38]
0000188C  4AB9 FFFF AACE           tst.l      [0xFFFFAACE]
00001892  66D4                     bne        -0x2A /* 00001868 */
label00001894:
00001894  2F39 FFFF 9078           move.l     -[A7], [0xFFFF9078]
0000189A  2F3C FFFF B8FE           move.l     -[A7], 0xFFFFB8FE
000018A0  A95F                     syscall    SetControlTitle/SetCTitle
000018A2  7E00                     moveq.l    D7, 0x00
000018A4  287C FFFF B788           movea.l    A4, 0xFFFFB788
000018AA  6020                     bra        +0x22 /* 000018CC */
label000018AC:
000018AC  7C00                     moveq.l    D6, 0x00
000018AE  264C                     movea.l    A3, A4
000018B0  3446                     movea.w    A2, D6
000018B2  D5CA                     add.l      A2, A2
000018B4  600A                     bra        +0xC /* 000018C0 */
label000018B6:
000018B6  204B                     movea.l    A0, A3
000018B8  D1CA                     add.l      A0, A2
000018BA  4250                     clr.w      [A0]
000018BC  5246                     addq.w     D6, 1
000018BE  548A                     addq.l     A2, 2
label000018C0:
000018C0  0C46 000A                cmpi.w     D6, 0xA /* '\n' */
000018C4  6DF0                     blt        -0xE /* 000018B6 */
000018C6  5247                     addq.w     D7, 1
000018C8  49EC 0014                lea.l      A4, [A4 + 0x14]
label000018CC:
000018CC  0C47 0003                cmpi.w     D7, 0x3
000018D0  6DDA                     blt        -0x24 /* 000018AC */
000018D2  4CDF 1CC0                movem.l    D6,D7,A2,A3,A4, [A7]+
000018D6  4E75                     rts
export_81:
fn000018D8:
000018D8  4E56 FFE0                link       A6, -0x0020
000018DC  48E7 1F38                movem.l    -[A7], D3,D4,D5,D6,D7,A2,A3,A4
000018E0  7C00                     moveq.l    D6, 0x00
000018E2  287C FFFF 9442           movea.l    A4, 0xFFFF9442
000018E8  6000 018A                bra        +0x18C /* 00001A74 */
label000018EC:
000018EC  7A00                     moveq.l    D5, 0x00
000018EE  47EC 0002                lea.l      A3, [A4 + 0x2]
000018F2  3445                     movea.w    A2, D5
000018F4  D5CA                     add.l      A2, A2
000018F6  600A                     bra        +0xC /* 00001902 */
label000018F8:
000018F8  204B                     movea.l    A0, A3
000018FA  D1CA                     add.l      A0, A2
000018FC  4250                     clr.w      [A0]
000018FE  5245                     addq.w     D5, 1
00001900  548A                     addq.l     A2, 2
label00001902:
00001902  0C45 001A                cmpi.w     D5, 0x1A
00001906  6DF0                     blt        -0xE /* 000018F8 */
00001908  7A00                     moveq.l    D5, 0x00
0000190A  47EC 0036                lea.l      A3, [A4 + 0x36]
0000190E  3445                     movea.w    A2, D5
00001910  D5CA                     add.l      A2, A2
00001912  600A                     bra        +0xC /* 0000191E */
label00001914:
00001914  204B                     movea.l    A0, A3
00001916  D1CA                     add.l      A0, A2
00001918  4250                     clr.w      [A0]
0000191A  5245                     addq.w     D5, 1
0000191C  548A                     addq.l     A2, 2
label0000191E:
0000191E  0C45 0064                cmpi.w     D5, 0x64 /* 'd' */
00001922  6DF0                     blt        -0xE /* 00001914 */
00001924  3886                     move.w     [A4], D6
00001926  426C 0300                clr.w      [A4 + 0x300]
0000192A  426C 0302                clr.w      [A4 + 0x302]
0000192E  396C 0306 00FE           move.w     [A4 + 0xFE], [A4 + 0x306]
00001934  396C 0308 0108           move.w     [A4 + 0x108], [A4 + 0x308]
0000193A  397C 005A 0102           move.w     [A4 + 0x102], 0x5A /* 'Z' */
00001940  426C 010C                clr.w      [A4 + 0x10C]
00001944  426C 010E                clr.w      [A4 + 0x10E]
00001948  426C 0104                clr.w      [A4 + 0x104]
0000194C  426C 0106                clr.w      [A4 + 0x106]
00001950  197C 0001 0116           move.b     [A4 + 0x116], 0x1
00001956  426C 0100                clr.w      [A4 + 0x100]
0000195A  397C 0001 010A           move.w     [A4 + 0x10A], 0x1
00001960  426C 0110                clr.w      [A4 + 0x110]
00001964  426C 0112                clr.w      [A4 + 0x112]
00001968  70FF                     moveq.l    D0, 0xFFFFFFFF
0000196A  2940 0118                move.l     [A4 + 0x118], D0
0000196E  422C 0117                clr.b      [A4 + 0x117]
00001972  426C 0378                clr.w      [A4 + 0x378]
00001976  2F0C                     move.l     -[A7], A4
00001978  4EAD 011A                jsr        [A5 + 0x11A /* export_31, CODE:5 @ 0000407C */]
0000197C  47EC 0030                lea.l      A3, [A4 + 0x30]
00001980  45EC 0032                lea.l      A2, [A4 + 0x32]
00001984  588F                     addq.l     A7, 4
label00001986:
00001986  4EAD 03A2                jsr        [A5 + 0x3A2 /* export_112, CODE:7 @ 00003D82 */]
0000198A  48C0                     ext.l      D0
0000198C  81FC 010E                divs.w     D0, 0x10E
00001990  4840                     swap.w     D0
00001992  0640 000F                addi.w     D0, 0xF
00001996  3680                     move.w     [A3], D0
00001998  4EAD 03A2                jsr        [A5 + 0x3A2 /* export_112, CODE:7 @ 00003D82 */]
0000199C  48C0                     ext.l      D0
0000199E  81FC 010E                divs.w     D0, 0x10E
000019A2  4840                     swap.w     D0
000019A4  0640 000F                addi.w     D0, 0xF
000019A8  3480                     move.w     [A2], D0
000019AA  383C 05DC                move.w     D4, 0x5DC
000019AE  7A00                     moveq.l    D5, 0x00
000019B0  2E3C FFFF 9442           move.l     D7, 0xFFFF9442
000019B6  6000 00A8                bra        +0xAA /* 00001A60 */
label000019BA:
000019BA  42A7                     clr.l      -[A7]
000019BC  2F3C 8000 0000           move.l     -[A7], 0x80000000
000019C2  2F3C 4000 4000           move.l     -[A7], 0x40004000 /* '@\0@\0' */
000019C8  2047                     movea.l    A0, D7
000019CA  3013                     move.w     D0, [A3]
000019CC  9068 0030                sub.w      D0, [A0 + 0x30]
000019D0  4FEF FFF6                lea.l      A7, [A7 - 0xA]
000019D4  3D40 FFF0                move.w     [A6 - 0x10], D0
000019D8  486E FFF0                pea.l      [A6 - 0x10]
000019DC  486F 0004                pea.l      [A7 + 0x4]
000019E0  3F3C 200E                move.w     -[A7], 0x200E
000019E4  A9EB                     syscall    Pack4/FP68K
000019E6  3F17                     move.w     -[A7], [A7]
000019E8  486E FFF2                pea.l      [A6 - 0xE]
000019EC  4EAD 039A                jsr        [A5 + 0x39A /* export_111, CODE:7 @ 00003A12 */]
000019F0  4297                     clr.l      [A7]
000019F2  2F3C 8000 0000           move.l     -[A7], 0x80000000
000019F8  2F3C 4000 4000           move.l     -[A7], 0x40004000 /* '@\0@\0' */
000019FE  2047                     movea.l    A0, D7
00001A00  3012                     move.w     D0, [A2]
00001A02  9068 0032                sub.w      D0, [A0 + 0x32]
00001A06  4FEF FFF6                lea.l      A7, [A7 - 0xA]
00001A0A  3D40 FFE2                move.w     [A6 - 0x1E], D0
00001A0E  486E FFE2                pea.l      [A6 - 0x1E]
00001A12  486F 0004                pea.l      [A7 + 0x4]
00001A16  3F3C 200E                move.w     -[A7], 0x200E
00001A1A  A9EB                     syscall    Pack4/FP68K
00001A1C  3F17                     move.w     -[A7], [A7]
00001A1E  486E FFE4                pea.l      [A6 - 0x1C]
00001A22  4EAD 039A                jsr        [A5 + 0x39A /* export_111, CODE:7 @ 00003A12 */]
00001A26  486E FFE6                pea.l      [A6 - 0x1A]
00001A2A  486E FFF4                pea.l      [A6 - 0xC]
00001A2E  4267                     clr.w      -[A7]
00001A30  A9EB                     syscall    Pack4/FP68K
00001A32  486E FFF4                pea.l      [A6 - 0xC]
00001A36  3F3C 0016                move.w     -[A7], 0x16
00001A3A  A9EB                     syscall    Pack4/FP68K
00001A3C  486E FFF4                pea.l      [A6 - 0xC]
00001A40  486E FFE0                pea.l      [A6 - 0x20]
00001A44  3F3C 2010                move.w     -[A7], 0x2010
00001A48  A9EB                     syscall    Pack4/FP68K
00001A4A  362E FFE0                move.w     D3, [A6 - 0x20]
00001A4E  B843                     cmp.w      D4, D3
00001A50  4FEF 0034                lea.l      A7, [A7 + 0x34]
00001A54  6F02                     ble        +0x4 /* 00001A58 */
00001A56  3803                     move.w     D4, D3
label00001A58:
00001A58  5245                     addq.w     D5, 1
00001A5A  0687 0000 03C2           addi.l     D7, 0x3C2
label00001A60:
00001A60  BC45                     cmp.w      D6, D5
00001A62  6E00 FF56                bgt        -0xA8 /* 000019BA */
00001A66  0C44 05DC                cmpi.w     D4, 0x5DC
00001A6A  6D00 FF1A                blt        -0xE4 /* 00001986 */
00001A6E  5246                     addq.w     D6, 1
00001A70  49EC 03C2                lea.l      A4, [A4 + 0x3C2]
label00001A74:
00001A74  BC79 FFFF 9226           cmp.w      D6, [0xFFFF9226]
00001A7A  6D00 FE70                blt        -0x18E /* 000018EC */
00001A7E  4CDF 1CF8                movem.l    D3,D4,D5,D6,D7,A2,A3,A4, [A7]+
00001A82  4E5E                     unlink     A6
00001A84  4E75                     rts
fn00001A86:
00001A86  4E56 FFF8                link       A6, -0x0008
00001A8A  48E7 0108                movem.l    -[A7], D7,A4
00001A8E  426E FFF8                clr.w      [A6 - 0x8]
00001A92  3D7C 012C FFFC           move.w     [A6 - 0x4], 0x12C
00001A98  426E FFFA                clr.w      [A6 - 0x6]
00001A9C  3D7C 012C FFFE           move.w     [A6 - 0x2], 0x12C
00001AA2  4A39 FFFF 9081           tst.b      [0xFFFF9081]
00001AA8  6700 00E2                beq        +0xE4 /* 00001B8C */
00001AAC  42A7                     clr.l      -[A7]
00001AAE  2F3C FFFF FA58           move.l     -[A7], 0xFFFFFA58
00001AB4  AA27                     syscall    GetMaxDevice
00001AB6  23DF FFFF B784           move.l     [0xFFFFB784], [A7]+
00001ABC  2079 FFFF B784           movea.l    A0, [0xFFFFB784]
00001AC2  2050                     movea.l    A0, [A0]
00001AC4  2068 0016                movea.l    A0, [A0 + 0x16]
00001AC8  2050                     movea.l    A0, [A0]
00001ACA  3E28 0020                move.w     D7, [A0 + 0x20]
00001ACE  0C47 0008                cmpi.w     D7, 0x8
00001AD2  6F02                     ble        +0x4 /* 00001AD6 */
00001AD4  7E08                     moveq.l    D7, 0x08
label00001AD6:
00001AD6  2F3C FFFF B718           move.l     -[A7], 0xFFFFB718
00001ADC  AA00                     syscall    OpenCPort
00001ADE  2079 FFFF B71A           movea.l    A0, [0xFFFFB71A]
00001AE4  A064                     syscall    MoveHHi
00001AE6  2079 FFFF B71A           movea.l    A0, [0xFFFFB71A]
00001AEC  A029                     syscall    HLock
00001AEE  303C 2C88                move.w     D0, 0x2C88
00001AF2  C1C7                     muls.w     D0, D7
00001AF4  A11E                     syscall    NewPtr, flags=1
00001AF6  2848                     movea.l    A4, A0
00001AF8  4A78 0220                tst.w      [0x00000220 /* MemErr */]
00001AFC  6712                     beq        +0x14 /* 00001B10 */
00001AFE  2F3C FFFF 9096           move.l     -[A7], 0xFFFF9096
00001B04  2F3C FFFF B906           move.l     -[A7], 0xFFFFB906
00001B0A  4EBA 32C2                jsr        [PC + 0x32C2 /* 00004DCE */]
00001B0E  508F                     addq.l     A7, 8
label00001B10:
00001B10  2079 FFFF B71A           movea.l    A0, [0xFFFFB71A]
00001B16  2050                     movea.l    A0, [A0]
00001B18  208C                     move.l     [A0], A4
00001B1A  7026                     moveq.l    D0, 0x26
00001B1C  C1C7                     muls.w     D0, D7
00001B1E  2079 FFFF B71A           movea.l    A0, [0xFFFFB71A]
00001B24  2050                     movea.l    A0, [A0]
00001B26  3140 0004                move.w     [A0 + 0x4], D0
00001B2A  2079 FFFF B71A           movea.l    A0, [0xFFFFB71A]
00001B30  2050                     movea.l    A0, [A0]
00001B32  4868 0004                pea.l      [A0 + 0x4]
00001B36  42A7                     clr.l      -[A7]
00001B38  A85E                     syscall    BitSet
00001B3A  2079 FFFF B71A           movea.l    A0, [0xFFFFB71A]
00001B40  2050                     movea.l    A0, [A0]
00001B42  216E FFF8 0006           move.l     [A0 + 0x6], [A6 - 0x8]
00001B48  216E FFFC 000A           move.l     [A0 + 0xA], [A6 - 0x4]
00001B4E  2079 FFFF B71A           movea.l    A0, [0xFFFFB71A]
00001B54  2050                     movea.l    A0, [A0]
00001B56  3147 0020                move.w     [A0 + 0x20], D7
00001B5A  2079 FFFF B71A           movea.l    A0, [0xFFFFB71A]
00001B60  2050                     movea.l    A0, [A0]
00001B62  3147 0024                move.w     [A0 + 0x24], D7
00001B66  2079 FFFF B71A           movea.l    A0, [0xFFFFB71A]
00001B6C  2050                     movea.l    A0, [A0]
00001B6E  7048                     moveq.l    D0, 0x48
00001B70  2140 0016                move.l     [A0 + 0x16], D0
00001B74  2079 FFFF B71A           movea.l    A0, [0xFFFFB71A]
00001B7A  2050                     movea.l    A0, [A0]
00001B7C  7048                     moveq.l    D0, 0x48
00001B7E  2140 001A                move.l     [A0 + 0x1A], D0
00001B82  2F39 FFFF 7D56           move.l     -[A7], [0xFFFF7D56]
00001B88  A873                     syscall    SetPort
00001B8A  603C                     bra        +0x3E /* 00001BC8 */
label00001B8C:
00001B8C  203C 0000 2C88           move.l     D0, 0x2C88
00001B92  A11E                     syscall    NewPtr, flags=1
00001B94  23C8 FFFF B70A           move.l     [0xFFFFB70A], A0
00001B9A  4A78 0220                tst.w      [0x00000220 /* MemErr */]
00001B9E  6712                     beq        +0x14 /* 00001BB2 */
00001BA0  2F3C FFFF 9096           move.l     -[A7], 0xFFFF9096
00001BA6  2F3C FFFF B914           move.l     -[A7], 0xFFFFB914
00001BAC  4EBA 3220                jsr        [PC + 0x3220 /* 00004DCE */]
00001BB0  508F                     addq.l     A7, 8
label00001BB2:
00001BB2  33FC 0026 FFFF B70E      move.w     [0xFFFFB70E], 0x26 /* '&' */
00001BBA  41F9 FFFF B710           lea.l      A0, [0xFFFFB710]
00001BC0  20EE FFF8                move.l     [A0]+, [A6 - 0x8]
00001BC4  20EE FFFC                move.l     [A0]+, [A6 - 0x4]
label00001BC8:
00001BC8  4CDF 1080                movem.l    D7,A4, [A7]+
00001BCC  4E5E                     unlink     A6
00001BCE  4E75                     rts
export_79:
fn00001BD0:
00001BD0  4E56 FFC2                link       A6, -0x003E
00001BD4  48E7 1F38                movem.l    -[A7], D3,D4,D5,D6,D7,A2,A3,A4
00001BD8  426E FFEA                clr.w      [A6 - 0x16]
00001BDC  3D7C 012C FFEE           move.w     [A6 - 0x12], 0x12C
00001BE2  426E FFEC                clr.w      [A6 - 0x14]
00001BE6  3D7C 012C FFF0           move.w     [A6 - 0x10], 0x12C
00001BEC  4A39 FFFF 9081           tst.b      [0xFFFF9081]
00001BF2  6700 0136                beq        +0x138 /* 00001D2A */
00001BF6  42A7                     clr.l      -[A7]
00001BF8  AA32                     syscall    GetGDevice
00001BFA  285F                     movea.l    A4, [A7]+
00001BFC  42A7                     clr.l      -[A7]
00001BFE  2F3C FFFF FA58           move.l     -[A7], 0xFFFFFA58
00001C04  AA27                     syscall    GetMaxDevice
00001C06  23DF FFFF B784           move.l     [0xFFFFB784], [A7]+
00001C0C  2079 FFFF B784           movea.l    A0, [0xFFFFB784]
00001C12  2050                     movea.l    A0, [A0]
00001C14  2068 0016                movea.l    A0, [A0 + 0x16]
00001C18  2050                     movea.l    A0, [A0]
00001C1A  3E28 0020                move.w     D7, [A0 + 0x20]
00001C1E  0C47 0008                cmpi.w     D7, 0x8
00001C22  6F02                     ble        +0x4 /* 00001C26 */
00001C24  7E08                     moveq.l    D7, 0x08
label00001C26:
00001C26  2079 FFFF B71A           movea.l    A0, [0xFFFFB71A]
00001C2C  2050                     movea.l    A0, [A0]
00001C2E  BE68 0020                cmp.w      D7, [A0 + 0x20]
00001C32  6700 00D6                beq        +0xD8 /* 00001D0A */
00001C36  2079 FFFF B71A           movea.l    A0, [0xFFFFB71A]
00001C3C  A02A                     syscall    HUnlock
00001C3E  2079 FFFF B71A           movea.l    A0, [0xFFFFB71A]
00001C44  2050                     movea.l    A0, [A0]
00001C46  2050                     movea.l    A0, [A0]
00001C48  A01F                     syscall    DisposPtr/DisposePtr
00001C4A  4A78 0220                tst.w      [0x00000220 /* MemErr */]
00001C4E  6706                     beq        +0x8 /* 00001C56 */
00001C50  3F3C 0001                move.w     -[A7], 0x1
00001C54  A9C8                     syscall    SysBeep
label00001C56:
00001C56  2F3C FFFF B718           move.l     -[A7], 0xFFFFB718
00001C5C  A87D                     syscall    ClosePort
00001C5E  2F3C FFFF B718           move.l     -[A7], 0xFFFFB718
00001C64  AA00                     syscall    OpenCPort
00001C66  2079 FFFF B71A           movea.l    A0, [0xFFFFB71A]
00001C6C  A064                     syscall    MoveHHi
00001C6E  2079 FFFF B71A           movea.l    A0, [0xFFFFB71A]
00001C74  A029                     syscall    HLock
00001C76  303C 2C88                move.w     D0, 0x2C88
00001C7A  C1C7                     muls.w     D0, D7
00001C7C  A11E                     syscall    NewPtr, flags=1
00001C7E  2648                     movea.l    A3, A0
00001C80  4A78 0220                tst.w      [0x00000220 /* MemErr */]
00001C84  6712                     beq        +0x14 /* 00001C98 */
00001C86  2F3C FFFF B922           move.l     -[A7], 0xFFFFB922
00001C8C  2F3C FFFF B924           move.l     -[A7], 0xFFFFB924
00001C92  4EBA 313A                jsr        [PC + 0x313A /* 00004DCE */]
00001C96  508F                     addq.l     A7, 8
label00001C98:
00001C98  2079 FFFF B71A           movea.l    A0, [0xFFFFB71A]
00001C9E  2050                     movea.l    A0, [A0]
00001CA0  208B                     move.l     [A0], A3
00001CA2  7026                     moveq.l    D0, 0x26
00001CA4  C1C7                     muls.w     D0, D7
00001CA6  2079 FFFF B71A           movea.l    A0, [0xFFFFB71A]
00001CAC  2050                     movea.l    A0, [A0]
00001CAE  3140 0004                move.w     [A0 + 0x4], D0
00001CB2  2079 FFFF B71A           movea.l    A0, [0xFFFFB71A]
00001CB8  2050                     movea.l    A0, [A0]
00001CBA  4868 0004                pea.l      [A0 + 0x4]
00001CBE  42A7                     clr.l      -[A7]
00001CC0  A85E                     syscall    BitSet
00001CC2  2079 FFFF B71A           movea.l    A0, [0xFFFFB71A]
00001CC8  2050                     movea.l    A0, [A0]
00001CCA  216E FFEA 0006           move.l     [A0 + 0x6], [A6 - 0x16]
00001CD0  216E FFEE 000A           move.l     [A0 + 0xA], [A6 - 0x12]
00001CD6  2079 FFFF B71A           movea.l    A0, [0xFFFFB71A]
00001CDC  2050                     movea.l    A0, [A0]
00001CDE  3147 0020                move.w     [A0 + 0x20], D7
00001CE2  2079 FFFF B71A           movea.l    A0, [0xFFFFB71A]
00001CE8  2050                     movea.l    A0, [A0]
00001CEA  3147 0024                move.w     [A0 + 0x24], D7
00001CEE  2079 FFFF B71A           movea.l    A0, [0xFFFFB71A]
00001CF4  2050                     movea.l    A0, [A0]
00001CF6  7048                     moveq.l    D0, 0x48
00001CF8  2140 0016                move.l     [A0 + 0x16], D0
00001CFC  2079 FFFF B71A           movea.l    A0, [0xFFFFB71A]
00001D02  2050                     movea.l    A0, [A0]
00001D04  7048                     moveq.l    D0, 0x48
00001D06  2140 001A                move.l     [A0 + 0x1A], D0
label00001D0A:
00001D0A  2F39 FFFF B784           move.l     -[A7], [0xFFFFB784]
00001D10  AA31                     syscall    SetGDevice
00001D12  2F3C FFFF B718           move.l     -[A7], 0xFFFFB718
00001D18  A873                     syscall    SetPort
00001D1A  2079 FFFF B71A           movea.l    A0, [0xFFFFB71A]
00001D20  2050                     movea.l    A0, [A0]
00001D22  4868 0006                pea.l      [A0 + 0x6]
00001D26  A8A3                     syscall    EraseRect
00001D28  6024                     bra        +0x26 /* 00001D4E */
label00001D2A:
00001D2A  2079 FFFF FACC           movea.l    A0, [0xFFFFFACC]
00001D30  43EE FFF2                lea.l      A1, [A6 - 0xE]
00001D34  5488                     addq.l     A0, 2
00001D36  22D8                     move.l     [A1]+, [A0]+
00001D38  22D8                     move.l     [A1]+, [A0]+
00001D3A  22D8                     move.l     [A1]+, [A0]+
00001D3C  32D8                     move.w     [A1]+, [A0]+
00001D3E  2F3C FFFF B70A           move.l     -[A7], 0xFFFFB70A
00001D44  A875                     syscall    SetPBits/SetPortBits
00001D46  2F3C FFFF B710           move.l     -[A7], 0xFFFFB710
00001D4C  A8A3                     syscall    EraseRect
label00001D4E:
00001D4E  2679 FFFF AACE           movea.l    A3, [0xFFFFAACE]
00001D54  6000 0444                bra        +0x446 /* 0000219A */
label00001D58:
00001D58  7000                     moveq.l    D0, 0x00
00001D5A  102B 0034                move.b     D0, [A3 + 0x34]
00001D5E  0C40 000B                cmpi.w     D0, 0xB
00001D62  6200 042C                bhi        +0x42E /* 00002190 */
00001D66  43FA 0644                lea.l      A1, [PC + 0x644 /* 000023AC, value 0xFDE4F9C6 */]
00001D6A  D040                     add.w      D0, D0
00001D6C  D2F1 0000                add.w      A1, [A1 + D0.w]
00001D70  4ED1                     jmp        [A1]
00001D72  70FE                     moveq.l    D0, 0xFFFFFFFE
00001D74  D06B 001A                add.w      D0, [A3 + 0x1A]
00001D78  3D40 FFE2                move.w     [A6 - 0x1E], D0
00001D7C  7003                     moveq.l    D0, 0x03
00001D7E  D06B 001A                add.w      D0, [A3 + 0x1A]
00001D82  3D40 FFE6                move.w     [A6 - 0x1A], D0
00001D86  70FE                     moveq.l    D0, 0xFFFFFFFE
00001D88  D06B 0018                add.w      D0, [A3 + 0x18]
00001D8C  3D40 FFE4                move.w     [A6 - 0x1C], D0
00001D90  7003                     moveq.l    D0, 0x03
00001D92  D06B 0018                add.w      D0, [A3 + 0x18]
00001D96  3D40 FFE8                move.w     [A6 - 0x18], D0
00001D9A  2F3C FFFF 7D7E           move.l     -[A7], 0xFFFF7D7E
00001DA0  2079 FFFF FACC           movea.l    A0, [0xFFFFFACC]
00001DA6  4868 0002                pea.l      [A0 + 0x2]
00001DAA  2F3C FFFF 7D84           move.l     -[A7], 0xFFFF7D84
00001DB0  486E FFE2                pea.l      [A6 - 0x1E]
00001DB4  3F3C 0001                move.w     -[A7], 0x1
00001DB8  42A7                     clr.l      -[A7]
00001DBA  A8EC                     syscall    CopyBits
00001DBC  6000 03D8                bra        +0x3DA /* 00002196 */
00001DC0  3F2B 0018                move.w     -[A7], [A3 + 0x18]
00001DC4  3F2B 001A                move.w     -[A7], [A3 + 0x1A]
00001DC8  A893                     syscall    MoveTo
00001DCA  486B 0018                pea.l      [A3 + 0x18]
00001DCE  486E FFCE                pea.l      [A6 - 0x32]
00001DD2  3F3C 200E                move.w     -[A7], 0x200E
00001DD6  A9EB                     syscall    Pack4/FP68K
00001DD8  486B 001E                pea.l      [A3 + 0x1E]
00001DDC  486E FFCE                pea.l      [A6 - 0x32]
00001DE0  4267                     clr.w      -[A7]
00001DE2  A9EB                     syscall    Pack4/FP68K
00001DE4  486E FFCE                pea.l      [A6 - 0x32]
00001DE8  3F3C 0016                move.w     -[A7], 0x16
00001DEC  A9EB                     syscall    Pack4/FP68K
00001DEE  486E FFCE                pea.l      [A6 - 0x32]
00001DF2  486E FFCC                pea.l      [A6 - 0x34]
00001DF6  3F3C 2010                move.w     -[A7], 0x2010
00001DFA  A9EB                     syscall    Pack4/FP68K
00001DFC  3F2E FFCC                move.w     -[A7], [A6 - 0x34]
00001E00  486B 001A                pea.l      [A3 + 0x1A]
00001E04  486E FFCE                pea.l      [A6 - 0x32]
00001E08  3F3C 200E                move.w     -[A7], 0x200E
00001E0C  A9EB                     syscall    Pack4/FP68K
00001E0E  486B 002A                pea.l      [A3 + 0x2A]
00001E12  486E FFCE                pea.l      [A6 - 0x32]
00001E16  4267                     clr.w      -[A7]
00001E18  A9EB                     syscall    Pack4/FP68K
00001E1A  486E FFCE                pea.l      [A6 - 0x32]
00001E1E  3F3C 0016                move.w     -[A7], 0x16
00001E22  A9EB                     syscall    Pack4/FP68K
00001E24  486E FFCE                pea.l      [A6 - 0x32]
00001E28  486E FFCC                pea.l      [A6 - 0x34]
00001E2C  3F3C 2010                move.w     -[A7], 0x2010
00001E30  A9EB                     syscall    Pack4/FP68K
00001E32  3F2E FFCC                move.w     -[A7], [A6 - 0x34]
00001E36  A891                     syscall    LineTo
00001E38  6000 035C                bra        +0x35E /* 00002196 */
00001E3C  41EE FFCC                lea.l      A0, [A6 - 0x34]
00001E40  43EB 001E                lea.l      A1, [A3 + 0x1E]
00001E44  20D9                     move.l     [A0]+, [A1]+
00001E46  20D9                     move.l     [A0]+, [A1]+
00001E48  30D9                     move.w     [A0]+, [A1]+
00001E4A  4868 FFF6                pea.l      [A0 - 0xA]
00001E4E  3F3C 0016                move.w     -[A7], 0x16
00001E52  A9EB                     syscall    Pack4/FP68K
00001E54  4868 FFF6                pea.l      [A0 - 0xA]
00001E58  486E FFD6                pea.l      [A6 - 0x2A]
00001E5C  3F3C 2010                move.w     -[A7], 0x2010
00001E60  A9EB                     syscall    Pack4/FP68K
00001E62  3E2E FFD6                move.w     D7, [A6 - 0x2A]
00001E66  302B 001A                move.w     D0, [A3 + 0x1A]
00001E6A  9047                     sub.w      D0, D7
00001E6C  3D40 FFE2                move.w     [A6 - 0x1E], D0
00001E70  302B 001A                move.w     D0, [A3 + 0x1A]
00001E74  D047                     add.w      D0, D7
00001E76  3D40 FFE6                move.w     [A6 - 0x1A], D0
00001E7A  302B 0018                move.w     D0, [A3 + 0x18]
00001E7E  9047                     sub.w      D0, D7
00001E80  3D40 FFE4                move.w     [A6 - 0x1C], D0
00001E84  302B 0018                move.w     D0, [A3 + 0x18]
00001E88  D047                     add.w      D0, D7
00001E8A  3D40 FFE8                move.w     [A6 - 0x18], D0
00001E8E  3F3C 0009                move.w     -[A7], 0x9 /* '\t' */
00001E92  A89C                     syscall    PenMode
00001E94  2F3C FFFF FAB4           move.l     -[A7], 0xFFFFFAB4
00001E9A  A89D                     syscall    PenPat
00001E9C  486E FFE2                pea.l      [A6 - 0x1E]
00001EA0  A8B8                     syscall    PaintOval
00001EA2  2F3C FFFF FABC           move.l     -[A7], 0xFFFFFABC
00001EA8  A89D                     syscall    PenPat
00001EAA  3F3C 0008                move.w     -[A7], 0x8
00001EAE  A89C                     syscall    PenMode
00001EB0  6000 02E4                bra        +0x2E6 /* 00002196 */
00001EB4  70FB                     moveq.l    D0, 0xFFFFFFFB
00001EB6  D06B 001A                add.w      D0, [A3 + 0x1A]
00001EBA  3D40 FFE2                move.w     [A6 - 0x1E], D0
00001EBE  7005                     moveq.l    D0, 0x05
00001EC0  D06B 001A                add.w      D0, [A3 + 0x1A]
00001EC4  3D40 FFE6                move.w     [A6 - 0x1A], D0
00001EC8  70FB                     moveq.l    D0, 0xFFFFFFFB
00001ECA  D06B 0018                add.w      D0, [A3 + 0x18]
00001ECE  3D40 FFE4                move.w     [A6 - 0x1C], D0
00001ED2  7005                     moveq.l    D0, 0x05
00001ED4  D06B 0018                add.w      D0, [A3 + 0x18]
00001ED8  3D40 FFE8                move.w     [A6 - 0x18], D0
00001EDC  486E FFE2                pea.l      [A6 - 0x1E]
00001EE0  A8B8                     syscall    PaintOval
00001EE2  6000 02B2                bra        +0x2B4 /* 00002196 */
00001EE6  70FC                     moveq.l    D0, 0xFFFFFFFC
00001EE8  D06B 001A                add.w      D0, [A3 + 0x1A]
00001EEC  3D40 FFE2                move.w     [A6 - 0x1E], D0
00001EF0  7004                     moveq.l    D0, 0x04
00001EF2  D06B 001A                add.w      D0, [A3 + 0x1A]
00001EF6  3D40 FFE6                move.w     [A6 - 0x1A], D0
00001EFA  70FC                     moveq.l    D0, 0xFFFFFFFC
00001EFC  D06B 0018                add.w      D0, [A3 + 0x18]
00001F00  3D40 FFE4                move.w     [A6 - 0x1C], D0
00001F04  7004                     moveq.l    D0, 0x04
00001F06  D06B 0018                add.w      D0, [A3 + 0x18]
00001F0A  3D40 FFE8                move.w     [A6 - 0x18], D0
00001F0E  2F3C FFFF 7D8C           move.l     -[A7], 0xFFFF7D8C
00001F14  2079 FFFF FACC           movea.l    A0, [0xFFFFFACC]
00001F1A  4868 0002                pea.l      [A0 + 0x2]
00001F1E  2F3C FFFF 7D92           move.l     -[A7], 0xFFFF7D92
00001F24  486E FFE2                pea.l      [A6 - 0x1E]
00001F28  3F3C 0001                move.w     -[A7], 0x1
00001F2C  42A7                     clr.l      -[A7]
00001F2E  A8EC                     syscall    CopyBits
00001F30  6000 0264                bra        +0x266 /* 00002196 */
00001F34  70FC                     moveq.l    D0, 0xFFFFFFFC
00001F36  D06B 001A                add.w      D0, [A3 + 0x1A]
00001F3A  3D40 FFE2                move.w     [A6 - 0x1E], D0
00001F3E  7004                     moveq.l    D0, 0x04
00001F40  D06B 001A                add.w      D0, [A3 + 0x1A]
00001F44  3D40 FFE6                move.w     [A6 - 0x1A], D0
00001F48  70FC                     moveq.l    D0, 0xFFFFFFFC
00001F4A  D06B 0018                add.w      D0, [A3 + 0x18]
00001F4E  3D40 FFE4                move.w     [A6 - 0x1C], D0
00001F52  7004                     moveq.l    D0, 0x04
00001F54  D06B 0018                add.w      D0, [A3 + 0x18]
00001F58  3D40 FFE8                move.w     [A6 - 0x18], D0
00001F5C  2F3C FFFF 7D9A           move.l     -[A7], 0xFFFF7D9A
00001F62  2079 FFFF FACC           movea.l    A0, [0xFFFFFACC]
00001F68  4868 0002                pea.l      [A0 + 0x2]
00001F6C  2F3C FFFF 7DA0           move.l     -[A7], 0xFFFF7DA0
00001F72  486E FFE2                pea.l      [A6 - 0x1E]
00001F76  3F3C 0001                move.w     -[A7], 0x1
00001F7A  42A7                     clr.l      -[A7]
00001F7C  A8EC                     syscall    CopyBits
00001F7E  6000 0216                bra        +0x218 /* 00002196 */
00001F82  70FC                     moveq.l    D0, 0xFFFFFFFC
00001F84  D06B 001A                add.w      D0, [A3 + 0x1A]
00001F88  3D40 FFE2                move.w     [A6 - 0x1E], D0
00001F8C  7003                     moveq.l    D0, 0x03
00001F8E  D06B 001A                add.w      D0, [A3 + 0x1A]
00001F92  3D40 FFE6                move.w     [A6 - 0x1A], D0
00001F96  70FC                     moveq.l    D0, 0xFFFFFFFC
00001F98  D06B 0018                add.w      D0, [A3 + 0x18]
00001F9C  3D40 FFE4                move.w     [A6 - 0x1C], D0
00001FA0  7003                     moveq.l    D0, 0x03
00001FA2  D06B 0018                add.w      D0, [A3 + 0x18]
00001FA6  3D40 FFE8                move.w     [A6 - 0x18], D0
00001FAA  7000                     moveq.l    D0, 0x00
00001FAC  102B 0035                move.b     D0, [A3 + 0x35]
00001FB0  C1FC 000E                muls.w     D0, 0xE
00001FB4  0680 FFFF 7DB6           addi.l     D0, 0xFFFF7DB6
00001FBA  2F00                     move.l     -[A7], D0
00001FBC  2079 FFFF FACC           movea.l    A0, [0xFFFFFACC]
00001FC2  4868 0002                pea.l      [A0 + 0x2]
00001FC6  7000                     moveq.l    D0, 0x00
00001FC8  102B 0035                move.b     D0, [A3 + 0x35]
00001FCC  C1FC 000E                muls.w     D0, 0xE
00001FD0  0680 FFFF 7DBC           addi.l     D0, 0xFFFF7DBC
00001FD6  2F00                     move.l     -[A7], D0
00001FD8  486E FFE2                pea.l      [A6 - 0x1E]
00001FDC  3F3C 0001                move.w     -[A7], 0x1
00001FE0  42A7                     clr.l      -[A7]
00001FE2  A8EC                     syscall    CopyBits
00001FE4  6000 01B0                bra        +0x1B2 /* 00002196 */
00001FE8  3F2B 0018                move.w     -[A7], [A3 + 0x18]
00001FEC  3F2B 001A                move.w     -[A7], [A3 + 0x1A]
00001FF0  A893                     syscall    MoveTo
00001FF2  41EE FFCE                lea.l      A0, [A6 - 0x32]
00001FF6  43EB 001E                lea.l      A1, [A3 + 0x1E]
00001FFA  20D9                     move.l     [A0]+, [A1]+
00001FFC  20D9                     move.l     [A0]+, [A1]+
00001FFE  30D9                     move.w     [A0]+, [A1]+
00002000  486B 0018                pea.l      [A3 + 0x18]
00002004  4868 FFF6                pea.l      [A0 - 0xA]
00002008  3F3C 2000                move.w     -[A7], 0x2000 /* ' \0' */
0000200C  A9EB                     syscall    Pack4/FP68K
0000200E  43EE FFC2                lea.l      A1, [A6 - 0x3E]
00002012  41E8 FFF6                lea.l      A0, [A0 - 0xA]
00002016  22D8                     move.l     [A1]+, [A0]+
00002018  22D8                     move.l     [A1]+, [A0]+
0000201A  32D8                     move.w     [A1]+, [A0]+
0000201C  4869 FFF6                pea.l      [A1 - 0xA]
00002020  3F3C 0016                move.w     -[A7], 0x16
00002024  A9EB                     syscall    Pack4/FP68K
00002026  4869 FFF6                pea.l      [A1 - 0xA]
0000202A  486E FFCC                pea.l      [A6 - 0x34]
0000202E  3F3C 2010                move.w     -[A7], 0x2010
00002032  A9EB                     syscall    Pack4/FP68K
00002034  302E FFCC                move.w     D0, [A6 - 0x34]
00002038  48C0                     ext.l      D0
0000203A  81FC 0002                divs.w     D0, 0x2
0000203E  3F00                     move.w     -[A7], D0
00002040  41EE FFCE                lea.l      A0, [A6 - 0x32]
00002044  43EB 002A                lea.l      A1, [A3 + 0x2A]
00002048  20D9                     move.l     [A0]+, [A1]+
0000204A  20D9                     move.l     [A0]+, [A1]+
0000204C  30D9                     move.w     [A0]+, [A1]+
0000204E  486B 001A                pea.l      [A3 + 0x1A]
00002052  4868 FFF6                pea.l      [A0 - 0xA]
00002056  3F3C 2000                move.w     -[A7], 0x2000 /* ' \0' */
0000205A  A9EB                     syscall    Pack4/FP68K
0000205C  43EE FFC2                lea.l      A1, [A6 - 0x3E]
00002060  41E8 FFF6                lea.l      A0, [A0 - 0xA]
00002064  22D8                     move.l     [A1]+, [A0]+
00002066  22D8                     move.l     [A1]+, [A0]+
00002068  32D8                     move.w     [A1]+, [A0]+
0000206A  4869 FFF6                pea.l      [A1 - 0xA]
0000206E  3F3C 0016                move.w     -[A7], 0x16
00002072  A9EB                     syscall    Pack4/FP68K
00002074  4869 FFF6                pea.l      [A1 - 0xA]
00002078  486E FFCC                pea.l      [A6 - 0x34]
0000207C  3F3C 2010                move.w     -[A7], 0x2010
00002080  A9EB                     syscall    Pack4/FP68K
00002082  302E FFCC                move.w     D0, [A6 - 0x34]
00002086  48C0                     ext.l      D0
00002088  81FC 0002                divs.w     D0, 0x2
0000208C  3F00                     move.w     -[A7], D0
0000208E  A891                     syscall    LineTo
00002090  2F3C FFFF FAB4           move.l     -[A7], 0xFFFFFAB4
00002096  A89D                     syscall    PenPat
00002098  41EE FFCC                lea.l      A0, [A6 - 0x34]
0000209C  43EB 001E                lea.l      A1, [A3 + 0x1E]
000020A0  20D9                     move.l     [A0]+, [A1]+
000020A2  20D9                     move.l     [A0]+, [A1]+
000020A4  30D9                     move.w     [A0]+, [A1]+
000020A6  4868 FFF6                pea.l      [A0 - 0xA]
000020AA  3F3C 0016                move.w     -[A7], 0x16
000020AE  A9EB                     syscall    Pack4/FP68K
000020B0  4868 FFF6                pea.l      [A0 - 0xA]
000020B4  486E FFD6                pea.l      [A6 - 0x2A]
000020B8  3F3C 2010                move.w     -[A7], 0x2010
000020BC  A9EB                     syscall    Pack4/FP68K
000020BE  3F2E FFD6                move.w     -[A7], [A6 - 0x2A]
000020C2  41EE FFCC                lea.l      A0, [A6 - 0x34]
000020C6  43EB 002A                lea.l      A1, [A3 + 0x2A]
000020CA  20D9                     move.l     [A0]+, [A1]+
000020CC  20D9                     move.l     [A0]+, [A1]+
000020CE  30D9                     move.w     [A0]+, [A1]+
000020D0  4868 FFF6                pea.l      [A0 - 0xA]
000020D4  3F3C 0016                move.w     -[A7], 0x16
000020D8  A9EB                     syscall    Pack4/FP68K
000020DA  4868 FFF6                pea.l      [A0 - 0xA]
000020DE  486E FFD6                pea.l      [A6 - 0x2A]
000020E2  3F3C 2010                move.w     -[A7], 0x2010
000020E6  A9EB                     syscall    Pack4/FP68K
000020E8  3F2E FFD6                move.w     -[A7], [A6 - 0x2A]
000020EC  A891                     syscall    LineTo
000020EE  2F3C FFFF FABC           move.l     -[A7], 0xFFFFFABC
000020F4  A89D                     syscall    PenPat
000020F6  6000 009E                bra        +0xA0 /* 00002196 */
000020FA  70FC                     moveq.l    D0, 0xFFFFFFFC
000020FC  D06B 001A                add.w      D0, [A3 + 0x1A]
00002100  3D40 FFE2                move.w     [A6 - 0x1E], D0
00002104  7004                     moveq.l    D0, 0x04
00002106  D06B 001A                add.w      D0, [A3 + 0x1A]
0000210A  3D40 FFE6                move.w     [A6 - 0x1A], D0
0000210E  70FC                     moveq.l    D0, 0xFFFFFFFC
00002110  D06B 0018                add.w      D0, [A3 + 0x18]
00002114  3D40 FFE4                move.w     [A6 - 0x1C], D0
00002118  7004                     moveq.l    D0, 0x04
0000211A  D06B 0018                add.w      D0, [A3 + 0x18]
0000211E  3D40 FFE8                move.w     [A6 - 0x18], D0
00002122  2F3C FFFF 7DA8           move.l     -[A7], 0xFFFF7DA8
00002128  2079 FFFF FACC           movea.l    A0, [0xFFFFFACC]
0000212E  4868 0002                pea.l      [A0 + 0x2]
00002132  2F3C FFFF 7DAE           move.l     -[A7], 0xFFFF7DAE
00002138  486E FFE2                pea.l      [A6 - 0x1E]
0000213C  3F3C 0001                move.w     -[A7], 0x1
00002140  42A7                     clr.l      -[A7]
00002142  A8EC                     syscall    CopyBits
00002144  6050                     bra        +0x52 /* 00002196 */
00002146  70FE                     moveq.l    D0, 0xFFFFFFFE
00002148  D06B 0018                add.w      D0, [A3 + 0x18]
0000214C  3F00                     move.w     -[A7], D0
0000214E  70FE                     moveq.l    D0, 0xFFFFFFFE
00002150  D06B 001A                add.w      D0, [A3 + 0x1A]
00002154  3F00                     move.w     -[A7], D0
00002156  A893                     syscall    MoveTo
00002158  7002                     moveq.l    D0, 0x02
0000215A  D06B 0018                add.w      D0, [A3 + 0x18]
0000215E  3F00                     move.w     -[A7], D0
00002160  7002                     moveq.l    D0, 0x02
00002162  D06B 001A                add.w      D0, [A3 + 0x1A]
00002166  3F00                     move.w     -[A7], D0
00002168  A891                     syscall    LineTo
0000216A  7002                     moveq.l    D0, 0x02
0000216C  D06B 0018                add.w      D0, [A3 + 0x18]
00002170  3F00                     move.w     -[A7], D0
00002172  70FE                     moveq.l    D0, 0xFFFFFFFE
00002174  D06B 001A                add.w      D0, [A3 + 0x1A]
00002178  3F00                     move.w     -[A7], D0
0000217A  A893                     syscall    MoveTo
0000217C  70FE                     moveq.l    D0, 0xFFFFFFFE
0000217E  D06B 0018                add.w      D0, [A3 + 0x18]
00002182  3F00                     move.w     -[A7], D0
00002184  7002                     moveq.l    D0, 0x02
00002186  D06B 001A                add.w      D0, [A3 + 0x1A]
0000218A  3F00                     move.w     -[A7], D0
0000218C  A891                     syscall    LineTo
0000218E  6006                     bra        +0x8 /* 00002196 */
label00002190:
00002190  3F3C 0001                move.w     -[A7], 0x1
00002194  A9C8                     syscall    SysBeep
label00002196:
00002196  266B 0038                movea.l    A3, [A3 + 0x38]
label0000219A:
0000219A  200B                     move.l     D0, A3
0000219C  6600 FBBA                bne        -0x444 /* 00001D58 */
000021A0  7E00                     moveq.l    D7, 0x00
000021A2  267C FFFF 9442           movea.l    A3, 0xFFFF9442
000021A8  6000 019C                bra        +0x19E /* 00002346 */
label000021AC:
000021AC  244B                     movea.l    A2, A3
000021AE  4A2A 0116                tst.b      [A2 + 0x116]
000021B2  673E                     beq        +0x40 /* 000021F2 */
000021B4  3C2A 0030                move.w     D6, [A2 + 0x30]
000021B8  3A2A 0032                move.w     D5, [A2 + 0x32]
000021BC  162A 0117                move.b     D3, [A2 + 0x117]
000021C0  4A03                     tst.b      D3
000021C2  6706                     beq        +0x8 /* 000021CA */
000021C4  7800                     moveq.l    D4, 0x00
000021C6  1803                     move.b     D4, D3
000021C8  600A                     bra        +0xC /* 000021D4 */
label000021CA:
000021CA  4A6A 0100                tst.w      [A2 + 0x100]
000021CE  5EC4                     sgt        D4
000021D0  4404                     neg.b      D4
000021D2  4884                     ext.w      D4
label000021D4:
000021D4  3F2B 034E                move.w     -[A7], [A3 + 0x34E]
000021D8  42A7                     clr.l      -[A7]
000021DA  3F04                     move.w     -[A7], D4
000021DC  3F2A 0102                move.w     -[A7], [A2 + 0x102]
000021E0  3F05                     move.w     -[A7], D5
000021E2  3F06                     move.w     -[A7], D6
000021E4  3F07                     move.w     -[A7], D7
000021E6  4EBA 2E82                jsr        [PC + 0x2E82 /* 0000506A */]
000021EA  4FEF 0010                lea.l      A7, [A7 + 0x10]
000021EE  6000 0150                bra        +0x152 /* 00002340 */
label000021F2:
000021F2  362A 0102                move.w     D3, [A2 + 0x102]
000021F6  4A43                     tst.w      D3
000021F8  6700 0146                beq        +0x148 /* 00002340 */
000021FC  3C2A 0104                move.w     D6, [A2 + 0x104]
00002200  3A2A 0106                move.w     D5, [A2 + 0x106]
00002204  3803                     move.w     D4, D3
00002206  3005                     move.w     D0, D5
00002208  D044                     add.w      D0, D4
0000220A  3D40 FFE0                move.w     [A6 - 0x20], D0
0000220E  3204                     move.w     D1, D4
00002210  D241                     add.w      D1, D1
00002212  D246                     add.w      D1, D6
00002214  3D41 FFDE                move.w     [A6 - 0x22], D1
00002218  4267                     clr.w      -[A7]
0000221A  2F39 FFFF 7E64           move.l     -[A7], [0xFFFF7E64]
00002220  7400                     moveq.l    D2, 0x00
00002222  142A 0117                move.b     D2, [A2 + 0x117]
00002226  3F02                     move.w     -[A7], D2
00002228  4267                     clr.w      -[A7]
0000222A  3F00                     move.w     -[A7], D0
0000222C  3F01                     move.w     -[A7], D1
0000222E  3F07                     move.w     -[A7], D7
00002230  4EBA 2E38                jsr        [PC + 0x2E38 /* 0000506A */]
00002234  3004                     move.w     D0, D4
00002236  D040                     add.w      D0, D0
00002238  D045                     add.w      D0, D5
0000223A  3D40 FFDC                move.w     [A6 - 0x24], D0
0000223E  3206                     move.w     D1, D6
00002240  D244                     add.w      D1, D4
00002242  3D41 FFDA                move.w     [A6 - 0x26], D1
00002246  4257                     clr.w      [A7]
00002248  2F39 FFFF 7E68           move.l     -[A7], [0xFFFF7E68]
0000224E  7400                     moveq.l    D2, 0x00
00002250  142A 0117                move.b     D2, [A2 + 0x117]
00002254  3F02                     move.w     -[A7], D2
00002256  4267                     clr.w      -[A7]
00002258  3F00                     move.w     -[A7], D0
0000225A  3F01                     move.w     -[A7], D1
0000225C  3F07                     move.w     -[A7], D7
0000225E  4EBA 2E0A                jsr        [PC + 0x2E0A /* 0000506A */]
00002262  3006                     move.w     D0, D6
00002264  9044                     sub.w      D0, D4
00002266  3D40 FFD8                move.w     [A6 - 0x28], D0
0000226A  4257                     clr.w      [A7]
0000226C  2F39 FFFF 7E6C           move.l     -[A7], [0xFFFF7E6C]
00002272  7200                     moveq.l    D1, 0x00
00002274  122A 0117                move.b     D1, [A2 + 0x117]
00002278  3F01                     move.w     -[A7], D1
0000227A  4267                     clr.w      -[A7]
0000227C  3F2E FFDC                move.w     -[A7], [A6 - 0x24]
00002280  3F00                     move.w     -[A7], D0
00002282  3F07                     move.w     -[A7], D7
00002284  4EBA 2DE4                jsr        [PC + 0x2DE4 /* 0000506A */]
00002288  3004                     move.w     D0, D4
0000228A  D040                     add.w      D0, D0
0000228C  3206                     move.w     D1, D6
0000228E  9240                     sub.w      D1, D0
00002290  3D41 FFDC                move.w     [A6 - 0x24], D1
00002294  4257                     clr.w      [A7]
00002296  2F39 FFFF 7E70           move.l     -[A7], [0xFFFF7E70]
0000229C  7000                     moveq.l    D0, 0x00
0000229E  102A 0117                move.b     D0, [A2 + 0x117]
000022A2  3F00                     move.w     -[A7], D0
000022A4  4267                     clr.w      -[A7]
000022A6  3F2E FFE0                move.w     -[A7], [A6 - 0x20]
000022AA  3F01                     move.w     -[A7], D1
000022AC  3F07                     move.w     -[A7], D7
000022AE  4EBA 2DBA                jsr        [PC + 0x2DBA /* 0000506A */]
000022B2  3C05                     move.w     D6, D5
000022B4  9C44                     sub.w      D6, D4
000022B6  4257                     clr.w      [A7]
000022B8  2F39 FFFF 7E74           move.l     -[A7], [0xFFFF7E74]
000022BE  7000                     moveq.l    D0, 0x00
000022C0  102A 0117                move.b     D0, [A2 + 0x117]
000022C4  3F00                     move.w     -[A7], D0
000022C6  4267                     clr.w      -[A7]
000022C8  3F06                     move.w     -[A7], D6
000022CA  3F2E FFDC                move.w     -[A7], [A6 - 0x24]
000022CE  3F07                     move.w     -[A7], D7
000022D0  4EBA 2D98                jsr        [PC + 0x2D98 /* 0000506A */]
000022D4  3004                     move.w     D0, D4
000022D6  D040                     add.w      D0, D0
000022D8  3205                     move.w     D1, D5
000022DA  9240                     sub.w      D1, D0
000022DC  3D41 FFE0                move.w     [A6 - 0x20], D1
000022E0  4257                     clr.w      [A7]
000022E2  2F39 FFFF 7E78           move.l     -[A7], [0xFFFF7E78]
000022E8  7000                     moveq.l    D0, 0x00
000022EA  102A 0117                move.b     D0, [A2 + 0x117]
000022EE  3F00                     move.w     -[A7], D0
000022F0  4267                     clr.w      -[A7]
000022F2  3F01                     move.w     -[A7], D1
000022F4  3F2E FFD8                move.w     -[A7], [A6 - 0x28]
000022F8  3F07                     move.w     -[A7], D7
000022FA  4EBA 2D6E                jsr        [PC + 0x2D6E /* 0000506A */]
000022FE  4257                     clr.w      [A7]
00002300  2F39 FFFF 7E7C           move.l     -[A7], [0xFFFF7E7C]
00002306  7000                     moveq.l    D0, 0x00
00002308  102A 0117                move.b     D0, [A2 + 0x117]
0000230C  3F00                     move.w     -[A7], D0
0000230E  4267                     clr.w      -[A7]
00002310  3F2E FFE0                move.w     -[A7], [A6 - 0x20]
00002314  3F2E FFDA                move.w     -[A7], [A6 - 0x26]
00002318  3F07                     move.w     -[A7], D7
0000231A  4EBA 2D4E                jsr        [PC + 0x2D4E /* 0000506A */]
0000231E  4257                     clr.w      [A7]
00002320  2F39 FFFF 7E80           move.l     -[A7], [0xFFFF7E80]
00002326  7000                     moveq.l    D0, 0x00
00002328  102A 0117                move.b     D0, [A2 + 0x117]
0000232C  3F00                     move.w     -[A7], D0
0000232E  4267                     clr.w      -[A7]
00002330  3F06                     move.w     -[A7], D6
00002332  3F2E FFDE                move.w     -[A7], [A6 - 0x22]
00002336  3F07                     move.w     -[A7], D7
00002338  4EBA 2D30                jsr        [PC + 0x2D30 /* 0000506A */]
0000233C  4FEF 0072                lea.l      A7, [A7 + 0x72]
label00002340:
00002340  5247                     addq.w     D7, 1
00002342  47EB 03C2                lea.l      A3, [A3 + 0x3C2]
label00002346:
00002346  BE79 FFFF 9226           cmp.w      D7, [0xFFFF9226]
0000234C  6D00 FE5E                blt        -0x1A0 /* 000021AC */
00002350  4A39 FFFF 9081           tst.b      [0xFFFF9081]
00002356  672E                     beq        +0x30 /* 00002386 */
00002358  2F0C                     move.l     -[A7], A4
0000235A  AA31                     syscall    SetGDevice
0000235C  2F39 FFFF 7D56           move.l     -[A7], [0xFFFF7D56]
00002362  A873                     syscall    SetPort
00002364  2079 FFFF B71A           movea.l    A0, [0xFFFFB71A]
0000236A  2F10                     move.l     -[A7], [A0]
0000236C  2079 FFFF 7D56           movea.l    A0, [0xFFFF7D56]
00002372  4868 0002                pea.l      [A0 + 0x2]
00002376  486E FFEA                pea.l      [A6 - 0x16]
0000237A  486E FFEA                pea.l      [A6 - 0x16]
0000237E  4267                     clr.w      -[A7]
00002380  42A7                     clr.l      -[A7]
00002382  A8EC                     syscall    CopyBits
00002384  601E                     bra        +0x20 /* 000023A4 */
label00002386:
00002386  486E FFF2                pea.l      [A6 - 0xE]
0000238A  A875                     syscall    SetPBits/SetPortBits
0000238C  2F3C FFFF B70A           move.l     -[A7], 0xFFFFB70A
00002392  486E FFF2                pea.l      [A6 - 0xE]
00002396  486E FFEA                pea.l      [A6 - 0x16]
0000239A  486E FFEA                pea.l      [A6 - 0x16]
0000239E  4267                     clr.w      -[A7]
000023A0  42A7                     clr.l      -[A7]
000023A2  A8EC                     syscall    CopyBits
label000023A4:
000023A4  4CDF 1CF8                movem.l    D3,D4,D5,D6,D7,A2,A3,A4, [A7]+
000023A8  4E5E                     unlink     A6
000023AA  4E75                     rts
000023AC  FDE4                     .invalid   <<F/7/6>>
000023AE  F9C6                     .invalid   <<F/7/4>>
000023B0  FA14 FA90                .unknown   0xFA14 0xFA90 (W = 5)
000023B4  FB08                     .extension 0xB08 <<F/4-5/5>> // unimplemented
000023B6  FA90 FB3A                .extension 0xA90 <<F/2-3/5>> // unimplemented
000023BA  FB88                     .invalid   <<F/6/5>>
000023BC  FD4E                     .extension 0xD4E <<F/4-5/6>> // unimplemented
000023BE  FBD6                     .invalid   <<F/7/5>>
000023C0  FC3C FD9A                .unknown   0xFC3C 0xFD9A (W = 6)
export_91:
000023C4  2F0C                     move.l     -[A7], A4
000023C6  2879 FFFF AACE           movea.l    A4, [0xFFFFAACE]
000023CC  6078                     bra        +0x7A /* 00002446 */
label000023CE:
000023CE  4A2C 0037                tst.b      [A4 + 0x37]
000023D2  676E                     beq        +0x70 /* 00002442 */
000023D4  7000                     moveq.l    D0, 0x00
000023D6  102C 0034                move.b     D0, [A4 + 0x34]
000023DA  0C40 000A                cmpi.w     D0, 0xA /* '\n' */
000023DE  625E                     bhi        +0x60 /* 0000243E */
000023E0  43FA 006C                lea.l      A1, [PC + 0x6C /* 0000244E, value 0xFFF0FF9E */]
000023E4  D040                     add.w      D0, D0
000023E6  D2F1 0000                add.w      A1, [A1 + D0.w]
000023EA  4ED1                     jmp        [A1]
000023EC  2F3C 03E8 0006           move.l     -[A7], 0x3E80006
000023F2  4EBA 3346                jsr        [PC + 0x3346 /* 0000573A */]
000023F6  588F                     addq.l     A7, 4
000023F8  6044                     bra        +0x46 /* 0000243E */
000023FA  2F3C 03E9 0006           move.l     -[A7], 0x3E90006
00002400  4EBA 3338                jsr        [PC + 0x3338 /* 0000573A */]
00002404  588F                     addq.l     A7, 4
00002406  6036                     bra        +0x38 /* 0000243E */
00002408  2F3C 03EC 0006           move.l     -[A7], 0x3EC0006
0000240E  4EBA 332A                jsr        [PC + 0x332A /* 0000573A */]
00002412  588F                     addq.l     A7, 4
00002414  6028                     bra        +0x2A /* 0000243E */
00002416  2F3C 03EE 0006           move.l     -[A7], 0x3EE0006
0000241C  4EBA 331C                jsr        [PC + 0x331C /* 0000573A */]
00002420  588F                     addq.l     A7, 4
00002422  601A                     bra        +0x1C /* 0000243E */
00002424  2F3C 03EB 0006           move.l     -[A7], 0x3EB0006
0000242A  4EBA 330E                jsr        [PC + 0x330E /* 0000573A */]
0000242E  588F                     addq.l     A7, 4
00002430  600C                     bra        +0xE /* 0000243E */
00002432  2F3C 03ED 0006           move.l     -[A7], 0x3ED0006
00002438  4EBA 3300                jsr        [PC + 0x3300 /* 0000573A */]
0000243C  588F                     addq.l     A7, 4
label0000243E:
0000243E  422C 0037                clr.b      [A4 + 0x37]
label00002442:
00002442  286C 0038                movea.l    A4, [A4 + 0x38]
label00002446:
00002446  200C                     move.l     D0, A4
00002448  6684                     bne        -0x7A /* 000023CE */
0000244A  285F                     movea.l    A4, [A7]+
0000244C  4E75                     rts
0000244E  FFF0                     .invalid   <<F/7/7>>
00002450  FF9E                     .invalid   <<F/6/7>>
00002452  FFAC                     .invalid   <<F/6/7>>
00002454  FFF0                     .invalid   <<F/7/7>>
00002456  FFF0                     .invalid   <<F/7/7>>
00002458  FFF0                     .invalid   <<F/7/7>>
0000245A  FFBA                     .invalid   <<F/6/7>>
0000245C  FFF0                     .invalid   <<F/7/7>>
0000245E  FFE4                     .invalid   <<F/7/7>>
00002460  FFC8                     .invalid   <<F/7/7>>
00002462  FFD6                     .invalid   <<F/7/7>>
00002464  4E56 FFF8                link       A6, -0x0008
00002468  48E7 0718                movem.l    -[A7], D5,D6,D7,A3,A4
0000246C  3A2E 0008                move.w     D5, [A6 + 0x8]
00002470  7E00                     moveq.l    D7, 0x00
00002472  3C05                     move.w     D6, D5
00002474  4A45                     tst.w      D5
00002476  6C02                     bge        +0x4 /* 0000247A */
00002478  4445                     neg.w      D5
label0000247A:
0000247A  2005                     move.l     D0, D5
0000247C  48C0                     ext.l      D0
0000247E  81FC 000A                divs.w     D0, 0xA /* '\n' */
00002482  4840                     swap.w     D0
00002484  0600 0030                addi.b     D0, 0x30 /* '0' */
00002488  3207                     move.w     D1, D7
0000248A  5247                     addq.w     D7, 1
0000248C  1D80 10F8                move.b     [A6 + D1.w - 0x8], D0
00002490  48C5                     ext.l      D5
00002492  8BFC 000A                divs.w     D5, 0xA /* '\n' */
00002496  4A45                     tst.w      D5
00002498  6EE0                     bgt        -0x1E /* 0000247A */
0000249A  4A46                     tst.w      D6
0000249C  6C0A                     bge        +0xC /* 000024A8 */
0000249E  3007                     move.w     D0, D7
000024A0  5247                     addq.w     D7, 1
000024A2  1DBC 002D 00F8           move.b     [A6 + D0.w - 0x8], 0x2D /* '-' */
label000024A8:
000024A8  4236 70F8                clr.b      [A6 + D7.w - 0x8]
000024AC  7C00                     moveq.l    D6, 0x00
000024AE  7AFF                     moveq.l    D5, 0xFFFFFFFF
000024B0  DA47                     add.w      D5, D7
000024B2  6012                     bra        +0x14 /* 000024C6 */
label000024B4:
000024B4  49F6 60F8                lea.l      A4, [A6 + D6.w - 0x8]
000024B8  1E14                     move.b     D7, [A4]
000024BA  47F6 50F8                lea.l      A3, [A6 + D5.w - 0x8]
000024BE  1893                     move.b     [A4], [A3]
000024C0  1687                     move.b     [A3], D7
000024C2  5246                     addq.w     D6, 1
000024C4  5345                     subq.w     D5, 1
label000024C6:
000024C6  BA46                     cmp.w      D5, D6
000024C8  6EEA                     bgt        -0x14 /* 000024B4 */
000024CA  200E                     move.l     D0, A6
000024CC  5180                     subq.l     D0, 8
000024CE  4CDF 18E0                movem.l    D5,D6,D7,A3,A4, [A7]+
000024D2  4E5E                     unlink     A6
000024D4  4E75                     rts
export_92:
000024D6  4E56 F2DE                link       A6, -0x0D22
000024DA  48E7 0338                movem.l    -[A7], D6,D7,A2,A3,A4
000024DE  0C79 0006 FFFF 923A      cmpi.w     [0xFFFF923A], 0x6
000024E6  6600 0166                bne        +0x168 /* 0000264E */
000024EA  7E00                     moveq.l    D7, 0x00
000024EC  49EE F400                lea.l      A4, [A6 - 0xC00]
000024F0  47EE FA00                lea.l      A3, [A6 - 0x600]
000024F4  247C FFFF 9442           movea.l    A2, 0xFFFF9442
000024FA  605A                     bra        +0x5C /* 00002556 */
label000024FC:
000024FC  4A2A 0116                tst.b      [A2 + 0x116]
00002500  672E                     beq        +0x30 /* 00002530 */
00002502  3F2A 00FE                move.w     -[A7], [A2 + 0xFE]
00002506  2F3C FFFF B932           move.l     -[A7], 0xFFFFB932
0000250C  486B 0001                pea.l      [A3 + 0x1]
00002510  4EAD 050A                jsr        [A5 + 0x50A /* export_157, CODE:7 @ 000020CA */]
00002514  1680                     move.b     [A3], D0
00002516  3EAA 0108                move.w     [A7], [A2 + 0x108]
0000251A  2F3C FFFF B936           move.l     -[A7], 0xFFFFB936
00002520  486C 0001                pea.l      [A4 + 0x1]
00002524  4EAD 050A                jsr        [A5 + 0x50A /* export_157, CODE:7 @ 000020CA */]
00002528  1880                     move.b     [A4], D0
0000252A  4FEF 0012                lea.l      A7, [A7 + 0x12]
0000252E  6018                     bra        +0x1A /* 00002548 */
label00002530:
00002530  2F2A 0118                move.l     -[A7], [A2 + 0x118]
00002534  2F3C FFFF B93A           move.l     -[A7], 0xFFFFB93A
0000253A  486B 0001                pea.l      [A3 + 0x1]
0000253E  4EAD 050A                jsr        [A5 + 0x50A /* export_157, CODE:7 @ 000020CA */]
00002542  1680                     move.b     [A3], D0
00002544  4FEF 000C                lea.l      A7, [A7 + 0xC]
label00002548:
00002548  5247                     addq.w     D7, 1
0000254A  49EC 0100                lea.l      A4, [A4 + 0x100]
0000254E  47EB 0100                lea.l      A3, [A3 + 0x100]
00002552  45EA 03C2                lea.l      A2, [A2 + 0x3C2]
label00002556:
00002556  BE79 FFFF 9226           cmp.w      D7, [0xFFFF9226]
0000255C  6D9E                     blt        -0x60 /* 000024FC */
0000255E  7E00                     moveq.l    D7, 0x00
00002560  7C08                     moveq.l    D6, 0x08
00002562  2007                     move.l     D0, D7
00002564  48C0                     ext.l      D0
00002566  E188                     lsl        D0, 8
00002568  2840                     movea.l    A4, D0
0000256A  47EE F400                lea.l      A3, [A6 - 0xC00]
0000256E  D7CC                     add.l      A3, A4
00002570  45EE FA00                lea.l      A2, [A6 - 0x600]
00002574  D5CC                     add.l      A2, A4
00002576  303C 03C2                move.w     D0, 0x3C2
0000257A  C1C7                     muls.w     D0, D7
0000257C  0680 FFFF 9442           addi.l     D0, 0xFFFF9442
00002582  2840                     movea.l    A4, D0
00002584  6000 00BC                bra        +0xBE /* 00002642 */
label00002588:
00002588  3D46 F2F8                move.w     [A6 - 0xD08], D6
0000258C  7015                     moveq.l    D0, 0x15
0000258E  D046                     add.w      D0, D6
00002590  3D40 F2FC                move.w     [A6 - 0xD04], D0
00002594  4A2C 0116                tst.b      [A4 + 0x116]
00002598  6734                     beq        +0x36 /* 000025CE */
0000259A  3D7C 01DB F2FA           move.w     [A6 - 0xD06], 0x1DB
000025A0  3D7C 01F4 F2FE           move.w     [A6 - 0xD02], 0x1F4
000025A6  486E F2F8                pea.l      [A6 - 0xD08]
000025AA  A8A3                     syscall    EraseRect
000025AC  3F3C 01DB                move.w     -[A7], 0x1DB
000025B0  700A                     moveq.l    D0, 0x0A
000025B2  D046                     add.w      D0, D6
000025B4  3F00                     move.w     -[A7], D0
000025B6  A893                     syscall    MoveTo
000025B8  2F0A                     move.l     -[A7], A2
000025BA  A884                     syscall    DrawString
000025BC  3F3C 01DB                move.w     -[A7], 0x1DB
000025C0  7013                     moveq.l    D0, 0x13
000025C2  D046                     add.w      D0, D6
000025C4  3F00                     move.w     -[A7], D0
000025C6  A893                     syscall    MoveTo
000025C8  2F0B                     move.l     -[A7], A3
000025CA  A884                     syscall    DrawString
000025CC  6062                     bra        +0x64 /* 00002630 */
label000025CE:
000025CE  4A6C 0102                tst.w      [A4 + 0x102]
000025D2  675C                     beq        +0x5E /* 00002630 */
000025D4  3D7C 01AE F2FA           move.w     [A6 - 0xD06], 0x1AE
000025DA  3D7C 01F4 F2FE           move.w     [A6 - 0xD02], 0x1F4
000025E0  486E F2F8                pea.l      [A6 - 0xD08]
000025E4  A8A3                     syscall    EraseRect
000025E6  3F3C 01AE                move.w     -[A7], 0x1AE
000025EA  700A                     moveq.l    D0, 0x0A
000025EC  D046                     add.w      D0, D6
000025EE  3F00                     move.w     -[A7], D0
000025F0  A893                     syscall    MoveTo
000025F2  302C 010E                move.w     D0, [A4 + 0x10E]
000025F6  6B20                     bmi        +0x22 /* 00002618 */
000025F8  0440 7D01                subi.w     D0, 0x7D01
000025FC  6710                     beq        +0x12 /* 0000260E */
000025FE  6A18                     bpl        +0x1A /* 00002618 */
00002600  5240                     addq.w     D0, 1
00002602  6B14                     bmi        +0x16 /* 00002618 */
00002604  2F3C FFFF B944           move.l     -[A7], 0xFFFFB944
0000260A  A884                     syscall    DrawString
0000260C  6012                     bra        +0x14 /* 00002620 */
label0000260E:
0000260E  2F3C FFFF B94A           move.l     -[A7], 0xFFFFB94A
00002614  A884                     syscall    DrawString
00002616  6008                     bra        +0xA /* 00002620 */
label00002618:
00002618  2F3C FFFF B956           move.l     -[A7], 0xFFFFB956
0000261E  A884                     syscall    DrawString
label00002620:
00002620  3F3C 01AE                move.w     -[A7], 0x1AE
00002624  7013                     moveq.l    D0, 0x13
00002626  D046                     add.w      D0, D6
00002628  3F00                     move.w     -[A7], D0
0000262A  A893                     syscall    MoveTo
0000262C  2F0A                     move.l     -[A7], A2
0000262E  A884                     syscall    DrawString
label00002630:
00002630  5247                     addq.w     D7, 1
00002632  47EB 0100                lea.l      A3, [A3 + 0x100]
00002636  45EA 0100                lea.l      A2, [A2 + 0x100]
0000263A  49EC 03C2                lea.l      A4, [A4 + 0x3C2]
0000263E  0646 0022                addi.w     D6, 0x22 /* '\"' */
label00002642:
00002642  BE79 FFFF 9226           cmp.w      D7, [0xFFFF9226]
00002648  6D00 FF3E                blt        -0xC0 /* 00002588 */
0000264C  6004                     bra        +0x6 /* 00002652 */
label0000264E:
0000264E  4EAD 0352                jsr        [A5 + 0x352 /* export_102, CODE:3 @ 00002804 */]
label00002652:
00002652  3D7C 00CE F2F8           move.w     [A6 - 0xD08], 0xCE
00002658  3D7C 00D8 F2FC           move.w     [A6 - 0xD04], 0xD8
0000265E  3D7C 016D F2FA           move.w     [A6 - 0xD06], 0x16D
00002664  3D7C 0194 F2FE           move.w     [A6 - 0xD02], 0x194
0000266A  2F39 FFFF B7C6           move.l     -[A7], [0xFFFFB7C6]
00002670  2F3C FFFF B960           move.l     -[A7], 0xFFFFB960
00002676  486E F301                pea.l      [A6 - 0xCFF]
0000267A  4EAD 050A                jsr        [A5 + 0x50A /* export_157, CODE:7 @ 000020CA */]
0000267E  1D40 F300                move.b     [A6 - 0xD00], D0
00002682  486E F2F8                pea.l      [A6 - 0xD08]
00002686  A8A3                     syscall    EraseRect
00002688  2EBC 00D8 016D           move.l     [A7], 0xD8016D
0000268E  A893                     syscall    MoveTo
00002690  486E F300                pea.l      [A6 - 0xD00]
00002694  A884                     syscall    DrawString
00002696  3D7C 01CC F2FA           move.w     [A6 - 0xD06], 0x1CC
0000269C  3D7C 01F4 F2FE           move.w     [A6 - 0xD02], 0x1F4
000026A2  7005                     moveq.l    D0, 0x05
000026A4  2E80                     move.l     [A7], D0
000026A6  2F39 FFFF B7C6           move.l     -[A7], [0xFFFFB7C6]
000026AC  4EAD 0062                jsr        [A5 + 0x62 /* export_8, CODE:1 @ 00000380 */]
000026B0  4A80                     tst.l      D0
000026B2  588F                     addq.l     A7, 4
000026B4  6600 00F6                bne        +0xF8 /* 000027AC */
000026B8  4A79 FFFF 923C           tst.w      [0xFFFF923C]
000026BE  6600 00EC                bne        +0xEE /* 000027AC */
000026C2  42A7                     clr.l      -[A7]
000026C4  A975                     syscall    TickCount
000026C6  2E1F                     move.l     D7, [A7]+
000026C8  2007                     move.l     D0, D7
000026CA  90B9 FFFF B7CA           sub.l      D0, [0xFFFFB7CA]
000026D0  2D40 F2DE                move.l     [A6 - 0xD22], D0
000026D4  486E F2DE                pea.l      [A6 - 0xD22]
000026D8  486E F2E2                pea.l      [A6 - 0xD1E]
000026DC  3F3C 280E                move.w     -[A7], 0x280E
000026E0  A9EB                     syscall    Pack4/FP68K
000026E2  487A 00D4                pea.l      [PC + 0xD4 /* 000027B8, value 0x12C4E56 */]
000026E6  486E F2E2                pea.l      [A6 - 0xD1E]
000026EA  3F3C 2006                move.w     -[A7], 0x2006
000026EE  A9EB                     syscall    Pack4/FP68K
000026F0  41EE F2F8                lea.l      A0, [A6 - 0xD08]
000026F4  43EE F2EC                lea.l      A1, [A6 - 0xD14]
000026F8  2121                     move.l     -[A0], -[A1]
000026FA  2121                     move.l     -[A0], -[A1]
000026FC  3121                     move.w     -[A0], -[A1]
000026FE  3110                     move.w     -[A0], [A0]
00002700  487A 00B4                pea.l      [PC + 0xB4 /* 000027B6, value 0x64012C, cstring "" */]
00002704  486E F2E2                pea.l      [A6 - 0xD1E]
00002708  3F3C 200E                move.w     -[A7], 0x200E
0000270C  A9EB                     syscall    Pack4/FP68K
0000270E  486E F2EE                pea.l      [A6 - 0xD12]
00002712  486E F2E2                pea.l      [A6 - 0xD1E]
00002716  3F3C 0006                move.w     -[A7], 0x6
0000271A  A9EB                     syscall    Pack4/FP68K
0000271C  486E F2E2                pea.l      [A6 - 0xD1E]
00002720  3F3C 0016                move.w     -[A7], 0x16
00002724  A9EB                     syscall    Pack4/FP68K
00002726  486E F2E2                pea.l      [A6 - 0xD1E]
0000272A  486E F2E0                pea.l      [A6 - 0xD20]
0000272E  3F3C 2010                move.w     -[A7], 0x2010
00002732  A9EB                     syscall    Pack4/FP68K
00002734  3C2E F2E0                move.w     D6, [A6 - 0xD20]
00002738  2006                     move.l     D0, D6
0000273A  48C0                     ext.l      D0
0000273C  81FC 0064                divs.w     D0, 0x64 /* 'd' */
00002740  4840                     swap.w     D0
00002742  3F00                     move.w     -[A7], D0
00002744  487A 006E                pea.l      [PC + 0x6E /* 000027B4, value 0x10064, cstring "" */]
00002748  486E F2E2                pea.l      [A6 - 0xD1E]
0000274C  3F3C 200E                move.w     -[A7], 0x200E
00002750  A9EB                     syscall    Pack4/FP68K
00002752  486E F2EE                pea.l      [A6 - 0xD12]
00002756  486E F2E2                pea.l      [A6 - 0xD1E]
0000275A  3F3C 0006                move.w     -[A7], 0x6
0000275E  A9EB                     syscall    Pack4/FP68K
00002760  486E F2E2                pea.l      [A6 - 0xD1E]
00002764  3F3C 0016                move.w     -[A7], 0x16
00002768  A9EB                     syscall    Pack4/FP68K
0000276A  486E F2E2                pea.l      [A6 - 0xD1E]
0000276E  486E F2E0                pea.l      [A6 - 0xD20]
00002772  3F3C 2010                move.w     -[A7], 0x2010
00002776  A9EB                     syscall    Pack4/FP68K
00002778  3F2E F2E0                move.w     -[A7], [A6 - 0xD20]
0000277C  2F3C FFFF B964           move.l     -[A7], 0xFFFFB964
00002782  486E F301                pea.l      [A6 - 0xCFF]
00002786  4EAD 050A                jsr        [A5 + 0x50A /* export_157, CODE:7 @ 000020CA */]
0000278A  1D40 F300                move.b     [A6 - 0xD00], D0
0000278E  23C7 FFFF B7CA           move.l     [0xFFFFB7CA], D7
00002794  486E F2F8                pea.l      [A6 - 0xD08]
00002798  A8A3                     syscall    EraseRect
0000279A  2EBC 00D8 01CC           move.l     [A7], 0xD801CC
000027A0  A893                     syscall    MoveTo
000027A2  486E F300                pea.l      [A6 - 0xD00]
000027A6  A884                     syscall    DrawString
000027A8  A856                     syscall    ObscureCursor
000027AA  508F                     addq.l     A7, 8
label000027AC:
000027AC  4CDF 1CC0                movem.l    D6,D7,A2,A3,A4, [A7]+
000027B0  4E5E                     unlink     A6
000027B2  4E75                     rts
000027B4  0001 0064                ori.b      D1, 0x64 /* 'd' */
000027B8  012C 4E56                btst       [A4 + 0x4E56], D0
// begin alternate branch 000027BA-000027BE
export_41:
fn000027BA:
000027BA  4E56 FFF6                link       A6, -0x000A
// end alternate branch 000027BA-000027BE
export_41: // at 000027BA (misaligned)
fn000027BA: // (misaligned)
000027BC  FFF6                     .invalid   <<F/7/7>>
000027BE  48E7 0738                movem.l    -[A7], D5,D6,D7,A2,A3,A4
000027C2  303C 03C2                move.w     D0, 0x3C2
000027C6  C1F9 FFFF 9226           muls.w     D0, [0xFFFF9226]
000027CC  2040                     movea.l    A0, D0
000027CE  D1FC FFFF 9764           add.l      A0, 0xFFFF9764
000027D4  3F10                     move.w     -[A7], [A0]
000027D6  4EBA 2D4A                jsr        [PC + 0x2D4A /* 00005522 */]
000027DA  4257                     clr.w      [A7]
000027DC  303C 03C2                move.w     D0, 0x3C2
000027E0  C1F9 FFFF 9226           muls.w     D0, [0xFFFF9226]
000027E6  0680 FFFF 955E           addi.l     D0, 0xFFFF955E
000027EC  2F00                     move.l     -[A7], D0
000027EE  A997                     syscall    OpenResFile
000027F0  3E1F                     move.w     D7, [A7]+
000027F2  42A7                     clr.l      -[A7]
000027F4  2F3C 2140 2324           move.l     -[A7], 0x21402324 /* '!@#$' */
000027FA  3F3C 03E8                move.w     -[A7], 0x3E8
000027FE  A9A0                     syscall    GetResource
00002800  285F                     movea.l    A4, [A7]+
00002802  200C                     move.l     D0, A4
00002804  661E                     bne        +0x20 /* 00002824 */
00002806  303C 03C2                move.w     D0, 0x3C2
0000280A  C1F9 FFFF 9226           muls.w     D0, [0xFFFF9226]
00002810  0680 FFFF 9442           addi.l     D0, 0xFFFF9442
00002816  2640                     movea.l    A3, D0
00002818  422B 021C                clr.b      [A3 + 0x21C]
0000281C  177C 0001 0230           move.b     [A3 + 0x230], 0x1
00002822  6048                     bra        +0x4A /* 0000286C */
label00002824:
00002824  42A7                     clr.l      -[A7]
00002826  2F0C                     move.l     -[A7], A4
00002828  4EAD 03BA                jsr        [A5 + 0x3BA /* export_115, CODE:7 @ 0000272A */]
0000282C  2C1F                     move.l     D6, [A7]+
0000282E  303C 03C2                move.w     D0, 0x3C2
00002832  C1F9 FFFF 9226           muls.w     D0, [0xFFFF9226]
00002838  0680 FFFF 965E           addi.l     D0, 0xFFFF965E
0000283E  2440                     movea.l    A2, D0
00002840  303C 03C2                move.w     D0, 0x3C2
00002844  C1F9 FFFF 9226           muls.w     D0, [0xFFFF9226]
0000284A  0680 FFFF 9442           addi.l     D0, 0xFFFF9442
00002850  2640                     movea.l    A3, D0
00002852  1486                     move.b     [A2], D6
00002854  7A00                     moveq.l    D5, 0x00
00002856  600A                     bra        +0xC /* 00002862 */
label00002858:
00002858  2054                     movea.l    A0, [A4]
0000285A  15B0 5000 5001           move.b     [A2 + D5.w + 0x1], [A0 + D5.w]
00002860  5245                     addq.w     D5, 1
label00002862:
00002862  3045                     movea.w    A0, D5
00002864  BC88                     cmp.l      D6, A0
00002866  6EF0                     bgt        -0xE /* 00002858 */
00002868  422B 0230                clr.b      [A3 + 0x230]
label0000286C:
0000286C  3F07                     move.w     -[A7], D7
0000286E  A99A                     syscall    CloseResFile
00002870  4EBA 2CD8                jsr        [PC + 0x2CD8 /* 0000554A */]
00002874  3F39 FFFF 9226           move.w     -[A7], [0xFFFF9226]
0000287A  4EBA EA1C                jsr        [PC - 0x15E4 /* 00001298 */]
0000287E  4A40                     tst.w      D0
00002880  548F                     addq.l     A7, 2
00002882  6700 00B8                beq        +0xBA /* 0000293C */
00002886  303C 03C2                move.w     D0, 0x3C2
0000288A  C1F9 FFFF 9226           muls.w     D0, [0xFFFF9226]
00002890  2040                     movea.l    A0, D0
00002892  D1FC FFFF 978E           add.l      A0, 0xFFFF978E
00002898  4250                     clr.w      [A0]
0000289A  426E FFF6                clr.w      [A6 - 0xA]
0000289E  3D7C 012E FFF8           move.w     [A6 - 0x8], 0x12E
000028A4  3D7C 01F4 FFFC           move.w     [A6 - 0x4], 0x1F4
000028AA  3D7C 00CD FFFA           move.w     [A6 - 0x6], 0xCD
000028B0  486E FFF6                pea.l      [A6 - 0xA]
000028B4  A928                     syscall    InvalRect
000028B6  3D7C 00FC FFF6           move.w     [A6 - 0xA], 0xFC
000028BC  3D7C 012C FFFA           move.w     [A6 - 0x6], 0x12C
000028C2  486E FFF6                pea.l      [A6 - 0xA]
000028C6  A928                     syscall    InvalRect
000028C8  426E FFF6                clr.w      [A6 - 0xA]
000028CC  426E FFF8                clr.w      [A6 - 0x8]
000028D0  3D7C 012C FFFC           move.w     [A6 - 0x4], 0x12C
000028D6  486E FFF6                pea.l      [A6 - 0xA]
000028DA  A928                     syscall    InvalRect
000028DC  33F9 FFFF 9226 FFFF 9228 move.w     [0xFFFF9228], [0xFFFF9226]
000028E6  7A00                     moveq.l    D5, 0x00
000028E8  6024                     bra        +0x26 /* 0000290E */
label000028EA:
000028EA  3F05                     move.w     -[A7], D5
000028EC  4EBA 2BA6                jsr        [PC + 0x2BA6 /* 00005494 */]
000028F0  4A40                     tst.w      D0
000028F2  548F                     addq.l     A7, 2
000028F4  6716                     beq        +0x18 /* 0000290C */
000028F6  303C 03C2                move.w     D0, 0x3C2
000028FA  C1F9 FFFF 9228           muls.w     D0, [0xFFFF9228]
00002900  2040                     movea.l    A0, D0
00002902  D1FC FFFF 9672           add.l      A0, 0xFFFF9672
00002908  10BC 0001                move.b     [A0], 0x1
label0000290C:
0000290C  5245                     addq.w     D5, 1
label0000290E:
0000290E  BA79 FFFF 9226           cmp.w      D5, [0xFFFF9226]
00002914  6DD4                     blt        -0x2A /* 000028EA */
00002916  5279 FFFF 9226           addq.w     [0xFFFF9226], 1
0000291C  0C79 0001 FFFF 9226      cmpi.w     [0xFFFF9226], 0x1
00002924  6616                     bne        +0x18 /* 0000293C */
00002926  2F39 FFFF 9078           move.l     -[A7], [0xFFFF9078]
0000292C  4267                     clr.w      -[A7]
0000292E  A95D                     syscall    HiliteControl
00002930  2F39 FFFF 7D4A           move.l     -[A7], [0xFFFF7D4A]
00002936  3F3C 0005                move.w     -[A7], 0x5
0000293A  A939                     syscall    EnableItem
label0000293C:
0000293C  4CDF 1CE0                movem.l    D5,D6,D7,A2,A3,A4, [A7]+
00002940  4E5E                     unlink     A6
00002942  4E75                     rts
export_42:
00002944  4E56 FDCA                link       A6, -0x0236
00002948  48E7 0308                movem.l    -[A7], D6,D7,A4
0000294C  486E FFFE                pea.l      [A6 - 0x2]
00002950  486E FFFC                pea.l      [A6 - 0x4]
00002954  4EAD 0422                jsr        [A5 + 0x422 /* export_128, CODE:7 @ 000028F4 */]
00002958  7E01                     moveq.l    D7, 0x01
0000295A  6072                     bra        +0x74 /* 000029CE */
label0000295C:
0000295C  3F07                     move.w     -[A7], D7
0000295E  486E FEF4                pea.l      [A6 - 0x10C]
00002962  4EAD 042A                jsr        [A5 + 0x42A /* export_129, CODE:7 @ 00002918 */]
00002966  3F07                     move.w     -[A7], D7
00002968  4EAD 0432                jsr        [A5 + 0x432 /* export_130, CODE:7 @ 0000295E */]
0000296C  0CAE 526F 6257 FEF6      cmpi.l     [A6 - 0x10A], 0x526F6257 /* 'RobW' */
00002974  6656                     bne        +0x58 /* 000029CC */
00002976  303C 03C2                move.w     D0, 0x3C2
0000297A  C1F9 FFFF 9226           muls.w     D0, [0xFFFF9226]
00002980  2040                     movea.l    A0, D0
00002982  D1FC FFFF 9764           add.l      A0, 0xFFFF9764
00002988  30AE FEF4                move.w     [A0], [A6 - 0x10C]
0000298C  7C00                     moveq.l    D6, 0x00
0000298E  303C 03C2                move.w     D0, 0x3C2
00002992  C1F9 FFFF 9226           muls.w     D0, [0xFFFF9226]
00002998  0680 FFFF 955E           addi.l     D0, 0xFFFF955E
0000299E  2840                     movea.l    A4, D0
000029A0  600C                     bra        +0xE /* 000029AE */
label000029A2:
000029A2  204E                     movea.l    A0, A6
000029A4  D0C6                     add.w      A0, D6
000029A6  19A8 FEFC 6000           move.b     [A4 + D6.w], [A0 - 0x104]
000029AC  5246                     addq.w     D6, 1
label000029AE:
000029AE  7000                     moveq.l    D0, 0x00
000029B0  102E FEFC                move.b     D0, [A6 - 0x104]
000029B4  B046                     cmp.w      D0, D6
000029B6  6CEA                     bge        -0x14 /* 000029A2 */
000029B8  4EBA FE00                jsr        [PC - 0x200 /* 000027BA */]
000029BC  0C79 0006 FFFF 9226      cmpi.w     [0xFFFF9226], 0x6
000029C4  6606                     bne        +0x8 /* 000029CC */
000029C6  7E01                     moveq.l    D7, 0x01
000029C8  DE6E FFFC                add.w      D7, [A6 - 0x4]
label000029CC:
000029CC  5247                     addq.w     D7, 1
label000029CE:
000029CE  BE6E FFFC                cmp.w      D7, [A6 - 0x4]
000029D2  6F88                     ble        -0x76 /* 0000295C */
000029D4  4CDF 10C0                movem.l    D6,D7,A4, [A7]+
000029D8  4E5E                     unlink     A6
000029DA  4E75                     rts
export_43:
000029DC  4E56 FF98                link       A6, -0x0068
000029E0  48E7 0108                movem.l    -[A7], D7,A4
000029E4  3D7C 0064 FFA4           move.w     [A6 - 0x5C], 0x64 /* 'd' */
000029EA  3D7C 0064 FFA2           move.w     [A6 - 0x5E], 0x64 /* 'd' */
000029F0  2D7C 526F 6257 FFF0      move.l     [A6 - 0x10], 0x526F6257 /* 'RobW' */
000029F8  2F2E FFA2                move.l     -[A7], [A6 - 0x5E]
000029FC  2F3C FFFF B96A           move.l     -[A7], 0xFFFFB96A
00002A02  2F3C FFFF 9096           move.l     -[A7], 0xFFFF9096
00002A08  42A7                     clr.l      -[A7]
00002A0A  486E FFA6                pea.l      [A6 - 0x5A]
00002A0E  3F3C 0001                move.w     -[A7], 0x1
00002A12  A9EA                     syscall    Pack3
00002A14  4A2E FFA6                tst.b      [A6 - 0x5A]
00002A18  6700 01AC                beq        +0x1AE /* 00002BC6 */
00002A1C  303C 03C2                move.w     D0, 0x3C2
00002A20  C1F9 FFFF 9226           muls.w     D0, [0xFFFF9226]
00002A26  2040                     movea.l    A0, D0
00002A28  D1FC FFFF 9764           add.l      A0, 0xFFFF9764
00002A2E  30AE FFAC                move.w     [A0], [A6 - 0x54]
00002A32  7E00                     moveq.l    D7, 0x00
00002A34  303C 03C2                move.w     D0, 0x3C2
00002A38  C1F9 FFFF 9226           muls.w     D0, [0xFFFF9226]
00002A3E  0680 FFFF 955E           addi.l     D0, 0xFFFF955E
00002A44  2840                     movea.l    A4, D0
00002A46  6008                     bra        +0xA /* 00002A50 */
label00002A48:
00002A48  19B6 70B0 7000           move.b     [A4 + D7.w], [A6 + D7.w - 0x50]
00002A4E  5247                     addq.w     D7, 1
label00002A50:
00002A50  7000                     moveq.l    D0, 0x00
00002A52  102E FFB0                move.b     D0, [A6 - 0x50]
00002A56  B047                     cmp.w      D0, D7
00002A58  6CEE                     bge        -0x10 /* 00002A48 */
00002A5A  4267                     clr.w      -[A7]
00002A5C  303C 03C2                move.w     D0, 0x3C2
00002A60  C1F9 FFFF 9226           muls.w     D0, [0xFFFF9226]
00002A66  0680 FFFF 955E           addi.l     D0, 0xFFFF955E
00002A6C  2F00                     move.l     -[A7], D0
00002A6E  303C 03C2                move.w     D0, 0x3C2
00002A72  C1F9 FFFF 9226           muls.w     D0, [0xFFFF9226]
00002A78  2040                     movea.l    A0, D0
00002A7A  D1FC FFFF 9764           add.l      A0, 0xFFFF9764
00002A80  3F10                     move.w     -[A7], [A0]
00002A82  4EAD 040A                jsr        [A5 + 0x40A /* export_125, CODE:7 @ 0000288E */]
00002A86  4257                     clr.w      [A7]
00002A88  303C 03C2                move.w     D0, 0x3C2
00002A8C  C1F9 FFFF 9226           muls.w     D0, [0xFFFF9226]
00002A92  0680 FFFF 955E           addi.l     D0, 0xFFFF955E
00002A98  2F00                     move.l     -[A7], D0
00002A9A  303C 03C2                move.w     D0, 0x3C2
00002A9E  C1F9 FFFF 9226           muls.w     D0, [0xFFFF9226]
00002AA4  2040                     movea.l    A0, D0
00002AA6  D1FC FFFF 9764           add.l      A0, 0xFFFF9764
00002AAC  3F10                     move.w     -[A7], [A0]
00002AAE  2F3C 5257 4152           move.l     -[A7], 0x52574152 /* 'RWAR' */
00002AB4  2F3C 526F 6257           move.l     -[A7], 0x526F6257 /* 'RobW' */
00002ABA  4EAD 0402                jsr        [A5 + 0x402 /* export_124, CODE:7 @ 00002850 */]
00002ABE  4A5F                     tst.w      [A7]+
00002AC0  6712                     beq        +0x14 /* 00002AD4 */
00002AC2  2F3C FFFF B97A           move.l     -[A7], 0xFFFFB97A
00002AC8  2F3C FFFF B992           move.l     -[A7], 0xFFFFB992
00002ACE  4EBA 22FE                jsr        [PC + 0x22FE /* 00004DCE */]
00002AD2  508F                     addq.l     A7, 8
label00002AD4:
00002AD4  303C 03C2                move.w     D0, 0x3C2
00002AD8  C1F9 FFFF 9226           muls.w     D0, [0xFFFF9226]
00002ADE  2040                     movea.l    A0, D0
00002AE0  D1FC FFFF 9764           add.l      A0, 0xFFFF9764
00002AE6  3F10                     move.w     -[A7], [A0]
00002AE8  4EBA 2A38                jsr        [PC + 0x2A38 /* 00005522 */]
00002AEC  303C 03C2                move.w     D0, 0x3C2
00002AF0  C1F9 FFFF 9226           muls.w     D0, [0xFFFF9226]
00002AF6  0680 FFFF 955E           addi.l     D0, 0xFFFF955E
00002AFC  2F00                     move.l     -[A7], D0
00002AFE  A9B1                     syscall    CreateResFile
00002B00  4A78 0A60                tst.w      [0x00000A60 /* ResErr */]
00002B04  548F                     addq.l     A7, 2
00002B06  6706                     beq        +0x8 /* 00002B0E */
00002B08  3F3C 0001                move.w     -[A7], 0x1
00002B0C  A9C8                     syscall    SysBeep
label00002B0E:
00002B0E  4EBA 2A3A                jsr        [PC + 0x2A3A /* 0000554A */]
00002B12  303C 03C2                move.w     D0, 0x3C2
00002B16  C1F9 FFFF 9226           muls.w     D0, [0xFFFF9226]
00002B1C  0680 FFFF 9442           addi.l     D0, 0xFFFF9442
00002B22  2840                     movea.l    A4, D0
00002B24  422C 021C                clr.b      [A4 + 0x21C]
00002B28  197C 0001 0230           move.b     [A4 + 0x230], 0x1
00002B2E  3F39 FFFF 9226           move.w     -[A7], [0xFFFF9226]
00002B34  4EBA E762                jsr        [PC - 0x189E /* 00001298 */]
00002B38  4A40                     tst.w      D0
00002B3A  548F                     addq.l     A7, 2
00002B3C  6700 0088                beq        +0x8A /* 00002BC6 */
00002B40  303C 03C2                move.w     D0, 0x3C2
00002B44  C1F9 FFFF 9226           muls.w     D0, [0xFFFF9226]
00002B4A  2040                     movea.l    A0, D0
00002B4C  D1FC FFFF 978E           add.l      A0, 0xFFFF978E
00002B52  4250                     clr.w      [A0]
00002B54  426E FF98                clr.w      [A6 - 0x68]
00002B58  3D7C 012E FF9A           move.w     [A6 - 0x66], 0x12E
00002B5E  3D7C 01F4 FF9E           move.w     [A6 - 0x62], 0x1F4
00002B64  3D7C 00CD FF9C           move.w     [A6 - 0x64], 0xCD
00002B6A  486E FF98                pea.l      [A6 - 0x68]
00002B6E  A928                     syscall    InvalRect
00002B70  3D7C 00FC FF98           move.w     [A6 - 0x68], 0xFC
00002B76  3D7C 012C FF9C           move.w     [A6 - 0x64], 0x12C
00002B7C  486E FF98                pea.l      [A6 - 0x68]
00002B80  A928                     syscall    InvalRect
00002B82  426E FF98                clr.w      [A6 - 0x68]
00002B86  426E FF9A                clr.w      [A6 - 0x66]
00002B8A  3D7C 012C FF9E           move.w     [A6 - 0x62], 0x12C
00002B90  486E FF98                pea.l      [A6 - 0x68]
00002B94  A928                     syscall    InvalRect
00002B96  33F9 FFFF 9226 FFFF 9228 move.w     [0xFFFF9228], [0xFFFF9226]
00002BA0  5279 FFFF 9226           addq.w     [0xFFFF9226], 1
00002BA6  0C79 0001 FFFF 9226      cmpi.w     [0xFFFF9226], 0x1
00002BAE  6616                     bne        +0x18 /* 00002BC6 */
00002BB0  2F39 FFFF 9078           move.l     -[A7], [0xFFFF9078]
00002BB6  4267                     clr.w      -[A7]
00002BB8  A95D                     syscall    HiliteControl
00002BBA  2F39 FFFF 7D4A           move.l     -[A7], [0xFFFF7D4A]
00002BC0  3F3C 0005                move.w     -[A7], 0x5
00002BC4  A939                     syscall    EnableItem
label00002BC6:
00002BC6  4CDF 1080                movem.l    D7,A4, [A7]+
00002BCA  4E5E                     unlink     A6
00002BCC  4E75                     rts
export_44:
00002BCE  4E56 FF8E                link       A6, -0x0072
00002BD2  48E7 0108                movem.l    -[A7], D7,A4
00002BD6  3D7C 0064 FFA4           move.w     [A6 - 0x5C], 0x64 /* 'd' */
00002BDC  3D7C 0064 FFA2           move.w     [A6 - 0x5E], 0x64 /* 'd' */
00002BE2  2D7C 526F 6257 FFF0      move.l     [A6 - 0x10], 0x526F6257 /* 'RobW' */
00002BEA  2F2E FFA2                move.l     -[A7], [A6 - 0x5E]
00002BEE  2F3C FFFF B9A6           move.l     -[A7], 0xFFFFB9A6
00002BF4  42A7                     clr.l      -[A7]
00002BF6  3F3C 0001                move.w     -[A7], 0x1
00002BFA  486E FFF0                pea.l      [A6 - 0x10]
00002BFE  42A7                     clr.l      -[A7]
00002C00  486E FFA6                pea.l      [A6 - 0x5A]
00002C04  3F3C 0002                move.w     -[A7], 0x2
00002C08  A9EA                     syscall    Pack3
00002C0A  4A2E FFA6                tst.b      [A6 - 0x5A]
00002C0E  6742                     beq        +0x44 /* 00002C52 */
00002C10  303C 03C2                move.w     D0, 0x3C2
00002C14  C1F9 FFFF 9226           muls.w     D0, [0xFFFF9226]
00002C1A  2040                     movea.l    A0, D0
00002C1C  D1FC FFFF 9764           add.l      A0, 0xFFFF9764
00002C22  30AE FFAC                move.w     [A0], [A6 - 0x54]
00002C26  7E00                     moveq.l    D7, 0x00
00002C28  303C 03C2                move.w     D0, 0x3C2
00002C2C  C1F9 FFFF 9226           muls.w     D0, [0xFFFF9226]
00002C32  0680 FFFF 955E           addi.l     D0, 0xFFFF955E
00002C38  2840                     movea.l    A4, D0
00002C3A  6008                     bra        +0xA /* 00002C44 */
label00002C3C:
00002C3C  19B6 70B0 7000           move.b     [A4 + D7.w], [A6 + D7.w - 0x50]
00002C42  5247                     addq.w     D7, 1
label00002C44:
00002C44  7000                     moveq.l    D0, 0x00
00002C46  102E FFB0                move.b     D0, [A6 - 0x50]
00002C4A  B047                     cmp.w      D0, D7
00002C4C  6CEE                     bge        -0x10 /* 00002C3C */
00002C4E  4EBA FB6A                jsr        [PC - 0x496 /* 000027BA */]
label00002C52:
00002C52  4CDF 1080                movem.l    D7,A4, [A7]+
00002C56  4E5E                     unlink     A6
00002C58  4E75                     rts
export_45:
00002C5A  4E56 FFF6                link       A6, -0x000A
00002C5E  48E7 0738                movem.l    -[A7], D5,D6,D7,A2,A3,A4
00002C62  0C79 0006 FFFF 9226      cmpi.w     [0xFFFF9226], 0x6
00002C6A  6C00 0162                bge        +0x164 /* 00002DCE */
00002C6E  0C79 0006 FFFF 9228      cmpi.w     [0xFFFF9228], 0x6
00002C76  6700 0156                beq        +0x158 /* 00002DCE */
00002C7A  3C3C 03C2                move.w     D6, 0x3C2
00002C7E  CDF9 FFFF 9226           muls.w     D6, [0xFFFF9226]
00002C84  0686 FFFF 9442           addi.l     D6, 0xFFFF9442
00002C8A  3E3C 03C2                move.w     D7, 0x3C2
00002C8E  CFF9 FFFF 9228           muls.w     D7, [0xFFFF9228]
00002C94  0687 FFFF 9442           addi.l     D7, 0xFFFF9442
00002C9A  2047                     movea.l    A0, D7
00002C9C  2246                     movea.l    A1, D6
00002C9E  3368 0322 0322           move.w     [A1 + 0x322], [A0 + 0x322]
00002CA4  7A00                     moveq.l    D5, 0x00
00002CA6  303C 03C2                move.w     D0, 0x3C2
00002CAA  C1F9 FFFF 9228           muls.w     D0, [0xFFFF9228]
00002CB0  0680 FFFF 955E           addi.l     D0, 0xFFFF955E
00002CB6  2440                     movea.l    A2, D0
00002CB8  303C 03C2                move.w     D0, 0x3C2
00002CBC  C1F9 FFFF 9228           muls.w     D0, [0xFFFF9228]
00002CC2  0680 FFFF 955E           addi.l     D0, 0xFFFF955E
00002CC8  2640                     movea.l    A3, D0
00002CCA  303C 03C2                move.w     D0, 0x3C2
00002CCE  C1F9 FFFF 9226           muls.w     D0, [0xFFFF9226]
00002CD4  0680 FFFF 955E           addi.l     D0, 0xFFFF955E
00002CDA  2840                     movea.l    A4, D0
00002CDC  6008                     bra        +0xA /* 00002CE6 */
label00002CDE:
00002CDE  19B2 5000 5000           move.b     [A4 + D5.w], [A2 + D5.w]
00002CE4  5245                     addq.w     D5, 1
label00002CE6:
00002CE6  7000                     moveq.l    D0, 0x00
00002CE8  1013                     move.b     D0, [A3]
00002CEA  B045                     cmp.w      D0, D5
00002CEC  6CF0                     bge        -0xE /* 00002CDE */
00002CEE  7A00                     moveq.l    D5, 0x00
00002CF0  303C 03C2                move.w     D0, 0x3C2
00002CF4  C1F9 FFFF 9228           muls.w     D0, [0xFFFF9228]
00002CFA  0680 FFFF 965E           addi.l     D0, 0xFFFF965E
00002D00  2440                     movea.l    A2, D0
00002D02  303C 03C2                move.w     D0, 0x3C2
00002D06  C1F9 FFFF 9228           muls.w     D0, [0xFFFF9228]
00002D0C  0680 FFFF 965E           addi.l     D0, 0xFFFF965E
00002D12  2640                     movea.l    A3, D0
00002D14  303C 03C2                move.w     D0, 0x3C2
00002D18  C1F9 FFFF 9226           muls.w     D0, [0xFFFF9226]
00002D1E  0680 FFFF 965E           addi.l     D0, 0xFFFF965E
00002D24  2840                     movea.l    A4, D0
00002D26  6008                     bra        +0xA /* 00002D30 */
label00002D28:
00002D28  19B2 5000 5000           move.b     [A4 + D5.w], [A2 + D5.w]
00002D2E  5245                     addq.w     D5, 1
label00002D30:
00002D30  1013                     move.b     D0, [A3]
00002D32  4880                     ext.w      D0
00002D34  B045                     cmp.w      D0, D5
00002D36  6CF0                     bge        -0xE /* 00002D28 */
00002D38  2047                     movea.l    A0, D7
00002D3A  2246                     movea.l    A1, D6
00002D3C  1368 0230 0230           move.b     [A1 + 0x230], [A0 + 0x230]
00002D42  3F39 FFFF 9226           move.w     -[A7], [0xFFFF9226]
00002D48  4EBA E54E                jsr        [PC - 0x1AB2 /* 00001298 */]
00002D4C  4A40                     tst.w      D0
00002D4E  548F                     addq.l     A7, 2
00002D50  677C                     beq        +0x7E /* 00002DCE */
00002D52  303C 03C2                move.w     D0, 0x3C2
00002D56  C1F9 FFFF 9228           muls.w     D0, [0xFFFF9228]
00002D5C  2040                     movea.l    A0, D0
00002D5E  D1FC FFFF 978E           add.l      A0, 0xFFFF978E
00002D64  303C 03C2                move.w     D0, 0x3C2
00002D68  C1F9 FFFF 9226           muls.w     D0, [0xFFFF9226]
00002D6E  2240                     movea.l    A1, D0
00002D70  D3FC FFFF 978E           add.l      A1, 0xFFFF978E
00002D76  3290                     move.w     [A1], [A0]
00002D78  33F9 FFFF 9226 FFFF 9228 move.w     [0xFFFF9228], [0xFFFF9226]
00002D82  5279 FFFF 9226           addq.w     [0xFFFF9226], 1
00002D88  426E FFF6                clr.w      [A6 - 0xA]
00002D8C  3D7C 012E FFF8           move.w     [A6 - 0x8], 0x12E
00002D92  3D7C 01F4 FFFC           move.w     [A6 - 0x4], 0x1F4
00002D98  3D7C 00CD FFFA           move.w     [A6 - 0x6], 0xCD
00002D9E  486E FFF6                pea.l      [A6 - 0xA]
00002DA2  A928                     syscall    InvalRect
00002DA4  426E FFF8                clr.w      [A6 - 0x8]
00002DA8  3D7C 012C FFFC           move.w     [A6 - 0x4], 0x12C
00002DAE  3D7C 012C FFFA           move.w     [A6 - 0x6], 0x12C
00002DB4  486E FFF6                pea.l      [A6 - 0xA]
00002DB8  A928                     syscall    InvalRect
00002DBA  0C79 0001 FFFF 9226      cmpi.w     [0xFFFF9226], 0x1
00002DC2  660A                     bne        +0xC /* 00002DCE */
00002DC4  2F39 FFFF 9078           move.l     -[A7], [0xFFFF9078]
00002DCA  4267                     clr.w      -[A7]
00002DCC  A95D                     syscall    HiliteControl
label00002DCE:
00002DCE  4CDF 1CE0                movem.l    D5,D6,D7,A2,A3,A4, [A7]+
00002DD2  4E5E                     unlink     A6
00002DD4  4E75                     rts
export_46:
00002DD6  4E56 FC92                link       A6, -0x036E
00002DDA  48E7 1F08                movem.l    -[A7], D3,D4,D5,D6,D7,A4
00002DDE  3D7C 0064 FFA4           move.w     [A6 - 0x5C], 0x64 /* 'd' */
00002DE4  3D7C 0064 FFA2           move.w     [A6 - 0x5E], 0x64 /* 'd' */
00002DEA  2F2E FFA2                move.l     -[A7], [A6 - 0x5E]
00002DEE  2F3C FFFF B9B8           move.l     -[A7], 0xFFFFB9B8
00002DF4  2F3C FFFF 9096           move.l     -[A7], 0xFFFF9096
00002DFA  42A7                     clr.l      -[A7]
00002DFC  486E FFA6                pea.l      [A6 - 0x5A]
00002E00  3F3C 0001                move.w     -[A7], 0x1
00002E04  A9EA                     syscall    Pack3
00002E06  4A2E FFA6                tst.b      [A6 - 0x5A]
00002E0A  6700 0410                beq        +0x412 /* 0000321C */
00002E0E  7E00                     moveq.l    D7, 0x00
00002E10  303C 03C2                move.w     D0, 0x3C2
00002E14  C1F9 FFFF 9228           muls.w     D0, [0xFFFF9228]
00002E1A  2040                     movea.l    A0, D0
00002E1C  D1FC FFFF 9764           add.l      A0, 0xFFFF9764
00002E22  302E FFAC                move.w     D0, [A6 - 0x54]
00002E26  B050                     cmp.w      D0, [A0]
00002E28  6640                     bne        +0x42 /* 00002E6A */
00002E2A  7E01                     moveq.l    D7, 0x01
00002E2C  7C00                     moveq.l    D6, 0x00
00002E2E  303C 03C2                move.w     D0, 0x3C2
00002E32  C1F9 FFFF 9228           muls.w     D0, [0xFFFF9228]
00002E38  0680 FFFF 955E           addi.l     D0, 0xFFFF955E
00002E3E  2840                     movea.l    A4, D0
00002E40  303C 03C2                move.w     D0, 0x3C2
00002E44  C1F9 FFFF 9228           muls.w     D0, [0xFFFF9228]
00002E4A  2040                     movea.l    A0, D0
00002E4C  D1FC FFFF 955E           add.l      A0, 0xFFFF955E
00002E52  7A00                     moveq.l    D5, 0x00
00002E54  1A10                     move.b     D5, [A0]
00002E56  600E                     bra        +0x10 /* 00002E66 */
label00002E58:
00002E58  1034 6000                move.b     D0, [A4 + D6.w]
00002E5C  B036 60B0                cmp.b      D0, [A6 + D6.w - 0x50]
00002E60  6702                     beq        +0x4 /* 00002E64 */
00002E62  7E00                     moveq.l    D7, 0x00
label00002E64:
00002E64  5246                     addq.w     D6, 1
label00002E66:
00002E66  BA46                     cmp.w      D5, D6
00002E68  6CEE                     bge        -0x10 /* 00002E58 */
label00002E6A:
00002E6A  4A47                     tst.w      D7
00002E6C  6600 0160                bne        +0x162 /* 00002FCE */
00002E70  4267                     clr.w      -[A7]
00002E72  486E FFB0                pea.l      [A6 - 0x50]
00002E76  3F2E FFAC                move.w     -[A7], [A6 - 0x54]
00002E7A  4EAD 040A                jsr        [A5 + 0x40A /* export_125, CODE:7 @ 0000288E */]
00002E7E  4257                     clr.w      [A7]
00002E80  486E FFB0                pea.l      [A6 - 0x50]
00002E84  3F2E FFAC                move.w     -[A7], [A6 - 0x54]
00002E88  2F3C 5257 4152           move.l     -[A7], 0x52574152 /* 'RWAR' */
00002E8E  2F3C 526F 6257           move.l     -[A7], 0x526F6257 /* 'RobW' */
00002E94  4EAD 0402                jsr        [A5 + 0x402 /* export_124, CODE:7 @ 00002850 */]
00002E98  4A5F                     tst.w      [A7]+
00002E9A  6706                     beq        +0x8 /* 00002EA2 */
00002E9C  3F3C 0001                move.w     -[A7], 0x1
00002EA0  A9C8                     syscall    SysBeep
label00002EA2:
00002EA2  4267                     clr.w      -[A7]
00002EA4  303C 03C2                move.w     D0, 0x3C2
00002EA8  C1F9 FFFF 9228           muls.w     D0, [0xFFFF9228]
00002EAE  0680 FFFF 955E           addi.l     D0, 0xFFFF955E
00002EB4  2F00                     move.l     -[A7], D0
00002EB6  303C 03C2                move.w     D0, 0x3C2
00002EBA  C1F9 FFFF 9228           muls.w     D0, [0xFFFF9228]
00002EC0  2040                     movea.l    A0, D0
00002EC2  D1FC FFFF 9764           add.l      A0, 0xFFFF9764
00002EC8  3F10                     move.w     -[A7], [A0]
00002ECA  486E FF9E                pea.l      [A6 - 0x62]
00002ECE  4EAD 03CA                jsr        [A5 + 0x3CA /* export_117, CODE:7 @ 0000274C */]
00002ED2  4A5F                     tst.w      [A7]+
00002ED4  6702                     beq        +0x4 /* 00002ED8 */
00002ED6  7E01                     moveq.l    D7, 0x01
label00002ED8:
00002ED8  4267                     clr.w      -[A7]
00002EDA  486E FFB0                pea.l      [A6 - 0x50]
00002EDE  3F2E FFAC                move.w     -[A7], [A6 - 0x54]
00002EE2  486E FF9C                pea.l      [A6 - 0x64]
00002EE6  4EAD 03CA                jsr        [A5 + 0x3CA /* export_117, CODE:7 @ 0000274C */]
00002EEA  4A5F                     tst.w      [A7]+
00002EEC  6702                     beq        +0x4 /* 00002EF0 */
00002EEE  7E02                     moveq.l    D7, 0x02
label00002EF0:
00002EF0  0C47 0001                cmpi.w     D7, 0x1
00002EF4  6616                     bne        +0x18 /* 00002F0C */
00002EF6  2F3C FFFF B9C8           move.l     -[A7], 0xFFFFB9C8
00002EFC  2F3C FFFF B9E6           move.l     -[A7], 0xFFFFB9E6
00002F02  4EBA 1ECA                jsr        [PC + 0x1ECA /* 00004DCE */]
00002F06  508F                     addq.l     A7, 8
00002F08  6000 009C                bra        +0x9E /* 00002FA6 */
label00002F0C:
00002F0C  0C47 0002                cmpi.w     D7, 0x2
00002F10  6616                     bne        +0x18 /* 00002F28 */
00002F12  2F3C FFFF B9FA           move.l     -[A7], 0xFFFFB9FA
00002F18  2F3C FFFF BA14           move.l     -[A7], 0xFFFFBA14
00002F1E  4EBA 1EAE                jsr        [PC + 0x1EAE /* 00004DCE */]
00002F22  508F                     addq.l     A7, 8
00002F24  6000 0080                bra        +0x82 /* 00002FA6 */
label00002F28:
00002F28  4267                     clr.w      -[A7]
00002F2A  3F2E FF9E                move.w     -[A7], [A6 - 0x62]
00002F2E  486E FD98                pea.l      [A6 - 0x268]
00002F32  4EAD 0412                jsr        [A5 + 0x412 /* export_126, CODE:7 @ 000028B2 */]
00002F36  4A5F                     tst.w      [A7]+
00002F38  6706                     beq        +0x8 /* 00002F40 */
00002F3A  3F3C 0001                move.w     -[A7], 0x1
00002F3E  A9C8                     syscall    SysBeep
label00002F40:
00002F40  202E FD98                move.l     D0, [A6 - 0x268]
00002F44  A11E                     syscall    NewPtr, flags=1
00002F46  2848                     movea.l    A4, A0
00002F48  4A78 0220                tst.w      [0x00000220 /* MemErr */]
00002F4C  6708                     beq        +0xA /* 00002F56 */
00002F4E  3F3C 0001                move.w     -[A7], 0x1
00002F52  A9C8                     syscall    SysBeep
00002F54  6040                     bra        +0x42 /* 00002F96 */
label00002F56:
00002F56  4267                     clr.w      -[A7]
00002F58  3F2E FF9E                move.w     -[A7], [A6 - 0x62]
00002F5C  486E FD98                pea.l      [A6 - 0x268]
00002F60  2F0C                     move.l     -[A7], A4
00002F62  4EAD 03DA                jsr        [A5 + 0x3DA /* export_119, CODE:7 @ 000027A6 */]
00002F66  4A5F                     tst.w      [A7]+
00002F68  6706                     beq        +0x8 /* 00002F70 */
00002F6A  3F3C 0001                move.w     -[A7], 0x1
00002F6E  A9C8                     syscall    SysBeep
label00002F70:
00002F70  4267                     clr.w      -[A7]
00002F72  3F2E FF9C                move.w     -[A7], [A6 - 0x64]
00002F76  486E FD98                pea.l      [A6 - 0x268]
00002F7A  2F0C                     move.l     -[A7], A4
00002F7C  4EAD 03E2                jsr        [A5 + 0x3E2 /* export_120, CODE:7 @ 000027AA */]
00002F80  4A5F                     tst.w      [A7]+
00002F82  6712                     beq        +0x14 /* 00002F96 */
00002F84  2F3C FFFF BA28           move.l     -[A7], 0xFFFFBA28
00002F8A  2F3C FFFF BA42           move.l     -[A7], 0xFFFFBA42
00002F90  4EBA 1E3C                jsr        [PC + 0x1E3C /* 00004DCE */]
00002F94  508F                     addq.l     A7, 8
label00002F96:
00002F96  204C                     movea.l    A0, A4
00002F98  A01F                     syscall    DisposPtr/DisposePtr
00002F9A  4A78 0220                tst.w      [0x00000220 /* MemErr */]
00002F9E  6706                     beq        +0x8 /* 00002FA6 */
00002FA0  3F3C 0001                move.w     -[A7], 0x1
00002FA4  A9C8                     syscall    SysBeep
label00002FA6:
00002FA6  4267                     clr.w      -[A7]
00002FA8  3F2E FF9E                move.w     -[A7], [A6 - 0x62]
00002FAC  4EAD 03D2                jsr        [A5 + 0x3D2 /* export_118, CODE:7 @ 0000278C */]
00002FB0  4A5F                     tst.w      [A7]+
00002FB2  6706                     beq        +0x8 /* 00002FBA */
00002FB4  3F3C 0001                move.w     -[A7], 0x1
00002FB8  A9C8                     syscall    SysBeep
label00002FBA:
00002FBA  4267                     clr.w      -[A7]
00002FBC  3F2E FF9C                move.w     -[A7], [A6 - 0x64]
00002FC0  4EAD 03D2                jsr        [A5 + 0x3D2 /* export_118, CODE:7 @ 0000278C */]
00002FC4  4A5F                     tst.w      [A7]+
00002FC6  6706                     beq        +0x8 /* 00002FCE */
00002FC8  3F3C 0001                move.w     -[A7], 0x1
00002FCC  A9C8                     syscall    SysBeep
label00002FCE:
00002FCE  4A47                     tst.w      D7
00002FD0  6600 01EE                bne        +0x1F0 /* 000031C0 */
00002FD4  4267                     clr.w      -[A7]
00002FD6  486E FC92                pea.l      [A6 - 0x36E]
00002FDA  486E FD92                pea.l      [A6 - 0x26E]
00002FDE  4EAD 03EA                jsr        [A5 + 0x3EA /* export_121, CODE:7 @ 000027EE */]
00002FE2  4257                     clr.w      [A7]
00002FE4  2F3C FFFF 9096           move.l     -[A7], 0xFFFF9096
00002FEA  3F2E FFAC                move.w     -[A7], [A6 - 0x54]
00002FEE  4EAD 03F2                jsr        [A5 + 0x3F2 /* export_122, CODE:7 @ 00002810 */]
00002FF2  486E FFB0                pea.l      [A6 - 0x50]
00002FF6  A9B1                     syscall    CreateResFile
00002FF8  4257                     clr.w      [A7]
00002FFA  486E FFB0                pea.l      [A6 - 0x50]
00002FFE  A997                     syscall    OpenResFile
00003000  3D5F FF9C                move.w     [A6 - 0x64], [A7]+
00003004  4A78 0A60                tst.w      [0x00000A60 /* ResErr */]
00003008  6702                     beq        +0x4 /* 0000300C */
0000300A  7E02                     moveq.l    D7, 0x02
label0000300C:
0000300C  4267                     clr.w      -[A7]
0000300E  2F3C FFFF 9096           move.l     -[A7], 0xFFFF9096
00003014  303C 03C2                move.w     D0, 0x3C2
00003018  C1F9 FFFF 9228           muls.w     D0, [0xFFFF9228]
0000301E  2040                     movea.l    A0, D0
00003020  D1FC FFFF 9764           add.l      A0, 0xFFFF9764
00003026  3F10                     move.w     -[A7], [A0]
00003028  4EAD 03F2                jsr        [A5 + 0x3F2 /* export_122, CODE:7 @ 00002810 */]
0000302C  4257                     clr.w      [A7]
0000302E  303C 03C2                move.w     D0, 0x3C2
00003032  C1F9 FFFF 9228           muls.w     D0, [0xFFFF9228]
00003038  0680 FFFF 955E           addi.l     D0, 0xFFFF955E
0000303E  2F00                     move.l     -[A7], D0
00003040  A997                     syscall    OpenResFile
00003042  3D5F FF9E                move.w     [A6 - 0x62], [A7]+
00003046  4A78 0A60                tst.w      [0x00000A60 /* ResErr */]
0000304A  6702                     beq        +0x4 /* 0000304E */
0000304C  7E01                     moveq.l    D7, 0x01
label0000304E:
0000304E  0C47 0001                cmpi.w     D7, 0x1
00003052  6616                     bne        +0x18 /* 0000306A */
00003054  2F3C FFFF BA56           move.l     -[A7], 0xFFFFBA56
0000305A  2F3C FFFF BA74           move.l     -[A7], 0xFFFFBA74
00003060  4EBA 1D6C                jsr        [PC + 0x1D6C /* 00004DCE */]
00003064  508F                     addq.l     A7, 8
00003066  6000 0122                bra        +0x124 /* 0000318A */
label0000306A:
0000306A  0C47 0002                cmpi.w     D7, 0x2
0000306E  6616                     bne        +0x18 /* 00003086 */
00003070  2F3C FFFF BA84           move.l     -[A7], 0xFFFFBA84
00003076  2F3C FFFF BA9E           move.l     -[A7], 0xFFFFBA9E
0000307C  4EBA 1D50                jsr        [PC + 0x1D50 /* 00004DCE */]
00003080  508F                     addq.l     A7, 8
00003082  6000 0106                bra        +0x108 /* 0000318A */
label00003086:
00003086  3F2E FF9E                move.w     -[A7], [A6 - 0x62]
0000308A  A998                     syscall    UseResFile
0000308C  4A78 0A60                tst.w      [0x00000A60 /* ResErr */]
00003090  6706                     beq        +0x8 /* 00003098 */
00003092  3F3C 0001                move.w     -[A7], 0x1
00003096  A9C8                     syscall    SysBeep
label00003098:
00003098  4267                     clr.w      -[A7]
0000309A  A81C                     syscall    Count1Types
0000309C  3A1F                     move.w     D5, [A7]+
0000309E  4A78 0A60                tst.w      [0x00000A60 /* ResErr */]
000030A2  6706                     beq        +0x8 /* 000030AA */
000030A4  3F3C 0001                move.w     -[A7], 0x1
000030A8  A9C8                     syscall    SysBeep
label000030AA:
000030AA  7C01                     moveq.l    D6, 0x01
000030AC  6000 00D6                bra        +0xD8 /* 00003184 */
label000030B0:
000030B0  486E FD94                pea.l      [A6 - 0x26C]
000030B4  3F06                     move.w     -[A7], D6
000030B6  A80F                     syscall    Get1IndType/Get1IxType
000030B8  4A78 0A60                tst.w      [0x00000A60 /* ResErr */]
000030BC  6706                     beq        +0x8 /* 000030C4 */
000030BE  3F3C 0001                move.w     -[A7], 0x1
000030C2  A9C8                     syscall    SysBeep
label000030C4:
000030C4  4267                     clr.w      -[A7]
000030C6  2F2E FD94                move.l     -[A7], [A6 - 0x26C]
000030CA  A80D                     syscall    Count1Resources
000030CC  381F                     move.w     D4, [A7]+
000030CE  4A78 0A60                tst.w      [0x00000A60 /* ResErr */]
000030D2  6706                     beq        +0x8 /* 000030DA */
000030D4  3F3C 0001                move.w     -[A7], 0x1
000030D8  A9C8                     syscall    SysBeep
label000030DA:
000030DA  7601                     moveq.l    D3, 0x01
000030DC  6000 009E                bra        +0xA0 /* 0000317C */
label000030E0:
000030E0  42A7                     clr.l      -[A7]
000030E2  2F2E FD94                move.l     -[A7], [A6 - 0x26C]
000030E6  3F03                     move.w     -[A7], D3
000030E8  A80E                     syscall    Get1IndResource/Get1IxResource
000030EA  285F                     movea.l    A4, [A7]+
000030EC  4A78 0A60                tst.w      [0x00000A60 /* ResErr */]
000030F0  6706                     beq        +0x8 /* 000030F8 */
000030F2  3F3C 0001                move.w     -[A7], 0x1
000030F6  A9C8                     syscall    SysBeep
label000030F8:
000030F8  2F0C                     move.l     -[A7], A4
000030FA  486E FFA0                pea.l      [A6 - 0x60]
000030FE  486E FD94                pea.l      [A6 - 0x26C]
00003102  486E FE9C                pea.l      [A6 - 0x164]
00003106  A9A8                     syscall    GetResInfo
00003108  4A78 0A60                tst.w      [0x00000A60 /* ResErr */]
0000310C  6706                     beq        +0x8 /* 00003114 */
0000310E  3F3C 0001                move.w     -[A7], 0x1
00003112  A9C8                     syscall    SysBeep
label00003114:
00003114  2F0C                     move.l     -[A7], A4
00003116  A992                     syscall    DetachResource
00003118  4A78 0A60                tst.w      [0x00000A60 /* ResErr */]
0000311C  6706                     beq        +0x8 /* 00003124 */
0000311E  3F3C 0001                move.w     -[A7], 0x1
00003122  A9C8                     syscall    SysBeep
label00003124:
00003124  3F2E FF9C                move.w     -[A7], [A6 - 0x64]
00003128  A998                     syscall    UseResFile
0000312A  4A78 0A60                tst.w      [0x00000A60 /* ResErr */]
0000312E  6706                     beq        +0x8 /* 00003136 */
00003130  3F3C 0001                move.w     -[A7], 0x1
00003134  A9C8                     syscall    SysBeep
label00003136:
00003136  2F0C                     move.l     -[A7], A4
00003138  2F2E FD94                move.l     -[A7], [A6 - 0x26C]
0000313C  3F2E FFA0                move.w     -[A7], [A6 - 0x60]
00003140  486E FE9C                pea.l      [A6 - 0x164]
00003144  A9AB                     syscall    AddResource
00003146  4A78 0A60                tst.w      [0x00000A60 /* ResErr */]
0000314A  6706                     beq        +0x8 /* 00003152 */
0000314C  3F3C 0001                move.w     -[A7], 0x1
00003150  A9C8                     syscall    SysBeep
label00003152:
00003152  3F2E FF9C                move.w     -[A7], [A6 - 0x64]
00003156  A999                     syscall    UpdateResFile
00003158  4A78 0A60                tst.w      [0x00000A60 /* ResErr */]
0000315C  6706                     beq        +0x8 /* 00003164 */
0000315E  3F3C 0001                move.w     -[A7], 0x1
00003162  A9C8                     syscall    SysBeep
label00003164:
00003164  2F0C                     move.l     -[A7], A4
00003166  A9A3                     syscall    ReleaseResource
00003168  4A78 0A60                tst.w      [0x00000A60 /* ResErr */]
0000316C  6706                     beq        +0x8 /* 00003174 */
0000316E  3F3C 0001                move.w     -[A7], 0x1
00003172  A9C8                     syscall    SysBeep
label00003174:
00003174  3F2E FF9E                move.w     -[A7], [A6 - 0x62]
00003178  A998                     syscall    UseResFile
0000317A  5243                     addq.w     D3, 1
label0000317C:
0000317C  B843                     cmp.w      D4, D3
0000317E  6C00 FF60                bge        -0x9E /* 000030E0 */
00003182  5246                     addq.w     D6, 1
label00003184:
00003184  BA46                     cmp.w      D5, D6
00003186  6C00 FF28                bge        -0xD6 /* 000030B0 */
label0000318A:
0000318A  3F2E FF9E                move.w     -[A7], [A6 - 0x62]
0000318E  A99A                     syscall    CloseResFile
00003190  4A78 0A60                tst.w      [0x00000A60 /* ResErr */]
00003194  6706                     beq        +0x8 /* 0000319C */
00003196  3F3C 0001                move.w     -[A7], 0x1
0000319A  A9C8                     syscall    SysBeep
label0000319C:
0000319C  3F2E FF9C                move.w     -[A7], [A6 - 0x64]
000031A0  A99A                     syscall    CloseResFile
000031A2  4A78 0A60                tst.w      [0x00000A60 /* ResErr */]
000031A6  6706                     beq        +0x8 /* 000031AE */
000031A8  3F3C 0001                move.w     -[A7], 0x1
000031AC  A9C8                     syscall    SysBeep
label000031AE:
000031AE  4267                     clr.w      -[A7]
000031B0  2F3C FFFF 9096           move.l     -[A7], 0xFFFF9096
000031B6  3F2E FD92                move.w     -[A7], [A6 - 0x26E]
000031BA  4EAD 03F2                jsr        [A5 + 0x3F2 /* export_122, CODE:7 @ 00002810 */]
000031BE  548F                     addq.l     A7, 2
label000031C0:
000031C0  4A47                     tst.w      D7
000031C2  6658                     bne        +0x5A /* 0000321C */
000031C4  4267                     clr.w      -[A7]
000031C6  42A7                     clr.l      -[A7]
000031C8  3F2E FFAC                move.w     -[A7], [A6 - 0x54]
000031CC  4EAD 03FA                jsr        [A5 + 0x3FA /* export_123, CODE:7 @ 00002830 */]
000031D0  7C00                     moveq.l    D6, 0x00
000031D2  548F                     addq.l     A7, 2
000031D4  601A                     bra        +0x1C /* 000031F0 */
label000031D6:
000031D6  303C 03C2                move.w     D0, 0x3C2
000031DA  C1F9 FFFF 9228           muls.w     D0, [0xFFFF9228]
000031E0  0680 FFFF 955E           addi.l     D0, 0xFFFF955E
000031E6  3046                     movea.w    A0, D6
000031E8  11B6 60B0 0800           move.b     [A0 + D0], [A6 + D6.w - 0x50]
000031EE  5246                     addq.w     D6, 1
label000031F0:
000031F0  7000                     moveq.l    D0, 0x00
000031F2  102E FFB0                move.b     D0, [A6 - 0x50]
000031F6  B046                     cmp.w      D0, D6
000031F8  6CDC                     bge        -0x22 /* 000031D6 */
000031FA  303C 03C2                move.w     D0, 0x3C2
000031FE  C1F9 FFFF 9228           muls.w     D0, [0xFFFF9228]
00003204  2040                     movea.l    A0, D0
00003206  D1FC FFFF 9764           add.l      A0, 0xFFFF9764
0000320C  30AE FFAC                move.w     [A0], [A6 - 0x54]
00003210  2079 FFFF 7D56           movea.l    A0, [0xFFFF7D56]
00003216  4868 0010                pea.l      [A0 + 0x10]
0000321A  A928                     syscall    InvalRect
label0000321C:
0000321C  4CDF 10F8                movem.l    D3,D4,D5,D6,D7,A4, [A7]+
00003220  4E5E                     unlink     A6
00003222  4E75                     rts
export_47:
00003224  4E56 FFF6                link       A6, -0x000A
00003228  48E7 0108                movem.l    -[A7], D7,A4
0000322C  4A79 FFFF 9226           tst.w      [0xFFFF9226]
00003232  6700 0192                beq        +0x194 /* 000033C6 */
00003236  0C79 0006 FFFF 9228      cmpi.w     [0xFFFF9228], 0x6
0000323E  6700 0186                beq        +0x188 /* 000033C6 */
00003242  5379 FFFF 9226           subq.w     [0xFFFF9226], 1
00003248  7E00                     moveq.l    D7, 0x00
0000324A  99CC                     sub.l      A4, A4
0000324C  603C                     bra        +0x3E /* 0000328A */
label0000324E:
0000324E  303C 03C2                move.w     D0, 0x3C2
00003252  C1F9 FFFF 9228           muls.w     D0, [0xFFFF9228]
00003258  0680 FFFF 9766           addi.l     D0, 0xFFFF9766
0000325E  4AB4 0800                tst.l      [A4 + D0]
00003262  6722                     beq        +0x24 /* 00003286 */
00003264  303C 03C2                move.w     D0, 0x3C2
00003268  C1F9 FFFF 9228           muls.w     D0, [0xFFFF9228]
0000326E  0680 FFFF 9766           addi.l     D0, 0xFFFF9766
00003274  2074 0800                movea.l    A0, [A4 + D0]
00003278  A01F                     syscall    DisposPtr/DisposePtr
0000327A  4A78 0220                tst.w      [0x00000220 /* MemErr */]
0000327E  6706                     beq        +0x8 /* 00003286 */
00003280  3F3C 0001                move.w     -[A7], 0x1
00003284  A9C8                     syscall    SysBeep
label00003286:
00003286  5247                     addq.w     D7, 1
00003288  588C                     addq.l     A4, 4
label0000328A:
0000328A  0C47 000A                cmpi.w     D7, 0xA /* '\n' */
0000328E  6DBE                     blt        -0x40 /* 0000324E */
00003290  303C 03C2                move.w     D0, 0x3C2
00003294  C1F9 FFFF 9228           muls.w     D0, [0xFFFF9228]
0000329A  2040                     movea.l    A0, D0
0000329C  D1FC FFFF 9674           add.l      A0, 0xFFFF9674
000032A2  2050                     movea.l    A0, [A0]
000032A4  A01F                     syscall    DisposPtr/DisposePtr
000032A6  4A78 0220                tst.w      [0x00000220 /* MemErr */]
000032AA  6706                     beq        +0x8 /* 000032B2 */
000032AC  3F3C 0001                move.w     -[A7], 0x1
000032B0  A9C8                     syscall    SysBeep
label000032B2:
000032B2  3039 FFFF 923A           move.w     D0, [0xFFFF923A]
000032B8  B079 FFFF 9228           cmp.w      D0, [0xFFFF9228]
000032BE  6616                     bne        +0x18 /* 000032D6 */
000032C0  33FC 0006 FFFF 923A      move.w     [0xFFFF923A], 0x6
000032C8  2F39 FFFF 7D4A           move.l     -[A7], [0xFFFF7D4A]
000032CE  4878 0005                push.l     0x5
000032D2  A945                     syscall    CheckItem
000032D4  601E                     bra        +0x20 /* 000032F4 */
label000032D6:
000032D6  0C79 0006 FFFF 923A      cmpi.w     [0xFFFF923A], 0x6
000032DE  6714                     beq        +0x16 /* 000032F4 */
000032E0  3039 FFFF 923A           move.w     D0, [0xFFFF923A]
000032E6  B079 FFFF 9228           cmp.w      D0, [0xFFFF9228]
000032EC  6F06                     ble        +0x8 /* 000032F4 */
000032EE  5379 FFFF 923A           subq.w     [0xFFFF923A], 1
label000032F4:
000032F4  3E39 FFFF 9228           move.w     D7, [0xFFFF9228]
000032FA  303C 03C2                move.w     D0, 0x3C2
000032FE  C1C7                     muls.w     D0, D7
00003300  0680 FFFF 9442           addi.l     D0, 0xFFFF9442
00003306  2840                     movea.l    A4, D0
00003308  6026                     bra        +0x28 /* 00003330 */
label0000330A:
0000330A  7001                     moveq.l    D0, 0x01
0000330C  D047                     add.w      D0, D7
0000330E  C1FC 03C2                muls.w     D0, 0x3C2
00003312  2040                     movea.l    A0, D0
00003314  D1FC FFFF 9442           add.l      A0, 0xFFFF9442
0000331A  43D4                     lea.l      A1, [A4]
0000331C  303C 00EF                move.w     D0, 0xEF
label00003320:
00003320  22D8                     move.l     [A1]+, [A0]+
00003322  51C8 FFFC                dbf        D0, -0x6 /* 00003320 */
00003326  32D8                     move.w     [A1]+, [A0]+
00003328  3887                     move.w     [A4], D7
0000332A  5247                     addq.w     D7, 1
0000332C  49EC 03C2                lea.l      A4, [A4 + 0x3C2]
label00003330:
00003330  BE79 FFFF 9226           cmp.w      D7, [0xFFFF9226]
00003336  6DD2                     blt        -0x2C /* 0000330A */
00003338  3039 FFFF 9228           move.w     D0, [0xFFFF9228]
0000333E  B079 FFFF 9226           cmp.w      D0, [0xFFFF9226]
00003344  6618                     bne        +0x1A /* 0000335E */
00003346  4A79 FFFF 9226           tst.w      [0xFFFF9226]
0000334C  660A                     bne        +0xC /* 00003358 */
0000334E  33FC 0006 FFFF 9228      move.w     [0xFFFF9228], 0x6
00003356  6006                     bra        +0x8 /* 0000335E */
label00003358:
00003358  4279 FFFF 9228           clr.w      [0xFFFF9228]
label0000335E:
0000335E  426E FFF6                clr.w      [A6 - 0xA]
00003362  3D7C 012E FFF8           move.w     [A6 - 0x8], 0x12E
00003368  3D7C 01F4 FFFC           move.w     [A6 - 0x4], 0x1F4
0000336E  3D7C 00CD FFFA           move.w     [A6 - 0x6], 0xCD
00003374  486E FFF6                pea.l      [A6 - 0xA]
00003378  A928                     syscall    InvalRect
0000337A  3D7C 00FC FFF6           move.w     [A6 - 0xA], 0xFC
00003380  3D7C 012C FFFA           move.w     [A6 - 0x6], 0x12C
00003386  486E FFF6                pea.l      [A6 - 0xA]
0000338A  A928                     syscall    InvalRect
0000338C  426E FFF8                clr.w      [A6 - 0x8]
00003390  3D7C 012C FFFC           move.w     [A6 - 0x4], 0x12C
00003396  3D7C 012C FFFA           move.w     [A6 - 0x6], 0x12C
0000339C  426E FFF6                clr.w      [A6 - 0xA]
000033A0  486E FFF6                pea.l      [A6 - 0xA]
000033A4  A928                     syscall    InvalRect
000033A6  4A79 FFFF 9226           tst.w      [0xFFFF9226]
000033AC  6618                     bne        +0x1A /* 000033C6 */
000033AE  2F39 FFFF 9078           move.l     -[A7], [0xFFFF9078]
000033B4  3F3C 00FF                move.w     -[A7], 0xFF
000033B8  A95D                     syscall    HiliteControl
000033BA  2F39 FFFF 7D4A           move.l     -[A7], [0xFFFF7D4A]
000033C0  3F3C 0005                move.w     -[A7], 0x5
000033C4  A93A                     syscall    DisableItem
label000033C6:
000033C6  4CDF 1080                movem.l    D7,A4, [A7]+
000033CA  4E5E                     unlink     A6
000033CC  4E75                     rts
export_48:
000033CE  2F3C C800 0000           move.l     -[A7], 0xC8000000
000033D4  A8FD                     syscall    PrGlue
000033D6  4267                     clr.w      -[A7]
000033D8  2F3C BA00 0000           move.l     -[A7], 0xBA000000
000033DE  A8FD                     syscall    PrGlue
000033E0  4A5F                     tst.w      [A7]+
000033E2  6600 008C                bne        +0x8E /* 00003470 */
000033E6  4AB9 FFFF 907C           tst.l      [0xFFFF907C]
000033EC  6650                     bne        +0x52 /* 0000343E */
000033EE  7078                     moveq.l    D0, 0x78
000033F0  A122                     syscall    NewHandle, flags=1
000033F2  23C8 FFFF 907C           move.l     [0xFFFF907C], A0
000033F8  4A78 0220                tst.w      [0x00000220 /* MemErr */]
000033FC  6712                     beq        +0x14 /* 00003410 */
000033FE  2F3C FFFF BAAE           move.l     -[A7], 0xFFFFBAAE
00003404  2F3C FFFF BAB0           move.l     -[A7], 0xFFFFBAB0
0000340A  4EBA 19C2                jsr        [PC + 0x19C2 /* 00004DCE */]
0000340E  508F                     addq.l     A7, 8
label00003410:
00003410  2F39 FFFF 907C           move.l     -[A7], [0xFFFF907C]
00003416  2F3C 2004 0480           move.l     -[A7], 0x20040480
0000341C  A8FD                     syscall    PrGlue
0000341E  4267                     clr.w      -[A7]
00003420  2F3C BA00 0000           move.l     -[A7], 0xBA000000
00003426  A8FD                     syscall    PrGlue
00003428  4A5F                     tst.w      [A7]+
0000342A  6712                     beq        +0x14 /* 0000343E */
0000342C  2F3C FFFF BABE           move.l     -[A7], 0xFFFFBABE
00003432  2F3C FFFF BADE           move.l     -[A7], 0xFFFFBADE
00003438  4EBA 1994                jsr        [PC + 0x1994 /* 00004DCE */]
0000343C  508F                     addq.l     A7, 8
label0000343E:
0000343E  4227                     clr.b      -[A7]
00003440  2F39 FFFF 907C           move.l     -[A7], [0xFFFF907C]
00003446  2F3C 2A04 0484           move.l     -[A7], 0x2A040484
0000344C  A8FD                     syscall    PrGlue
0000344E  4257                     clr.w      [A7]
00003450  2F3C BA00 0000           move.l     -[A7], 0xBA000000
00003456  A8FD                     syscall    PrGlue
00003458  4A5F                     tst.w      [A7]+
0000345A  6726                     beq        +0x28 /* 00003482 */
0000345C  2F3C FFFF BAE4           move.l     -[A7], 0xFFFFBAE4
00003462  2F3C FFFF BAF6           move.l     -[A7], 0xFFFFBAF6
00003468  4EBA 1964                jsr        [PC + 0x1964 /* 00004DCE */]
0000346C  508F                     addq.l     A7, 8
0000346E  6012                     bra        +0x14 /* 00003482 */
label00003470:
00003470  2F3C FFFF BAFC           move.l     -[A7], 0xFFFFBAFC
00003476  2F3C FFFF BB16           move.l     -[A7], 0xFFFFBB16
0000347C  4EBA 1950                jsr        [PC + 0x1950 /* 00004DCE */]
00003480  508F                     addq.l     A7, 8
label00003482:
00003482  2F3C D000 0000           move.l     -[A7], 0xD0000000
00003488  A8FD                     syscall    PrGlue
0000348A  4267                     clr.w      -[A7]
0000348C  2F3C BA00 0000           move.l     -[A7], 0xBA000000
00003492  A8FD                     syscall    PrGlue
00003494  4A5F                     tst.w      [A7]+
00003496  6712                     beq        +0x14 /* 000034AA */
00003498  2F3C FFFF BB1C           move.l     -[A7], 0xFFFFBB1C
0000349E  2F3C FFFF BB38           move.l     -[A7], 0xFFFFBB38
000034A4  4EBA 1928                jsr        [PC + 0x1928 /* 00004DCE */]
000034A8  508F                     addq.l     A7, 8
label000034AA:
000034AA  4E75                     rts
export_49:
000034AC  4E56 FFD0                link       A6, -0x0030
000034B0  2F0C                     move.l     -[A7], A4
000034B2  2F3C C800 0000           move.l     -[A7], 0xC8000000
000034B8  A8FD                     syscall    PrGlue
000034BA  4267                     clr.w      -[A7]
000034BC  2F3C BA00 0000           move.l     -[A7], 0xBA000000
000034C2  A8FD                     syscall    PrGlue
000034C4  4A5F                     tst.w      [A7]+
000034C6  6600 0208                bne        +0x20A /* 000036D0 */
000034CA  203C 0000 4B00           move.l     D0, 0x4B00 /* 'K\0' */
000034D0  A11E                     syscall    NewPtr, flags=1
000034D2  2D48 FFD0                move.l     [A6 - 0x30], A0
000034D6  4A78 0220                tst.w      [0x00000220 /* MemErr */]
000034DA  6712                     beq        +0x14 /* 000034EE */
000034DC  2F3C FFFF BB3E           move.l     -[A7], 0xFFFFBB3E
000034E2  2F3C FFFF BB40           move.l     -[A7], 0xFFFFBB40
000034E8  4EBA 18E4                jsr        [PC + 0x18E4 /* 00004DCE */]
000034EC  508F                     addq.l     A7, 8
label000034EE:
000034EE  3D7C 0040 FFD4           move.w     [A6 - 0x2C], 0x40 /* '@' */
000034F4  486E FFD6                pea.l      [A6 - 0x2A]
000034F8  42A7                     clr.l      -[A7]
000034FA  2F3C 012C 01F4           move.l     -[A7], 0x12C01F4
00003500  A8A7                     syscall    SetRect
00003502  2079 FFFF 7D56           movea.l    A0, [0xFFFF7D56]
00003508  4868 0002                pea.l      [A0 + 0x2]
0000350C  486E FFD0                pea.l      [A6 - 0x30]
00003510  486E FFD6                pea.l      [A6 - 0x2A]
00003514  486E FFD6                pea.l      [A6 - 0x2A]
00003518  4267                     clr.w      -[A7]
0000351A  42A7                     clr.l      -[A7]
0000351C  A8EC                     syscall    CopyBits
0000351E  4AB9 FFFF 907C           tst.l      [0xFFFF907C]
00003524  6650                     bne        +0x52 /* 00003576 */
00003526  7078                     moveq.l    D0, 0x78
00003528  A122                     syscall    NewHandle, flags=1
0000352A  23C8 FFFF 907C           move.l     [0xFFFF907C], A0
00003530  4A78 0220                tst.w      [0x00000220 /* MemErr */]
00003534  6712                     beq        +0x14 /* 00003548 */
00003536  2F3C FFFF BB4E           move.l     -[A7], 0xFFFFBB4E
0000353C  2F3C FFFF BB50           move.l     -[A7], 0xFFFFBB50
00003542  4EBA 188A                jsr        [PC + 0x188A /* 00004DCE */]
00003546  508F                     addq.l     A7, 8
label00003548:
00003548  2F39 FFFF 907C           move.l     -[A7], [0xFFFF907C]
0000354E  2F3C 2004 0480           move.l     -[A7], 0x20040480
00003554  A8FD                     syscall    PrGlue
00003556  4267                     clr.w      -[A7]
00003558  2F3C BA00 0000           move.l     -[A7], 0xBA000000
0000355E  A8FD                     syscall    PrGlue
00003560  4A5F                     tst.w      [A7]+
00003562  6712                     beq        +0x14 /* 00003576 */
00003564  2F3C FFFF BB5E           move.l     -[A7], 0xFFFFBB5E
0000356A  2F3C FFFF BB7C           move.l     -[A7], 0xFFFFBB7C
00003570  4EBA 185C                jsr        [PC + 0x185C /* 00004DCE */]
00003574  508F                     addq.l     A7, 8
label00003576:
00003576  4227                     clr.b      -[A7]
00003578  2F39 FFFF 907C           move.l     -[A7], [0xFFFF907C]
0000357E  2F3C 3204 0488           move.l     -[A7], 0x32040488
00003584  A8FD                     syscall    PrGlue
00003586  4A1F                     tst.b      [A7]+
00003588  6700 0126                beq        +0x128 /* 000036B0 */
0000358C  4267                     clr.w      -[A7]
0000358E  2F3C BA00 0000           move.l     -[A7], 0xBA000000
00003594  A8FD                     syscall    PrGlue
00003596  4A5F                     tst.w      [A7]+
00003598  6600 0116                bne        +0x118 /* 000036B0 */
0000359C  3039 FFFF 9224           move.w     D0, [0xFFFF9224]
000035A2  48C0                     ext.l      D0
000035A4  E588                     lsl        D0, 2
000035A6  2040                     movea.l    A0, D0
000035A8  D1FC FFFF 9196           add.l      A0, 0xFFFF9196
000035AE  2050                     movea.l    A0, [A0]
000035B0  4E90                     jsr        [A0]
000035B2  4EAD 00B2                jsr        [A5 + 0xB2 /* export_18, CODE:4 @ 00004F38 */]
000035B6  2079 FFFF 7D76           movea.l    A0, [0xFFFF7D76]
000035BC  2F10                     move.l     -[A7], [A0]
000035BE  A851                     syscall    SetCursor
000035C0  42A7                     clr.l      -[A7]
000035C2  2F39 FFFF 907C           move.l     -[A7], [0xFFFF907C]
000035C8  42A7                     clr.l      -[A7]
000035CA  42A7                     clr.l      -[A7]
000035CC  2F3C 0400 0C00           move.l     -[A7], 0x4000C00
000035D2  A8FD                     syscall    PrGlue
000035D4  285F                     movea.l    A4, [A7]+
000035D6  0C79 0001 FFFF 9224      cmpi.w     [0xFFFF9224], 0x1
000035DE  660A                     bne        +0xC /* 000035EA */
000035E0  2F0C                     move.l     -[A7], A4
000035E2  4EAD 00FA                jsr        [A5 + 0xFA /* export_27, CODE:4 @ 000005D0 */]
000035E6  588F                     addq.l     A7, 4
000035E8  6066                     bra        +0x68 /* 00003650 */
label000035EA:
000035EA  2F0C                     move.l     -[A7], A4
000035EC  42A7                     clr.l      -[A7]
000035EE  2F3C 1000 0808           move.l     -[A7], 0x10000808
000035F4  A8FD                     syscall    PrGlue
000035F6  4267                     clr.w      -[A7]
000035F8  2F3C BA00 0000           move.l     -[A7], 0xBA000000
000035FE  A8FD                     syscall    PrGlue
00003600  4A5F                     tst.w      [A7]+
00003602  6714                     beq        +0x16 /* 00003618 */
00003604  2F3C FFFF BB82           move.l     -[A7], 0xFFFFBB82
0000360A  2F3C FFFF BB92           move.l     -[A7], 0xFFFFBB92
00003610  4EBA 17BC                jsr        [PC + 0x17BC /* 00004DCE */]
00003614  508F                     addq.l     A7, 8
00003616  602E                     bra        +0x30 /* 00003646 */
label00003618:
00003618  486E FFD0                pea.l      [A6 - 0x30]
0000361C  486C 0002                pea.l      [A4 + 0x2]
00003620  486E FFD6                pea.l      [A6 - 0x2A]
00003624  486E FFD6                pea.l      [A6 - 0x2A]
00003628  4267                     clr.w      -[A7]
0000362A  42A7                     clr.l      -[A7]
0000362C  A8EC                     syscall    CopyBits
0000362E  486E FFD6                pea.l      [A6 - 0x2A]
00003632  A8A1                     syscall    FrameRect
00003634  486E FFD6                pea.l      [A6 - 0x2A]
00003638  2F3C 0001 0001           move.l     -[A7], 0x10001
0000363E  A8A8                     syscall    OffsetRect
00003640  486E FFD6                pea.l      [A6 - 0x2A]
00003644  A8A1                     syscall    FrameRect
label00003646:
00003646  2F0C                     move.l     -[A7], A4
00003648  2F3C 1800 040C           move.l     -[A7], 0x1800040C
0000364E  A8FD                     syscall    PrGlue
label00003650:
00003650  4267                     clr.w      -[A7]
00003652  2F3C BA00 0000           move.l     -[A7], 0xBA000000
00003658  A8FD                     syscall    PrGlue
0000365A  4A5F                     tst.w      [A7]+
0000365C  6712                     beq        +0x14 /* 00003670 */
0000365E  2F3C FFFF BB98           move.l     -[A7], 0xFFFFBB98
00003664  2F3C FFFF BBAA           move.l     -[A7], 0xFFFFBBAA
0000366A  4EBA 1762                jsr        [PC + 0x1762 /* 00004DCE */]
0000366E  508F                     addq.l     A7, 8
label00003670:
00003670  2F0C                     move.l     -[A7], A4
00003672  2F3C 0800 0484           move.l     -[A7], 0x8000484
00003678  A8FD                     syscall    PrGlue
0000367A  4267                     clr.w      -[A7]
0000367C  2F3C BA00 0000           move.l     -[A7], 0xBA000000
00003682  A8FD                     syscall    PrGlue
00003684  4A5F                     tst.w      [A7]+
00003686  6628                     bne        +0x2A /* 000036B0 */
00003688  2079 FFFF 907C           movea.l    A0, [0xFFFF907C]
0000368E  2050                     movea.l    A0, [A0]
00003690  0C28 0001 0044           cmpi.b     [A0 + 0x44], 0x1
00003696  6618                     bne        +0x1A /* 000036B0 */
00003698  2F39 FFFF 907C           move.l     -[A7], [0xFFFF907C]
0000369E  42A7                     clr.l      -[A7]
000036A0  42A7                     clr.l      -[A7]
000036A2  42A7                     clr.l      -[A7]
000036A4  486E FFE6                pea.l      [A6 - 0x1A]
000036A8  2F3C 6005 1480           move.l     -[A7], 0x60051480
000036AE  A8FD                     syscall    PrGlue
label000036B0:
000036B0  206E FFD0                movea.l    A0, [A6 - 0x30]
000036B4  A01F                     syscall    DisposPtr/DisposePtr
000036B6  4A78 0220                tst.w      [0x00000220 /* MemErr */]
000036BA  6726                     beq        +0x28 /* 000036E2 */
000036BC  2F3C FFFF BBB0           move.l     -[A7], 0xFFFFBBB0
000036C2  2F3C FFFF BBB2           move.l     -[A7], 0xFFFFBBB2
000036C8  4EBA 1704                jsr        [PC + 0x1704 /* 00004DCE */]
000036CC  508F                     addq.l     A7, 8
000036CE  6012                     bra        +0x14 /* 000036E2 */
label000036D0:
000036D0  2F3C FFFF BBC0           move.l     -[A7], 0xFFFFBBC0
000036D6  2F3C FFFF BBDA           move.l     -[A7], 0xFFFFBBDA
000036DC  4EBA 16F0                jsr        [PC + 0x16F0 /* 00004DCE */]
000036E0  508F                     addq.l     A7, 8
label000036E2:
000036E2  2F3C D000 0000           move.l     -[A7], 0xD0000000
000036E8  A8FD                     syscall    PrGlue
000036EA  4267                     clr.w      -[A7]
000036EC  2F3C BA00 0000           move.l     -[A7], 0xBA000000
000036F2  A8FD                     syscall    PrGlue
000036F4  4A5F                     tst.w      [A7]+
000036F6  6712                     beq        +0x14 /* 0000370A */
000036F8  2F3C FFFF BBE0           move.l     -[A7], 0xFFFFBBE0
000036FE  2F3C FFFF BBFC           move.l     -[A7], 0xFFFFBBFC
00003704  4EBA 16C8                jsr        [PC + 0x16C8 /* 00004DCE */]
00003708  508F                     addq.l     A7, 8
label0000370A:
0000370A  2F39 FFFF 7D56           move.l     -[A7], [0xFFFF7D56]
00003710  A873                     syscall    SetPort
00003712  2F3C FFFF FA60           move.l     -[A7], 0xFFFFFA60
00003718  A851                     syscall    SetCursor
0000371A  285F                     movea.l    A4, [A7]+
0000371C  4E5E                     unlink     A6
0000371E  4E75                     rts
export_55:
00003720  4E56 FFE4                link       A6, -0x001C
00003724  48E7 0118                movem.l    -[A7], D7,A3,A4
00003728  42A7                     clr.l      -[A7]
0000372A  3F3C 07D0                move.w     -[A7], 0x7D0
0000372E  42A7                     clr.l      -[A7]
00003730  4878 FFFF                push.l     0xFFFF
00003734  A97C                     syscall    GetNewDialog
00003736  285F                     movea.l    A4, [A7]+
00003738  2F0C                     move.l     -[A7], A4
0000373A  3F3C 0002                move.w     -[A7], 0x2
0000373E  486E FFFC                pea.l      [A6 - 0x4]
00003742  486E FFF8                pea.l      [A6 - 0x8]
00003746  486E FFE8                pea.l      [A6 - 0x18]
0000374A  A98D                     syscall    GetDialogItem/GetDItem
0000374C  2F0C                     move.l     -[A7], A4
0000374E  3F3C 0002                move.w     -[A7], 0x2
00003752  3F2E FFFC                move.w     -[A7], [A6 - 0x4]
00003756  486D 01BA                pea.l      [A5 + 0x1BA /* export_51, CODE:2 @ 00003926 */]
0000375A  486E FFE8                pea.l      [A6 - 0x18]
0000375E  A98E                     syscall    SetDialogItem/SetDItem
00003760  2F0C                     move.l     -[A7], A4
00003762  3F3C 0003                move.w     -[A7], 0x3
00003766  486E FFFC                pea.l      [A6 - 0x4]
0000376A  486E FFF8                pea.l      [A6 - 0x8]
0000376E  486E FFF0                pea.l      [A6 - 0x10]
00003772  A98D                     syscall    GetDialogItem/GetDItem
00003774  2F0C                     move.l     -[A7], A4
00003776  3F3C 0003                move.w     -[A7], 0x3
0000377A  3F2E FFFC                move.w     -[A7], [A6 - 0x4]
0000377E  486D 01B2                pea.l      [A5 + 0x1B2 /* export_50, CODE:2 @ 000038DC */]
00003782  486E FFF0                pea.l      [A6 - 0x10]
00003786  A98E                     syscall    SetDialogItem/SetDItem
00003788  2F0C                     move.l     -[A7], A4
0000378A  3F3C 0005                move.w     -[A7], 0x5
0000378E  486E FFFC                pea.l      [A6 - 0x4]
00003792  2F3C FFFF BCC2           move.l     -[A7], 0xFFFFBCC2
00003798  486E FFF0                pea.l      [A6 - 0x10]
0000379C  A98D                     syscall    GetDialogItem/GetDItem
0000379E  2F0C                     move.l     -[A7], A4
000037A0  3F3C 0006                move.w     -[A7], 0x6
000037A4  486E FFFC                pea.l      [A6 - 0x4]
000037A8  486E FFF8                pea.l      [A6 - 0x8]
000037AC  2F3C FFFF BCC8           move.l     -[A7], 0xFFFFBCC8
000037B2  A98D                     syscall    GetDialogItem/GetDItem
000037B4  3039 FFFF BCC8           move.w     D0, [0xFFFFBCC8]
000037BA  0640 0080                addi.w     D0, 0x80
000037BE  33C0 FFFF BCCC           move.w     [0xFFFFBCCC], D0
000037C4  2F0C                     move.l     -[A7], A4
000037C6  3F3C 0006                move.w     -[A7], 0x6
000037CA  3F2E FFFC                move.w     -[A7], [A6 - 0x4]
000037CE  486D 01C2                pea.l      [A5 + 0x1C2 /* export_52, CODE:2 @ 00003972 */]
000037D2  2F3C FFFF BCC8           move.l     -[A7], 0xFFFFBCC8
000037D8  A98E                     syscall    SetDialogItem/SetDItem
000037DA  33FC 0001 FFFF BCC6      move.w     [0xFFFFBCC6], 0x1
000037E2  42A7                     clr.l      -[A7]
000037E4  2F3C 5445 5854           move.l     -[A7], 0x54455854 /* 'TEXT' */
000037EA  3039 FFFF BCC6           move.w     D0, [0xFFFFBCC6]
000037F0  0640 07D0                addi.w     D0, 0x7D0
000037F4  3F00                     move.w     -[A7], D0
000037F6  A9A0                     syscall    GetResource
000037F8  265F                     movea.l    A3, [A7]+
000037FA  204B                     movea.l    A0, A3
000037FC  A064                     syscall    MoveHHi
000037FE  204B                     movea.l    A0, A3
00003800  A029                     syscall    HLock
00003802  486E FFE8                pea.l      [A6 - 0x18]
00003806  2F3C 0002 0002           move.l     -[A7], 0x20002
0000380C  A8A9                     syscall    InsetRect
0000380E  486E FFE4                pea.l      [A6 - 0x1C]
00003812  A874                     syscall    GetPort
00003814  2F0C                     move.l     -[A7], A4
00003816  A915                     syscall    ShowWindow
00003818  2F0C                     move.l     -[A7], A4
0000381A  A873                     syscall    SetPort
0000381C  3F3C 0003                move.w     -[A7], 0x3
00003820  A887                     syscall    TextFont
00003822  3F3C 0009                move.w     -[A7], 0x9 /* '\t' */
00003826  A88A                     syscall    TextSize
00003828  42A7                     clr.l      -[A7]
0000382A  486E FFE8                pea.l      [A6 - 0x18]
0000382E  486E FFE8                pea.l      [A6 - 0x18]
00003832  A9D2                     syscall    TENew
00003834  23DF FFFF BCBA           move.l     [0xFFFFBCBA], [A7]+
0000383A  1F3C 0001                move.b     -[A7], 0x1
0000383E  2F39 FFFF BCBA           move.l     -[A7], [0xFFFFBCBA]
00003844  A813                     syscall    TEAutoView
00003846  2F13                     move.l     -[A7], [A3]
00003848  42A7                     clr.l      -[A7]
0000384A  2F0B                     move.l     -[A7], A3
0000384C  4EAD 03BA                jsr        [A5 + 0x3BA /* export_115, CODE:7 @ 0000272A */]
00003850  2F39 FFFF BCBA           move.l     -[A7], [0xFFFFBCBA]
00003856  A9CF                     syscall    TESetText
00003858  204B                     movea.l    A0, A3
0000385A  A02A                     syscall    HUnlock
0000385C  2F39 FFFF BCC2           move.l     -[A7], [0xFFFFBCC2]
00003862  4267                     clr.w      -[A7]
00003864  A963                     syscall    SetControlValue/SetCtlValue
00003866  2079 FFFF BCBA           movea.l    A0, [0xFFFFBCBA]
0000386C  2650                     movea.l    A3, [A0]
0000386E  7EE8                     moveq.l    D7, 0xFFFFFFE8
00003870  DE6B 005E                add.w      D7, [A3 + 0x5E]
00003874  4A6B 003C                tst.w      [A3 + 0x3C]
00003878  6F12                     ble        +0x14 /* 0000388C */
0000387A  206B 003E                movea.l    A0, [A3 + 0x3E]
0000387E  326B 003C                movea.w    A1, [A3 + 0x3C]
00003882  D3D0                     add.l      A1, [A0]
00003884  0C21 000D                cmpi.b     -[A1], 0xD /* '\r' */
00003888  6602                     bne        +0x4 /* 0000388C */
0000388A  5247                     addq.w     D7, 1
label0000388C:
0000388C  2F39 FFFF BCC2           move.l     -[A7], [0xFFFFBCC2]
00003892  4A47                     tst.w      D7
00003894  6F04                     ble        +0x6 /* 0000389A */
00003896  3007                     move.w     D0, D7
00003898  6002                     bra        +0x4 /* 0000389C */
label0000389A:
0000389A  7000                     moveq.l    D0, 0x00
label0000389C:
0000389C  3F00                     move.w     -[A7], D0
0000389E  A965                     syscall    SetControlMaximum/SetMaxCtl
label000038A0:
000038A0  486D 01CA                pea.l      [A5 + 0x1CA /* export_53, CODE:2 @ 00003A36 */]
000038A4  486E FFFE                pea.l      [A6 - 0x2]
000038A8  A991                     syscall    ModalDialog
000038AA  0C6E 0004 FFFE           cmpi.w     [A6 - 0x2], 0x4
000038B0  6604                     bne        +0x6 /* 000038B6 */
000038B2  4EBA 03DA                jsr        [PC + 0x3DA /* 00003C8E */]
label000038B6:
000038B6  0C6E 0007 FFFE           cmpi.w     [A6 - 0x2], 0x7
000038BC  6604                     bne        +0x6 /* 000038C2 */
000038BE  4EBA 077E                jsr        [PC + 0x77E /* 0000403E */]
label000038C2:
000038C2  0C6E 0001 FFFE           cmpi.w     [A6 - 0x2], 0x1
000038C8  66D6                     bne        -0x28 /* 000038A0 */
000038CA  2F0C                     move.l     -[A7], A4
000038CC  A983                     syscall    DisposeDialog
000038CE  2F2E FFE4                move.l     -[A7], [A6 - 0x1C]
000038D2  A873                     syscall    SetPort
000038D4  4CDF 1880                movem.l    D7,A3,A4, [A7]+
000038D8  4E5E                     unlink     A6
000038DA  4E75                     rts
export_50:
000038DC  4E56 FFF2                link       A6, -0x000E
000038E0  2F2E 000A                move.l     -[A7], [A6 + 0xA]
000038E4  3F2E 0008                move.w     -[A7], [A6 + 0x8]
000038E8  486E FFFE                pea.l      [A6 - 0x2]
000038EC  486E FFFA                pea.l      [A6 - 0x6]
000038F0  486E FFF2                pea.l      [A6 - 0xE]
000038F4  A98D                     syscall    GetDialogItem/GetDItem
000038F6  2F3C 0003 0003           move.l     -[A7], 0x30003
000038FC  A89B                     syscall    PenSize
000038FE  486E FFF2                pea.l      [A6 - 0xE]
00003902  2F3C FFFC FFFC           move.l     -[A7], 0xFFFCFFFC
00003908  A8A9                     syscall    InsetRect
0000390A  486E FFF2                pea.l      [A6 - 0xE]
0000390E  2F3C 0010 0010           move.l     -[A7], 0x100010
00003914  A8B0                     syscall    FrameRoundRect
00003916  2F3C 0001 0001           move.l     -[A7], 0x10001
0000391C  A89B                     syscall    PenSize
0000391E  4E5E                     unlink     A6
00003920  205F                     movea.l    A0, [A7]+
00003922  5C8F                     addq.l     A7, 6
00003924  4ED0                     jmp        [A0]
export_51:
00003926  4E56 FFF2                link       A6, -0x000E
0000392A  2F2E 000A                move.l     -[A7], [A6 + 0xA]
0000392E  3F2E 0008                move.w     -[A7], [A6 + 0x8]
00003932  486E FFFE                pea.l      [A6 - 0x2]
00003936  486E FFFA                pea.l      [A6 - 0x6]
0000393A  486E FFF2                pea.l      [A6 - 0xE]
0000393E  A98D                     syscall    GetDialogItem/GetDItem
00003940  486E FFF2                pea.l      [A6 - 0xE]
00003944  A8A3                     syscall    EraseRect
00003946  486E FFF2                pea.l      [A6 - 0xE]
0000394A  A8A1                     syscall    FrameRect
0000394C  4878 0199                push.l     0x199
00003950  A862                     syscall    ForeColor
00003952  2079 FFFF FACC           movea.l    A0, [0xFFFFFACC]
00003958  4868 0010                pea.l      [A0 + 0x10]
0000395C  2F39 FFFF BCBA           move.l     -[A7], [0xFFFFBCBA]
00003962  A9D3                     syscall    TEUpdate
00003964  4878 0021                push.l     0x21 /* '!' */
00003968  A862                     syscall    ForeColor
0000396A  4E5E                     unlink     A6
0000396C  205F                     movea.l    A0, [A7]+
0000396E  5C8F                     addq.l     A7, 6
00003970  4ED0                     jmp        [A0]
export_52:
00003972  4E56 FFF2                link       A6, -0x000E
00003976  48E7 0308                movem.l    -[A7], D6,D7,A4
0000397A  2F2E 000A                move.l     -[A7], [A6 + 0xA]
0000397E  3F2E 0008                move.w     -[A7], [A6 + 0x8]
00003982  486E FFFE                pea.l      [A6 - 0x2]
00003986  486E FFFA                pea.l      [A6 - 0x6]
0000398A  486E FFF2                pea.l      [A6 - 0xE]
0000398E  A98D                     syscall    GetDialogItem/GetDItem
00003990  486E FFF2                pea.l      [A6 - 0xE]
00003994  A8A3                     syscall    EraseRect
00003996  486E FFF2                pea.l      [A6 - 0xE]
0000399A  A8A1                     syscall    FrameRect
0000399C  7001                     moveq.l    D0, 0x01
0000399E  D06E FFF4                add.w      D0, [A6 - 0xC]
000039A2  3F00                     move.w     -[A7], D0
000039A4  3F2E FFF6                move.w     -[A7], [A6 - 0xA]
000039A8  A893                     syscall    MoveTo
000039AA  3F2E FFF8                move.w     -[A7], [A6 - 0x8]
000039AE  3F2E FFF6                move.w     -[A7], [A6 - 0xA]
000039B2  A891                     syscall    LineTo
000039B4  3F2E FFF8                move.w     -[A7], [A6 - 0x8]
000039B8  7001                     moveq.l    D0, 0x01
000039BA  D06E FFF2                add.w      D0, [A6 - 0xE]
000039BE  3F00                     move.w     -[A7], D0
000039C0  A891                     syscall    LineTo
000039C2  4878 00CD                push.l     0xCD
000039C6  A862                     syscall    ForeColor
000039C8  7E00                     moveq.l    D7, 0x00
000039CA  287C FFFF BC02           movea.l    A4, 0xFFFFBC02
000039D0  7C00                     moveq.l    D6, 0x00
000039D2  6022                     bra        +0x24 /* 000039F6 */
label000039D4:
000039D4  7003                     moveq.l    D0, 0x03
000039D6  D06E FFF4                add.w      D0, [A6 - 0xC]
000039DA  3F00                     move.w     -[A7], D0
000039DC  700C                     moveq.l    D0, 0x0C
000039DE  D06E FFF2                add.w      D0, [A6 - 0xE]
000039E2  D046                     add.w      D0, D6
000039E4  3F00                     move.w     -[A7], D0
000039E6  A893                     syscall    MoveTo
000039E8  2F0C                     move.l     -[A7], A4
000039EA  A884                     syscall    DrawString
000039EC  5247                     addq.w     D7, 1
000039EE  49EC 0014                lea.l      A4, [A4 + 0x14]
000039F2  0646 000E                addi.w     D6, 0xE
label000039F6:
000039F6  0C47 0009                cmpi.w     D7, 0x9 /* '\t' */
000039FA  6DD8                     blt        -0x26 /* 000039D4 */
000039FC  4878 0021                push.l     0x21 /* '!' */
00003A00  A862                     syscall    ForeColor
00003A02  700E                     moveq.l    D0, 0x0E
00003A04  C1F9 FFFF BCC6           muls.w     D0, [0xFFFFBCC6]
00003A0A  0640 FFF3                addi.w     D0, 0xFFF3
00003A0E  D16E FFF2                add.w      [A6 - 0xE], D0
00003A12  700E                     moveq.l    D0, 0x0E
00003A14  D06E FFF2                add.w      D0, [A6 - 0xE]
00003A18  3D40 FFF6                move.w     [A6 - 0xA], D0
00003A1C  526E FFF4                addq.w     [A6 - 0xC], 1
00003A20  536E FFF8                subq.w     [A6 - 0x8], 1
00003A24  486E FFF2                pea.l      [A6 - 0xE]
00003A28  A8A4                     syscall    InvertRect
00003A2A  4CDF 10C0                movem.l    D6,D7,A4, [A7]+
00003A2E  4E5E                     unlink     A6
00003A30  205F                     movea.l    A0, [A7]+
00003A32  5C8F                     addq.l     A7, 6
00003A34  4ED0                     jmp        [A0]
export_53:
00003A36  4E56 FFFC                link       A6, -0x0004
00003A3A  48E7 0338                movem.l    -[A7], D6,D7,A2,A3,A4
00003A3E  286E 000C                movea.l    A4, [A6 + 0xC]
00003A42  7E00                     moveq.l    D7, 0x00
00003A44  3C14                     move.w     D6, [A4]
00003A46  0C46 0003                cmpi.w     D6, 0x3
00003A4A  662A                     bne        +0x2C /* 00003A76 */
00003A4C  42A7                     clr.l      -[A7]
00003A4E  2F2C 0002                move.l     -[A7], [A4 + 0x2]
00003A52  4878 00FF                push.l     0xFF
00003A56  A858                     syscall    BitAnd
00003A58  2C1F                     move.l     D6, [A7]+
00003A5A  0C06 000D                cmpi.b     D6, 0xD /* '\r' */
00003A5E  6708                     beq        +0xA /* 00003A68 */
00003A60  0C06 0003                cmpi.b     D6, 0x3
00003A64  6600 016E                bne        +0x170 /* 00003BD4 */
label00003A68:
00003A68  206E 0008                movea.l    A0, [A6 + 0x8]
00003A6C  30BC 0001                move.w     [A0], 0x1
00003A70  7E01                     moveq.l    D7, 0x01
00003A72  6000 0160                bra        +0x162 /* 00003BD4 */
label00003A76:
00003A76  0C46 0001                cmpi.w     D6, 0x1
00003A7A  6600 0158                bne        +0x15A /* 00003BD4 */
00003A7E  486C 000A                pea.l      [A4 + 0xA]
00003A82  A871                     syscall    GlobalToLocal
00003A84  4267                     clr.w      -[A7]
00003A86  2F2C 000A                move.l     -[A7], [A4 + 0xA]
00003A8A  2F2E 0010                move.l     -[A7], [A6 + 0x10]
00003A8E  486E FFFC                pea.l      [A6 - 0x4]
00003A92  A96C                     syscall    FindControl
00003A94  3C1F                     move.w     D6, [A7]+
00003A96  674A                     beq        +0x4C /* 00003AE2 */
00003A98  202E FFFC                move.l     D0, [A6 - 0x4]
00003A9C  B0B9 FFFF BCC2           cmp.l      D0, [0xFFFFBCC2]
00003AA2  6600 012A                bne        +0x12C /* 00003BCE */
00003AA6  0C46 0081                cmpi.w     D6, 0x81
00003AAA  6616                     bne        +0x18 /* 00003AC2 */
00003AAC  4267                     clr.w      -[A7]
00003AAE  2F2E FFFC                move.l     -[A7], [A6 - 0x4]
00003AB2  2F2C 000A                move.l     -[A7], [A4 + 0xA]
00003AB6  42A7                     clr.l      -[A7]
00003AB8  A968                     syscall    TrackControl
00003ABA  4EBA 0182                jsr        [PC + 0x182 /* 00003C3E */]
00003ABE  548F                     addq.l     A7, 2
00003AC0  6012                     bra        +0x14 /* 00003AD4 */
label00003AC2:
00003AC2  4267                     clr.w      -[A7]
00003AC4  2F2E FFFC                move.l     -[A7], [A6 - 0x4]
00003AC8  2F2C 000A                move.l     -[A7], [A4 + 0xA]
00003ACC  486D 01D2                pea.l      [A5 + 0x1D2 /* export_54, CODE:2 @ 00003BE6 */]
00003AD0  A968                     syscall    TrackControl
00003AD2  548F                     addq.l     A7, 2
label00003AD4:
00003AD4  206E 0008                movea.l    A0, [A6 + 0x8]
00003AD8  30BC 0005                move.w     [A0], 0x5
00003ADC  7E01                     moveq.l    D7, 0x01
00003ADE  6000 00EE                bra        +0xF0 /* 00003BCE */
label00003AE2:
00003AE2  4227                     clr.b      -[A7]
00003AE4  2F2C 000A                move.l     -[A7], [A4 + 0xA]
00003AE8  2F3C FFFF BCC8           move.l     -[A7], 0xFFFFBCC8
00003AEE  A8AD                     syscall    PtInRect
00003AF0  4A1F                     tst.b      [A7]+
00003AF2  6700 00DA                beq        +0xDC /* 00003BCE */
00003AF6  3C2C 000A                move.w     D6, [A4 + 0xA]
00003AFA  9C79 FFFF BCC8           sub.w      D6, [0xFFFFBCC8]
00003B00  5546                     subq.w     D6, 2
00003B02  48C6                     ext.l      D6
00003B04  8DFC 000E                divs.w     D6, 0xE
00003B08  5246                     addq.w     D6, 1
00003B0A  BC79 FFFF BCC6           cmp.w      D6, [0xFFFFBCC6]
00003B10  6700 00BC                beq        +0xBE /* 00003BCE */
00003B14  33C6 FFFF BCC6           move.w     [0xFFFFBCC6], D6
00003B1A  42A7                     clr.l      -[A7]
00003B1C  3F3C 0004                move.w     -[A7], 0x4
00003B20  A9B9                     syscall    GetCursor
00003B22  205F                     movea.l    A0, [A7]+
00003B24  2F10                     move.l     -[A7], [A0]
00003B26  A851                     syscall    SetCursor
00003B28  2079 FFFF FACC           movea.l    A0, [0xFFFFFACC]
00003B2E  4868 0010                pea.l      [A0 + 0x10]
00003B32  A928                     syscall    InvalRect
00003B34  42A7                     clr.l      -[A7]
00003B36  2F3C 5445 5854           move.l     -[A7], 0x54455854 /* 'TEXT' */
00003B3C  3039 FFFF BCC6           move.w     D0, [0xFFFFBCC6]
00003B42  0640 07D0                addi.w     D0, 0x7D0
00003B46  3F00                     move.w     -[A7], D0
00003B48  A9A0                     syscall    GetResource
00003B4A  265F                     movea.l    A3, [A7]+
00003B4C  204B                     movea.l    A0, A3
00003B4E  A064                     syscall    MoveHHi
00003B50  204B                     movea.l    A0, A3
00003B52  A029                     syscall    HLock
00003B54  4878 0199                push.l     0x199
00003B58  A862                     syscall    ForeColor
00003B5A  2F39 FFFF BCC2           move.l     -[A7], [0xFFFFBCC2]
00003B60  4267                     clr.w      -[A7]
00003B62  A963                     syscall    SetControlValue/SetCtlValue
00003B64  2F13                     move.l     -[A7], [A3]
00003B66  42A7                     clr.l      -[A7]
00003B68  2F0B                     move.l     -[A7], A3
00003B6A  4EAD 03BA                jsr        [A5 + 0x3BA /* export_115, CODE:7 @ 0000272A */]
00003B6E  2F39 FFFF BCBA           move.l     -[A7], [0xFFFFBCBA]
00003B74  A9CF                     syscall    TESetText
00003B76  42A7                     clr.l      -[A7]
00003B78  42A7                     clr.l      -[A7]
00003B7A  2F39 FFFF BCBA           move.l     -[A7], [0xFFFFBCBA]
00003B80  A9D1                     syscall    TESetSelect
00003B82  2079 FFFF BCBA           movea.l    A0, [0xFFFFBCBA]
00003B88  2450                     movea.l    A2, [A0]
00003B8A  7CE8                     moveq.l    D6, 0xFFFFFFE8
00003B8C  DC6A 005E                add.w      D6, [A2 + 0x5E]
00003B90  4A6A 003C                tst.w      [A2 + 0x3C]
00003B94  6F12                     ble        +0x14 /* 00003BA8 */
00003B96  206A 003E                movea.l    A0, [A2 + 0x3E]
00003B9A  326A 003C                movea.w    A1, [A2 + 0x3C]
00003B9E  D3D0                     add.l      A1, [A0]
00003BA0  0C21 000D                cmpi.b     -[A1], 0xD /* '\r' */
00003BA4  6602                     bne        +0x4 /* 00003BA8 */
00003BA6  5246                     addq.w     D6, 1
label00003BA8:
00003BA8  2F39 FFFF BCC2           move.l     -[A7], [0xFFFFBCC2]
00003BAE  4A46                     tst.w      D6
00003BB0  6F04                     ble        +0x6 /* 00003BB6 */
00003BB2  3006                     move.w     D0, D6
00003BB4  6002                     bra        +0x4 /* 00003BB8 */
label00003BB6:
00003BB6  7000                     moveq.l    D0, 0x00
label00003BB8:
00003BB8  3F00                     move.w     -[A7], D0
00003BBA  A965                     syscall    SetControlMaximum/SetMaxCtl
00003BBC  4878 0021                push.l     0x21 /* '!' */
00003BC0  A862                     syscall    ForeColor
00003BC2  204B                     movea.l    A0, A3
00003BC4  A02A                     syscall    HUnlock
00003BC6  2F3C FFFF FA60           move.l     -[A7], 0xFFFFFA60
00003BCC  A851                     syscall    SetCursor
label00003BCE:
00003BCE  486C 000A                pea.l      [A4 + 0xA]
00003BD2  A870                     syscall    LocalToGlobal
label00003BD4:
00003BD4  1D47 0014                move.b     [A6 + 0x14], D7
00003BD8  4CDF 1CC0                movem.l    D6,D7,A2,A3,A4, [A7]+
00003BDC  4E5E                     unlink     A6
00003BDE  205F                     movea.l    A0, [A7]+
00003BE0  4FEF 000C                lea.l      A7, [A7 + 0xC]
00003BE4  4ED0                     jmp        [A0]
export_54:
00003BE6  4E56 0000                link       A6, 0
00003BEA  2F07                     move.l     -[A7], D7
00003BEC  4A6E 0008                tst.w      [A6 + 0x8]
00003BF0  6742                     beq        +0x44 /* 00003C34 */
00003BF2  302E 0008                move.w     D0, [A6 + 0x8]
00003BF6  6B24                     bmi        +0x26 /* 00003C1C */
00003BF8  0440 0016                subi.w     D0, 0x16
00003BFC  6718                     beq        +0x1A /* 00003C16 */
00003BFE  6A08                     bpl        +0xA /* 00003C08 */
00003C00  5440                     addq.w     D0, 2
00003C02  670A                     beq        +0xC /* 00003C0E */
00003C04  6A0C                     bpl        +0xE /* 00003C12 */
00003C06  6014                     bra        +0x16 /* 00003C1C */
label00003C08:
00003C08  5540                     subq.w     D0, 2
00003C0A  6A10                     bpl        +0x12 /* 00003C1C */
00003C0C  600C                     bra        +0xE /* 00003C1A */
label00003C0E:
00003C0E  7EFF                     moveq.l    D7, 0xFFFFFFFF
00003C10  600A                     bra        +0xC /* 00003C1C */
label00003C12:
00003C12  7E01                     moveq.l    D7, 0x01
00003C14  6006                     bra        +0x8 /* 00003C1C */
label00003C16:
00003C16  7EE9                     moveq.l    D7, 0xFFFFFFE9
00003C18  6002                     bra        +0x4 /* 00003C1C */
label00003C1A:
00003C1A  7E17                     moveq.l    D7, 0x17
label00003C1C:
00003C1C  2F2E 000A                move.l     -[A7], [A6 + 0xA]
00003C20  4267                     clr.w      -[A7]
00003C22  2F2E 000A                move.l     -[A7], [A6 + 0xA]
00003C26  A960                     syscall    GetControlValue/GetCtlValue
00003C28  301F                     move.w     D0, [A7]+
00003C2A  D047                     add.w      D0, D7
00003C2C  3F00                     move.w     -[A7], D0
00003C2E  A963                     syscall    SetControlValue/SetCtlValue
00003C30  4EBA 000C                jsr        [PC + 0xC /* 00003C3E */]
label00003C34:
00003C34  2E1F                     move.l     D7, [A7]+
00003C36  4E5E                     unlink     A6
00003C38  205F                     movea.l    A0, [A7]+
00003C3A  5C8F                     addq.l     A7, 6
00003C3C  4ED0                     jmp        [A0]
fn00003C3E:
00003C3E  48E7 0708                movem.l    -[A7], D5,D6,D7,A4
00003C42  2079 FFFF BCBA           movea.l    A0, [0xFFFFBCBA]
00003C48  2850                     movea.l    A4, [A0]
00003C4A  3E2C 0008                move.w     D7, [A4 + 0x8]
00003C4E  9E54                     sub.w      D7, [A4]
00003C50  4267                     clr.w      -[A7]
00003C52  2F39 FFFF BCC2           move.l     -[A7], [0xFFFFBCC2]
00003C58  A960                     syscall    GetControlValue/GetCtlValue
00003C5A  2079 FFFF BCBA           movea.l    A0, [0xFFFFBCBA]
00003C60  2050                     movea.l    A0, [A0]
00003C62  3C28 0018                move.w     D6, [A0 + 0x18]
00003C66  CDDF                     muls.w     D6, [A7]+
00003C68  3A07                     move.w     D5, D7
00003C6A  9A46                     sub.w      D5, D6
00003C6C  4A45                     tst.w      D5
00003C6E  6718                     beq        +0x1A /* 00003C88 */
00003C70  4878 0199                push.l     0x199
00003C74  A862                     syscall    ForeColor
00003C76  4267                     clr.w      -[A7]
00003C78  3F05                     move.w     -[A7], D5
00003C7A  2F39 FFFF BCBA           move.l     -[A7], [0xFFFFBCBA]
00003C80  A812                     syscall    TEPinScroll
00003C82  4878 0021                push.l     0x21 /* '!' */
00003C86  A862                     syscall    ForeColor
label00003C88:
00003C88  4CDF 10E0                movem.l    D5,D6,D7,A4, [A7]+
00003C8C  4E75                     rts
fn00003C8E:
00003C8E  4E56 FF66                link       A6, -0x009A
00003C92  48E7 1F38                movem.l    -[A7], D3,D4,D5,D6,D7,A2,A3,A4
00003C96  7E00                     moveq.l    D7, 0x00
00003C98  7C00                     moveq.l    D6, 0x00
00003C9A  486E FFE2                pea.l      [A6 - 0x1E]
00003C9E  A874                     syscall    GetPort
00003CA0  2F3C C800 0000           move.l     -[A7], 0xC8000000
00003CA6  A8FD                     syscall    PrGlue
00003CA8  4267                     clr.w      -[A7]
00003CAA  2F3C BA00 0000           move.l     -[A7], 0xBA000000
00003CB0  A8FD                     syscall    PrGlue
00003CB2  4A5F                     tst.w      [A7]+
00003CB4  6600 033C                bne        +0x33E /* 00003FF2 */
00003CB8  7078                     moveq.l    D0, 0x78
00003CBA  A122                     syscall    NewHandle, flags=1
00003CBC  23C8 FFFF BCBE           move.l     [0xFFFFBCBE], A0
00003CC2  4A78 0220                tst.w      [0x00000220 /* MemErr */]
00003CC6  6712                     beq        +0x14 /* 00003CDA */
00003CC8  2F3C FFFF BCD0           move.l     -[A7], 0xFFFFBCD0
00003CCE  2F3C FFFF BCD2           move.l     -[A7], 0xFFFFBCD2
00003CD4  4EBA 10F8                jsr        [PC + 0x10F8 /* 00004DCE */]
00003CD8  508F                     addq.l     A7, 8
label00003CDA:
00003CDA  2F39 FFFF BCBE           move.l     -[A7], [0xFFFFBCBE]
00003CE0  2F3C 2004 0480           move.l     -[A7], 0x20040480
00003CE6  A8FD                     syscall    PrGlue
00003CE8  4267                     clr.w      -[A7]
00003CEA  2F3C BA00 0000           move.l     -[A7], 0xBA000000
00003CF0  A8FD                     syscall    PrGlue
00003CF2  4A5F                     tst.w      [A7]+
00003CF4  6712                     beq        +0x14 /* 00003D08 */
00003CF6  2F3C FFFF BCE0           move.l     -[A7], 0xFFFFBCE0
00003CFC  2F3C FFFF BCFE           move.l     -[A7], 0xFFFFBCFE
00003D02  4EBA 10CA                jsr        [PC + 0x10CA /* 00004DCE */]
00003D06  508F                     addq.l     A7, 8
label00003D08:
00003D08  4227                     clr.b      -[A7]
00003D0A  2F39 FFFF BCBE           move.l     -[A7], [0xFFFFBCBE]
00003D10  2F3C 3204 0488           move.l     -[A7], 0x32040488
00003D16  A8FD                     syscall    PrGlue
00003D18  4A1F                     tst.b      [A7]+
00003D1A  6700 02E8                beq        +0x2EA /* 00004004 */
00003D1E  4267                     clr.w      -[A7]
00003D20  2F3C BA00 0000           move.l     -[A7], 0xBA000000
00003D26  A8FD                     syscall    PrGlue
00003D28  4A5F                     tst.w      [A7]+
00003D2A  6600 02D8                bne        +0x2DA /* 00004004 */
00003D2E  42A7                     clr.l      -[A7]
00003D30  2F39 FFFF BCBE           move.l     -[A7], [0xFFFFBCBE]
00003D36  42A7                     clr.l      -[A7]
00003D38  42A7                     clr.l      -[A7]
00003D3A  2F3C 0400 0C00           move.l     -[A7], 0x4000C00
00003D40  A8FD                     syscall    PrGlue
00003D42  285F                     movea.l    A4, [A7]+
00003D44  3F3C 0003                move.w     -[A7], 0x3
00003D48  A887                     syscall    TextFont
00003D4A  3F3C 0009                move.w     -[A7], 0x9 /* '\t' */
00003D4E  A88A                     syscall    TextSize
00003D50  7A00                     moveq.l    D5, 0x00
00003D52  2079 FFFF BCBA           movea.l    A0, [0xFFFFBCBA]
00003D58  2050                     movea.l    A0, [A0]
00003D5A  3D68 0002 FFDC           move.w     [A6 - 0x24], [A0 + 0x2]
00003D60  2079 FFFF BCBA           movea.l    A0, [0xFFFFBCBA]
00003D66  2050                     movea.l    A0, [A0]
00003D68  3D68 0006 FFE0           move.w     [A6 - 0x20], [A0 + 0x6]
00003D6E  2079 FFFF BCBE           movea.l    A0, [0xFFFFBCBE]
00003D74  2050                     movea.l    A0, [A0]
00003D76  2279 FFFF BCBA           movea.l    A1, [0xFFFFBCBA]
00003D7C  2251                     movea.l    A1, [A1]
00003D7E  3368 000A 0002           move.w     [A1 + 0x2], [A0 + 0xA]
00003D84  2079 FFFF BCBE           movea.l    A0, [0xFFFFBCBE]
00003D8A  2050                     movea.l    A0, [A0]
00003D8C  2279 FFFF BCBA           movea.l    A1, [0xFFFFBCBA]
00003D92  2251                     movea.l    A1, [A1]
00003D94  3368 000E 0006           move.w     [A1 + 0x6], [A0 + 0xE]
00003D9A  2079 FFFF BCBE           movea.l    A0, [0xFFFFBCBE]
00003DA0  7008                     moveq.l    D0, 0x08
00003DA2  D090                     add.l      D0, [A0]
00003DA4  2640                     movea.l    A3, D0
00003DA6  302B 0006                move.w     D0, [A3 + 0x6]
00003DAA  906B 0002                sub.w      D0, [A3 + 0x2]
00003DAE  48C0                     ext.l      D0
00003DB0  81FC 0002                divs.w     D0, 0x2
00003DB4  3D40 FF74                move.w     [A6 - 0x8C], D0
00003DB8  2F39 FFFF BCBA           move.l     -[A7], [0xFFFFBCBA]
00003DBE  A9D0                     syscall    TECalText
00003DC0  2079 FFFF BCBA           movea.l    A0, [0xFFFFBCBA]
00003DC6  2050                     movea.l    A0, [A0]
00003DC8  2279 FFFF BCBE           movea.l    A1, [0xFFFFBCBE]
00003DCE  2251                     movea.l    A1, [A1]
00003DD0  3829 000C                move.w     D4, [A1 + 0xC]
00003DD4  48C4                     ext.l      D4
00003DD6  89E8 0018                divs.w     D4, [A0 + 0x18]
00003DDA  5744                     subq.w     D4, 3
00003DDC  42A7                     clr.l      -[A7]
00003DDE  2F39 FFFF BCBA           move.l     -[A7], [0xFFFFBCBA]
00003DE4  A9CB                     syscall    TEGetText
00003DE6  265F                     movea.l    A3, [A7]+
00003DE8  204B                     movea.l    A0, A3
00003DEA  A064                     syscall    MoveHHi
00003DEC  204B                     movea.l    A0, A3
00003DEE  A029                     syscall    HLock
00003DF0  4A78 0220                tst.w      [0x00000220 /* MemErr */]
00003DF4  6700 0152                beq        +0x154 /* 00003F48 */
00003DF8  3F3C 0001                move.w     -[A7], 0x1
00003DFC  A9C8                     syscall    SysBeep
00003DFE  6000 0148                bra        +0x14A /* 00003F48 */
label00003E02:
00003E02  2F0C                     move.l     -[A7], A4
00003E04  42A7                     clr.l      -[A7]
00003E06  2F3C 1000 0808           move.l     -[A7], 0x10000808
00003E0C  A8FD                     syscall    PrGlue
00003E0E  4267                     clr.w      -[A7]
00003E10  2079 FFFF BCBA           movea.l    A0, [0xFFFFBCBA]
00003E16  2050                     movea.l    A0, [A0]
00003E18  3F28 0018                move.w     -[A7], [A0 + 0x18]
00003E1C  A893                     syscall    MoveTo
00003E1E  3604                     move.w     D3, D4
00003E20  D645                     add.w      D3, D5
00003E22  2079 FFFF BCBA           movea.l    A0, [0xFFFFBCBA]
00003E28  2050                     movea.l    A0, [A0]
00003E2A  3D68 005E FF72           move.w     [A6 - 0x8E], [A0 + 0x5E]
00003E30  B66E FF72                cmp.w      D3, [A6 - 0x8E]
00003E34  6D06                     blt        +0x8 /* 00003E3C */
00003E36  362E FF72                move.w     D3, [A6 - 0x8E]
00003E3A  7E01                     moveq.l    D7, 0x01
label00003E3C:
00003E3C  5246                     addq.w     D6, 1
00003E3E  3F06                     move.w     -[A7], D6
00003E40  3F39 FFFF BCC6           move.w     -[A7], [0xFFFFBCC6]
00003E46  2F3C FFFF BD04           move.l     -[A7], 0xFFFFBD04
00003E4C  486E FF76                pea.l      [A6 - 0x8A]
00003E50  4EAD 050A                jsr        [A5 + 0x50A /* export_157, CODE:7 @ 000020CA */]
00003E54  486E FF76                pea.l      [A6 - 0x8A]
00003E58  4EAD 0482                jsr        [A5 + 0x482 /* export_140, CODE:7 @ 0000237C */]
00003E5C  3EBC 0005                move.w     [A7], 0x5
00003E60  A888                     syscall    TextFace
00003E62  3EBC 000C                move.w     [A7], 0xC
00003E66  A88A                     syscall    TextSize
00003E68  4257                     clr.w      [A7]
00003E6A  486E FF76                pea.l      [A6 - 0x8A]
00003E6E  A88C                     syscall    StringWidth
00003E70  301F                     move.w     D0, [A7]+
00003E72  48C0                     ext.l      D0
00003E74  81FC 0002                divs.w     D0, 0x2
00003E78  322E FF74                move.w     D1, [A6 - 0x8C]
00003E7C  9240                     sub.w      D1, D0
00003E7E  3E81                     move.w     [A7], D1
00003E80  2079 FFFF BCBA           movea.l    A0, [0xFFFFBCBA]
00003E86  2050                     movea.l    A0, [A0]
00003E88  4868 0018                pea.l      [A0 + 0x18]
00003E8C  486E FF68                pea.l      [A6 - 0x98]
00003E90  3F3C 200E                move.w     -[A7], 0x200E
00003E94  A9EB                     syscall    Pack4/FP68K
00003E96  487A 01A2                pea.l      [PC + 0x1A2 /* 0000403A, value 0x3FC00000 */]
00003E9A  486E FF68                pea.l      [A6 - 0x98]
00003E9E  3F3C 1004                move.w     -[A7], 0x1004
00003EA2  A9EB                     syscall    Pack4/FP68K
00003EA4  486E FF68                pea.l      [A6 - 0x98]
00003EA8  3F3C 0016                move.w     -[A7], 0x16
00003EAC  A9EB                     syscall    Pack4/FP68K
00003EAE  486E FF68                pea.l      [A6 - 0x98]
00003EB2  486E FF66                pea.l      [A6 - 0x9A]
00003EB6  3F3C 2010                move.w     -[A7], 0x2010
00003EBA  A9EB                     syscall    Pack4/FP68K
00003EBC  3F2E FF66                move.w     -[A7], [A6 - 0x9A]
00003EC0  A893                     syscall    MoveTo
00003EC2  486E FF76                pea.l      [A6 - 0x8A]
00003EC6  A884                     syscall    DrawString
00003EC8  4257                     clr.w      [A7]
00003ECA  A888                     syscall    TextFace
00003ECC  3EBC 0009                move.w     [A7], 0x9 /* '\t' */
00003ED0  A88A                     syscall    TextSize
00003ED2  2079 FFFF BCBA           movea.l    A0, [0xFFFFBCBA]
00003ED8  2050                     movea.l    A0, [A0]
00003EDA  2279 FFFF BCBE           movea.l    A1, [0xFFFFBCBE]
00003EE0  3028 0018                move.w     D0, [A0 + 0x18]
00003EE4  D040                     add.w      D0, D0
00003EE6  2251                     movea.l    A1, [A1]
00003EE8  D169 0008                add.w      [A1 + 0x8], D0
00003EEC  3445                     movea.w    A2, D5
00003EEE  D5CA                     add.l      A2, A2
00003EF0  2079 FFFF BCBA           movea.l    A0, [0xFFFFBCBA]
00003EF6  2010                     move.l     D0, [A0]
00003EF8  3272 0860                movea.w    A1, [A2 + D0 + 0x60]
00003EFC  D3D3                     add.l      A1, [A3]
00003EFE  2E89                     move.l     [A7], A1
00003F00  2010                     move.l     D0, [A0]
00003F02  2050                     movea.l    A0, [A0]
00003F04  D0C3                     add.w      A0, D3
00003F06  3230 3060                move.w     D1, [A0 + D3.w + 0x60]
00003F0A  9272 0860                sub.w      D1, [A2 + D0 + 0x60]
00003F0E  3041                     movea.w    A0, D1
00003F10  2F08                     move.l     -[A7], A0
00003F12  2079 FFFF BCBE           movea.l    A0, [0xFFFFBCBE]
00003F18  2050                     movea.l    A0, [A0]
00003F1A  4868 0008                pea.l      [A0 + 0x8]
00003F1E  4267                     clr.w      -[A7]
00003F20  A9CE                     syscall    TETextBox/TextBox
00003F22  2079 FFFF BCBA           movea.l    A0, [0xFFFFBCBA]
00003F28  2050                     movea.l    A0, [A0]
00003F2A  2279 FFFF BCBE           movea.l    A1, [0xFFFFBCBE]
00003F30  3028 0018                move.w     D0, [A0 + 0x18]
00003F34  D040                     add.w      D0, D0
00003F36  2251                     movea.l    A1, [A1]
00003F38  9169 0008                sub.w      [A1 + 0x8], D0
00003F3C  DA44                     add.w      D5, D4
00003F3E  2F0C                     move.l     -[A7], A4
00003F40  2F3C 1800 040C           move.l     -[A7], 0x1800040C
00003F46  A8FD                     syscall    PrGlue
label00003F48:
00003F48  4A47                     tst.w      D7
00003F4A  6610                     bne        +0x12 /* 00003F5C */
00003F4C  4267                     clr.w      -[A7]
00003F4E  2F3C BA00 0000           move.l     -[A7], 0xBA000000
00003F54  A8FD                     syscall    PrGlue
00003F56  4A5F                     tst.w      [A7]+
00003F58  6700 FEA8                beq        -0x156 /* 00003E02 */
label00003F5C:
00003F5C  204B                     movea.l    A0, A3
00003F5E  A02A                     syscall    HUnlock
00003F60  2079 FFFF BCBA           movea.l    A0, [0xFFFFBCBA]
00003F66  2050                     movea.l    A0, [A0]
00003F68  316E FFDC 0002           move.w     [A0 + 0x2], [A6 - 0x24]
00003F6E  2079 FFFF BCBA           movea.l    A0, [0xFFFFBCBA]
00003F74  2050                     movea.l    A0, [A0]
00003F76  316E FFE0 0006           move.w     [A0 + 0x6], [A6 - 0x20]
00003F7C  2F39 FFFF BCBA           move.l     -[A7], [0xFFFFBCBA]
00003F82  A9D0                     syscall    TECalText
00003F84  4A78 0220                tst.w      [0x00000220 /* MemErr */]
00003F88  6706                     beq        +0x8 /* 00003F90 */
00003F8A  3F3C 0001                move.w     -[A7], 0x1
00003F8E  A9C8                     syscall    SysBeep
label00003F90:
00003F90  4267                     clr.w      -[A7]
00003F92  2F3C BA00 0000           move.l     -[A7], 0xBA000000
00003F98  A8FD                     syscall    PrGlue
00003F9A  4A5F                     tst.w      [A7]+
00003F9C  6712                     beq        +0x14 /* 00003FB0 */
00003F9E  2F3C FFFF BD32           move.l     -[A7], 0xFFFFBD32
00003FA4  2F3C FFFF BD44           move.l     -[A7], 0xFFFFBD44
00003FAA  4EBA 0E22                jsr        [PC + 0xE22 /* 00004DCE */]
00003FAE  508F                     addq.l     A7, 8
label00003FB0:
00003FB0  2F0C                     move.l     -[A7], A4
00003FB2  2F3C 0800 0484           move.l     -[A7], 0x8000484
00003FB8  A8FD                     syscall    PrGlue
00003FBA  4267                     clr.w      -[A7]
00003FBC  2F3C BA00 0000           move.l     -[A7], 0xBA000000
00003FC2  A8FD                     syscall    PrGlue
00003FC4  4A5F                     tst.w      [A7]+
00003FC6  663C                     bne        +0x3E /* 00004004 */
00003FC8  2079 FFFF BCBE           movea.l    A0, [0xFFFFBCBE]
00003FCE  2050                     movea.l    A0, [A0]
00003FD0  0C28 0001 0044           cmpi.b     [A0 + 0x44], 0x1
00003FD6  662C                     bne        +0x2E /* 00004004 */
00003FD8  2F39 FFFF BCBE           move.l     -[A7], [0xFFFFBCBE]
00003FDE  42A7                     clr.l      -[A7]
00003FE0  42A7                     clr.l      -[A7]
00003FE2  42A7                     clr.l      -[A7]
00003FE4  486E FFE6                pea.l      [A6 - 0x1A]
00003FE8  2F3C 6005 1480           move.l     -[A7], 0x60051480
00003FEE  A8FD                     syscall    PrGlue
00003FF0  6012                     bra        +0x14 /* 00004004 */
label00003FF2:
00003FF2  2F3C FFFF BD4A           move.l     -[A7], 0xFFFFBD4A
00003FF8  2F3C FFFF BD64           move.l     -[A7], 0xFFFFBD64
00003FFE  4EBA 0DCE                jsr        [PC + 0xDCE /* 00004DCE */]
00004002  508F                     addq.l     A7, 8
label00004004:
00004004  2F3C D000 0000           move.l     -[A7], 0xD0000000
0000400A  A8FD                     syscall    PrGlue
0000400C  4267                     clr.w      -[A7]
0000400E  2F3C BA00 0000           move.l     -[A7], 0xBA000000
00004014  A8FD                     syscall    PrGlue
00004016  4A5F                     tst.w      [A7]+
00004018  6712                     beq        +0x14 /* 0000402C */
0000401A  2F3C FFFF BD6A           move.l     -[A7], 0xFFFFBD6A
00004020  2F3C FFFF BD86           move.l     -[A7], 0xFFFFBD86
00004026  4EBA 0DA6                jsr        [PC + 0xDA6 /* 00004DCE */]
0000402A  508F                     addq.l     A7, 8
label0000402C:
0000402C  2F2E FFE2                move.l     -[A7], [A6 - 0x1E]
00004030  A873                     syscall    SetPort
00004032  4CDF 1CF8                movem.l    D3,D4,D5,D6,D7,A2,A3,A4, [A7]+
00004036  4E5E                     unlink     A6
00004038  4E75                     rts
0000403A  3FC0                     move.w     <<invalid special address>>, D0
0000403C  0000 4E56                ori.b      D0, 0x56 /* 'V' */
// begin alternate branch 0000403E-00004042
fn0000403E:
0000403E  4E56 FFAC                link       A6, -0x0054
// end alternate branch 0000403E-00004042
fn0000403E: // (misaligned)
00004040  FFAC                     .invalid   <<F/6/7>>
00004042  48E7 0108                movem.l    -[A7], D7,A4
00004046  2D79 FFFF BCB6 FFB2      move.l     [A6 - 0x4E], [0xFFFFBCB6]
0000404E  2F2E FFB2                move.l     -[A7], [A6 - 0x4E]
00004052  2F3C FFFF BD8C           move.l     -[A7], 0xFFFFBD8C
00004058  2F3C FFFF BDA2           move.l     -[A7], 0xFFFFBDA2
0000405E  42A7                     clr.l      -[A7]
00004060  486E FFB6                pea.l      [A6 - 0x4A]
00004064  3F3C 0001                move.w     -[A7], 0x1
00004068  A9EA                     syscall    Pack3
0000406A  4A2E FFB6                tst.b      [A6 - 0x4A]
0000406E  6700 00AC                beq        +0xAE /* 0000411C */
00004072  4267                     clr.w      -[A7]
00004074  486E FFC0                pea.l      [A6 - 0x40]
00004078  3F2E FFBC                move.w     -[A7], [A6 - 0x44]
0000407C  2F3C 5257 4152           move.l     -[A7], 0x52574152 /* 'RWAR' */
00004082  2F3C 5445 5854           move.l     -[A7], 0x54455854 /* 'TEXT' */
00004088  4EAD 0402                jsr        [A5 + 0x402 /* export_124, CODE:7 @ 00002850 */]
0000408C  4257                     clr.w      [A7]
0000408E  486E FFC0                pea.l      [A6 - 0x40]
00004092  3F2E FFBC                move.w     -[A7], [A6 - 0x44]
00004096  486E FFB0                pea.l      [A6 - 0x50]
0000409A  4EAD 03CA                jsr        [A5 + 0x3CA /* export_117, CODE:7 @ 0000274C */]
0000409E  4A5F                     tst.w      [A7]+
000040A0  6708                     beq        +0xA /* 000040AA */
000040A2  3F3C 0001                move.w     -[A7], 0x1
000040A6  A9C8                     syscall    SysBeep
000040A8  6072                     bra        +0x74 /* 0000411C */
label000040AA:
000040AA  7E00                     moveq.l    D7, 0x00
000040AC  6054                     bra        +0x56 /* 00004102 */
label000040AE:
000040AE  42A7                     clr.l      -[A7]
000040B0  2F3C 5445 5854           move.l     -[A7], 0x54455854 /* 'TEXT' */
000040B6  3007                     move.w     D0, D7
000040B8  0640 07D0                addi.w     D0, 0x7D0
000040BC  3F00                     move.w     -[A7], D0
000040BE  A9A0                     syscall    GetResource
000040C0  285F                     movea.l    A4, [A7]+
000040C2  204C                     movea.l    A0, A4
000040C4  A029                     syscall    HLock
000040C6  42A7                     clr.l      -[A7]
000040C8  2F0C                     move.l     -[A7], A4
000040CA  4EAD 03BA                jsr        [A5 + 0x3BA /* export_115, CODE:7 @ 0000272A */]
000040CE  2D5F FFAC                move.l     [A6 - 0x54], [A7]+
000040D2  4267                     clr.w      -[A7]
000040D4  3F2E FFB0                move.w     -[A7], [A6 - 0x50]
000040D8  486E FFAC                pea.l      [A6 - 0x54]
000040DC  2F14                     move.l     -[A7], [A4]
000040DE  4EAD 03E2                jsr        [A5 + 0x3E2 /* export_120, CODE:7 @ 000027AA */]
000040E2  4A5F                     tst.w      [A7]+
000040E4  6706                     beq        +0x8 /* 000040EC */
000040E6  3F3C 0001                move.w     -[A7], 0x1
000040EA  A9C8                     syscall    SysBeep
label000040EC:
000040EC  2F0C                     move.l     -[A7], A4
000040EE  A992                     syscall    DetachResource
000040F0  BE79 FFFF BCC6           cmp.w      D7, [0xFFFFBCC6]
000040F6  6708                     beq        +0xA /* 00004100 */
000040F8  204C                     movea.l    A0, A4
000040FA  A02A                     syscall    HUnlock
000040FC  204C                     movea.l    A0, A4
000040FE  A023                     syscall    DisposHandle/DisposeHandle
label00004100:
00004100  5247                     addq.w     D7, 1
label00004102:
00004102  0C47 0009                cmpi.w     D7, 0x9 /* '\t' */
00004106  6DA6                     blt        -0x58 /* 000040AE */
00004108  4267                     clr.w      -[A7]
0000410A  3F2E FFB0                move.w     -[A7], [A6 - 0x50]
0000410E  4EAD 03D2                jsr        [A5 + 0x3D2 /* export_118, CODE:7 @ 0000278C */]
00004112  4A5F                     tst.w      [A7]+
00004114  6706                     beq        +0x8 /* 0000411C */
00004116  3F3C 0001                move.w     -[A7], 0x1
0000411A  A9C8                     syscall    SysBeep
label0000411C:
0000411C  4CDF 1080                movem.l    D7,A4, [A7]+
00004120  4E5E                     unlink     A6
00004122  4E75                     rts
fn00004124:
00004124  4E56 0000                link       A6, 0
00004128  48E7 0338                movem.l    -[A7], D6,D7,A2,A3,A4
0000412C  266E 0008                movea.l    A3, [A6 + 0x8]
00004130  7E00                     moveq.l    D7, 0x00
00004132  7C01                     moveq.l    D6, 0x01
00004134  284B                     movea.l    A4, A3
00004136  602C                     bra        +0x2E /* 00004164 */
label00004138:
00004138  3446                     movea.w    A2, D6
0000413A  D5CB                     add.l      A2, A3
0000413C  3006                     move.w     D0, D6
0000413E  0640 00DC                addi.w     D0, 0xDC
00004142  1212                     move.b     D1, [A2]
00004144  4881                     ext.w      D1
00004146  C3FC 0031                muls.w     D1, 0x31 /* '1' */
0000414A  1433 60FF                move.b     D2, [A3 + D6.w - 0x1]
0000414E  4882                     ext.w      D2
00004150  C5FC 0003                muls.w     D2, 0x3
00004154  D242                     add.w      D1, D2
00004156  48C1                     ext.l      D1
00004158  83C0                     divs.w     D1, D0
0000415A  4841                     swap.w     D1
0000415C  1481                     move.b     [A2], D1
0000415E  4881                     ext.w      D1
00004160  DE41                     add.w      D7, D1
00004162  5246                     addq.w     D6, 1
label00004164:
00004164  1014                     move.b     D0, [A4]
00004166  4880                     ext.w      D0
00004168  B046                     cmp.w      D0, D6
0000416A  6CCC                     bge        -0x32 /* 00004138 */
0000416C  3007                     move.w     D0, D7
0000416E  4CDF 1CC0                movem.l    D6,D7,A2,A3,A4, [A7]+
00004172  4E5E                     unlink     A6
00004174  4E75                     rts
00004176  4E56 FFE6                link       A6, -0x001A
0000417A  48E7 0138                movem.l    -[A7], D7,A2,A3,A4
0000417E  41EE FFE6                lea.l      A0, [A6 - 0x1A]
00004182  43F9 FFFF BDB8           lea.l      A1, [0xFFFFBDB8]
00004188  7004                     moveq.l    D0, 0x04
label0000418A:
0000418A  20D9                     move.l     [A0]+, [A1]+
0000418C  51C8 FFFC                dbf        D0, -0x6 /* 0000418A */
00004190  303C 03C2                move.w     D0, 0x3C2
00004194  C1EE 0008                muls.w     D0, [A6 + 0x8]
00004198  0680 FFFF 9764           addi.l     D0, 0xFFFF9764
0000419E  2840                     movea.l    A4, D0
000041A0  3F14                     move.w     -[A7], [A4]
000041A2  4EBA 137E                jsr        [PC + 0x137E /* 00005522 */]
000041A6  303C 03C2                move.w     D0, 0x3C2
000041AA  C1EE 0008                muls.w     D0, [A6 + 0x8]
000041AE  0680 FFFF 955E           addi.l     D0, 0xFFFF955E
000041B4  2640                     movea.l    A3, D0
000041B6  4257                     clr.w      [A7]
000041B8  2F0B                     move.l     -[A7], A3
000041BA  A997                     syscall    OpenResFile
000041BC  3D5F FFFE                move.w     [A6 - 0x2], [A7]+
000041C0  42A7                     clr.l      -[A7]
000041C2  2F3C 2140 2324           move.l     -[A7], 0x21402324 /* '!@#$' */
000041C8  3F3C 03E8                move.w     -[A7], 0x3E8
000041CC  A9A0                     syscall    GetResource
000041CE  245F                     movea.l    A2, [A7]+
000041D0  200A                     move.l     D0, A2
000041D2  6608                     bne        +0xA /* 000041DC */
000041D4  3F3C 0001                move.w     -[A7], 0x1
000041D8  A9C8                     syscall    SysBeep
000041DA  6014                     bra        +0x16 /* 000041F0 */
label000041DC:
000041DC  2F0A                     move.l     -[A7], A2
000041DE  A9AD                     syscall    RemoveResource/RmveResource
000041E0  4A78 0A60                tst.w      [0x00000A60 /* ResErr */]
000041E4  6706                     beq        +0x8 /* 000041EC */
000041E6  3F3C 0001                move.w     -[A7], 0x1
000041EA  A9C8                     syscall    SysBeep
label000041EC:
000041EC  204A                     movea.l    A0, A2
000041EE  A023                     syscall    DisposHandle/DisposeHandle
label000041F0:
000041F0  486E FFE6                pea.l      [A6 - 0x1A]
000041F4  4EBA FF2E                jsr        [PC - 0xD2 /* 00004124 */]
000041F8  102E FFE6                move.b     D0, [A6 - 0x1A]
000041FC  4880                     ext.w      D0
000041FE  48C0                     ext.l      D0
00004200  A122                     syscall    NewHandle, flags=1
00004202  2448                     movea.l    A2, A0
00004204  7E01                     moveq.l    D7, 0x01
00004206  588F                     addq.l     A7, 4
00004208  600A                     bra        +0xC /* 00004214 */
label0000420A:
0000420A  2052                     movea.l    A0, [A2]
0000420C  11B6 70E6 70FF           move.b     [A0 + D7.w - 0x1], [A6 + D7.w - 0x1A]
00004212  5247                     addq.w     D7, 1
label00004214:
00004214  102E FFE6                move.b     D0, [A6 - 0x1A]
00004218  4880                     ext.w      D0
0000421A  B047                     cmp.w      D0, D7
0000421C  6CEC                     bge        -0x12 /* 0000420A */
0000421E  2F0A                     move.l     -[A7], A2
00004220  2F3C 2140 2324           move.l     -[A7], 0x21402324 /* '!@#$' */
00004226  3F3C 03E8                move.w     -[A7], 0x3E8
0000422A  2F3C FFFF BECC           move.l     -[A7], 0xFFFFBECC
00004230  A9AB                     syscall    AddResource
00004232  4A78 0A60                tst.w      [0x00000A60 /* ResErr */]
00004236  6712                     beq        +0x14 /* 0000424A */
00004238  2F3C FFFF BED4           move.l     -[A7], 0xFFFFBED4
0000423E  2F3C FFFF BED6           move.l     -[A7], 0xFFFFBED6
00004244  4EBA 0B88                jsr        [PC + 0xB88 /* 00004DCE */]
00004248  508F                     addq.l     A7, 8
label0000424A:
0000424A  3F2E FFFE                move.w     -[A7], [A6 - 0x2]
0000424E  A99A                     syscall    CloseResFile
00004250  4EBA 12F8                jsr        [PC + 0x12F8 /* 0000554A */]
00004254  486E FFFA                pea.l      [A6 - 0x6]
00004258  3F14                     move.w     -[A7], [A4]
0000425A  2F0B                     move.l     -[A7], A3
0000425C  4EBA 0D6C                jsr        [PC + 0xD6C /* 00004FCA */]
00004260  2440                     movea.l    A2, D0
00004262  200A                     move.l     D0, A2
00004264  4FEF 000A                lea.l      A7, [A7 + 0xA]
00004268  6700 008A                beq        +0x8C /* 000042F4 */
0000426C  4267                     clr.w      -[A7]
0000426E  2F0B                     move.l     -[A7], A3
00004270  3F14                     move.w     -[A7], [A4]
00004272  486E FFFE                pea.l      [A6 - 0x2]
00004276  4EAD 03CA                jsr        [A5 + 0x3CA /* export_117, CODE:7 @ 0000274C */]
0000427A  4A5F                     tst.w      [A7]+
0000427C  6708                     beq        +0xA /* 00004286 */
0000427E  3F3C 0001                move.w     -[A7], 0x1
00004282  A9C8                     syscall    SysBeep
00004284  606E                     bra        +0x70 /* 000042F4 */
label00004286:
00004286  7E00                     moveq.l    D7, 0x00
00004288  601C                     bra        +0x1E /* 000042A6 */
label0000428A:
0000428A  7043                     moveq.l    D0, 0x43
0000428C  D007                     add.b      D0, D7
0000428E  122E FFE6                move.b     D1, [A6 - 0x1A]
00004292  4881                     ext.w      D1
00004294  2407                     move.l     D2, D7
00004296  48C2                     ext.l      D2
00004298  85C1                     divs.w     D2, D1
0000429A  4842                     swap.w     D2
0000429C  D036 20E7                add.b      D0, [A6 + D2.w - 0x19]
000042A0  D132 7000                add.b      [A2 + D7.w], D0
000042A4  5247                     addq.w     D7, 1
label000042A6:
000042A6  3047                     movea.w    A0, D7
000042A8  B1EE FFFA                cmpa.l     A0, [A6 - 0x6]
000042AC  6DDC                     blt        -0x22 /* 0000428A */
000042AE  4267                     clr.w      -[A7]
000042B0  3F2E FFFE                move.w     -[A7], [A6 - 0x2]
000042B4  486E FFFA                pea.l      [A6 - 0x6]
000042B8  2F0A                     move.l     -[A7], A2
000042BA  4EAD 03E2                jsr        [A5 + 0x3E2 /* export_120, CODE:7 @ 000027AA */]
000042BE  4A5F                     tst.w      [A7]+
000042C0  6706                     beq        +0x8 /* 000042C8 */
000042C2  3F3C 0001                move.w     -[A7], 0x1
000042C6  A9C8                     syscall    SysBeep
label000042C8:
000042C8  4267                     clr.w      -[A7]
000042CA  3F2E FFFE                move.w     -[A7], [A6 - 0x2]
000042CE  2F2E FFFA                move.l     -[A7], [A6 - 0x6]
000042D2  4EAD 041A                jsr        [A5 + 0x41A /* export_127, CODE:7 @ 000028D4 */]
000042D6  4A5F                     tst.w      [A7]+
000042D8  6706                     beq        +0x8 /* 000042E0 */
000042DA  3F3C 0001                move.w     -[A7], 0x1
000042DE  A9C8                     syscall    SysBeep
label000042E0:
000042E0  4267                     clr.w      -[A7]
000042E2  3F2E FFFE                move.w     -[A7], [A6 - 0x2]
000042E6  4EAD 03D2                jsr        [A5 + 0x3D2 /* export_118, CODE:7 @ 0000278C */]
000042EA  4A5F                     tst.w      [A7]+
000042EC  6706                     beq        +0x8 /* 000042F4 */
000042EE  3F3C 0001                move.w     -[A7], 0x1
000042F2  A9C8                     syscall    SysBeep
label000042F4:
000042F4  4CDF 1C80                movem.l    D7,A2,A3,A4, [A7]+
000042F8  4E5E                     unlink     A6
000042FA  4E75                     rts
export_58:
000042FC  4E56 0000                link       A6, 0
00004300  48E7 0308                movem.l    -[A7], D6,D7,A4
00004304  286E 000C                movea.l    A4, [A6 + 0xC]
00004308  7E00                     moveq.l    D7, 0x00
0000430A  0C54 0003                cmpi.w     [A4], 0x3
0000430E  664C                     bne        +0x4E /* 0000435C */
00004310  42A7                     clr.l      -[A7]
00004312  2F2C 0002                move.l     -[A7], [A4 + 0x2]
00004316  4878 00FF                push.l     0xFF
0000431A  A858                     syscall    BitAnd
0000431C  2C1F                     move.l     D6, [A7]+
0000431E  0C06 000D                cmpi.b     D6, 0xD /* '\r' */
00004322  6706                     beq        +0x8 /* 0000432A */
00004324  0C06 0003                cmpi.b     D6, 0x3
00004328  660C                     bne        +0xE /* 00004336 */
label0000432A:
0000432A  206E 0008                movea.l    A0, [A6 + 0x8]
0000432E  30BC 0001                move.w     [A0], 0x1
00004332  7E01                     moveq.l    D7, 0x01
00004334  6026                     bra        +0x28 /* 0000435C */
label00004336:
00004336  1006                     move.b     D0, D6
00004338  4880                     ext.w      D0
0000433A  722A                     moveq.l    D1, 0x2A
0000433C  9240                     sub.w      D1, D0
0000433E  48C1                     ext.l      D1
00004340  D3AC 0002                add.l      [A4 + 0x2], D1
00004344  5239 FFFF BDCC           addq.b     [0xFFFFBDCC], 1
0000434A  1039 FFFF BDCC           move.b     D0, [0xFFFFBDCC]
00004350  4880                     ext.w      D0
00004352  3040                     movea.w    A0, D0
00004354  D1FC FFFF BDCC           add.l      A0, 0xFFFFBDCC
0000435A  1086                     move.b     [A0], D6
label0000435C:
0000435C  1D47 0014                move.b     [A6 + 0x14], D7
00004360  4CDF 10C0                movem.l    D6,D7,A4, [A7]+
00004364  4E5E                     unlink     A6
00004366  205F                     movea.l    A0, [A7]+
00004368  4FEF 000C                lea.l      A7, [A7 + 0xC]
0000436C  4ED0                     jmp        [A0]
export_56:
fn0000436E:
0000436E  4E56 FFF8                link       A6, -0x0008
00004372  48E7 0F08                movem.l    -[A7], D4,D5,D6,D7,A4
00004376  2F3C FFFF BEF2           move.l     -[A7], 0xFFFFBEF2
0000437C  2F3C FFFF 9096           move.l     -[A7], 0xFFFF9096
00004382  2F3C FFFF 9096           move.l     -[A7], 0xFFFF9096
00004388  2F3C FFFF 9096           move.l     -[A7], 0xFFFF9096
0000438E  A98B                     syscall    ParamText
00004390  42A7                     clr.l      -[A7]
00004392  3F3C 03EA                move.w     -[A7], 0x3EA
00004396  42A7                     clr.l      -[A7]
00004398  4878 FFFF                push.l     0xFFFF
0000439C  A97C                     syscall    GetNewDialog
0000439E  285F                     movea.l    A4, [A7]+
000043A0  3F3C 0006                move.w     -[A7], 0x6
000043A4  2F0C                     move.l     -[A7], A4
000043A6  4EBA 0BEE                jsr        [PC + 0xBEE /* 00004F96 */]
000043AA  4239 FFFF BDCC           clr.b      [0xFFFFBDCC]
000043B0  5C8F                     addq.l     A7, 6
label000043B2:
000043B2  486D 01F2                pea.l      [A5 + 0x1F2 /* export_58, CODE:2 @ 000042FC */]
000043B6  486E FFFE                pea.l      [A6 - 0x2]
000043BA  A991                     syscall    ModalDialog
000043BC  0C6E 0001 FFFE           cmpi.w     [A6 - 0x2], 0x1
000043C2  66EE                     bne        -0x10 /* 000043B2 */
000043C4  2F0C                     move.l     -[A7], A4
000043C6  A983                     syscall    DisposeDialog
000043C8  7E00                     moveq.l    D7, 0x00
000043CA  0C39 0005 FFFF BDCC      cmpi.b     [0xFFFFBDCC], 0x5
000043D2  664E                     bne        +0x50 /* 00004422 */
000043D4  7C01                     moveq.l    D6, 0x01
000043D6  601A                     bra        +0x1C /* 000043F2 */
label000043D8:
000043D8  3046                     movea.w    A0, D6
000043DA  D1FC FFFF BDCC           add.l      A0, 0xFFFFBDCC
000043E0  1010                     move.b     D0, [A0]
000043E2  4880                     ext.w      D0
000043E4  3F00                     move.w     -[A7], D0
000043E6  4EAD 04CA                jsr        [A5 + 0x4CA /* export_149, CODE:7 @ 000008D6 */]
000043EA  1D80 60F7                move.b     [A6 + D6.w - 0x9], D0
000043EE  548F                     addq.l     A7, 2
000043F0  5246                     addq.w     D6, 1
label000043F2:
000043F2  0C46 0005                cmpi.w     D6, 0x5
000043F6  6FE0                     ble        -0x1E /* 000043D8 */
000043F8  0C2E 0052 FFF8           cmpi.b     [A6 - 0x8], 0x52 /* 'R' */
000043FE  6622                     bne        +0x24 /* 00004422 */
00004400  0C2E 004F FFF9           cmpi.b     [A6 - 0x7], 0x4F /* 'O' */
00004406  661A                     bne        +0x1C /* 00004422 */
00004408  0C2E 0057 FFFA           cmpi.b     [A6 - 0x6], 0x57 /* 'W' */
0000440E  6612                     bne        +0x14 /* 00004422 */
00004410  0C2E 004D FFFB           cmpi.b     [A6 - 0x5], 0x4D /* 'M' */
00004416  660A                     bne        +0xC /* 00004422 */
00004418  0C2E 0041 FFFC           cmpi.b     [A6 - 0x4], 0x41 /* 'A' */
0000441E  6602                     bne        +0x4 /* 00004422 */
00004420  7E01                     moveq.l    D7, 0x01
label00004422:
00004422  2F3C FFFF BDCC           move.l     -[A7], 0xFFFFBDCC
00004428  4EBA FCFA                jsr        [PC - 0x306 /* 00004124 */]
0000442C  7A01                     moveq.l    D5, 0x01
0000442E  7C00                     moveq.l    D6, 0x00
00004430  1839 FFFF BDCC           move.b     D4, [0xFFFFBDCC]
00004436  4884                     ext.w      D4
00004438  588F                     addq.l     A7, 4
0000443A  6018                     bra        +0x1A /* 00004454 */
label0000443C:
0000443C  3046                     movea.w    A0, D6
0000443E  D1FC FFFF BDCC           add.l      A0, 0xFFFFBDCC
00004444  226E 0008                movea.l    A1, [A6 + 0x8]
00004448  1010                     move.b     D0, [A0]
0000444A  B031 6000                cmp.b      D0, [A1 + D6.w]
0000444E  6702                     beq        +0x4 /* 00004452 */
00004450  7A00                     moveq.l    D5, 0x00
label00004452:
00004452  5246                     addq.w     D6, 1
label00004454:
00004454  B846                     cmp.w      D4, D6
00004456  6CE4                     bge        -0x1A /* 0000443C */
00004458  4A45                     tst.w      D5
0000445A  6608                     bne        +0xA /* 00004464 */
0000445C  4A47                     tst.w      D7
0000445E  6604                     bne        +0x6 /* 00004464 */
00004460  7000                     moveq.l    D0, 0x00
00004462  6002                     bra        +0x4 /* 00004466 */
label00004464:
00004464  7001                     moveq.l    D0, 0x01
label00004466:
00004466  4CDF 10F0                movem.l    D4,D5,D6,D7,A4, [A7]+
0000446A  4E5E                     unlink     A6
0000446C  4E75                     rts
fn0000446E:
0000446E  4E56 FFFA                link       A6, -0x0006
00004472  48E7 0338                movem.l    -[A7], D6,D7,A2,A3,A4
00004476  486E FFFC                pea.l      [A6 - 0x4]
0000447A  303C 03C2                move.w     D0, 0x3C2
0000447E  C1F9 FFFF 9228           muls.w     D0, [0xFFFF9228]
00004484  2040                     movea.l    A0, D0
00004486  D1FC FFFF 9764           add.l      A0, 0xFFFF9764
0000448C  3F10                     move.w     -[A7], [A0]
0000448E  303C 03C2                move.w     D0, 0x3C2
00004492  C1F9 FFFF 9228           muls.w     D0, [0xFFFF9228]
00004498  0680 FFFF 955E           addi.l     D0, 0xFFFF955E
0000449E  2F00                     move.l     -[A7], D0
000044A0  4EBA 0B28                jsr        [PC + 0xB28 /* 00004FCA */]
000044A4  2840                     movea.l    A4, D0
000044A6  200C                     move.l     D0, A4
000044A8  4FEF 000A                lea.l      A7, [A7 + 0xA]
000044AC  6700 0128                beq        +0x12A /* 000045D6 */
000044B0  303C 03C2                move.w     D0, 0x3C2
000044B4  C1F9 FFFF 9228           muls.w     D0, [0xFFFF9228]
000044BA  0680 FFFF 965E           addi.l     D0, 0xFFFF965E
000044C0  2640                     movea.l    A3, D0
000044C2  303C 03C2                move.w     D0, 0x3C2
000044C6  C1F9 FFFF 9228           muls.w     D0, [0xFFFF9228]
000044CC  0680 FFFF 965E           addi.l     D0, 0xFFFF965E
000044D2  2440                     movea.l    A2, D0
000044D4  4A13                     tst.b      [A3]
000044D6  6726                     beq        +0x28 /* 000044FE */
000044D8  7E00                     moveq.l    D7, 0x00
000044DA  601A                     bra        +0x1C /* 000044F6 */
label000044DC:
000044DC  7043                     moveq.l    D0, 0x43
000044DE  D007                     add.b      D0, D7
000044E0  1213                     move.b     D1, [A3]
000044E2  4881                     ext.w      D1
000044E4  2407                     move.l     D2, D7
000044E6  48C2                     ext.l      D2
000044E8  85C1                     divs.w     D2, D1
000044EA  4842                     swap.w     D2
000044EC  D032 2001                add.b      D0, [A2 + D2.w + 0x1]
000044F0  9134 7000                sub.b      [A4 + D7.w], D0
000044F4  5247                     addq.w     D7, 1
label000044F6:
000044F6  3047                     movea.w    A0, D7
000044F8  B1EE FFFC                cmpa.l     A0, [A6 - 0x4]
000044FC  6DDE                     blt        -0x20 /* 000044DC */
label000044FE:
000044FE  4267                     clr.w      -[A7]
00004500  303C 03C2                move.w     D0, 0x3C2
00004504  C1F9 FFFF 9228           muls.w     D0, [0xFFFF9228]
0000450A  0680 FFFF 955E           addi.l     D0, 0xFFFF955E
00004510  2F00                     move.l     -[A7], D0
00004512  303C 03C2                move.w     D0, 0x3C2
00004516  C1F9 FFFF 9228           muls.w     D0, [0xFFFF9228]
0000451C  2040                     movea.l    A0, D0
0000451E  D1FC FFFF 9764           add.l      A0, 0xFFFF9764
00004524  3F10                     move.w     -[A7], [A0]
00004526  486E FFFA                pea.l      [A6 - 0x6]
0000452A  4EAD 03CA                jsr        [A5 + 0x3CA /* export_117, CODE:7 @ 0000274C */]
0000452E  4A5F                     tst.w      [A7]+
00004530  6704                     beq        +0x6 /* 00004536 */
00004532  7C01                     moveq.l    D6, 0x01
00004534  606E                     bra        +0x70 /* 000045A4 */
label00004536:
00004536  7C00                     moveq.l    D6, 0x00
00004538  266E 0008                movea.l    A3, [A6 + 0x8]
0000453C  4A13                     tst.b      [A3]
0000453E  672A                     beq        +0x2C /* 0000456A */
00004540  7E00                     moveq.l    D7, 0x00
00004542  601E                     bra        +0x20 /* 00004562 */
label00004544:
00004544  7043                     moveq.l    D0, 0x43
00004546  D007                     add.b      D0, D7
00004548  1213                     move.b     D1, [A3]
0000454A  4881                     ext.w      D1
0000454C  2407                     move.l     D2, D7
0000454E  48C2                     ext.l      D2
00004550  85C1                     divs.w     D2, D1
00004552  4842                     swap.w     D2
00004554  206E 0008                movea.l    A0, [A6 + 0x8]
00004558  D030 2001                add.b      D0, [A0 + D2.w + 0x1]
0000455C  D134 7000                add.b      [A4 + D7.w], D0
00004560  5247                     addq.w     D7, 1
label00004562:
00004562  3047                     movea.w    A0, D7
00004564  B1EE FFFC                cmpa.l     A0, [A6 - 0x4]
00004568  6DDA                     blt        -0x24 /* 00004544 */
label0000456A:
0000456A  4267                     clr.w      -[A7]
0000456C  3F2E FFFA                move.w     -[A7], [A6 - 0x6]
00004570  486E FFFC                pea.l      [A6 - 0x4]
00004574  2F0C                     move.l     -[A7], A4
00004576  4EAD 03E2                jsr        [A5 + 0x3E2 /* export_120, CODE:7 @ 000027AA */]
0000457A  4A5F                     tst.w      [A7]+
0000457C  6702                     beq        +0x4 /* 00004580 */
0000457E  7C01                     moveq.l    D6, 0x01
label00004580:
00004580  4267                     clr.w      -[A7]
00004582  3F2E FFFA                move.w     -[A7], [A6 - 0x6]
00004586  2F2E FFFC                move.l     -[A7], [A6 - 0x4]
0000458A  4EAD 041A                jsr        [A5 + 0x41A /* export_127, CODE:7 @ 000028D4 */]
0000458E  4A5F                     tst.w      [A7]+
00004590  6702                     beq        +0x4 /* 00004594 */
00004592  7C01                     moveq.l    D6, 0x01
label00004594:
00004594  4267                     clr.w      -[A7]
00004596  3F2E FFFA                move.w     -[A7], [A6 - 0x6]
0000459A  4EAD 03D2                jsr        [A5 + 0x3D2 /* export_118, CODE:7 @ 0000278C */]
0000459E  4A5F                     tst.w      [A7]+
000045A0  6702                     beq        +0x4 /* 000045A4 */
000045A2  7C01                     moveq.l    D6, 0x01
label000045A4:
000045A4  4A46                     tst.w      D6
000045A6  6712                     beq        +0x14 /* 000045BA */
000045A8  2F3C FFFF BF06           move.l     -[A7], 0xFFFFBF06
000045AE  2F3C FFFF BF08           move.l     -[A7], 0xFFFFBF08
000045B4  4EBA 0818                jsr        [PC + 0x818 /* 00004DCE */]
000045B8  508F                     addq.l     A7, 8
label000045BA:
000045BA  204C                     movea.l    A0, A4
000045BC  A01F                     syscall    DisposPtr/DisposePtr
000045BE  4A78 0220                tst.w      [0x00000220 /* MemErr */]
000045C2  6712                     beq        +0x14 /* 000045D6 */
000045C4  2F3C FFFF BF1C           move.l     -[A7], 0xFFFFBF1C
000045CA  2F3C FFFF BF1E           move.l     -[A7], 0xFFFFBF1E
000045D0  4EBA 07FC                jsr        [PC + 0x7FC /* 00004DCE */]
000045D4  508F                     addq.l     A7, 8
label000045D6:
000045D6  4CDF 1CC0                movem.l    D6,D7,A2,A3,A4, [A7]+
000045DA  4E5E                     unlink     A6
000045DC  4E75                     rts
export_57:
000045DE  4E56 FEF6                link       A6, -0x010A
000045E2  48E7 0738                movem.l    -[A7], D5,D6,D7,A2,A3,A4
000045E6  303C 03C2                move.w     D0, 0x3C2
000045EA  C1F9 FFFF 9228           muls.w     D0, [0xFFFF9228]
000045F0  2040                     movea.l    A0, D0
000045F2  D1FC FFFF 9672           add.l      A0, 0xFFFF9672
000045F8  4A10                     tst.b      [A0]
000045FA  6630                     bne        +0x32 /* 0000462C */
000045FC  303C 03C2                move.w     D0, 0x3C2
00004600  C1F9 FFFF 9228           muls.w     D0, [0xFFFF9228]
00004606  0680 FFFF 965E           addi.l     D0, 0xFFFF965E
0000460C  2F00                     move.l     -[A7], D0
0000460E  4EBA FD5E                jsr        [PC - 0x2A2 /* 0000436E */]
00004612  4A40                     tst.w      D0
00004614  588F                     addq.l     A7, 4
00004616  6614                     bne        +0x16 /* 0000462C */
00004618  2F3C FFFF BF2C           move.l     -[A7], 0xFFFFBF2C
0000461E  2F3C FFFF BF2E           move.l     -[A7], 0xFFFFBF2E
00004624  4EBA 07A8                jsr        [PC + 0x7A8 /* 00004DCE */]
00004628  6000 03BA                bra        +0x3BC /* 000049E4 */
label0000462C:
0000462C  2F3C FFFF BF4A           move.l     -[A7], 0xFFFFBF4A
00004632  2F3C FFFF 9096           move.l     -[A7], 0xFFFF9096
00004638  2F3C FFFF 9096           move.l     -[A7], 0xFFFF9096
0000463E  2F3C FFFF 9096           move.l     -[A7], 0xFFFF9096
00004644  A98B                     syscall    ParamText
00004646  4239 FFFF BDCC           clr.b      [0xFFFFBDCC]
0000464C  42A7                     clr.l      -[A7]
0000464E  3F3C 03EA                move.w     -[A7], 0x3EA
00004652  42A7                     clr.l      -[A7]
00004654  4878 FFFF                push.l     0xFFFF
00004658  A97C                     syscall    GetNewDialog
0000465A  285F                     movea.l    A4, [A7]+
0000465C  3F3C 0006                move.w     -[A7], 0x6
00004660  2F0C                     move.l     -[A7], A4
00004662  4EBA 0932                jsr        [PC + 0x932 /* 00004F96 */]
00004666  5C8F                     addq.l     A7, 6
label00004668:
00004668  486D 01F2                pea.l      [A5 + 0x1F2 /* export_58, CODE:2 @ 000042FC */]
0000466C  486E FEF6                pea.l      [A6 - 0x10A]
00004670  A991                     syscall    ModalDialog
00004672  0C6E 0001 FEF6           cmpi.w     [A6 - 0x10A], 0x1
00004678  66EE                     bne        -0x10 /* 00004668 */
0000467A  7E00                     moveq.l    D7, 0x00
0000467C  6012                     bra        +0x14 /* 00004690 */
label0000467E:
0000467E  3047                     movea.w    A0, D7
00004680  D1FC FFFF BDCC           add.l      A0, 0xFFFFBDCC
00004686  224E                     movea.l    A1, A6
00004688  D2C7                     add.w      A1, D7
0000468A  1350 FF00                move.b     [A1 - 0x100], [A0]
0000468E  5247                     addq.w     D7, 1
label00004690:
00004690  1039 FFFF BDCC           move.b     D0, [0xFFFFBDCC]
00004696  4880                     ext.w      D0
00004698  B047                     cmp.w      D0, D7
0000469A  6CE2                     bge        -0x1C /* 0000467E */
0000469C  0C2E 0013 FF00           cmpi.b     [A6 - 0x100], 0x13
000046A2  6F06                     ble        +0x8 /* 000046AA */
000046A4  1D7C 0013 FF00           move.b     [A6 - 0x100], 0x13
label000046AA:
000046AA  2F0C                     move.l     -[A7], A4
000046AC  A983                     syscall    DisposeDialog
000046AE  4A2E FF00                tst.b      [A6 - 0x100]
000046B2  6700 00A6                beq        +0xA8 /* 0000475A */
000046B6  7C01                     moveq.l    D6, 0x01
000046B8  2F3C FFFF BF6E           move.l     -[A7], 0xFFFFBF6E
000046BE  2F3C FFFF 9096           move.l     -[A7], 0xFFFF9096
000046C4  2F3C FFFF 9096           move.l     -[A7], 0xFFFF9096
000046CA  2F3C FFFF 9096           move.l     -[A7], 0xFFFF9096
000046D0  A98B                     syscall    ParamText
000046D2  42A7                     clr.l      -[A7]
000046D4  3F3C 03EA                move.w     -[A7], 0x3EA
000046D8  42A7                     clr.l      -[A7]
000046DA  4878 FFFF                push.l     0xFFFF
000046DE  A97C                     syscall    GetNewDialog
000046E0  285F                     movea.l    A4, [A7]+
000046E2  3F3C 0006                move.w     -[A7], 0x6
000046E6  2F0C                     move.l     -[A7], A4
000046E8  4EBA 08AC                jsr        [PC + 0x8AC /* 00004F96 */]
000046EC  4239 FFFF BDCC           clr.b      [0xFFFFBDCC]
000046F2  5C8F                     addq.l     A7, 6
label000046F4:
000046F4  486D 01F2                pea.l      [A5 + 0x1F2 /* export_58, CODE:2 @ 000042FC */]
000046F8  486E FEF6                pea.l      [A6 - 0x10A]
000046FC  A991                     syscall    ModalDialog
000046FE  0C6E 0001 FEF6           cmpi.w     [A6 - 0x10A], 0x1
00004704  66EE                     bne        -0x10 /* 000046F4 */
00004706  0C39 0013 FFFF BDCC      cmpi.b     [0xFFFFBDCC], 0x13
0000470E  6F08                     ble        +0xA /* 00004718 */
00004710  13FC 0013 FFFF BDCC      move.b     [0xFFFFBDCC], 0x13
label00004718:
00004718  2F0C                     move.l     -[A7], A4
0000471A  A983                     syscall    DisposeDialog
0000471C  7E00                     moveq.l    D7, 0x00
0000471E  1A2E FF00                move.b     D5, [A6 - 0x100]
00004722  4885                     ext.w      D5
00004724  6018                     bra        +0x1A /* 0000473E */
label00004726:
00004726  3047                     movea.w    A0, D7
00004728  D1FC FFFF BDCC           add.l      A0, 0xFFFFBDCC
0000472E  224E                     movea.l    A1, A6
00004730  D2C7                     add.w      A1, D7
00004732  1010                     move.b     D0, [A0]
00004734  B029 FF00                cmp.b      D0, [A1 - 0x100]
00004738  6702                     beq        +0x4 /* 0000473C */
0000473A  7C00                     moveq.l    D6, 0x00
label0000473C:
0000473C  5247                     addq.w     D7, 1
label0000473E:
0000473E  BA47                     cmp.w      D5, D7
00004740  6CE4                     bge        -0x1A /* 00004726 */
00004742  4A46                     tst.w      D6
00004744  6616                     bne        +0x18 /* 0000475C */
00004746  2F3C FFFF BF84           move.l     -[A7], 0xFFFFBF84
0000474C  2F3C FFFF BF90           move.l     -[A7], 0xFFFFBF90
00004752  4EBA 067A                jsr        [PC + 0x67A /* 00004DCE */]
00004756  508F                     addq.l     A7, 8
00004758  6002                     bra        +0x4 /* 0000475C */
label0000475A:
0000475A  7C00                     moveq.l    D6, 0x00
label0000475C:
0000475C  4A46                     tst.w      D6
0000475E  6700 0142                beq        +0x144 /* 000048A2 */
00004762  486E FF00                pea.l      [A6 - 0x100]
00004766  4EBA F9BC                jsr        [PC - 0x644 /* 00004124 */]
0000476A  486E FF00                pea.l      [A6 - 0x100]
0000476E  4EBA FCFE                jsr        [PC - 0x302 /* 0000446E */]
00004772  7E00                     moveq.l    D7, 0x00
00004774  303C 03C2                move.w     D0, 0x3C2
00004778  C1F9 FFFF 9228           muls.w     D0, [0xFFFF9228]
0000477E  0680 FFFF 965E           addi.l     D0, 0xFFFF965E
00004784  2840                     movea.l    A4, D0
00004786  508F                     addq.l     A7, 8
00004788  600C                     bra        +0xE /* 00004796 */
label0000478A:
0000478A  204E                     movea.l    A0, A6
0000478C  D0C7                     add.w      A0, D7
0000478E  19A8 FF00 7000           move.b     [A4 + D7.w], [A0 - 0x100]
00004794  5247                     addq.w     D7, 1
label00004796:
00004796  102E FF00                move.b     D0, [A6 - 0x100]
0000479A  4880                     ext.w      D0
0000479C  B047                     cmp.w      D0, D7
0000479E  6CEA                     bge        -0x14 /* 0000478A */
000047A0  303C 03C2                move.w     D0, 0x3C2
000047A4  C1F9 FFFF 9228           muls.w     D0, [0xFFFF9228]
000047AA  2040                     movea.l    A0, D0
000047AC  D1FC FFFF 9764           add.l      A0, 0xFFFF9764
000047B2  3F10                     move.w     -[A7], [A0]
000047B4  4EBA 0D6C                jsr        [PC + 0xD6C /* 00005522 */]
000047B8  4257                     clr.w      [A7]
000047BA  303C 03C2                move.w     D0, 0x3C2
000047BE  C1F9 FFFF 9228           muls.w     D0, [0xFFFF9228]
000047C4  0680 FFFF 955E           addi.l     D0, 0xFFFF955E
000047CA  2F00                     move.l     -[A7], D0
000047CC  A997                     syscall    OpenResFile
000047CE  3C1F                     move.w     D6, [A7]+
000047D0  42A7                     clr.l      -[A7]
000047D2  2F3C 2140 2324           move.l     -[A7], 0x21402324 /* '!@#$' */
000047D8  3F3C 03E8                move.w     -[A7], 0x3E8
000047DC  A9A0                     syscall    GetResource
000047DE  265F                     movea.l    A3, [A7]+
000047E0  200B                     move.l     D0, A3
000047E2  6714                     beq        +0x16 /* 000047F8 */
000047E4  2F0B                     move.l     -[A7], A3
000047E6  A9AD                     syscall    RemoveResource/RmveResource
000047E8  4A78 0A60                tst.w      [0x00000A60 /* ResErr */]
000047EC  6706                     beq        +0x8 /* 000047F4 */
000047EE  3F3C 0001                move.w     -[A7], 0x1
000047F2  A9C8                     syscall    SysBeep
label000047F4:
000047F4  204B                     movea.l    A0, A3
000047F6  A023                     syscall    DisposHandle/DisposeHandle
label000047F8:
000047F8  3F06                     move.w     -[A7], D6
000047FA  A99A                     syscall    CloseResFile
000047FC  4267                     clr.w      -[A7]
000047FE  303C 03C2                move.w     D0, 0x3C2
00004802  C1F9 FFFF 9228           muls.w     D0, [0xFFFF9228]
00004808  0680 FFFF 955E           addi.l     D0, 0xFFFF955E
0000480E  2F00                     move.l     -[A7], D0
00004810  A997                     syscall    OpenResFile
00004812  3C1F                     move.w     D6, [A7]+
00004814  303C 03C2                move.w     D0, 0x3C2
00004818  C1F9 FFFF 9228           muls.w     D0, [0xFFFF9228]
0000481E  2040                     movea.l    A0, D0
00004820  D1FC FFFF 965E           add.l      A0, 0xFFFF965E
00004826  1010                     move.b     D0, [A0]
00004828  4880                     ext.w      D0
0000482A  48C0                     ext.l      D0
0000482C  A122                     syscall    NewHandle, flags=1
0000482E  2648                     movea.l    A3, A0
00004830  7E01                     moveq.l    D7, 0x01
00004832  303C 03C2                move.w     D0, 0x3C2
00004836  C1F9 FFFF 9228           muls.w     D0, [0xFFFF9228]
0000483C  0680 FFFF 965E           addi.l     D0, 0xFFFF965E
00004842  2840                     movea.l    A4, D0
00004844  303C 03C2                move.w     D0, 0x3C2
00004848  C1F9 FFFF 9228           muls.w     D0, [0xFFFF9228]
0000484E  0680 FFFF 965E           addi.l     D0, 0xFFFF965E
00004854  2440                     movea.l    A2, D0
00004856  600A                     bra        +0xC /* 00004862 */
label00004858:
00004858  2053                     movea.l    A0, [A3]
0000485A  11B4 7000 70FF           move.b     [A0 + D7.w - 0x1], [A4 + D7.w]
00004860  5247                     addq.w     D7, 1
label00004862:
00004862  1012                     move.b     D0, [A2]
00004864  4880                     ext.w      D0
00004866  B047                     cmp.w      D0, D7
00004868  6CEE                     bge        -0x10 /* 00004858 */
0000486A  2F0B                     move.l     -[A7], A3
0000486C  2F3C 2140 2324           move.l     -[A7], 0x21402324 /* '!@#$' */
00004872  3F3C 03E8                move.w     -[A7], 0x3E8
00004876  2F3C FFFF BFA6           move.l     -[A7], 0xFFFFBFA6
0000487C  A9AB                     syscall    AddResource
0000487E  4A78 0A60                tst.w      [0x00000A60 /* ResErr */]
00004882  6712                     beq        +0x14 /* 00004896 */
00004884  2F3C FFFF BFAE           move.l     -[A7], 0xFFFFBFAE
0000488A  2F3C FFFF BFB0           move.l     -[A7], 0xFFFFBFB0
00004890  4EBA 053C                jsr        [PC + 0x53C /* 00004DCE */]
00004894  508F                     addq.l     A7, 8
label00004896:
00004896  3F06                     move.w     -[A7], D6
00004898  A99A                     syscall    CloseResFile
0000489A  4EBA 0CAE                jsr        [PC + 0xCAE /* 0000554A */]
0000489E  6000 00A2                bra        +0xA4 /* 00004942 */
label000048A2:
000048A2  303C 03C2                move.w     D0, 0x3C2
000048A6  C1F9 FFFF 9228           muls.w     D0, [0xFFFF9228]
000048AC  2040                     movea.l    A0, D0
000048AE  D1FC FFFF 965E           add.l      A0, 0xFFFF965E
000048B4  4A10                     tst.b      [A0]
000048B6  6700 008A                beq        +0x8C /* 00004942 */
000048BA  2F3C FFFF BFCC           move.l     -[A7], 0xFFFFBFCC
000048C0  4EBA FBAC                jsr        [PC - 0x454 /* 0000446E */]
000048C4  303C 03C2                move.w     D0, 0x3C2
000048C8  C1F9 FFFF 9228           muls.w     D0, [0xFFFF9228]
000048CE  2040                     movea.l    A0, D0
000048D0  D1FC FFFF 965E           add.l      A0, 0xFFFF965E
000048D6  4210                     clr.b      [A0]
000048D8  303C 03C2                move.w     D0, 0x3C2
000048DC  C1F9 FFFF 9228           muls.w     D0, [0xFFFF9228]
000048E2  2040                     movea.l    A0, D0
000048E4  D1FC FFFF 9764           add.l      A0, 0xFFFF9764
000048EA  3E90                     move.w     [A7], [A0]
000048EC  4EBA 0C34                jsr        [PC + 0xC34 /* 00005522 */]
000048F0  4257                     clr.w      [A7]
000048F2  303C 03C2                move.w     D0, 0x3C2
000048F6  C1F9 FFFF 9228           muls.w     D0, [0xFFFF9228]
000048FC  0680 FFFF 955E           addi.l     D0, 0xFFFF955E
00004902  2F00                     move.l     -[A7], D0
00004904  A997                     syscall    OpenResFile
00004906  3C1F                     move.w     D6, [A7]+
00004908  42A7                     clr.l      -[A7]
0000490A  2F3C 2140 2324           move.l     -[A7], 0x21402324 /* '!@#$' */
00004910  3F3C 03E8                move.w     -[A7], 0x3E8
00004914  A9A0                     syscall    GetResource
00004916  265F                     movea.l    A3, [A7]+
00004918  200B                     move.l     D0, A3
0000491A  548F                     addq.l     A7, 2
0000491C  6608                     bne        +0xA /* 00004926 */
0000491E  3F3C 0001                move.w     -[A7], 0x1
00004922  A9C8                     syscall    SysBeep
00004924  6014                     bra        +0x16 /* 0000493A */
label00004926:
00004926  2F0B                     move.l     -[A7], A3
00004928  A9AD                     syscall    RemoveResource/RmveResource
0000492A  4A78 0A60                tst.w      [0x00000A60 /* ResErr */]
0000492E  6706                     beq        +0x8 /* 00004936 */
00004930  3F3C 0001                move.w     -[A7], 0x1
00004934  A9C8                     syscall    SysBeep
label00004936:
00004936  204B                     movea.l    A0, A3
00004938  A023                     syscall    DisposHandle/DisposeHandle
label0000493A:
0000493A  3F06                     move.w     -[A7], D6
0000493C  A99A                     syscall    CloseResFile
0000493E  4EBA 0C0A                jsr        [PC + 0xC0A /* 0000554A */]
label00004942:
00004942  0C79 0001 FFFF 9224      cmpi.w     [0xFFFF9224], 0x1
0000494A  661E                     bne        +0x20 /* 0000496A */
0000494C  3D7C 0064 FEF8           move.w     [A6 - 0x108], 0x64 /* 'd' */
00004952  3D7C 006E FEFC           move.w     [A6 - 0x104], 0x6E /* 'n' */
00004958  3D7C 01A4 FEFA           move.w     [A6 - 0x106], 0x1A4
0000495E  3D7C 01F2 FEFE           move.w     [A6 - 0x102], 0x1F2
00004964  486E FEF8                pea.l      [A6 - 0x108]
00004968  A928                     syscall    InvalRect
label0000496A:
0000496A  303C 03C2                move.w     D0, 0x3C2
0000496E  C1F9 FFFF 9228           muls.w     D0, [0xFFFF9228]
00004974  2040                     movea.l    A0, D0
00004976  D1FC FFFF 9672           add.l      A0, 0xFFFF9672
0000497C  10BC 0001                move.b     [A0], 0x1
00004980  7E00                     moveq.l    D7, 0x00
00004982  267C FFFF 9442           movea.l    A3, 0xFFFF9442
00004988  6052                     bra        +0x54 /* 000049DC */
label0000498A:
0000498A  3F07                     move.w     -[A7], D7
0000498C  4EBA 0B06                jsr        [PC + 0xB06 /* 00005494 */]
00004990  4A00                     tst.b      D0
00004992  548F                     addq.l     A7, 2
00004994  6740                     beq        +0x42 /* 000049D6 */
00004996  303C 03C2                move.w     D0, 0x3C2
0000499A  C1F9 FFFF 9228           muls.w     D0, [0xFFFF9228]
000049A0  2040                     movea.l    A0, D0
000049A2  D1FC FFFF 9672           add.l      A0, 0xFFFF9672
000049A8  1750 0230                move.b     [A3 + 0x230], [A0]
000049AC  7C00                     moveq.l    D6, 0x00
000049AE  45EB 021C                lea.l      A2, [A3 + 0x21C]
000049B2  303C 03C2                move.w     D0, 0x3C2
000049B6  C1F9 FFFF 9228           muls.w     D0, [0xFFFF9228]
000049BC  0680 FFFF 965E           addi.l     D0, 0xFFFF965E
000049C2  2840                     movea.l    A4, D0
000049C4  6008                     bra        +0xA /* 000049CE */
label000049C6:
000049C6  15B4 6000 6000           move.b     [A2 + D6.w], [A4 + D6.w]
000049CC  5246                     addq.w     D6, 1
label000049CE:
000049CE  BC79 FFFF 9226           cmp.w      D6, [0xFFFF9226]
000049D4  6DF0                     blt        -0xE /* 000049C6 */
label000049D6:
000049D6  5247                     addq.w     D7, 1
000049D8  47EB 03C2                lea.l      A3, [A3 + 0x3C2]
label000049DC:
000049DC  BE79 FFFF 9226           cmp.w      D7, [0xFFFF9226]
000049E2  6DA6                     blt        -0x58 /* 0000498A */
label000049E4:
000049E4  4CEE 1CE0 FEDE           movem.l    D5,D6,D7,A2,A3,A4, [A6 - 0x122]
000049EA  4E5E                     unlink     A6
000049EC  4E75                     rts
export_59:
000049EE  4E56 FF9C                link       A6, -0x0064
000049F2  4267                     clr.w      -[A7]
000049F4  42A7                     clr.l      -[A7]
000049F6  2F3C FFFF BFCE           move.l     -[A7], 0xFFFFBFCE
000049FC  4EAD 03EA                jsr        [A5 + 0x3EA /* export_121, CODE:7 @ 000027EE */]
00004A00  4257                     clr.w      [A7]
00004A02  2F3C FFFF BFD0           move.l     -[A7], 0xFFFFBFD0
00004A08  3F39 FFFF BFCE           move.w     -[A7], [0xFFFFBFCE]
00004A0E  486E FFFE                pea.l      [A6 - 0x2]
00004A12  4EAD 03CA                jsr        [A5 + 0x3CA /* export_117, CODE:7 @ 0000274C */]
00004A16  4A5F                     tst.w      [A7]+
00004A18  672A                     beq        +0x2C /* 00004A44 */
00004A1A  4239 FFFF 91CE           clr.b      [0xFFFF91CE]
00004A20  33FC 0001 FFFF 9230      move.w     [0xFFFF9230], 0x1
00004A28  33FC 0001 FFFF 9232      move.w     [0xFFFF9232], 0x1
00004A30  33FC 0001 FFFF 9236      move.w     [0xFFFF9236], 0x1
00004A38  33FC 0009 FFFF B7CE      move.w     [0xFFFFB7CE], 0x9 /* '\t' */
00004A40  6000 00CE                bra        +0xD0 /* 00004B10 */
label00004A44:
00004A44  705E                     moveq.l    D0, 0x5E
00004A46  2D40 FF9C                move.l     [A6 - 0x64], D0
00004A4A  4267                     clr.w      -[A7]
00004A4C  3F2E FFFE                move.w     -[A7], [A6 - 0x2]
00004A50  486E FF9C                pea.l      [A6 - 0x64]
00004A54  486E FFA0                pea.l      [A6 - 0x60]
00004A58  4EAD 03DA                jsr        [A5 + 0x3DA /* export_119, CODE:7 @ 000027A6 */]
00004A5C  33EE FFA2 FFFF 9230      move.w     [0xFFFF9230], [A6 - 0x5E]
00004A64  4A79 FFFF 9230           tst.w      [0xFFFF9230]
00004A6A  548F                     addq.l     A7, 2
00004A6C  6608                     bne        +0xA /* 00004A76 */
00004A6E  33FC 0002 FFFF 9230      move.w     [0xFFFF9230], 0x2
label00004A76:
00004A76  33EE FFA4 FFFF 9232      move.w     [0xFFFF9232], [A6 - 0x5C]
00004A7E  33EE FFA6 FFFF 9236      move.w     [0xFFFF9236], [A6 - 0x5A]
00004A86  33EE FFA8 FFFF B7CE      move.w     [0xFFFFB7CE], [A6 - 0x58]
00004A8E  486E FFAE                pea.l      [A6 - 0x52]
00004A92  4EBA 012E                jsr        [PC + 0x12E /* 00004BC2 */]
00004A96  B0AE FFAA                cmp.l      D0, [A6 - 0x56]
00004A9A  588F                     addq.l     A7, 4
00004A9C  661A                     bne        +0x1C /* 00004AB8 */
00004A9E  23EE FFAA FFFF 921E      move.l     [0xFFFF921E], [A6 - 0x56]
00004AA6  486E FFAE                pea.l      [A6 - 0x52]
00004AAA  2F3C FFFF 91CE           move.l     -[A7], 0xFFFF91CE
00004AB0  4EAD 051A                jsr        [A5 + 0x51A /* export_159, CODE:7 @ 000021A6 */]
00004AB4  508F                     addq.l     A7, 8
00004AB6  600C                     bra        +0xE /* 00004AC4 */
label00004AB8:
00004AB8  42B9 FFFF 921E           clr.l      [0xFFFF921E]
00004ABE  4239 FFFF 91CE           clr.b      [0xFFFF91CE]
label00004AC4:
00004AC4  4267                     clr.w      -[A7]
00004AC6  3F2E FFFE                move.w     -[A7], [A6 - 0x2]
00004ACA  4EAD 03D2                jsr        [A5 + 0x3D2 /* export_118, CODE:7 @ 0000278C */]
00004ACE  2F39 FFFF 7D52           move.l     -[A7], [0xFFFF7D52]
00004AD4  3F39 FFFF 9230           move.w     -[A7], [0xFFFF9230]
00004ADA  1F3C 0001                move.b     -[A7], 0x1
00004ADE  A945                     syscall    CheckItem
00004AE0  2F39 FFFF 7D4A           move.l     -[A7], [0xFFFF7D4A]
00004AE6  3F3C 0007                move.w     -[A7], 0x7
00004AEA  4A79 FFFF 9232           tst.w      [0xFFFF9232]
00004AF0  57C0                     seq        D0
00004AF2  4400                     neg.b      D0
00004AF4  1F00                     move.b     -[A7], D0
00004AF6  A945                     syscall    CheckItem
00004AF8  2F39 FFFF 7D4E           move.l     -[A7], [0xFFFF7D4E]
00004AFE  7001                     moveq.l    D0, 0x01
00004B00  D079 FFFF 9236           add.w      D0, [0xFFFF9236]
00004B06  3F00                     move.w     -[A7], D0
00004B08  1F3C 0001                move.b     -[A7], 0x1
00004B0C  A945                     syscall    CheckItem
00004B0E  548F                     addq.l     A7, 2
label00004B10:
00004B10  33F9 FFFF 9232 FFFF 9234 move.w     [0xFFFF9234], [0xFFFF9232]
00004B1A  4E5E                     unlink     A6
00004B1C  4E75                     rts
export_60:
00004B1E  4E56 FF9A                link       A6, -0x0066
00004B22  4267                     clr.w      -[A7]
00004B24  2F3C FFFF BFDA           move.l     -[A7], 0xFFFFBFDA
00004B2A  3F39 FFFF BFCE           move.w     -[A7], [0xFFFFBFCE]
00004B30  2F3C 5257 4152           move.l     -[A7], 0x52574152 /* 'RWAR' */
00004B36  2F3C 526F 6250           move.l     -[A7], 0x526F6250 /* 'RobP' */
00004B3C  4EAD 0402                jsr        [A5 + 0x402 /* export_124, CODE:7 @ 00002850 */]
00004B40  4257                     clr.w      [A7]
00004B42  2F3C FFFF BFE4           move.l     -[A7], 0xFFFFBFE4
00004B48  3F39 FFFF BFCE           move.w     -[A7], [0xFFFFBFCE]
00004B4E  486E FFFE                pea.l      [A6 - 0x2]
00004B52  4EAD 03CA                jsr        [A5 + 0x3CA /* export_117, CODE:7 @ 0000274C */]
00004B56  4A5F                     tst.w      [A7]+
00004B58  6664                     bne        +0x66 /* 00004BBE */
00004B5A  3D7C 0016 FFA0           move.w     [A6 - 0x60], 0x16
00004B60  3D79 FFFF 9230 FFA2      move.w     [A6 - 0x5E], [0xFFFF9230]
00004B68  3D79 FFFF 9232 FFA4      move.w     [A6 - 0x5C], [0xFFFF9232]
00004B70  3D79 FFFF 9236 FFA6      move.w     [A6 - 0x5A], [0xFFFF9236]
00004B78  3D79 FFFF B7CE FFA8      move.w     [A6 - 0x58], [0xFFFFB7CE]
00004B80  2D79 FFFF 921E FFAA      move.l     [A6 - 0x56], [0xFFFF921E]
00004B88  2F3C FFFF 91CE           move.l     -[A7], 0xFFFF91CE
00004B8E  486E FFAE                pea.l      [A6 - 0x52]
00004B92  4EAD 051A                jsr        [A5 + 0x51A /* export_159, CODE:7 @ 000021A6 */]
00004B96  705E                     moveq.l    D0, 0x5E
00004B98  2D40 FF9C                move.l     [A6 - 0x64], D0
00004B9C  4257                     clr.w      [A7]
00004B9E  3F2E FFFE                move.w     -[A7], [A6 - 0x2]
00004BA2  486E FF9C                pea.l      [A6 - 0x64]
00004BA6  486E FFA0                pea.l      [A6 - 0x60]
00004BAA  4EAD 03E2                jsr        [A5 + 0x3E2 /* export_120, CODE:7 @ 000027AA */]
00004BAE  3D5F FF9A                move.w     [A6 - 0x66], [A7]+
00004BB2  4257                     clr.w      [A7]
00004BB4  3F2E FFFE                move.w     -[A7], [A6 - 0x2]
00004BB8  4EAD 03D2                jsr        [A5 + 0x3D2 /* export_118, CODE:7 @ 0000278C */]
00004BBC  5C8F                     addq.l     A7, 6
label00004BBE:
00004BBE  4E5E                     unlink     A6
00004BC0  4E75                     rts
fn00004BC2:
00004BC2  4E56 0000                link       A6, 0
00004BC6  48E7 0300                movem.l    -[A7], D6,D7
00004BCA  7E00                     moveq.l    D7, 0x00
00004BCC  2C3C 0000 1080           move.l     D6, 0x1080
00004BD2  6012                     bra        +0x14 /* 00004BE6 */
label00004BD4:
00004BD4  206E 0008                movea.l    A0, [A6 + 0x8]
00004BD8  1030 70FF                move.b     D0, [A0 + D7.w - 0x1]
00004BDC  4880                     ext.w      D0
00004BDE  C1C7                     muls.w     D0, D7
00004BE0  D047                     add.w      D0, D7
00004BE2  3240                     movea.w    A1, D0
00004BE4  DC89                     add.l      D6, A1
label00004BE6:
00004BE6  3007                     move.w     D0, D7
00004BE8  5247                     addq.w     D7, 1
00004BEA  206E 0008                movea.l    A0, [A6 + 0x8]
00004BEE  4A30 0000                tst.b      [A0 + D0.w]
00004BF2  66E0                     bne        -0x1E /* 00004BD4 */
00004BF4  2006                     move.l     D0, D6
00004BF6  4CDF 00C0                movem.l    D6,D7, [A7]+
00004BFA  4E5E                     unlink     A6
00004BFC  4E75                     rts
export_61:
00004BFE  4E56 FEEC                link       A6, -0x0114
00004C02  2F0C                     move.l     -[A7], A4
00004C04  42A7                     clr.l      -[A7]
00004C06  3F3C 03F1                move.w     -[A7], 0x3F1
00004C0A  42A7                     clr.l      -[A7]
00004C0C  4878 FFFF                push.l     0xFFFF
00004C10  A97C                     syscall    GetNewDialog
00004C12  285F                     movea.l    A4, [A7]+
00004C14  3F3C 0008                move.w     -[A7], 0x8
00004C18  2F0C                     move.l     -[A7], A4
00004C1A  4EBA 037A                jsr        [PC + 0x37A /* 00004F96 */]
00004C1E  5C8F                     addq.l     A7, 6
label00004C20:
00004C20  42A7                     clr.l      -[A7]
00004C22  486E FFFE                pea.l      [A6 - 0x2]
00004C26  A991                     syscall    ModalDialog
00004C28  0C6E 0001 FFFE           cmpi.w     [A6 - 0x2], 0x1
00004C2E  6708                     beq        +0xA /* 00004C38 */
00004C30  0C6E 0002 FFFE           cmpi.w     [A6 - 0x2], 0x2
00004C36  66E8                     bne        -0x16 /* 00004C20 */
label00004C38:
00004C38  0C6E 0001 FFFE           cmpi.w     [A6 - 0x2], 0x1
00004C3E  6600 00AC                bne        +0xAE /* 00004CEC */
00004C42  2F0C                     move.l     -[A7], A4
00004C44  3F3C 0006                move.w     -[A7], 0x6
00004C48  486E FFFC                pea.l      [A6 - 0x4]
00004C4C  486E FFF8                pea.l      [A6 - 0x8]
00004C50  486E FFF0                pea.l      [A6 - 0x10]
00004C54  A98D                     syscall    GetDialogItem/GetDItem
00004C56  2F2E FFF8                move.l     -[A7], [A6 - 0x8]
00004C5A  486E FEF0                pea.l      [A6 - 0x110]
00004C5E  A990                     syscall    GetDialogItemText/GetIText
00004C60  486E FEF0                pea.l      [A6 - 0x110]
00004C64  4EAD 047A                jsr        [A5 + 0x47A /* export_139, CODE:7 @ 00002398 */]
00004C68  486E FEF0                pea.l      [A6 - 0x110]
00004C6C  2F3C FFFF 91CE           move.l     -[A7], 0xFFFF91CE
00004C72  4EAD 051A                jsr        [A5 + 0x51A /* export_159, CODE:7 @ 000021A6 */]
00004C76  2E8C                     move.l     [A7], A4
00004C78  3F3C 0007                move.w     -[A7], 0x7
00004C7C  486E FFFC                pea.l      [A6 - 0x4]
00004C80  486E FFF8                pea.l      [A6 - 0x8]
00004C84  486E FFF0                pea.l      [A6 - 0x10]
00004C88  A98D                     syscall    GetDialogItem/GetDItem
00004C8A  2EAE FFF8                move.l     [A7], [A6 - 0x8]
00004C8E  486E FEF0                pea.l      [A6 - 0x110]
00004C92  A990                     syscall    GetDialogItemText/GetIText
00004C94  486E FEF0                pea.l      [A6 - 0x110]
00004C98  4EAD 047A                jsr        [A5 + 0x47A /* export_139, CODE:7 @ 00002398 */]
00004C9C  486E FEEC                pea.l      [A6 - 0x114]
00004CA0  2F3C FFFF BFEE           move.l     -[A7], 0xFFFFBFEE
00004CA6  486E FEF0                pea.l      [A6 - 0x110]
00004CAA  4EAD 0512                jsr        [A5 + 0x512 /* export_158, CODE:7 @ 0000211E */]
00004CAE  2EBC FFFF 91CE           move.l     [A7], 0xFFFF91CE
00004CB4  4EBA FF0C                jsr        [PC - 0xF4 /* 00004BC2 */]
00004CB8  B0AE FEEC                cmp.l      D0, [A6 - 0x114]
00004CBC  4FEF 0014                lea.l      A7, [A7 + 0x14]
00004CC0  660A                     bne        +0xC /* 00004CCC */
00004CC2  23EE FEEC FFFF 921E      move.l     [0xFFFF921E], [A6 - 0x114]
00004CCA  6020                     bra        +0x22 /* 00004CEC */
label00004CCC:
00004CCC  4A39 FFFF 91CE           tst.b      [0xFFFF91CE]
00004CD2  6718                     beq        +0x1A /* 00004CEC */
00004CD4  2F3C FFFF BFF2           move.l     -[A7], 0xFFFFBFF2
00004CDA  2F3C FFFF C002           move.l     -[A7], 0xFFFFC002
00004CE0  4EBA 00EC                jsr        [PC + 0xEC /* 00004DCE */]
00004CE4  4239 FFFF 91CE           clr.b      [0xFFFF91CE]
00004CEA  508F                     addq.l     A7, 8
label00004CEC:
00004CEC  2F0C                     move.l     -[A7], A4
00004CEE  A983                     syscall    DisposeDialog
00004CF0  285F                     movea.l    A4, [A7]+
00004CF2  4E5E                     unlink     A6
00004CF4  4E75                     rts
export_62:
00004CF6  4E56 FF00                link       A6, -0x0100
00004CFA  4A39 FFFF 91CE           tst.b      [0xFFFF91CE]
00004D00  671A                     beq        +0x1C /* 00004D1C */
00004D02  2F3C FFFF 91CE           move.l     -[A7], 0xFFFF91CE
00004D08  2F3C FFFF C022           move.l     -[A7], 0xFFFFC022
00004D0E  486E FF00                pea.l      [A6 - 0x100]
00004D12  4EAD 050A                jsr        [A5 + 0x50A /* export_157, CODE:7 @ 000020CA */]
00004D16  4FEF 000C                lea.l      A7, [A7 + 0xC]
00004D1A  6010                     bra        +0x12 /* 00004D2C */
label00004D1C:
00004D1C  2F3C FFFF C034           move.l     -[A7], 0xFFFFC034
00004D22  486E FF00                pea.l      [A6 - 0x100]
00004D26  4EAD 050A                jsr        [A5 + 0x50A /* export_157, CODE:7 @ 000020CA */]
00004D2A  508F                     addq.l     A7, 8
label00004D2C:
00004D2C  486E FF00                pea.l      [A6 - 0x100]
00004D30  4EAD 0482                jsr        [A5 + 0x482 /* export_140, CODE:7 @ 0000237C */]
00004D34  4257                     clr.w      [A7]
00004D36  486E FF00                pea.l      [A6 - 0x100]
00004D3A  A88C                     syscall    StringWidth
00004D3C  303C 01DA                move.w     D0, 0x1DA
00004D40  905F                     sub.w      D0, [A7]+
00004D42  48C0                     ext.l      D0
00004D44  81FC 0002                divs.w     D0, 0x2
00004D48  3E80                     move.w     [A7], D0
00004D4A  3F3C 0070                move.w     -[A7], 0x70 /* 'p' */
00004D4E  A893                     syscall    MoveTo
00004D50  486E FF00                pea.l      [A6 - 0x100]
00004D54  A884                     syscall    DrawString
00004D56  4E5E                     unlink     A6
00004D58  4E75                     rts
export_63:
00004D5A  4E56 FFF0                link       A6, -0x0010
00004D5E  2F07                     move.l     -[A7], D7
00004D60  206E 000C                movea.l    A0, [A6 + 0xC]
00004D64  43EE FFF0                lea.l      A1, [A6 - 0x10]
00004D68  22D8                     move.l     [A1]+, [A0]+
00004D6A  22D8                     move.l     [A1]+, [A0]+
00004D6C  22D8                     move.l     [A1]+, [A0]+
00004D6E  22D8                     move.l     [A1]+, [A0]+
00004D70  42A7                     clr.l      -[A7]
00004D72  A975                     syscall    TickCount
00004D74  201F                     move.l     D0, [A7]+
00004D76  90B9 FFFF C07A           sub.l      D0, [0xFFFFC07A]
00004D7C  0C80 0000 0384           cmpi.l     D0, 0x384
00004D82  6310                     bls        +0x12 /* 00004D94 */
00004D84  206E 0008                movea.l    A0, [A6 + 0x8]
00004D88  30BC 0001                move.w     [A0], 0x1
00004D8C  1D7C 0001 0014           move.b     [A6 + 0x14], 0x1
00004D92  602E                     bra        +0x30 /* 00004DC2 */
label00004D94:
00004D94  0C6E 0003 FFF0           cmpi.w     [A6 - 0x10], 0x3
00004D9A  6622                     bne        +0x24 /* 00004DBE */
00004D9C  7EFF                     moveq.l    D7, 0xFFFFFFFF
00004D9E  CE2E FFF1                and.b      D7, [A6 - 0xF]
00004DA2  0C07 000D                cmpi.b     D7, 0xD /* '\r' */
00004DA6  6706                     beq        +0x8 /* 00004DAE */
00004DA8  0C07 0003                cmpi.b     D7, 0x3
00004DAC  6610                     bne        +0x12 /* 00004DBE */
label00004DAE:
00004DAE  206E 0008                movea.l    A0, [A6 + 0x8]
00004DB2  30BC 0001                move.w     [A0], 0x1
00004DB6  1D7C 0001 0014           move.b     [A6 + 0x14], 0x1
00004DBC  6004                     bra        +0x6 /* 00004DC2 */
label00004DBE:
00004DBE  422E 0014                clr.b      [A6 + 0x14]
label00004DC2:
00004DC2  2E1F                     move.l     D7, [A7]+
00004DC4  4E5E                     unlink     A6
00004DC6  205F                     movea.l    A0, [A7]+
00004DC8  4FEF 000C                lea.l      A7, [A7 + 0xC]
00004DCC  4ED0                     jmp        [A0]
export_64:
fn00004DCE:
00004DCE  4E56 FE00                link       A6, -0x0200
00004DD2  2F07                     move.l     -[A7], D7
00004DD4  7E00                     moveq.l    D7, 0x00
label00004DD6:
00004DD6  206E 0008                movea.l    A0, [A6 + 0x8]
00004DDA  224E                     movea.l    A1, A6
00004DDC  D2C7                     add.w      A1, D7
00004DDE  1370 7000 FF00           move.b     [A1 - 0x100], [A0 + D7.w]
00004DE4  3007                     move.w     D0, D7
00004DE6  5247                     addq.w     D7, 1
00004DE8  206E 0008                movea.l    A0, [A6 + 0x8]
00004DEC  4A30 0000                tst.b      [A0 + D0.w]
00004DF0  66E4                     bne        -0x1A /* 00004DD6 */
00004DF2  7E00                     moveq.l    D7, 0x00
label00004DF4:
00004DF4  206E 000C                movea.l    A0, [A6 + 0xC]
00004DF8  224E                     movea.l    A1, A6
00004DFA  D2C7                     add.w      A1, D7
00004DFC  1370 7000 FE00           move.b     [A1 - 0x200], [A0 + D7.w]
00004E02  3007                     move.w     D0, D7
00004E04  5247                     addq.w     D7, 1
00004E06  206E 000C                movea.l    A0, [A6 + 0xC]
00004E0A  4A30 0000                tst.b      [A0 + D0.w]
00004E0E  66E4                     bne        -0x1A /* 00004DF4 */
00004E10  486E FF00                pea.l      [A6 - 0x100]
00004E14  4EAD 0482                jsr        [A5 + 0x482 /* export_140, CODE:7 @ 0000237C */]
00004E18  486E FE00                pea.l      [A6 - 0x200]
00004E1C  4EAD 0482                jsr        [A5 + 0x482 /* export_140, CODE:7 @ 0000237C */]
00004E20  486E FF00                pea.l      [A6 - 0x100]
00004E24  486E FE00                pea.l      [A6 - 0x200]
00004E28  2F3C FFFF 9096           move.l     -[A7], 0xFFFF9096
00004E2E  2F3C FFFF 9096           move.l     -[A7], 0xFFFF9096
00004E34  A98B                     syscall    ParamText
00004E36  4297                     clr.l      [A7]
00004E38  A975                     syscall    TickCount
00004E3A  23DF FFFF C07A           move.l     [0xFFFFC07A], [A7]+
00004E40  4257                     clr.w      [A7]
00004E42  3F3C 03E9                move.w     -[A7], 0x3E9
00004E46  486D 021A                pea.l      [A5 + 0x21A /* export_63, CODE:2 @ 00004D5A */]
00004E4A  A985                     syscall    Alert
00004E4C  3E1F                     move.w     D7, [A7]+
00004E4E  2E2E FDFC                move.l     D7, [A6 - 0x204]
00004E52  4E5E                     unlink     A6
00004E54  4E75                     rts
fn00004E56:
00004E56  4E56 FF00                link       A6, -0x0100
00004E5A  48E7 0108                movem.l    -[A7], D7,A4
00004E5E  7E00                     moveq.l    D7, 0x00
label00004E60:
00004E60  286E 0008                movea.l    A4, [A6 + 0x8]
00004E64  D8C7                     add.w      A4, D7
00004E66  4A14                     tst.b      [A4]
00004E68  670C                     beq        +0xE /* 00004E76 */
00004E6A  204E                     movea.l    A0, A6
00004E6C  D0C7                     add.w      A0, D7
00004E6E  1154 FF01                move.b     [A0 - 0xFF], [A4]
00004E72  5247                     addq.w     D7, 1
00004E74  60EA                     bra        -0x14 /* 00004E60 */
label00004E76:
00004E76  1D47 FF00                move.b     [A6 - 0x100], D7
00004E7A  486E FF00                pea.l      [A6 - 0x100]
00004E7E  2F3C FFFF 9096           move.l     -[A7], 0xFFFF9096
00004E84  2F3C FFFF 9096           move.l     -[A7], 0xFFFF9096
00004E8A  2F3C FFFF 9096           move.l     -[A7], 0xFFFF9096
00004E90  A98B                     syscall    ParamText
00004E92  4267                     clr.w      -[A7]
00004E94  3F3C 03E8                move.w     -[A7], 0x3E8
00004E98  42A7                     clr.l      -[A7]
00004E9A  A986                     syscall    StopAlert
00004E9C  3E1F                     move.w     D7, [A7]+
00004E9E  4CDF 1080                movem.l    D7,A4, [A7]+
00004EA2  4E5E                     unlink     A6
00004EA4  4E75                     rts
export_65:
00004EA6  4E56 0000                link       A6, 0
00004EAA  302E 0008                move.w     D0, [A6 + 0x8]
00004EAE  674C                     beq        +0x4E /* 00004EFC */
00004EB0  6B4A                     bmi        +0x4C /* 00004EFC */
00004EB2  5740                     subq.w     D0, 3
00004EB4  672A                     beq        +0x2C /* 00004EE0 */
00004EB6  6A06                     bpl        +0x8 /* 00004EBE */
00004EB8  5240                     addq.w     D0, 1
00004EBA  6A16                     bpl        +0x18 /* 00004ED2 */
00004EBC  6006                     bra        +0x8 /* 00004EC4 */
label00004EBE:
00004EBE  5540                     subq.w     D0, 2
00004EC0  6A3A                     bpl        +0x3C /* 00004EFC */
00004EC2  602A                     bra        +0x2C /* 00004EEE */
label00004EC4:
00004EC4  2F3C FFFF C082           move.l     -[A7], 0xFFFFC082
00004ECA  4EBA FF8A                jsr        [PC - 0x76 /* 00004E56 */]
00004ECE  588F                     addq.l     A7, 4
00004ED0  6036                     bra        +0x38 /* 00004F08 */
label00004ED2:
00004ED2  2F3C FFFF C0A6           move.l     -[A7], 0xFFFFC0A6
00004ED8  4EBA FF7C                jsr        [PC - 0x84 /* 00004E56 */]
00004EDC  588F                     addq.l     A7, 4
00004EDE  6028                     bra        +0x2A /* 00004F08 */
label00004EE0:
00004EE0  2F3C FFFF C0CA           move.l     -[A7], 0xFFFFC0CA
00004EE6  4EBA FF6E                jsr        [PC - 0x92 /* 00004E56 */]
00004EEA  588F                     addq.l     A7, 4
00004EEC  601A                     bra        +0x1C /* 00004F08 */
label00004EEE:
00004EEE  2F3C FFFF C0F0           move.l     -[A7], 0xFFFFC0F0
00004EF4  4EBA FF60                jsr        [PC - 0xA0 /* 00004E56 */]
00004EF8  588F                     addq.l     A7, 4
00004EFA  600C                     bra        +0xE /* 00004F08 */
label00004EFC:
00004EFC  2F3C FFFF C116           move.l     -[A7], 0xFFFFC116
00004F02  4EBA FF52                jsr        [PC - 0xAE /* 00004E56 */]
00004F06  588F                     addq.l     A7, 4
label00004F08:
00004F08  3F3C 0001                move.w     -[A7], 0x1
00004F0C  4EAD 04AA                jsr        [A5 + 0x4AA /* export_145, CODE:7 @ 00000436 */]
00004F10  4E5E                     unlink     A6
00004F12  4E75                     rts
export_66:
00004F14  4E56 0000                link       A6, 0
00004F18  2F07                     move.l     -[A7], D7
00004F1A  7E00                     moveq.l    D7, 0x00
label00004F1C:
00004F1C  206E 0008                movea.l    A0, [A6 + 0x8]
00004F20  3247                     movea.w    A1, D7
00004F22  D3FC FFFF 8F64           add.l      A1, 0xFFFF8F64
00004F28  12B0 7000                move.b     [A1], [A0 + D7.w]
00004F2C  3007                     move.w     D0, D7
00004F2E  5247                     addq.w     D7, 1
00004F30  206E 0008                movea.l    A0, [A6 + 0x8]
00004F34  4A30 0000                tst.b      [A0 + D0.w]
00004F38  66E2                     bne        -0x1C /* 00004F1C */
00004F3A  2F3C FFFF 8F64           move.l     -[A7], 0xFFFF8F64
00004F40  4EAD 0482                jsr        [A5 + 0x482 /* export_140, CODE:7 @ 0000237C */]
00004F44  2E2E FFFC                move.l     D7, [A6 - 0x4]
00004F48  4E5E                     unlink     A6
00004F4A  4E75                     rts
export_67:
00004F4C  4E56 FFF2                link       A6, -0x000E
00004F50  2F2E 000A                move.l     -[A7], [A6 + 0xA]
00004F54  3F2E 0008                move.w     -[A7], [A6 + 0x8]
00004F58  486E FFFE                pea.l      [A6 - 0x2]
00004F5C  486E FFFA                pea.l      [A6 - 0x6]
00004F60  486E FFF2                pea.l      [A6 - 0xE]
00004F64  A98D                     syscall    GetDialogItem/GetDItem
00004F66  2F3C 0003 0003           move.l     -[A7], 0x30003
00004F6C  A89B                     syscall    PenSize
00004F6E  486E FFF2                pea.l      [A6 - 0xE]
00004F72  2F3C FFFC FFFC           move.l     -[A7], 0xFFFCFFFC
00004F78  A8A9                     syscall    InsetRect
00004F7A  486E FFF2                pea.l      [A6 - 0xE]
00004F7E  2F3C 0010 0010           move.l     -[A7], 0x100010
00004F84  A8B0                     syscall    FrameRoundRect
00004F86  2F3C 0001 0001           move.l     -[A7], 0x10001
00004F8C  A89B                     syscall    PenSize
00004F8E  4E5E                     unlink     A6
00004F90  205F                     movea.l    A0, [A7]+
00004F92  5C8F                     addq.l     A7, 6
00004F94  4ED0                     jmp        [A0]
export_68:
fn00004F96:
00004F96  4E56 FFF2                link       A6, -0x000E
00004F9A  2F2E 0008                move.l     -[A7], [A6 + 0x8]
00004F9E  3F2E 000C                move.w     -[A7], [A6 + 0xC]
00004FA2  486E FFFE                pea.l      [A6 - 0x2]
00004FA6  486E FFFA                pea.l      [A6 - 0x6]
00004FAA  486E FFF2                pea.l      [A6 - 0xE]
00004FAE  A98D                     syscall    GetDialogItem/GetDItem
00004FB0  2F2E 0008                move.l     -[A7], [A6 + 0x8]
00004FB4  3F2E 000C                move.w     -[A7], [A6 + 0xC]
00004FB8  3F2E FFFE                move.w     -[A7], [A6 - 0x2]
00004FBC  486D 023A                pea.l      [A5 + 0x23A /* export_67, CODE:2 @ 00004F4C */]
00004FC0  486E FFF2                pea.l      [A6 - 0xE]
00004FC4  A98E                     syscall    SetDialogItem/SetDItem
00004FC6  4E5E                     unlink     A6
00004FC8  4E75                     rts
export_69:
fn00004FCA:
00004FCA  4E56 FFFE                link       A6, -0x0002
00004FCE  48E7 0118                movem.l    -[A7], D7,A3,A4
00004FD2  286E 000E                movea.l    A4, [A6 + 0xE]
00004FD6  7E00                     moveq.l    D7, 0x00
00004FD8  2079 FFFF 7D76           movea.l    A0, [0xFFFF7D76]
00004FDE  2F10                     move.l     -[A7], [A0]
00004FE0  A851                     syscall    SetCursor
00004FE2  4267                     clr.w      -[A7]
00004FE4  2F2E 0008                move.l     -[A7], [A6 + 0x8]
00004FE8  3F2E 000C                move.w     -[A7], [A6 + 0xC]
00004FEC  486E FFFE                pea.l      [A6 - 0x2]
00004FF0  4EAD 03CA                jsr        [A5 + 0x3CA /* export_117, CODE:7 @ 0000274C */]
00004FF4  4A5F                     tst.w      [A7]+
00004FF6  6704                     beq        +0x6 /* 00004FFC */
00004FF8  7E01                     moveq.l    D7, 0x01
00004FFA  6042                     bra        +0x44 /* 0000503E */
label00004FFC:
00004FFC  4267                     clr.w      -[A7]
00004FFE  3F2E FFFE                move.w     -[A7], [A6 - 0x2]
00005002  2F0C                     move.l     -[A7], A4
00005004  4EAD 0412                jsr        [A5 + 0x412 /* export_126, CODE:7 @ 000028B2 */]
00005008  3E1F                     move.w     D7, [A7]+
0000500A  6622                     bne        +0x24 /* 0000502E */
0000500C  2014                     move.l     D0, [A4]
0000500E  A11E                     syscall    NewPtr, flags=1
00005010  2648                     movea.l    A3, A0
00005012  2008                     move.l     D0, A0
00005014  6604                     bne        +0x6 /* 0000501A */
00005016  7E02                     moveq.l    D7, 0x02
00005018  6014                     bra        +0x16 /* 0000502E */
label0000501A:
0000501A  4267                     clr.w      -[A7]
0000501C  3F2E FFFE                move.w     -[A7], [A6 - 0x2]
00005020  2F0C                     move.l     -[A7], A4
00005022  2F0B                     move.l     -[A7], A3
00005024  4EAD 03DA                jsr        [A5 + 0x3DA /* export_119, CODE:7 @ 000027A6 */]
00005028  4A5F                     tst.w      [A7]+
0000502A  6702                     beq        +0x4 /* 0000502E */
0000502C  7E01                     moveq.l    D7, 0x01
label0000502E:
0000502E  4267                     clr.w      -[A7]
00005030  3F2E FFFE                move.w     -[A7], [A6 - 0x2]
00005034  4EAD 03D2                jsr        [A5 + 0x3D2 /* export_118, CODE:7 @ 0000278C */]
00005038  4A5F                     tst.w      [A7]+
0000503A  6702                     beq        +0x4 /* 0000503E */
0000503C  7E01                     moveq.l    D7, 0x01
label0000503E:
0000503E  2F3C FFFF FA60           move.l     -[A7], 0xFFFFFA60
00005044  A851                     syscall    SetCursor
00005046  4A47                     tst.w      D7
00005048  6604                     bne        +0x6 /* 0000504E */
0000504A  200B                     move.l     D0, A3
0000504C  6012                     bra        +0x14 /* 00005060 */
label0000504E:
0000504E  2F3C FFFF C122           move.l     -[A7], 0xFFFFC122
00005054  2F3C FFFF C124           move.l     -[A7], 0xFFFFC124
0000505A  4EBA FD72                jsr        [PC - 0x28E /* 00004DCE */]
0000505E  7000                     moveq.l    D0, 0x00
label00005060:
00005060  4CEE 1880 FFF2           movem.l    D7,A3,A4, [A6 - 0xE]
00005066  4E5E                     unlink     A6
00005068  4E75                     rts
export_70:
fn0000506A:
0000506A  4E56 FFE8                link       A6, -0x0018
0000506E  48E7 1F18                movem.l    -[A7], D3,D4,D5,D6,D7,A3,A4
00005072  382E 000A                move.w     D4, [A6 + 0xA]
00005076  362E 000C                move.w     D3, [A6 + 0xC]
0000507A  266E 0012                movea.l    A3, [A6 + 0x12]
0000507E  4A39 FFFF 9081           tst.b      [0xFFFF9081]
00005084  6700 008E                beq        +0x90 /* 00005114 */
00005088  3E2E 0008                move.w     D7, [A6 + 0x8]
0000508C  4A47                     tst.w      D7
0000508E  6F30                     ble        +0x32 /* 000050C0 */
00005090  303C 03C2                move.w     D0, 0x3C2
00005094  C1C7                     muls.w     D0, D7
00005096  2040                     movea.l    A0, D0
00005098  D1FC FFFF 978E           add.l      A0, 0xFFFF978E
0000509E  3C10                     move.w     D6, [A0]
000050A0  4A46                     tst.w      D6
000050A2  671C                     beq        +0x1E /* 000050C0 */
000050A4  7A00                     moveq.l    D5, 0x00
000050A6  287C FFFF 9442           movea.l    A4, 0xFFFF9442
000050AC  600E                     bra        +0x10 /* 000050BC */
label000050AE:
000050AE  BC6C 034C                cmp.w      D6, [A4 + 0x34C]
000050B2  6602                     bne        +0x4 /* 000050B6 */
000050B4  3E05                     move.w     D7, D5
label000050B6:
000050B6  5245                     addq.w     D5, 1
000050B8  49EC 03C2                lea.l      A4, [A4 + 0x3C2]
label000050BC:
000050BC  BE45                     cmp.w      D7, D5
000050BE  6EEE                     bgt        -0x10 /* 000050AE */
label000050C0:
000050C0  3007                     move.w     D0, D7
000050C2  5440                     addq.w     D0, 2
000050C4  0C40 0007                cmpi.w     D0, 0x7
000050C8  624A                     bhi        +0x4C /* 00005114 */
000050CA  43FA 037A                lea.l      A1, [PC + 0x37A /* 00005446, value 0xFCC8FCC0 */]
000050CE  D040                     add.w      D0, D0
000050D0  D2F1 0000                add.w      A1, [A1 + D0.w]
000050D4  4ED1                     jmp        [A1]
000050D6  4878 00CD                push.l     0xCD
000050DA  A862                     syscall    ForeColor
000050DC  6036                     bra        +0x38 /* 00005114 */
000050DE  4878 0111                push.l     0x111
000050E2  A862                     syscall    ForeColor
000050E4  602E                     bra        +0x30 /* 00005114 */
000050E6  4878 0155                push.l     0x155
000050EA  A862                     syscall    ForeColor
000050EC  6026                     bra        +0x28 /* 00005114 */
000050EE  4878 0199                push.l     0x199
000050F2  A862                     syscall    ForeColor
000050F4  601E                     bra        +0x20 /* 00005114 */
000050F6  4878 0089                push.l     0x89
000050FA  A862                     syscall    ForeColor
000050FC  6016                     bra        +0x18 /* 00005114 */
000050FE  4878 0021                push.l     0x21 /* '!' */
00005102  A862                     syscall    ForeColor
00005104  600E                     bra        +0x10 /* 00005114 */
00005106  4878 00CD                push.l     0xCD
0000510A  A862                     syscall    ForeColor
0000510C  6006                     bra        +0x8 /* 00005114 */
0000510E  4878 00CD                push.l     0xCD
00005112  A862                     syscall    ForeColor
label00005114:
00005114  0C6E FFFF 0008           cmpi.w     [A6 + 0x8], 0xFFFF
0000511A  660C                     bne        +0xE /* 00005128 */
0000511C  23F9 FFFF 7E34 FFFF 7E26 move.l     [0xFFFF7E26], [0xFFFF7E34]
00005126  6072                     bra        +0x74 /* 0000519A */
label00005128:
00005128  0C6E FFFE 0008           cmpi.w     [A6 + 0x8], 0xFFFE
0000512E  661A                     bne        +0x1C /* 0000514A */
00005130  303C 03C2                move.w     D0, 0x3C2
00005134  C1F9 FFFF 9228           muls.w     D0, [0xFFFF9228]
0000513A  2040                     movea.l    A0, D0
0000513C  D1FC FFFF 9766           add.l      A0, 0xFFFF9766
00005142  23D0 FFFF 7E26           move.l     [0xFFFF7E26], [A0]
00005148  6050                     bra        +0x52 /* 0000519A */
label0000514A:
0000514A  303C 03C2                move.w     D0, 0x3C2
0000514E  C1EE 0008                muls.w     D0, [A6 + 0x8]
00005152  2840                     movea.l    A4, D0
00005154  D9FC FFFF 9766           add.l      A4, 0xFFFF9766
0000515A  302E 0010                move.w     D0, [A6 + 0x10]
0000515E  48C0                     ext.l      D0
00005160  E588                     lsl        D0, 2
00005162  D08C                     add.l      D0, A4
00005164  2840                     movea.l    A4, D0
00005166  4A94                     tst.l      [A4]
00005168  662A                     bne        +0x2C /* 00005194 */
0000516A  0C6E 0001 0010           cmpi.w     [A6 + 0x10], 0x1
00005170  57C0                     seq        D0
00005172  4400                     neg.b      D0
00005174  4880                     ext.w      D0
00005176  3040                     movea.w    A0, D0
00005178  302E 0008                move.w     D0, [A6 + 0x8]
0000517C  D0C0                     add.w      A0, D0
0000517E  D0C0                     add.w      A0, D0
00005180  2208                     move.l     D1, A0
00005182  E589                     lsl        D1, 2
00005184  2041                     movea.l    A0, D1
00005186  D1FC FFFF 7E34           add.l      A0, 0xFFFF7E34
0000518C  23D0 FFFF 7E26           move.l     [0xFFFF7E26], [A0]
00005192  6006                     bra        +0x8 /* 0000519A */
label00005194:
00005194  23D4 FFFF 7E26           move.l     [0xFFFF7E26], [A4]
label0000519A:
0000519A  70F0                     moveq.l    D0, 0xFFFFFFF0
0000519C  D043                     add.w      D0, D3
0000519E  3D40 FFF8                move.w     [A6 - 0x8], D0
000051A2  7010                     moveq.l    D0, 0x10
000051A4  D043                     add.w      D0, D3
000051A6  3D40 FFFC                move.w     [A6 - 0x4], D0
000051AA  70F0                     moveq.l    D0, 0xFFFFFFF0
000051AC  D044                     add.w      D0, D4
000051AE  3D40 FFFA                move.w     [A6 - 0x6], D0
000051B2  7010                     moveq.l    D0, 0x10
000051B4  D044                     add.w      D0, D4
000051B6  3D40 FFFE                move.w     [A6 - 0x2], D0
000051BA  200B                     move.l     D0, A3
000051BC  6744                     beq        +0x46 /* 00005202 */
000051BE  2F0B                     move.l     -[A7], A3
000051C0  3F04                     move.w     -[A7], D4
000051C2  3F03                     move.w     -[A7], D3
000051C4  A8E0                     syscall    OffsetRgn/OfsetRgn
000051C6  2F3C FFFF 7E26           move.l     -[A7], 0xFFFF7E26
000051CC  2079 FFFF FACC           movea.l    A0, [0xFFFFFACC]
000051D2  4868 0002                pea.l      [A0 + 0x2]
000051D6  2F3C FFFF 7E2C           move.l     -[A7], 0xFFFF7E2C
000051DC  486E FFF8                pea.l      [A6 - 0x8]
000051E0  3F3C 0001                move.w     -[A7], 0x1
000051E4  2F0B                     move.l     -[A7], A3
000051E6  A8EC                     syscall    CopyBits
000051E8  2F0B                     move.l     -[A7], A3
000051EA  3004                     move.w     D0, D4
000051EC  4440                     neg.w      D0
000051EE  3F00                     move.w     -[A7], D0
000051F0  3003                     move.w     D0, D3
000051F2  4440                     neg.w      D0
000051F4  3F00                     move.w     -[A7], D0
000051F6  A8E0                     syscall    OffsetRgn/OfsetRgn
000051F8  4878 0021                push.l     0x21 /* '!' */
000051FC  A862                     syscall    ForeColor
000051FE  6000 0232                bra        +0x234 /* 00005432 */
label00005202:
00005202  2F3C FFFF 7E26           move.l     -[A7], 0xFFFF7E26
00005208  2079 FFFF FACC           movea.l    A0, [0xFFFFFACC]
0000520E  4868 0002                pea.l      [A0 + 0x2]
00005212  2F3C FFFF 7E2C           move.l     -[A7], 0xFFFF7E2C
00005218  486E FFF8                pea.l      [A6 - 0x8]
0000521C  3F3C 0001                move.w     -[A7], 0x1
00005220  42A7                     clr.l      -[A7]
00005222  A8EC                     syscall    CopyBits
00005224  4878 0021                push.l     0x21 /* '!' */
00005228  A862                     syscall    ForeColor
0000522A  0C6E 0001 0016           cmpi.w     [A6 + 0x16], 0x1
00005230  6600 00BC                bne        +0xBE /* 000052EE */
00005234  3F04                     move.w     -[A7], D4
00005236  3F03                     move.w     -[A7], D3
00005238  A893                     syscall    MoveTo
0000523A  3F3C 000A                move.w     -[A7], 0xA /* '\n' */
0000523E  A89C                     syscall    PenMode
00005240  302E 000E                move.w     D0, [A6 + 0xE]
00005244  0640 010E                addi.w     D0, 0x10E
00005248  48C0                     ext.l      D0
0000524A  81FC 0168                divs.w     D0, 0x168
0000524E  4840                     swap.w     D0
00005250  C1FC 000C                muls.w     D0, 0xC
00005254  2040                     movea.l    A0, D0
00005256  D1FC FFFF 7E84           add.l      A0, 0xFFFF7E84
0000525C  487A 01E6                pea.l      [PC + 0x1E6 /* 00005444, value 0x9FCC8, cstring "" */]
00005260  486E FFEA                pea.l      [A6 - 0x16]
00005264  3F3C 200E                move.w     -[A7], 0x200E
00005268  A9EB                     syscall    Pack4/FP68K
0000526A  4868 0002                pea.l      [A0 + 0x2]
0000526E  486E FFEA                pea.l      [A6 - 0x16]
00005272  3F3C 0004                move.w     -[A7], 0x4
00005276  A9EB                     syscall    Pack4/FP68K
00005278  486E FFEA                pea.l      [A6 - 0x16]
0000527C  3F3C 0016                move.w     -[A7], 0x16
00005280  A9EB                     syscall    Pack4/FP68K
00005282  486E FFEA                pea.l      [A6 - 0x16]
00005286  486E FFE8                pea.l      [A6 - 0x18]
0000528A  3F3C 2010                move.w     -[A7], 0x2010
0000528E  A9EB                     syscall    Pack4/FP68K
00005290  302E FFE8                move.w     D0, [A6 - 0x18]
00005294  D044                     add.w      D0, D4
00005296  3F00                     move.w     -[A7], D0
00005298  700C                     moveq.l    D0, 0x0C
0000529A  C1EE 000E                muls.w     D0, [A6 + 0xE]
0000529E  2040                     movea.l    A0, D0
000052A0  D1FC FFFF 7E84           add.l      A0, 0xFFFF7E84
000052A6  487A 019A                pea.l      [PC + 0x19A /* 00005442, value 0x90009 '\t\0\t', cstring "" */]
000052AA  486E FFEA                pea.l      [A6 - 0x16]
000052AE  3F3C 200E                move.w     -[A7], 0x200E
000052B2  A9EB                     syscall    Pack4/FP68K
000052B4  4868 0002                pea.l      [A0 + 0x2]
000052B8  486E FFEA                pea.l      [A6 - 0x16]
000052BC  3F3C 0004                move.w     -[A7], 0x4
000052C0  A9EB                     syscall    Pack4/FP68K
000052C2  486E FFEA                pea.l      [A6 - 0x16]
000052C6  3F3C 0016                move.w     -[A7], 0x16
000052CA  A9EB                     syscall    Pack4/FP68K
000052CC  486E FFEA                pea.l      [A6 - 0x16]
000052D0  486E FFE8                pea.l      [A6 - 0x18]
000052D4  3F3C 2010                move.w     -[A7], 0x2010
000052D8  A9EB                     syscall    Pack4/FP68K
000052DA  3003                     move.w     D0, D3
000052DC  906E FFE8                sub.w      D0, [A6 - 0x18]
000052E0  3F00                     move.w     -[A7], D0
000052E2  A891                     syscall    LineTo
000052E4  3F3C 0008                move.w     -[A7], 0x8
000052E8  A89C                     syscall    PenMode
000052EA  6000 0146                bra        +0x148 /* 00005432 */
label000052EE:
000052EE  0C6E 0002 0016           cmpi.w     [A6 + 0x16], 0x2
000052F4  6600 013C                bne        +0x13E /* 00005432 */
000052F8  3F3C 000A                move.w     -[A7], 0xA /* '\n' */
000052FC  A89C                     syscall    PenMode
000052FE  2F3C 0002 0002           move.l     -[A7], 0x20002
00005304  A89B                     syscall    PenSize
00005306  302E 000E                move.w     D0, [A6 + 0xE]
0000530A  0640 010E                addi.w     D0, 0x10E
0000530E  48C0                     ext.l      D0
00005310  81FC 0168                divs.w     D0, 0x168
00005314  4840                     swap.w     D0
00005316  C1FC 000C                muls.w     D0, 0xC
0000531A  0680 FFFF 7E84           addi.l     D0, 0xFFFF7E84
00005320  2840                     movea.l    A4, D0
00005322  700C                     moveq.l    D0, 0x0C
00005324  C1EE 000E                muls.w     D0, [A6 + 0xE]
00005328  0680 FFFF 7E84           addi.l     D0, 0xFFFF7E84
0000532E  2640                     movea.l    A3, D0
00005330  487A 010E                pea.l      [PC + 0x10E /* 00005440, value 0xC0009, cstring "" */]
00005334  486E FFEA                pea.l      [A6 - 0x16]
00005338  3F3C 200E                move.w     -[A7], 0x200E
0000533C  A9EB                     syscall    Pack4/FP68K
0000533E  486C 0002                pea.l      [A4 + 0x2]
00005342  486E FFEA                pea.l      [A6 - 0x16]
00005346  3F3C 0004                move.w     -[A7], 0x4
0000534A  A9EB                     syscall    Pack4/FP68K
0000534C  486E FFEA                pea.l      [A6 - 0x16]
00005350  3F3C 0016                move.w     -[A7], 0x16
00005354  A9EB                     syscall    Pack4/FP68K
00005356  486E FFEA                pea.l      [A6 - 0x16]
0000535A  486E FFE8                pea.l      [A6 - 0x18]
0000535E  3F3C 2010                move.w     -[A7], 0x2010
00005362  A9EB                     syscall    Pack4/FP68K
00005364  302E FFE8                move.w     D0, [A6 - 0x18]
00005368  D044                     add.w      D0, D4
0000536A  3F00                     move.w     -[A7], D0
0000536C  487A 00D0                pea.l      [PC + 0xD0 /* 0000543E, value 0xC000C, cstring "" */]
00005370  486E FFEA                pea.l      [A6 - 0x16]
00005374  3F3C 200E                move.w     -[A7], 0x200E
00005378  A9EB                     syscall    Pack4/FP68K
0000537A  486B 0002                pea.l      [A3 + 0x2]
0000537E  486E FFEA                pea.l      [A6 - 0x16]
00005382  3F3C 0004                move.w     -[A7], 0x4
00005386  A9EB                     syscall    Pack4/FP68K
00005388  486E FFEA                pea.l      [A6 - 0x16]
0000538C  3F3C 0016                move.w     -[A7], 0x16
00005390  A9EB                     syscall    Pack4/FP68K
00005392  486E FFEA                pea.l      [A6 - 0x16]
00005396  486E FFE8                pea.l      [A6 - 0x18]
0000539A  3F3C 2010                move.w     -[A7], 0x2010
0000539E  A9EB                     syscall    Pack4/FP68K
000053A0  3003                     move.w     D0, D3
000053A2  906E FFE8                sub.w      D0, [A6 - 0x18]
000053A6  3F00                     move.w     -[A7], D0
000053A8  A893                     syscall    MoveTo
000053AA  487A 0090                pea.l      [PC + 0x90 /* 0000543C, value 0xC000C, cstring "" */]
000053AE  486E FFEA                pea.l      [A6 - 0x16]
000053B2  3F3C 200E                move.w     -[A7], 0x200E
000053B6  A9EB                     syscall    Pack4/FP68K
000053B8  486C 0002                pea.l      [A4 + 0x2]
000053BC  486E FFEA                pea.l      [A6 - 0x16]
000053C0  3F3C 0004                move.w     -[A7], 0x4
000053C4  A9EB                     syscall    Pack4/FP68K
000053C6  486E FFEA                pea.l      [A6 - 0x16]
000053CA  3F3C 0016                move.w     -[A7], 0x16
000053CE  A9EB                     syscall    Pack4/FP68K
000053D0  486E FFEA                pea.l      [A6 - 0x16]
000053D4  486E FFE8                pea.l      [A6 - 0x18]
000053D8  3F3C 2010                move.w     -[A7], 0x2010
000053DC  A9EB                     syscall    Pack4/FP68K
000053DE  302E FFE8                move.w     D0, [A6 - 0x18]
000053E2  D044                     add.w      D0, D4
000053E4  3F00                     move.w     -[A7], D0
000053E6  487A 0052                pea.l      [PC + 0x52 /* 0000543A, value 0xC000C, cstring "" */]
000053EA  486E FFEA                pea.l      [A6 - 0x16]
000053EE  3F3C 200E                move.w     -[A7], 0x200E
000053F2  A9EB                     syscall    Pack4/FP68K
000053F4  486B 0002                pea.l      [A3 + 0x2]
000053F8  486E FFEA                pea.l      [A6 - 0x16]
000053FC  3F3C 0004                move.w     -[A7], 0x4
00005400  A9EB                     syscall    Pack4/FP68K
00005402  486E FFEA                pea.l      [A6 - 0x16]
00005406  3F3C 0016                move.w     -[A7], 0x16
0000540A  A9EB                     syscall    Pack4/FP68K
0000540C  486E FFEA                pea.l      [A6 - 0x16]
00005410  486E FFE8                pea.l      [A6 - 0x18]
00005414  3F3C 2010                move.w     -[A7], 0x2010
00005418  A9EB                     syscall    Pack4/FP68K
0000541A  3003                     move.w     D0, D3
0000541C  906E FFE8                sub.w      D0, [A6 - 0x18]
00005420  3F00                     move.w     -[A7], D0
00005422  A891                     syscall    LineTo
00005424  2F3C 0001 0001           move.l     -[A7], 0x10001
0000542A  A89B                     syscall    PenSize
0000542C  3F3C 0008                move.w     -[A7], 0x8
00005430  A89C                     syscall    PenMode
label00005432:
00005432  4CDF 18F8                movem.l    D3,D4,D5,D6,D7,A3,A4, [A7]+
00005436  4E5E                     unlink     A6
00005438  4E75                     rts
0000543A  000C 000C                ori.b      A4, 0xC
0000543E  000C 000C                ori.b      A4, 0xC
00005442  0009 0009                ori.b      A1, 0x9 /* '\t' */
00005446  FCC8 FCC0                .extension 0xCC8 <<F/2-3/6>> // unimplemented
0000544A  FC90 FC98                .extension 0xC90 <<F/2-3/6>> // unimplemented
0000544E  FCA0 FCA8                .extension 0xCA0 <<F/2-3/6>> // unimplemented
00005452  FCB0 FCB8                .extension 0xCB0 <<F/2-3/6>> // unimplemented
00005456  4E56 0000                link       A6, 0
0000545A  48E7 0700                movem.l    -[A7], D5,D6,D7
0000545E  7E00                     moveq.l    D7, 0x00
00005460  7C01                     moveq.l    D6, 0x01
00005462  206E 0008                movea.l    A0, [A6 + 0x8]
00005466  1A10                     move.b     D5, [A0]
00005468  4885                     ext.w      D5
label0000546A:
0000546A  206E 0008                movea.l    A0, [A6 + 0x8]
0000546E  226E 000C                movea.l    A1, [A6 + 0xC]
00005472  1030 7000                move.b     D0, [A0 + D7.w]
00005476  B031 7000                cmp.b      D0, [A1 + D7.w]
0000547A  6702                     beq        +0x4 /* 0000547E */
0000547C  7C00                     moveq.l    D6, 0x00
label0000547E:
0000547E  3007                     move.w     D0, D7
00005480  5247                     addq.w     D7, 1
00005482  BA40                     cmp.w      D5, D0
00005484  6F04                     ble        +0x6 /* 0000548A */
00005486  4A06                     tst.b      D6
00005488  66E0                     bne        -0x1E /* 0000546A */
label0000548A:
0000548A  1006                     move.b     D0, D6
0000548C  4CDF 00E0                movem.l    D5,D6,D7, [A7]+
00005490  4E5E                     unlink     A6
00005492  4E75                     rts
export_71:
fn00005494:
00005494  4E56 0000                link       A6, 0
00005498  48E7 0318                movem.l    -[A7], D6,D7,A3,A4
0000549C  303C 03C2                move.w     D0, 0x3C2
000054A0  C1EE 0008                muls.w     D0, [A6 + 0x8]
000054A4  2040                     movea.l    A0, D0
000054A6  D1FC FFFF 9764           add.l      A0, 0xFFFF9764
000054AC  303C 03C2                move.w     D0, 0x3C2
000054B0  C1F9 FFFF 9228           muls.w     D0, [0xFFFF9228]
000054B6  2240                     movea.l    A1, D0
000054B8  D3FC FFFF 9764           add.l      A1, 0xFFFF9764
000054BE  3010                     move.w     D0, [A0]
000054C0  B051                     cmp.w      D0, [A1]
000054C2  6704                     beq        +0x6 /* 000054C8 */
000054C4  7000                     moveq.l    D0, 0x00
000054C6  6052                     bra        +0x54 /* 0000551A */
label000054C8:
000054C8  7E00                     moveq.l    D7, 0x00
000054CA  303C 03C2                move.w     D0, 0x3C2
000054CE  C1F9 FFFF 9228           muls.w     D0, [0xFFFF9228]
000054D4  0680 FFFF 955E           addi.l     D0, 0xFFFF955E
000054DA  2840                     movea.l    A4, D0
000054DC  303C 03C2                move.w     D0, 0x3C2
000054E0  C1F9 FFFF 9228           muls.w     D0, [0xFFFF9228]
000054E6  2040                     movea.l    A0, D0
000054E8  D1FC FFFF 955E           add.l      A0, 0xFFFF955E
000054EE  7C00                     moveq.l    D6, 0x00
000054F0  1C10                     move.b     D6, [A0]
000054F2  303C 03C2                move.w     D0, 0x3C2
000054F6  C1EE 0008                muls.w     D0, [A6 + 0x8]
000054FA  0680 FFFF 955E           addi.l     D0, 0xFFFF955E
00005500  2640                     movea.l    A3, D0
00005502  6010                     bra        +0x12 /* 00005514 */
label00005504:
00005504  1033 7000                move.b     D0, [A3 + D7.w]
00005508  B034 7000                cmp.b      D0, [A4 + D7.w]
0000550C  6704                     beq        +0x6 /* 00005512 */
0000550E  7000                     moveq.l    D0, 0x00
00005510  6008                     bra        +0xA /* 0000551A */
label00005512:
00005512  5247                     addq.w     D7, 1
label00005514:
00005514  BC47                     cmp.w      D6, D7
00005516  6CEC                     bge        -0x12 /* 00005504 */
00005518  7001                     moveq.l    D0, 0x01
label0000551A:
0000551A  4CDF 18C0                movem.l    D6,D7,A3,A4, [A7]+
0000551E  4E5E                     unlink     A6
00005520  4E75                     rts
export_72:
fn00005522:
00005522  4E56 FF00                link       A6, -0x0100
00005526  4267                     clr.w      -[A7]
00005528  486E FF00                pea.l      [A6 - 0x100]
0000552C  2F3C FFFF C080           move.l     -[A7], 0xFFFFC080
00005532  4EAD 03EA                jsr        [A5 + 0x3EA /* export_121, CODE:7 @ 000027EE */]
00005536  4257                     clr.w      [A7]
00005538  2F3C FFFF 9096           move.l     -[A7], 0xFFFF9096
0000553E  3F2E 0008                move.w     -[A7], [A6 + 0x8]
00005542  4EAD 03F2                jsr        [A5 + 0x3F2 /* export_122, CODE:7 @ 00002810 */]
00005546  4E5E                     unlink     A6
00005548  4E75                     rts
export_73:
fn0000554A:
0000554A  4267                     clr.w      -[A7]
0000554C  2F3C FFFF 9096           move.l     -[A7], 0xFFFF9096
00005552  3F39 FFFF C080           move.w     -[A7], [0xFFFFC080]
00005558  4EAD 03F2                jsr        [A5 + 0x3F2 /* export_122, CODE:7 @ 00002810 */]
0000555C  548F                     addq.l     A7, 2
0000555E  4E75                     rts
00005560  4E56 0000                link       A6, 0
00005564  48E7 0118                movem.l    -[A7], D7,A3,A4
00005568  4A79 FFFF 9232           tst.w      [0xFFFF9232]
0000556E  6734                     beq        +0x36 /* 000055A4 */
00005570  99CC                     sub.l      A4, A4
00005572  42A7                     clr.l      -[A7]
00005574  2F3C 736E 6420           move.l     -[A7], 0x736E6420 /* 'snd ' */
0000557A  3F2E 0008                move.w     -[A7], [A6 + 0x8]
0000557E  A9A0                     syscall    GetResource
00005580  265F                     movea.l    A3, [A7]+
00005582  4267                     clr.w      -[A7]
00005584  2F0C                     move.l     -[A7], A4
00005586  2F0B                     move.l     -[A7], A3
00005588  1F3C 0001                move.b     -[A7], 0x1
0000558C  A805                     syscall    SndPlay
0000558E  3E1F                     move.w     D7, [A7]+
00005590  6712                     beq        +0x14 /* 000055A4 */
00005592  2F3C FFFF C138           move.l     -[A7], 0xFFFFC138
00005598  2F3C FFFF C13A           move.l     -[A7], 0xFFFFC13A
0000559E  4EBA F82E                jsr        [PC - 0x7D2 /* 00004DCE */]
000055A2  508F                     addq.l     A7, 8
label000055A4:
000055A4  4CDF 1880                movem.l    D7,A3,A4, [A7]+
000055A8  4E5E                     unlink     A6
000055AA  4E75                     rts
export_74:
000055AC  48E7 0118                movem.l    -[A7], D7,A3,A4
000055B0  42B9 FFFF C046           clr.l      [0xFFFFC046]
000055B6  42B9 FFFF C042           clr.l      [0xFFFFC042]
000055BC  4279 FFFF C07E           clr.w      [0xFFFFC07E]
000055C2  7E00                     moveq.l    D7, 0x00
000055C4  287C FFFF C04A           movea.l    A4, 0xFFFFC04A
000055CA  267C FFFF C062           movea.l    A3, 0xFFFFC062
000055D0  600A                     bra        +0xC /* 000055DC */
label000055D2:
000055D2  4293                     clr.l      [A3]
000055D4  4294                     clr.l      [A4]
000055D6  5247                     addq.w     D7, 1
000055D8  588C                     addq.l     A4, 4
000055DA  588B                     addq.l     A3, 4
label000055DC:
000055DC  0C47 0006                cmpi.w     D7, 0x6
000055E0  6DF0                     blt        -0xE /* 000055D2 */
000055E2  4CDF 1880                movem.l    D7,A3,A4, [A7]+
000055E6  4E75                     rts
fn000055E8:
000055E8  4E56 FFFE                link       A6, -0x0002
000055EC  48E7 0318                movem.l    -[A7], D6,D7,A3,A4
000055F0  3E2E 0008                move.w     D7, [A6 + 0x8]
000055F4  2007                     move.l     D0, D7
000055F6  48C0                     ext.l      D0
000055F8  E588                     lsl        D0, 2
000055FA  0680 FFFF C062           addi.l     D0, 0xFFFFC062
00005600  2840                     movea.l    A4, D0
00005602  4A94                     tst.l      [A4]
00005604  6724                     beq        +0x26 /* 0000562A */
00005606  4267                     clr.w      -[A7]
00005608  2F14                     move.l     -[A7], [A4]
0000560A  1F3C 0001                move.b     -[A7], 0x1
0000560E  A801                     syscall    SndDisposeChannel
00005610  3C1F                     move.w     D6, [A7]+
00005612  4A46                     tst.w      D6
00005614  6712                     beq        +0x14 /* 00005628 */
00005616  2F3C FFFF C150           move.l     -[A7], 0xFFFFC150
0000561C  2F3C FFFF C152           move.l     -[A7], 0xFFFFC152
00005622  4EBA F7AA                jsr        [PC - 0x856 /* 00004DCE */]
00005626  508F                     addq.l     A7, 8
label00005628:
00005628  4294                     clr.l      [A4]
label0000562A:
0000562A  2007                     move.l     D0, D7
0000562C  48C0                     ext.l      D0
0000562E  E588                     lsl        D0, 2
00005630  2040                     movea.l    A0, D0
00005632  D1FC FFFF C04A           add.l      A0, 0xFFFFC04A
00005638  2850                     movea.l    A4, [A0]
0000563A  2007                     move.l     D0, D7
0000563C  48C0                     ext.l      D0
0000563E  E588                     lsl        D0, 2
00005640  0680 FFFF C04A           addi.l     D0, 0xFFFFC04A
00005646  2640                     movea.l    A3, D0
00005648  200C                     move.l     D0, A4
0000564A  674A                     beq        +0x4C /* 00005696 */
0000564C  4A94                     tst.l      [A4]
0000564E  6744                     beq        +0x46 /* 00005694 */
00005650  2053                     movea.l    A0, [A3]
00005652  A02A                     syscall    HUnlock
00005654  0C78 FF91 0220           cmpi.w     [0x00000220 /* MemErr */], 0xFF91
0000565A  6612                     bne        +0x14 /* 0000566E */
0000565C  2F3C FFFF C170           move.l     -[A7], 0xFFFFC170
00005662  2F3C FFFF C186           move.l     -[A7], 0xFFFFC186
00005668  4EBA F764                jsr        [PC - 0x89C /* 00004DCE */]
0000566C  508F                     addq.l     A7, 8
label0000566E:
0000566E  2053                     movea.l    A0, [A3]
00005670  A049                     syscall    HPurge
00005672  4A78 0220                tst.w      [0x00000220 /* MemErr */]
00005676  671C                     beq        +0x1E /* 00005694 */
00005678  7030                     moveq.l    D0, 0x30
0000567A  D007                     add.b      D0, D7
0000567C  1D40 FFFE                move.b     [A6 - 0x2], D0
00005680  422E FFFF                clr.b      [A6 - 0x1]
00005684  486E FFFE                pea.l      [A6 - 0x2]
00005688  2F3C FFFF C19C           move.l     -[A7], 0xFFFFC19C
0000568E  4EBA F73E                jsr        [PC - 0x8C2 /* 00004DCE */]
00005692  508F                     addq.l     A7, 8
label00005694:
00005694  4293                     clr.l      [A3]
label00005696:
00005696  4CDF 18C0                movem.l    D6,D7,A3,A4, [A7]+
0000569A  4E5E                     unlink     A6
0000569C  4E75                     rts
export_75:
fn0000569E:
0000569E  2F07                     move.l     -[A7], D7
000056A0  4A39 FFFF 9084           tst.b      [0xFFFF9084]
000056A6  671A                     beq        +0x1C /* 000056C2 */
000056A8  4279 FFFF C07E           clr.w      [0xFFFFC07E]
000056AE  7E00                     moveq.l    D7, 0x00
000056B0  600A                     bra        +0xC /* 000056BC */
label000056B2:
000056B2  3F07                     move.w     -[A7], D7
000056B4  4EBA FF32                jsr        [PC - 0xCE /* 000055E8 */]
000056B8  548F                     addq.l     A7, 2
000056BA  5247                     addq.w     D7, 1
label000056BC:
000056BC  0C47 0006                cmpi.w     D7, 0x6
000056C0  6DF0                     blt        -0xE /* 000056B2 */
label000056C2:
000056C2  4AB9 FFFF C046           tst.l      [0xFFFFC046]
000056C8  672C                     beq        +0x2E /* 000056F6 */
000056CA  4267                     clr.w      -[A7]
000056CC  2F39 FFFF C046           move.l     -[A7], [0xFFFFC046]
000056D2  1F3C 0001                move.b     -[A7], 0x1
000056D6  A801                     syscall    SndDisposeChannel
000056D8  3E1F                     move.w     D7, [A7]+
000056DA  4A47                     tst.w      D7
000056DC  6712                     beq        +0x14 /* 000056F0 */
000056DE  2F3C FFFF C1B6           move.l     -[A7], 0xFFFFC1B6
000056E4  2F3C FFFF C1B8           move.l     -[A7], 0xFFFFC1B8
000056EA  4EBA F6E2                jsr        [PC - 0x91E /* 00004DCE */]
000056EE  508F                     addq.l     A7, 8
label000056F0:
000056F0  42B9 FFFF C046           clr.l      [0xFFFFC046]
label000056F6:
000056F6  4AB9 FFFF C042           tst.l      [0xFFFFC042]
000056FC  6738                     beq        +0x3A /* 00005736 */
000056FE  2079 FFFF C042           movea.l    A0, [0xFFFFC042]
00005704  4A90                     tst.l      [A0]
00005706  6728                     beq        +0x2A /* 00005730 */
00005708  2079 FFFF C042           movea.l    A0, [0xFFFFC042]
0000570E  A02A                     syscall    HUnlock
00005710  2079 FFFF C042           movea.l    A0, [0xFFFFC042]
00005716  A049                     syscall    HPurge
00005718  4A78 0220                tst.w      [0x00000220 /* MemErr */]
0000571C  6712                     beq        +0x14 /* 00005730 */
0000571E  2F3C FFFF C1D6           move.l     -[A7], 0xFFFFC1D6
00005724  2F3C FFFF C1D8           move.l     -[A7], 0xFFFFC1D8
0000572A  4EBA F6A2                jsr        [PC - 0x95E /* 00004DCE */]
0000572E  508F                     addq.l     A7, 8
label00005730:
00005730  42B9 FFFF C042           clr.l      [0xFFFFC042]
label00005736:
00005736  2E1F                     move.l     D7, [A7]+
00005738  4E75                     rts
export_76:
fn0000573A:
0000573A  4E56 FFFE                link       A6, -0x0002
0000573E  48E7 0F18                movem.l    -[A7], D4,D5,D6,D7,A3,A4
00005742  3A2E 0008                move.w     D5, [A6 + 0x8]
00005746  3C2E 000A                move.w     D6, [A6 + 0xA]
0000574A  4A79 FFFF 9232           tst.w      [0xFFFF9232]
00005750  6700 02D2                beq        +0x2D4 /* 00005A24 */
00005754  4A39 FFFF 9084           tst.b      [0xFFFF9084]
0000575A  6700 01EE                beq        +0x1F0 /* 0000594A */
0000575E  7E00                     moveq.l    D7, 0x00
00005760  303C 03C2                move.w     D0, 0x3C2
00005764  C1C6                     muls.w     D0, D6
00005766  2205                     move.l     D1, D5
00005768  48C1                     ext.l      D1
0000576A  E589                     lsl        D1, 2
0000576C  0681 FFFF 9792           addi.l     D1, 0xFFFF9792
00005772  D280                     add.l      D1, D0
00005774  2841                     movea.l    A4, D1
label00005776:
00005776  3F39 FFFF C07E           move.w     -[A7], [0xFFFFC07E]
0000577C  4EBA FE6A                jsr        [PC - 0x196 /* 000055E8 */]
00005780  4257                     clr.w      [A7]
00005782  3039 FFFF C07E           move.w     D0, [0xFFFFC07E]
00005788  48C0                     ext.l      D0
0000578A  E588                     lsl        D0, 2
0000578C  0680 FFFF C062           addi.l     D0, 0xFFFFC062
00005792  2F00                     move.l     -[A7], D0
00005794  3F3C 0005                move.w     -[A7], 0x5
00005798  42A7                     clr.l      -[A7]
0000579A  42A7                     clr.l      -[A7]
0000579C  A807                     syscall    SndNewChannel
0000579E  381F                     move.w     D4, [A7]+
000057A0  5247                     addq.w     D7, 1
000057A2  0C44 FF37                cmpi.w     D4, 0xFF37
000057A6  6618                     bne        +0x1A /* 000057C0 */
000057A8  3039 FFFF C07E           move.w     D0, [0xFFFFC07E]
000057AE  48C0                     ext.l      D0
000057B0  E588                     lsl        D0, 2
000057B2  2040                     movea.l    A0, D0
000057B4  D1FC FFFF C062           add.l      A0, 0xFFFFC062
000057BA  4290                     clr.l      [A0]
000057BC  6000 0164                bra        +0x166 /* 00005922 */
label000057C0:
000057C0  4A44                     tst.w      D4
000057C2  6600 015E                bne        +0x160 /* 00005922 */
000057C6  0C46 0006                cmpi.w     D6, 0x6
000057CA  6622                     bne        +0x24 /* 000057EE */
000057CC  42A7                     clr.l      -[A7]
000057CE  2F3C 736E 6420           move.l     -[A7], 0x736E6420 /* 'snd ' */
000057D4  3F05                     move.w     -[A7], D5
000057D6  A9A0                     syscall    GetResource
000057D8  3039 FFFF C07E           move.w     D0, [0xFFFFC07E]
000057DE  48C0                     ext.l      D0
000057E0  E588                     lsl        D0, 2
000057E2  2040                     movea.l    A0, D0
000057E4  D1FC FFFF C04A           add.l      A0, 0xFFFFC04A
000057EA  209F                     move.l     [A0], [A7]+
000057EC  6038                     bra        +0x3A /* 00005826 */
label000057EE:
000057EE  4A94                     tst.l      [A4]
000057F0  6720                     beq        +0x22 /* 00005812 */
000057F2  3F05                     move.w     -[A7], D5
000057F4  3F06                     move.w     -[A7], D6
000057F6  4EAD 009A                jsr        [A5 + 0x9A /* export_15, CODE:4 @ 000062D6 */]
000057FA  3039 FFFF C07E           move.w     D0, [0xFFFFC07E]
00005800  48C0                     ext.l      D0
00005802  E588                     lsl        D0, 2
00005804  2040                     movea.l    A0, D0
00005806  D1FC FFFF C04A           add.l      A0, 0xFFFFC04A
0000580C  2094                     move.l     [A0], [A4]
0000580E  588F                     addq.l     A7, 4
00005810  6014                     bra        +0x16 /* 00005826 */
label00005812:
00005812  3039 FFFF C07E           move.w     D0, [0xFFFFC07E]
00005818  48C0                     ext.l      D0
0000581A  E588                     lsl        D0, 2
0000581C  2040                     movea.l    A0, D0
0000581E  D1FC FFFF C04A           add.l      A0, 0xFFFFC04A
00005824  4290                     clr.l      [A0]
label00005826:
00005826  3039 FFFF C07E           move.w     D0, [0xFFFFC07E]
0000582C  48C0                     ext.l      D0
0000582E  E588                     lsl        D0, 2
00005830  2040                     movea.l    A0, D0
00005832  D1FC FFFF C04A           add.l      A0, 0xFFFFC04A
00005838  2650                     movea.l    A3, [A0]
0000583A  4A93                     tst.l      [A3]
0000583C  662A                     bne        +0x2C /* 00005868 */
0000583E  2F3C FFFF C1F0           move.l     -[A7], 0xFFFFC1F0
00005844  2F3C FFFF C1F2           move.l     -[A7], 0xFFFFC1F2
0000584A  4EBA F582                jsr        [PC - 0xA7E /* 00004DCE */]
0000584E  3039 FFFF C07E           move.w     D0, [0xFFFFC07E]
00005854  48C0                     ext.l      D0
00005856  E588                     lsl        D0, 2
00005858  2040                     movea.l    A0, D0
0000585A  D1FC FFFF C04A           add.l      A0, 0xFFFFC04A
00005860  4290                     clr.l      [A0]
00005862  508F                     addq.l     A7, 8
00005864  6000 00BA                bra        +0xBC /* 00005920 */
label00005868:
00005868  200B                     move.l     D0, A3
0000586A  6700 00A8                beq        +0xAA /* 00005914 */
0000586E  3039 FFFF C07E           move.w     D0, [0xFFFFC07E]
00005874  48C0                     ext.l      D0
00005876  E588                     lsl        D0, 2
00005878  2040                     movea.l    A0, D0
0000587A  D1FC FFFF C04A           add.l      A0, 0xFFFFC04A
00005880  2050                     movea.l    A0, [A0]
00005882  A029                     syscall    HLock
00005884  4A78 0220                tst.w      [0x00000220 /* MemErr */]
00005888  6712                     beq        +0x14 /* 0000589C */
0000588A  2F3C FFFF C206           move.l     -[A7], 0xFFFFC206
00005890  2F3C FFFF C208           move.l     -[A7], 0xFFFFC208
00005896  4EBA F536                jsr        [PC - 0xACA /* 00004DCE */]
0000589A  508F                     addq.l     A7, 8
label0000589C:
0000589C  3039 FFFF C07E           move.w     D0, [0xFFFFC07E]
000058A2  48C0                     ext.l      D0
000058A4  E588                     lsl        D0, 2
000058A6  2040                     movea.l    A0, D0
000058A8  D1FC FFFF C04A           add.l      A0, 0xFFFFC04A
000058AE  2050                     movea.l    A0, [A0]
000058B0  A04A                     syscall    HNoPurge
000058B2  4A78 0220                tst.w      [0x00000220 /* MemErr */]
000058B6  6712                     beq        +0x14 /* 000058CA */
000058B8  2F3C FFFF C21C           move.l     -[A7], 0xFFFFC21C
000058BE  2F3C FFFF C21E           move.l     -[A7], 0xFFFFC21E
000058C4  4EBA F508                jsr        [PC - 0xAF8 /* 00004DCE */]
000058C8  508F                     addq.l     A7, 8
label000058CA:
000058CA  4267                     clr.w      -[A7]
000058CC  3039 FFFF C07E           move.w     D0, [0xFFFFC07E]
000058D2  48C0                     ext.l      D0
000058D4  E588                     lsl        D0, 2
000058D6  2040                     movea.l    A0, D0
000058D8  D1FC FFFF C062           add.l      A0, 0xFFFFC062
000058DE  2F10                     move.l     -[A7], [A0]
000058E0  3039 FFFF C07E           move.w     D0, [0xFFFFC07E]
000058E6  48C0                     ext.l      D0
000058E8  E588                     lsl        D0, 2
000058EA  2040                     movea.l    A0, D0
000058EC  D1FC FFFF C04A           add.l      A0, 0xFFFFC04A
000058F2  2F10                     move.l     -[A7], [A0]
000058F4  1F3C 0001                move.b     -[A7], 0x1
000058F8  A805                     syscall    SndPlay
000058FA  381F                     move.w     D4, [A7]+
000058FC  4A44                     tst.w      D4
000058FE  6720                     beq        +0x22 /* 00005920 */
00005900  2F3C FFFF C234           move.l     -[A7], 0xFFFFC234
00005906  2F3C FFFF C236           move.l     -[A7], 0xFFFFC236
0000590C  4EBA F4C0                jsr        [PC - 0xB40 /* 00004DCE */]
00005910  508F                     addq.l     A7, 8
00005912  600C                     bra        +0xE /* 00005920 */
label00005914:
00005914  3F39 FFFF C07E           move.w     -[A7], [0xFFFFC07E]
0000591A  4EBA FCCC                jsr        [PC - 0x334 /* 000055E8 */]
0000591E  548F                     addq.l     A7, 2
label00005920:
00005920  7800                     moveq.l    D4, 0x00
label00005922:
00005922  5279 FFFF C07E           addq.w     [0xFFFFC07E], 1
00005928  0C79 0006 FFFF C07E      cmpi.w     [0xFFFFC07E], 0x6
00005930  6D06                     blt        +0x8 /* 00005938 */
00005932  4279 FFFF C07E           clr.w      [0xFFFFC07E]
label00005938:
00005938  4A44                     tst.w      D4
0000593A  6700 00E8                beq        +0xEA /* 00005A24 */
0000593E  0C47 0006                cmpi.w     D7, 0x6
00005942  6F00 FE32                ble        -0x1CC /* 00005776 */
00005946  6000 00DC                bra        +0xDE /* 00005A24 */
label0000594A:
0000594A  4EBA FD52                jsr        [PC - 0x2AE /* 0000569E */]
0000594E  0C46 0006                cmpi.w     D6, 0x6
00005952  6614                     bne        +0x16 /* 00005968 */
00005954  42A7                     clr.l      -[A7]
00005956  2F3C 736E 6420           move.l     -[A7], 0x736E6420 /* 'snd ' */
0000595C  3F05                     move.w     -[A7], D5
0000595E  A9A0                     syscall    GetResource
00005960  23DF FFFF C042           move.l     [0xFFFFC042], [A7]+
00005966  602A                     bra        +0x2C /* 00005992 */
label00005968:
00005968  303C 03C2                move.w     D0, 0x3C2
0000596C  C1C6                     muls.w     D0, D6
0000596E  2205                     move.l     D1, D5
00005970  48C1                     ext.l      D1
00005972  E589                     lsl        D1, 2
00005974  0681 FFFF 9792           addi.l     D1, 0xFFFF9792
0000597A  D280                     add.l      D1, D0
0000597C  2841                     movea.l    A4, D1
0000597E  4A94                     tst.l      [A4]
00005980  6710                     beq        +0x12 /* 00005992 */
00005982  3F05                     move.w     -[A7], D5
00005984  3F06                     move.w     -[A7], D6
00005986  4EAD 009A                jsr        [A5 + 0x9A /* export_15, CODE:4 @ 000062D6 */]
0000598A  23D4 FFFF C042           move.l     [0xFFFFC042], [A4]
00005990  588F                     addq.l     A7, 4
label00005992:
00005992  2079 FFFF C042           movea.l    A0, [0xFFFFC042]
00005998  4A90                     tst.l      [A0]
0000599A  661A                     bne        +0x1C /* 000059B6 */
0000599C  2F3C FFFF C24A           move.l     -[A7], 0xFFFFC24A
000059A2  2F3C FFFF C24C           move.l     -[A7], 0xFFFFC24C
000059A8  4EBA F424                jsr        [PC - 0xBDC /* 00004DCE */]
000059AC  42B9 FFFF C042           clr.l      [0xFFFFC042]
000059B2  508F                     addq.l     A7, 8
000059B4  606E                     bra        +0x70 /* 00005A24 */
label000059B6:
000059B6  4AB9 FFFF C042           tst.l      [0xFFFFC042]
000059BC  6766                     beq        +0x68 /* 00005A24 */
000059BE  2079 FFFF C042           movea.l    A0, [0xFFFFC042]
000059C4  A029                     syscall    HLock
000059C6  2079 FFFF C042           movea.l    A0, [0xFFFFC042]
000059CC  A04A                     syscall    HNoPurge
000059CE  4267                     clr.w      -[A7]
000059D0  2F3C FFFF C046           move.l     -[A7], 0xFFFFC046
000059D6  4267                     clr.w      -[A7]
000059D8  42A7                     clr.l      -[A7]
000059DA  42A7                     clr.l      -[A7]
000059DC  A807                     syscall    SndNewChannel
000059DE  381F                     move.w     D4, [A7]+
000059E0  4A44                     tst.w      D4
000059E2  662E                     bne        +0x30 /* 00005A12 */
000059E4  4267                     clr.w      -[A7]
000059E6  2F39 FFFF C046           move.l     -[A7], [0xFFFFC046]
000059EC  2F39 FFFF C042           move.l     -[A7], [0xFFFFC042]
000059F2  1F3C 0001                move.b     -[A7], 0x1
000059F6  A805                     syscall    SndPlay
000059F8  381F                     move.w     D4, [A7]+
000059FA  4A44                     tst.w      D4
000059FC  6726                     beq        +0x28 /* 00005A24 */
000059FE  2F3C FFFF C260           move.l     -[A7], 0xFFFFC260
00005A04  2F3C FFFF C262           move.l     -[A7], 0xFFFFC262
00005A0A  4EBA F3C2                jsr        [PC - 0xC3E /* 00004DCE */]
00005A0E  508F                     addq.l     A7, 8
00005A10  6012                     bra        +0x14 /* 00005A24 */
label00005A12:
00005A12  2F3C FFFF C278           move.l     -[A7], 0xFFFFC278
00005A18  2F3C FFFF C27A           move.l     -[A7], 0xFFFFC27A
00005A1E  4EBA F3AE                jsr        [PC - 0xC52 /* 00004DCE */]
00005A22  508F                     addq.l     A7, 8
label00005A24:
00005A24  4CDF 18F0                movem.l    D4,D5,D6,D7,A3,A4, [A7]+
00005A28  4E5E                     unlink     A6
00005A2A  4E75                     rts
fn00005A2C:
00005A2C  4E56 FFFC                link       A6, -0x0004
00005A30  42A7                     clr.l      -[A7]
00005A32  2F3C 0100 A86E           move.l     -[A7], 0x100A86E
00005A38  4EAD 03C2                jsr        [A5 + 0x3C2 /* export_116, CODE:7 @ 00002738 */]
00005A3C  2D5F FFFC                move.l     [A6 - 0x4], [A7]+
00005A40  42A7                     clr.l      -[A7]
00005A42  2F3C 0100 AA6E           move.l     -[A7], 0x100AA6E
00005A48  4EAD 03C2                jsr        [A5 + 0x3C2 /* export_116, CODE:7 @ 00002738 */]
00005A4C  202E FFFC                move.l     D0, [A6 - 0x4]
00005A50  B09F                     cmp.l      D0, [A7]+
00005A52  6606                     bne        +0x8 /* 00005A5A */
00005A54  303C 0200                move.w     D0, 0x200
00005A58  6004                     bra        +0x6 /* 00005A5E */
label00005A5A:
00005A5A  303C 0400                move.w     D0, 0x400
label00005A5E:
00005A5E  4E5E                     unlink     A6
00005A60  4E75                     rts
fn00005A62:
00005A62  4E56 0000                link       A6, 0
00005A66  082E 0000 0009           btst.b     [A6 + 0x9], 0x0
00005A6C  6704                     beq        +0x6 /* 00005A72 */
00005A6E  7001                     moveq.l    D0, 0x01
00005A70  6002                     bra        +0x4 /* 00005A74 */
label00005A72:
00005A72  7000                     moveq.l    D0, 0x00
label00005A74:
00005A74  4E5E                     unlink     A6
00005A76  4E75                     rts
fn00005A78:
00005A78  4E56 FFFC                link       A6, -0x0004
00005A7C  48E7 0300                movem.l    -[A7], D6,D7
00005A80  3C2E 0008                move.w     D6, [A6 + 0x8]
00005A84  3F06                     move.w     -[A7], D6
00005A86  4EBA FFDA                jsr        [PC - 0x26 /* 00005A62 */]
00005A8A  1E00                     move.b     D7, D0
00005A8C  0C07 0001                cmpi.b     D7, 0x1
00005A90  548F                     addq.l     A7, 2
00005A92  6610                     bne        +0x12 /* 00005AA4 */
00005A94  0246 07FF                andi.w     D6, 0x7FF
00005A98  4EBA FF92                jsr        [PC - 0x6E /* 00005A2C */]
00005A9C  B046                     cmp.w      D0, D6
00005A9E  6C04                     bge        +0x6 /* 00005AA4 */
00005AA0  3C3C A89F                move.w     D6, 0xA89F
label00005AA4:
00005AA4  42A7                     clr.l      -[A7]
00005AA6  3F06                     move.w     -[A7], D6
00005AA8  1F07                     move.b     -[A7], D7
00005AAA  4EAD 03C2                jsr        [A5 + 0x3C2 /* export_116, CODE:7 @ 00002738 */]
00005AAE  2D5F FFFC                move.l     [A6 - 0x4], [A7]+
00005AB2  42A7                     clr.l      -[A7]
00005AB4  2F3C 0100 A89F           move.l     -[A7], 0x100A89F
00005ABA  4EAD 03C2                jsr        [A5 + 0x3C2 /* export_116, CODE:7 @ 00002738 */]
00005ABE  202E FFFC                move.l     D0, [A6 - 0x4]
00005AC2  B09F                     cmp.l      D0, [A7]+
00005AC4  56C0                     sne        D0
00005AC6  4400                     neg.b      D0
00005AC8  4880                     ext.w      D0
00005ACA  4CDF 00C0                movem.l    D6,D7, [A7]+
00005ACE  4E5E                     unlink     A6
00005AD0  4E75                     rts
export_77:
00005AD2  4E56 FFEC                link       A6, -0x0014
00005AD6  2F07                     move.l     -[A7], D7
00005AD8  3F3C A860                move.w     -[A7], 0xA860
00005ADC  4EBA FF9A                jsr        [PC - 0x66 /* 00005A78 */]
00005AE0  13C0 FFFF 9082           move.b     [0xFFFF9082], D0
00005AE6  3EBC A1AD                move.w     [A7], 0xA1AD
00005AEA  4EBA FF8C                jsr        [PC - 0x74 /* 00005A78 */]
00005AEE  13C0 FFFF 9080           move.b     [0xFFFF9080], D0
00005AF4  4A39 FFFF 9080           tst.b      [0xFFFF9080]
00005AFA  548F                     addq.l     A7, 2
00005AFC  6700 010C                beq        +0x10E /* 00005C0A */
00005B00  4267                     clr.w      -[A7]
00005B02  2F3C 6670 7520           move.l     -[A7], 0x66707520 /* 'fpu ' */
00005B08  486E FFEC                pea.l      [A6 - 0x14]
00005B0C  4EAD 03B2                jsr        [A5 + 0x3B2 /* export_114, CODE:7 @ 0000251C */]
00005B10  4A5F                     tst.w      [A7]+
00005B12  6706                     beq        +0x8 /* 00005B1A */
00005B14  3F3C 0001                move.w     -[A7], 0x1
00005B18  A9C8                     syscall    SysBeep
label00005B1A:
00005B1A  4AAE FFEC                tst.l      [A6 - 0x14]
00005B1E  5EC0                     sgt        D0
00005B20  4400                     neg.b      D0
00005B22  13C0 FFFF 9083           move.b     [0xFFFF9083], D0
00005B28  4267                     clr.w      -[A7]
00005B2A  2F3C 7164 2020           move.l     -[A7], 0x71642020 /* 'qd  ' */
00005B30  486E FFEC                pea.l      [A6 - 0x14]
00005B34  4EAD 03B2                jsr        [A5 + 0x3B2 /* export_114, CODE:7 @ 0000251C */]
00005B38  4A5F                     tst.w      [A7]+
00005B3A  6706                     beq        +0x8 /* 00005B42 */
00005B3C  3F3C 0001                move.w     -[A7], 0x1
00005B40  A9C8                     syscall    SysBeep
label00005B42:
00005B42  202E FFEC                move.l     D0, [A6 - 0x14]
00005B46  0280 0000 FF00           andi.l     D0, 0xFF00
00005B4C  4A80                     tst.l      D0
00005B4E  5EC0                     sgt        D0
00005B50  4400                     neg.b      D0
00005B52  13C0 FFFF 9081           move.b     [0xFFFF9081], D0
00005B58  4267                     clr.w      -[A7]
00005B5A  2F3C 736E 6420           move.l     -[A7], 0x736E6420 /* 'snd ' */
00005B60  486E FFEC                pea.l      [A6 - 0x14]
00005B64  4EAD 03B2                jsr        [A5 + 0x3B2 /* export_114, CODE:7 @ 0000251C */]
00005B68  4A5F                     tst.w      [A7]+
00005B6A  6706                     beq        +0x8 /* 00005B72 */
00005B6C  3F3C 0001                move.w     -[A7], 0x1
00005B70  A9C8                     syscall    SysBeep
label00005B72:
00005B72  4227                     clr.b      -[A7]
00005B74  486E FFEC                pea.l      [A6 - 0x14]
00005B78  4878 001F                push.l     0x1F
00005B7C  A85D                     syscall    BitTst
00005B7E  4A1F                     tst.b      [A7]+
00005B80  670A                     beq        +0xC /* 00005B8C */
00005B82  13FC 0001 FFFF 9084      move.b     [0xFFFF9084], 0x1
00005B8A  6006                     bra        +0x8 /* 00005B92 */
label00005B8C:
00005B8C  4239 FFFF 9084           clr.b      [0xFFFF9084]
label00005B92:
00005B92  4227                     clr.b      -[A7]
00005B94  486E FFEC                pea.l      [A6 - 0x14]
00005B98  4878 001C                push.l     0x1C
00005B9C  A85D                     syscall    BitTst
00005B9E  4A1F                     tst.b      [A7]+
00005BA0  670A                     beq        +0xC /* 00005BAC */
00005BA2  13FC 0001 FFFF 9085      move.b     [0xFFFF9085], 0x1
00005BAA  6006                     bra        +0x8 /* 00005BB2 */
label00005BAC:
00005BAC  4239 FFFF 9085           clr.b      [0xFFFF9085]
label00005BB2:
00005BB2  4227                     clr.b      -[A7]
00005BB4  486E FFEC                pea.l      [A6 - 0x14]
00005BB8  4878 001A                push.l     0x1A
00005BBC  A85D                     syscall    BitTst
00005BBE  4A1F                     tst.b      [A7]+
00005BC0  670A                     beq        +0xC /* 00005BCC */
00005BC2  13FC 0001 FFFF 9086      move.b     [0xFFFF9086], 0x1
00005BCA  6006                     bra        +0x8 /* 00005BD2 */
label00005BCC:
00005BCC  4239 FFFF 9086           clr.b      [0xFFFF9086]
label00005BD2:
00005BD2  4267                     clr.w      -[A7]
00005BD4  2F3C 7474 7363           move.l     -[A7], 0x74747363 /* 'ttsc' */
00005BDA  486E FFEC                pea.l      [A6 - 0x14]
00005BDE  4EAD 03B2                jsr        [A5 + 0x3B2 /* export_114, CODE:7 @ 0000251C */]
00005BE2  3E1F                     move.w     D7, [A7]+
00005BE4  48C7                     ext.l      D7
00005BE6  0C87 FFFF EA51           cmpi.l     D7, 0xFFFFEA51
00005BEC  670A                     beq        +0xC /* 00005BF8 */
00005BEE  4A87                     tst.l      D7
00005BF0  6706                     beq        +0x8 /* 00005BF8 */
00005BF2  3F3C 0001                move.w     -[A7], 0x1
00005BF6  A9C8                     syscall    SysBeep
label00005BF8:
00005BF8  4227                     clr.b      -[A7]
00005BFA  486E FFEC                pea.l      [A6 - 0x14]
00005BFE  4878 001F                push.l     0x1F
00005C02  A85D                     syscall    BitTst
00005C04  7E00                     moveq.l    D7, 0x00
00005C06  1E1F                     move.b     D7, [A7]+
00005C08  6032                     bra        +0x34 /* 00005C3C */
label00005C0A:
00005C0A  4267                     clr.w      -[A7]
00005C0C  3F3C 0001                move.w     -[A7], 0x1
00005C10  486E FFF0                pea.l      [A6 - 0x10]
00005C14  4EAD 0472                jsr        [A5 + 0x472 /* export_138, CODE:7 @ 000023B2 */]
00005C18  13EE FFF8 FFFF 9083      move.b     [0xFFFF9083], [A6 - 0x8]
00005C20  13EE FFF9 FFFF 9081      move.b     [0xFFFF9081], [A6 - 0x7]
00005C28  4239 FFFF 9085           clr.b      [0xFFFF9085]
00005C2E  4239 FFFF 9086           clr.b      [0xFFFF9086]
00005C34  4239 FFFF 9084           clr.b      [0xFFFF9084]
00005C3A  548F                     addq.l     A7, 2
label00005C3C:
00005C3C  2E1F                     move.l     D7, [A7]+
00005C3E  4E5E                     unlink     A6
00005C40  4E75                     rts
