# near model CODE resource
# jump table entries: 32799-65576 (32778 of them)
fn00000000:
00000000  4E56 FF60                link       A6, -0x00A0
00000004  48E7 0108                movem.l    -[A7], D7,A4
00000008  7E00                     moveq.l    D7, 0x00
0000000A  4A79 FFFF 922C           tst.w      [0xFFFF922C]
00000010  6700 00A6                beq        +0xA8 /* 000000B8 */
00000014  2079 FFFF AEB4           movea.l    A0, [0xFFFFAEB4]
0000001A  4868 011C                pea.l      [A0 + 0x11C]
0000001E  4EAD 047A                jsr        [A5 + 0x47A /* export_139, CODE:7 @ 00002398 */]
00000022  2EAE 0008                move.l     [A7], [A6 + 0x8]
00000026  2F3C FFFF AECE           move.l     -[A7], 0xFFFFAECE
0000002C  486E FFB0                pea.l      [A6 - 0x50]
00000030  4EAD 050A                jsr        [A5 + 0x50A /* export_157, CODE:7 @ 000020CA */]
00000034  2879 FFFF AEB4           movea.l    A4, [0xFFFFAEB4]
0000003A  49EC 0127                lea.l      A4, [A4 + 0x127]
0000003E  1E14                     move.b     D7, [A4]
00000040  4214                     clr.b      [A4]
00000042  2079 FFFF AEB4           movea.l    A0, [0xFFFFAEB4]
00000048  3EA8 0300                move.w     [A7], [A0 + 0x300]
0000004C  4868 011C                pea.l      [A0 + 0x11C]
00000050  2F3C FFFF AED2           move.l     -[A7], 0xFFFFAED2
00000056  486E FF60                pea.l      [A6 - 0xA0]
0000005A  4EAD 050A                jsr        [A5 + 0x50A /* export_157, CODE:7 @ 000020CA */]
0000005E  2079 FFFF AEB4           movea.l    A0, [0xFFFFAEB4]
00000064  1147 0127                move.b     [A0 + 0x127], D7
00000068  2079 FFFF AEB4           movea.l    A0, [0xFFFFAEB4]
0000006E  4868 011C                pea.l      [A0 + 0x11C]
00000072  4EAD 0482                jsr        [A5 + 0x482 /* export_140, CODE:7 @ 0000237C */]
00000076  486E FFB0                pea.l      [A6 - 0x50]
0000007A  4EAD 0482                jsr        [A5 + 0x482 /* export_140, CODE:7 @ 0000237C */]
0000007E  486E FF60                pea.l      [A6 - 0xA0]
00000082  4EAD 0482                jsr        [A5 + 0x482 /* export_140, CODE:7 @ 0000237C */]
00000086  486E FFB0                pea.l      [A6 - 0x50]
0000008A  486E FF60                pea.l      [A6 - 0xA0]
0000008E  2F3C FFFF 9096           move.l     -[A7], 0xFFFF9096
00000094  2F3C FFFF 9096           move.l     -[A7], 0xFFFF9096
0000009A  A98B                     syscall    ParamText
0000009C  4297                     clr.l      [A7]
0000009E  A975                     syscall    TickCount
000000A0  23DF FFFF C07A           move.l     [0xFFFFC07A], [A7]+
000000A6  4257                     clr.w      [A7]
000000A8  3F3C 03EA                move.w     -[A7], 0x3EA
000000AC  486D 021A                pea.l      [A5 + 0x21A /* export_63, CODE:2 @ 00004D5A */]
000000B0  A985                     syscall    Alert
000000B2  3E1F                     move.w     D7, [A7]+
000000B4  4FEF 001E                lea.l      A7, [A7 + 0x1E]
label000000B8:
000000B8  2079 FFFF AEB4           movea.l    A0, [0xFFFFAEB4]
000000BE  5368 0300                subq.w     [A0 + 0x300], 1
000000C2  2079 FFFF AEB4           movea.l    A0, [0xFFFFAEB4]
000000C8  317C FFF6 0108           move.w     [A0 + 0x108], 0xFFF6
000000CE  2079 FFFF AEB4           movea.l    A0, [0xFFFFAEB4]
000000D4  33E8 030C FFFF AEBA      move.w     [0xFFFFAEBA], [A0 + 0x30C]
000000DC  317C 7D00 010E           move.w     [A0 + 0x10E], 0x7D00 /* '}\0' */
000000E2  4EBA 2522                jsr        [PC + 0x2522 /* 00002606 */]
000000E6  0C47 0002                cmpi.w     D7, 0x2
000000EA  6620                     bne        +0x22 /* 0000010C */
000000EC  4279 FFFF 922C           clr.w      [0xFFFF922C]
000000F2  4279 FFFF 922E           clr.w      [0xFFFF922E]
000000F8  2079 FFFF AEB4           movea.l    A0, [0xFFFFAEB4]
000000FE  33D0 FFFF 9228           move.w     [0xFFFF9228], [A0]
00000104  33E8 0300 FFFF AEBC      move.w     [0xFFFFAEBC], [A0 + 0x300]
label0000010C:
0000010C  4CDF 1080                movem.l    D7,A4, [A7]+
00000110  4E5E                     unlink     A6
00000112  4E75                     rts
fn00000114:
00000114  4E56 0000                link       A6, 0
00000118  48E7 0318                movem.l    -[A7], D6,D7,A3,A4
0000011C  286E 0008                movea.l    A4, [A6 + 0x8]
00000120  3C2E 000C                move.w     D6, [A6 + 0xC]
00000124  3E2C 0100                move.w     D7, [A4 + 0x100]
00000128  47EC 0100                lea.l      A3, [A4 + 0x100]
0000012C  4A47                     tst.w      D7
0000012E  6606                     bne        +0x8 /* 00000136 */
00000130  9D6C 0108                sub.w      [A4 + 0x108], D6
00000134  6012                     bra        +0x14 /* 00000148 */
label00000136:
00000136  BC47                     cmp.w      D6, D7
00000138  6F0C                     ble        +0xE /* 00000146 */
0000013A  3006                     move.w     D0, D6
0000013C  9053                     sub.w      D0, [A3]
0000013E  916C 0108                sub.w      [A4 + 0x108], D0
00000142  4253                     clr.w      [A3]
00000144  6002                     bra        +0x4 /* 00000148 */
label00000146:
00000146  9D53                     sub.w      [A3], D6
label00000148:
00000148  4CDF 18C0                movem.l    D6,D7,A3,A4, [A7]+
0000014C  4E5E                     unlink     A6
0000014E  4E75                     rts
fn00000150:
00000150  4E56 0000                link       A6, 0
00000154  48E7 0308                movem.l    -[A7], D6,D7,A4
00000158  3C2E 0008                move.w     D6, [A6 + 0x8]
0000015C  2879 FFFF AEB4           movea.l    A4, [0xFFFFAEB4]
00000162  49EC 0100                lea.l      A4, [A4 + 0x100]
00000166  3E14                     move.w     D7, [A4]
00000168  0C46 0096                cmpi.w     D6, 0x96
0000016C  6F04                     ble        +0x6 /* 00000172 */
0000016E  3C3C 0096                move.w     D6, 0x96
label00000172:
00000172  2079 FFFF AEB4           movea.l    A0, [0xFFFFAEB4]
00000178  4A68 0320                tst.w      [A0 + 0x320]
0000017C  671C                     beq        +0x1E /* 0000019A */
0000017E  2079 FFFF AEB4           movea.l    A0, [0xFFFFAEB4]
00000184  3028 00FE                move.w     D0, [A0 + 0xFE]
00000188  D047                     add.w      D0, D7
0000018A  B046                     cmp.w      D0, D6
0000018C  6C0C                     bge        +0xE /* 0000019A */
0000018E  2079 FFFF AEB4           movea.l    A0, [0xFFFFAEB4]
00000194  3C28 00FE                move.w     D6, [A0 + 0xFE]
00000198  DC47                     add.w      D6, D7
label0000019A:
0000019A  3886                     move.w     [A4], D6
0000019C  3007                     move.w     D0, D7
0000019E  9046                     sub.w      D0, D6
000001A0  2079 FFFF AEB4           movea.l    A0, [0xFFFFAEB4]
000001A6  D168 00FE                add.w      [A0 + 0xFE], D0
000001AA  2079 FFFF AEB4           movea.l    A0, [0xFFFFAEB4]
000001B0  3028 00FE                move.w     D0, [A0 + 0xFE]
000001B4  B068 0306                cmp.w      D0, [A0 + 0x306]
000001B8  6F0C                     ble        +0xE /* 000001C6 */
000001BA  2079 FFFF AEB4           movea.l    A0, [0xFFFFAEB4]
000001C0  3168 0306 00FE           move.w     [A0 + 0xFE], [A0 + 0x306]
label000001C6:
000001C6  4CDF 10C0                movem.l    D6,D7,A4, [A7]+
000001CA  4E5E                     unlink     A6
000001CC  4E75                     rts
fn000001CE:
000001CE  4E56 0000                link       A6, 0
000001D2  48E7 0108                movem.l    -[A7], D7,A4
000001D6  2079 FFFF AEB4           movea.l    A0, [0xFFFFAEB4]
000001DC  70FF                     moveq.l    D0, 0xFFFFFFFF
000001DE  D068 034C                add.w      D0, [A0 + 0x34C]
000001E2  C1FC 0014                muls.w     D0, 0x14
000001E6  2240                     movea.l    A1, D0
000001E8  D3FC FFFF B786           add.l      A1, 0xFFFFB786
000001EE  3028 010A                move.w     D0, [A0 + 0x10A]
000001F2  D2C0                     add.w      A1, D0
000001F4  33AE 0008 0000           move.w     [A1 + D0.w], [A6 + 0x8]
000001FA  7E00                     moveq.l    D7, 0x00
000001FC  287C FFFF 9442           movea.l    A4, 0xFFFF9442
00000202  603E                     bra        +0x40 /* 00000242 */
label00000204:
00000204  4A2C 0116                tst.b      [A4 + 0x116]
00000208  6732                     beq        +0x34 /* 0000023C */
0000020A  2079 FFFF AEB4           movea.l    A0, [0xFFFFAEB4]
00000210  302C 034C                move.w     D0, [A4 + 0x34C]
00000214  B068 034C                cmp.w      D0, [A0 + 0x34C]
00000218  6622                     bne        +0x24 /* 0000023C */
0000021A  2079 FFFF AEB4           movea.l    A0, [0xFFFFAEB4]
00000220  BE50                     cmp.w      D7, [A0]
00000222  6718                     beq        +0x1A /* 0000023C */
00000224  2079 FFFF AEB4           movea.l    A0, [0xFFFFAEB4]
0000022A  302C 03BE                move.w     D0, [A4 + 0x3BE]
0000022E  B068 010A                cmp.w      D0, [A0 + 0x10A]
00000232  6608                     bne        +0xA /* 0000023C */
00000234  2F0C                     move.l     -[A7], A4
00000236  4EBA 4568                jsr        [PC + 0x4568 /* 000047A0 */]
0000023A  588F                     addq.l     A7, 4
label0000023C:
0000023C  5247                     addq.w     D7, 1
0000023E  49EC 03C2                lea.l      A4, [A4 + 0x3C2]
label00000242:
00000242  BE79 FFFF 9226           cmp.w      D7, [0xFFFF9226]
00000248  6DBA                     blt        -0x44 /* 00000204 */
0000024A  4CDF 1080                movem.l    D7,A4, [A7]+
0000024E  4E5E                     unlink     A6
00000250  4E75                     rts
fn00000252:
00000252  4E56 0000                link       A6, 0
00000256  48E7 0700                movem.l    -[A7], D5,D6,D7
0000025A  3A2E 0008                move.w     D5, [A6 + 0x8]
0000025E  2079 FFFF AEB4           movea.l    A0, [0xFFFFAEB4]
00000264  3E28 0104                move.w     D7, [A0 + 0x104]
00000268  0C45 0014                cmpi.w     D5, 0x14
0000026C  6F04                     ble        +0x6 /* 00000272 */
0000026E  7A14                     moveq.l    D5, 0x14
00000270  6008                     bra        +0xA /* 0000027A */
label00000272:
00000272  0C45 FFEC                cmpi.w     D5, 0xFFEC
00000276  6C02                     bge        +0x4 /* 0000027A */
00000278  7AEC                     moveq.l    D5, 0xFFFFFFEC
label0000027A:
0000027A  3005                     move.w     D0, D5
0000027C  9047                     sub.w      D0, D7
0000027E  3F00                     move.w     -[A7], D0
00000280  4EAD 048A                jsr        [A5 + 0x48A /* export_141, CODE:7 @ 0000028C */]
00000284  D040                     add.w      D0, D0
00000286  3C00                     move.w     D6, D0
00000288  2079 FFFF AEB4           movea.l    A0, [0xFFFFAEB4]
0000028E  4A68 0320                tst.w      [A0 + 0x320]
00000292  548F                     addq.l     A7, 2
00000294  6742                     beq        +0x44 /* 000002D8 */
00000296  2079 FFFF AEB4           movea.l    A0, [0xFFFFAEB4]
0000029C  BC68 00FE                cmp.w      D6, [A0 + 0xFE]
000002A0  6F36                     ble        +0x38 /* 000002D8 */
000002A2  2079 FFFF AEB4           movea.l    A0, [0xFFFFAEB4]
000002A8  3C28 00FE                move.w     D6, [A0 + 0xFE]
000002AC  48C6                     ext.l      D6
000002AE  8DFC 0002                divs.w     D6, 0x2
000002B2  BE45                     cmp.w      D7, D5
000002B4  6F0C                     ble        +0xE /* 000002C2 */
000002B6  2079 FFFF AEB4           movea.l    A0, [0xFFFFAEB4]
000002BC  9D68 0104                sub.w      [A0 + 0x104], D6
000002C0  600A                     bra        +0xC /* 000002CC */
label000002C2:
000002C2  2079 FFFF AEB4           movea.l    A0, [0xFFFFAEB4]
000002C8  DD68 0104                add.w      [A0 + 0x104], D6
label000002CC:
000002CC  2079 FFFF AEB4           movea.l    A0, [0xFFFFAEB4]
000002D2  4268 00FE                clr.w      [A0 + 0xFE]
000002D6  6014                     bra        +0x16 /* 000002EC */
label000002D8:
000002D8  2079 FFFF AEB4           movea.l    A0, [0xFFFFAEB4]
000002DE  3145 0104                move.w     [A0 + 0x104], D5
000002E2  2079 FFFF AEB4           movea.l    A0, [0xFFFFAEB4]
000002E8  9D68 00FE                sub.w      [A0 + 0xFE], D6
label000002EC:
000002EC  4CDF 00E0                movem.l    D5,D6,D7, [A7]+
000002F0  4E5E                     unlink     A6
000002F2  4E75                     rts
fn000002F4:
000002F4  4E56 0000                link       A6, 0
000002F8  48E7 0700                movem.l    -[A7], D5,D6,D7
000002FC  3A2E 0008                move.w     D5, [A6 + 0x8]
00000300  2079 FFFF AEB4           movea.l    A0, [0xFFFFAEB4]
00000306  3E28 0106                move.w     D7, [A0 + 0x106]
0000030A  0C45 0014                cmpi.w     D5, 0x14
0000030E  6F04                     ble        +0x6 /* 00000314 */
00000310  7A14                     moveq.l    D5, 0x14
00000312  6008                     bra        +0xA /* 0000031C */
label00000314:
00000314  0C45 FFEC                cmpi.w     D5, 0xFFEC
00000318  6C02                     bge        +0x4 /* 0000031C */
0000031A  7AEC                     moveq.l    D5, 0xFFFFFFEC
label0000031C:
0000031C  3005                     move.w     D0, D5
0000031E  9047                     sub.w      D0, D7
00000320  3F00                     move.w     -[A7], D0
00000322  4EAD 048A                jsr        [A5 + 0x48A /* export_141, CODE:7 @ 0000028C */]
00000326  D040                     add.w      D0, D0
00000328  3C00                     move.w     D6, D0
0000032A  2079 FFFF AEB4           movea.l    A0, [0xFFFFAEB4]
00000330  4A68 0320                tst.w      [A0 + 0x320]
00000334  548F                     addq.l     A7, 2
00000336  6742                     beq        +0x44 /* 0000037A */
00000338  2079 FFFF AEB4           movea.l    A0, [0xFFFFAEB4]
0000033E  BC68 00FE                cmp.w      D6, [A0 + 0xFE]
00000342  6F36                     ble        +0x38 /* 0000037A */
00000344  2079 FFFF AEB4           movea.l    A0, [0xFFFFAEB4]
0000034A  3C28 00FE                move.w     D6, [A0 + 0xFE]
0000034E  48C6                     ext.l      D6
00000350  8DFC 0002                divs.w     D6, 0x2
00000354  BE45                     cmp.w      D7, D5
00000356  6F0C                     ble        +0xE /* 00000364 */
00000358  2079 FFFF AEB4           movea.l    A0, [0xFFFFAEB4]
0000035E  9D68 0106                sub.w      [A0 + 0x106], D6
00000362  600A                     bra        +0xC /* 0000036E */
label00000364:
00000364  2079 FFFF AEB4           movea.l    A0, [0xFFFFAEB4]
0000036A  DD68 0106                add.w      [A0 + 0x106], D6
label0000036E:
0000036E  2079 FFFF AEB4           movea.l    A0, [0xFFFFAEB4]
00000374  4268 00FE                clr.w      [A0 + 0xFE]
00000378  6014                     bra        +0x16 /* 0000038E */
label0000037A:
0000037A  2079 FFFF AEB4           movea.l    A0, [0xFFFFAEB4]
00000380  3145 0106                move.w     [A0 + 0x106], D5
00000384  2079 FFFF AEB4           movea.l    A0, [0xFFFFAEB4]
0000038A  9D68 00FE                sub.w      [A0 + 0xFE], D6
label0000038E:
0000038E  4CDF 00E0                movem.l    D5,D6,D7, [A7]+
00000392  4E5E                     unlink     A6
00000394  4E75                     rts
fn00000396:
00000396  4E56 0000                link       A6, 0
0000039A  2F07                     move.l     -[A7], D7
0000039C  3E2E 0008                move.w     D7, [A6 + 0x8]
000003A0  0C47 0014                cmpi.w     D7, 0x14
000003A4  6F04                     ble        +0x6 /* 000003AA */
000003A6  7E14                     moveq.l    D7, 0x14
000003A8  6008                     bra        +0xA /* 000003B2 */
label000003AA:
000003AA  0C47 FFEC                cmpi.w     D7, 0xFFEC
000003AE  6C02                     bge        +0x4 /* 000003B2 */
000003B0  7EEC                     moveq.l    D7, 0xFFFFFFEC
label000003B2:
000003B2  2079 FFFF AEB4           movea.l    A0, [0xFFFFAEB4]
000003B8  4A68 0320                tst.w      [A0 + 0x320]
000003BC  6750                     beq        +0x52 /* 0000040E */
000003BE  3F07                     move.w     -[A7], D7
000003C0  4EAD 048A                jsr        [A5 + 0x48A /* export_141, CODE:7 @ 0000028C */]
000003C4  2079 FFFF AEB4           movea.l    A0, [0xFFFFAEB4]
000003CA  D040                     add.w      D0, D0
000003CC  B068 00FE                cmp.w      D0, [A0 + 0xFE]
000003D0  548F                     addq.l     A7, 2
000003D2  6F3A                     ble        +0x3C /* 0000040E */
000003D4  4A47                     tst.w      D7
000003D6  6C16                     bge        +0x18 /* 000003EE */
000003D8  2079 FFFF AEB4           movea.l    A0, [0xFFFFAEB4]
000003DE  3028 00FE                move.w     D0, [A0 + 0xFE]
000003E2  48C0                     ext.l      D0
000003E4  81FC 0002                divs.w     D0, 0x2
000003E8  9168 0030                sub.w      [A0 + 0x30], D0
000003EC  6014                     bra        +0x16 /* 00000402 */
label000003EE:
000003EE  2079 FFFF AEB4           movea.l    A0, [0xFFFFAEB4]
000003F4  3028 00FE                move.w     D0, [A0 + 0xFE]
000003F8  48C0                     ext.l      D0
000003FA  81FC 0002                divs.w     D0, 0x2
000003FE  D168 0030                add.w      [A0 + 0x30], D0
label00000402:
00000402  2079 FFFF AEB4           movea.l    A0, [0xFFFFAEB4]
00000408  4268 00FE                clr.w      [A0 + 0xFE]
0000040C  601E                     bra        +0x20 /* 0000042C */
label0000040E:
0000040E  2079 FFFF AEB4           movea.l    A0, [0xFFFFAEB4]
00000414  DF68 0030                add.w      [A0 + 0x30], D7
00000418  3F07                     move.w     -[A7], D7
0000041A  4EAD 048A                jsr        [A5 + 0x48A /* export_141, CODE:7 @ 0000028C */]
0000041E  D040                     add.w      D0, D0
00000420  2079 FFFF AEB4           movea.l    A0, [0xFFFFAEB4]
00000426  9168 00FE                sub.w      [A0 + 0xFE], D0
0000042A  548F                     addq.l     A7, 2
label0000042C:
0000042C  2E1F                     move.l     D7, [A7]+
0000042E  4E5E                     unlink     A6
00000430  4E75                     rts
fn00000432:
00000432  4E56 0000                link       A6, 0
00000436  2F07                     move.l     -[A7], D7
00000438  3E2E 0008                move.w     D7, [A6 + 0x8]
0000043C  0C47 0014                cmpi.w     D7, 0x14
00000440  6F04                     ble        +0x6 /* 00000446 */
00000442  7E14                     moveq.l    D7, 0x14
00000444  6008                     bra        +0xA /* 0000044E */
label00000446:
00000446  0C47 FFEC                cmpi.w     D7, 0xFFEC
0000044A  6C02                     bge        +0x4 /* 0000044E */
0000044C  7EEC                     moveq.l    D7, 0xFFFFFFEC
label0000044E:
0000044E  2079 FFFF AEB4           movea.l    A0, [0xFFFFAEB4]
00000454  4A68 0320                tst.w      [A0 + 0x320]
00000458  6750                     beq        +0x52 /* 000004AA */
0000045A  3F07                     move.w     -[A7], D7
0000045C  4EAD 048A                jsr        [A5 + 0x48A /* export_141, CODE:7 @ 0000028C */]
00000460  2079 FFFF AEB4           movea.l    A0, [0xFFFFAEB4]
00000466  D040                     add.w      D0, D0
00000468  B068 00FE                cmp.w      D0, [A0 + 0xFE]
0000046C  548F                     addq.l     A7, 2
0000046E  6F3A                     ble        +0x3C /* 000004AA */
00000470  4A47                     tst.w      D7
00000472  6C16                     bge        +0x18 /* 0000048A */
00000474  2079 FFFF AEB4           movea.l    A0, [0xFFFFAEB4]
0000047A  3028 00FE                move.w     D0, [A0 + 0xFE]
0000047E  48C0                     ext.l      D0
00000480  81FC 0002                divs.w     D0, 0x2
00000484  9168 0032                sub.w      [A0 + 0x32], D0
00000488  6014                     bra        +0x16 /* 0000049E */
label0000048A:
0000048A  2079 FFFF AEB4           movea.l    A0, [0xFFFFAEB4]
00000490  3028 00FE                move.w     D0, [A0 + 0xFE]
00000494  48C0                     ext.l      D0
00000496  81FC 0002                divs.w     D0, 0x2
0000049A  D168 0032                add.w      [A0 + 0x32], D0
label0000049E:
0000049E  2079 FFFF AEB4           movea.l    A0, [0xFFFFAEB4]
000004A4  4268 00FE                clr.w      [A0 + 0xFE]
000004A8  601E                     bra        +0x20 /* 000004C8 */
label000004AA:
000004AA  2079 FFFF AEB4           movea.l    A0, [0xFFFFAEB4]
000004B0  DF68 0032                add.w      [A0 + 0x32], D7
000004B4  3F07                     move.w     -[A7], D7
000004B6  4EAD 048A                jsr        [A5 + 0x48A /* export_141, CODE:7 @ 0000028C */]
000004BA  D040                     add.w      D0, D0
000004BC  2079 FFFF AEB4           movea.l    A0, [0xFFFFAEB4]
000004C2  9168 00FE                sub.w      [A0 + 0xFE], D0
000004C6  548F                     addq.l     A7, 2
label000004C8:
000004C8  2E1F                     move.l     D7, [A7]+
000004CA  4E5E                     unlink     A6
000004CC  4E75                     rts
fn000004CE:
000004CE  48E7 0338                movem.l    -[A7], D6,D7,A2,A3,A4
000004D2  42A7                     clr.l      -[A7]
000004D4  2F3C 4943 4F4E           move.l     -[A7], 0x49434F4E /* 'ICON' */
000004DA  3F3C 0103                move.w     -[A7], 0x103
000004DE  A9A0                     syscall    GetResource
000004E0  285F                     movea.l    A4, [A7]+
000004E2  200C                     move.l     D0, A4
000004E4  6758                     beq        +0x5A /* 0000053E */
000004E6  7E00                     moveq.l    D7, 0x00
000004E8  267C FFFF 9442           movea.l    A3, 0xFFFF9442
000004EE  6044                     bra        +0x46 /* 00000534 */
label000004F0:
000004F0  2079 FFFF AEB4           movea.l    A0, [0xFFFFAEB4]
000004F6  BE50                     cmp.w      D7, [A0]
000004F8  6734                     beq        +0x36 /* 0000052E */
000004FA  45EB 0324                lea.l      A2, [A3 + 0x324]
000004FE  4A92                     tst.l      [A2]
00000500  6616                     bne        +0x18 /* 00000518 */
00000502  203C 0000 0080           move.l     D0, 0x80
00000508  A11E                     syscall    NewPtr, flags=1
0000050A  2488                     move.l     [A2], A0
0000050C  4A78 0220                tst.w      [0x00000220 /* MemErr */]
00000510  6706                     beq        +0x8 /* 00000518 */
00000512  3F3C 0001                move.w     -[A7], 0x1
00000516  A9C8                     syscall    SysBeep
label00000518:
00000518  7C00                     moveq.l    D6, 0x00
0000051A  600C                     bra        +0xE /* 00000528 */
label0000051C:
0000051C  2054                     movea.l    A0, [A4]
0000051E  2252                     movea.l    A1, [A2]
00000520  13B0 6000 6000           move.b     [A1 + D6.w], [A0 + D6.w]
00000526  5246                     addq.w     D6, 1
label00000528:
00000528  0C46 0080                cmpi.w     D6, 0x80
0000052C  6DEE                     blt        -0x10 /* 0000051C */
label0000052E:
0000052E  5247                     addq.w     D7, 1
00000530  47EB 03C2                lea.l      A3, [A3 + 0x3C2]
label00000534:
00000534  BE79 FFFF 9226           cmp.w      D7, [0xFFFF9226]
0000053A  6DB4                     blt        -0x4A /* 000004F0 */
0000053C  6006                     bra        +0x8 /* 00000544 */
label0000053E:
0000053E  3F3C 0001                move.w     -[A7], 0x1
00000542  A9C8                     syscall    SysBeep
label00000544:
00000544  4CDF 1CC0                movem.l    D6,D7,A2,A3,A4, [A7]+
00000548  4E75                     rts
fn0000054A:
0000054A  4E56 FFE8                link       A6, -0x0018
0000054E  48E7 0300                movem.l    -[A7], D6,D7
00000552  3C2E 0008                move.w     D6, [A6 + 0x8]
00000556  3E2E 000A                move.w     D7, [A6 + 0xA]
0000055A  4A47                     tst.w      D7
0000055C  6D22                     blt        +0x24 /* 00000580 */
0000055E  0C47 0019                cmpi.w     D7, 0x19
00000562  6E1C                     bgt        +0x1E /* 00000580 */
00000564  0C47 0017                cmpi.w     D7, 0x17
00000568  6716                     beq        +0x18 /* 00000580 */
0000056A  0C47 0018                cmpi.w     D7, 0x18
0000056E  6710                     beq        +0x12 /* 00000580 */
00000570  2079 FFFF AEB4           movea.l    A0, [0xFFFFAEB4]
00000576  D0C7                     add.w      A0, D7
00000578  3186 7002                move.w     [A0 + D7.w + 0x2], D6
0000057C  6000 0262                bra        +0x264 /* 000007E0 */
label00000580:
00000580  3007                     move.w     D0, D7
00000582  0440 0017                subi.w     D0, 0x17
00000586  0C40 0026                cmpi.w     D0, 0x26 /* '&' */
0000058A  6200 0248                bhi        +0x24A /* 000007D4 */
0000058E  43FA 0258                lea.l      A1, [PC + 0x258 /* 000007E8, value 0xFFF8FFF8 */]
00000592  D040                     add.w      D0, D0
00000594  D2F1 0000                add.w      A1, [A1 + D0.w]
00000598  4ED1                     jmp        [A1]
0000059A  4A46                     tst.w      D6
0000059C  6F00 0242                ble        +0x244 /* 000007E0 */
000005A0  3F06                     move.w     -[A7], D6
000005A2  4EBA 4ECA                jsr        [PC + 0x4ECA /* 0000546E */]
000005A6  548F                     addq.l     A7, 2
000005A8  6000 0236                bra        +0x238 /* 000007E0 */
000005AC  4A46                     tst.w      D6
000005AE  6D00 0230                blt        +0x232 /* 000007E0 */
000005B2  3F06                     move.w     -[A7], D6
000005B4  4EBA FB9A                jsr        [PC - 0x466 /* 00000150 */]
000005B8  548F                     addq.l     A7, 2
000005BA  6000 0224                bra        +0x226 /* 000007E0 */
000005BE  2006                     move.l     D0, D6
000005C0  48C0                     ext.l      D0
000005C2  81FC 0168                divs.w     D0, 0x168
000005C6  4840                     swap.w     D0
000005C8  2079 FFFF AEB4           movea.l    A0, [0xFFFFAEB4]
000005CE  3140 0102                move.w     [A0 + 0x102], D0
000005D2  2079 FFFF AEB4           movea.l    A0, [0xFFFFAEB4]
000005D8  4A68 0102                tst.w      [A0 + 0x102]
000005DC  6C12                     bge        +0x14 /* 000005F0 */
000005DE  2079 FFFF AEB4           movea.l    A0, [0xFFFFAEB4]
000005E4  3028 0102                move.w     D0, [A0 + 0x102]
000005E8  0640 0168                addi.w     D0, 0x168
000005EC  3140 0102                move.w     [A0 + 0x102], D0
label000005F0:
000005F0  2F39 FFFF AEB4           move.l     -[A7], [0xFFFFAEB4]
000005F6  4EBA 40C0                jsr        [PC + 0x40C0 /* 000046B8 */]
000005FA  2EB9 FFFF AEB4           move.l     [A7], [0xFFFFAEB4]
00000600  4EBA 412A                jsr        [PC + 0x412A /* 0000472C */]
00000604  588F                     addq.l     A7, 4
00000606  6000 01D8                bra        +0x1DA /* 000007E0 */
0000060A  3F06                     move.w     -[A7], D6
0000060C  4EBA FC44                jsr        [PC - 0x3BC /* 00000252 */]
00000610  548F                     addq.l     A7, 2
00000612  6000 01CC                bra        +0x1CE /* 000007E0 */
00000616  3F06                     move.w     -[A7], D6
00000618  4EBA FCDA                jsr        [PC - 0x326 /* 000002F4 */]
0000061C  548F                     addq.l     A7, 2
0000061E  6000 01C0                bra        +0x1C2 /* 000007E0 */
00000622  4A46                     tst.w      D6
00000624  6F00 01BA                ble        +0x1BC /* 000007E0 */
00000628  3F06                     move.w     -[A7], D6
0000062A  4EBA 5086                jsr        [PC + 0x5086 /* 000056B2 */]
0000062E  548F                     addq.l     A7, 2
00000630  6000 01AE                bra        +0x1B0 /* 000007E0 */
00000634  4A46                     tst.w      D6
00000636  6F00 01A8                ble        +0x1AA /* 000007E0 */
0000063A  3F06                     move.w     -[A7], D6
0000063C  4EBA 5342                jsr        [PC + 0x5342 /* 00005980 */]
00000640  548F                     addq.l     A7, 2
00000642  6000 019C                bra        +0x19E /* 000007E0 */
00000646  4A46                     tst.w      D6
00000648  6F14                     ble        +0x16 /* 0000065E */
0000064A  0C46 000B                cmpi.w     D6, 0xB
0000064E  6C0E                     bge        +0x10 /* 0000065E */
00000650  2079 FFFF AEB4           movea.l    A0, [0xFFFFAEB4]
00000656  3146 010A                move.w     [A0 + 0x10A], D6
0000065A  6000 0184                bra        +0x186 /* 000007E0 */
label0000065E:
0000065E  2F3C FFFF AEEE           move.l     -[A7], 0xFFFFAEEE
00000664  4EBA F99A                jsr        [PC - 0x666 /* 00000000 */]
00000668  588F                     addq.l     A7, 4
0000066A  6000 0174                bra        +0x176 /* 000007E0 */
0000066E  2079 FFFF AEB4           movea.l    A0, [0xFFFFAEB4]
00000674  4A68 034C                tst.w      [A0 + 0x34C]
00000678  6700 0166                beq        +0x168 /* 000007E0 */
0000067C  3F06                     move.w     -[A7], D6
0000067E  4EBA FB4E                jsr        [PC - 0x4B2 /* 000001CE */]
00000682  548F                     addq.l     A7, 2
00000684  6000 015A                bra        +0x15C /* 000007E0 */
00000688  3F06                     move.w     -[A7], D6
0000068A  4EBA FD0A                jsr        [PC - 0x2F6 /* 00000396 */]
0000068E  548F                     addq.l     A7, 2
00000690  6000 014E                bra        +0x150 /* 000007E0 */
00000694  3F06                     move.w     -[A7], D6
00000696  4EBA FD9A                jsr        [PC - 0x266 /* 00000432 */]
0000069A  548F                     addq.l     A7, 2
0000069C  6000 0142                bra        +0x144 /* 000007E0 */
000006A0  3F06                     move.w     -[A7], D6
000006A2  4EBA 542E                jsr        [PC + 0x542E /* 00005AD2 */]
000006A6  548F                     addq.l     A7, 2
000006A8  6000 0136                bra        +0x138 /* 000007E0 */
000006AC  2006                     move.l     D0, D6
000006AE  48C0                     ext.l      D0
000006B0  81FC 0168                divs.w     D0, 0x168
000006B4  4840                     swap.w     D0
000006B6  2079 FFFF AEB4           movea.l    A0, [0xFFFFAEB4]
000006BC  3140 010C                move.w     [A0 + 0x10C], D0
000006C0  2079 FFFF AEB4           movea.l    A0, [0xFFFFAEB4]
000006C6  4A68 010C                tst.w      [A0 + 0x10C]
000006CA  6C0C                     bge        +0xE /* 000006D8 */
000006CC  2079 FFFF AEB4           movea.l    A0, [0xFFFFAEB4]
000006D2  0668 0168 010C           addi.w     [A0 + 0x10C], 0x168
label000006D8:
000006D8  2F39 FFFF AEB4           move.l     -[A7], [0xFFFFAEB4]
000006DE  4EBA 404C                jsr        [PC + 0x404C /* 0000472C */]
000006E2  588F                     addq.l     A7, 4
000006E4  6000 00FA                bra        +0xFC /* 000007E0 */
000006E8  2006                     move.l     D0, D6
000006EA  48C0                     ext.l      D0
000006EC  81FC 0168                divs.w     D0, 0x168
000006F0  4840                     swap.w     D0
000006F2  2079 FFFF AEB4           movea.l    A0, [0xFFFFAEB4]
000006F8  3140 010E                move.w     [A0 + 0x10E], D0
000006FC  2079 FFFF AEB4           movea.l    A0, [0xFFFFAEB4]
00000702  4A68 010E                tst.w      [A0 + 0x10E]
00000706  6C0C                     bge        +0xE /* 00000714 */
00000708  2079 FFFF AEB4           movea.l    A0, [0xFFFFAEB4]
0000070E  0668 0168 010E           addi.w     [A0 + 0x10E], 0x168
label00000714:
00000714  2F39 FFFF AEB4           move.l     -[A7], [0xFFFFAEB4]
0000071A  4EBA 3F9C                jsr        [PC + 0x3F9C /* 000046B8 */]
0000071E  588F                     addq.l     A7, 4
00000720  6000 00BE                bra        +0xC0 /* 000007E0 */
00000724  0C46 0004                cmpi.w     D6, 0x4
00000728  6D00 00B6                blt        +0xB8 /* 000007E0 */
0000072C  0C46 0014                cmpi.w     D6, 0x14
00000730  6E00 00AE                bgt        +0xB0 /* 000007E0 */
00000734  3F06                     move.w     -[A7], D6
00000736  4EBA 549C                jsr        [PC + 0x549C /* 00005BD4 */]
0000073A  548F                     addq.l     A7, 2
0000073C  6000 00A2                bra        +0xA4 /* 000007E0 */
00000740  4A46                     tst.w      D6
00000742  6F00 009C                ble        +0x9E /* 000007E0 */
00000746  4EBA 42FE                jsr        [PC + 0x42FE /* 00004A46 */]
0000074A  3E00                     move.w     D7, D0
0000074C  0C47 FFFF                cmpi.w     D7, 0xFFFF
00000750  6700 008E                beq        +0x90 /* 000007E0 */
00000754  3F07                     move.w     -[A7], D7
00000756  3F06                     move.w     -[A7], D6
00000758  4EBA 5720                jsr        [PC + 0x5720 /* 00005E7A */]
0000075C  588F                     addq.l     A7, 4
0000075E  6000 0080                bra        +0x82 /* 000007E0 */
00000762  0C46 0005                cmpi.w     D6, 0x5
00000766  6F78                     ble        +0x7A /* 000007E0 */
00000768  3F06                     move.w     -[A7], D6
0000076A  4EBA 593E                jsr        [PC + 0x593E /* 000060AA */]
0000076E  548F                     addq.l     A7, 2
00000770  606E                     bra        +0x70 /* 000007E0 */
00000772  4A46                     tst.w      D6
00000774  6F6A                     ble        +0x6C /* 000007E0 */
00000776  486E FFE8                pea.l      [A6 - 0x18]
0000077A  486E FFF4                pea.l      [A6 - 0xC]
0000077E  4EBA 4792                jsr        [PC + 0x4792 /* 00004F12 */]
00000782  3E00                     move.w     D7, D0
00000784  0C47 FFFF                cmpi.w     D7, 0xFFFF
00000788  508F                     addq.l     A7, 8
0000078A  6754                     beq        +0x56 /* 000007E0 */
0000078C  3F07                     move.w     -[A7], D7
0000078E  2F2E FFF0                move.l     -[A7], [A6 - 0x10]
00000792  2F2E FFEC                move.l     -[A7], [A6 - 0x14]
00000796  2F2E FFE8                move.l     -[A7], [A6 - 0x18]
0000079A  2F2E FFFC                move.l     -[A7], [A6 - 0x4]
0000079E  2F2E FFF8                move.l     -[A7], [A6 - 0x8]
000007A2  2F2E FFF4                move.l     -[A7], [A6 - 0xC]
000007A6  3F06                     move.w     -[A7], D6
000007A8  4EBA 5A60                jsr        [PC + 0x5A60 /* 0000620A */]
000007AC  4FEF 001C                lea.l      A7, [A7 + 0x1C]
000007B0  602E                     bra        +0x30 /* 000007E0 */
000007B2  4EBA FD1A                jsr        [PC - 0x2E6 /* 000004CE */]
000007B6  6028                     bra        +0x2A /* 000007E0 */
000007B8  4A46                     tst.w      D6
000007BA  6F24                     ble        +0x26 /* 000007E0 */
000007BC  3F06                     move.w     -[A7], D6
000007BE  4EBA 5C80                jsr        [PC + 0x5C80 /* 00006440 */]
000007C2  548F                     addq.l     A7, 2
000007C4  601A                     bra        +0x1C /* 000007E0 */
000007C6  4A46                     tst.w      D6
000007C8  6F16                     ble        +0x18 /* 000007E0 */
000007CA  3F06                     move.w     -[A7], D6
000007CC  4EBA 5ECC                jsr        [PC + 0x5ECC /* 0000669A */]
000007D0  548F                     addq.l     A7, 2
000007D2  600C                     bra        +0xE /* 000007E0 */
label000007D4:
000007D4  2F3C FFFF AF06           move.l     -[A7], 0xFFFFAF06
000007DA  4EBA F824                jsr        [PC - 0x7DC /* 00000000 */]
000007DE  588F                     addq.l     A7, 4
label000007E0:
000007E0  4CDF 00C0                movem.l    D6,D7, [A7]+
000007E4  4E5E                     unlink     A6
000007E6  4E75                     rts
000007E8  FFF8                     .invalid   <<F/7/7>>
000007EA  FFF8                     .invalid   <<F/7/7>>
000007EC  FFEC                     .invalid   <<F/7/7>>
000007EE  FDB2                     .invalid   <<F/6/6>>
000007F0  FFF8                     .invalid   <<F/7/7>>
000007F2  FDC4                     .invalid   <<F/7/6>>
000007F4  FFF8                     .invalid   <<F/7/7>>
000007F6  FDD6                     .invalid   <<F/7/6>>
000007F8  FE22 FE2E                .unknown   0xFE22 0xFE2E (W = 7)
000007FC  FFF8                     .invalid   <<F/7/7>>
000007FE  FFF8                     .invalid   <<F/7/7>>
00000800  FE3A FE4C                .unknown   0xFE3A 0xFE4C (W = 7)
00000804  FFF8                     .invalid   <<F/7/7>>
00000806  FE5E FE86                .extension 0xE5E <<F/1/7>>, 0xFE86 // unimplemented
0000080A  FEA0 FEAC                .extension 0xEA0 <<F/2-3/7>> // unimplemented
0000080E  FEB8 FFF8                .extension 0xEB8 <<F/2-3/7>> // unimplemented
00000812  FEC4 FF00                .extension 0xEC4 <<F/2-3/7>> // unimplemented
00000816  FFF8                     .invalid   <<F/7/7>>
00000818  FF3C                     .extension 0xF3C <<F/4-5/7>> // unimplemented
0000081A  FF58                     .extension 0xF58 <<F/4-5/7>> // unimplemented
0000081C  FF7A                     .extension 0xF7A <<F/4-5/7>> // unimplemented
0000081E  FF8A                     .invalid   <<F/6/7>>
00000820  FFCA                     .invalid   <<F/7/7>>
00000822  FFF8                     .invalid   <<F/7/7>>
00000824  FFF8                     .invalid   <<F/7/7>>
00000826  FFD0                     .invalid   <<F/7/7>>
00000828  FFF8                     .invalid   <<F/7/7>>
0000082A  FFDE                     .invalid   <<F/7/7>>
0000082C  FFF8                     .invalid   <<F/7/7>>
0000082E  FFF8                     .invalid   <<F/7/7>>
00000830  FFF8                     .invalid   <<F/7/7>>
00000832  FFF8                     .invalid   <<F/7/7>>
00000834  FFF8                     .invalid   <<F/7/7>>
fn00000836:
00000836  4E56 0000                link       A6, 0
0000083A  2F07                     move.l     -[A7], D7
0000083C  3E2E 0008                move.w     D7, [A6 + 0x8]
00000840  4A47                     tst.w      D7
00000842  6D16                     blt        +0x18 /* 0000085A */
00000844  0C47 0019                cmpi.w     D7, 0x19
00000848  6E10                     bgt        +0x12 /* 0000085A */
0000084A  2079 FFFF AEB4           movea.l    A0, [0xFFFFAEB4]
00000850  D0C7                     add.w      A0, D7
00000852  3030 7002                move.w     D0, [A0 + D7.w + 0x2]
00000856  6000 01AC                bra        +0x1AE /* 00000A04 */
label0000085A:
0000085A  3007                     move.w     D0, D7
0000085C  0440 001A                subi.w     D0, 0x1A
00000860  0C40 0023                cmpi.w     D0, 0x23 /* '#' */
00000864  6200 0192                bhi        +0x194 /* 000009F8 */
00000868  43FA 01A2                lea.l      A1, [PC + 0x1A2 /* 00000A0C, value 0xFE68FE6E */]
0000086C  D040                     add.w      D0, D0
0000086E  D2F1 0000                add.w      A1, [A1 + D0.w]
00000872  4ED1                     jmp        [A1]
00000874  7000                     moveq.l    D0, 0x00
00000876  6000 018C                bra        +0x18E /* 00000A04 */
0000087A  2079 FFFF AEB4           movea.l    A0, [0xFFFFAEB4]
00000880  3028 00FE                move.w     D0, [A0 + 0xFE]
00000884  6000 017E                bra        +0x180 /* 00000A04 */
00000888  2079 FFFF AEB4           movea.l    A0, [0xFFFFAEB4]
0000088E  3028 0100                move.w     D0, [A0 + 0x100]
00000892  6000 0170                bra        +0x172 /* 00000A04 */
00000896  2F39 FFFF AEB4           move.l     -[A7], [0xFFFFAEB4]
0000089C  2079 FFFF AEBE           movea.l    A0, [0xFFFFAEBE]
000008A2  4E90                     jsr        [A0]
000008A4  6000 015E                bra        +0x160 /* 00000A04 */
000008A8  2079 FFFF AEB4           movea.l    A0, [0xFFFFAEB4]
000008AE  3028 0102                move.w     D0, [A0 + 0x102]
000008B2  6000 0150                bra        +0x152 /* 00000A04 */
000008B6  2079 FFFF AEB4           movea.l    A0, [0xFFFFAEB4]
000008BC  3028 0104                move.w     D0, [A0 + 0x104]
000008C0  6000 0142                bra        +0x144 /* 00000A04 */
000008C4  2079 FFFF AEB4           movea.l    A0, [0xFFFFAEB4]
000008CA  3028 0106                move.w     D0, [A0 + 0x106]
000008CE  6000 0134                bra        +0x136 /* 00000A04 */
000008D2  2079 FFFF AEB4           movea.l    A0, [0xFFFFAEB4]
000008D8  3028 0108                move.w     D0, [A0 + 0x108]
000008DC  6000 0126                bra        +0x128 /* 00000A04 */
000008E0  4EAD 03A2                jsr        [A5 + 0x3A2 /* export_112, CODE:7 @ 00003D82 */]
000008E4  48C0                     ext.l      D0
000008E6  81FC 0168                divs.w     D0, 0x168
000008EA  4840                     swap.w     D0
000008EC  6000 0116                bra        +0x118 /* 00000A04 */
000008F0  7000                     moveq.l    D0, 0x00
000008F2  6000 0110                bra        +0x112 /* 00000A04 */
000008F6  7000                     moveq.l    D0, 0x00
000008F8  6000 010A                bra        +0x10C /* 00000A04 */
000008FC  2079 FFFF AEB4           movea.l    A0, [0xFFFFAEB4]
00000902  3028 0110                move.w     D0, [A0 + 0x110]
00000906  6000 00FC                bra        +0xFE /* 00000A04 */
0000090A  2079 FFFF AEB4           movea.l    A0, [0xFFFFAEB4]
00000910  3028 010A                move.w     D0, [A0 + 0x10A]
00000914  6000 00EE                bra        +0xF0 /* 00000A04 */
00000918  2079 FFFF AEB4           movea.l    A0, [0xFFFFAEB4]
0000091E  4A68 034C                tst.w      [A0 + 0x34C]
00000922  6726                     beq        +0x28 /* 0000094A */
00000924  2079 FFFF AEB4           movea.l    A0, [0xFFFFAEB4]
0000092A  70FF                     moveq.l    D0, 0xFFFFFFFF
0000092C  D068 034C                add.w      D0, [A0 + 0x34C]
00000930  C1FC 0014                muls.w     D0, 0x14
00000934  2240                     movea.l    A1, D0
00000936  D3FC FFFF B786           add.l      A1, 0xFFFFB786
0000093C  3028 010A                move.w     D0, [A0 + 0x10A]
00000940  D2C0                     add.w      A1, D0
00000942  3031 0000                move.w     D0, [A1 + D0.w]
00000946  6000 00BC                bra        +0xBE /* 00000A04 */
label0000094A:
0000094A  7000                     moveq.l    D0, 0x00
0000094C  6000 00B6                bra        +0xB8 /* 00000A04 */
00000950  7000                     moveq.l    D0, 0x00
00000952  6000 00B0                bra        +0xB2 /* 00000A04 */
00000956  7000                     moveq.l    D0, 0x00
00000958  6000 00AA                bra        +0xAC /* 00000A04 */
0000095C  7000                     moveq.l    D0, 0x00
0000095E  6000 00A4                bra        +0xA6 /* 00000A04 */
00000962  2F39 FFFF AEB4           move.l     -[A7], [0xFFFFAEB4]
00000968  2079 FFFF AEC2           movea.l    A0, [0xFFFFAEC2]
0000096E  4E90                     jsr        [A0]
00000970  6000 0092                bra        +0x94 /* 00000A04 */
00000974  2079 FFFF AEB4           movea.l    A0, [0xFFFFAEB4]
0000097A  3028 010C                move.w     D0, [A0 + 0x10C]
0000097E  6000 0084                bra        +0x86 /* 00000A04 */
00000982  2079 FFFF AEB4           movea.l    A0, [0xFFFFAEB4]
00000988  3028 010E                move.w     D0, [A0 + 0x10E]
0000098C  6076                     bra        +0x78 /* 00000A04 */
0000098E  3039 FFFF B7C8           move.w     D0, [0xFFFFB7C8]
00000994  606E                     bra        +0x70 /* 00000A04 */
00000996  7000                     moveq.l    D0, 0x00
00000998  606A                     bra        +0x6C /* 00000A04 */
0000099A  7000                     moveq.l    D0, 0x00
0000099C  6066                     bra        +0x68 /* 00000A04 */
0000099E  7000                     moveq.l    D0, 0x00
000009A0  6062                     bra        +0x64 /* 00000A04 */
000009A2  7000                     moveq.l    D0, 0x00
000009A4  605E                     bra        +0x60 /* 00000A04 */
000009A6  7000                     moveq.l    D0, 0x00
000009A8  605A                     bra        +0x5C /* 00000A04 */
000009AA  3039 FFFF B7C4           move.w     D0, [0xFFFFB7C4]
000009B0  6052                     bra        +0x54 /* 00000A04 */
000009B2  2079 FFFF AEB4           movea.l    A0, [0xFFFFAEB4]
000009B8  4A68 0110                tst.w      [A0 + 0x110]
000009BC  670C                     beq        +0xE /* 000009CA */
000009BE  2079 FFFF AEB4           movea.l    A0, [0xFFFFAEB4]
000009C4  3028 0114                move.w     D0, [A0 + 0x114]
000009C8  603A                     bra        +0x3C /* 00000A04 */
label000009CA:
000009CA  7000                     moveq.l    D0, 0x00
000009CC  6036                     bra        +0x38 /* 00000A04 */
000009CE  7000                     moveq.l    D0, 0x00
000009D0  6032                     bra        +0x34 /* 00000A04 */
000009D2  4EBA 6808                jsr        [PC + 0x6808 /* 000071DC */]
000009D6  602C                     bra        +0x2E /* 00000A04 */
000009D8  7000                     moveq.l    D0, 0x00
000009DA  6028                     bra        +0x2A /* 00000A04 */
000009DC  7000                     moveq.l    D0, 0x00
000009DE  6024                     bra        +0x26 /* 00000A04 */
000009E0  7000                     moveq.l    D0, 0x00
000009E2  6020                     bra        +0x22 /* 00000A04 */
000009E4  7000                     moveq.l    D0, 0x00
000009E6  601C                     bra        +0x1E /* 00000A04 */
000009E8  7000                     moveq.l    D0, 0x00
000009EA  6018                     bra        +0x1A /* 00000A04 */
000009EC  2079 FFFF AEB4           movea.l    A0, [0xFFFFAEB4]
000009F2  3028 0112                move.w     D0, [A0 + 0x112]
000009F6  600C                     bra        +0xE /* 00000A04 */
label000009F8:
000009F8  2F3C FFFF AF18           move.l     -[A7], 0xFFFFAF18
000009FE  4EBA F600                jsr        [PC - 0xA00 /* 00000000 */]
00000A02  588F                     addq.l     A7, 4
label00000A04:
00000A04  2E2E FFFC                move.l     D7, [A6 - 0x4]
00000A08  4E5E                     unlink     A6
00000A0A  4E75                     rts
00000A0C  FE68 FE6E                .extension 0xE68 <<F/1/7>>, 0xFE6E // unimplemented
00000A10  FE7C FE8A                .extension 0xE7C <<F/1/7>>, 0xFE8A // unimplemented
00000A14  FE9C FEAA                .extension 0xE9C <<F/2-3/7>> // unimplemented
00000A18  FEB8 FEC6                .extension 0xEB8 <<F/2-3/7>> // unimplemented
00000A1C  FED4 FEE4                .extension 0xED4 <<F/2-3/7>> // unimplemented
00000A20  FEEA FEF0                .extension 0xEEA <<F/2-3/7>> // unimplemented
00000A24  FEFE FF0C                .extension 0xEFE <<F/2-3/7>> // unimplemented
00000A28  FF44                     .extension 0xF44 <<F/4-5/7>> // unimplemented
00000A2A  FF4A                     .extension 0xF4A <<F/4-5/7>> // unimplemented
00000A2C  FF50                     .extension 0xF50 <<F/4-5/7>> // unimplemented
00000A2E  FF56                     .extension 0xF56 <<F/4-5/7>> // unimplemented
00000A30  FF68                     .extension 0xF68 <<F/4-5/7>> // unimplemented
00000A32  FF76                     .extension 0xF76 <<F/4-5/7>> // unimplemented
00000A34  FF82                     .invalid   <<F/6/7>>
00000A36  FF8A                     .invalid   <<F/6/7>>
00000A38  FF8E                     .invalid   <<F/6/7>>
00000A3A  FF92                     .invalid   <<F/6/7>>
00000A3C  FF96                     .invalid   <<F/6/7>>
00000A3E  FF9A                     .invalid   <<F/6/7>>
00000A40  FF9E                     .invalid   <<F/6/7>>
00000A42  FFA6                     .invalid   <<F/6/7>>
00000A44  FFC2                     .invalid   <<F/7/7>>
00000A46  FFC6                     .invalid   <<F/7/7>>
00000A48  FFCC                     .invalid   <<F/7/7>>
00000A4A  FFD0                     .invalid   <<F/7/7>>
00000A4C  FFD4                     .invalid   <<F/7/7>>
00000A4E  FFD8                     .invalid   <<F/7/7>>
00000A50  FFDC                     .invalid   <<F/7/7>>
00000A52  FFE0                     .invalid   <<F/7/7>>
fn00000A54:
00000A54  48E7 0308                movem.l    -[A7], D6,D7,A4
00000A58  2079 FFFF AEB4           movea.l    A0, [0xFFFFAEB4]
00000A5E  3E28 0302                move.w     D7, [A0 + 0x302]
00000A62  49E8 0302                lea.l      A4, [A0 + 0x302]
00000A66  0C47 0002                cmpi.w     D7, 0x2
00000A6A  6C0E                     bge        +0x10 /* 00000A7A */
00000A6C  2F3C FFFF AF2A           move.l     -[A7], 0xFFFFAF2A
00000A72  4EBA F58C                jsr        [PC - 0xA74 /* 00000000 */]
00000A76  588F                     addq.l     A7, 4
00000A78  6050                     bra        +0x52 /* 00000ACA */
label00000A7A:
00000A7A  2079 FFFF AEB4           movea.l    A0, [0xFFFFAEB4]
00000A80  D0C7                     add.w      A0, D7
00000A82  D0C7                     add.w      A0, D7
00000A84  2279 FFFF AEB4           movea.l    A1, [0xFFFFAEB4]
00000A8A  D2C7                     add.w      A1, D7
00000A8C  D2C7                     add.w      A1, D7
00000A8E  3C28 0232                move.w     D6, [A0 + 0x232]
00000A92  DC69 0234                add.w      D6, [A1 + 0x234]
00000A96  48C6                     ext.l      D6
00000A98  0C86 0000 4E20           cmpi.l     D6, 0x4E20 /* 'N ' */
00000A9E  6C1E                     bge        +0x20 /* 00000ABE */
00000AA0  0C86 FFFF B1E0           cmpi.l     D6, 0xFFFFB1E0
00000AA6  6F16                     ble        +0x18 /* 00000ABE */
00000AA8  5554                     subq.w     [A4], 2
00000AAA  3014                     move.w     D0, [A4]
00000AAC  5254                     addq.w     [A4], 1
00000AAE  2079 FFFF AEB4           movea.l    A0, [0xFFFFAEB4]
00000AB4  D0C0                     add.w      A0, D0
00000AB6  D0C0                     add.w      A0, D0
00000AB8  3146 0236                move.w     [A0 + 0x236], D6
00000ABC  600C                     bra        +0xE /* 00000ACA */
label00000ABE:
00000ABE  2F3C FFFF AF3A           move.l     -[A7], 0xFFFFAF3A
00000AC4  4EBA F53A                jsr        [PC - 0xAC6 /* 00000000 */]
00000AC8  588F                     addq.l     A7, 4
label00000ACA:
00000ACA  4CDF 10C0                movem.l    D6,D7,A4, [A7]+
00000ACE  4E75                     rts
fn00000AD0:
00000AD0  48E7 0308                movem.l    -[A7], D6,D7,A4
00000AD4  2079 FFFF AEB4           movea.l    A0, [0xFFFFAEB4]
00000ADA  3E28 0302                move.w     D7, [A0 + 0x302]
00000ADE  49E8 0302                lea.l      A4, [A0 + 0x302]
00000AE2  0C47 0002                cmpi.w     D7, 0x2
00000AE6  6C0E                     bge        +0x10 /* 00000AF6 */
00000AE8  2F3C FFFF AF50           move.l     -[A7], 0xFFFFAF50
00000AEE  4EBA F510                jsr        [PC - 0xAF0 /* 00000000 */]
00000AF2  588F                     addq.l     A7, 4
00000AF4  6050                     bra        +0x52 /* 00000B46 */
label00000AF6:
00000AF6  2079 FFFF AEB4           movea.l    A0, [0xFFFFAEB4]
00000AFC  D0C7                     add.w      A0, D7
00000AFE  D0C7                     add.w      A0, D7
00000B00  2279 FFFF AEB4           movea.l    A1, [0xFFFFAEB4]
00000B06  D2C7                     add.w      A1, D7
00000B08  D2C7                     add.w      A1, D7
00000B0A  3C29 0232                move.w     D6, [A1 + 0x232]
00000B0E  9C68 0234                sub.w      D6, [A0 + 0x234]
00000B12  48C6                     ext.l      D6
00000B14  0C86 0000 4E20           cmpi.l     D6, 0x4E20 /* 'N ' */
00000B1A  6C1E                     bge        +0x20 /* 00000B3A */
00000B1C  0C86 FFFF B1E0           cmpi.l     D6, 0xFFFFB1E0
00000B22  6F16                     ble        +0x18 /* 00000B3A */
00000B24  5554                     subq.w     [A4], 2
00000B26  3014                     move.w     D0, [A4]
00000B28  5254                     addq.w     [A4], 1
00000B2A  2079 FFFF AEB4           movea.l    A0, [0xFFFFAEB4]
00000B30  D0C0                     add.w      A0, D0
00000B32  D0C0                     add.w      A0, D0
00000B34  3146 0236                move.w     [A0 + 0x236], D6
00000B38  600C                     bra        +0xE /* 00000B46 */
label00000B3A:
00000B3A  2F3C FFFF AF60           move.l     -[A7], 0xFFFFAF60
00000B40  4EBA F4BE                jsr        [PC - 0xB42 /* 00000000 */]
00000B44  588F                     addq.l     A7, 4
label00000B46:
00000B46  4CDF 10C0                movem.l    D6,D7,A4, [A7]+
00000B4A  4E75                     rts
fn00000B4C:
00000B4C  48E7 0308                movem.l    -[A7], D6,D7,A4
00000B50  2079 FFFF AEB4           movea.l    A0, [0xFFFFAEB4]
00000B56  3E28 0302                move.w     D7, [A0 + 0x302]
00000B5A  49E8 0302                lea.l      A4, [A0 + 0x302]
00000B5E  0C47 0002                cmpi.w     D7, 0x2
00000B62  6C0E                     bge        +0x10 /* 00000B72 */
00000B64  2F3C FFFF AF76           move.l     -[A7], 0xFFFFAF76
00000B6A  4EBA F494                jsr        [PC - 0xB6C /* 00000000 */]
00000B6E  588F                     addq.l     A7, 4
00000B70  6050                     bra        +0x52 /* 00000BC2 */
label00000B72:
00000B72  2079 FFFF AEB4           movea.l    A0, [0xFFFFAEB4]
00000B78  D0C7                     add.w      A0, D7
00000B7A  D0C7                     add.w      A0, D7
00000B7C  2279 FFFF AEB4           movea.l    A1, [0xFFFFAEB4]
00000B82  D2C7                     add.w      A1, D7
00000B84  D2C7                     add.w      A1, D7
00000B86  3C28 0232                move.w     D6, [A0 + 0x232]
00000B8A  CDE9 0234                muls.w     D6, [A1 + 0x234]
00000B8E  48C6                     ext.l      D6
00000B90  0C86 0000 4E20           cmpi.l     D6, 0x4E20 /* 'N ' */
00000B96  6C1E                     bge        +0x20 /* 00000BB6 */
00000B98  0C86 FFFF B1E0           cmpi.l     D6, 0xFFFFB1E0
00000B9E  6F16                     ble        +0x18 /* 00000BB6 */
00000BA0  5554                     subq.w     [A4], 2
00000BA2  3014                     move.w     D0, [A4]
00000BA4  5254                     addq.w     [A4], 1
00000BA6  2079 FFFF AEB4           movea.l    A0, [0xFFFFAEB4]
00000BAC  D0C0                     add.w      A0, D0
00000BAE  D0C0                     add.w      A0, D0
00000BB0  3146 0236                move.w     [A0 + 0x236], D6
00000BB4  600C                     bra        +0xE /* 00000BC2 */
label00000BB6:
00000BB6  2F3C FFFF AF86           move.l     -[A7], 0xFFFFAF86
00000BBC  4EBA F442                jsr        [PC - 0xBBE /* 00000000 */]
00000BC0  588F                     addq.l     A7, 4
label00000BC2:
00000BC2  4CDF 10C0                movem.l    D6,D7,A4, [A7]+
00000BC6  4E75                     rts
fn00000BC8:
00000BC8  48E7 0708                movem.l    -[A7], D5,D6,D7,A4
00000BCC  2079 FFFF AEB4           movea.l    A0, [0xFFFFAEB4]
00000BD2  3E28 0302                move.w     D7, [A0 + 0x302]
00000BD6  49E8 0302                lea.l      A4, [A0 + 0x302]
00000BDA  0C47 0002                cmpi.w     D7, 0x2
00000BDE  6C0E                     bge        +0x10 /* 00000BEE */
00000BE0  2F3C FFFF AF9C           move.l     -[A7], 0xFFFFAF9C
00000BE6  4EBA F418                jsr        [PC - 0xBE8 /* 00000000 */]
00000BEA  588F                     addq.l     A7, 4
00000BEC  604A                     bra        +0x4C /* 00000C38 */
label00000BEE:
00000BEE  2079 FFFF AEB4           movea.l    A0, [0xFFFFAEB4]
00000BF4  3028 0302                move.w     D0, [A0 + 0x302]
00000BF8  D0C0                     add.w      A0, D0
00000BFA  D0C0                     add.w      A0, D0
00000BFC  3C28 0234                move.w     D6, [A0 + 0x234]
00000C00  4A46                     tst.w      D6
00000C02  660E                     bne        +0x10 /* 00000C12 */
00000C04  2F3C FFFF AFAC           move.l     -[A7], 0xFFFFAFAC
00000C0A  4EBA F3F4                jsr        [PC - 0xC0C /* 00000000 */]
00000C0E  588F                     addq.l     A7, 4
00000C10  6026                     bra        +0x28 /* 00000C38 */
label00000C12:
00000C12  2079 FFFF AEB4           movea.l    A0, [0xFFFFAEB4]
00000C18  D0C7                     add.w      A0, D7
00000C1A  D0C7                     add.w      A0, D7
00000C1C  3A28 0232                move.w     D5, [A0 + 0x232]
00000C20  48C5                     ext.l      D5
00000C22  8BC6                     divs.w     D5, D6
00000C24  5554                     subq.w     [A4], 2
00000C26  3014                     move.w     D0, [A4]
00000C28  5254                     addq.w     [A4], 1
00000C2A  2079 FFFF AEB4           movea.l    A0, [0xFFFFAEB4]
00000C30  D0C0                     add.w      A0, D0
00000C32  D0C0                     add.w      A0, D0
00000C34  3145 0236                move.w     [A0 + 0x236], D5
label00000C38:
00000C38  4CDF 10E0                movem.l    D5,D6,D7,A4, [A7]+
00000C3C  4E75                     rts
fn00000C3E:
00000C3E  48E7 0308                movem.l    -[A7], D6,D7,A4
00000C42  2079 FFFF AEB4           movea.l    A0, [0xFFFFAEB4]
00000C48  3E28 0302                move.w     D7, [A0 + 0x302]
00000C4C  49E8 0302                lea.l      A4, [A0 + 0x302]
00000C50  0C47 0002                cmpi.w     D7, 0x2
00000C54  6C0E                     bge        +0x10 /* 00000C64 */
00000C56  2F3C FFFF AFBE           move.l     -[A7], 0xFFFFAFBE
00000C5C  4EBA F3A2                jsr        [PC - 0xC5E /* 00000000 */]
00000C60  588F                     addq.l     A7, 4
00000C62  6036                     bra        +0x38 /* 00000C9A */
label00000C64:
00000C64  2079 FFFF AEB4           movea.l    A0, [0xFFFFAEB4]
00000C6A  D0C7                     add.w      A0, D7
00000C6C  D0C7                     add.w      A0, D7
00000C6E  2279 FFFF AEB4           movea.l    A1, [0xFFFFAEB4]
00000C74  D2C7                     add.w      A1, D7
00000C76  D2C7                     add.w      A1, D7
00000C78  3028 0232                move.w     D0, [A0 + 0x232]
00000C7C  B069 0234                cmp.w      D0, [A1 + 0x234]
00000C80  5EC6                     sgt        D6
00000C82  4406                     neg.b      D6
00000C84  4886                     ext.w      D6
00000C86  5554                     subq.w     [A4], 2
00000C88  3014                     move.w     D0, [A4]
00000C8A  5254                     addq.w     [A4], 1
00000C8C  2079 FFFF AEB4           movea.l    A0, [0xFFFFAEB4]
00000C92  D0C0                     add.w      A0, D0
00000C94  D0C0                     add.w      A0, D0
00000C96  3146 0236                move.w     [A0 + 0x236], D6
label00000C9A:
00000C9A  4CDF 10C0                movem.l    D6,D7,A4, [A7]+
00000C9E  4E75                     rts
fn00000CA0:
00000CA0  48E7 0308                movem.l    -[A7], D6,D7,A4
00000CA4  2079 FFFF AEB4           movea.l    A0, [0xFFFFAEB4]
00000CAA  3E28 0302                move.w     D7, [A0 + 0x302]
00000CAE  49E8 0302                lea.l      A4, [A0 + 0x302]
00000CB2  0C47 0002                cmpi.w     D7, 0x2
00000CB6  6C0E                     bge        +0x10 /* 00000CC6 */
00000CB8  2F3C FFFF AFCE           move.l     -[A7], 0xFFFFAFCE
00000CBE  4EBA F340                jsr        [PC - 0xCC0 /* 00000000 */]
00000CC2  588F                     addq.l     A7, 4
00000CC4  6036                     bra        +0x38 /* 00000CFC */
label00000CC6:
00000CC6  2079 FFFF AEB4           movea.l    A0, [0xFFFFAEB4]
00000CCC  D0C7                     add.w      A0, D7
00000CCE  D0C7                     add.w      A0, D7
00000CD0  2279 FFFF AEB4           movea.l    A1, [0xFFFFAEB4]
00000CD6  D2C7                     add.w      A1, D7
00000CD8  D2C7                     add.w      A1, D7
00000CDA  3028 0232                move.w     D0, [A0 + 0x232]
00000CDE  B069 0234                cmp.w      D0, [A1 + 0x234]
00000CE2  5DC6                     slt        D6
00000CE4  4406                     neg.b      D6
00000CE6  4886                     ext.w      D6
00000CE8  5554                     subq.w     [A4], 2
00000CEA  3014                     move.w     D0, [A4]
00000CEC  5254                     addq.w     [A4], 1
00000CEE  2079 FFFF AEB4           movea.l    A0, [0xFFFFAEB4]
00000CF4  D0C0                     add.w      A0, D0
00000CF6  D0C0                     add.w      A0, D0
00000CF8  3146 0236                move.w     [A0 + 0x236], D6
label00000CFC:
00000CFC  4CDF 10C0                movem.l    D6,D7,A4, [A7]+
00000D00  4E75                     rts
fn00000D02:
00000D02  48E7 0308                movem.l    -[A7], D6,D7,A4
00000D06  2079 FFFF AEB4           movea.l    A0, [0xFFFFAEB4]
00000D0C  3E28 0302                move.w     D7, [A0 + 0x302]
00000D10  49E8 0302                lea.l      A4, [A0 + 0x302]
00000D14  0C47 0002                cmpi.w     D7, 0x2
00000D18  6C0E                     bge        +0x10 /* 00000D28 */
00000D1A  2F3C FFFF AFDE           move.l     -[A7], 0xFFFFAFDE
00000D20  4EBA F2DE                jsr        [PC - 0xD22 /* 00000000 */]
00000D24  588F                     addq.l     A7, 4
00000D26  6036                     bra        +0x38 /* 00000D5E */
label00000D28:
00000D28  2079 FFFF AEB4           movea.l    A0, [0xFFFFAEB4]
00000D2E  D0C7                     add.w      A0, D7
00000D30  D0C7                     add.w      A0, D7
00000D32  2279 FFFF AEB4           movea.l    A1, [0xFFFFAEB4]
00000D38  D2C7                     add.w      A1, D7
00000D3A  D2C7                     add.w      A1, D7
00000D3C  3028 0234                move.w     D0, [A0 + 0x234]
00000D40  B069 0232                cmp.w      D0, [A1 + 0x232]
00000D44  57C6                     seq        D6
00000D46  4406                     neg.b      D6
00000D48  4886                     ext.w      D6
00000D4A  5554                     subq.w     [A4], 2
00000D4C  3014                     move.w     D0, [A4]
00000D4E  5254                     addq.w     [A4], 1
00000D50  2079 FFFF AEB4           movea.l    A0, [0xFFFFAEB4]
00000D56  D0C0                     add.w      A0, D0
00000D58  D0C0                     add.w      A0, D0
00000D5A  3146 0236                move.w     [A0 + 0x236], D6
label00000D5E:
00000D5E  4CDF 10C0                movem.l    D6,D7,A4, [A7]+
00000D62  4E75                     rts
fn00000D64:
00000D64  48E7 0308                movem.l    -[A7], D6,D7,A4
00000D68  2079 FFFF AEB4           movea.l    A0, [0xFFFFAEB4]
00000D6E  3E28 0302                move.w     D7, [A0 + 0x302]
00000D72  49E8 0302                lea.l      A4, [A0 + 0x302]
00000D76  0C47 0002                cmpi.w     D7, 0x2
00000D7A  6C0E                     bge        +0x10 /* 00000D8A */
00000D7C  2F3C FFFF AFEE           move.l     -[A7], 0xFFFFAFEE
00000D82  4EBA F27C                jsr        [PC - 0xD84 /* 00000000 */]
00000D86  588F                     addq.l     A7, 4
00000D88  6036                     bra        +0x38 /* 00000DC0 */
label00000D8A:
00000D8A  2079 FFFF AEB4           movea.l    A0, [0xFFFFAEB4]
00000D90  D0C7                     add.w      A0, D7
00000D92  D0C7                     add.w      A0, D7
00000D94  2279 FFFF AEB4           movea.l    A1, [0xFFFFAEB4]
00000D9A  D2C7                     add.w      A1, D7
00000D9C  D2C7                     add.w      A1, D7
00000D9E  3028 0234                move.w     D0, [A0 + 0x234]
00000DA2  B069 0232                cmp.w      D0, [A1 + 0x232]
00000DA6  56C6                     sne        D6
00000DA8  4406                     neg.b      D6
00000DAA  4886                     ext.w      D6
00000DAC  5554                     subq.w     [A4], 2
00000DAE  3014                     move.w     D0, [A4]
00000DB0  5254                     addq.w     [A4], 1
00000DB2  2079 FFFF AEB4           movea.l    A0, [0xFFFFAEB4]
00000DB8  D0C0                     add.w      A0, D0
00000DBA  D0C0                     add.w      A0, D0
00000DBC  3146 0236                move.w     [A0 + 0x236], D6
label00000DC0:
00000DC0  4CDF 10C0                movem.l    D6,D7,A4, [A7]+
00000DC4  4E75                     rts
fn00000DC6:
00000DC6  48E7 0708                movem.l    -[A7], D5,D6,D7,A4
00000DCA  2079 FFFF AEB4           movea.l    A0, [0xFFFFAEB4]
00000DD0  3E28 0302                move.w     D7, [A0 + 0x302]
00000DD4  49E8 0302                lea.l      A4, [A0 + 0x302]
00000DD8  0C47 0002                cmpi.w     D7, 0x2
00000DDC  6C0E                     bge        +0x10 /* 00000DEC */
00000DDE  2F3C FFFF AFFE           move.l     -[A7], 0xFFFFAFFE
00000DE4  4EBA F21A                jsr        [PC - 0xDE6 /* 00000000 */]
00000DE8  588F                     addq.l     A7, 4
00000DEA  604C                     bra        +0x4E /* 00000E38 */
label00000DEC:
00000DEC  2079 FFFF AEB4           movea.l    A0, [0xFFFFAEB4]
00000DF2  D0C7                     add.w      A0, D7
00000DF4  D0C7                     add.w      A0, D7
00000DF6  3C28 0234                move.w     D6, [A0 + 0x234]
00000DFA  0C46 4F4C                cmpi.w     D6, 0x4F4C /* 'OL' */
00000DFE  6D2C                     blt        +0x2E /* 00000E2C */
00000E00  0C46 4FB0                cmpi.w     D6, 0x4FB0
00000E04  6C26                     bge        +0x28 /* 00000E2C */
00000E06  5554                     subq.w     [A4], 2
00000E08  2079 FFFF AEB4           movea.l    A0, [0xFFFFAEB4]
00000E0E  3028 0302                move.w     D0, [A0 + 0x302]
00000E12  D0C0                     add.w      A0, D0
00000E14  D0C0                     add.w      A0, D0
00000E16  3A28 0236                move.w     D5, [A0 + 0x236]
00000E1A  3006                     move.w     D0, D6
00000E1C  0640 B0B4                addi.w     D0, 0xB0B4
00000E20  3F00                     move.w     -[A7], D0
00000E22  3F05                     move.w     -[A7], D5
00000E24  4EBA F724                jsr        [PC - 0x8DC /* 0000054A */]
00000E28  588F                     addq.l     A7, 4
00000E2A  600C                     bra        +0xE /* 00000E38 */
label00000E2C:
00000E2C  2F3C FFFF B00E           move.l     -[A7], 0xFFFFB00E
00000E32  4EBA F1CC                jsr        [PC - 0xE34 /* 00000000 */]
00000E36  588F                     addq.l     A7, 4
label00000E38:
00000E38  4CDF 10E0                movem.l    D5,D6,D7,A4, [A7]+
00000E3C  4E75                     rts
fn00000E3E:
00000E3E  2F0C                     move.l     -[A7], A4
00000E40  2879 FFFF AEB4           movea.l    A4, [0xFFFFAEB4]
00000E46  49EC 0302                lea.l      A4, [A4 + 0x302]
00000E4A  0C54 0001                cmpi.w     [A4], 0x1
00000E4E  6C0E                     bge        +0x10 /* 00000E5E */
00000E50  2F3C FFFF B024           move.l     -[A7], 0xFFFFB024
00000E56  4EBA F1A8                jsr        [PC - 0xE58 /* 00000000 */]
00000E5A  588F                     addq.l     A7, 4
00000E5C  6002                     bra        +0x4 /* 00000E60 */
label00000E5E:
00000E5E  5354                     subq.w     [A4], 1
label00000E60:
00000E60  285F                     movea.l    A4, [A7]+
00000E62  4E75                     rts
fn00000E64:
00000E64  48E7 0308                movem.l    -[A7], D6,D7,A4
00000E68  2079 FFFF AEB4           movea.l    A0, [0xFFFFAEB4]
00000E6E  3E28 0302                move.w     D7, [A0 + 0x302]
00000E72  49E8 0302                lea.l      A4, [A0 + 0x302]
00000E76  0C47 0002                cmpi.w     D7, 0x2
00000E7A  6C0E                     bge        +0x10 /* 00000E8A */
00000E7C  2F3C FFFF B034           move.l     -[A7], 0xFFFFB034
00000E82  4EBA F17C                jsr        [PC - 0xE84 /* 00000000 */]
00000E86  588F                     addq.l     A7, 4
00000E88  603C                     bra        +0x3E /* 00000EC6 */
label00000E8A:
00000E8A  2079 FFFF AEB4           movea.l    A0, [0xFFFFAEB4]
00000E90  D0C7                     add.w      A0, D7
00000E92  D0C7                     add.w      A0, D7
00000E94  3C28 0234                move.w     D6, [A0 + 0x234]
00000E98  3054                     movea.w    A0, [A4]
00000E9A  D1C8                     add.l      A0, A0
00000E9C  41E8 0232                lea.l      A0, [A0 + 0x232]
00000EA0  D1F9 FFFF AEB4           add.l      A0, [0xFFFFAEB4]
00000EA6  3254                     movea.w    A1, [A4]
00000EA8  D3C9                     add.l      A1, A1
00000EAA  43E9 0234                lea.l      A1, [A1 + 0x234]
00000EAE  D3F9 FFFF AEB4           add.l      A1, [0xFFFFAEB4]
00000EB4  3290                     move.w     [A1], [A0]
00000EB6  3054                     movea.w    A0, [A4]
00000EB8  D1C8                     add.l      A0, A0
00000EBA  41E8 0232                lea.l      A0, [A0 + 0x232]
00000EBE  D1F9 FFFF AEB4           add.l      A0, [0xFFFFAEB4]
00000EC4  3086                     move.w     [A0], D6
label00000EC6:
00000EC6  4CDF 10C0                movem.l    D6,D7,A4, [A7]+
00000ECA  4E75                     rts
fn00000ECC:
00000ECC  48E7 0F18                movem.l    -[A7], D4,D5,D6,D7,A3,A4
00000ED0  2879 FFFF AEB4           movea.l    A4, [0xFFFFAEB4]
00000ED6  49EC 0302                lea.l      A4, [A4 + 0x302]
00000EDA  0C54 0003                cmpi.w     [A4], 0x3
00000EDE  6C10                     bge        +0x12 /* 00000EF0 */
00000EE0  2F3C FFFF B044           move.l     -[A7], 0xFFFFB044
00000EE6  4EBA F118                jsr        [PC - 0xEE8 /* 00000000 */]
00000EEA  588F                     addq.l     A7, 4
00000EEC  6000 0082                bra        +0x84 /* 00000F70 */
label00000EF0:
00000EF0  5354                     subq.w     [A4], 1
00000EF2  2079 FFFF AEB4           movea.l    A0, [0xFFFFAEB4]
00000EF8  3E28 0302                move.w     D7, [A0 + 0x302]
00000EFC  D0C7                     add.w      A0, D7
00000EFE  D0C7                     add.w      A0, D7
00000F00  3C28 0236                move.w     D6, [A0 + 0x236]
00000F04  7001                     moveq.l    D0, 0x01
00000F06  D046                     add.w      D0, D6
00000F08  B047                     cmp.w      D0, D7
00000F0A  6F0E                     ble        +0x10 /* 00000F1A */
00000F0C  2F3C FFFF B054           move.l     -[A7], 0xFFFFB054
00000F12  4EBA F0EC                jsr        [PC - 0xF14 /* 00000000 */]
00000F16  588F                     addq.l     A7, 4
00000F18  6056                     bra        +0x58 /* 00000F70 */
label00000F1A:
00000F1A  2079 FFFF AEB4           movea.l    A0, [0xFFFFAEB4]
00000F20  7EFF                     moveq.l    D7, 0xFFFFFFFF
00000F22  DE68 0302                add.w      D7, [A0 + 0x302]
00000F26  D0C7                     add.w      A0, D7
00000F28  D0C7                     add.w      A0, D7
00000F2A  3A28 0236                move.w     D5, [A0 + 0x236]
00000F2E  3807                     move.w     D4, D7
00000F30  3644                     movea.w    A3, D4
00000F32  D7CB                     add.l      A3, A3
00000F34  601C                     bra        +0x1E /* 00000F52 */
label00000F36:
00000F36  2079 FFFF AEB4           movea.l    A0, [0xFFFFAEB4]
00000F3C  D0C4                     add.w      A0, D4
00000F3E  D0C4                     add.w      A0, D4
00000F40  224B                     movea.l    A1, A3
00000F42  D3F9 FFFF AEB4           add.l      A1, [0xFFFFAEB4]
00000F48  3368 0234 0236           move.w     [A1 + 0x236], [A0 + 0x234]
00000F4E  5344                     subq.w     D4, 1
00000F50  558B                     subq.l     A3, 2
label00000F52:
00000F52  70FF                     moveq.l    D0, 0xFFFFFFFF
00000F54  D054                     add.w      D0, [A4]
00000F56  9046                     sub.w      D0, D6
00000F58  B044                     cmp.w      D0, D4
00000F5A  6DDA                     blt        -0x24 /* 00000F36 */
00000F5C  70FF                     moveq.l    D0, 0xFFFFFFFF
00000F5E  D054                     add.w      D0, [A4]
00000F60  9046                     sub.w      D0, D6
00000F62  2079 FFFF AEB4           movea.l    A0, [0xFFFFAEB4]
00000F68  D0C0                     add.w      A0, D0
00000F6A  D0C0                     add.w      A0, D0
00000F6C  3145 0236                move.w     [A0 + 0x236], D5
label00000F70:
00000F70  4CDF 18F0                movem.l    D4,D5,D6,D7,A3,A4, [A7]+
00000F74  4E75                     rts
fn00000F76:
00000F76  48E7 0108                movem.l    -[A7], D7,A4
00000F7A  2879 FFFF AEB4           movea.l    A4, [0xFFFFAEB4]
00000F80  49EC 0302                lea.l      A4, [A4 + 0x302]
00000F84  0C54 0001                cmpi.w     [A4], 0x1
00000F88  6C0E                     bge        +0x10 /* 00000F98 */
00000F8A  2F3C FFFF B064           move.l     -[A7], 0xFFFFB064
00000F90  4EBA F06E                jsr        [PC - 0xF92 /* 00000000 */]
00000F94  588F                     addq.l     A7, 4
00000F96  6036                     bra        +0x38 /* 00000FCE */
label00000F98:
00000F98  5354                     subq.w     [A4], 1
00000F9A  3054                     movea.w    A0, [A4]
00000F9C  D1C8                     add.l      A0, A0
00000F9E  41E8 0236                lea.l      A0, [A0 + 0x236]
00000FA2  D1F9 FFFF AEB4           add.l      A0, [0xFFFFAEB4]
00000FA8  3E10                     move.w     D7, [A0]
00000FAA  2079 FFFF AEB4           movea.l    A0, [0xFFFFAEB4]
00000FB0  BE68 0304                cmp.w      D7, [A0 + 0x304]
00000FB4  6E0C                     bgt        +0xE /* 00000FC2 */
00000FB6  2079 FFFF AEB4           movea.l    A0, [0xFFFFAEB4]
00000FBC  3147 0300                move.w     [A0 + 0x300], D7
00000FC0  600C                     bra        +0xE /* 00000FCE */
label00000FC2:
00000FC2  2F3C FFFF B074           move.l     -[A7], 0xFFFFB074
00000FC8  4EBA F036                jsr        [PC - 0xFCA /* 00000000 */]
00000FCC  588F                     addq.l     A7, 4
label00000FCE:
00000FCE  4CDF 1080                movem.l    D7,A4, [A7]+
00000FD2  4E75                     rts
fn00000FD4:
00000FD4  48E7 0108                movem.l    -[A7], D7,A4
00000FD8  2879 FFFF AEB4           movea.l    A4, [0xFFFFAEB4]
00000FDE  49EC 0302                lea.l      A4, [A4 + 0x302]
00000FE2  0C54 0001                cmpi.w     [A4], 0x1
00000FE6  6C0E                     bge        +0x10 /* 00000FF6 */
00000FE8  2F3C FFFF B094           move.l     -[A7], 0xFFFFB094
00000FEE  4EBA F010                jsr        [PC - 0xFF0 /* 00000000 */]
00000FF2  588F                     addq.l     A7, 4
00000FF4  604C                     bra        +0x4E /* 00001042 */
label00000FF6:
00000FF6  5354                     subq.w     [A4], 1
00000FF8  3054                     movea.w    A0, [A4]
00000FFA  D1C8                     add.l      A0, A0
00000FFC  41E8 0236                lea.l      A0, [A0 + 0x236]
00001000  D1F9 FFFF AEB4           add.l      A0, [0xFFFFAEB4]
00001006  3E10                     move.w     D7, [A0]
00001008  2079 FFFF AEB4           movea.l    A0, [0xFFFFAEB4]
0000100E  BE68 0304                cmp.w      D7, [A0 + 0x304]
00001012  6E22                     bgt        +0x24 /* 00001036 */
00001014  2079 FFFF AEB4           movea.l    A0, [0xFFFFAEB4]
0000101A  3014                     move.w     D0, [A4]
0000101C  5254                     addq.w     [A4], 1
0000101E  2248                     movea.l    A1, A0
00001020  D2C0                     add.w      A1, D0
00001022  D2C0                     add.w      A1, D0
00001024  3368 0300 0236           move.w     [A1 + 0x236], [A0 + 0x300]
0000102A  2279 FFFF AEB4           movea.l    A1, [0xFFFFAEB4]
00001030  3347 0300                move.w     [A1 + 0x300], D7
00001034  600C                     bra        +0xE /* 00001042 */
label00001036:
00001036  2F3C FFFF B0A4           move.l     -[A7], 0xFFFFB0A4
0000103C  4EBA EFC2                jsr        [PC - 0x103E /* 00000000 */]
00001040  588F                     addq.l     A7, 4
label00001042:
00001042  4CDF 1080                movem.l    D7,A4, [A7]+
00001046  4E75                     rts
fn00001048:
00001048  48E7 0308                movem.l    -[A7], D6,D7,A4
0000104C  2879 FFFF AEB4           movea.l    A4, [0xFFFFAEB4]
00001052  49EC 0236                lea.l      A4, [A4 + 0x236]
00001056  2079 FFFF AEB4           movea.l    A0, [0xFFFFAEB4]
0000105C  3E28 0302                move.w     D7, [A0 + 0x302]
00001060  224C                     movea.l    A1, A4
00001062  D2C7                     add.w      A1, D7
00001064  3C31 70FE                move.w     D6, [A1 + D7.w - 0x2]
00001068  0C47 0064                cmpi.w     D7, 0x64 /* 'd' */
0000106C  6C18                     bge        +0x1A /* 00001086 */
0000106E  2079 FFFF AEB4           movea.l    A0, [0xFFFFAEB4]
00001074  3028 0302                move.w     D0, [A0 + 0x302]
00001078  5268 0302                addq.w     [A0 + 0x302], 1
0000107C  48C0                     ext.l      D0
0000107E  D080                     add.l      D0, D0
00001080  3986 0800                move.w     [A4 + D0], D6
00001084  600C                     bra        +0xE /* 00001092 */
label00001086:
00001086  2F3C FFFF B0C4           move.l     -[A7], 0xFFFFB0C4
0000108C  4EBA EF72                jsr        [PC - 0x108E /* 00000000 */]
00001090  588F                     addq.l     A7, 4
label00001092:
00001092  4CDF 10C0                movem.l    D6,D7,A4, [A7]+
00001096  4E75                     rts
fn00001098:
00001098  48E7 0308                movem.l    -[A7], D6,D7,A4
0000109C  2879 FFFF AEB4           movea.l    A4, [0xFFFFAEB4]
000010A2  49EC 0302                lea.l      A4, [A4 + 0x302]
000010A6  0C54 0002                cmpi.w     [A4], 0x2
000010AA  6C0E                     bge        +0x10 /* 000010BA */
000010AC  2F3C FFFF B0D4           move.l     -[A7], 0xFFFFB0D4
000010B2  4EBA EF4C                jsr        [PC - 0x10B4 /* 00000000 */]
000010B6  588F                     addq.l     A7, 4
000010B8  6044                     bra        +0x46 /* 000010FE */
label000010BA:
000010BA  5554                     subq.w     [A4], 2
000010BC  2079 FFFF AEB4           movea.l    A0, [0xFFFFAEB4]
000010C2  3E28 0302                move.w     D7, [A0 + 0x302]
000010C6  D0C7                     add.w      A0, D7
000010C8  D0C7                     add.w      A0, D7
000010CA  3C28 0238                move.w     D6, [A0 + 0x238]
000010CE  2079 FFFF AEB4           movea.l    A0, [0xFFFFAEB4]
000010D4  D0C7                     add.w      A0, D7
000010D6  D0C7                     add.w      A0, D7
000010D8  4A68 0236                tst.w      [A0 + 0x236]
000010DC  6720                     beq        +0x22 /* 000010FE */
000010DE  2079 FFFF AEB4           movea.l    A0, [0xFFFFAEB4]
000010E4  3014                     move.w     D0, [A4]
000010E6  5254                     addq.w     [A4], 1
000010E8  2248                     movea.l    A1, A0
000010EA  D2C0                     add.w      A1, D0
000010EC  D2C0                     add.w      A1, D0
000010EE  3368 0300 0236           move.w     [A1 + 0x236], [A0 + 0x300]
000010F4  2279 FFFF AEB4           movea.l    A1, [0xFFFFAEB4]
000010FA  3346 0300                move.w     [A1 + 0x300], D6
label000010FE:
000010FE  4CDF 10C0                movem.l    D6,D7,A4, [A7]+
00001102  4E75                     rts
fn00001104:
00001104  48E7 0708                movem.l    -[A7], D5,D6,D7,A4
00001108  2879 FFFF AEB4           movea.l    A4, [0xFFFFAEB4]
0000110E  49EC 0302                lea.l      A4, [A4 + 0x302]
00001112  0C54 0003                cmpi.w     [A4], 0x3
00001116  6C0E                     bge        +0x10 /* 00001126 */
00001118  2F3C FFFF B0E4           move.l     -[A7], 0xFFFFB0E4
0000111E  4EBA EEE0                jsr        [PC - 0x1120 /* 00000000 */]
00001122  588F                     addq.l     A7, 4
00001124  6074                     bra        +0x76 /* 0000119A */
label00001126:
00001126  5754                     subq.w     [A4], 3
00001128  2079 FFFF AEB4           movea.l    A0, [0xFFFFAEB4]
0000112E  3E28 0302                move.w     D7, [A0 + 0x302]
00001132  D0C7                     add.w      A0, D7
00001134  D0C7                     add.w      A0, D7
00001136  3C28 023A                move.w     D6, [A0 + 0x23A]
0000113A  2079 FFFF AEB4           movea.l    A0, [0xFFFFAEB4]
00001140  D0C7                     add.w      A0, D7
00001142  D0C7                     add.w      A0, D7
00001144  3A28 0238                move.w     D5, [A0 + 0x238]
00001148  2079 FFFF AEB4           movea.l    A0, [0xFFFFAEB4]
0000114E  D0C7                     add.w      A0, D7
00001150  D0C7                     add.w      A0, D7
00001152  4A68 0236                tst.w      [A0 + 0x236]
00001156  6722                     beq        +0x24 /* 0000117A */
00001158  2079 FFFF AEB4           movea.l    A0, [0xFFFFAEB4]
0000115E  3014                     move.w     D0, [A4]
00001160  5254                     addq.w     [A4], 1
00001162  2248                     movea.l    A1, A0
00001164  D2C0                     add.w      A1, D0
00001166  D2C0                     add.w      A1, D0
00001168  3368 0300 0236           move.w     [A1 + 0x236], [A0 + 0x300]
0000116E  2279 FFFF AEB4           movea.l    A1, [0xFFFFAEB4]
00001174  3345 0300                move.w     [A1 + 0x300], D5
00001178  6020                     bra        +0x22 /* 0000119A */
label0000117A:
0000117A  2079 FFFF AEB4           movea.l    A0, [0xFFFFAEB4]
00001180  3014                     move.w     D0, [A4]
00001182  5254                     addq.w     [A4], 1
00001184  2248                     movea.l    A1, A0
00001186  D2C0                     add.w      A1, D0
00001188  D2C0                     add.w      A1, D0
0000118A  3368 0300 0236           move.w     [A1 + 0x236], [A0 + 0x300]
00001190  2279 FFFF AEB4           movea.l    A1, [0xFFFFAEB4]
00001196  3346 0300                move.w     [A1 + 0x300], D6
label0000119A:
0000119A  4CDF 10E0                movem.l    D5,D6,D7,A4, [A7]+
0000119E  4E75                     rts
fn000011A0:
000011A0  48E7 0108                movem.l    -[A7], D7,A4
000011A4  2879 FFFF AEB4           movea.l    A4, [0xFFFFAEB4]
000011AA  49EC 0302                lea.l      A4, [A4 + 0x302]
000011AE  5354                     subq.w     [A4], 1
000011B0  3054                     movea.w    A0, [A4]
000011B2  D1C8                     add.l      A0, A0
000011B4  41E8 0236                lea.l      A0, [A0 + 0x236]
000011B8  D1F9 FFFF AEB4           add.l      A0, [0xFFFFAEB4]
000011BE  3E10                     move.w     D7, [A0]
000011C0  0C47 4F4C                cmpi.w     D7, 0x4F4C /* 'OL' */
000011C4  6D2C                     blt        +0x2E /* 000011F2 */
000011C6  0C47 4FB0                cmpi.w     D7, 0x4FB0
000011CA  6C26                     bge        +0x28 /* 000011F2 */
000011CC  3007                     move.w     D0, D7
000011CE  0640 B0B4                addi.w     D0, 0xB0B4
000011D2  3F00                     move.w     -[A7], D0
000011D4  4EBA F660                jsr        [PC - 0x9A0 /* 00000836 */]
000011D8  2079 FFFF AEB4           movea.l    A0, [0xFFFFAEB4]
000011DE  3228 0302                move.w     D1, [A0 + 0x302]
000011E2  5268 0302                addq.w     [A0 + 0x302], 1
000011E6  D0C1                     add.w      A0, D1
000011E8  D0C1                     add.w      A0, D1
000011EA  3140 0236                move.w     [A0 + 0x236], D0
000011EE  548F                     addq.l     A7, 2
000011F0  600C                     bra        +0xE /* 000011FE */
label000011F2:
000011F2  2F3C FFFF B0F4           move.l     -[A7], 0xFFFFB0F4
000011F8  4EBA EE06                jsr        [PC - 0x11FA /* 00000000 */]
000011FC  588F                     addq.l     A7, 4
label000011FE:
000011FE  4CDF 1080                movem.l    D7,A4, [A7]+
00001202  4E75                     rts
fn00001204:
00001204  48E7 0308                movem.l    -[A7], D6,D7,A4
00001208  2079 FFFF AEB4           movea.l    A0, [0xFFFFAEB4]
0000120E  3E28 0302                move.w     D7, [A0 + 0x302]
00001212  49E8 0302                lea.l      A4, [A0 + 0x302]
00001216  0C47 0002                cmpi.w     D7, 0x2
0000121A  6C0E                     bge        +0x10 /* 0000122A */
0000121C  2F3C FFFF B10A           move.l     -[A7], 0xFFFFB10A
00001222  4EBA EDDC                jsr        [PC - 0x1224 /* 00000000 */]
00001226  588F                     addq.l     A7, 4
00001228  603A                     bra        +0x3C /* 00001264 */
label0000122A:
0000122A  2079 FFFF AEB4           movea.l    A0, [0xFFFFAEB4]
00001230  D0C7                     add.w      A0, D7
00001232  D0C7                     add.w      A0, D7
00001234  4A68 0234                tst.w      [A0 + 0x234]
00001238  6710                     beq        +0x12 /* 0000124A */
0000123A  2079 FFFF AEB4           movea.l    A0, [0xFFFFAEB4]
00001240  D0C7                     add.w      A0, D7
00001242  D0C7                     add.w      A0, D7
00001244  4A68 0232                tst.w      [A0 + 0x232]
00001248  6604                     bne        +0x6 /* 0000124E */
label0000124A:
0000124A  7C00                     moveq.l    D6, 0x00
0000124C  6002                     bra        +0x4 /* 00001250 */
label0000124E:
0000124E  7C01                     moveq.l    D6, 0x01
label00001250:
00001250  5554                     subq.w     [A4], 2
00001252  3014                     move.w     D0, [A4]
00001254  5254                     addq.w     [A4], 1
00001256  2079 FFFF AEB4           movea.l    A0, [0xFFFFAEB4]
0000125C  D0C0                     add.w      A0, D0
0000125E  D0C0                     add.w      A0, D0
00001260  3146 0236                move.w     [A0 + 0x236], D6
label00001264:
00001264  4CDF 10C0                movem.l    D6,D7,A4, [A7]+
00001268  4E75                     rts
fn0000126A:
0000126A  48E7 0308                movem.l    -[A7], D6,D7,A4
0000126E  2079 FFFF AEB4           movea.l    A0, [0xFFFFAEB4]
00001274  3E28 0302                move.w     D7, [A0 + 0x302]
00001278  49E8 0302                lea.l      A4, [A0 + 0x302]
0000127C  0C47 0002                cmpi.w     D7, 0x2
00001280  6C0E                     bge        +0x10 /* 00001290 */
00001282  2F3C FFFF B11A           move.l     -[A7], 0xFFFFB11A
00001288  4EBA ED76                jsr        [PC - 0x128A /* 00000000 */]
0000128C  588F                     addq.l     A7, 4
0000128E  603A                     bra        +0x3C /* 000012CA */
label00001290:
00001290  2079 FFFF AEB4           movea.l    A0, [0xFFFFAEB4]
00001296  D0C7                     add.w      A0, D7
00001298  D0C7                     add.w      A0, D7
0000129A  4A68 0234                tst.w      [A0 + 0x234]
0000129E  6614                     bne        +0x16 /* 000012B4 */
000012A0  2079 FFFF AEB4           movea.l    A0, [0xFFFFAEB4]
000012A6  D0C7                     add.w      A0, D7
000012A8  D0C7                     add.w      A0, D7
000012AA  4A68 0232                tst.w      [A0 + 0x232]
000012AE  6604                     bne        +0x6 /* 000012B4 */
000012B0  7C00                     moveq.l    D6, 0x00
000012B2  6002                     bra        +0x4 /* 000012B6 */
label000012B4:
000012B4  7C01                     moveq.l    D6, 0x01
label000012B6:
000012B6  5554                     subq.w     [A4], 2
000012B8  3014                     move.w     D0, [A4]
000012BA  5254                     addq.w     [A4], 1
000012BC  2079 FFFF AEB4           movea.l    A0, [0xFFFFAEB4]
000012C2  D0C0                     add.w      A0, D0
000012C4  D0C0                     add.w      A0, D0
000012C6  3146 0236                move.w     [A0 + 0x236], D6
label000012CA:
000012CA  4CDF 10C0                movem.l    D6,D7,A4, [A7]+
000012CE  4E75                     rts
fn000012D0:
000012D0  4E56 FFFE                link       A6, -0x0002
000012D4  48E7 0308                movem.l    -[A7], D6,D7,A4
000012D8  2079 FFFF AEB4           movea.l    A0, [0xFFFFAEB4]
000012DE  3E28 0302                move.w     D7, [A0 + 0x302]
000012E2  49E8 0302                lea.l      A4, [A0 + 0x302]
000012E6  0C47 0002                cmpi.w     D7, 0x2
000012EA  6C0E                     bge        +0x10 /* 000012FA */
000012EC  2F3C FFFF B12A           move.l     -[A7], 0xFFFFB12A
000012F2  4EBA ED0C                jsr        [PC - 0x12F4 /* 00000000 */]
000012F6  588F                     addq.l     A7, 4
000012F8  6064                     bra        +0x66 /* 0000135E */
label000012FA:
000012FA  2079 FFFF AEB4           movea.l    A0, [0xFFFFAEB4]
00001300  3028 0302                move.w     D0, [A0 + 0x302]
00001304  D0C0                     add.w      A0, D0
00001306  D0C0                     add.w      A0, D0
00001308  3C28 0234                move.w     D6, [A0 + 0x234]
0000130C  4A46                     tst.w      D6
0000130E  6614                     bne        +0x16 /* 00001324 */
00001310  2079 FFFF AEB4           movea.l    A0, [0xFFFFAEB4]
00001316  D0C7                     add.w      A0, D7
00001318  D0C7                     add.w      A0, D7
0000131A  4A68 0232                tst.w      [A0 + 0x232]
0000131E  6604                     bne        +0x6 /* 00001324 */
00001320  7000                     moveq.l    D0, 0x00
00001322  6002                     bra        +0x4 /* 00001326 */
label00001324:
00001324  7001                     moveq.l    D0, 0x01
label00001326:
00001326  3D40 FFFE                move.w     [A6 - 0x2], D0
0000132A  4A46                     tst.w      D6
0000132C  6710                     beq        +0x12 /* 0000133E */
0000132E  2079 FFFF AEB4           movea.l    A0, [0xFFFFAEB4]
00001334  D0C7                     add.w      A0, D7
00001336  D0C7                     add.w      A0, D7
00001338  4A68 0232                tst.w      [A0 + 0x232]
0000133C  6604                     bne        +0x6 /* 00001342 */
label0000133E:
0000133E  7000                     moveq.l    D0, 0x00
00001340  6002                     bra        +0x4 /* 00001344 */
label00001342:
00001342  7001                     moveq.l    D0, 0x01
label00001344:
00001344  3E2E FFFE                move.w     D7, [A6 - 0x2]
00001348  9E40                     sub.w      D7, D0
0000134A  5554                     subq.w     [A4], 2
0000134C  3014                     move.w     D0, [A4]
0000134E  5254                     addq.w     [A4], 1
00001350  2079 FFFF AEB4           movea.l    A0, [0xFFFFAEB4]
00001356  D0C0                     add.w      A0, D0
00001358  D0C0                     add.w      A0, D0
0000135A  3147 0236                move.w     [A0 + 0x236], D7
label0000135E:
0000135E  4CDF 10C0                movem.l    D6,D7,A4, [A7]+
00001362  4E5E                     unlink     A6
00001364  4E75                     rts
fn00001366:
00001366  48E7 0708                movem.l    -[A7], D5,D6,D7,A4
0000136A  2079 FFFF AEB4           movea.l    A0, [0xFFFFAEB4]
00001370  3E28 0302                move.w     D7, [A0 + 0x302]
00001374  49E8 0302                lea.l      A4, [A0 + 0x302]
00001378  0C47 0002                cmpi.w     D7, 0x2
0000137C  6C0E                     bge        +0x10 /* 0000138C */
0000137E  2F3C FFFF B13A           move.l     -[A7], 0xFFFFB13A
00001384  4EBA EC7A                jsr        [PC - 0x1386 /* 00000000 */]
00001388  588F                     addq.l     A7, 4
0000138A  604C                     bra        +0x4E /* 000013D8 */
label0000138C:
0000138C  2079 FFFF AEB4           movea.l    A0, [0xFFFFAEB4]
00001392  3028 0302                move.w     D0, [A0 + 0x302]
00001396  D0C0                     add.w      A0, D0
00001398  D0C0                     add.w      A0, D0
0000139A  3C28 0234                move.w     D6, [A0 + 0x234]
0000139E  4A46                     tst.w      D6
000013A0  660E                     bne        +0x10 /* 000013B0 */
000013A2  2F3C FFFF B14A           move.l     -[A7], 0xFFFFB14A
000013A8  4EBA EC56                jsr        [PC - 0x13AA /* 00000000 */]
000013AC  588F                     addq.l     A7, 4
000013AE  6028                     bra        +0x2A /* 000013D8 */
label000013B0:
000013B0  2079 FFFF AEB4           movea.l    A0, [0xFFFFAEB4]
000013B6  D0C7                     add.w      A0, D7
000013B8  D0C7                     add.w      A0, D7
000013BA  3A28 0232                move.w     D5, [A0 + 0x232]
000013BE  48C5                     ext.l      D5
000013C0  8BC6                     divs.w     D5, D6
000013C2  4845                     swap.w     D5
000013C4  5554                     subq.w     [A4], 2
000013C6  3014                     move.w     D0, [A4]
000013C8  5254                     addq.w     [A4], 1
000013CA  2079 FFFF AEB4           movea.l    A0, [0xFFFFAEB4]
000013D0  D0C0                     add.w      A0, D0
000013D2  D0C0                     add.w      A0, D0
000013D4  3145 0236                move.w     [A0 + 0x236], D5
label000013D8:
000013D8  4CDF 10E0                movem.l    D5,D6,D7,A4, [A7]+
000013DC  4E75                     rts
fn000013DE:
000013DE  4A79 FFFF 9232           tst.w      [0xFFFF9232]
000013E4  6706                     beq        +0x8 /* 000013EC */
000013E6  3F3C 0001                move.w     -[A7], 0x1
000013EA  A9C8                     syscall    SysBeep
label000013EC:
000013EC  4E75                     rts
fn000013EE:
000013EE  2F0C                     move.l     -[A7], A4
000013F0  2879 FFFF AEB4           movea.l    A4, [0xFFFFAEB4]
000013F6  49EC 0302                lea.l      A4, [A4 + 0x302]
000013FA  0C54 0001                cmpi.w     [A4], 0x1
000013FE  6C0E                     bge        +0x10 /* 0000140E */
00001400  2F3C FFFF B156           move.l     -[A7], 0xFFFFB156
00001406  4EBA EBF8                jsr        [PC - 0x1408 /* 00000000 */]
0000140A  588F                     addq.l     A7, 4
0000140C  6014                     bra        +0x16 /* 00001422 */
label0000140E:
0000140E  3054                     movea.w    A0, [A4]
00001410  D1C8                     add.l      A0, A0
00001412  41E8 0234                lea.l      A0, [A0 + 0x234]
00001416  D1F9 FFFF AEB4           add.l      A0, [0xFFFFAEB4]
0000141C  70FF                     moveq.l    D0, 0xFFFFFFFF
0000141E  C1D0                     muls.w     D0, [A0]
00001420  3080                     move.w     [A0], D0
label00001422:
00001422  285F                     movea.l    A4, [A7]+
00001424  4E75                     rts
fn00001426:
00001426  2F0C                     move.l     -[A7], A4
00001428  2879 FFFF AEB4           movea.l    A4, [0xFFFFAEB4]
0000142E  49EC 0302                lea.l      A4, [A4 + 0x302]
00001432  0C54 0001                cmpi.w     [A4], 0x1
00001436  6C0E                     bge        +0x10 /* 00001446 */
00001438  2F3C FFFF B166           move.l     -[A7], 0xFFFFB166
0000143E  4EBA EBC0                jsr        [PC - 0x1440 /* 00000000 */]
00001442  588F                     addq.l     A7, 4
00001444  6026                     bra        +0x28 /* 0000146C */
label00001446:
00001446  3054                     movea.w    A0, [A4]
00001448  D1C8                     add.l      A0, A0
0000144A  41E8 0234                lea.l      A0, [A0 + 0x234]
0000144E  D1F9 FFFF AEB4           add.l      A0, [0xFFFFAEB4]
00001454  4A50                     tst.w      [A0]
00001456  57C0                     seq        D0
00001458  4400                     neg.b      D0
0000145A  4880                     ext.w      D0
0000145C  3054                     movea.w    A0, [A4]
0000145E  D1C8                     add.l      A0, A0
00001460  41E8 0234                lea.l      A0, [A0 + 0x234]
00001464  D1F9 FFFF AEB4           add.l      A0, [0xFFFFAEB4]
0000146A  3080                     move.w     [A0], D0
label0000146C:
0000146C  285F                     movea.l    A4, [A7]+
0000146E  4E75                     rts
fn00001470:
00001470  4E56 FFDE                link       A6, -0x0022
00001474  2F0C                     move.l     -[A7], A4
00001476  2079 FFFF AEB4           movea.l    A0, [0xFFFFAEB4]
0000147C  0C68 0002 0302           cmpi.w     [A0 + 0x302], 0x2
00001482  6C10                     bge        +0x12 /* 00001494 */
00001484  2F3C FFFF B176           move.l     -[A7], 0xFFFFB176
0000148A  4EBA EB74                jsr        [PC - 0x148C /* 00000000 */]
0000148E  588F                     addq.l     A7, 4
00001490  6000 00E4                bra        +0xE6 /* 00001576 */
label00001494:
00001494  2079 FFFF AEB4           movea.l    A0, [0xFFFFAEB4]
0000149A  3028 0302                move.w     D0, [A0 + 0x302]
0000149E  D0C0                     add.w      A0, D0
000014A0  D0C0                     add.w      A0, D0
000014A2  4FEF FFF6                lea.l      A7, [A7 - 0xA]
000014A6  4868 0232                pea.l      [A0 + 0x232]
000014AA  486F 0004                pea.l      [A7 + 0x4]
000014AE  3F3C 200E                move.w     -[A7], 0x200E
000014B2  A9EB                     syscall    Pack4/FP68K
000014B4  3F17                     move.w     -[A7], [A7]
000014B6  2079 FFFF AEB4           movea.l    A0, [0xFFFFAEB4]
000014BC  3028 0302                move.w     D0, [A0 + 0x302]
000014C0  D0C0                     add.w      A0, D0
000014C2  D0C0                     add.w      A0, D0
000014C4  3028 0234                move.w     D0, [A0 + 0x234]
000014C8  4440                     neg.w      D0
000014CA  4FEF FFF6                lea.l      A7, [A7 - 0xA]
000014CE  3D40 FFE6                move.w     [A6 - 0x1A], D0
000014D2  486E FFE6                pea.l      [A6 - 0x1A]
000014D6  486F 0004                pea.l      [A7 + 0x4]
000014DA  3F3C 200E                move.w     -[A7], 0x200E
000014DE  A9EB                     syscall    Pack4/FP68K
000014E0  3F17                     move.w     -[A7], [A7]
000014E2  486E FFE8                pea.l      [A6 - 0x18]
000014E6  4EAD 0392                jsr        [A5 + 0x392 /* export_110, CODE:7 @ 000033E0 */]
000014EA  41EE FFF4                lea.l      A0, [A6 - 0xC]
000014EE  43EE FFE8                lea.l      A1, [A6 - 0x18]
000014F2  20D9                     move.l     [A0]+, [A1]+
000014F4  20D9                     move.l     [A0]+, [A1]+
000014F6  20D9                     move.l     [A0]+, [A1]+
000014F8  2879 FFFF AEB4           movea.l    A4, [0xFFFFAEB4]
000014FE  49EC 0302                lea.l      A4, [A4 + 0x302]
00001502  5554                     subq.w     [A4], 2
00001504  41EE FFEA                lea.l      A0, [A6 - 0x16]
00001508  43EE FFF6                lea.l      A1, [A6 - 0xA]
0000150C  20D9                     move.l     [A0]+, [A1]+
0000150E  20D9                     move.l     [A0]+, [A1]+
00001510  30D9                     move.w     [A0]+, [A1]+
00001512  487A 006A                pea.l      [PC + 0x6A /* 0000157E, value 0x4004E52E */]
00001516  4868 FFF6                pea.l      [A0 - 0xA]
0000151A  3F3C 0004                move.w     -[A7], 0x4
0000151E  A9EB                     syscall    Pack4/FP68K
00001520  487A 005A                pea.l      [PC + 0x5A /* 0000157C, value 0x1C24004 */]
00001524  486E FFE0                pea.l      [A6 - 0x20]
00001528  3F3C 200E                move.w     -[A7], 0x200E
0000152C  A9EB                     syscall    Pack4/FP68K
0000152E  4868 FFF6                pea.l      [A0 - 0xA]
00001532  486E FFE0                pea.l      [A6 - 0x20]
00001536  3F3C 0002                move.w     -[A7], 0x2
0000153A  A9EB                     syscall    Pack4/FP68K
0000153C  486E FFE0                pea.l      [A6 - 0x20]
00001540  3F3C 0016                move.w     -[A7], 0x16
00001544  A9EB                     syscall    Pack4/FP68K
00001546  486E FFE0                pea.l      [A6 - 0x20]
0000154A  486E FFDE                pea.l      [A6 - 0x22]
0000154E  3F3C 2010                move.w     -[A7], 0x2010
00001552  A9EB                     syscall    Pack4/FP68K
00001554  302E FFDE                move.w     D0, [A6 - 0x22]
00001558  48C0                     ext.l      D0
0000155A  81FC 0168                divs.w     D0, 0x168
0000155E  4840                     swap.w     D0
00001560  3214                     move.w     D1, [A4]
00001562  5254                     addq.w     [A4], 1
00001564  2079 FFFF AEB4           movea.l    A0, [0xFFFFAEB4]
0000156A  D0C1                     add.w      A0, D1
0000156C  D0C1                     add.w      A0, D1
0000156E  3140 0236                move.w     [A0 + 0x236], D0
00001572  4FEF 001C                lea.l      A7, [A7 + 0x1C]
label00001576:
00001576  285F                     movea.l    A4, [A7]+
00001578  4E5E                     unlink     A6
0000157A  4E75                     rts
0000157C  01C2                     .incomplete
0000157E  4004                     negx.b     D4
00001580  E52E                     lsl        D6.b, D2
00001582  E0D3                     asr   .w   [A3]
00001584  1E5D                     movea.b    A7, [A5]+
00001586  7EAF                     moveq.l    D7, 0xFFFFFFAF
fn00001588:
00001588  2079 FFFF AEB4           movea.l    A0, [0xFFFFAEB4]
0000158E  0C68 0001 0302           cmpi.w     [A0 + 0x302], 0x1
00001594  6C0E                     bge        +0x10 /* 000015A4 */
00001596  2F3C FFFF B186           move.l     -[A7], 0xFFFFB186
0000159C  4EBA EA62                jsr        [PC - 0x159E /* 00000000 */]
000015A0  588F                     addq.l     A7, 4
000015A2  602A                     bra        +0x2C /* 000015CE */
label000015A4:
000015A4  2079 FFFF AEB4           movea.l    A0, [0xFFFFAEB4]
000015AA  3028 0302                move.w     D0, [A0 + 0x302]
000015AE  D0C0                     add.w      A0, D0
000015B0  D0C0                     add.w      A0, D0
000015B2  3F28 0234                move.w     -[A7], [A0 + 0x234]
000015B6  4EAD 048A                jsr        [A5 + 0x48A /* export_141, CODE:7 @ 0000028C */]
000015BA  2079 FFFF AEB4           movea.l    A0, [0xFFFFAEB4]
000015C0  3228 0302                move.w     D1, [A0 + 0x302]
000015C4  D0C1                     add.w      A0, D1
000015C6  D0C1                     add.w      A0, D1
000015C8  3140 0234                move.w     [A0 + 0x234], D0
000015CC  548F                     addq.l     A7, 2
label000015CE:
000015CE  4E75                     rts
fn000015D0:
000015D0  4E56 FFD4                link       A6, -0x002C
000015D4  48E7 0138                movem.l    -[A7], D7,A2,A3,A4
000015D8  42AE FFF0                clr.l      [A6 - 0x10]
000015DC  2D7C 8000 0000 FFEC      move.l     [A6 - 0x14], 0x80000000
000015E4  2D7C 3FFF 3FFF FFE8      move.l     [A6 - 0x18], 0x3FFF3FFF
000015EC  2079 FFFF AEB4           movea.l    A0, [0xFFFFAEB4]
000015F2  3E28 0302                move.w     D7, [A0 + 0x302]
000015F6  49E8 0302                lea.l      A4, [A0 + 0x302]
000015FA  0C47 0002                cmpi.w     D7, 0x2
000015FE  6C10                     bge        +0x12 /* 00001610 */
00001600  2F3C FFFF B196           move.l     -[A7], 0xFFFFB196
00001606  4EBA E9F8                jsr        [PC - 0x1608 /* 00000000 */]
0000160A  588F                     addq.l     A7, 4
0000160C  6000 00F0                bra        +0xF2 /* 000016FE */
label00001610:
00001610  2079 FFFF AEB4           movea.l    A0, [0xFFFFAEB4]
00001616  D0C7                     add.w      A0, D7
00001618  D0C7                     add.w      A0, D7
0000161A  4A68 0232                tst.w      [A0 + 0x232]
0000161E  6C28                     bge        +0x2A /* 00001648 */
00001620  3054                     movea.w    A0, [A4]
00001622  D1C8                     add.l      A0, A0
00001624  41E8 0232                lea.l      A0, [A0 + 0x232]
00001628  D1F9 FFFF AEB4           add.l      A0, [0xFFFFAEB4]
0000162E  70FF                     moveq.l    D0, 0xFFFFFFFF
00001630  C1D0                     muls.w     D0, [A0]
00001632  3080                     move.w     [A0], D0
00001634  42AE FFF0                clr.l      [A6 - 0x10]
00001638  2D7C 8000 0000 FFEC      move.l     [A6 - 0x14], 0x80000000
00001640  2D7C BFFF BFFF FFE8      move.l     [A6 - 0x18], 0xBFFFBFFF
label00001648:
00001648  2079 FFFF AEB4           movea.l    A0, [0xFFFFAEB4]
0000164E  3028 0302                move.w     D0, [A0 + 0x302]
00001652  D0C0                     add.w      A0, D0
00001654  D0C0                     add.w      A0, D0
00001656  3028 0232                move.w     D0, [A0 + 0x232]
0000165A  0640 010E                addi.w     D0, 0x10E
0000165E  48C0                     ext.l      D0
00001660  81FC 0168                divs.w     D0, 0x168
00001664  4840                     swap.w     D0
00001666  C1FC 000C                muls.w     D0, 0xC
0000166A  2040                     movea.l    A0, D0
0000166C  D1FC FFFF 7E84           add.l      A0, 0xFFFF7E84
00001672  2279 FFFF AEB4           movea.l    A1, [0xFFFFAEB4]
00001678  3029 0302                move.w     D0, [A1 + 0x302]
0000167C  D2C0                     add.w      A1, D0
0000167E  D2C0                     add.w      A1, D0
00001680  45EE FFDE                lea.l      A2, [A6 - 0x22]
00001684  47EE FFEA                lea.l      A3, [A6 - 0x16]
00001688  24DB                     move.l     [A2]+, [A3]+
0000168A  24DB                     move.l     [A2]+, [A3]+
0000168C  34DB                     move.w     [A2]+, [A3]+
0000168E  4869 0234                pea.l      [A1 + 0x234]
00001692  486A FFF6                pea.l      [A2 - 0xA]
00001696  3F3C 2004                move.w     -[A7], 0x2004
0000169A  A9EB                     syscall    Pack4/FP68K
0000169C  43EE FFD4                lea.l      A1, [A6 - 0x2C]
000016A0  45EA FFF6                lea.l      A2, [A2 - 0xA]
000016A4  22DA                     move.l     [A1]+, [A2]+
000016A6  22DA                     move.l     [A1]+, [A2]+
000016A8  32DA                     move.w     [A1]+, [A2]+
000016AA  4868 0002                pea.l      [A0 + 0x2]
000016AE  4869 FFF6                pea.l      [A1 - 0xA]
000016B2  3F3C 0004                move.w     -[A7], 0x4
000016B6  A9EB                     syscall    Pack4/FP68K
000016B8  41D6                     lea.l      A0, [A6]
000016BA  2121                     move.l     -[A0], -[A1]
000016BC  2121                     move.l     -[A0], -[A1]
000016BE  3121                     move.w     -[A0], -[A1]
000016C0  3110                     move.w     -[A0], [A0]
000016C2  5554                     subq.w     [A4], 2
000016C4  41EE FFDC                lea.l      A0, [A6 - 0x24]
000016C8  43EE FFF6                lea.l      A1, [A6 - 0xA]
000016CC  20D9                     move.l     [A0]+, [A1]+
000016CE  20D9                     move.l     [A0]+, [A1]+
000016D0  30D9                     move.w     [A0]+, [A1]+
000016D2  4868 FFF6                pea.l      [A0 - 0xA]
000016D6  3F3C 0016                move.w     -[A7], 0x16
000016DA  A9EB                     syscall    Pack4/FP68K
000016DC  4868 FFF6                pea.l      [A0 - 0xA]
000016E0  486E FFE6                pea.l      [A6 - 0x1A]
000016E4  3F3C 2010                move.w     -[A7], 0x2010
000016E8  A9EB                     syscall    Pack4/FP68K
000016EA  3014                     move.w     D0, [A4]
000016EC  5254                     addq.w     [A4], 1
000016EE  2079 FFFF AEB4           movea.l    A0, [0xFFFFAEB4]
000016F4  D0C0                     add.w      A0, D0
000016F6  D0C0                     add.w      A0, D0
000016F8  316E FFE6 0236           move.w     [A0 + 0x236], [A6 - 0x1A]
label000016FE:
000016FE  4CDF 1C80                movem.l    D7,A2,A3,A4, [A7]+
00001702  4E5E                     unlink     A6
00001704  4E75                     rts
fn00001706:
00001706  4E56 FFE8                link       A6, -0x0018
0000170A  48E7 0108                movem.l    -[A7], D7,A4
0000170E  2079 FFFF AEB4           movea.l    A0, [0xFFFFAEB4]
00001714  3E28 0302                move.w     D7, [A0 + 0x302]
00001718  49E8 0302                lea.l      A4, [A0 + 0x302]
0000171C  0C47 0002                cmpi.w     D7, 0x2
00001720  6C10                     bge        +0x12 /* 00001732 */
00001722  2F3C FFFF B1A6           move.l     -[A7], 0xFFFFB1A6
00001728  4EBA E8D6                jsr        [PC - 0x172A /* 00000000 */]
0000172C  588F                     addq.l     A7, 4
0000172E  6000 00C0                bra        +0xC2 /* 000017F0 */
label00001732:
00001732  2079 FFFF AEB4           movea.l    A0, [0xFFFFAEB4]
00001738  D0C7                     add.w      A0, D7
0000173A  D0C7                     add.w      A0, D7
0000173C  4A68 0232                tst.w      [A0 + 0x232]
00001740  6C14                     bge        +0x16 /* 00001756 */
00001742  3054                     movea.w    A0, [A4]
00001744  D1C8                     add.l      A0, A0
00001746  41E8 0232                lea.l      A0, [A0 + 0x232]
0000174A  D1F9 FFFF AEB4           add.l      A0, [0xFFFFAEB4]
00001750  70FF                     moveq.l    D0, 0xFFFFFFFF
00001752  C1D0                     muls.w     D0, [A0]
00001754  3080                     move.w     [A0], D0
label00001756:
00001756  2079 FFFF AEB4           movea.l    A0, [0xFFFFAEB4]
0000175C  3028 0302                move.w     D0, [A0 + 0x302]
00001760  D0C0                     add.w      A0, D0
00001762  D0C0                     add.w      A0, D0
00001764  3028 0232                move.w     D0, [A0 + 0x232]
00001768  48C0                     ext.l      D0
0000176A  81FC 0168                divs.w     D0, 0x168
0000176E  4840                     swap.w     D0
00001770  C1FC 000C                muls.w     D0, 0xC
00001774  2040                     movea.l    A0, D0
00001776  D1FC FFFF 7E84           add.l      A0, 0xFFFF7E84
0000177C  2279 FFFF AEB4           movea.l    A1, [0xFFFFAEB4]
00001782  3029 0302                move.w     D0, [A1 + 0x302]
00001786  D2C0                     add.w      A1, D0
00001788  D2C0                     add.w      A1, D0
0000178A  4869 0234                pea.l      [A1 + 0x234]
0000178E  486E FFEA                pea.l      [A6 - 0x16]
00001792  3F3C 200E                move.w     -[A7], 0x200E
00001796  A9EB                     syscall    Pack4/FP68K
00001798  4868 0002                pea.l      [A0 + 0x2]
0000179C  486E FFEA                pea.l      [A6 - 0x16]
000017A0  3F3C 0004                move.w     -[A7], 0x4
000017A4  A9EB                     syscall    Pack4/FP68K
000017A6  41D6                     lea.l      A0, [A6]
000017A8  43EE FFF4                lea.l      A1, [A6 - 0xC]
000017AC  2121                     move.l     -[A0], -[A1]
000017AE  2121                     move.l     -[A0], -[A1]
000017B0  3121                     move.w     -[A0], -[A1]
000017B2  3110                     move.w     -[A0], [A0]
000017B4  5554                     subq.w     [A4], 2
000017B6  41EE FFE8                lea.l      A0, [A6 - 0x18]
000017BA  43EE FFF6                lea.l      A1, [A6 - 0xA]
000017BE  20D9                     move.l     [A0]+, [A1]+
000017C0  20D9                     move.l     [A0]+, [A1]+
000017C2  30D9                     move.w     [A0]+, [A1]+
000017C4  4868 FFF6                pea.l      [A0 - 0xA]
000017C8  3F3C 0016                move.w     -[A7], 0x16
000017CC  A9EB                     syscall    Pack4/FP68K
000017CE  4868 FFF6                pea.l      [A0 - 0xA]
000017D2  486E FFF2                pea.l      [A6 - 0xE]
000017D6  3F3C 2010                move.w     -[A7], 0x2010
000017DA  A9EB                     syscall    Pack4/FP68K
000017DC  3014                     move.w     D0, [A4]
000017DE  5254                     addq.w     [A4], 1
000017E0  2079 FFFF AEB4           movea.l    A0, [0xFFFFAEB4]
000017E6  D0C0                     add.w      A0, D0
000017E8  D0C0                     add.w      A0, D0
000017EA  316E FFF2 0236           move.w     [A0 + 0x236], [A6 - 0xE]
label000017F0:
000017F0  4CDF 1080                movem.l    D7,A4, [A7]+
000017F4  4E5E                     unlink     A6
000017F6  4E75                     rts
fn000017F8:
000017F8  4E56 FFCA                link       A6, -0x0036
000017FC  48E7 0338                movem.l    -[A7], D6,D7,A2,A3,A4
00001800  42AE FFF0                clr.l      [A6 - 0x10]
00001804  2D7C 8000 0000 FFEC      move.l     [A6 - 0x14], 0x80000000
0000180C  2D7C 3FFF 3FFF FFE8      move.l     [A6 - 0x18], 0x3FFF3FFF
00001814  2079 FFFF AEB4           movea.l    A0, [0xFFFFAEB4]
0000181A  3E28 0302                move.w     D7, [A0 + 0x302]
0000181E  49E8 0302                lea.l      A4, [A0 + 0x302]
00001822  0C47 0002                cmpi.w     D7, 0x2
00001826  6C10                     bge        +0x12 /* 00001838 */
00001828  2F3C FFFF B1B6           move.l     -[A7], 0xFFFFB1B6
0000182E  4EBA E7D0                jsr        [PC - 0x1830 /* 00000000 */]
00001832  588F                     addq.l     A7, 4
00001834  6000 0170                bra        +0x172 /* 000019A6 */
label00001838:
00001838  2079 FFFF AEB4           movea.l    A0, [0xFFFFAEB4]
0000183E  D0C7                     add.w      A0, D7
00001840  D0C7                     add.w      A0, D7
00001842  4A68 0232                tst.w      [A0 + 0x232]
00001846  6C28                     bge        +0x2A /* 00001870 */
00001848  3054                     movea.w    A0, [A4]
0000184A  D1C8                     add.l      A0, A0
0000184C  41E8 0232                lea.l      A0, [A0 + 0x232]
00001850  D1F9 FFFF AEB4           add.l      A0, [0xFFFFAEB4]
00001856  70FF                     moveq.l    D0, 0xFFFFFFFF
00001858  C1D0                     muls.w     D0, [A0]
0000185A  3080                     move.w     [A0], D0
0000185C  42AE FFF0                clr.l      [A6 - 0x10]
00001860  2D7C 8000 0000 FFEC      move.l     [A6 - 0x14], 0x80000000
00001868  2D7C BFFF BFFF FFE8      move.l     [A6 - 0x18], 0xBFFFBFFF
label00001870:
00001870  2079 FFFF AEB4           movea.l    A0, [0xFFFFAEB4]
00001876  3028 0302                move.w     D0, [A0 + 0x302]
0000187A  D0C0                     add.w      A0, D0
0000187C  D0C0                     add.w      A0, D0
0000187E  3C28 0232                move.w     D6, [A0 + 0x232]
00001882  2006                     move.l     D0, D6
00001884  0640 010E                addi.w     D0, 0x10E
00001888  48C0                     ext.l      D0
0000188A  81FC 0168                divs.w     D0, 0x168
0000188E  4840                     swap.w     D0
00001890  C1FC 000C                muls.w     D0, 0xC
00001894  2040                     movea.l    A0, D0
00001896  D1FC FFFF 7E84           add.l      A0, 0xFFFF7E84
0000189C  2006                     move.l     D0, D6
0000189E  48C0                     ext.l      D0
000018A0  81FC 0168                divs.w     D0, 0x168
000018A4  4840                     swap.w     D0
000018A6  C1FC 000C                muls.w     D0, 0xC
000018AA  2240                     movea.l    A1, D0
000018AC  D3FC FFFF 7E84           add.l      A1, 0xFFFF7E84
000018B2  2479 FFFF AEB4           movea.l    A2, [0xFFFFAEB4]
000018B8  302A 0302                move.w     D0, [A2 + 0x302]
000018BC  D4C0                     add.w      A2, D0
000018BE  D4C0                     add.w      A2, D0
000018C0  47EE FFDE                lea.l      A3, [A6 - 0x22]
000018C4  26EE FFEA                move.l     [A3]+, [A6 - 0x16]
000018C8  26EE FFEE                move.l     [A3]+, [A6 - 0x12]
000018CC  36EE FFF2                move.w     [A3]+, [A6 - 0xE]
000018D0  486A 0234                pea.l      [A2 + 0x234]
000018D4  486B FFF6                pea.l      [A3 - 0xA]
000018D8  3F3C 2004                move.w     -[A7], 0x2004
000018DC  A9EB                     syscall    Pack4/FP68K
000018DE  45EE FFD4                lea.l      A2, [A6 - 0x2C]
000018E2  47EB FFF6                lea.l      A3, [A3 - 0xA]
000018E6  24DB                     move.l     [A2]+, [A3]+
000018E8  24DB                     move.l     [A2]+, [A3]+
000018EA  34DB                     move.w     [A2]+, [A3]+
000018EC  4869 0002                pea.l      [A1 + 0x2]
000018F0  486A FFF6                pea.l      [A2 - 0xA]
000018F4  3F3C 0004                move.w     -[A7], 0x4
000018F8  A9EB                     syscall    Pack4/FP68K
000018FA  43EE FFCA                lea.l      A1, [A6 - 0x36]
000018FE  45EA FFF6                lea.l      A2, [A2 - 0xA]
00001902  22DA                     move.l     [A1]+, [A2]+
00001904  22DA                     move.l     [A1]+, [A2]+
00001906  32DA                     move.w     [A1]+, [A2]+
00001908  4868 0002                pea.l      [A0 + 0x2]
0000190C  4869 FFF6                pea.l      [A1 - 0xA]
00001910  3F3C 0006                move.w     -[A7], 0x6
00001914  A9EB                     syscall    Pack4/FP68K
00001916  41D6                     lea.l      A0, [A6]
00001918  2121                     move.l     -[A0], -[A1]
0000191A  2121                     move.l     -[A0], -[A1]
0000191C  3121                     move.w     -[A0], -[A1]
0000191E  3110                     move.w     -[A0], [A0]
00001920  487A 008E                pea.l      [PC + 0x8E /* 000019B0, value 0x4E1F4E56 */]
00001924  486E FFF6                pea.l      [A6 - 0xA]
00001928  3F3C 2008                move.w     -[A7], 0x2008
0000192C  A9EB                     syscall    Pack4/FP68K
0000192E  6F16                     ble        +0x18 /* 00001946 */
00001930  42AE FFFC                clr.l      [A6 - 0x4]
00001934  2D7C 9C3E 0000 FFF8      move.l     [A6 - 0x8], 0x9C3E0000
0000193C  2D7C 400D 400D FFF4      move.l     [A6 - 0xC], 0x400D400D /* '@\r@\r' */
00001944  6024                     bra        +0x26 /* 0000196A */
label00001946:
00001946  487A 0066                pea.l      [PC + 0x66 /* 000019AE, value 0xB1E14E1F */]
0000194A  486E FFF6                pea.l      [A6 - 0xA]
0000194E  3F3C 2008                move.w     -[A7], 0x2008
00001952  A9EB                     syscall    Pack4/FP68K
00001954  6C14                     bge        +0x16 /* 0000196A */
00001956  42AE FFFC                clr.l      [A6 - 0x4]
0000195A  2D7C 9C3E 0000 FFF8      move.l     [A6 - 0x8], 0x9C3E0000
00001962  2D7C C00D C00D FFF4      move.l     [A6 - 0xC], 0xC00DC00D
label0000196A:
0000196A  5554                     subq.w     [A4], 2
0000196C  41EE FFDC                lea.l      A0, [A6 - 0x24]
00001970  43EE FFF6                lea.l      A1, [A6 - 0xA]
00001974  20D9                     move.l     [A0]+, [A1]+
00001976  20D9                     move.l     [A0]+, [A1]+
00001978  30D9                     move.w     [A0]+, [A1]+
0000197A  4868 FFF6                pea.l      [A0 - 0xA]
0000197E  3F3C 0016                move.w     -[A7], 0x16
00001982  A9EB                     syscall    Pack4/FP68K
00001984  4868 FFF6                pea.l      [A0 - 0xA]
00001988  486E FFE6                pea.l      [A6 - 0x1A]
0000198C  3F3C 2010                move.w     -[A7], 0x2010
00001990  A9EB                     syscall    Pack4/FP68K
00001992  3014                     move.w     D0, [A4]
00001994  5254                     addq.w     [A4], 1
00001996  2079 FFFF AEB4           movea.l    A0, [0xFFFFAEB4]
0000199C  D0C0                     add.w      A0, D0
0000199E  D0C0                     add.w      A0, D0
000019A0  316E FFE6 0236           move.w     [A0 + 0x236], [A6 - 0x1A]
label000019A6:
000019A6  4CDF 1CC0                movem.l    D6,D7,A2,A3,A4, [A7]+
000019AA  4E5E                     unlink     A6
000019AC  4E75                     rts
000019AE  B1E1                     cmpa.l     A0, -[A1]
000019B0  4E1F                     .invalid   // invalid opcode 4
fn000019B2:
000019B2  4E56 FFF2                link       A6, -0x000E
000019B6  2F07                     move.l     -[A7], D7
000019B8  2079 FFFF AEB4           movea.l    A0, [0xFFFFAEB4]
000019BE  3E28 0302                move.w     D7, [A0 + 0x302]
000019C2  0C47 0001                cmpi.w     D7, 0x1
000019C6  6C0E                     bge        +0x10 /* 000019D6 */
000019C8  2F3C FFFF B1C6           move.l     -[A7], 0xFFFFB1C6
000019CE  4EBA E630                jsr        [PC - 0x19D0 /* 00000000 */]
000019D2  588F                     addq.l     A7, 4
000019D4  6078                     bra        +0x7A /* 00001A4E */
label000019D6:
000019D6  2079 FFFF AEB4           movea.l    A0, [0xFFFFAEB4]
000019DC  D0C7                     add.w      A0, D7
000019DE  D0C7                     add.w      A0, D7
000019E0  4A68 0234                tst.w      [A0 + 0x234]
000019E4  6C0E                     bge        +0x10 /* 000019F4 */
000019E6  2F3C FFFF B1D6           move.l     -[A7], 0xFFFFB1D6
000019EC  4EBA E612                jsr        [PC - 0x19EE /* 00000000 */]
000019F0  588F                     addq.l     A7, 4
000019F2  605A                     bra        +0x5C /* 00001A4E */
label000019F4:
000019F4  2079 FFFF AEB4           movea.l    A0, [0xFFFFAEB4]
000019FA  3028 0302                move.w     D0, [A0 + 0x302]
000019FE  D0C0                     add.w      A0, D0
00001A00  D0C0                     add.w      A0, D0
00001A02  4FEF FFF6                lea.l      A7, [A7 - 0xA]
00001A06  4868 0234                pea.l      [A0 + 0x234]
00001A0A  486F 0004                pea.l      [A7 + 0x4]
00001A0E  3F3C 200E                move.w     -[A7], 0x200E
00001A12  A9EB                     syscall    Pack4/FP68K
00001A14  3F17                     move.w     -[A7], [A7]
00001A16  486E FFF4                pea.l      [A6 - 0xC]
00001A1A  4EAD 038A                jsr        [A5 + 0x38A /* export_109, CODE:7 @ 00003BF8 */]
00001A1E  486E FFF6                pea.l      [A6 - 0xA]
00001A22  3F3C 0016                move.w     -[A7], 0x16
00001A26  A9EB                     syscall    Pack4/FP68K
00001A28  486E FFF6                pea.l      [A6 - 0xA]
00001A2C  486E FFF2                pea.l      [A6 - 0xE]
00001A30  3F3C 2010                move.w     -[A7], 0x2010
00001A34  A9EB                     syscall    Pack4/FP68K
00001A36  2079 FFFF AEB4           movea.l    A0, [0xFFFFAEB4]
00001A3C  3028 0302                move.w     D0, [A0 + 0x302]
00001A40  D0C0                     add.w      A0, D0
00001A42  D0C0                     add.w      A0, D0
00001A44  316E FFF2 0234           move.w     [A0 + 0x234], [A6 - 0xE]
00001A4A  4FEF 0010                lea.l      A7, [A7 + 0x10]
label00001A4E:
00001A4E  2E1F                     move.l     D7, [A7]+
00001A50  4E5E                     unlink     A6
00001A52  4E75                     rts
fn00001A54:
00001A54  2079 FFFF AEB4           movea.l    A0, [0xFFFFAEB4]
00001A5A  4228 0117                clr.b      [A0 + 0x117]
00001A5E  5379 FFFF AEBA           subq.w     [0xFFFFAEBA], 1
00001A64  4E75                     rts
fn00001A66:
00001A66  2079 FFFF AEB4           movea.l    A0, [0xFFFFAEB4]
00001A6C  117C 0001 0117           move.b     [A0 + 0x117], 0x1
00001A72  5379 FFFF AEBA           subq.w     [0xFFFFAEBA], 1
00001A78  4E75                     rts
fn00001A7A:
00001A7A  2079 FFFF AEB4           movea.l    A0, [0xFFFFAEB4]
00001A80  117C 0002 0117           move.b     [A0 + 0x117], 0x2
00001A86  5379 FFFF AEBA           subq.w     [0xFFFFAEBA], 1
00001A8C  4E75                     rts
fn00001A8E:
00001A8E  2079 FFFF AEB4           movea.l    A0, [0xFFFFAEB4]
00001A94  117C 0003 0117           move.b     [A0 + 0x117], 0x3
00001A9A  5379 FFFF AEBA           subq.w     [0xFFFFAEBA], 1
00001AA0  4E75                     rts
fn00001AA2:
00001AA2  2079 FFFF AEB4           movea.l    A0, [0xFFFFAEB4]
00001AA8  117C 0004 0117           move.b     [A0 + 0x117], 0x4
00001AAE  5379 FFFF AEBA           subq.w     [0xFFFFAEBA], 1
00001AB4  4E75                     rts
fn00001AB6:
00001AB6  2079 FFFF AEB4           movea.l    A0, [0xFFFFAEB4]
00001ABC  117C 0005 0117           move.b     [A0 + 0x117], 0x5
00001AC2  5379 FFFF AEBA           subq.w     [0xFFFFAEBA], 1
00001AC8  4E75                     rts
fn00001ACA:
00001ACA  2079 FFFF AEB4           movea.l    A0, [0xFFFFAEB4]
00001AD0  117C 0006 0117           move.b     [A0 + 0x117], 0x6
00001AD6  5379 FFFF AEBA           subq.w     [0xFFFFAEBA], 1
00001ADC  4E75                     rts
fn00001ADE:
00001ADE  2079 FFFF AEB4           movea.l    A0, [0xFFFFAEB4]
00001AE4  117C 0007 0117           move.b     [A0 + 0x117], 0x7
00001AEA  5379 FFFF AEBA           subq.w     [0xFFFFAEBA], 1
00001AF0  4E75                     rts
fn00001AF2:
00001AF2  2079 FFFF AEB4           movea.l    A0, [0xFFFFAEB4]
00001AF8  117C 0008 0117           move.b     [A0 + 0x117], 0x8
00001AFE  5379 FFFF AEBA           subq.w     [0xFFFFAEBA], 1
00001B04  4E75                     rts
fn00001B06:
00001B06  2079 FFFF AEB4           movea.l    A0, [0xFFFFAEB4]
00001B0C  117C 0009 0117           move.b     [A0 + 0x117], 0x9 /* '\t' */
00001B12  5379 FFFF AEBA           subq.w     [0xFFFFAEBA], 1
00001B18  4E75                     rts
fn00001B1A:
00001B1A  4E56 FDFE                link       A6, -0x0202
00001B1E  2F0C                     move.l     -[A7], A4
00001B20  2079 FFFF AEB4           movea.l    A0, [0xFFFFAEB4]
00001B26  0C68 0001 0302           cmpi.w     [A0 + 0x302], 0x1
00001B2C  6C10                     bge        +0x12 /* 00001B3E */
00001B2E  2F3C FFFF B1F6           move.l     -[A7], 0xFFFFB1F6
00001B34  4EBA E4CA                jsr        [PC - 0x1B36 /* 00000000 */]
00001B38  588F                     addq.l     A7, 4
00001B3A  6000 00C8                bra        +0xCA /* 00001C04 */
label00001B3E:
00001B3E  2079 FFFF AEB4           movea.l    A0, [0xFFFFAEB4]
00001B44  4868 011C                pea.l      [A0 + 0x11C]
00001B48  4EAD 047A                jsr        [A5 + 0x47A /* export_139, CODE:7 @ 00002398 */]
00001B4C  2079 FFFF AEB4           movea.l    A0, [0xFFFFAEB4]
00001B52  4868 011C                pea.l      [A0 + 0x11C]
00001B56  2F3C FFFF B206           move.l     -[A7], 0xFFFFB206
00001B5C  486E FF00                pea.l      [A6 - 0x100]
00001B60  4EAD 050A                jsr        [A5 + 0x50A /* export_157, CODE:7 @ 000020CA */]
00001B64  2079 FFFF AEB4           movea.l    A0, [0xFFFFAEB4]
00001B6A  4868 011C                pea.l      [A0 + 0x11C]
00001B6E  4EAD 0482                jsr        [A5 + 0x482 /* export_140, CODE:7 @ 0000237C */]
00001B72  2079 FFFF AEB4           movea.l    A0, [0xFFFFAEB4]
00001B78  3028 0302                move.w     D0, [A0 + 0x302]
00001B7C  D0C0                     add.w      A0, D0
00001B7E  D0C0                     add.w      A0, D0
00001B80  3EA8 0234                move.w     [A7], [A0 + 0x234]
00001B84  2F3C FFFF B210           move.l     -[A7], 0xFFFFB210
00001B8A  486E FE00                pea.l      [A6 - 0x200]
00001B8E  4EAD 050A                jsr        [A5 + 0x50A /* export_157, CODE:7 @ 000020CA */]
00001B92  486E FF00                pea.l      [A6 - 0x100]
00001B96  4EAD 0482                jsr        [A5 + 0x482 /* export_140, CODE:7 @ 0000237C */]
00001B9A  486E FE00                pea.l      [A6 - 0x200]
00001B9E  4EAD 0482                jsr        [A5 + 0x482 /* export_140, CODE:7 @ 0000237C */]
00001BA2  4297                     clr.l      [A7]
00001BA4  3F3C 03F0                move.w     -[A7], 0x3F0
00001BA8  42A7                     clr.l      -[A7]
00001BAA  4878 FFFF                push.l     0xFFFF
00001BAE  A97C                     syscall    GetNewDialog
00001BB0  285F                     movea.l    A4, [A7]+
00001BB2  486E FF00                pea.l      [A6 - 0x100]
00001BB6  486E FE00                pea.l      [A6 - 0x200]
00001BBA  2F3C FFFF 9096           move.l     -[A7], 0xFFFF9096
00001BC0  2F3C FFFF 9096           move.l     -[A7], 0xFFFF9096
00001BC6  A98B                     syscall    ParamText
00001BC8  3EBC 0005                move.w     [A7], 0x5
00001BCC  2F0C                     move.l     -[A7], A4
00001BCE  4EAD 0242                jsr        [A5 + 0x242 /* export_68, CODE:2 @ 00004F96 */]
00001BD2  4FEF 0024                lea.l      A7, [A7 + 0x24]
label00001BD6:
00001BD6  42A7                     clr.l      -[A7]
00001BD8  486E FDFE                pea.l      [A6 - 0x202]
00001BDC  A991                     syscall    ModalDialog
00001BDE  0C6E 0002 FDFE           cmpi.w     [A6 - 0x202], 0x2
00001BE4  6EF0                     bgt        -0xE /* 00001BD6 */
00001BE6  0C6E 0002 FDFE           cmpi.w     [A6 - 0x202], 0x2
00001BEC  660C                     bne        +0xE /* 00001BFA */
00001BEE  4279 FFFF 922C           clr.w      [0xFFFF922C]
00001BF4  4279 FFFF 922E           clr.w      [0xFFFF922E]
label00001BFA:
00001BFA  2F0C                     move.l     -[A7], A4
00001BFC  A983                     syscall    DisposeDialog
00001BFE  5379 FFFF AEBA           subq.w     [0xFFFFAEBA], 1
label00001C04:
00001C04  285F                     movea.l    A4, [A7]+
00001C06  4E5E                     unlink     A6
00001C08  4E75                     rts
fn00001C0A:
00001C0A  2079 FFFF AEB4           movea.l    A0, [0xFFFFAEB4]
00001C10  33E8 030C FFFF AEBA      move.w     [0xFFFFAEBA], [A0 + 0x30C]
00001C18  4E75                     rts
fn00001C1A:
00001C1A  48E7 0308                movem.l    -[A7], D6,D7,A4
00001C1E  2079 FFFF AEB4           movea.l    A0, [0xFFFFAEB4]
00001C24  3E28 0302                move.w     D7, [A0 + 0x302]
00001C28  49E8 0302                lea.l      A4, [A0 + 0x302]
00001C2C  0C47 0002                cmpi.w     D7, 0x2
00001C30  6C0E                     bge        +0x10 /* 00001C40 */
00001C32  2F3C FFFF B21A           move.l     -[A7], 0xFFFFB21A
00001C38  4EBA E3C6                jsr        [PC - 0x1C3A /* 00000000 */]
00001C3C  588F                     addq.l     A7, 4
00001C3E  6034                     bra        +0x36 /* 00001C74 */
label00001C40:
00001C40  2079 FFFF AEB4           movea.l    A0, [0xFFFFAEB4]
00001C46  D0C7                     add.w      A0, D7
00001C48  D0C7                     add.w      A0, D7
00001C4A  3C28 0234                move.w     D6, [A0 + 0x234]
00001C4E  4A46                     tst.w      D6
00001C50  6F20                     ble        +0x22 /* 00001C72 */
00001C52  0C46 0064                cmpi.w     D6, 0x64 /* 'd' */
00001C56  6E1A                     bgt        +0x1C /* 00001C72 */
00001C58  3054                     movea.w    A0, [A4]
00001C5A  D1C8                     add.l      A0, A0
00001C5C  41E8 0232                lea.l      A0, [A0 + 0x232]
00001C60  D1F9 FFFF AEB4           add.l      A0, [0xFFFFAEB4]
00001C66  2279 FFFF AEB4           movea.l    A1, [0xFFFFAEB4]
00001C6C  D2C6                     add.w      A1, D6
00001C6E  3390 6034                move.w     [A1 + D6.w + 0x34], [A0]
label00001C72:
00001C72  5554                     subq.w     [A4], 2
label00001C74:
00001C74  4CDF 10C0                movem.l    D6,D7,A4, [A7]+
00001C78  4E75                     rts
fn00001C7A:
00001C7A  48E7 0308                movem.l    -[A7], D6,D7,A4
00001C7E  2079 FFFF AEB4           movea.l    A0, [0xFFFFAEB4]
00001C84  3E28 0302                move.w     D7, [A0 + 0x302]
00001C88  49E8 0302                lea.l      A4, [A0 + 0x302]
00001C8C  0C47 0001                cmpi.w     D7, 0x1
00001C90  6C0E                     bge        +0x10 /* 00001CA0 */
00001C92  2F3C FFFF B22A           move.l     -[A7], 0xFFFFB22A
00001C98  4EBA E366                jsr        [PC - 0x1C9A /* 00000000 */]
00001C9C  588F                     addq.l     A7, 4
00001C9E  6044                     bra        +0x46 /* 00001CE4 */
label00001CA0:
00001CA0  2079 FFFF AEB4           movea.l    A0, [0xFFFFAEB4]
00001CA6  D0C7                     add.w      A0, D7
00001CA8  D0C7                     add.w      A0, D7
00001CAA  3C28 0234                move.w     D6, [A0 + 0x234]
00001CAE  4A46                     tst.w      D6
00001CB0  6F22                     ble        +0x24 /* 00001CD4 */
00001CB2  0C46 0064                cmpi.w     D6, 0x64 /* 'd' */
00001CB6  6E1C                     bgt        +0x1E /* 00001CD4 */
00001CB8  2079 FFFF AEB4           movea.l    A0, [0xFFFFAEB4]
00001CBE  D0C6                     add.w      A0, D6
00001CC0  3254                     movea.w    A1, [A4]
00001CC2  D3C9                     add.l      A1, A1
00001CC4  43E9 0234                lea.l      A1, [A1 + 0x234]
00001CC8  D3F9 FFFF AEB4           add.l      A1, [0xFFFFAEB4]
00001CCE  32B0 6034                move.w     [A1], [A0 + D6.w + 0x34]
00001CD2  6010                     bra        +0x12 /* 00001CE4 */
label00001CD4:
00001CD4  3054                     movea.w    A0, [A4]
00001CD6  D1C8                     add.l      A0, A0
00001CD8  41E8 0234                lea.l      A0, [A0 + 0x234]
00001CDC  D1F9 FFFF AEB4           add.l      A0, [0xFFFFAEB4]
00001CE2  4250                     clr.w      [A0]
label00001CE4:
00001CE4  4CDF 10C0                movem.l    D6,D7,A4, [A7]+
00001CE8  4E75                     rts
fn00001CEA:
00001CEA  4E56 FFE4                link       A6, -0x001C
00001CEE  48E7 0708                movem.l    -[A7], D5,D6,D7,A4
00001CF2  2079 FFFF AEB4           movea.l    A0, [0xFFFFAEB4]
00001CF8  3E28 0302                move.w     D7, [A0 + 0x302]
00001CFC  0C47 0002                cmpi.w     D7, 0x2
00001D00  6C10                     bge        +0x12 /* 00001D12 */
00001D02  2F3C FFFF B23A           move.l     -[A7], 0xFFFFB23A
00001D08  4EBA E2F6                jsr        [PC - 0x1D0A /* 00000000 */]
00001D0C  588F                     addq.l     A7, 4
00001D0E  6000 00B0                bra        +0xB2 /* 00001DC0 */
label00001D12:
00001D12  2079 FFFF AEB4           movea.l    A0, [0xFFFFAEB4]
00001D18  D0C7                     add.w      A0, D7
00001D1A  D0C7                     add.w      A0, D7
00001D1C  3C28 0234                move.w     D6, [A0 + 0x234]
00001D20  48C6                     ext.l      D6
00001D22  2079 FFFF AEB4           movea.l    A0, [0xFFFFAEB4]
00001D28  D0C7                     add.w      A0, D7
00001D2A  D0C7                     add.w      A0, D7
00001D2C  3A28 0232                move.w     D5, [A0 + 0x232]
00001D30  48C5                     ext.l      D5
00001D32  2F06                     move.l     -[A7], D6
00001D34  2F06                     move.l     -[A7], D6
00001D36  4EAD 0042                jsr        [A5 + 0x42 /* export_4, CODE:1 @ 000002E8 */]
00001D3A  2F05                     move.l     -[A7], D5
00001D3C  2F05                     move.l     -[A7], D5
00001D3E  2200                     move.l     D1, D0
00001D40  4EAD 0042                jsr        [A5 + 0x42 /* export_4, CODE:1 @ 000002E8 */]
00001D44  C141                     exg        D0, D1
00001D46  D081                     add.l      D0, D1
00001D48  4FEF FFF6                lea.l      A7, [A7 - 0xA]
00001D4C  2D40 FFE4                move.l     [A6 - 0x1C], D0
00001D50  486E FFE4                pea.l      [A6 - 0x1C]
00001D54  486F 0004                pea.l      [A7 + 0x4]
00001D58  3F3C 280E                move.w     -[A7], 0x280E
00001D5C  A9EB                     syscall    Pack4/FP68K
00001D5E  3F17                     move.w     -[A7], [A7]
00001D60  486E FFE8                pea.l      [A6 - 0x18]
00001D64  4EAD 038A                jsr        [A5 + 0x38A /* export_109, CODE:7 @ 00003BF8 */]
00001D68  41EE FFF4                lea.l      A0, [A6 - 0xC]
00001D6C  43EE FFE8                lea.l      A1, [A6 - 0x18]
00001D70  20D9                     move.l     [A0]+, [A1]+
00001D72  20D9                     move.l     [A0]+, [A1]+
00001D74  20D9                     move.l     [A0]+, [A1]+
00001D76  2879 FFFF AEB4           movea.l    A4, [0xFFFFAEB4]
00001D7C  49EC 0302                lea.l      A4, [A4 + 0x302]
00001D80  5554                     subq.w     [A4], 2
00001D82  41EE FFE8                lea.l      A0, [A6 - 0x18]
00001D86  43EE FFF6                lea.l      A1, [A6 - 0xA]
00001D8A  20D9                     move.l     [A0]+, [A1]+
00001D8C  20D9                     move.l     [A0]+, [A1]+
00001D8E  30D9                     move.w     [A0]+, [A1]+
00001D90  4868 FFF6                pea.l      [A0 - 0xA]
00001D94  3F3C 0016                move.w     -[A7], 0x16
00001D98  A9EB                     syscall    Pack4/FP68K
00001D9A  4868 FFF6                pea.l      [A0 - 0xA]
00001D9E  486E FFF2                pea.l      [A6 - 0xE]
00001DA2  3F3C 2010                move.w     -[A7], 0x2010
00001DA6  A9EB                     syscall    Pack4/FP68K
00001DA8  3014                     move.w     D0, [A4]
00001DAA  5254                     addq.w     [A4], 1
00001DAC  2079 FFFF AEB4           movea.l    A0, [0xFFFFAEB4]
00001DB2  D0C0                     add.w      A0, D0
00001DB4  D0C0                     add.w      A0, D0
00001DB6  316E FFF2 0236           move.w     [A0 + 0x236], [A6 - 0xE]
00001DBC  4FEF 0010                lea.l      A7, [A7 + 0x10]
label00001DC0:
00001DC0  4CDF 10E0                movem.l    D5,D6,D7,A4, [A7]+
00001DC4  4E5E                     unlink     A6
00001DC6  4E75                     rts
fn00001DC8:
00001DC8  48E7 0308                movem.l    -[A7], D6,D7,A4
00001DCC  2879 FFFF AEB4           movea.l    A4, [0xFFFFAEB4]
00001DD2  49EC 0302                lea.l      A4, [A4 + 0x302]
00001DD6  0C54 0002                cmpi.w     [A4], 0x2
00001DDA  6C0E                     bge        +0x10 /* 00001DEA */
00001DDC  2F3C FFFF B24A           move.l     -[A7], 0xFFFFB24A
00001DE2  4EBA E21C                jsr        [PC - 0x1DE4 /* 00000000 */]
00001DE6  588F                     addq.l     A7, 4
00001DE8  602E                     bra        +0x30 /* 00001E18 */
label00001DEA:
00001DEA  5554                     subq.w     [A4], 2
00001DEC  2079 FFFF AEB4           movea.l    A0, [0xFFFFAEB4]
00001DF2  3E28 0302                move.w     D7, [A0 + 0x302]
00001DF6  D0C7                     add.w      A0, D7
00001DF8  D0C7                     add.w      A0, D7
00001DFA  3C28 0238                move.w     D6, [A0 + 0x238]
00001DFE  2079 FFFF AEB4           movea.l    A0, [0xFFFFAEB4]
00001E04  D0C7                     add.w      A0, D7
00001E06  D0C7                     add.w      A0, D7
00001E08  4A68 0236                tst.w      [A0 + 0x236]
00001E0C  670A                     beq        +0xC /* 00001E18 */
00001E0E  2079 FFFF AEB4           movea.l    A0, [0xFFFFAEB4]
00001E14  3146 0300                move.w     [A0 + 0x300], D6
label00001E18:
00001E18  4CDF 10C0                movem.l    D6,D7,A4, [A7]+
00001E1C  4E75                     rts
fn00001E1E:
00001E1E  48E7 0708                movem.l    -[A7], D5,D6,D7,A4
00001E22  2879 FFFF AEB4           movea.l    A4, [0xFFFFAEB4]
00001E28  49EC 0302                lea.l      A4, [A4 + 0x302]
00001E2C  0C54 0003                cmpi.w     [A4], 0x3
00001E30  6C0E                     bge        +0x10 /* 00001E40 */
00001E32  2F3C FFFF B25A           move.l     -[A7], 0xFFFFB25A
00001E38  4EBA E1C6                jsr        [PC - 0x1E3A /* 00000000 */]
00001E3C  588F                     addq.l     A7, 4
00001E3E  6048                     bra        +0x4A /* 00001E88 */
label00001E40:
00001E40  5754                     subq.w     [A4], 3
00001E42  2079 FFFF AEB4           movea.l    A0, [0xFFFFAEB4]
00001E48  3E28 0302                move.w     D7, [A0 + 0x302]
00001E4C  D0C7                     add.w      A0, D7
00001E4E  D0C7                     add.w      A0, D7
00001E50  3C28 023A                move.w     D6, [A0 + 0x23A]
00001E54  2079 FFFF AEB4           movea.l    A0, [0xFFFFAEB4]
00001E5A  D0C7                     add.w      A0, D7
00001E5C  D0C7                     add.w      A0, D7
00001E5E  3A28 0238                move.w     D5, [A0 + 0x238]
00001E62  2079 FFFF AEB4           movea.l    A0, [0xFFFFAEB4]
00001E68  D0C7                     add.w      A0, D7
00001E6A  D0C7                     add.w      A0, D7
00001E6C  4A68 0236                tst.w      [A0 + 0x236]
00001E70  670C                     beq        +0xE /* 00001E7E */
00001E72  2079 FFFF AEB4           movea.l    A0, [0xFFFFAEB4]
00001E78  3145 0300                move.w     [A0 + 0x300], D5
00001E7C  600A                     bra        +0xC /* 00001E88 */
label00001E7E:
00001E7E  2079 FFFF AEB4           movea.l    A0, [0xFFFFAEB4]
00001E84  3146 0300                move.w     [A0 + 0x300], D6
label00001E88:
00001E88  4CDF 10E0                movem.l    D5,D6,D7,A4, [A7]+
00001E8C  4E75                     rts
fn00001E8E:
00001E8E  303C 03C2                move.w     D0, 0x3C2
00001E92  C1F9 FFFF 923A           muls.w     D0, [0xFFFF923A]
00001E98  0680 FFFF 9442           addi.l     D0, 0xFFFF9442
00001E9E  B0B9 FFFF AEB4           cmp.l      D0, [0xFFFFAEB4]
00001EA4  6620                     bne        +0x22 /* 00001EC6 */
00001EA6  4EAD 0352                jsr        [A5 + 0x352 /* export_102, CODE:3 @ 00002804 */]
00001EAA  33FC 0001 FFFF 923C      move.w     [0xFFFF923C], 0x1
00001EB2  2079 FFFF AEB4           movea.l    A0, [0xFFFFAEB4]
00001EB8  33E8 030C FFFF AEBA      move.w     [0xFFFFAEBA], [A0 + 0x30C]
00001EC0  4EAD 0362                jsr        [A5 + 0x362 /* export_104, CODE:3 @ 00001E98 */]
00001EC4  6006                     bra        +0x8 /* 00001ECC */
label00001EC6:
00001EC6  5379 FFFF AEBA           subq.w     [0xFFFFAEBA], 1
label00001ECC:
00001ECC  4E75                     rts
fn00001ECE:
00001ECE  2079 FFFF AEB4           movea.l    A0, [0xFFFFAEB4]
00001ED4  3F10                     move.w     -[A7], [A0]
00001ED6  4267                     clr.w      -[A7]
00001ED8  4EAD 0282                jsr        [A5 + 0x282 /* export_76, CODE:2 @ 0000573A */]
00001EDC  5379 FFFF AEBA           subq.w     [0xFFFFAEBA], 1
00001EE2  588F                     addq.l     A7, 4
00001EE4  4E75                     rts
fn00001EE6:
00001EE6  2079 FFFF AEB4           movea.l    A0, [0xFFFFAEB4]
00001EEC  3F10                     move.w     -[A7], [A0]
00001EEE  3F3C 0001                move.w     -[A7], 0x1
00001EF2  4EAD 0282                jsr        [A5 + 0x282 /* export_76, CODE:2 @ 0000573A */]
00001EF6  5379 FFFF AEBA           subq.w     [0xFFFFAEBA], 1
00001EFC  588F                     addq.l     A7, 4
00001EFE  4E75                     rts
fn00001F00:
00001F00  2079 FFFF AEB4           movea.l    A0, [0xFFFFAEB4]
00001F06  3F10                     move.w     -[A7], [A0]
00001F08  3F3C 0002                move.w     -[A7], 0x2
00001F0C  4EAD 0282                jsr        [A5 + 0x282 /* export_76, CODE:2 @ 0000573A */]
00001F10  5379 FFFF AEBA           subq.w     [0xFFFFAEBA], 1
00001F16  588F                     addq.l     A7, 4
00001F18  4E75                     rts
fn00001F1A:
00001F1A  2079 FFFF AEB4           movea.l    A0, [0xFFFFAEB4]
00001F20  3F10                     move.w     -[A7], [A0]
00001F22  3F3C 0003                move.w     -[A7], 0x3
00001F26  4EAD 0282                jsr        [A5 + 0x282 /* export_76, CODE:2 @ 0000573A */]
00001F2A  5379 FFFF AEBA           subq.w     [0xFFFFAEBA], 1
00001F30  588F                     addq.l     A7, 4
00001F32  4E75                     rts
fn00001F34:
00001F34  2079 FFFF AEB4           movea.l    A0, [0xFFFFAEB4]
00001F3A  3F10                     move.w     -[A7], [A0]
00001F3C  3F3C 0004                move.w     -[A7], 0x4
00001F40  4EAD 0282                jsr        [A5 + 0x282 /* export_76, CODE:2 @ 0000573A */]
00001F44  5379 FFFF AEBA           subq.w     [0xFFFFAEBA], 1
00001F4A  588F                     addq.l     A7, 4
00001F4C  4E75                     rts
fn00001F4E:
00001F4E  2079 FFFF AEB4           movea.l    A0, [0xFFFFAEB4]
00001F54  3F10                     move.w     -[A7], [A0]
00001F56  3F3C 0005                move.w     -[A7], 0x5
00001F5A  4EAD 0282                jsr        [A5 + 0x282 /* export_76, CODE:2 @ 0000573A */]
00001F5E  5379 FFFF AEBA           subq.w     [0xFFFFAEBA], 1
00001F64  588F                     addq.l     A7, 4
00001F66  4E75                     rts
fn00001F68:
00001F68  2079 FFFF AEB4           movea.l    A0, [0xFFFFAEB4]
00001F6E  3F10                     move.w     -[A7], [A0]
00001F70  3F3C 0006                move.w     -[A7], 0x6
00001F74  4EAD 0282                jsr        [A5 + 0x282 /* export_76, CODE:2 @ 0000573A */]
00001F78  5379 FFFF AEBA           subq.w     [0xFFFFAEBA], 1
00001F7E  588F                     addq.l     A7, 4
00001F80  4E75                     rts
fn00001F82:
00001F82  2079 FFFF AEB4           movea.l    A0, [0xFFFFAEB4]
00001F88  3F10                     move.w     -[A7], [A0]
00001F8A  3F3C 0007                move.w     -[A7], 0x7
00001F8E  4EAD 0282                jsr        [A5 + 0x282 /* export_76, CODE:2 @ 0000573A */]
00001F92  5379 FFFF AEBA           subq.w     [0xFFFFAEBA], 1
00001F98  588F                     addq.l     A7, 4
00001F9A  4E75                     rts
fn00001F9C:
00001F9C  2079 FFFF AEB4           movea.l    A0, [0xFFFFAEB4]
00001FA2  3F10                     move.w     -[A7], [A0]
00001FA4  3F3C 0008                move.w     -[A7], 0x8
00001FA8  4EAD 0282                jsr        [A5 + 0x282 /* export_76, CODE:2 @ 0000573A */]
00001FAC  5379 FFFF AEBA           subq.w     [0xFFFFAEBA], 1
00001FB2  588F                     addq.l     A7, 4
00001FB4  4E75                     rts
fn00001FB6:
00001FB6  2079 FFFF AEB4           movea.l    A0, [0xFFFFAEB4]
00001FBC  3F10                     move.w     -[A7], [A0]
00001FBE  3F3C 0009                move.w     -[A7], 0x9 /* '\t' */
00001FC2  4EAD 0282                jsr        [A5 + 0x282 /* export_76, CODE:2 @ 0000573A */]
00001FC6  5379 FFFF AEBA           subq.w     [0xFFFFAEBA], 1
00001FCC  588F                     addq.l     A7, 4
00001FCE  4E75                     rts
fn00001FD0:
00001FD0  4E56 FFFE                link       A6, -0x0002
00001FD4  2F0C                     move.l     -[A7], A4
00001FD6  42A7                     clr.l      -[A7]
00001FD8  3F3C 03F3                move.w     -[A7], 0x3F3
00001FDC  42A7                     clr.l      -[A7]
00001FDE  4878 FFFF                push.l     0xFFFF
00001FE2  A97C                     syscall    GetNewDialog
00001FE4  285F                     movea.l    A4, [A7]+
00001FE6  3F3C 0003                move.w     -[A7], 0x3
00001FEA  2F0C                     move.l     -[A7], A4
00001FEC  4EAD 0242                jsr        [A5 + 0x242 /* export_68, CODE:2 @ 00004F96 */]
00001FF0  4297                     clr.l      [A7]
00001FF2  A975                     syscall    TickCount
00001FF4  23DF FFFF C07A           move.l     [0xFFFFC07A], [A7]+
00001FFA  548F                     addq.l     A7, 2
label00001FFC:
00001FFC  486D 021A                pea.l      [A5 + 0x21A /* export_63, CODE:2 @ 00004D5A */]
00002000  486E FFFE                pea.l      [A6 - 0x2]
00002004  A991                     syscall    ModalDialog
00002006  0C6E 0001 FFFE           cmpi.w     [A6 - 0x2], 0x1
0000200C  66EE                     bne        -0x10 /* 00001FFC */
0000200E  2F0C                     move.l     -[A7], A4
00002010  A983                     syscall    DisposeDialog
00002012  285F                     movea.l    A4, [A7]+
00002014  4E5E                     unlink     A6
00002016  4E75                     rts
fn00002018:
00002018  2079 FFFF AEB4           movea.l    A0, [0xFFFFAEB4]
0000201E  4268 0302                clr.w      [A0 + 0x302]
00002022  4E75                     rts
fn00002024:
00002024  2F07                     move.l     -[A7], D7
00002026  2079 FFFF AEB4           movea.l    A0, [0xFFFFAEB4]
0000202C  3028 0300                move.w     D0, [A0 + 0x300]
00002030  5268 0300                addq.w     [A0 + 0x300], 1
00002034  2068 0232                movea.l    A0, [A0 + 0x232]
00002038  D0C0                     add.w      A0, D0
0000203A  3E30 0000                move.w     D7, [A0 + D0.w]
0000203E  2079 FFFF AEB4           movea.l    A0, [0xFFFFAEB4]
00002044  3028 0300                move.w     D0, [A0 + 0x300]
00002048  B068 0304                cmp.w      D0, [A0 + 0x304]
0000204C  6F10                     ble        +0x12 /* 0000205E */
0000204E  2F3C FFFF B26A           move.l     -[A7], 0xFFFFB26A
00002054  4EBA DFAA                jsr        [PC - 0x2056 /* 00000000 */]
00002058  588F                     addq.l     A7, 4
0000205A  6000 026C                bra        +0x26E /* 000022C8 */
label0000205E:
0000205E  0C47 4E20                cmpi.w     D7, 0x4E20 /* 'N ' */
00002062  6D0C                     blt        +0xE /* 00002070 */
00002064  0C47 4F4C                cmpi.w     D7, 0x4F4C /* 'OL' */
00002068  6D3E                     blt        +0x40 /* 000020A8 */
0000206A  0C47 4FB0                cmpi.w     D7, 0x4FB0
0000206E  6C38                     bge        +0x3A /* 000020A8 */
label00002070:
00002070  2079 FFFF AEB4           movea.l    A0, [0xFFFFAEB4]
00002076  0C68 0064 0302           cmpi.w     [A0 + 0x302], 0x64 /* 'd' */
0000207C  6C1A                     bge        +0x1C /* 00002098 */
0000207E  2079 FFFF AEB4           movea.l    A0, [0xFFFFAEB4]
00002084  3028 0302                move.w     D0, [A0 + 0x302]
00002088  5268 0302                addq.w     [A0 + 0x302], 1
0000208C  D0C0                     add.w      A0, D0
0000208E  D0C0                     add.w      A0, D0
00002090  3147 0236                move.w     [A0 + 0x236], D7
00002094  6000 0232                bra        +0x234 /* 000022C8 */
label00002098:
00002098  2F3C FFFF B27E           move.l     -[A7], 0xFFFFB27E
0000209E  4EBA DF60                jsr        [PC - 0x20A0 /* 00000000 */]
000020A2  588F                     addq.l     A7, 4
000020A4  6000 0222                bra        +0x224 /* 000022C8 */
label000020A8:
000020A8  3007                     move.w     D0, D7
000020AA  0440 4E20                subi.w     D0, 0x4E20 /* 'N ' */
000020AE  0C40 009F                cmpi.w     D0, 0x9F
000020B2  6200 0208                bhi        +0x20A /* 000022BC */
000020B6  43FA 0214                lea.l      A1, [PC + 0x214 /* 000022CC, value 0xFDF6FDFE */]
000020BA  D040                     add.w      D0, D0
000020BC  D2F1 0000                add.w      A1, [A1 + D0.w]
000020C0  4ED1                     jmp        [A1]
000020C2  4EBA E990                jsr        [PC - 0x1670 /* 00000A54 */]
000020C6  6000 0200                bra        +0x202 /* 000022C8 */
000020CA  4EBA EA04                jsr        [PC - 0x15FC /* 00000AD0 */]
000020CE  6000 01F8                bra        +0x1FA /* 000022C8 */
000020D2  4EBA EA78                jsr        [PC - 0x1588 /* 00000B4C */]
000020D6  6000 01F0                bra        +0x1F2 /* 000022C8 */
000020DA  4EBA EAEC                jsr        [PC - 0x1514 /* 00000BC8 */]
000020DE  6000 01E8                bra        +0x1EA /* 000022C8 */
000020E2  4EBA EB5A                jsr        [PC - 0x14A6 /* 00000C3E */]
000020E6  6000 01E0                bra        +0x1E2 /* 000022C8 */
000020EA  4EBA EBB4                jsr        [PC - 0x144C /* 00000CA0 */]
000020EE  6000 01D8                bra        +0x1DA /* 000022C8 */
000020F2  4EBA EC0E                jsr        [PC - 0x13F2 /* 00000D02 */]
000020F6  6000 01D0                bra        +0x1D2 /* 000022C8 */
000020FA  4EBA EC68                jsr        [PC - 0x1398 /* 00000D64 */]
000020FE  6000 01C8                bra        +0x1CA /* 000022C8 */
00002102  4EBA ECC2                jsr        [PC - 0x133E /* 00000DC6 */]
00002106  6000 01C0                bra        +0x1C2 /* 000022C8 */
0000210A  4EBA ED32                jsr        [PC - 0x12CE /* 00000E3E */]
0000210E  6000 01B8                bra        +0x1BA /* 000022C8 */
00002112  4EBA ED50                jsr        [PC - 0x12B0 /* 00000E64 */]
00002116  6000 01B0                bra        +0x1B2 /* 000022C8 */
0000211A  4EBA EDB0                jsr        [PC - 0x1250 /* 00000ECC */]
0000211E  6000 01A8                bra        +0x1AA /* 000022C8 */
00002122  4EBA EE52                jsr        [PC - 0x11AE /* 00000F76 */]
00002126  6000 01A0                bra        +0x1A2 /* 000022C8 */
0000212A  4EBA EEA8                jsr        [PC - 0x1158 /* 00000FD4 */]
0000212E  6000 0198                bra        +0x19A /* 000022C8 */
00002132  4EBA EF14                jsr        [PC - 0x10EC /* 00001048 */]
00002136  6000 0190                bra        +0x192 /* 000022C8 */
0000213A  4EBA EF5C                jsr        [PC - 0x10A4 /* 00001098 */]
0000213E  6000 0188                bra        +0x18A /* 000022C8 */
00002142  4EBA EFC0                jsr        [PC - 0x1040 /* 00001104 */]
00002146  6000 0180                bra        +0x182 /* 000022C8 */
0000214A  4EBA F054                jsr        [PC - 0xFAC /* 000011A0 */]
0000214E  6000 0178                bra        +0x17A /* 000022C8 */
00002152  2F3C FFFF B28E           move.l     -[A7], 0xFFFFB28E
00002158  4EBA DEA6                jsr        [PC - 0x215A /* 00000000 */]
0000215C  588F                     addq.l     A7, 4
0000215E  6000 0168                bra        +0x16A /* 000022C8 */
00002162  4EBA F0A0                jsr        [PC - 0xF60 /* 00001204 */]
00002166  6000 0160                bra        +0x162 /* 000022C8 */
0000216A  4EBA F0FE                jsr        [PC - 0xF02 /* 0000126A */]
0000216E  6000 0158                bra        +0x15A /* 000022C8 */
00002172  4EBA F15C                jsr        [PC - 0xEA4 /* 000012D0 */]
00002176  6000 0150                bra        +0x152 /* 000022C8 */
0000217A  4EBA F1EA                jsr        [PC - 0xE16 /* 00001366 */]
0000217E  6000 0148                bra        +0x14A /* 000022C8 */
00002182  4EBA F25A                jsr        [PC - 0xDA6 /* 000013DE */]
00002186  6000 0140                bra        +0x142 /* 000022C8 */
0000218A  4EBA F262                jsr        [PC - 0xD9E /* 000013EE */]
0000218E  6000 0138                bra        +0x13A /* 000022C8 */
00002192  4EBA F292                jsr        [PC - 0xD6E /* 00001426 */]
00002196  6000 0130                bra        +0x132 /* 000022C8 */
0000219A  4EBA F2D4                jsr        [PC - 0xD2C /* 00001470 */]
0000219E  6000 0128                bra        +0x12A /* 000022C8 */
000021A2  4EBA F3E4                jsr        [PC - 0xC1C /* 00001588 */]
000021A6  6000 0120                bra        +0x122 /* 000022C8 */
000021AA  4EBA F424                jsr        [PC - 0xBDC /* 000015D0 */]
000021AE  6000 0118                bra        +0x11A /* 000022C8 */
000021B2  4EBA F552                jsr        [PC - 0xAAE /* 00001706 */]
000021B6  6000 0110                bra        +0x112 /* 000022C8 */
000021BA  4EBA F63C                jsr        [PC - 0x9C4 /* 000017F8 */]
000021BE  6000 0108                bra        +0x10A /* 000022C8 */
000021C2  4EBA F7EE                jsr        [PC - 0x812 /* 000019B2 */]
000021C6  6000 0100                bra        +0x102 /* 000022C8 */
000021CA  4EBA F888                jsr        [PC - 0x778 /* 00001A54 */]
000021CE  6000 00F8                bra        +0xFA /* 000022C8 */
000021D2  4EBA F892                jsr        [PC - 0x76E /* 00001A66 */]
000021D6  6000 00F0                bra        +0xF2 /* 000022C8 */
000021DA  4EBA F89E                jsr        [PC - 0x762 /* 00001A7A */]
000021DE  6000 00E8                bra        +0xEA /* 000022C8 */
000021E2  4EBA F8AA                jsr        [PC - 0x756 /* 00001A8E */]
000021E6  6000 00E0                bra        +0xE2 /* 000022C8 */
000021EA  4EBA F8B6                jsr        [PC - 0x74A /* 00001AA2 */]
000021EE  6000 00D8                bra        +0xDA /* 000022C8 */
000021F2  4EBA F8C2                jsr        [PC - 0x73E /* 00001AB6 */]
000021F6  6000 00D0                bra        +0xD2 /* 000022C8 */
000021FA  4EBA F8CE                jsr        [PC - 0x732 /* 00001ACA */]
000021FE  6000 00C8                bra        +0xCA /* 000022C8 */
00002202  4EBA F8DA                jsr        [PC - 0x726 /* 00001ADE */]
00002206  6000 00C0                bra        +0xC2 /* 000022C8 */
0000220A  4EBA F8E6                jsr        [PC - 0x71A /* 00001AF2 */]
0000220E  6000 00B8                bra        +0xBA /* 000022C8 */
00002212  4EBA F8F2                jsr        [PC - 0x70E /* 00001B06 */]
00002216  6000 00B0                bra        +0xB2 /* 000022C8 */
0000221A  4EBA F8FE                jsr        [PC - 0x702 /* 00001B1A */]
0000221E  6000 00A8                bra        +0xAA /* 000022C8 */
00002222  4EBA F9E6                jsr        [PC - 0x61A /* 00001C0A */]
00002226  6000 00A0                bra        +0xA2 /* 000022C8 */
0000222A  4EBA F9EE                jsr        [PC - 0x612 /* 00001C1A */]
0000222E  6000 0098                bra        +0x9A /* 000022C8 */
00002232  4EBA FA46                jsr        [PC - 0x5BA /* 00001C7A */]
00002236  6000 0090                bra        +0x92 /* 000022C8 */
0000223A  4EBA FAAE                jsr        [PC - 0x552 /* 00001CEA */]
0000223E  6000 0088                bra        +0x8A /* 000022C8 */
00002242  4EBA FB84                jsr        [PC - 0x47C /* 00001DC8 */]
00002246  6000 0080                bra        +0x82 /* 000022C8 */
0000224A  4EBA FBD2                jsr        [PC - 0x42E /* 00001E1E */]
0000224E  6078                     bra        +0x7A /* 000022C8 */
00002250  4EBA FC3C                jsr        [PC - 0x3C4 /* 00001E8E */]
00002254  6072                     bra        +0x74 /* 000022C8 */
00002256  4EBA FC76                jsr        [PC - 0x38A /* 00001ECE */]
0000225A  606C                     bra        +0x6E /* 000022C8 */
0000225C  4EBA FC88                jsr        [PC - 0x378 /* 00001EE6 */]
00002260  6066                     bra        +0x68 /* 000022C8 */
00002262  4EBA FC9C                jsr        [PC - 0x364 /* 00001F00 */]
00002266  6060                     bra        +0x62 /* 000022C8 */
00002268  4EBA FCB0                jsr        [PC - 0x350 /* 00001F1A */]
0000226C  605A                     bra        +0x5C /* 000022C8 */
0000226E  4EBA FCC4                jsr        [PC - 0x33C /* 00001F34 */]
00002272  6054                     bra        +0x56 /* 000022C8 */
00002274  4EBA FCD8                jsr        [PC - 0x328 /* 00001F4E */]
00002278  604E                     bra        +0x50 /* 000022C8 */
0000227A  4EBA FCEC                jsr        [PC - 0x314 /* 00001F68 */]
0000227E  6048                     bra        +0x4A /* 000022C8 */
00002280  4EBA FD00                jsr        [PC - 0x300 /* 00001F82 */]
00002284  6042                     bra        +0x44 /* 000022C8 */
00002286  4EBA FD14                jsr        [PC - 0x2EC /* 00001F9C */]
0000228A  603C                     bra        +0x3E /* 000022C8 */
0000228C  4EBA FD28                jsr        [PC - 0x2D8 /* 00001FB6 */]
00002290  6036                     bra        +0x38 /* 000022C8 */
00002292  4EBA 1E96                jsr        [PC + 0x1E96 /* 0000412A */]
00002296  6030                     bra        +0x32 /* 000022C8 */
00002298  4EBA 1EAA                jsr        [PC + 0x1EAA /* 00004144 */]
0000229C  602A                     bra        +0x2C /* 000022C8 */
0000229E  4EBA 1EB0                jsr        [PC + 0x1EB0 /* 00004150 */]
000022A2  6024                     bra        +0x26 /* 000022C8 */
000022A4  4EBA 1F20                jsr        [PC + 0x1F20 /* 000041C6 */]
000022A8  601E                     bra        +0x20 /* 000022C8 */
000022AA  4EBA 20CA                jsr        [PC + 0x20CA /* 00004376 */]
000022AE  6018                     bra        +0x1A /* 000022C8 */
000022B0  4EBA FD1E                jsr        [PC - 0x2E2 /* 00001FD0 */]
000022B4  6012                     bra        +0x14 /* 000022C8 */
000022B6  4EBA FD60                jsr        [PC - 0x2A0 /* 00002018 */]
000022BA  600C                     bra        +0xE /* 000022C8 */
label000022BC:
000022BC  2F3C FFFF B2A2           move.l     -[A7], 0xFFFFB2A2
000022C2  4EBA DD3C                jsr        [PC - 0x22C4 /* 00000000 */]
000022C6  588F                     addq.l     A7, 4
label000022C8:
000022C8  2E1F                     move.l     D7, [A7]+
000022CA  4E75                     rts
000022CC  FDF6                     .invalid   <<F/7/6>>
000022CE  FDFE                     .invalid   <<F/7/6>>
000022D0  FE06 FE0E                .unknown   0xFE06 0xFE0E (W = 7)
000022D4  FE16 FE1E                .unknown   0xFE16 0xFE1E (W = 7)
000022D8  FE26 FE2E                .unknown   0xFE26 0xFE2E (W = 7)
000022DC  FFF0                     .invalid   <<F/7/7>>
000022DE  FFF0                     .invalid   <<F/7/7>>
000022E0  FFF0                     .invalid   <<F/7/7>>
000022E2  FFF0                     .invalid   <<F/7/7>>
000022E4  FFF0                     .invalid   <<F/7/7>>
000022E6  FFF0                     .invalid   <<F/7/7>>
000022E8  FFF0                     .invalid   <<F/7/7>>
000022EA  FFF0                     .invalid   <<F/7/7>>
000022EC  FFF0                     .invalid   <<F/7/7>>
000022EE  FFF0                     .invalid   <<F/7/7>>
000022F0  FFF0                     .invalid   <<F/7/7>>
000022F2  FFF0                     .invalid   <<F/7/7>>
000022F4  FFF0                     .invalid   <<F/7/7>>
000022F6  FFF0                     .invalid   <<F/7/7>>
000022F8  FFF0                     .invalid   <<F/7/7>>
000022FA  FFF0                     .invalid   <<F/7/7>>
000022FC  FFF0                     .invalid   <<F/7/7>>
000022FE  FFF0                     .invalid   <<F/7/7>>
00002300  FFF0                     .invalid   <<F/7/7>>
00002302  FFF0                     .invalid   <<F/7/7>>
00002304  FFF0                     .invalid   <<F/7/7>>
00002306  FFF0                     .invalid   <<F/7/7>>
00002308  FFF0                     .invalid   <<F/7/7>>
0000230A  FFF0                     .invalid   <<F/7/7>>
0000230C  FFF0                     .invalid   <<F/7/7>>
0000230E  FFF0                     .invalid   <<F/7/7>>
00002310  FFF0                     .invalid   <<F/7/7>>
00002312  FFF0                     .invalid   <<F/7/7>>
00002314  FFF0                     .invalid   <<F/7/7>>
00002316  FFF0                     .invalid   <<F/7/7>>
00002318  FFF0                     .invalid   <<F/7/7>>
0000231A  FFF0                     .invalid   <<F/7/7>>
0000231C  FFF0                     .invalid   <<F/7/7>>
0000231E  FFF0                     .invalid   <<F/7/7>>
00002320  FFF0                     .invalid   <<F/7/7>>
00002322  FFF0                     .invalid   <<F/7/7>>
00002324  FFF0                     .invalid   <<F/7/7>>
00002326  FFF0                     .invalid   <<F/7/7>>
00002328  FFF0                     .invalid   <<F/7/7>>
0000232A  FFF0                     .invalid   <<F/7/7>>
0000232C  FFF0                     .invalid   <<F/7/7>>
0000232E  FFF0                     .invalid   <<F/7/7>>
00002330  FFF0                     .invalid   <<F/7/7>>
00002332  FFF0                     .invalid   <<F/7/7>>
00002334  FFF0                     .invalid   <<F/7/7>>
00002336  FFF0                     .invalid   <<F/7/7>>
00002338  FFF0                     .invalid   <<F/7/7>>
0000233A  FFF0                     .invalid   <<F/7/7>>
0000233C  FFF0                     .invalid   <<F/7/7>>
0000233E  FFF0                     .invalid   <<F/7/7>>
00002340  FFF0                     .invalid   <<F/7/7>>
00002342  FFF0                     .invalid   <<F/7/7>>
00002344  FFF0                     .invalid   <<F/7/7>>
00002346  FFF0                     .invalid   <<F/7/7>>
00002348  FFF0                     .invalid   <<F/7/7>>
0000234A  FFF0                     .invalid   <<F/7/7>>
0000234C  FFF0                     .invalid   <<F/7/7>>
0000234E  FFF0                     .invalid   <<F/7/7>>
00002350  FFF0                     .invalid   <<F/7/7>>
00002352  FFF0                     .invalid   <<F/7/7>>
00002354  FFF0                     .invalid   <<F/7/7>>
00002356  FFF0                     .invalid   <<F/7/7>>
00002358  FFF0                     .invalid   <<F/7/7>>
0000235A  FFF0                     .invalid   <<F/7/7>>
0000235C  FFF0                     .invalid   <<F/7/7>>
0000235E  FFF0                     .invalid   <<F/7/7>>
00002360  FFF0                     .invalid   <<F/7/7>>
00002362  FFF0                     .invalid   <<F/7/7>>
00002364  FFF0                     .invalid   <<F/7/7>>
00002366  FFF0                     .invalid   <<F/7/7>>
00002368  FFF0                     .invalid   <<F/7/7>>
0000236A  FFF0                     .invalid   <<F/7/7>>
0000236C  FFF0                     .invalid   <<F/7/7>>
0000236E  FFF0                     .invalid   <<F/7/7>>
00002370  FFF0                     .invalid   <<F/7/7>>
00002372  FFF0                     .invalid   <<F/7/7>>
00002374  FFF0                     .invalid   <<F/7/7>>
00002376  FFF0                     .invalid   <<F/7/7>>
00002378  FFF0                     .invalid   <<F/7/7>>
0000237A  FFF0                     .invalid   <<F/7/7>>
0000237C  FFF0                     .invalid   <<F/7/7>>
0000237E  FFF0                     .invalid   <<F/7/7>>
00002380  FFF0                     .invalid   <<F/7/7>>
00002382  FFF0                     .invalid   <<F/7/7>>
00002384  FFF0                     .invalid   <<F/7/7>>
00002386  FFF0                     .invalid   <<F/7/7>>
00002388  FFF0                     .invalid   <<F/7/7>>
0000238A  FFF0                     .invalid   <<F/7/7>>
0000238C  FFF0                     .invalid   <<F/7/7>>
0000238E  FFF0                     .invalid   <<F/7/7>>
00002390  FFF0                     .invalid   <<F/7/7>>
00002392  FFF0                     .invalid   <<F/7/7>>
00002394  FE36 FE3E                .unknown   0xFE36 0xFE3E (W = 7)
00002398  FE46 FE4E                .extension 0xE46 <<F/1/7>>, 0xFE4E // unimplemented
0000239C  FE56 FE5E                .extension 0xE56 <<F/1/7>>, 0xFE5E // unimplemented
000023A0  FE66 FE6E                .extension 0xE66 <<F/1/7>>, 0xFE6E // unimplemented
000023A4  FE76 FE7E                .extension 0xE76 <<F/1/7>>, 0xFE7E // unimplemented
000023A8  FE86 FFFC                .extension 0xE86 <<F/2-3/7>> // unimplemented
000023AC  FE96 FE9E                .extension 0xE96 <<F/2-3/7>> // unimplemented
000023B0  FEA6 FEAE                .extension 0xEA6 <<F/2-3/7>> // unimplemented
000023B4  FEB6 FEBE                .extension 0xEB6 <<F/2-3/7>> // unimplemented
000023B8  FEC6 FECE                .extension 0xEC6 <<F/2-3/7>> // unimplemented
000023BC  FED6 FEDE                .extension 0xED6 <<F/2-3/7>> // unimplemented
000023C0  FEE6 FEEE                .extension 0xEE6 <<F/2-3/7>> // unimplemented
000023C4  FEF6 FEFE                .extension 0xEF6 <<F/2-3/7>> // unimplemented
000023C8  FF06                     .extension 0xF06 <<F/4-5/7>> // unimplemented
000023CA  FF0E                     .extension 0xF0E <<F/4-5/7>> // unimplemented
000023CC  FF16                     .extension 0xF16 <<F/4-5/7>> // unimplemented
000023CE  FF1E                     .extension 0xF1E <<F/4-5/7>> // unimplemented
000023D0  FF26                     .extension 0xF26 <<F/4-5/7>> // unimplemented
000023D2  FF2E                     .extension 0xF2E <<F/4-5/7>> // unimplemented
000023D4  FF36                     .extension 0xF36 <<F/4-5/7>> // unimplemented
000023D6  FF3E                     .extension 0xF3E <<F/4-5/7>> // unimplemented
000023D8  FF46                     .extension 0xF46 <<F/4-5/7>> // unimplemented
000023DA  FF4E                     .extension 0xF4E <<F/4-5/7>> // unimplemented
000023DC  FF56                     .extension 0xF56 <<F/4-5/7>> // unimplemented
000023DE  FF5E                     .extension 0xF5E <<F/4-5/7>> // unimplemented
000023E0  FF66                     .extension 0xF66 <<F/4-5/7>> // unimplemented
000023E2  FF6E                     .extension 0xF6E <<F/4-5/7>> // unimplemented
000023E4  FF76                     .extension 0xF76 <<F/4-5/7>> // unimplemented
000023E6  FF7E                     .extension 0xF7E <<F/4-5/7>> // unimplemented
000023E8  FF84                     .invalid   <<F/6/7>>
000023EA  FF8A                     .invalid   <<F/6/7>>
000023EC  FF90                     .invalid   <<F/6/7>>
000023EE  FF96                     .invalid   <<F/6/7>>
000023F0  FF9C                     .invalid   <<F/6/7>>
000023F2  FFA2                     .invalid   <<F/6/7>>
000023F4  FFA8                     .invalid   <<F/6/7>>
000023F6  FFAE                     .invalid   <<F/6/7>>
000023F8  FFB4                     .invalid   <<F/6/7>>
000023FA  FFBA                     .invalid   <<F/6/7>>
000023FC  FFC0                     .invalid   <<F/7/7>>
000023FE  FFC6                     .invalid   <<F/7/7>>
00002400  FFCC                     .invalid   <<F/7/7>>
00002402  FFD2                     .invalid   <<F/7/7>>
00002404  FFD8                     .invalid   <<F/7/7>>
00002406  FFDE                     .invalid   <<F/7/7>>
00002408  FFE4                     .invalid   <<F/7/7>>
0000240A  FFEA                     .invalid   <<F/7/7>>
fn0000240C:
0000240C  48E7 0718                movem.l    -[A7], D5,D6,D7,A3,A4
00002410  7E00                     moveq.l    D7, 0x00
00002412  287C FFFF 9442           movea.l    A4, 0xFFFF9442
00002418  6000 00E0                bra        +0xE2 /* 000024FA */
label0000241C:
0000241C  2079 FFFF AEB4           movea.l    A0, [0xFFFFAEB4]
00002422  BE50                     cmp.w      D7, [A0]
00002424  6700 00CE                beq        +0xD0 /* 000024F4 */
00002428  4A2C 0116                tst.b      [A4 + 0x116]
0000242C  6700 00C6                beq        +0xC8 /* 000024F4 */
00002430  2079 FFFF AEB4           movea.l    A0, [0xFFFFAEB4]
00002436  3C28 0030                move.w     D6, [A0 + 0x30]
0000243A  9C6C 0030                sub.w      D6, [A4 + 0x30]
0000243E  48C6                     ext.l      D6
00002440  3A28 0032                move.w     D5, [A0 + 0x32]
00002444  9A6C 0032                sub.w      D5, [A4 + 0x32]
00002448  48C5                     ext.l      D5
0000244A  2F06                     move.l     -[A7], D6
0000244C  4EAD 048A                jsr        [A5 + 0x48A /* export_141, CODE:7 @ 0000028C */]
00002450  0C40 0014                cmpi.w     D0, 0x14
00002454  588F                     addq.l     A7, 4
00002456  6C00 009C                bge        +0x9E /* 000024F4 */
0000245A  2F05                     move.l     -[A7], D5
0000245C  4EAD 048A                jsr        [A5 + 0x48A /* export_141, CODE:7 @ 0000028C */]
00002460  0C40 0014                cmpi.w     D0, 0x14
00002464  588F                     addq.l     A7, 4
00002466  6C00 008C                bge        +0x8E /* 000024F4 */
0000246A  2F06                     move.l     -[A7], D6
0000246C  2F06                     move.l     -[A7], D6
0000246E  4EAD 0042                jsr        [A5 + 0x42 /* export_4, CODE:1 @ 000002E8 */]
00002472  2F05                     move.l     -[A7], D5
00002474  2F05                     move.l     -[A7], D5
00002476  2200                     move.l     D1, D0
00002478  4EAD 0042                jsr        [A5 + 0x42 /* export_4, CODE:1 @ 000002E8 */]
0000247C  C141                     exg        D0, D1
0000247E  D081                     add.l      D0, D1
00002480  0C80 0000 0190           cmpi.l     D0, 0x190
00002486  6C6C                     bge        +0x6E /* 000024F4 */
00002488  2079 FFFF AEB4           movea.l    A0, [0xFFFFAEB4]
0000248E  4A68 00FE                tst.w      [A0 + 0xFE]
00002492  6F28                     ble        +0x2A /* 000024BC */
00002494  2079 FFFF AEB4           movea.l    A0, [0xFFFFAEB4]
0000249A  4A68 0378                tst.w      [A0 + 0x378]
0000249E  661C                     bne        +0x1E /* 000024BC */
000024A0  2079 FFFF AEB4           movea.l    A0, [0xFFFFAEB4]
000024A6  3028 0104                move.w     D0, [A0 + 0x104]
000024AA  9168 0030                sub.w      [A0 + 0x30], D0
000024AE  2079 FFFF AEB4           movea.l    A0, [0xFFFFAEB4]
000024B4  3028 0106                move.w     D0, [A0 + 0x106]
000024B8  9168 0032                sub.w      [A0 + 0x32], D0
label000024BC:
000024BC  2079 FFFF AEB4           movea.l    A0, [0xFFFFAEB4]
000024C2  317C 0001 0110           move.w     [A0 + 0x110], 0x1
000024C8  397C 0001 0110           move.w     [A4 + 0x110], 0x1
000024CE  2079 FFFF AEB4           movea.l    A0, [0xFFFFAEB4]
000024D4  3C28 034C                move.w     D6, [A0 + 0x34C]
000024D8  4A46                     tst.w      D6
000024DA  6718                     beq        +0x1A /* 000024F4 */
000024DC  BC6C 034C                cmp.w      D6, [A4 + 0x34C]
000024E0  6612                     bne        +0x14 /* 000024F4 */
000024E2  2079 FFFF AEB4           movea.l    A0, [0xFFFFAEB4]
000024E8  317C 0001 0114           move.w     [A0 + 0x114], 0x1
000024EE  397C 0001 0114           move.w     [A4 + 0x114], 0x1
label000024F4:
000024F4  5247                     addq.w     D7, 1
000024F6  49EC 03C2                lea.l      A4, [A4 + 0x3C2]
label000024FA:
000024FA  BE79 FFFF 9226           cmp.w      D7, [0xFFFF9226]
00002500  6D00 FF1A                blt        -0xE4 /* 0000241C */
00002504  7030                     moveq.l    D0, 0x30
00002506  D0B9 FFFF AEB4           add.l      D0, [0xFFFFAEB4]
0000250C  2640                     movea.l    A3, D0
0000250E  3E13                     move.w     D7, [A3]
00002510  0C47 000A                cmpi.w     D7, 0xA /* '\n' */
00002514  6D06                     blt        +0x8 /* 0000251C */
00002516  0C47 0122                cmpi.w     D7, 0x122
0000251A  6F1C                     ble        +0x1E /* 00002538 */
label0000251C:
0000251C  2079 FFFF AEB4           movea.l    A0, [0xFFFFAEB4]
00002522  317C 0001 0112           move.w     [A0 + 0x112], 0x1
00002528  4A53                     tst.w      [A3]
0000252A  6C02                     bge        +0x4 /* 0000252E */
0000252C  4253                     clr.w      [A3]
label0000252E:
0000252E  0C53 012C                cmpi.w     [A3], 0x12C
00002532  6F04                     ble        +0x6 /* 00002538 */
00002534  36BC 012C                move.w     [A3], 0x12C
label00002538:
00002538  7032                     moveq.l    D0, 0x32
0000253A  D0B9 FFFF AEB4           add.l      D0, [0xFFFFAEB4]
00002540  2640                     movea.l    A3, D0
00002542  3E13                     move.w     D7, [A3]
00002544  0C47 000A                cmpi.w     D7, 0xA /* '\n' */
00002548  6D06                     blt        +0x8 /* 00002550 */
0000254A  0C47 0122                cmpi.w     D7, 0x122
0000254E  6F1C                     ble        +0x1E /* 0000256C */
label00002550:
00002550  2079 FFFF AEB4           movea.l    A0, [0xFFFFAEB4]
00002556  317C 0001 0112           move.w     [A0 + 0x112], 0x1
0000255C  4A53                     tst.w      [A3]
0000255E  6C02                     bge        +0x4 /* 00002562 */
00002560  4253                     clr.w      [A3]
label00002562:
00002562  0C53 012C                cmpi.w     [A3], 0x12C
00002566  6F04                     ble        +0x6 /* 0000256C */
00002568  36BC 012C                move.w     [A3], 0x12C
label0000256C:
0000256C  4CDF 18E0                movem.l    D5,D6,D7,A3,A4, [A7]+
00002570  4E75                     rts
fn00002572:
00002572  2079 FFFF AEB4           movea.l    A0, [0xFFFFAEB4]
00002578  4A68 0110                tst.w      [A0 + 0x110]
0000257C  673E                     beq        +0x40 /* 000025BC */
0000257E  2079 FFFF AEB4           movea.l    A0, [0xFFFFAEB4]
00002584  3F28 0110                move.w     -[A7], [A0 + 0x110]
00002588  2F08                     move.l     -[A7], A0
0000258A  4EBA DB88                jsr        [PC - 0x2478 /* 00000114 */]
0000258E  2079 FFFF AEB4           movea.l    A0, [0xFFFFAEB4]
00002594  4AA8 0354                tst.l      [A0 + 0x354]
00002598  5C8F                     addq.l     A7, 6
0000259A  6714                     beq        +0x16 /* 000025B0 */
0000259C  2079 FFFF AEB4           movea.l    A0, [0xFFFFAEB4]
000025A2  3F10                     move.w     -[A7], [A0]
000025A4  3F3C 0001                move.w     -[A7], 0x1
000025A8  4EAD 0282                jsr        [A5 + 0x282 /* export_76, CODE:2 @ 0000573A */]
000025AC  588F                     addq.l     A7, 4
000025AE  600C                     bra        +0xE /* 000025BC */
label000025B0:
000025B0  2F3C 03F0 0006           move.l     -[A7], 0x3F00006
000025B6  4EAD 0282                jsr        [A5 + 0x282 /* export_76, CODE:2 @ 0000573A */]
000025BA  588F                     addq.l     A7, 4
label000025BC:
000025BC  2079 FFFF AEB4           movea.l    A0, [0xFFFFAEB4]
000025C2  4A68 0112                tst.w      [A0 + 0x112]
000025C6  673C                     beq        +0x3E /* 00002604 */
000025C8  3F3C 0005                move.w     -[A7], 0x5
000025CC  2F39 FFFF AEB4           move.l     -[A7], [0xFFFFAEB4]
000025D2  4EBA DB40                jsr        [PC - 0x24C0 /* 00000114 */]
000025D6  2079 FFFF AEB4           movea.l    A0, [0xFFFFAEB4]
000025DC  4AA8 0354                tst.l      [A0 + 0x354]
000025E0  5C8F                     addq.l     A7, 6
000025E2  6714                     beq        +0x16 /* 000025F8 */
000025E4  2079 FFFF AEB4           movea.l    A0, [0xFFFFAEB4]
000025EA  3F10                     move.w     -[A7], [A0]
000025EC  3F3C 0001                move.w     -[A7], 0x1
000025F0  4EAD 0282                jsr        [A5 + 0x282 /* export_76, CODE:2 @ 0000573A */]
000025F4  588F                     addq.l     A7, 4
000025F6  600C                     bra        +0xE /* 00002604 */
label000025F8:
000025F8  2F3C 03F0 0006           move.l     -[A7], 0x3F00006
000025FE  4EAD 0282                jsr        [A5 + 0x282 /* export_76, CODE:2 @ 0000573A */]
00002602  588F                     addq.l     A7, 4
label00002604:
00002604  4E75                     rts
fn00002606:
00002606  48E7 0F18                movem.l    -[A7], D4,D5,D6,D7,A3,A4
0000260A  2079 FFFF AEB4           movea.l    A0, [0xFFFFAEB4]
00002610  4A68 0108                tst.w      [A0 + 0x108]
00002614  6E00 0154                bgt        +0x156 /* 0000276A */
00002618  2079 FFFF AEB4           movea.l    A0, [0xFFFFAEB4]
0000261E  70FF                     moveq.l    D0, 0xFFFFFFFF
00002620  B0A8 0118                cmp.l      D0, [A0 + 0x118]
00002624  6600 0144                bne        +0x146 /* 0000276A */
00002628  2079 FFFF AEB4           movea.l    A0, [0xFFFFAEB4]
0000262E  4268 0100                clr.w      [A0 + 0x100]
00002632  2079 FFFF AEB4           movea.l    A0, [0xFFFFAEB4]
00002638  4228 0116                clr.b      [A0 + 0x116]
0000263C  2079 FFFF AEB4           movea.l    A0, [0xFFFFAEB4]
00002642  2179 FFFF B7C6 0118      move.l     [A0 + 0x118], [0xFFFFB7C6]
0000264A  2079 FFFF AEB4           movea.l    A0, [0xFFFFAEB4]
00002650  317C 0001 0102           move.w     [A0 + 0x102], 0x1
00002656  7030                     moveq.l    D0, 0x30
00002658  D0B9 FFFF AEB4           add.l      D0, [0xFFFFAEB4]
0000265E  2840                     movea.l    A4, D0
00002660  2079 FFFF AEB4           movea.l    A0, [0xFFFFAEB4]
00002666  3154 0104                move.w     [A0 + 0x104], [A4]
0000266A  7032                     moveq.l    D0, 0x32
0000266C  D0B9 FFFF AEB4           add.l      D0, [0xFFFFAEB4]
00002672  2640                     movea.l    A3, D0
00002674  2079 FFFF AEB4           movea.l    A0, [0xFFFFAEB4]
0000267A  3153 0106                move.w     [A0 + 0x106], [A3]
0000267E  38BC 1388                move.w     [A4], 0x1388
00002682  36BC 1388                move.w     [A3], 0x1388
00002686  5379 FFFF B7C4           subq.w     [0xFFFFB7C4], 1
0000268C  2879 FFFF AACE           movea.l    A4, [0xFFFFAACE]
00002692  603A                     bra        +0x3C /* 000026CE */
label00002694:
00002694  2079 FFFF AEB4           movea.l    A0, [0xFFFFAEB4]
0000269A  4850                     pea.l      [A0]
0000269C  486C 002A                pea.l      [A4 + 0x2A]
000026A0  3F3C 2008                move.w     -[A7], 0x2008
000026A4  A9EB                     syscall    Pack4/FP68K
000026A6  6622                     bne        +0x24 /* 000026CA */
000026A8  0C2C 0009 0034           cmpi.b     [A4 + 0x34], 0x9 /* '\t' */
000026AE  661A                     bne        +0x1C /* 000026CA */
000026B0  42AC 0024                clr.l      [A4 + 0x24]
000026B4  297C 8000 0000 0020      move.l     [A4 + 0x20], 0x80000000
000026BC  297C BFFF BFFF 001C      move.l     [A4 + 0x1C], 0xBFFFBFFF
000026C4  197C 0004 0034           move.b     [A4 + 0x34], 0x4
label000026CA:
000026CA  286C 0038                movea.l    A4, [A4 + 0x38]
label000026CE:
000026CE  200C                     move.l     D0, A4
000026D0  66C2                     bne        -0x3C /* 00002694 */
000026D2  2079 FFFF AEB4           movea.l    A0, [0xFFFFAEB4]
000026D8  4AA8 0350                tst.l      [A0 + 0x350]
000026DC  6712                     beq        +0x14 /* 000026F0 */
000026DE  2079 FFFF AEB4           movea.l    A0, [0xFFFFAEB4]
000026E4  3F10                     move.w     -[A7], [A0]
000026E6  4267                     clr.w      -[A7]
000026E8  4EAD 0282                jsr        [A5 + 0x282 /* export_76, CODE:2 @ 0000573A */]
000026EC  588F                     addq.l     A7, 4
000026EE  600C                     bra        +0xE /* 000026FC */
label000026F0:
000026F0  2F3C 03EF 0006           move.l     -[A7], 0x3EF0006
000026F6  4EAD 0282                jsr        [A5 + 0x282 /* export_76, CODE:2 @ 0000573A */]
000026FA  588F                     addq.l     A7, 4
label000026FC:
000026FC  7E00                     moveq.l    D7, 0x00
000026FE  287C FFFF 9442           movea.l    A4, 0xFFFF9442
00002704  6006                     bra        +0x8 /* 0000270C */
label00002706:
00002706  5247                     addq.w     D7, 1
00002708  49EC 03C2                lea.l      A4, [A4 + 0x3C2]
label0000270C:
0000270C  4A2C 0116                tst.b      [A4 + 0x116]
00002710  67F4                     beq        -0xA /* 00002706 */
00002712  3007                     move.w     D0, D7
00002714  5247                     addq.w     D7, 1
00002716  C1FC 03C2                muls.w     D0, 0x3C2
0000271A  2040                     movea.l    A0, D0
0000271C  D1FC FFFF 978E           add.l      A0, 0xFFFF978E
00002722  3C10                     move.w     D6, [A0]
00002724  3A06                     move.w     D5, D6
00002726  3807                     move.w     D4, D7
00002728  303C 03C2                move.w     D0, 0x3C2
0000272C  C1C4                     muls.w     D0, D4
0000272E  0680 FFFF 9442           addi.l     D0, 0xFFFF9442
00002734  2840                     movea.l    A4, D0
00002736  6014                     bra        +0x16 /* 0000274C */
label00002738:
00002738  BC6C 034C                cmp.w      D6, [A4 + 0x34C]
0000273C  6708                     beq        +0xA /* 00002746 */
0000273E  4A2C 0116                tst.b      [A4 + 0x116]
00002742  6702                     beq        +0x4 /* 00002746 */
00002744  7A00                     moveq.l    D5, 0x00
label00002746:
00002746  5244                     addq.w     D4, 1
00002748  49EC 03C2                lea.l      A4, [A4 + 0x3C2]
label0000274C:
0000274C  B879 FFFF 9226           cmp.w      D4, [0xFFFF9226]
00002752  6DE4                     blt        -0x1A /* 00002738 */
00002754  4A45                     tst.w      D5
00002756  660A                     bne        +0xC /* 00002762 */
00002758  0C79 0001 FFFF B7C4      cmpi.w     [0xFFFFB7C4], 0x1
00002760  6E08                     bgt        +0xA /* 0000276A */
label00002762:
00002762  33FC 0014 FFFF AEB8      move.w     [0xFFFFAEB8], 0x14
label0000276A:
0000276A  4CDF 18F0                movem.l    D4,D5,D6,D7,A3,A4, [A7]+
0000276E  4E75                     rts
export_36:
00002770  4E56 FFF2                link       A6, -0x000E
00002774  48E7 0F38                movem.l    -[A7], D4,D5,D6,D7,A2,A3,A4
00002778  266E 0008                movea.l    A3, [A6 + 0x8]
0000277C  7800                     moveq.l    D4, 0x00
0000277E  7E00                     moveq.l    D7, 0x00
00002780  287C FFFF 9442           movea.l    A4, 0xFFFF9442
00002786  45EB 0018                lea.l      A2, [A3 + 0x18]
0000278A  6000 00F8                bra        +0xFA /* 00002884 */
label0000278E:
0000278E  3C12                     move.w     D6, [A2]
00002790  9C6C 0030                sub.w      D6, [A4 + 0x30]
00002794  48C6                     ext.l      D6
00002796  2F06                     move.l     -[A7], D6
00002798  4EAD 048A                jsr        [A5 + 0x48A /* export_141, CODE:7 @ 0000028C */]
0000279C  0C40 000A                cmpi.w     D0, 0xA /* '\n' */
000027A0  588F                     addq.l     A7, 4
000027A2  6C00 00DA                bge        +0xDC /* 0000287E */
000027A6  3A2B 001A                move.w     D5, [A3 + 0x1A]
000027AA  9A6C 0032                sub.w      D5, [A4 + 0x32]
000027AE  48C5                     ext.l      D5
000027B0  2F05                     move.l     -[A7], D5
000027B2  4EAD 048A                jsr        [A5 + 0x48A /* export_141, CODE:7 @ 0000028C */]
000027B6  0C40 000A                cmpi.w     D0, 0xA /* '\n' */
000027BA  588F                     addq.l     A7, 4
000027BC  6C00 00C0                bge        +0xC2 /* 0000287E */
000027C0  2F06                     move.l     -[A7], D6
000027C2  2F06                     move.l     -[A7], D6
000027C4  4EAD 0042                jsr        [A5 + 0x42 /* export_4, CODE:1 @ 000002E8 */]
000027C8  2F05                     move.l     -[A7], D5
000027CA  2F05                     move.l     -[A7], D5
000027CC  2200                     move.l     D1, D0
000027CE  4EAD 0042                jsr        [A5 + 0x42 /* export_4, CODE:1 @ 000002E8 */]
000027D2  C141                     exg        D0, D1
000027D4  D081                     add.l      D0, D1
000027D6  7264                     moveq.l    D1, 0x64
000027D8  B280                     cmp.l      D1, D0
000027DA  6F00 00A2                ble        +0xA4 /* 0000287E */
000027DE  7801                     moveq.l    D4, 0x01
000027E0  1C2B 0034                move.b     D6, [A3 + 0x34]
000027E4  0C06 0002                cmpi.b     D6, 0x2
000027E8  6610                     bne        +0x12 /* 000027FA */
000027EA  7000                     moveq.l    D0, 0x00
000027EC  102B 0036                move.b     D0, [A3 + 0x36]
000027F0  81FC 0002                divs.w     D0, 0x2
000027F4  D12B 0036                add.b      [A3 + 0x36], D0
000027F8  6060                     bra        +0x62 /* 0000285A */
label000027FA:
000027FA  0C06 0001                cmpi.b     D6, 0x1
000027FE  6636                     bne        +0x38 /* 00002836 */
00002800  102B 0035                move.b     D0, [A3 + 0x35]
00002804  6754                     beq        +0x56 /* 0000285A */
00002806  6B52                     bmi        +0x54 /* 0000285A */
00002808  5700                     subq.b     D0, 3
0000280A  6716                     beq        +0x18 /* 00002822 */
0000280C  6A4C                     bpl        +0x4E /* 0000285A */
0000280E  5200                     addq.b     D0, 1
00002810  6A48                     bpl        +0x4A /* 0000285A */
00002812  7000                     moveq.l    D0, 0x00
00002814  102B 0036                move.b     D0, [A3 + 0x36]
00002818  81FC 0002                divs.w     D0, 0x2
0000281C  1740 0036                move.b     [A3 + 0x36], D0
00002820  6038                     bra        +0x3A /* 0000285A */
label00002822:
00002822  177C 0005 0034           move.b     [A3 + 0x34], 0x5
00002828  42AB 0024                clr.l      [A3 + 0x24]
0000282C  42AB 0020                clr.l      [A3 + 0x20]
00002830  42AB 001C                clr.l      [A3 + 0x1C]
00002834  6024                     bra        +0x26 /* 0000285A */
label00002836:
00002836  0C06 0007                cmpi.b     D6, 0x7
0000283A  660A                     bne        +0xC /* 00002846 */
0000283C  102B 0036                move.b     D0, [A3 + 0x36]
00002840  D12B 0036                add.b      [A3 + 0x36], D0
00002844  6014                     bra        +0x16 /* 0000285A */
label00002846:
00002846  0C06 0009                cmpi.b     D6, 0x9 /* '\t' */
0000284A  660E                     bne        +0x10 /* 0000285A */
0000284C  7000                     moveq.l    D0, 0x00
0000284E  102B 0036                move.b     D0, [A3 + 0x36]
00002852  81FC 0002                divs.w     D0, 0x2
00002856  1740 0036                move.b     [A3 + 0x36], D0
label0000285A:
0000285A  41EB 001E                lea.l      A0, [A3 + 0x1E]
0000285E  3D47 FFFE                move.w     [A6 - 0x2], D7
00002862  486E FFFE                pea.l      [A6 - 0x2]
00002866  4850                     pea.l      [A0]
00002868  3F3C 200E                move.w     -[A7], 0x200E
0000286C  A9EB                     syscall    Pack4/FP68K
0000286E  3110                     move.w     -[A0], [A0]
00002870  0C2B 0005 0034           cmpi.b     [A3 + 0x34], 0x5
00002876  6706                     beq        +0x8 /* 0000287E */
00002878  177C 0004 0034           move.b     [A3 + 0x34], 0x4
label0000287E:
0000287E  5247                     addq.w     D7, 1
00002880  49EC 03C2                lea.l      A4, [A4 + 0x3C2]
label00002884:
00002884  BE79 FFFF 9226           cmp.w      D7, [0xFFFF9226]
0000288A  6C06                     bge        +0x8 /* 00002892 */
0000288C  4A44                     tst.w      D4
0000288E  6700 FEFE                beq        -0x100 /* 0000278E */
label00002892:
00002892  4A44                     tst.w      D4
00002894  6600 00EC                bne        +0xEE /* 00002982 */
00002898  0C2B 0002 0034           cmpi.b     [A3 + 0x34], 0x2
0000289E  6712                     beq        +0x14 /* 000028B2 */
000028A0  0C2B 0001 0034           cmpi.b     [A3 + 0x34], 0x1
000028A6  670A                     beq        +0xC /* 000028B2 */
000028A8  0C2B 0006 0034           cmpi.b     [A3 + 0x34], 0x6
000028AE  6600 00D2                bne        +0xD4 /* 00002982 */
label000028B2:
000028B2  2879 FFFF AACE           movea.l    A4, [0xFFFFAACE]
000028B8  6000 00C2                bra        +0xC4 /* 0000297C */
label000028BC:
000028BC  0C2C 0009 0034           cmpi.b     [A4 + 0x34], 0x9 /* '\t' */
000028C2  6600 00B4                bne        +0xB6 /* 00002978 */
000028C6  B7CC                     cmpa.l     A3, A4
000028C8  6700 00AE                beq        +0xB0 /* 00002978 */
000028CC  3012                     move.w     D0, [A2]
000028CE  906C 0018                sub.w      D0, [A4 + 0x18]
000028D2  4FEF FFF6                lea.l      A7, [A7 - 0xA]
000028D6  3D40 FFF2                move.w     [A6 - 0xE], D0
000028DA  486E FFF2                pea.l      [A6 - 0xE]
000028DE  486F 0004                pea.l      [A7 + 0x4]
000028E2  3F3C 200E                move.w     -[A7], 0x200E
000028E6  A9EB                     syscall    Pack4/FP68K
000028E8  3F17                     move.w     -[A7], [A7]
000028EA  486E FFF4                pea.l      [A6 - 0xC]
000028EE  4EAD 037A                jsr        [A5 + 0x37A /* export_107, CODE:7 @ 00003CA2 */]
000028F2  487A 009A                pea.l      [PC + 0x9A /* 0000298E, value 0x54E56, cstring "" */]
000028F6  486E FFF6                pea.l      [A6 - 0xA]
000028FA  3F3C 2008                move.w     -[A7], 0x2008
000028FE  A9EB                     syscall    Pack4/FP68K
00002900  4FEF 0010                lea.l      A7, [A7 + 0x10]
00002904  6C72                     bge        +0x74 /* 00002978 */
00002906  302B 001A                move.w     D0, [A3 + 0x1A]
0000290A  906C 001A                sub.w      D0, [A4 + 0x1A]
0000290E  4FEF FFF6                lea.l      A7, [A7 - 0xA]
00002912  3D40 FFF2                move.w     [A6 - 0xE], D0
00002916  486E FFF2                pea.l      [A6 - 0xE]
0000291A  486F 0004                pea.l      [A7 + 0x4]
0000291E  3F3C 200E                move.w     -[A7], 0x200E
00002922  A9EB                     syscall    Pack4/FP68K
00002924  3F17                     move.w     -[A7], [A7]
00002926  486E FFF4                pea.l      [A6 - 0xC]
0000292A  4EAD 037A                jsr        [A5 + 0x37A /* export_107, CODE:7 @ 00003CA2 */]
0000292E  487A 005C                pea.l      [PC + 0x5C /* 0000298C, value 0x50005, cstring "" */]
00002932  486E FFF6                pea.l      [A6 - 0xA]
00002936  3F3C 2008                move.w     -[A7], 0x2008
0000293A  A9EB                     syscall    Pack4/FP68K
0000293C  4FEF 0010                lea.l      A7, [A7 + 0x10]
00002940  6C36                     bge        +0x38 /* 00002978 */
00002942  177C 0004 0034           move.b     [A3 + 0x34], 0x4
00002948  42AB 0024                clr.l      [A3 + 0x24]
0000294C  277C 8000 0000 0020      move.l     [A3 + 0x20], 0x80000000
00002954  277C BFFF BFFF 001C      move.l     [A3 + 0x1C], 0xBFFFBFFF
0000295C  197C 0004 0034           move.b     [A4 + 0x34], 0x4
00002962  42AC 0024                clr.l      [A4 + 0x24]
00002966  297C 8000 0000 0020      move.l     [A4 + 0x20], 0x80000000
0000296E  297C BFFF BFFF 001C      move.l     [A4 + 0x1C], 0xBFFFBFFF
00002976  7801                     moveq.l    D4, 0x01
label00002978:
00002978  286C 0038                movea.l    A4, [A4 + 0x38]
label0000297C:
0000297C  200C                     move.l     D0, A4
0000297E  6600 FF3C                bne        -0xC2 /* 000028BC */
label00002982:
00002982  3004                     move.w     D0, D4
00002984  4CDF 1CF0                movem.l    D4,D5,D6,D7,A2,A3,A4, [A7]+
00002988  4E5E                     unlink     A6
0000298A  4E75                     rts
0000298C  0005 0005                ori.b      D5, 0x5
export_37:
00002990  4E56 FFF4                link       A6, -0x000C
00002994  48E7 0F38                movem.l    -[A7], D4,D5,D6,D7,A2,A3,A4
00002998  266E 0008                movea.l    A3, [A6 + 0x8]
0000299C  7800                     moveq.l    D4, 0x00
0000299E  7E00                     moveq.l    D7, 0x00
000029A0  287C FFFF 9442           movea.l    A4, 0xFFFF9442
000029A6  45EB 0018                lea.l      A2, [A3 + 0x18]
000029AA  6000 00F0                bra        +0xF2 /* 00002A9C */
label000029AE:
000029AE  3C12                     move.w     D6, [A2]
000029B0  9C6C 0030                sub.w      D6, [A4 + 0x30]
000029B4  48C6                     ext.l      D6
000029B6  2F06                     move.l     -[A7], D6
000029B8  4EAD 048A                jsr        [A5 + 0x48A /* export_141, CODE:7 @ 0000028C */]
000029BC  0C40 000A                cmpi.w     D0, 0xA /* '\n' */
000029C0  588F                     addq.l     A7, 4
000029C2  6C00 00D2                bge        +0xD4 /* 00002A96 */
000029C6  3A2B 001A                move.w     D5, [A3 + 0x1A]
000029CA  9A6C 0032                sub.w      D5, [A4 + 0x32]
000029CE  48C5                     ext.l      D5
000029D0  2F05                     move.l     -[A7], D5
000029D2  4EAD 048A                jsr        [A5 + 0x48A /* export_141, CODE:7 @ 0000028C */]
000029D6  0C40 000A                cmpi.w     D0, 0xA /* '\n' */
000029DA  588F                     addq.l     A7, 4
000029DC  6C00 00B8                bge        +0xBA /* 00002A96 */
000029E0  2F06                     move.l     -[A7], D6
000029E2  2F06                     move.l     -[A7], D6
000029E4  4EAD 0042                jsr        [A5 + 0x42 /* export_4, CODE:1 @ 000002E8 */]
000029E8  2F05                     move.l     -[A7], D5
000029EA  2F05                     move.l     -[A7], D5
000029EC  2200                     move.l     D1, D0
000029EE  4EAD 0042                jsr        [A5 + 0x42 /* export_4, CODE:1 @ 000002E8 */]
000029F2  C141                     exg        D0, D1
000029F4  D081                     add.l      D0, D1
000029F6  7264                     moveq.l    D1, 0x64
000029F8  B280                     cmp.l      D1, D0
000029FA  6F00 009A                ble        +0x9C /* 00002A96 */
000029FE  7801                     moveq.l    D4, 0x01
00002A00  1C2B 0034                move.b     D6, [A3 + 0x34]
00002A04  0C06 0002                cmpi.b     D6, 0x2
00002A08  6610                     bne        +0x12 /* 00002A1A */
00002A0A  7000                     moveq.l    D0, 0x00
00002A0C  102B 0036                move.b     D0, [A3 + 0x36]
00002A10  81FC 0002                divs.w     D0, 0x2
00002A14  D12B 0036                add.b      [A3 + 0x36], D0
00002A18  6060                     bra        +0x62 /* 00002A7A */
label00002A1A:
00002A1A  0C06 0001                cmpi.b     D6, 0x1
00002A1E  6636                     bne        +0x38 /* 00002A56 */
00002A20  102B 0035                move.b     D0, [A3 + 0x35]
00002A24  6754                     beq        +0x56 /* 00002A7A */
00002A26  6B52                     bmi        +0x54 /* 00002A7A */
00002A28  5700                     subq.b     D0, 3
00002A2A  6716                     beq        +0x18 /* 00002A42 */
00002A2C  6A4C                     bpl        +0x4E /* 00002A7A */
00002A2E  5200                     addq.b     D0, 1
00002A30  6A48                     bpl        +0x4A /* 00002A7A */
00002A32  7000                     moveq.l    D0, 0x00
00002A34  102B 0036                move.b     D0, [A3 + 0x36]
00002A38  81FC 0002                divs.w     D0, 0x2
00002A3C  1740 0036                move.b     [A3 + 0x36], D0
00002A40  6038                     bra        +0x3A /* 00002A7A */
label00002A42:
00002A42  177C 0005 0034           move.b     [A3 + 0x34], 0x5
00002A48  42AB 0024                clr.l      [A3 + 0x24]
00002A4C  42AB 0020                clr.l      [A3 + 0x20]
00002A50  42AB 001C                clr.l      [A3 + 0x1C]
00002A54  6024                     bra        +0x26 /* 00002A7A */
label00002A56:
00002A56  0C06 0007                cmpi.b     D6, 0x7
00002A5A  660A                     bne        +0xC /* 00002A66 */
00002A5C  102B 0036                move.b     D0, [A3 + 0x36]
00002A60  D12B 0036                add.b      [A3 + 0x36], D0
00002A64  6014                     bra        +0x16 /* 00002A7A */
label00002A66:
00002A66  0C06 0009                cmpi.b     D6, 0x9 /* '\t' */
00002A6A  660E                     bne        +0x10 /* 00002A7A */
00002A6C  7000                     moveq.l    D0, 0x00
00002A6E  102B 0036                move.b     D0, [A3 + 0x36]
00002A72  81FC 0002                divs.w     D0, 0x2
00002A76  1740 0036                move.b     [A3 + 0x36], D0
label00002A7A:
00002A7A  41EB 001C                lea.l      A0, [A3 + 0x1C]
00002A7E  F207 5000                fmove      fp0, (int16_t) D7
00002A82  F210 6800                fmove      (extended) [A0], fp0
00002A86  3098                     move.w     [A0], [A0]+
00002A88  0C2B 0005 0034           cmpi.b     [A3 + 0x34], 0x5
00002A8E  6706                     beq        +0x8 /* 00002A96 */
00002A90  177C 0004 0034           move.b     [A3 + 0x34], 0x4
label00002A96:
00002A96  5247                     addq.w     D7, 1
00002A98  49EC 03C2                lea.l      A4, [A4 + 0x3C2]
label00002A9C:
00002A9C  BE79 FFFF 9226           cmp.w      D7, [0xFFFF9226]
00002AA2  6C06                     bge        +0x8 /* 00002AAA */
00002AA4  4A44                     tst.w      D4
00002AA6  6700 FF06                beq        -0xF8 /* 000029AE */
label00002AAA:
00002AAA  4A44                     tst.w      D4
00002AAC  6600 00D4                bne        +0xD6 /* 00002B82 */
00002AB0  0C2B 0002 0034           cmpi.b     [A3 + 0x34], 0x2
00002AB6  6712                     beq        +0x14 /* 00002ACA */
00002AB8  0C2B 0001 0034           cmpi.b     [A3 + 0x34], 0x1
00002ABE  670A                     beq        +0xC /* 00002ACA */
00002AC0  0C2B 0006 0034           cmpi.b     [A3 + 0x34], 0x6
00002AC6  6600 00BA                bne        +0xBC /* 00002B82 */
label00002ACA:
00002ACA  2879 FFFF AACE           movea.l    A4, [0xFFFFAACE]
00002AD0  6000 00AA                bra        +0xAC /* 00002B7C */
label00002AD4:
00002AD4  0C2C 0009 0034           cmpi.b     [A4 + 0x34], 0x9 /* '\t' */
00002ADA  6600 009C                bne        +0x9E /* 00002B78 */
00002ADE  B7CC                     cmpa.l     A3, A4
00002AE0  6700 0096                beq        +0x98 /* 00002B78 */
00002AE4  3012                     move.w     D0, [A2]
00002AE6  906C 0018                sub.w      D0, [A4 + 0x18]
00002AEA  F200 5000                fmove      fp0, (int16_t) D0
00002AEE  F227 6800                fmove      (extended) -[A7], fp0
00002AF2  3F57 0002                move.w     [A7 + 0x2], [A7]
00002AF6  486E FFF4                pea.l      [A6 - 0xC]
00002AFA  4EAD 037A                jsr        [A5 + 0x37A /* export_107, CODE:7 @ 00003CA2 */]
00002AFE  F23C 5000 0005           fmove      fp0, (int16_t) 0x5
00002B04  F22E 4838 FFF4           fcmp       fp0, (extended) [A6 - 0xC]
00002B0A  4FEF 0010                lea.l      A7, [A7 + 0x10]
00002B0E  F29D 0068                .extension 0x29D <<F/2-3/1>> // unimplemented
00002B12  302B 001A                move.w     D0, [A3 + 0x1A]
00002B16  906C 001A                sub.w      D0, [A4 + 0x1A]
00002B1A  F200 5000                fmove      fp0, (int16_t) D0
00002B1E  F227 6800                fmove      (extended) -[A7], fp0
00002B22  3F57 0002                move.w     [A7 + 0x2], [A7]
00002B26  486E FFF4                pea.l      [A6 - 0xC]
00002B2A  4EAD 037A                jsr        [A5 + 0x37A /* export_107, CODE:7 @ 00003CA2 */]
00002B2E  F23C 5000 0005           fmove      fp0, (int16_t) 0x5
00002B34  F22E 4838 FFF4           fcmp       fp0, (extended) [A6 - 0xC]
00002B3A  4FEF 0010                lea.l      A7, [A7 + 0x10]
00002B3E  F29D 0038                .extension 0x29D <<F/2-3/1>> // unimplemented
00002B42  177C 0004 0034           move.b     [A3 + 0x34], 0x4
00002B48  42AB 0024                clr.l      [A3 + 0x24]
00002B4C  277C 8000 0000 0020      move.l     [A3 + 0x20], 0x80000000
00002B54  277C BFFF BFFF 001C      move.l     [A3 + 0x1C], 0xBFFFBFFF
00002B5C  197C 0004 0034           move.b     [A4 + 0x34], 0x4
00002B62  42AC 0024                clr.l      [A4 + 0x24]
00002B66  297C 8000 0000 0020      move.l     [A4 + 0x20], 0x80000000
00002B6E  297C BFFF BFFF 001C      move.l     [A4 + 0x1C], 0xBFFFBFFF
00002B76  7801                     moveq.l    D4, 0x01
label00002B78:
00002B78  286C 0038                movea.l    A4, [A4 + 0x38]
label00002B7C:
00002B7C  200C                     move.l     D0, A4
00002B7E  6600 FF54                bne        -0xAA /* 00002AD4 */
label00002B82:
00002B82  3004                     move.w     D0, D4
00002B84  4CDF 1CF0                movem.l    D4,D5,D6,D7,A2,A3,A4, [A7]+
00002B88  4E5E                     unlink     A6
00002B8A  4E75                     rts
fn00002B8C:
00002B8C  4E56 0000                link       A6, 0
00002B90  48E7 0038                movem.l    -[A7], A2,A3,A4
00002B94  246E 0008                movea.l    A2, [A6 + 0x8]
00002B98  2679 FFFF AACE           movea.l    A3, [0xFFFFAACE]
00002B9E  B5CB                     cmpa.l     A2, A3
00002BA0  660E                     bne        +0x10 /* 00002BB0 */
00002BA2  23EA 0038 FFFF AACE      move.l     [0xFFFFAACE], [A2 + 0x38]
00002BAA  6014                     bra        +0x16 /* 00002BC0 */
label00002BAC:
00002BAC  266B 0038                movea.l    A3, [A3 + 0x38]
label00002BB0:
00002BB0  B5EB 0038                cmpa.l     A2, [A3 + 0x38]
00002BB4  66F6                     bne        -0x8 /* 00002BAC */
00002BB6  206B 0038                movea.l    A0, [A3 + 0x38]
00002BBA  2768 0038 0038           move.l     [A3 + 0x38], [A0 + 0x38]
label00002BC0:
00002BC0  204A                     movea.l    A0, A2
00002BC2  A01F                     syscall    DisposPtr/DisposePtr
00002BC4  4A78 0220                tst.w      [0x00000220 /* MemErr */]
00002BC8  6706                     beq        +0x8 /* 00002BD0 */
00002BCA  3F3C 0001                move.w     -[A7], 0x1
00002BCE  A9C8                     syscall    SysBeep
label00002BD0:
00002BD0  4CDF 1C00                movem.l    A2,A3,A4, [A7]+
00002BD4  4E5E                     unlink     A6
00002BD6  4E75                     rts
fn00002BD8:
00002BD8  4E56 FFE8                link       A6, -0x0018
00002BDC  48E7 0118                movem.l    -[A7], D7,A3,A4
00002BE0  286E 0008                movea.l    A4, [A6 + 0x8]
00002BE4  41EE FFF4                lea.l      A0, [A6 - 0xC]
00002BE8  43EC 001C                lea.l      A1, [A4 + 0x1C]
00002BEC  20D9                     move.l     [A0]+, [A1]+
00002BEE  20D9                     move.l     [A0]+, [A1]+
00002BF0  20D9                     move.l     [A0]+, [A1]+
00002BF2  487A 00D2                pea.l      [PC + 0xD2 /* 00002CC6, value 0xFFFF4E56 */]
00002BF6  486E FFF6                pea.l      [A6 - 0xA]
00002BFA  3F3C 2008                move.w     -[A7], 0x2008
00002BFE  A9EB                     syscall    Pack4/FP68K
00002C00  676C                     beq        +0x6E /* 00002C6E */
00002C02  47EE FFE8                lea.l      A3, [A6 - 0x18]
00002C06  41EE FFF6                lea.l      A0, [A6 - 0xA]
00002C0A  26D8                     move.l     [A3]+, [A0]+
00002C0C  26D8                     move.l     [A3]+, [A0]+
00002C0E  36D8                     move.w     [A3]+, [A0]+
00002C10  486B FFF6                pea.l      [A3 - 0xA]
00002C14  3F3C 0016                move.w     -[A7], 0x16
00002C18  A9EB                     syscall    Pack4/FP68K
00002C1A  486B FFF6                pea.l      [A3 - 0xA]
00002C1E  486E FFF2                pea.l      [A6 - 0xE]
00002C22  3F3C 2010                move.w     -[A7], 0x2010
00002C26  A9EB                     syscall    Pack4/FP68K
00002C28  303C 03C2                move.w     D0, 0x3C2
00002C2C  C1EE FFF2                muls.w     D0, [A6 - 0xE]
00002C30  0680 FFFF 9442           addi.l     D0, 0xFFFF9442
00002C36  2640                     movea.l    A3, D0
00002C38  1E2C 0035                move.b     D7, [A4 + 0x35]
00002C3C  0C07 0006                cmpi.b     D7, 0x6
00002C40  6606                     bne        +0x8 /* 00002C48 */
00002C42  426B 0100                clr.w      [A3 + 0x100]
00002C46  6026                     bra        +0x28 /* 00002C6E */
label00002C48:
00002C48  0C07 000B                cmpi.b     D7, 0xB
00002C4C  6610                     bne        +0x12 /* 00002C5E */
00002C4E  7000                     moveq.l    D0, 0x00
00002C50  102C 0036                move.b     D0, [A4 + 0x36]
00002C54  81FC 0004                divs.w     D0, 0x4
00002C58  D16B 0378                add.w      [A3 + 0x378], D0
00002C5C  6010                     bra        +0x12 /* 00002C6E */
label00002C5E:
00002C5E  7000                     moveq.l    D0, 0x00
00002C60  102C 0036                move.b     D0, [A4 + 0x36]
00002C64  3F00                     move.w     -[A7], D0
00002C66  2F0B                     move.l     -[A7], A3
00002C68  4EBA D4AA                jsr        [PC - 0x2B56 /* 00000114 */]
00002C6C  5C8F                     addq.l     A7, 6
label00002C6E:
00002C6E  4A6B 0100                tst.w      [A3 + 0x100]
00002C72  6F22                     ble        +0x24 /* 00002C96 */
00002C74  4AAB 0358                tst.l      [A3 + 0x358]
00002C78  670E                     beq        +0x10 /* 00002C88 */
00002C7A  3F13                     move.w     -[A7], [A3]
00002C7C  3F3C 0002                move.w     -[A7], 0x2
00002C80  4EAD 0282                jsr        [A5 + 0x282 /* export_76, CODE:2 @ 0000573A */]
00002C84  588F                     addq.l     A7, 4
00002C86  602E                     bra        +0x30 /* 00002CB6 */
label00002C88:
00002C88  2F3C 03F1 0006           move.l     -[A7], 0x3F10006
00002C8E  4EAD 0282                jsr        [A5 + 0x282 /* export_76, CODE:2 @ 0000573A */]
00002C92  588F                     addq.l     A7, 4
00002C94  6020                     bra        +0x22 /* 00002CB6 */
label00002C96:
00002C96  4AAB 035C                tst.l      [A3 + 0x35C]
00002C9A  670E                     beq        +0x10 /* 00002CAA */
00002C9C  3F13                     move.w     -[A7], [A3]
00002C9E  3F3C 0003                move.w     -[A7], 0x3
00002CA2  4EAD 0282                jsr        [A5 + 0x282 /* export_76, CODE:2 @ 0000573A */]
00002CA6  588F                     addq.l     A7, 4
00002CA8  600C                     bra        +0xE /* 00002CB6 */
label00002CAA:
00002CAA  2F3C 03F1 0006           move.l     -[A7], 0x3F10006
00002CB0  4EAD 0282                jsr        [A5 + 0x282 /* export_76, CODE:2 @ 0000573A */]
00002CB4  588F                     addq.l     A7, 4
label00002CB6:
00002CB6  2F0C                     move.l     -[A7], A4
00002CB8  4EBA FED2                jsr        [PC - 0x12E /* 00002B8C */]
00002CBC  4CEE 1880 FFDC           movem.l    D7,A3,A4, [A6 - 0x24]
00002CC2  4E5E                     unlink     A6
00002CC4  4E75                     rts
00002CC6  FFFF                     .invalid   <<F/7/7>>
fn00002CC8:
00002CC8  4E56 FFF2                link       A6, -0x000E
00002CCC  2F0C                     move.l     -[A7], A4
00002CCE  286E 0008                movea.l    A4, [A6 + 0x8]
00002CD2  197C 0004 0034           move.b     [A4 + 0x34], 0x4
00002CD8  41EE FFF4                lea.l      A0, [A6 - 0xC]
00002CDC  43EC 001E                lea.l      A1, [A4 + 0x1E]
00002CE0  20D9                     move.l     [A0]+, [A1]+
00002CE2  20D9                     move.l     [A0]+, [A1]+
00002CE4  30D9                     move.w     [A0]+, [A1]+
00002CE6  4868 FFF6                pea.l      [A0 - 0xA]
00002CEA  3F3C 0016                move.w     -[A7], 0x16
00002CEE  A9EB                     syscall    Pack4/FP68K
00002CF0  4868 FFF6                pea.l      [A0 - 0xA]
00002CF4  486E FFFE                pea.l      [A6 - 0x2]
00002CF8  3F3C 2010                move.w     -[A7], 0x2010
00002CFC  A9EB                     syscall    Pack4/FP68K
00002CFE  396E FFFE 0018           move.w     [A4 + 0x18], [A6 - 0x2]
00002D04  41EE FFF4                lea.l      A0, [A6 - 0xC]
00002D08  43EC 002A                lea.l      A1, [A4 + 0x2A]
00002D0C  20D9                     move.l     [A0]+, [A1]+
00002D0E  20D9                     move.l     [A0]+, [A1]+
00002D10  30D9                     move.w     [A0]+, [A1]+
00002D12  4868 FFF6                pea.l      [A0 - 0xA]
00002D16  3F3C 0016                move.w     -[A7], 0x16
00002D1A  A9EB                     syscall    Pack4/FP68K
00002D1C  4868 FFF6                pea.l      [A0 - 0xA]
00002D20  486E FFFE                pea.l      [A6 - 0x2]
00002D24  3F3C 2010                move.w     -[A7], 0x2010
00002D28  A9EB                     syscall    Pack4/FP68K
00002D2A  396E FFFE 001A           move.w     [A4 + 0x1A], [A6 - 0x2]
00002D30  7000                     moveq.l    D0, 0x00
00002D32  102C 0035                move.b     D0, [A4 + 0x35]
00002D36  41EC 001E                lea.l      A0, [A4 + 0x1E]
00002D3A  3D40 FFFE                move.w     [A6 - 0x2], D0
00002D3E  486E FFFE                pea.l      [A6 - 0x2]
00002D42  4850                     pea.l      [A0]
00002D44  3F3C 200E                move.w     -[A7], 0x200E
00002D48  A9EB                     syscall    Pack4/FP68K
00002D4A  3110                     move.w     -[A0], [A0]
00002D4C  41EC 0036                lea.l      A0, [A4 + 0x36]
00002D50  7000                     moveq.l    D0, 0x00
00002D52  1010                     move.b     D0, [A0]
00002D54  3D40 FFF4                move.w     [A6 - 0xC], D0
00002D58  486E FFF4                pea.l      [A6 - 0xC]
00002D5C  486E FFF6                pea.l      [A6 - 0xA]
00002D60  3F3C 200E                move.w     -[A7], 0x200E
00002D64  A9EB                     syscall    Pack4/FP68K
00002D66  487A 002E                pea.l      [PC + 0x2E /* 00002D96, value 0x3FFCCCCC */]
00002D6A  486E FFF6                pea.l      [A6 - 0xA]
00002D6E  3F3C 0004                move.w     -[A7], 0x4
00002D72  A9EB                     syscall    Pack4/FP68K
00002D74  486E FFF6                pea.l      [A6 - 0xA]
00002D78  3F3C 0016                move.w     -[A7], 0x16
00002D7C  A9EB                     syscall    Pack4/FP68K
00002D7E  486E FFF6                pea.l      [A6 - 0xA]
00002D82  486E FFF2                pea.l      [A6 - 0xE]
00002D86  3F3C 2010                move.w     -[A7], 0x2010
00002D8A  A9EB                     syscall    Pack4/FP68K
00002D8C  10AE FFF3                move.b     [A0], [A6 - 0xD]
00002D90  285F                     movea.l    A4, [A7]+
00002D92  4E5E                     unlink     A6
00002D94  4E75                     rts
00002D96  3FFC CCCC                move.w     <<invalid special address>>, 0xCCCC
00002D9A  CCCC                     mulu.w     D6, A4
00002D9C  CCCC                     mulu.w     D6, A4
00002D9E  CCCD                     mulu.w     D6, A5
fn00002DA0:
00002DA0  4E56 FFDC                link       A6, -0x0024
00002DA4  48E7 0F38                movem.l    -[A7], D4,D5,D6,D7,A2,A3,A4
00002DA8  286E 0008                movea.l    A4, [A6 + 0x8]
00002DAC  41EE FFEA                lea.l      A0, [A6 - 0x16]
00002DB0  43EC 001E                lea.l      A1, [A4 + 0x1E]
00002DB4  20D9                     move.l     [A0]+, [A1]+
00002DB6  20D9                     move.l     [A0]+, [A1]+
00002DB8  30D9                     move.w     [A0]+, [A1]+
00002DBA  487A 0174                pea.l      [PC + 0x174 /* 00002F30, value 0xA4E56 '\nNV', cstring "" */]
00002DBE  4868 FFF6                pea.l      [A0 - 0xA]
00002DC2  3F3C 2000                move.w     -[A7], 0x2000 /* ' \0' */
00002DC6  A9EB                     syscall    Pack4/FP68K
00002DC8  43D6                     lea.l      A1, [A6]
00002DCA  2320                     move.l     -[A1], -[A0]
00002DCC  2320                     move.l     -[A1], -[A0]
00002DCE  3320                     move.w     -[A1], -[A0]
00002DD0  3311                     move.w     -[A1], [A1]
00002DD2  41EE FFEA                lea.l      A0, [A6 - 0x16]
00002DD6  43EE FFF6                lea.l      A1, [A6 - 0xA]
00002DDA  20D9                     move.l     [A0]+, [A1]+
00002DDC  20D9                     move.l     [A0]+, [A1]+
00002DDE  30D9                     move.w     [A0]+, [A1]+
00002DE0  486E FFF6                pea.l      [A6 - 0xA]
00002DE4  4868 FFF6                pea.l      [A0 - 0xA]
00002DE8  3F3C 0004                move.w     -[A7], 0x4
00002DEC  A9EB                     syscall    Pack4/FP68K
00002DEE  43EE FFDC                lea.l      A1, [A6 - 0x24]
00002DF2  41E8 FFF6                lea.l      A0, [A0 - 0xA]
00002DF6  22D8                     move.l     [A1]+, [A0]+
00002DF8  22D8                     move.l     [A1]+, [A0]+
00002DFA  32D8                     move.w     [A1]+, [A0]+
00002DFC  4869 FFF6                pea.l      [A1 - 0xA]
00002E00  3F3C 0016                move.w     -[A7], 0x16
00002E04  A9EB                     syscall    Pack4/FP68K
00002E06  4869 FFF6                pea.l      [A1 - 0xA]
00002E0A  486E FFE6                pea.l      [A6 - 0x1A]
00002E0E  3F3C 2810                move.w     -[A7], 0x2810
00002E12  A9EB                     syscall    Pack4/FP68K
00002E14  2E2E FFE6                move.l     D7, [A6 - 0x1A]
00002E18  7C00                     moveq.l    D6, 0x00
00002E1A  267C FFFF 9442           movea.l    A3, 0xFFFF9442
00002E20  6000 0084                bra        +0x86 /* 00002EA6 */
label00002E24:
00002E24  45EB 0002                lea.l      A2, [A3 + 0x2]
00002E28  3A2A 002E                move.w     D5, [A2 + 0x2E]
00002E2C  9A6C 0018                sub.w      D5, [A4 + 0x18]
00002E30  48C5                     ext.l      D5
00002E32  382A 0030                move.w     D4, [A2 + 0x30]
00002E36  986C 001A                sub.w      D4, [A4 + 0x1A]
00002E3A  48C4                     ext.l      D4
00002E3C  2F05                     move.l     -[A7], D5
00002E3E  2F05                     move.l     -[A7], D5
00002E40  4EAD 0042                jsr        [A5 + 0x42 /* export_4, CODE:1 @ 000002E8 */]
00002E44  2F04                     move.l     -[A7], D4
00002E46  2F04                     move.l     -[A7], D4
00002E48  2200                     move.l     D1, D0
00002E4A  4EAD 0042                jsr        [A5 + 0x42 /* export_4, CODE:1 @ 000002E8 */]
00002E4E  C141                     exg        D0, D1
00002E50  D081                     add.l      D0, D1
00002E52  BE80                     cmp.l      D7, D0
00002E54  6F4A                     ble        +0x4C /* 00002EA0 */
00002E56  7000                     moveq.l    D0, 0x00
00002E58  102C 0036                move.b     D0, [A4 + 0x36]
00002E5C  3D40 FFE8                move.w     [A6 - 0x18], D0
00002E60  486E FFE8                pea.l      [A6 - 0x18]
00002E64  486E FFEA                pea.l      [A6 - 0x16]
00002E68  3F3C 200E                move.w     -[A7], 0x200E
00002E6C  A9EB                     syscall    Pack4/FP68K
00002E6E  487A 00BC                pea.l      [PC + 0xBC /* 00002F2C, value 0x3FC00000 */]
00002E72  486E FFEA                pea.l      [A6 - 0x16]
00002E76  3F3C 1004                move.w     -[A7], 0x1004
00002E7A  A9EB                     syscall    Pack4/FP68K
00002E7C  486E FFEA                pea.l      [A6 - 0x16]
00002E80  3F3C 0016                move.w     -[A7], 0x16
00002E84  A9EB                     syscall    Pack4/FP68K
00002E86  486E FFEA                pea.l      [A6 - 0x16]
00002E8A  486E FFE6                pea.l      [A6 - 0x1A]
00002E8E  3F3C 2010                move.w     -[A7], 0x2010
00002E92  A9EB                     syscall    Pack4/FP68K
00002E94  3F2E FFE6                move.w     -[A7], [A6 - 0x1A]
00002E98  2F0B                     move.l     -[A7], A3
00002E9A  4EBA D278                jsr        [PC - 0x2D88 /* 00000114 */]
00002E9E  5C8F                     addq.l     A7, 6
label00002EA0:
00002EA0  5246                     addq.w     D6, 1
00002EA2  47EB 03C2                lea.l      A3, [A3 + 0x3C2]
label00002EA6:
00002EA6  BC79 FFFF 9226           cmp.w      D6, [0xFFFF9226]
00002EAC  6D00 FF76                blt        -0x88 /* 00002E24 */
00002EB0  2F3C 03EA 0006           move.l     -[A7], 0x3EA0006
00002EB6  4EAD 0282                jsr        [A5 + 0x282 /* export_76, CODE:2 @ 0000573A */]
00002EBA  2679 FFFF AACE           movea.l    A3, [0xFFFFAACE]
00002EC0  588F                     addq.l     A7, 4
00002EC2  6054                     bra        +0x56 /* 00002F18 */
label00002EC4:
00002EC4  0C2B 0009 0034           cmpi.b     [A3 + 0x34], 0x9 /* '\t' */
00002ECA  6648                     bne        +0x4A /* 00002F14 */
00002ECC  3A2B 0018                move.w     D5, [A3 + 0x18]
00002ED0  9A6C 0018                sub.w      D5, [A4 + 0x18]
00002ED4  48C5                     ext.l      D5
00002ED6  382B 001A                move.w     D4, [A3 + 0x1A]
00002EDA  986C 001A                sub.w      D4, [A4 + 0x1A]
00002EDE  48C4                     ext.l      D4
00002EE0  2F05                     move.l     -[A7], D5
00002EE2  2F05                     move.l     -[A7], D5
00002EE4  4EAD 0042                jsr        [A5 + 0x42 /* export_4, CODE:1 @ 000002E8 */]
00002EE8  2F04                     move.l     -[A7], D4
00002EEA  2F04                     move.l     -[A7], D4
00002EEC  2200                     move.l     D1, D0
00002EEE  4EAD 0042                jsr        [A5 + 0x42 /* export_4, CODE:1 @ 000002E8 */]
00002EF2  C141                     exg        D0, D1
00002EF4  D081                     add.l      D0, D1
00002EF6  BE80                     cmp.l      D7, D0
00002EF8  6F1A                     ble        +0x1C /* 00002F14 */
00002EFA  177C 0004 0034           move.b     [A3 + 0x34], 0x4
00002F00  42AB 0024                clr.l      [A3 + 0x24]
00002F04  277C 8000 0000 0020      move.l     [A3 + 0x20], 0x80000000
00002F0C  277C BFFF BFFF 001C      move.l     [A3 + 0x1C], 0xBFFFBFFF
label00002F14:
00002F14  266B 0038                movea.l    A3, [A3 + 0x38]
label00002F18:
00002F18  200B                     move.l     D0, A3
00002F1A  66A8                     bne        -0x56 /* 00002EC4 */
00002F1C  2F0C                     move.l     -[A7], A4
00002F1E  4EBA FC6C                jsr        [PC - 0x394 /* 00002B8C */]
00002F22  4CEE 1CF0 FFC0           movem.l    D4,D5,D6,D7,A2,A3,A4, [A6 - 0x40]
00002F28  4E5E                     unlink     A6
00002F2A  4E75                     rts
00002F2C  3FC0                     move.w     <<invalid special address>>, D0
00002F2E  0000 000A                ori.b      D0, 0xA /* '\n' */
fn00002F32:
00002F32  4E56 FFF4                link       A6, -0x000C
00002F36  48E7 0F38                movem.l    -[A7], D4,D5,D6,D7,A2,A3,A4
00002F3A  266E 0008                movea.l    A3, [A6 + 0x8]
00002F3E  49EB 0018                lea.l      A4, [A3 + 0x18]
00002F42  3E14                     move.w     D7, [A4]
00002F44  3C2B 001A                move.w     D6, [A3 + 0x1A]
00002F48  45EE FFF4                lea.l      A2, [A6 - 0xC]
00002F4C  41EB 002A                lea.l      A0, [A3 + 0x2A]
00002F50  24D8                     move.l     [A2]+, [A0]+
00002F52  24D8                     move.l     [A2]+, [A0]+
00002F54  34D8                     move.w     [A2]+, [A0]+
00002F56  486A FFF6                pea.l      [A2 - 0xA]
00002F5A  3F3C 0016                move.w     -[A7], 0x16
00002F5E  A9EB                     syscall    Pack4/FP68K
00002F60  486A FFF6                pea.l      [A2 - 0xA]
00002F64  486E FFFE                pea.l      [A6 - 0x2]
00002F68  3F3C 2010                move.w     -[A7], 0x2010
00002F6C  A9EB                     syscall    Pack4/FP68K
00002F6E  303C 03C2                move.w     D0, 0x3C2
00002F72  C1EE FFFE                muls.w     D0, [A6 - 0x2]
00002F76  0680 FFFF 9444           addi.l     D0, 0xFFFF9444
00002F7C  2440                     movea.l    A2, D0
00002F7E  3A2A 002E                move.w     D5, [A2 + 0x2E]
00002F82  382A 0030                move.w     D4, [A2 + 0x30]
00002F86  3005                     move.w     D0, D5
00002F88  9047                     sub.w      D0, D7
00002F8A  3F00                     move.w     -[A7], D0
00002F8C  4EAD 048A                jsr        [A5 + 0x48A /* export_141, CODE:7 @ 0000028C */]
00002F90  5B40                     subq.w     D0, 5
00002F92  548F                     addq.l     A7, 2
00002F94  6602                     bne        +0x4 /* 00002F98 */
00002F96  3A07                     move.w     D5, D7
label00002F98:
00002F98  3004                     move.w     D0, D4
00002F9A  9046                     sub.w      D0, D6
00002F9C  3F00                     move.w     -[A7], D0
00002F9E  4EAD 048A                jsr        [A5 + 0x48A /* export_141, CODE:7 @ 0000028C */]
00002FA2  5B40                     subq.w     D0, 5
00002FA4  548F                     addq.l     A7, 2
00002FA6  6602                     bne        +0x4 /* 00002FAA */
00002FA8  3806                     move.w     D4, D6
label00002FAA:
00002FAA  BA47                     cmp.w      D5, D7
00002FAC  6F12                     ble        +0x14 /* 00002FC0 */
00002FAE  B846                     cmp.w      D4, D6
00002FB0  6F0E                     ble        +0x10 /* 00002FC0 */
00002FB2  5454                     addq.w     [A4], 2
00002FB4  546B 001A                addq.w     [A3 + 0x1A], 2
00002FB8  177C 0007 0035           move.b     [A3 + 0x35], 0x7
00002FBE  6076                     bra        +0x78 /* 00003036 */
label00002FC0:
00002FC0  BA47                     cmp.w      D5, D7
00002FC2  6C12                     bge        +0x14 /* 00002FD6 */
00002FC4  B846                     cmp.w      D4, D6
00002FC6  6F0E                     ble        +0x10 /* 00002FD6 */
00002FC8  5554                     subq.w     [A4], 2
00002FCA  546B 001A                addq.w     [A3 + 0x1A], 2
00002FCE  177C 0005 0035           move.b     [A3 + 0x35], 0x5
00002FD4  6060                     bra        +0x62 /* 00003036 */
label00002FD6:
00002FD6  BA47                     cmp.w      D5, D7
00002FD8  6C12                     bge        +0x14 /* 00002FEC */
00002FDA  B846                     cmp.w      D4, D6
00002FDC  6C0E                     bge        +0x10 /* 00002FEC */
00002FDE  5554                     subq.w     [A4], 2
00002FE0  556B 001A                subq.w     [A3 + 0x1A], 2
00002FE4  177C 0003 0035           move.b     [A3 + 0x35], 0x3
00002FEA  604A                     bra        +0x4C /* 00003036 */
label00002FEC:
00002FEC  BA47                     cmp.w      D5, D7
00002FEE  6F12                     ble        +0x14 /* 00003002 */
00002FF0  B846                     cmp.w      D4, D6
00002FF2  6C0E                     bge        +0x10 /* 00003002 */
00002FF4  5454                     addq.w     [A4], 2
00002FF6  556B 001A                subq.w     [A3 + 0x1A], 2
00002FFA  177C 0003 0035           move.b     [A3 + 0x35], 0x3
00003000  6034                     bra        +0x36 /* 00003036 */
label00003002:
00003002  BA47                     cmp.w      D5, D7
00003004  6F08                     ble        +0xA /* 0000300E */
00003006  5454                     addq.w     [A4], 2
00003008  422B 0035                clr.b      [A3 + 0x35]
0000300C  6028                     bra        +0x2A /* 00003036 */
label0000300E:
0000300E  BA47                     cmp.w      D5, D7
00003010  6C0A                     bge        +0xC /* 0000301C */
00003012  5554                     subq.w     [A4], 2
00003014  177C 0004 0035           move.b     [A3 + 0x35], 0x4
0000301A  601A                     bra        +0x1C /* 00003036 */
label0000301C:
0000301C  B846                     cmp.w      D4, D6
0000301E  6F0C                     ble        +0xE /* 0000302C */
00003020  546B 001A                addq.w     [A3 + 0x1A], 2
00003024  177C 0006 0035           move.b     [A3 + 0x35], 0x6
0000302A  600A                     bra        +0xC /* 00003036 */
label0000302C:
0000302C  556B 001A                subq.w     [A3 + 0x1A], 2
00003030  177C 0002 0035           move.b     [A3 + 0x35], 0x2
label00003036:
00003036  41EB 001E                lea.l      A0, [A3 + 0x1E]
0000303A  487A 0040                pea.l      [PC + 0x40 /* 0000307C, value 0x14E56, cstring "" */]
0000303E  4850                     pea.l      [A0]
00003040  3F3C 2002                move.w     -[A7], 0x2002
00003044  A9EB                     syscall    Pack4/FP68K
00003046  3110                     move.w     -[A0], [A0]
00003048  487A 0030                pea.l      [PC + 0x30 /* 0000307A, value 0x1, cstring "" */]
0000304C  486B 001E                pea.l      [A3 + 0x1E]
00003050  3F3C 2008                move.w     -[A7], 0x2008
00003054  A9EB                     syscall    Pack4/FP68K
00003056  661A                     bne        +0x1C /* 00003072 */
00003058  177C 0004 0034           move.b     [A3 + 0x34], 0x4
0000305E  42AB 0024                clr.l      [A3 + 0x24]
00003062  277C 8000 0000 0020      move.l     [A3 + 0x20], 0x80000000
0000306A  277C BFFF BFFF 001C      move.l     [A3 + 0x1C], 0xBFFFBFFF
label00003072:
00003072  4CDF 1CF0                movem.l    D4,D5,D6,D7,A2,A3,A4, [A7]+
00003076  4E5E                     unlink     A6
00003078  4E75                     rts
0000307A  0000 0001                ori.b      D0, 0x1
export_38:
0000307E  4E56 FFF4                link       A6, -0x000C
00003082  48E7 0108                movem.l    -[A7], D7,A4
00003086  2879 FFFF AACE           movea.l    A4, [0xFFFFAACE]
0000308C  6000 05C0                bra        +0x5C2 /* 0000364E */
label00003090:
00003090  7000                     moveq.l    D0, 0x00
00003092  102C 0034                move.b     D0, [A4 + 0x34]
00003096  0C40 000B                cmpi.w     D0, 0xB
0000309A  6200 05AE                bhi        +0x5B0 /* 0000364A */
0000309E  43FA 05C8                lea.l      A1, [PC + 0x5C8 /* 00003668, value 0xFFE2FA42 */]
000030A2  D040                     add.w      D0, D0
000030A4  D2F1 0000                add.w      A1, [A1 + D0.w]
000030A8  4ED1                     jmp        [A1]
000030AA  41EC 0002                lea.l      A0, [A4 + 0x2]
000030AE  486C 001E                pea.l      [A4 + 0x1E]
000030B2  4850                     pea.l      [A0]
000030B4  4267                     clr.w      -[A7]
000030B6  A9EB                     syscall    Pack4/FP68K
000030B8  3110                     move.w     -[A0], [A0]
000030BA  41EC 000E                lea.l      A0, [A4 + 0xE]
000030BE  486C 002A                pea.l      [A4 + 0x2A]
000030C2  4850                     pea.l      [A0]
000030C4  4267                     clr.w      -[A7]
000030C6  A9EB                     syscall    Pack4/FP68K
000030C8  3110                     move.w     -[A0], [A0]
000030CA  41EE FFF4                lea.l      A0, [A6 - 0xC]
000030CE  43EC 0002                lea.l      A1, [A4 + 0x2]
000030D2  20D9                     move.l     [A0]+, [A1]+
000030D4  20D9                     move.l     [A0]+, [A1]+
000030D6  30D9                     move.w     [A0]+, [A1]+
000030D8  4868 FFF6                pea.l      [A0 - 0xA]
000030DC  3F3C 0016                move.w     -[A7], 0x16
000030E0  A9EB                     syscall    Pack4/FP68K
000030E2  4868 FFF6                pea.l      [A0 - 0xA]
000030E6  486E FFFE                pea.l      [A6 - 0x2]
000030EA  3F3C 2010                move.w     -[A7], 0x2010
000030EE  A9EB                     syscall    Pack4/FP68K
000030F0  396E FFFE 0018           move.w     [A4 + 0x18], [A6 - 0x2]
000030F6  41EE FFF4                lea.l      A0, [A6 - 0xC]
000030FA  43EC 000E                lea.l      A1, [A4 + 0xE]
000030FE  20D9                     move.l     [A0]+, [A1]+
00003100  20D9                     move.l     [A0]+, [A1]+
00003102  30D9                     move.w     [A0]+, [A1]+
00003104  4868 FFF6                pea.l      [A0 - 0xA]
00003108  3F3C 0016                move.w     -[A7], 0x16
0000310C  A9EB                     syscall    Pack4/FP68K
0000310E  4868 FFF6                pea.l      [A0 - 0xA]
00003112  486E FFFE                pea.l      [A6 - 0x2]
00003116  3F3C 2010                move.w     -[A7], 0x2010
0000311A  A9EB                     syscall    Pack4/FP68K
0000311C  396E FFFE 001A           move.w     [A4 + 0x1A], [A6 - 0x2]
00003122  3E2C 0018                move.w     D7, [A4 + 0x18]
00003126  0C47 012C                cmpi.w     D7, 0x12C
0000312A  6E12                     bgt        +0x14 /* 0000313E */
0000312C  4A47                     tst.w      D7
0000312E  6D0E                     blt        +0x10 /* 0000313E */
00003130  0C6C 012C 001A           cmpi.w     [A4 + 0x1A], 0x12C
00003136  6E06                     bgt        +0x8 /* 0000313E */
00003138  4A6C 001A                tst.w      [A4 + 0x1A]
0000313C  6C0C                     bge        +0xE /* 0000314A */
label0000313E:
0000313E  2F0C                     move.l     -[A7], A4
00003140  4EBA FA4A                jsr        [PC - 0x5B6 /* 00002B8C */]
00003144  588F                     addq.l     A7, 4
00003146  6000 0502                bra        +0x504 /* 0000364A */
label0000314A:
0000314A  2F0C                     move.l     -[A7], A4
0000314C  2079 FFFF AEC6           movea.l    A0, [0xFFFFAEC6]
00003152  4E90                     jsr        [A0]
00003154  4A40                     tst.w      D0
00003156  588F                     addq.l     A7, 4
00003158  6600 04F0                bne        +0x4F2 /* 0000364A */
0000315C  41EC 0002                lea.l      A0, [A4 + 0x2]
00003160  486C 001E                pea.l      [A4 + 0x1E]
00003164  4850                     pea.l      [A0]
00003166  4267                     clr.w      -[A7]
00003168  A9EB                     syscall    Pack4/FP68K
0000316A  3110                     move.w     -[A0], [A0]
0000316C  41EC 000E                lea.l      A0, [A4 + 0xE]
00003170  486C 002A                pea.l      [A4 + 0x2A]
00003174  4850                     pea.l      [A0]
00003176  4267                     clr.w      -[A7]
00003178  A9EB                     syscall    Pack4/FP68K
0000317A  3110                     move.w     -[A0], [A0]
0000317C  41EE FFF4                lea.l      A0, [A6 - 0xC]
00003180  43EC 0002                lea.l      A1, [A4 + 0x2]
00003184  20D9                     move.l     [A0]+, [A1]+
00003186  20D9                     move.l     [A0]+, [A1]+
00003188  30D9                     move.w     [A0]+, [A1]+
0000318A  4868 FFF6                pea.l      [A0 - 0xA]
0000318E  3F3C 0016                move.w     -[A7], 0x16
00003192  A9EB                     syscall    Pack4/FP68K
00003194  4868 FFF6                pea.l      [A0 - 0xA]
00003198  486E FFFE                pea.l      [A6 - 0x2]
0000319C  3F3C 2010                move.w     -[A7], 0x2010
000031A0  A9EB                     syscall    Pack4/FP68K
000031A2  396E FFFE 0018           move.w     [A4 + 0x18], [A6 - 0x2]
000031A8  41EE FFF4                lea.l      A0, [A6 - 0xC]
000031AC  43EC 000E                lea.l      A1, [A4 + 0xE]
000031B0  20D9                     move.l     [A0]+, [A1]+
000031B2  20D9                     move.l     [A0]+, [A1]+
000031B4  30D9                     move.w     [A0]+, [A1]+
000031B6  4868 FFF6                pea.l      [A0 - 0xA]
000031BA  3F3C 0016                move.w     -[A7], 0x16
000031BE  A9EB                     syscall    Pack4/FP68K
000031C0  4868 FFF6                pea.l      [A0 - 0xA]
000031C4  486E FFFE                pea.l      [A6 - 0x2]
000031C8  3F3C 2010                move.w     -[A7], 0x2010
000031CC  A9EB                     syscall    Pack4/FP68K
000031CE  396E FFFE 001A           move.w     [A4 + 0x1A], [A6 - 0x2]
000031D4  3E2C 0018                move.w     D7, [A4 + 0x18]
000031D8  0C47 012C                cmpi.w     D7, 0x12C
000031DC  6E12                     bgt        +0x14 /* 000031F0 */
000031DE  4A47                     tst.w      D7
000031E0  6D0E                     blt        +0x10 /* 000031F0 */
000031E2  0C6C 012C 001A           cmpi.w     [A4 + 0x1A], 0x12C
000031E8  6E06                     bgt        +0x8 /* 000031F0 */
000031EA  4A6C 001A                tst.w      [A4 + 0x1A]
000031EE  6C0C                     bge        +0xE /* 000031FC */
label000031F0:
000031F0  2F0C                     move.l     -[A7], A4
000031F2  4EBA F998                jsr        [PC - 0x668 /* 00002B8C */]
000031F6  588F                     addq.l     A7, 4
000031F8  6000 0450                bra        +0x452 /* 0000364A */
label000031FC:
000031FC  2F0C                     move.l     -[A7], A4
000031FE  2079 FFFF AEC6           movea.l    A0, [0xFFFFAEC6]
00003204  4E90                     jsr        [A0]
00003206  588F                     addq.l     A7, 4
00003208  6000 0440                bra        +0x442 /* 0000364A */
0000320C  41EC 0002                lea.l      A0, [A4 + 0x2]
00003210  486C 001E                pea.l      [A4 + 0x1E]
00003214  4850                     pea.l      [A0]
00003216  4267                     clr.w      -[A7]
00003218  A9EB                     syscall    Pack4/FP68K
0000321A  3110                     move.w     -[A0], [A0]
0000321C  41EC 000E                lea.l      A0, [A4 + 0xE]
00003220  486C 002A                pea.l      [A4 + 0x2A]
00003224  4850                     pea.l      [A0]
00003226  4267                     clr.w      -[A7]
00003228  A9EB                     syscall    Pack4/FP68K
0000322A  3110                     move.w     -[A0], [A0]
0000322C  41EE FFF4                lea.l      A0, [A6 - 0xC]
00003230  43EC 0002                lea.l      A1, [A4 + 0x2]
00003234  20D9                     move.l     [A0]+, [A1]+
00003236  20D9                     move.l     [A0]+, [A1]+
00003238  30D9                     move.w     [A0]+, [A1]+
0000323A  4868 FFF6                pea.l      [A0 - 0xA]
0000323E  3F3C 0016                move.w     -[A7], 0x16
00003242  A9EB                     syscall    Pack4/FP68K
00003244  4868 FFF6                pea.l      [A0 - 0xA]
00003248  486E FFFE                pea.l      [A6 - 0x2]
0000324C  3F3C 2010                move.w     -[A7], 0x2010
00003250  A9EB                     syscall    Pack4/FP68K
00003252  396E FFFE 0018           move.w     [A4 + 0x18], [A6 - 0x2]
00003258  41EE FFF4                lea.l      A0, [A6 - 0xC]
0000325C  43EC 000E                lea.l      A1, [A4 + 0xE]
00003260  20D9                     move.l     [A0]+, [A1]+
00003262  20D9                     move.l     [A0]+, [A1]+
00003264  30D9                     move.w     [A0]+, [A1]+
00003266  4868 FFF6                pea.l      [A0 - 0xA]
0000326A  3F3C 0016                move.w     -[A7], 0x16
0000326E  A9EB                     syscall    Pack4/FP68K
00003270  4868 FFF6                pea.l      [A0 - 0xA]
00003274  486E FFFE                pea.l      [A6 - 0x2]
00003278  3F3C 2010                move.w     -[A7], 0x2010
0000327C  A9EB                     syscall    Pack4/FP68K
0000327E  396E FFFE 001A           move.w     [A4 + 0x1A], [A6 - 0x2]
00003284  3E2C 0018                move.w     D7, [A4 + 0x18]
00003288  0C47 012C                cmpi.w     D7, 0x12C
0000328C  6E12                     bgt        +0x14 /* 000032A0 */
0000328E  4A47                     tst.w      D7
00003290  6D0E                     blt        +0x10 /* 000032A0 */
00003292  0C6C 012C 001A           cmpi.w     [A4 + 0x1A], 0x12C
00003298  6E06                     bgt        +0x8 /* 000032A0 */
0000329A  4A6C 001A                tst.w      [A4 + 0x1A]
0000329E  6C0C                     bge        +0xE /* 000032AC */
label000032A0:
000032A0  2F0C                     move.l     -[A7], A4
000032A2  4EBA F8E8                jsr        [PC - 0x718 /* 00002B8C */]
000032A6  588F                     addq.l     A7, 4
000032A8  6000 03A0                bra        +0x3A2 /* 0000364A */
label000032AC:
000032AC  2F0C                     move.l     -[A7], A4
000032AE  2079 FFFF AEC6           movea.l    A0, [0xFFFFAEC6]
000032B4  4E90                     jsr        [A0]
000032B6  588F                     addq.l     A7, 4
000032B8  6000 0390                bra        +0x392 /* 0000364A */
000032BC  487A 03A8                pea.l      [PC + 0x3A8 /* 00003666, value 0x32FFE2, cstring "" */]
000032C0  486C 001E                pea.l      [A4 + 0x1E]
000032C4  3F3C 2008                move.w     -[A7], 0x2008
000032C8  A9EB                     syscall    Pack4/FP68K
000032CA  6C16                     bge        +0x18 /* 000032E2 */
000032CC  41EC 001E                lea.l      A0, [A4 + 0x1E]
000032D0  487A 0392                pea.l      [PC + 0x392 /* 00003664, value 0x50032, cstring "" */]
000032D4  4850                     pea.l      [A0]
000032D6  3F3C 2000                move.w     -[A7], 0x2000 /* ' \0' */
000032DA  A9EB                     syscall    Pack4/FP68K
000032DC  3110                     move.w     -[A0], [A0]
000032DE  6000 036A                bra        +0x36C /* 0000364A */
label000032E2:
000032E2  2F0C                     move.l     -[A7], A4
000032E4  4EBA FABA                jsr        [PC - 0x546 /* 00002DA0 */]
000032E8  588F                     addq.l     A7, 4
000032EA  6000 035E                bra        +0x360 /* 0000364A */
000032EE  2F0C                     move.l     -[A7], A4
000032F0  4EBA F8E6                jsr        [PC - 0x71A /* 00002BD8 */]
000032F4  588F                     addq.l     A7, 4
000032F6  6000 0352                bra        +0x354 /* 0000364A */
000032FA  487A 0366                pea.l      [PC + 0x366 /* 00003662, value 0x240005, cstring "" */]
000032FE  486C 001E                pea.l      [A4 + 0x1E]
00003302  3F3C 2008                move.w     -[A7], 0x2008
00003306  A9EB                     syscall    Pack4/FP68K
00003308  6C16                     bge        +0x18 /* 00003320 */
0000330A  41EC 001E                lea.l      A0, [A4 + 0x1E]
0000330E  487A 0350                pea.l      [PC + 0x350 /* 00003660, value 0xC0024, cstring "" */]
00003312  4850                     pea.l      [A0]
00003314  3F3C 2000                move.w     -[A7], 0x2000 /* ' \0' */
00003318  A9EB                     syscall    Pack4/FP68K
0000331A  3110                     move.w     -[A0], [A0]
0000331C  6000 032C                bra        +0x32E /* 0000364A */
label00003320:
00003320  2F0C                     move.l     -[A7], A4
00003322  4EBA FA7C                jsr        [PC - 0x584 /* 00002DA0 */]
00003326  588F                     addq.l     A7, 4
00003328  6000 0320                bra        +0x322 /* 0000364A */
0000332C  41EC 0002                lea.l      A0, [A4 + 0x2]
00003330  486C 001E                pea.l      [A4 + 0x1E]
00003334  4850                     pea.l      [A0]
00003336  4267                     clr.w      -[A7]
00003338  A9EB                     syscall    Pack4/FP68K
0000333A  3110                     move.w     -[A0], [A0]
0000333C  41EC 000E                lea.l      A0, [A4 + 0xE]
00003340  486C 002A                pea.l      [A4 + 0x2A]
00003344  4850                     pea.l      [A0]
00003346  4267                     clr.w      -[A7]
00003348  A9EB                     syscall    Pack4/FP68K
0000334A  3110                     move.w     -[A0], [A0]
0000334C  41EE FFF4                lea.l      A0, [A6 - 0xC]
00003350  43EC 0002                lea.l      A1, [A4 + 0x2]
00003354  20D9                     move.l     [A0]+, [A1]+
00003356  20D9                     move.l     [A0]+, [A1]+
00003358  30D9                     move.w     [A0]+, [A1]+
0000335A  4868 FFF6                pea.l      [A0 - 0xA]
0000335E  3F3C 0016                move.w     -[A7], 0x16
00003362  A9EB                     syscall    Pack4/FP68K
00003364  4868 FFF6                pea.l      [A0 - 0xA]
00003368  486E FFFE                pea.l      [A6 - 0x2]
0000336C  3F3C 2010                move.w     -[A7], 0x2010
00003370  A9EB                     syscall    Pack4/FP68K
00003372  396E FFFE 0018           move.w     [A4 + 0x18], [A6 - 0x2]
00003378  41EE FFF4                lea.l      A0, [A6 - 0xC]
0000337C  43EC 000E                lea.l      A1, [A4 + 0xE]
00003380  20D9                     move.l     [A0]+, [A1]+
00003382  20D9                     move.l     [A0]+, [A1]+
00003384  30D9                     move.w     [A0]+, [A1]+
00003386  4868 FFF6                pea.l      [A0 - 0xA]
0000338A  3F3C 0016                move.w     -[A7], 0x16
0000338E  A9EB                     syscall    Pack4/FP68K
00003390  4868 FFF6                pea.l      [A0 - 0xA]
00003394  486E FFFE                pea.l      [A6 - 0x2]
00003398  3F3C 2010                move.w     -[A7], 0x2010
0000339C  A9EB                     syscall    Pack4/FP68K
0000339E  396E FFFE 001A           move.w     [A4 + 0x1A], [A6 - 0x2]
000033A4  3E2C 0018                move.w     D7, [A4 + 0x18]
000033A8  0C47 012C                cmpi.w     D7, 0x12C
000033AC  6E12                     bgt        +0x14 /* 000033C0 */
000033AE  4A47                     tst.w      D7
000033B0  6D0E                     blt        +0x10 /* 000033C0 */
000033B2  0C6C 012C 001A           cmpi.w     [A4 + 0x1A], 0x12C
000033B8  6E06                     bgt        +0x8 /* 000033C0 */
000033BA  4A6C 001A                tst.w      [A4 + 0x1A]
000033BE  6C0C                     bge        +0xE /* 000033CC */
label000033C0:
000033C0  2F0C                     move.l     -[A7], A4
000033C2  4EBA F7C8                jsr        [PC - 0x838 /* 00002B8C */]
000033C6  588F                     addq.l     A7, 4
000033C8  6000 0280                bra        +0x282 /* 0000364A */
label000033CC:
000033CC  2F0C                     move.l     -[A7], A4
000033CE  2079 FFFF AEC6           movea.l    A0, [0xFFFFAEC6]
000033D4  4E90                     jsr        [A0]
000033D6  4A40                     tst.w      D0
000033D8  588F                     addq.l     A7, 4
000033DA  6600 026E                bne        +0x270 /* 0000364A */
000033DE  41EC 0002                lea.l      A0, [A4 + 0x2]
000033E2  486C 001E                pea.l      [A4 + 0x1E]
000033E6  4850                     pea.l      [A0]
000033E8  4267                     clr.w      -[A7]
000033EA  A9EB                     syscall    Pack4/FP68K
000033EC  3110                     move.w     -[A0], [A0]
000033EE  41EC 000E                lea.l      A0, [A4 + 0xE]
000033F2  486C 002A                pea.l      [A4 + 0x2A]
000033F6  4850                     pea.l      [A0]
000033F8  4267                     clr.w      -[A7]
000033FA  A9EB                     syscall    Pack4/FP68K
000033FC  3110                     move.w     -[A0], [A0]
000033FE  41EE FFF4                lea.l      A0, [A6 - 0xC]
00003402  43EC 0002                lea.l      A1, [A4 + 0x2]
00003406  20D9                     move.l     [A0]+, [A1]+
00003408  20D9                     move.l     [A0]+, [A1]+
0000340A  30D9                     move.w     [A0]+, [A1]+
0000340C  4868 FFF6                pea.l      [A0 - 0xA]
00003410  3F3C 0016                move.w     -[A7], 0x16
00003414  A9EB                     syscall    Pack4/FP68K
00003416  4868 FFF6                pea.l      [A0 - 0xA]
0000341A  486E FFFE                pea.l      [A6 - 0x2]
0000341E  3F3C 2010                move.w     -[A7], 0x2010
00003422  A9EB                     syscall    Pack4/FP68K
00003424  396E FFFE 0018           move.w     [A4 + 0x18], [A6 - 0x2]
0000342A  41EE FFF4                lea.l      A0, [A6 - 0xC]
0000342E  43EC 000E                lea.l      A1, [A4 + 0xE]
00003432  20D9                     move.l     [A0]+, [A1]+
00003434  20D9                     move.l     [A0]+, [A1]+
00003436  30D9                     move.w     [A0]+, [A1]+
00003438  4868 FFF6                pea.l      [A0 - 0xA]
0000343C  3F3C 0016                move.w     -[A7], 0x16
00003440  A9EB                     syscall    Pack4/FP68K
00003442  4868 FFF6                pea.l      [A0 - 0xA]
00003446  486E FFFE                pea.l      [A6 - 0x2]
0000344A  3F3C 2010                move.w     -[A7], 0x2010
0000344E  A9EB                     syscall    Pack4/FP68K
00003450  396E FFFE 001A           move.w     [A4 + 0x1A], [A6 - 0x2]
00003456  3E2C 0018                move.w     D7, [A4 + 0x18]
0000345A  0C47 012C                cmpi.w     D7, 0x12C
0000345E  6E12                     bgt        +0x14 /* 00003472 */
00003460  4A47                     tst.w      D7
00003462  6D0E                     blt        +0x10 /* 00003472 */
00003464  0C6C 012C 001A           cmpi.w     [A4 + 0x1A], 0x12C
0000346A  6E06                     bgt        +0x8 /* 00003472 */
0000346C  4A6C 001A                tst.w      [A4 + 0x1A]
00003470  6C0C                     bge        +0xE /* 0000347E */
label00003472:
00003472  2F0C                     move.l     -[A7], A4
00003474  4EBA F716                jsr        [PC - 0x8EA /* 00002B8C */]
00003478  588F                     addq.l     A7, 4
0000347A  6000 01CE                bra        +0x1D0 /* 0000364A */
label0000347E:
0000347E  2F0C                     move.l     -[A7], A4
00003480  2079 FFFF AEC6           movea.l    A0, [0xFFFFAEC6]
00003486  4E90                     jsr        [A0]
00003488  588F                     addq.l     A7, 4
0000348A  6000 01BE                bra        +0x1C0 /* 0000364A */
0000348E  2F0C                     move.l     -[A7], A4
00003490  2079 FFFF AEC6           movea.l    A0, [0xFFFFAEC6]
00003496  4E90                     jsr        [A0]
00003498  588F                     addq.l     A7, 4
0000349A  6000 01AE                bra        +0x1B0 /* 0000364A */
0000349E  41EC 001E                lea.l      A0, [A4 + 0x1E]
000034A2  487A 01BA                pea.l      [PC + 0x1BA /* 0000365E, value 0x1000C, cstring "" */]
000034A6  4850                     pea.l      [A0]
000034A8  3F3C 2002                move.w     -[A7], 0x2002
000034AC  A9EB                     syscall    Pack4/FP68K
000034AE  3110                     move.w     -[A0], [A0]
000034B0  487A 01AA                pea.l      [PC + 0x1AA /* 0000365C, value 0x1, cstring "" */]
000034B4  486C 001E                pea.l      [A4 + 0x1E]
000034B8  3F3C 2008                move.w     -[A7], 0x2008
000034BC  A9EB                     syscall    Pack4/FP68K
000034BE  6600 018A                bne        +0x18C /* 0000364A */
000034C2  197C 0007 0034           move.b     [A4 + 0x34], 0x7
000034C8  6000 0180                bra        +0x182 /* 0000364A */
000034CC  2F0C                     move.l     -[A7], A4
000034CE  4EBA FA62                jsr        [PC - 0x59E /* 00002F32 */]
000034D2  2E8C                     move.l     [A7], A4
000034D4  2079 FFFF AEC6           movea.l    A0, [0xFFFFAEC6]
000034DA  4E90                     jsr        [A0]
000034DC  588F                     addq.l     A7, 4
000034DE  6000 016A                bra        +0x16C /* 0000364A */
000034E2  2F0C                     move.l     -[A7], A4
000034E4  4EBA F7E2                jsr        [PC - 0x81E /* 00002CC8 */]
000034E8  588F                     addq.l     A7, 4
000034EA  6000 015E                bra        +0x160 /* 0000364A */
000034EE  41EC 0002                lea.l      A0, [A4 + 0x2]
000034F2  486C 001E                pea.l      [A4 + 0x1E]
000034F6  4850                     pea.l      [A0]
000034F8  4267                     clr.w      -[A7]
000034FA  A9EB                     syscall    Pack4/FP68K
000034FC  3110                     move.w     -[A0], [A0]
000034FE  41EC 000E                lea.l      A0, [A4 + 0xE]
00003502  486C 002A                pea.l      [A4 + 0x2A]
00003506  4850                     pea.l      [A0]
00003508  4267                     clr.w      -[A7]
0000350A  A9EB                     syscall    Pack4/FP68K
0000350C  3110                     move.w     -[A0], [A0]
0000350E  41EE FFF4                lea.l      A0, [A6 - 0xC]
00003512  43EC 0002                lea.l      A1, [A4 + 0x2]
00003516  20D9                     move.l     [A0]+, [A1]+
00003518  20D9                     move.l     [A0]+, [A1]+
0000351A  30D9                     move.w     [A0]+, [A1]+
0000351C  4868 FFF6                pea.l      [A0 - 0xA]
00003520  3F3C 0016                move.w     -[A7], 0x16
00003524  A9EB                     syscall    Pack4/FP68K
00003526  4868 FFF6                pea.l      [A0 - 0xA]
0000352A  486E FFFE                pea.l      [A6 - 0x2]
0000352E  3F3C 2010                move.w     -[A7], 0x2010
00003532  A9EB                     syscall    Pack4/FP68K
00003534  396E FFFE 0018           move.w     [A4 + 0x18], [A6 - 0x2]
0000353A  41EE FFF4                lea.l      A0, [A6 - 0xC]
0000353E  43EC 000E                lea.l      A1, [A4 + 0xE]
00003542  20D9                     move.l     [A0]+, [A1]+
00003544  20D9                     move.l     [A0]+, [A1]+
00003546  30D9                     move.w     [A0]+, [A1]+
00003548  4868 FFF6                pea.l      [A0 - 0xA]
0000354C  3F3C 0016                move.w     -[A7], 0x16
00003550  A9EB                     syscall    Pack4/FP68K
00003552  4868 FFF6                pea.l      [A0 - 0xA]
00003556  486E FFFE                pea.l      [A6 - 0x2]
0000355A  3F3C 2010                move.w     -[A7], 0x2010
0000355E  A9EB                     syscall    Pack4/FP68K
00003560  396E FFFE 001A           move.w     [A4 + 0x1A], [A6 - 0x2]
00003566  3E2C 0018                move.w     D7, [A4 + 0x18]
0000356A  0C47 012C                cmpi.w     D7, 0x12C
0000356E  6E12                     bgt        +0x14 /* 00003582 */
00003570  4A47                     tst.w      D7
00003572  6D0E                     blt        +0x10 /* 00003582 */
00003574  0C6C 012C 001A           cmpi.w     [A4 + 0x1A], 0x12C
0000357A  6E06                     bgt        +0x8 /* 00003582 */
0000357C  4A6C 001A                tst.w      [A4 + 0x1A]
00003580  6C0C                     bge        +0xE /* 0000358E */
label00003582:
00003582  2F0C                     move.l     -[A7], A4
00003584  4EBA F606                jsr        [PC - 0x9FA /* 00002B8C */]
00003588  588F                     addq.l     A7, 4
0000358A  6000 00BE                bra        +0xC0 /* 0000364A */
label0000358E:
0000358E  2F0C                     move.l     -[A7], A4
00003590  2079 FFFF AEC6           movea.l    A0, [0xFFFFAEC6]
00003596  4E90                     jsr        [A0]
00003598  4A40                     tst.w      D0
0000359A  588F                     addq.l     A7, 4
0000359C  6600 00AC                bne        +0xAE /* 0000364A */
000035A0  41EC 0002                lea.l      A0, [A4 + 0x2]
000035A4  486C 001E                pea.l      [A4 + 0x1E]
000035A8  4850                     pea.l      [A0]
000035AA  4267                     clr.w      -[A7]
000035AC  A9EB                     syscall    Pack4/FP68K
000035AE  3110                     move.w     -[A0], [A0]
000035B0  41EC 000E                lea.l      A0, [A4 + 0xE]
000035B4  486C 002A                pea.l      [A4 + 0x2A]
000035B8  4850                     pea.l      [A0]
000035BA  4267                     clr.w      -[A7]
000035BC  A9EB                     syscall    Pack4/FP68K
000035BE  3110                     move.w     -[A0], [A0]
000035C0  41EE FFF4                lea.l      A0, [A6 - 0xC]
000035C4  43EC 0002                lea.l      A1, [A4 + 0x2]
000035C8  20D9                     move.l     [A0]+, [A1]+
000035CA  20D9                     move.l     [A0]+, [A1]+
000035CC  30D9                     move.w     [A0]+, [A1]+
000035CE  4868 FFF6                pea.l      [A0 - 0xA]
000035D2  3F3C 0016                move.w     -[A7], 0x16
000035D6  A9EB                     syscall    Pack4/FP68K
000035D8  4868 FFF6                pea.l      [A0 - 0xA]
000035DC  486E FFFE                pea.l      [A6 - 0x2]
000035E0  3F3C 2010                move.w     -[A7], 0x2010
000035E4  A9EB                     syscall    Pack4/FP68K
000035E6  396E FFFE 0018           move.w     [A4 + 0x18], [A6 - 0x2]
000035EC  41EE FFF4                lea.l      A0, [A6 - 0xC]
000035F0  43EC 000E                lea.l      A1, [A4 + 0xE]
000035F4  20D9                     move.l     [A0]+, [A1]+
000035F6  20D9                     move.l     [A0]+, [A1]+
000035F8  30D9                     move.w     [A0]+, [A1]+
000035FA  4868 FFF6                pea.l      [A0 - 0xA]
000035FE  3F3C 0016                move.w     -[A7], 0x16
00003602  A9EB                     syscall    Pack4/FP68K
00003604  4868 FFF6                pea.l      [A0 - 0xA]
00003608  486E FFFE                pea.l      [A6 - 0x2]
0000360C  3F3C 2010                move.w     -[A7], 0x2010
00003610  A9EB                     syscall    Pack4/FP68K
00003612  396E FFFE 001A           move.w     [A4 + 0x1A], [A6 - 0x2]
00003618  3E2C 0018                move.w     D7, [A4 + 0x18]
0000361C  0C47 012C                cmpi.w     D7, 0x12C
00003620  6E12                     bgt        +0x14 /* 00003634 */
00003622  4A47                     tst.w      D7
00003624  6D0E                     blt        +0x10 /* 00003634 */
00003626  0C6C 012C 001A           cmpi.w     [A4 + 0x1A], 0x12C
0000362C  6E06                     bgt        +0x8 /* 00003634 */
0000362E  4A6C 001A                tst.w      [A4 + 0x1A]
00003632  6C0A                     bge        +0xC /* 0000363E */
label00003634:
00003634  2F0C                     move.l     -[A7], A4
00003636  4EBA F554                jsr        [PC - 0xAAC /* 00002B8C */]
0000363A  588F                     addq.l     A7, 4
0000363C  600C                     bra        +0xE /* 0000364A */
label0000363E:
0000363E  2F0C                     move.l     -[A7], A4
00003640  2079 FFFF AEC6           movea.l    A0, [0xFFFFAEC6]
00003646  4E90                     jsr        [A0]
00003648  588F                     addq.l     A7, 4
label0000364A:
0000364A  286C 0038                movea.l    A4, [A4 + 0x38]
label0000364E:
0000364E  200C                     move.l     D0, A4
00003650  6600 FA3E                bne        -0x5C0 /* 00003090 */
00003654  4CDF 1080                movem.l    D7,A4, [A7]+
00003658  4E5E                     unlink     A6
0000365A  4E75                     rts
0000365C  0000 0001                ori.b      D0, 0x1
00003660  000C 0024                ori.b      A4, 0x24 /* '$' */
00003664  0005 0032                ori.b      D5, 0x32 /* '2' */
00003668  FFE2                     .invalid   <<F/7/7>>
0000366A  FA42 FBA4                .extension 0xA42 <<F/1/5>>, 0xFBA4 // unimplemented
0000366E  FC54 FC86                .extension 0xC54 <<F/1/6>>, 0xFC86 // unimplemented
00003672  FC92 FCC4                .extension 0xC92 <<F/2-3/6>> // unimplemented
00003676  FE26 FE36                .unknown   0xFE26 0xFE36 (W = 7)
0000367A  FE64 FE7A                .extension 0xE64 <<F/1/7>>, 0xFE7A // unimplemented
0000367E  FE86 48E7                .extension 0xE86 <<F/2-3/7>> // unimplemented
// begin alternate branch 00003680-00003684
export_39:
00003680  48E7 0108                movem.l    -[A7], D7,A4
// end alternate branch 00003680-00003684
export_39: // at 00003680 (misaligned)
00003682  0108                     btst       A0, D0
00003684  2879 FFFF AACE           movea.l    A4, [0xFFFFAACE]
0000368A  6000 0434                bra        +0x436 /* 00003AC0 */
label0000368E:
0000368E  7000                     moveq.l    D0, 0x00
00003690  102C 0034                move.b     D0, [A4 + 0x34]
00003694  0C40 000B                cmpi.w     D0, 0xB
00003698  6200 0422                bhi        +0x424 /* 00003ABC */
0000369C  43FA 042E                lea.l      A1, [PC + 0x42E /* 00003ACC, value 0xFFF0FBDC */]
000036A0  D040                     add.w      D0, D0
000036A2  D2F1 0000                add.w      A1, [A1 + D0.w]
000036A6  4ED1                     jmp        [A1]
000036A8  F214 4800                fmove      fp0, (extended) [A4]
000036AC  F22C 4822 001C           fadd       fp0, (extended) [A4 + 0x1C]
000036B2  41D4                     lea.l      A0, [A4]
000036B4  F210 6800                fmove      (extended) [A0], fp0
000036B8  3098                     move.w     [A0], [A0]+
000036BA  41EC 000C                lea.l      A0, [A4 + 0xC]
000036BE  F210 4800                fmove      fp0, (extended) [A0]
000036C2  F22C 4822 0028           fadd       fp0, (extended) [A4 + 0x28]
000036C8  F210 6800                fmove      (extended) [A0], fp0
000036CC  3098                     move.w     [A0], [A0]+
000036CE  F214 4803                fintrz     fp0, (extended) [A4]
000036D2  F200 7000                fmove      (int16_t) D0, fp0
000036D6  3940 0018                move.w     [A4 + 0x18], D0
000036DA  F22C 4803 000C           fintrz     fp0, (extended) [A4 + 0xC]
000036E0  F200 7000                fmove      (int16_t) D0, fp0
000036E4  3940 001A                move.w     [A4 + 0x1A], D0
000036E8  3E2C 0018                move.w     D7, [A4 + 0x18]
000036EC  0C47 012C                cmpi.w     D7, 0x12C
000036F0  6E12                     bgt        +0x14 /* 00003704 */
000036F2  4A47                     tst.w      D7
000036F4  6D0E                     blt        +0x10 /* 00003704 */
000036F6  0C6C 012C 001A           cmpi.w     [A4 + 0x1A], 0x12C
000036FC  6E06                     bgt        +0x8 /* 00003704 */
000036FE  4A6C 001A                tst.w      [A4 + 0x1A]
00003702  6C0C                     bge        +0xE /* 00003710 */
label00003704:
00003704  2F0C                     move.l     -[A7], A4
00003706  4EBA F484                jsr        [PC - 0xB7C /* 00002B8C */]
0000370A  588F                     addq.l     A7, 4
0000370C  6000 03AE                bra        +0x3B0 /* 00003ABC */
label00003710:
00003710  2F0C                     move.l     -[A7], A4
00003712  2079 FFFF AEC6           movea.l    A0, [0xFFFFAEC6]
00003718  4E90                     jsr        [A0]
0000371A  4A40                     tst.w      D0
0000371C  588F                     addq.l     A7, 4
0000371E  6600 039C                bne        +0x39E /* 00003ABC */
00003722  F214 4800                fmove      fp0, (extended) [A4]
00003726  F22C 4822 001C           fadd       fp0, (extended) [A4 + 0x1C]
0000372C  41D4                     lea.l      A0, [A4]
0000372E  F210 6800                fmove      (extended) [A0], fp0
00003732  3098                     move.w     [A0], [A0]+
00003734  41EC 000C                lea.l      A0, [A4 + 0xC]
00003738  F210 4800                fmove      fp0, (extended) [A0]
0000373C  F22C 4822 0028           fadd       fp0, (extended) [A4 + 0x28]
00003742  F210 6800                fmove      (extended) [A0], fp0
00003746  3098                     move.w     [A0], [A0]+
00003748  F214 4803                fintrz     fp0, (extended) [A4]
0000374C  F200 7000                fmove      (int16_t) D0, fp0
00003750  3940 0018                move.w     [A4 + 0x18], D0
00003754  F22C 4803 000C           fintrz     fp0, (extended) [A4 + 0xC]
0000375A  F200 7000                fmove      (int16_t) D0, fp0
0000375E  3940 001A                move.w     [A4 + 0x1A], D0
00003762  3E2C 0018                move.w     D7, [A4 + 0x18]
00003766  0C47 012C                cmpi.w     D7, 0x12C
0000376A  6E12                     bgt        +0x14 /* 0000377E */
0000376C  4A47                     tst.w      D7
0000376E  6D0E                     blt        +0x10 /* 0000377E */
00003770  0C6C 012C 001A           cmpi.w     [A4 + 0x1A], 0x12C
00003776  6E06                     bgt        +0x8 /* 0000377E */
00003778  4A6C 001A                tst.w      [A4 + 0x1A]
0000377C  6C0C                     bge        +0xE /* 0000378A */
label0000377E:
0000377E  2F0C                     move.l     -[A7], A4
00003780  4EBA F40A                jsr        [PC - 0xBF6 /* 00002B8C */]
00003784  588F                     addq.l     A7, 4
00003786  6000 0334                bra        +0x336 /* 00003ABC */
label0000378A:
0000378A  2F0C                     move.l     -[A7], A4
0000378C  2079 FFFF AEC6           movea.l    A0, [0xFFFFAEC6]
00003792  4E90                     jsr        [A0]
00003794  588F                     addq.l     A7, 4
00003796  6000 0324                bra        +0x326 /* 00003ABC */
0000379A  F214 4800                fmove      fp0, (extended) [A4]
0000379E  F22C 4822 001C           fadd       fp0, (extended) [A4 + 0x1C]
000037A4  41D4                     lea.l      A0, [A4]
000037A6  F210 6800                fmove      (extended) [A0], fp0
000037AA  3098                     move.w     [A0], [A0]+
000037AC  41EC 000C                lea.l      A0, [A4 + 0xC]
000037B0  F210 4800                fmove      fp0, (extended) [A0]
000037B4  F22C 4822 0028           fadd       fp0, (extended) [A4 + 0x28]
000037BA  F210 6800                fmove      (extended) [A0], fp0
000037BE  3098                     move.w     [A0], [A0]+
000037C0  F214 4803                fintrz     fp0, (extended) [A4]
000037C4  F200 7000                fmove      (int16_t) D0, fp0
000037C8  3940 0018                move.w     [A4 + 0x18], D0
000037CC  F22C 4803 000C           fintrz     fp0, (extended) [A4 + 0xC]
000037D2  F200 7000                fmove      (int16_t) D0, fp0
000037D6  3940 001A                move.w     [A4 + 0x1A], D0
000037DA  3E2C 0018                move.w     D7, [A4 + 0x18]
000037DE  0C47 012C                cmpi.w     D7, 0x12C
000037E2  6E12                     bgt        +0x14 /* 000037F6 */
000037E4  4A47                     tst.w      D7
000037E6  6D0E                     blt        +0x10 /* 000037F6 */
000037E8  0C6C 012C 001A           cmpi.w     [A4 + 0x1A], 0x12C
000037EE  6E06                     bgt        +0x8 /* 000037F6 */
000037F0  4A6C 001A                tst.w      [A4 + 0x1A]
000037F4  6C0C                     bge        +0xE /* 00003802 */
label000037F6:
000037F6  2F0C                     move.l     -[A7], A4
000037F8  4EBA F392                jsr        [PC - 0xC6E /* 00002B8C */]
000037FC  588F                     addq.l     A7, 4
000037FE  6000 02BC                bra        +0x2BE /* 00003ABC */
label00003802:
00003802  2F0C                     move.l     -[A7], A4
00003804  2079 FFFF AEC6           movea.l    A0, [0xFFFFAEC6]
0000380A  4E90                     jsr        [A0]
0000380C  588F                     addq.l     A7, 4
0000380E  6000 02AC                bra        +0x2AE /* 00003ABC */
00003812  F23C 5000 0032           fmove      fp0, (int16_t) 0x32 /* '2' */
00003818  F22C 4838 001C           fcmp       fp0, (extended) [A4 + 0x1C]
0000381E  F29D 001A                .extension 0x29D <<F/2-3/1>> // unimplemented
00003822  41EC 001C                lea.l      A0, [A4 + 0x1C]
00003826  F210 4800                fmove      fp0, (extended) [A0]
0000382A  F23C 5022 0005           fadd       fp0, (int16_t) 0x5
00003830  F210 6800                fmove      (extended) [A0], fp0
00003834  3098                     move.w     [A0], [A0]+
00003836  6000 0284                bra        +0x286 /* 00003ABC */
0000383A  2F0C                     move.l     -[A7], A4
0000383C  4EBA F562                jsr        [PC - 0xA9E /* 00002DA0 */]
00003840  588F                     addq.l     A7, 4
00003842  6000 0278                bra        +0x27A /* 00003ABC */
00003846  2F0C                     move.l     -[A7], A4
00003848  4EBA F38E                jsr        [PC - 0xC72 /* 00002BD8 */]
0000384C  588F                     addq.l     A7, 4
0000384E  6000 026C                bra        +0x26E /* 00003ABC */
00003852  F23C 5000 0024           fmove      fp0, (int16_t) 0x24 /* '$' */
00003858  F22C 4838 001C           fcmp       fp0, (extended) [A4 + 0x1C]
0000385E  F29D 001A                .extension 0x29D <<F/2-3/1>> // unimplemented
00003862  41EC 001C                lea.l      A0, [A4 + 0x1C]
00003866  F210 4800                fmove      fp0, (extended) [A0]
0000386A  F23C 5022 000C           fadd       fp0, (int16_t) 0xC
00003870  F210 6800                fmove      (extended) [A0], fp0
00003874  3098                     move.w     [A0], [A0]+
00003876  6000 0244                bra        +0x246 /* 00003ABC */
0000387A  2F0C                     move.l     -[A7], A4
0000387C  4EBA F522                jsr        [PC - 0xADE /* 00002DA0 */]
00003880  588F                     addq.l     A7, 4
00003882  6000 0238                bra        +0x23A /* 00003ABC */
00003886  F214 4800                fmove      fp0, (extended) [A4]
0000388A  F22C 4822 001C           fadd       fp0, (extended) [A4 + 0x1C]
00003890  41D4                     lea.l      A0, [A4]
00003892  F210 6800                fmove      (extended) [A0], fp0
00003896  3098                     move.w     [A0], [A0]+
00003898  41EC 000C                lea.l      A0, [A4 + 0xC]
0000389C  F210 4800                fmove      fp0, (extended) [A0]
000038A0  F22C 4822 0028           fadd       fp0, (extended) [A4 + 0x28]
000038A6  F210 6800                fmove      (extended) [A0], fp0
000038AA  3098                     move.w     [A0], [A0]+
000038AC  F214 4803                fintrz     fp0, (extended) [A4]
000038B0  F200 7000                fmove      (int16_t) D0, fp0
000038B4  3940 0018                move.w     [A4 + 0x18], D0
000038B8  F22C 4803 000C           fintrz     fp0, (extended) [A4 + 0xC]
000038BE  F200 7000                fmove      (int16_t) D0, fp0
000038C2  3940 001A                move.w     [A4 + 0x1A], D0
000038C6  3E2C 0018                move.w     D7, [A4 + 0x18]
000038CA  0C47 012C                cmpi.w     D7, 0x12C
000038CE  6E12                     bgt        +0x14 /* 000038E2 */
000038D0  4A47                     tst.w      D7
000038D2  6D0E                     blt        +0x10 /* 000038E2 */
000038D4  0C6C 012C 001A           cmpi.w     [A4 + 0x1A], 0x12C
000038DA  6E06                     bgt        +0x8 /* 000038E2 */
000038DC  4A6C 001A                tst.w      [A4 + 0x1A]
000038E0  6C0C                     bge        +0xE /* 000038EE */
label000038E2:
000038E2  2F0C                     move.l     -[A7], A4
000038E4  4EBA F2A6                jsr        [PC - 0xD5A /* 00002B8C */]
000038E8  588F                     addq.l     A7, 4
000038EA  6000 01D0                bra        +0x1D2 /* 00003ABC */
label000038EE:
000038EE  2F0C                     move.l     -[A7], A4
000038F0  2079 FFFF AEC6           movea.l    A0, [0xFFFFAEC6]
000038F6  4E90                     jsr        [A0]
000038F8  4A40                     tst.w      D0
000038FA  588F                     addq.l     A7, 4
000038FC  6600 01BE                bne        +0x1C0 /* 00003ABC */
00003900  F214 4800                fmove      fp0, (extended) [A4]
00003904  F22C 4822 001C           fadd       fp0, (extended) [A4 + 0x1C]
0000390A  41D4                     lea.l      A0, [A4]
0000390C  F210 6800                fmove      (extended) [A0], fp0
00003910  3098                     move.w     [A0], [A0]+
00003912  41EC 000C                lea.l      A0, [A4 + 0xC]
00003916  F210 4800                fmove      fp0, (extended) [A0]
0000391A  F22C 4822 0028           fadd       fp0, (extended) [A4 + 0x28]
00003920  F210 6800                fmove      (extended) [A0], fp0
00003924  3098                     move.w     [A0], [A0]+
00003926  F214 4803                fintrz     fp0, (extended) [A4]
0000392A  F200 7000                fmove      (int16_t) D0, fp0
0000392E  3940 0018                move.w     [A4 + 0x18], D0
00003932  F22C 4803 000C           fintrz     fp0, (extended) [A4 + 0xC]
00003938  F200 7000                fmove      (int16_t) D0, fp0
0000393C  3940 001A                move.w     [A4 + 0x1A], D0
00003940  3E2C 0018                move.w     D7, [A4 + 0x18]
00003944  0C47 012C                cmpi.w     D7, 0x12C
00003948  6E12                     bgt        +0x14 /* 0000395C */
0000394A  4A47                     tst.w      D7
0000394C  6D0E                     blt        +0x10 /* 0000395C */
0000394E  0C6C 012C 001A           cmpi.w     [A4 + 0x1A], 0x12C
00003954  6E06                     bgt        +0x8 /* 0000395C */
00003956  4A6C 001A                tst.w      [A4 + 0x1A]
0000395A  6C0C                     bge        +0xE /* 00003968 */
label0000395C:
0000395C  2F0C                     move.l     -[A7], A4
0000395E  4EBA F22C                jsr        [PC - 0xDD4 /* 00002B8C */]
00003962  588F                     addq.l     A7, 4
00003964  6000 0156                bra        +0x158 /* 00003ABC */
label00003968:
00003968  2F0C                     move.l     -[A7], A4
0000396A  2079 FFFF AEC6           movea.l    A0, [0xFFFFAEC6]
00003970  4E90                     jsr        [A0]
00003972  588F                     addq.l     A7, 4
00003974  6000 0146                bra        +0x148 /* 00003ABC */
00003978  2F0C                     move.l     -[A7], A4
0000397A  2079 FFFF AEC6           movea.l    A0, [0xFFFFAEC6]
00003980  4E90                     jsr        [A0]
00003982  588F                     addq.l     A7, 4
00003984  6000 0136                bra        +0x138 /* 00003ABC */
00003988  41EC 001C                lea.l      A0, [A4 + 0x1C]
0000398C  F210 4800                fmove      fp0, (extended) [A0]
00003990  F23C 5028 0001           fsub       fp0, (int16_t) 0x1
00003996  F210 6800                fmove      (extended) [A0], fp0
0000399A  3098                     move.w     [A0], [A0]+
0000399C  F22C 483A 001C           ftst       fp0, (extended) [A4 + 0x1C]
000039A2  F29E 0118                .extension 0x29E <<F/2-3/1>> // unimplemented
000039A6  197C 0007 0034           move.b     [A4 + 0x34], 0x7
000039AC  6000 010E                bra        +0x110 /* 00003ABC */
000039B0  2F0C                     move.l     -[A7], A4
000039B2  4EBA F57E                jsr        [PC - 0xA82 /* 00002F32 */]
000039B6  2E8C                     move.l     [A7], A4
000039B8  2079 FFFF AEC6           movea.l    A0, [0xFFFFAEC6]
000039BE  4E90                     jsr        [A0]
000039C0  588F                     addq.l     A7, 4
000039C2  6000 00F8                bra        +0xFA /* 00003ABC */
000039C6  2F0C                     move.l     -[A7], A4
000039C8  4EBA F2FE                jsr        [PC - 0xD02 /* 00002CC8 */]
000039CC  588F                     addq.l     A7, 4
000039CE  6000 00EC                bra        +0xEE /* 00003ABC */
000039D2  F214 4800                fmove      fp0, (extended) [A4]
000039D6  F22C 4822 001C           fadd       fp0, (extended) [A4 + 0x1C]
000039DC  41D4                     lea.l      A0, [A4]
000039DE  F210 6800                fmove      (extended) [A0], fp0
000039E2  3098                     move.w     [A0], [A0]+
000039E4  41EC 000C                lea.l      A0, [A4 + 0xC]
000039E8  F210 4800                fmove      fp0, (extended) [A0]
000039EC  F22C 4822 0028           fadd       fp0, (extended) [A4 + 0x28]
000039F2  F210 6800                fmove      (extended) [A0], fp0
000039F6  3098                     move.w     [A0], [A0]+
000039F8  F214 4803                fintrz     fp0, (extended) [A4]
000039FC  F200 7000                fmove      (int16_t) D0, fp0
00003A00  3940 0018                move.w     [A4 + 0x18], D0
00003A04  F22C 4803 000C           fintrz     fp0, (extended) [A4 + 0xC]
00003A0A  F200 7000                fmove      (int16_t) D0, fp0
00003A0E  3940 001A                move.w     [A4 + 0x1A], D0
00003A12  3E2C 0018                move.w     D7, [A4 + 0x18]
00003A16  0C47 012C                cmpi.w     D7, 0x12C
00003A1A  6E12                     bgt        +0x14 /* 00003A2E */
00003A1C  4A47                     tst.w      D7
00003A1E  6D0E                     blt        +0x10 /* 00003A2E */
00003A20  0C6C 012C 001A           cmpi.w     [A4 + 0x1A], 0x12C
00003A26  6E06                     bgt        +0x8 /* 00003A2E */
00003A28  4A6C 001A                tst.w      [A4 + 0x1A]
00003A2C  6C0C                     bge        +0xE /* 00003A3A */
label00003A2E:
00003A2E  2F0C                     move.l     -[A7], A4
00003A30  4EBA F15A                jsr        [PC - 0xEA6 /* 00002B8C */]
00003A34  588F                     addq.l     A7, 4
00003A36  6000 0084                bra        +0x86 /* 00003ABC */
label00003A3A:
00003A3A  2F0C                     move.l     -[A7], A4
00003A3C  2079 FFFF AEC6           movea.l    A0, [0xFFFFAEC6]
00003A42  4E90                     jsr        [A0]
00003A44  4A40                     tst.w      D0
00003A46  588F                     addq.l     A7, 4
00003A48  6672                     bne        +0x74 /* 00003ABC */
00003A4A  F214 4800                fmove      fp0, (extended) [A4]
00003A4E  F22C 4822 001C           fadd       fp0, (extended) [A4 + 0x1C]
00003A54  41D4                     lea.l      A0, [A4]
00003A56  F210 6800                fmove      (extended) [A0], fp0
00003A5A  3098                     move.w     [A0], [A0]+
00003A5C  41EC 000C                lea.l      A0, [A4 + 0xC]
00003A60  F210 4800                fmove      fp0, (extended) [A0]
00003A64  F22C 4822 0028           fadd       fp0, (extended) [A4 + 0x28]
00003A6A  F210 6800                fmove      (extended) [A0], fp0
00003A6E  3098                     move.w     [A0], [A0]+
00003A70  F214 4803                fintrz     fp0, (extended) [A4]
00003A74  F200 7000                fmove      (int16_t) D0, fp0
00003A78  3940 0018                move.w     [A4 + 0x18], D0
00003A7C  F22C 4803 000C           fintrz     fp0, (extended) [A4 + 0xC]
00003A82  F200 7000                fmove      (int16_t) D0, fp0
00003A86  3940 001A                move.w     [A4 + 0x1A], D0
00003A8A  3E2C 0018                move.w     D7, [A4 + 0x18]
00003A8E  0C47 012C                cmpi.w     D7, 0x12C
00003A92  6E12                     bgt        +0x14 /* 00003AA6 */
00003A94  4A47                     tst.w      D7
00003A96  6D0E                     blt        +0x10 /* 00003AA6 */
00003A98  0C6C 012C 001A           cmpi.w     [A4 + 0x1A], 0x12C
00003A9E  6E06                     bgt        +0x8 /* 00003AA6 */
00003AA0  4A6C 001A                tst.w      [A4 + 0x1A]
00003AA4  6C0A                     bge        +0xC /* 00003AB0 */
label00003AA6:
00003AA6  2F0C                     move.l     -[A7], A4
00003AA8  4EBA F0E2                jsr        [PC - 0xF1E /* 00002B8C */]
00003AAC  588F                     addq.l     A7, 4
00003AAE  600C                     bra        +0xE /* 00003ABC */
label00003AB0:
00003AB0  2F0C                     move.l     -[A7], A4
00003AB2  2079 FFFF AEC6           movea.l    A0, [0xFFFFAEC6]
00003AB8  4E90                     jsr        [A0]
00003ABA  588F                     addq.l     A7, 4
label00003ABC:
00003ABC  286C 0038                movea.l    A4, [A4 + 0x38]
label00003AC0:
00003AC0  200C                     move.l     D0, A4
00003AC2  6600 FBCA                bne        -0x434 /* 0000368E */
00003AC6  4CDF 1080                movem.l    D7,A4, [A7]+
00003ACA  4E75                     rts
00003ACC  FFF0                     .invalid   <<F/7/7>>
00003ACE  FBDC                     .invalid   <<F/7/5>>
00003AD0  FCCE FD46                .extension 0xCCE <<F/2-3/6>> // unimplemented
00003AD4  FD7A                     .extension 0xD7A <<F/4-5/6>> // unimplemented
00003AD6  FD86                     .invalid   <<F/6/6>>
00003AD8  FDBA                     .invalid   <<F/6/6>>
00003ADA  FEAC FEBC                .extension 0xEAC <<F/2-3/7>> // unimplemented
00003ADE  FEE4 FEFA                .extension 0xEE4 <<F/2-3/7>> // unimplemented
00003AE2  FF06                     .extension 0xF06 <<F/4-5/7>> // unimplemented
fn00003AE4:
00003AE4  2F07                     move.l     -[A7], D7
00003AE6  4A39 FFFF 9082           tst.b      [0xFFFF9082]
00003AEC  6718                     beq        +0x1A /* 00003B06 */
00003AEE  4227                     clr.b      -[A7]
00003AF0  3F3C FFFF                move.w     -[A7], 0xFFFF
00003AF4  2F3C FFFF 7D5A           move.l     -[A7], 0xFFFF7D5A
00003AFA  42A7                     clr.l      -[A7]
00003AFC  42A7                     clr.l      -[A7]
00003AFE  A860                     syscall    WaitNextEvent
00003B00  7E00                     moveq.l    D7, 0x00
00003B02  1E1F                     move.b     D7, [A7]+
00003B04  6014                     bra        +0x16 /* 00003B1A */
label00003B06:
00003B06  A9B4                     syscall    SystemTask
00003B08  4227                     clr.b      -[A7]
00003B0A  3F3C FFFF                move.w     -[A7], 0xFFFF
00003B0E  2F3C FFFF 7D5A           move.l     -[A7], 0xFFFF7D5A
00003B14  A970                     syscall    GetNextEvent
00003B16  7E00                     moveq.l    D7, 0x00
00003B18  1E1F                     move.b     D7, [A7]+
label00003B1A:
00003B1A  4A47                     tst.w      D7
00003B1C  6734                     beq        +0x36 /* 00003B52 */
00003B1E  3039 FFFF 7D5A           move.w     D0, [0xFFFF7D5A]
00003B24  0C40 0008                cmpi.w     D0, 0x8
00003B28  6228                     bhi        +0x2A /* 00003B52 */
00003B2A  43FA 002A                lea.l      A1, [PC + 0x2A /* 00003B56, value 0xFFFCFFE0 */]
00003B2E  D040                     add.w      D0, D0
00003B30  D2F1 0000                add.w      A1, [A1 + D0.w]
00003B34  4ED1                     jmp        [A1]
00003B36  4EAD 00C2                jsr        [A5 + 0xC2 /* export_20, CODE:4 @ 00005CB8 */]
00003B3A  6016                     bra        +0x18 /* 00003B52 */
00003B3C  4EAD 00CA                jsr        [A5 + 0xCA /* export_21, CODE:4 @ 00005D44 */]
00003B40  6010                     bra        +0x12 /* 00003B52 */
00003B42  4EAD 00D2                jsr        [A5 + 0xD2 /* export_22, CODE:4 @ 00005DFE */]
00003B46  600A                     bra        +0xC /* 00003B52 */
00003B48  4EAD 00DA                jsr        [A5 + 0xDA /* export_23, CODE:4 @ 00006078 */]
00003B4C  6004                     bra        +0x6 /* 00003B52 */
00003B4E  4EAD 00E2                jsr        [A5 + 0xE2 /* export_24, CODE:4 @ 000060A4 */]
label00003B52:
00003B52  2E1F                     move.l     D7, [A7]+
00003B54  4E75                     rts
00003B56  FFFC                     .invalid   <<F/7/7>>
00003B58  FFE0                     .invalid   <<F/7/7>>
00003B5A  FFFC                     .invalid   <<F/7/7>>
00003B5C  FFE6                     .invalid   <<F/7/7>>
00003B5E  FFFC                     .invalid   <<F/7/7>>
00003B60  FFE6                     .invalid   <<F/7/7>>
00003B62  FFF2                     .invalid   <<F/7/7>>
00003B64  FFF8                     .invalid   <<F/7/7>>
00003B66  FFEC                     .invalid   <<F/7/7>>
export_40:
00003B68  4E56 FFA8                link       A6, -0x0058
00003B6C  48E7 0F08                movem.l    -[A7], D4,D5,D6,D7,A4
00003B70  42A7                     clr.l      -[A7]
00003B72  A975                     syscall    TickCount
00003B74  23DF FFFF B7CA           move.l     [0xFFFFB7CA], [A7]+
00003B7A  4EAD 029A                jsr        [A5 + 0x29A /* export_79, CODE:2 @ 00001BD0 */]
00003B7E  4EAD 0302                jsr        [A5 + 0x302 /* export_92, CODE:2 @ 000024D6 */]
00003B82  4279 FFFF AEB8           clr.w      [0xFFFFAEB8]
00003B88  4A79 FFFF 9236           tst.w      [0xFFFF9236]
00003B8E  6602                     bne        +0x4 /* 00003B92 */
00003B90  7A00                     moveq.l    D5, 0x00
label00003B92:
00003B92  2079 FFFF AECA           movea.l    A0, [0xFFFFAECA]
00003B98  4E90                     jsr        [A0]
00003B9A  7C00                     moveq.l    D6, 0x00
00003B9C  287C FFFF 9442           movea.l    A4, 0xFFFF9442
00003BA2  6012                     bra        +0x14 /* 00003BB6 */
label00003BA4:
00003BA4  426C 0110                clr.w      [A4 + 0x110]
00003BA8  426C 0114                clr.w      [A4 + 0x114]
00003BAC  426C 0112                clr.w      [A4 + 0x112]
00003BB0  5246                     addq.w     D6, 1
00003BB2  49EC 03C2                lea.l      A4, [A4 + 0x3C2]
label00003BB6:
00003BB6  BC79 FFFF 9226           cmp.w      D6, [0xFFFF9226]
00003BBC  6DE6                     blt        -0x18 /* 00003BA4 */
00003BBE  7C00                     moveq.l    D6, 0x00
00003BC0  287C FFFF 9442           movea.l    A4, 0xFFFF9442
00003BC6  6000 011A                bra        +0x11C /* 00003CE2 */
label00003BCA:
00003BCA  23CC FFFF AEB4           move.l     [0xFFFFAEB4], A4
00003BD0  2079 FFFF AEB4           movea.l    A0, [0xFFFFAEB4]
00003BD6  4A28 0116                tst.b      [A0 + 0x116]
00003BDA  6700 00F0                beq        +0xF2 /* 00003CCC */
00003BDE  2079 FFFF AEB4           movea.l    A0, [0xFFFFAEB4]
00003BE4  4A68 0378                tst.w      [A0 + 0x378]
00003BE8  6600 00E2                bne        +0xE4 /* 00003CCC */
00003BEC  2079 FFFF AEB4           movea.l    A0, [0xFFFFAEB4]
00003BF2  3028 00FE                move.w     D0, [A0 + 0xFE]
00003BF6  B068 0306                cmp.w      D0, [A0 + 0x306]
00003BFA  6C26                     bge        +0x28 /* 00003C22 */
00003BFC  2079 FFFF AEB4           movea.l    A0, [0xFFFFAEB4]
00003C02  5468 00FE                addq.w     [A0 + 0xFE], 2
00003C06  2079 FFFF AEB4           movea.l    A0, [0xFFFFAEB4]
00003C0C  3028 00FE                move.w     D0, [A0 + 0xFE]
00003C10  B068 0306                cmp.w      D0, [A0 + 0x306]
00003C14  6F0C                     ble        +0xE /* 00003C22 */
00003C16  2079 FFFF AEB4           movea.l    A0, [0xFFFFAEB4]
00003C1C  3168 0306 00FE           move.w     [A0 + 0xFE], [A0 + 0x306]
label00003C22:
00003C22  2079 FFFF AEB4           movea.l    A0, [0xFFFFAEB4]
00003C28  3828 0100                move.w     D4, [A0 + 0x100]
00003C2C  4A44                     tst.w      D4
00003C2E  674E                     beq        +0x50 /* 00003C7E */
00003C30  2079 FFFF AEB4           movea.l    A0, [0xFFFFAEB4]
00003C36  B868 030A                cmp.w      D4, [A0 + 0x30A]
00003C3A  6F0C                     ble        +0xE /* 00003C48 */
00003C3C  2079 FFFF AEB4           movea.l    A0, [0xFFFFAEB4]
00003C42  5568 0100                subq.w     [A0 + 0x100], 2
00003C46  6020                     bra        +0x22 /* 00003C68 */
label00003C48:
00003C48  4A44                     tst.w      D4
00003C4A  6F1C                     ble        +0x1E /* 00003C68 */
00003C4C  4878 0002                push.l     0x2
00003C50  2F39 FFFF B7C6           move.l     -[A7], [0xFFFFB7C6]
00003C56  4EAD 0062                jsr        [A5 + 0x62 /* export_8, CODE:1 @ 00000380 */]
00003C5A  4A80                     tst.l      D0
00003C5C  670A                     beq        +0xC /* 00003C68 */
00003C5E  2079 FFFF AEB4           movea.l    A0, [0xFFFFAEB4]
00003C64  5368 0100                subq.w     [A0 + 0x100], 1
label00003C68:
00003C68  2079 FFFF AEB4           movea.l    A0, [0xFFFFAEB4]
00003C6E  4A68 0100                tst.w      [A0 + 0x100]
00003C72  6C0A                     bge        +0xC /* 00003C7E */
00003C74  2079 FFFF AEB4           movea.l    A0, [0xFFFFAEB4]
00003C7A  4268 0100                clr.w      [A0 + 0x100]
label00003C7E:
00003C7E  2079 FFFF AEB4           movea.l    A0, [0xFFFFAEB4]
00003C84  4A68 00FE                tst.w      [A0 + 0xFE]
00003C88  6F1C                     ble        +0x1E /* 00003CA6 */
00003C8A  2079 FFFF AEB4           movea.l    A0, [0xFFFFAEB4]
00003C90  3028 0104                move.w     D0, [A0 + 0x104]
00003C94  D168 0030                add.w      [A0 + 0x30], D0
00003C98  2079 FFFF AEB4           movea.l    A0, [0xFFFFAEB4]
00003C9E  3028 0106                move.w     D0, [A0 + 0x106]
00003CA2  D168 0032                add.w      [A0 + 0x32], D0
label00003CA6:
00003CA6  2079 FFFF AEB4           movea.l    A0, [0xFFFFAEB4]
00003CAC  0C68 FF38 00FE           cmpi.w     [A0 + 0xFE], 0xFF38
00003CB2  6C18                     bge        +0x1A /* 00003CCC */
00003CB4  2079 FFFF AEB4           movea.l    A0, [0xFFFFAEB4]
00003CBA  317C FFF6 0108           move.w     [A0 + 0x108], 0xFFF6
00003CC0  2079 FFFF AEB4           movea.l    A0, [0xFFFFAEB4]
00003CC6  317C 7D01 010E           move.w     [A0 + 0x10E], 0x7D01
label00003CCC:
00003CCC  2079 FFFF AEB4           movea.l    A0, [0xFFFFAEB4]
00003CD2  4A28 0116                tst.b      [A0 + 0x116]
00003CD6  6704                     beq        +0x6 /* 00003CDC */
00003CD8  4EBA E732                jsr        [PC - 0x18CE /* 0000240C */]
label00003CDC:
00003CDC  5246                     addq.w     D6, 1
00003CDE  49EC 03C2                lea.l      A4, [A4 + 0x3C2]
label00003CE2:
00003CE2  BC79 FFFF 9226           cmp.w      D6, [0xFFFF9226]
00003CE8  6D00 FEE0                blt        -0x11E /* 00003BCA */
00003CEC  7C00                     moveq.l    D6, 0x00
00003CEE  287C FFFF 9442           movea.l    A4, 0xFFFF9442
00003CF4  6020                     bra        +0x22 /* 00003D16 */
label00003CF6:
00003CF6  23CC FFFF AEB4           move.l     [0xFFFFAEB4], A4
00003CFC  2079 FFFF AEB4           movea.l    A0, [0xFFFFAEB4]
00003D02  4A28 0116                tst.b      [A0 + 0x116]
00003D06  6708                     beq        +0xA /* 00003D10 */
00003D08  4EBA E868                jsr        [PC - 0x1798 /* 00002572 */]
00003D0C  4EBA E8F8                jsr        [PC - 0x1708 /* 00002606 */]
label00003D10:
00003D10  5246                     addq.w     D6, 1
00003D12  49EC 03C2                lea.l      A4, [A4 + 0x3C2]
label00003D16:
00003D16  BC79 FFFF 9226           cmp.w      D6, [0xFFFF9226]
00003D1C  6DD8                     blt        -0x26 /* 00003CF6 */
00003D1E  7C00                     moveq.l    D6, 0x00
00003D20  287C FFFF 9442           movea.l    A4, 0xFFFF9442
00003D26  6000 0110                bra        +0x112 /* 00003E38 */
label00003D2A:
00003D2A  23CC FFFF AEB4           move.l     [0xFFFFAEB4], A4
00003D30  2079 FFFF AEB4           movea.l    A0, [0xFFFFAEB4]
00003D36  4A28 0116                tst.b      [A0 + 0x116]
00003D3A  6700 00C8                beq        +0xCA /* 00003E04 */
00003D3E  2F39 FFFF AEB4           move.l     -[A7], [0xFFFFAEB4]
00003D44  4EBA 0834                jsr        [PC + 0x834 /* 0000457A */]
00003D48  2EB9 FFFF AEB4           move.l     [A7], [0xFFFFAEB4]
00003D4E  4EBA 0A78                jsr        [PC + 0xA78 /* 000047C8 */]
00003D52  2EB9 FFFF AEB4           move.l     [A7], [0xFFFFAEB4]
00003D58  4EBA 095E                jsr        [PC + 0x95E /* 000046B8 */]
00003D5C  2EB9 FFFF AEB4           move.l     [A7], [0xFFFFAEB4]
00003D62  4EBA 09C8                jsr        [PC + 0x9C8 /* 0000472C */]
00003D66  2EB9 FFFF AEB4           move.l     [A7], [0xFFFFAEB4]
00003D6C  4EBA 07B8                jsr        [PC + 0x7B8 /* 00004526 */]
00003D70  2079 FFFF AEB4           movea.l    A0, [0xFFFFAEB4]
00003D76  4A68 0378                tst.w      [A0 + 0x378]
00003D7A  588F                     addq.l     A7, 4
00003D7C  670E                     beq        +0x10 /* 00003D8C */
00003D7E  2079 FFFF AEB4           movea.l    A0, [0xFFFFAEB4]
00003D84  5368 0378                subq.w     [A0 + 0x378], 1
00003D88  6000 00A8                bra        +0xAA /* 00003E32 */
label00003D8C:
00003D8C  2079 FFFF AEB4           movea.l    A0, [0xFFFFAEB4]
00003D92  4A68 00FE                tst.w      [A0 + 0xFE]
00003D96  6F40                     ble        +0x42 /* 00003DD8 */
00003D98  2079 FFFF AEB4           movea.l    A0, [0xFFFFAEB4]
00003D9E  4A28 0116                tst.b      [A0 + 0x116]
00003DA2  6734                     beq        +0x36 /* 00003DD8 */
00003DA4  BC79 FFFF 923A           cmp.w      D6, [0xFFFF923A]
00003DAA  6608                     bne        +0xA /* 00003DB4 */
00003DAC  4A79 FFFF 923E           tst.w      [0xFFFF923E]
00003DB2  6624                     bne        +0x26 /* 00003DD8 */
label00003DB4:
00003DB4  4279 FFFF AEBA           clr.w      [0xFFFFAEBA]
00003DBA  600A                     bra        +0xC /* 00003DC6 */
label00003DBC:
00003DBC  4EBA E266                jsr        [PC - 0x1D9A /* 00002024 */]
00003DC0  5279 FFFF AEBA           addq.w     [0xFFFFAEBA], 1
label00003DC6:
00003DC6  2079 FFFF AEB4           movea.l    A0, [0xFFFFAEB4]
00003DCC  3039 FFFF AEBA           move.w     D0, [0xFFFFAEBA]
00003DD2  B068 030C                cmp.w      D0, [A0 + 0x30C]
00003DD6  6DE4                     blt        -0x1A /* 00003DBC */
label00003DD8:
00003DD8  2079 FFFF AEB4           movea.l    A0, [0xFFFFAEB4]
00003DDE  0C68 FF38 00FE           cmpi.w     [A0 + 0xFE], 0xFF38
00003DE4  6C4C                     bge        +0x4E /* 00003E32 */
00003DE6  2079 FFFF AEB4           movea.l    A0, [0xFFFFAEB4]
00003DEC  317C FFF6 0108           move.w     [A0 + 0x108], 0xFFF6
00003DF2  2079 FFFF AEB4           movea.l    A0, [0xFFFFAEB4]
00003DF8  317C 7D01 010E           move.w     [A0 + 0x10E], 0x7D01
00003DFE  4EBA E806                jsr        [PC - 0x17FA /* 00002606 */]
00003E02  602E                     bra        +0x30 /* 00003E32 */
label00003E04:
00003E04  2079 FFFF AEB4           movea.l    A0, [0xFFFFAEB4]
00003E0A  4A68 0102                tst.w      [A0 + 0x102]
00003E0E  6722                     beq        +0x24 /* 00003E32 */
00003E10  2079 FFFF AEB4           movea.l    A0, [0xFFFFAEB4]
00003E16  5268 0102                addq.w     [A0 + 0x102], 1
00003E1A  2079 FFFF AEB4           movea.l    A0, [0xFFFFAEB4]
00003E20  0C68 000F 0102           cmpi.w     [A0 + 0x102], 0xF
00003E26  6F0A                     ble        +0xC /* 00003E32 */
00003E28  2079 FFFF AEB4           movea.l    A0, [0xFFFFAEB4]
00003E2E  4268 0102                clr.w      [A0 + 0x102]
label00003E32:
00003E32  5246                     addq.w     D6, 1
00003E34  49EC 03C2                lea.l      A4, [A4 + 0x3C2]
label00003E38:
00003E38  BC79 FFFF 9226           cmp.w      D6, [0xFFFF9226]
00003E3E  6D00 FEEA                blt        -0x114 /* 00003D2A */
00003E42  4A79 FFFF 923C           tst.w      [0xFFFF923C]
00003E48  6700 00B6                beq        +0xB8 /* 00003F00 */
00003E4C  303C 03C2                move.w     D0, 0x3C2
00003E50  C1F9 FFFF 923A           muls.w     D0, [0xFFFF923A]
00003E56  0680 FFFF 9442           addi.l     D0, 0xFFFF9442
00003E5C  23C0 FFFF AEB4           move.l     [0xFFFFAEB4], D0
00003E62  4279 FFFF AEBA           clr.w      [0xFFFFAEBA]
00003E68  4279 FFFF 9240           clr.w      [0xFFFF9240]
00003E6E  2040                     movea.l    A0, D0
00003E70  3C28 00FE                move.w     D6, [A0 + 0xFE]
label00003E74:
00003E74  4279 FFFF 923E           clr.w      [0xFFFF923E]
00003E7A  4EBA FC68                jsr        [PC - 0x398 /* 00003AE4 */]
00003E7E  4A79 FFFF 923E           tst.w      [0xFFFF923E]
00003E84  674C                     beq        +0x4E /* 00003ED2 */
00003E86  4A46                     tst.w      D6
00003E88  6F40                     ble        +0x42 /* 00003ECA */
00003E8A  2079 FFFF AEB4           movea.l    A0, [0xFFFFAEB4]
00003E90  4A28 0116                tst.b      [A0 + 0x116]
00003E94  6734                     beq        +0x36 /* 00003ECA */
00003E96  2079 FFFF AEB4           movea.l    A0, [0xFFFFAEB4]
00003E9C  4A68 0378                tst.w      [A0 + 0x378]
00003EA0  6604                     bne        +0x6 /* 00003EA6 */
00003EA2  4EBA E180                jsr        [PC - 0x1E80 /* 00002024 */]
label00003EA6:
00003EA6  5279 FFFF AEBA           addq.w     [0xFFFFAEBA], 1
00003EAC  0C79 0001 FFFF 9230      cmpi.w     [0xFFFF9230], 0x1
00003EB4  6604                     bne        +0x6 /* 00003EBA */
00003EB6  4EAD 029A                jsr        [A5 + 0x29A /* export_79, CODE:2 @ 00001BD0 */]
label00003EBA:
00003EBA  0C79 0003 FFFF 9230      cmpi.w     [0xFFFF9230], 0x3
00003EC2  6C0E                     bge        +0x10 /* 00003ED2 */
00003EC4  4EAD 0302                jsr        [A5 + 0x302 /* export_92, CODE:2 @ 000024D6 */]
00003EC8  6008                     bra        +0xA /* 00003ED2 */
label00003ECA:
00003ECA  33FC 0001 FFFF 9240      move.w     [0xFFFF9240], 0x1
label00003ED2:
00003ED2  4A79 FFFF 9240           tst.w      [0xFFFF9240]
00003ED8  662A                     bne        +0x2C /* 00003F04 */
00003EDA  4A79 FFFF 923C           tst.w      [0xFFFF923C]
00003EE0  6722                     beq        +0x24 /* 00003F04 */
00003EE2  4A79 FFFF 922C           tst.w      [0xFFFF922C]
00003EE8  671A                     beq        +0x1C /* 00003F04 */
00003EEA  2079 FFFF AEB4           movea.l    A0, [0xFFFFAEB4]
00003EF0  3039 FFFF AEBA           move.w     D0, [0xFFFFAEBA]
00003EF6  B068 030C                cmp.w      D0, [A0 + 0x30C]
00003EFA  6D00 FF78                blt        -0x86 /* 00003E74 */
00003EFE  6004                     bra        +0x6 /* 00003F04 */
label00003F00:
00003F00  4EBA FBE2                jsr        [PC - 0x41E /* 00003AE4 */]
label00003F04:
00003F04  4A79 FFFF 9236           tst.w      [0xFFFF9236]
00003F0A  6632                     bne        +0x34 /* 00003F3E */
00003F0C  4878 0002                push.l     0x2
00003F10  2045                     movea.l    A0, D5
00003F12  4868 0001                pea.l      [A0 + 0x1]
00003F16  4EAD 0062                jsr        [A5 + 0x62 /* export_8, CODE:1 @ 00000380 */]
00003F1A  2A00                     move.l     D5, D0
00003F1C  4A85                     tst.l      D5
00003F1E  670E                     beq        +0x10 /* 00003F2E */
00003F20  0C79 0001 FFFF 9230      cmpi.w     [0xFFFF9230], 0x1
00003F28  6604                     bne        +0x6 /* 00003F2E */
00003F2A  4EAD 029A                jsr        [A5 + 0x29A /* export_79, CODE:2 @ 00001BD0 */]
label00003F2E:
00003F2E  0C79 0003 FFFF 9230      cmpi.w     [0xFFFF9230], 0x3
00003F36  6C74                     bge        +0x76 /* 00003FAC */
00003F38  4EAD 0302                jsr        [A5 + 0x302 /* export_92, CODE:2 @ 000024D6 */]
00003F3C  606E                     bra        +0x70 /* 00003FAC */
label00003F3E:
00003F3E  0C79 0001 FFFF 9230      cmpi.w     [0xFFFF9230], 0x1
00003F46  6604                     bne        +0x6 /* 00003F4C */
00003F48  4EAD 029A                jsr        [A5 + 0x29A /* export_79, CODE:2 @ 00001BD0 */]
label00003F4C:
00003F4C  0C79 0003 FFFF 9230      cmpi.w     [0xFFFF9230], 0x3
00003F54  6C04                     bge        +0x6 /* 00003F5A */
00003F56  4EAD 0302                jsr        [A5 + 0x302 /* export_92, CODE:2 @ 000024D6 */]
label00003F5A:
00003F5A  4EAD 02FA                jsr        [A5 + 0x2FA /* export_91, CODE:2 @ 000023C4 */]
00003F5E  0C79 0001 FFFF 9236      cmpi.w     [0xFFFF9236], 0x1
00003F66  6F44                     ble        +0x46 /* 00003FAC */
00003F68  3039 FFFF 9236           move.w     D0, [0xFFFF9236]
00003F6E  6B2E                     bmi        +0x30 /* 00003F9E */
00003F70  5740                     subq.w     D0, 3
00003F72  6718                     beq        +0x1A /* 00003F8C */
00003F74  6A06                     bpl        +0x8 /* 00003F7C */
00003F76  5240                     addq.w     D0, 1
00003F78  6A08                     bpl        +0xA /* 00003F82 */
00003F7A  6022                     bra        +0x24 /* 00003F9E */
label00003F7C:
00003F7C  5540                     subq.w     D0, 2
00003F7E  6A1E                     bpl        +0x20 /* 00003F9E */
00003F80  6014                     bra        +0x16 /* 00003F96 */
label00003F82:
00003F82  42A7                     clr.l      -[A7]
00003F84  A975                     syscall    TickCount
00003F86  7A02                     moveq.l    D5, 0x02
00003F88  DA9F                     add.l      D5, [A7]+
00003F8A  6012                     bra        +0x14 /* 00003F9E */
label00003F8C:
00003F8C  42A7                     clr.l      -[A7]
00003F8E  A975                     syscall    TickCount
00003F90  7A05                     moveq.l    D5, 0x05
00003F92  DA9F                     add.l      D5, [A7]+
00003F94  6008                     bra        +0xA /* 00003F9E */
label00003F96:
00003F96  42A7                     clr.l      -[A7]
00003F98  A975                     syscall    TickCount
00003F9A  7A1E                     moveq.l    D5, 0x1E
00003F9C  DA9F                     add.l      D5, [A7]+
label00003F9E:
00003F9E  42A7                     clr.l      -[A7]
00003FA0  A975                     syscall    TickCount
00003FA2  BA9F                     cmp.l      D5, [A7]+
00003FA4  6306                     bls        +0x8 /* 00003FAC */
00003FA6  4EBA FB3C                jsr        [PC - 0x4C4 /* 00003AE4 */]
00003FAA  60F2                     bra        -0xC /* 00003F9E */
label00003FAC:
00003FAC  52B9 FFFF B7C6           addq.l     [0xFFFFB7C6], 1
00003FB2  4A79 FFFF 922E           tst.w      [0xFFFF922E]
00003FB8  6712                     beq        +0x14 /* 00003FCC */
00003FBA  0CB9 0000 05DC FFFF B7C6 cmpi.l     [0xFFFFB7C6], 0x5DC
00003FC4  6F06                     ble        +0x8 /* 00003FCC */
00003FC6  4279 FFFF 922C           clr.w      [0xFFFF922C]
label00003FCC:
00003FCC  4A79 FFFF AEB8           tst.w      [0xFFFFAEB8]
00003FD2  6714                     beq        +0x16 /* 00003FE8 */
00003FD4  5379 FFFF AEB8           subq.w     [0xFFFFAEB8], 1
00003FDA  4A79 FFFF AEB8           tst.w      [0xFFFFAEB8]
00003FE0  6606                     bne        +0x8 /* 00003FE8 */
00003FE2  4279 FFFF 922C           clr.w      [0xFFFF922C]
label00003FE8:
00003FE8  4A79 FFFF 922C           tst.w      [0xFFFF922C]
00003FEE  6600 FBA2                bne        -0x45C /* 00003B92 */
00003FF2  426E FFA8                clr.w      [A6 - 0x58]
00003FF6  3D7C 012C FFAC           move.w     [A6 - 0x54], 0x12C
00003FFC  426E FFAA                clr.w      [A6 - 0x56]
00004000  3D7C 012C FFAE           move.w     [A6 - 0x52], 0x12C
00004006  486E FFA8                pea.l      [A6 - 0x58]
0000400A  A928                     syscall    InvalRect
0000400C  426E FFA8                clr.w      [A6 - 0x58]
00004010  3D7C 00DC FFAC           move.w     [A6 - 0x54], 0xDC
00004016  3D7C 012E FFAA           move.w     [A6 - 0x56], 0x12E
0000401C  3D7C 01F4 FFAE           move.w     [A6 - 0x52], 0x1F4
00004022  486E FFA8                pea.l      [A6 - 0x58]
00004026  A928                     syscall    InvalRect
00004028  3D7C 00DC FFA8           move.w     [A6 - 0x58], 0xDC
0000402E  3D7C 00F8 FFAC           move.w     [A6 - 0x54], 0xF8
00004034  3D7C 012E FFAA           move.w     [A6 - 0x56], 0x12E
0000403A  3D7C 01F4 FFAE           move.w     [A6 - 0x52], 0x1F4
00004040  486E FFA8                pea.l      [A6 - 0x58]
00004044  A928                     syscall    InvalRect
00004046  4EAD 027A                jsr        [A5 + 0x27A /* export_75, CODE:2 @ 0000569E */]
0000404A  0C79 FFFF FFFF AEBC      cmpi.w     [0xFFFFAEBC], 0xFFFF
00004052  6720                     beq        +0x22 /* 00004074 */
00004054  3F3C 0003                move.w     -[A7], 0x3
00004058  4EAD 00BA                jsr        [A5 + 0xBA /* export_19, CODE:4 @ 0000543E */]
0000405C  0C79 0001 FFFF 9224      cmpi.w     [0xFFFF9224], 0x1
00004064  548F                     addq.l     A7, 2
00004066  660C                     bne        +0xE /* 00004074 */
00004068  3F39 FFFF AEBC           move.w     -[A7], [0xFFFFAEBC]
0000406E  4EAD 0372                jsr        [A5 + 0x372 /* export_106, CODE:3 @ 00000140 */]
00004072  548F                     addq.l     A7, 2
label00004074:
00004074  4CDF 10F0                movem.l    D4,D5,D6,D7,A4, [A7]+
00004078  4E5E                     unlink     A6
0000407A  4E75                     rts
export_31:
0000407C  4E56 0000                link       A6, 0
00004080  2F0C                     move.l     -[A7], A4
00004082  286E 0008                movea.l    A4, [A6 + 0x8]
00004086  426C 037A                clr.w      [A4 + 0x37A]
0000408A  397C FFFF 0386           move.w     [A4 + 0x386], 0xFFFF
00004090  426C 0388                clr.w      [A4 + 0x388]
00004094  397C FFFF 038C           move.w     [A4 + 0x38C], 0xFFFF
0000409A  426C 038E                clr.w      [A4 + 0x38E]
0000409E  397C FFFF 0392           move.w     [A4 + 0x392], 0xFFFF
000040A4  397C 0096 0394           move.w     [A4 + 0x394], 0x96
000040AA  397C FFFF 0398           move.w     [A4 + 0x398], 0xFFFF
000040B0  397C 0258 039A           move.w     [A4 + 0x39A], 0x258
000040B6  397C FFFF 039E           move.w     [A4 + 0x39E], 0xFFFF
000040BC  397C 0258 03A0           move.w     [A4 + 0x3A0], 0x258
000040C2  397C FFFF 03A4           move.w     [A4 + 0x3A4], 0xFFFF
000040C8  397C 0014 03A6           move.w     [A4 + 0x3A6], 0x14
000040CE  397C FFFF 03AA           move.w     [A4 + 0x3AA], 0xFFFF
000040D4  397C 0118 03AC           move.w     [A4 + 0x3AC], 0x118
000040DA  397C FFFF 03B0           move.w     [A4 + 0x3B0], 0xFFFF
000040E0  397C 0014 03B2           move.w     [A4 + 0x3B2], 0x14
000040E6  397C FFFF 03B6           move.w     [A4 + 0x3B6], 0xFFFF
000040EC  397C 0118 03B8           move.w     [A4 + 0x3B8], 0x118
000040F2  397C FFFF 03BC           move.w     [A4 + 0x3BC], 0xFFFF
000040F8  426C 03BE                clr.w      [A4 + 0x3BE]
000040FC  422C 037C                clr.b      [A4 + 0x37C]
00004100  422C 037D                clr.b      [A4 + 0x37D]
00004104  422C 037E                clr.b      [A4 + 0x37E]
00004108  422C 0380                clr.b      [A4 + 0x380]
0000410C  422C 0381                clr.b      [A4 + 0x381]
00004110  422C 0382                clr.b      [A4 + 0x382]
00004114  422C 0383                clr.b      [A4 + 0x383]
00004118  422C 0384                clr.b      [A4 + 0x384]
0000411C  2F0C                     move.l     -[A7], A4
0000411E  4EBA 0406                jsr        [PC + 0x406 /* 00004526 */]
00004122  286E FFFC                movea.l    A4, [A6 - 0x4]
00004126  4E5E                     unlink     A6
00004128  4E75                     rts
fn0000412A:
0000412A  2079 FFFF AEB4           movea.l    A0, [0xFFFFAEB4]
00004130  317C 0001 037A           move.w     [A0 + 0x37A], 0x1
00004136  2F39 FFFF AEB4           move.l     -[A7], [0xFFFFAEB4]
0000413C  4EBA 068A                jsr        [PC + 0x68A /* 000047C8 */]
00004140  588F                     addq.l     A7, 4
00004142  4E75                     rts
fn00004144:
00004144  2079 FFFF AEB4           movea.l    A0, [0xFFFFAEB4]
0000414A  4268 037A                clr.w      [A0 + 0x37A]
0000414E  4E75                     rts
fn00004150:
00004150  48E7 0108                movem.l    -[A7], D7,A4
00004154  2879 FFFF AEB4           movea.l    A4, [0xFFFFAEB4]
0000415A  49EC 0302                lea.l      A4, [A4 + 0x302]
0000415E  0C54 0001                cmpi.w     [A4], 0x1
00004162  6C0E                     bge        +0x10 /* 00004172 */
00004164  2F3C FFFF B2BC           move.l     -[A7], 0xFFFFB2BC
0000416A  4EBA BE94                jsr        [PC - 0x416C /* 00000000 */]
0000416E  588F                     addq.l     A7, 4
00004170  604E                     bra        +0x50 /* 000041C0 */
label00004172:
00004172  5354                     subq.w     [A4], 1
00004174  3054                     movea.w    A0, [A4]
00004176  D1C8                     add.l      A0, A0
00004178  41E8 0236                lea.l      A0, [A0 + 0x236]
0000417C  D1F9 FFFF AEB4           add.l      A0, [0xFFFFAEB4]
00004182  3E10                     move.w     D7, [A0]
00004184  2079 FFFF AEB4           movea.l    A0, [0xFFFFAEB4]
0000418A  BE68 0304                cmp.w      D7, [A0 + 0x304]
0000418E  6E24                     bgt        +0x26 /* 000041B4 */
00004190  2079 FFFF AEB4           movea.l    A0, [0xFFFFAEB4]
00004196  3147 0300                move.w     [A0 + 0x300], D7
0000419A  2079 FFFF AEB4           movea.l    A0, [0xFFFFAEB4]
000041A0  317C 0001 037A           move.w     [A0 + 0x37A], 0x1
000041A6  2F39 FFFF AEB4           move.l     -[A7], [0xFFFFAEB4]
000041AC  4EBA 061A                jsr        [PC + 0x61A /* 000047C8 */]
000041B0  588F                     addq.l     A7, 4
000041B2  600C                     bra        +0xE /* 000041C0 */
label000041B4:
000041B4  2F3C FFFF B2CC           move.l     -[A7], 0xFFFFB2CC
000041BA  4EBA BE44                jsr        [PC - 0x41BC /* 00000000 */]
000041BE  588F                     addq.l     A7, 4
label000041C0:
000041C0  4CDF 1080                movem.l    D7,A4, [A7]+
000041C4  4E75                     rts
fn000041C6:
000041C6  2F0C                     move.l     -[A7], A4
000041C8  2879 FFFF AEB4           movea.l    A4, [0xFFFFAEB4]
000041CE  49EC 0302                lea.l      A4, [A4 + 0x302]
000041D2  0C54 0002                cmpi.w     [A4], 0x2
000041D6  6C10                     bge        +0x12 /* 000041E8 */
000041D8  2F3C FFFF B2EC           move.l     -[A7], 0xFFFFB2EC
000041DE  4EBA BE20                jsr        [PC - 0x41E0 /* 00000000 */]
000041E2  588F                     addq.l     A7, 4
000041E4  6000 014A                bra        +0x14C /* 00004330 */
label000041E8:
000041E8  5554                     subq.w     [A4], 2
000041EA  3054                     movea.w    A0, [A4]
000041EC  D1C8                     add.l      A0, A0
000041EE  41E8 0238                lea.l      A0, [A0 + 0x238]
000041F2  D1F9 FFFF AEB4           add.l      A0, [0xFFFFAEB4]
000041F8  3010                     move.w     D0, [A0]
000041FA  0640 B0B4                addi.w     D0, 0xB0B4
000041FE  0440 001D                subi.w     D0, 0x1D
00004202  0C40 0020                cmpi.w     D0, 0x20 /* ' ' */
00004206  6200 011C                bhi        +0x11E /* 00004324 */
0000420A  43FA 0128                lea.l      A1, [PC + 0x128 /* 00004334, value 0xFF36FFF0 */]
0000420E  D040                     add.w      D0, D0
00004210  D2F1 0000                add.w      A1, [A1 + D0.w]
00004214  4ED1                     jmp        [A1]
00004216  3054                     movea.w    A0, [A4]
00004218  D1C8                     add.l      A0, A0
0000421A  41E8 0236                lea.l      A0, [A0 + 0x236]
0000421E  D1F9 FFFF AEB4           add.l      A0, [0xFFFFAEB4]
00004224  2279 FFFF AEB4           movea.l    A1, [0xFFFFAEB4]
0000422A  3350 0386                move.w     [A1 + 0x386], [A0]
0000422E  6000 0100                bra        +0x102 /* 00004330 */
00004232  3054                     movea.w    A0, [A4]
00004234  D1C8                     add.l      A0, A0
00004236  41E8 0236                lea.l      A0, [A0 + 0x236]
0000423A  D1F9 FFFF AEB4           add.l      A0, [0xFFFFAEB4]
00004240  2279 FFFF AEB4           movea.l    A1, [0xFFFFAEB4]
00004246  3350 038C                move.w     [A1 + 0x38C], [A0]
0000424A  6000 00E4                bra        +0xE6 /* 00004330 */
0000424E  3054                     movea.w    A0, [A4]
00004250  D1C8                     add.l      A0, A0
00004252  41E8 0236                lea.l      A0, [A0 + 0x236]
00004256  D1F9 FFFF AEB4           add.l      A0, [0xFFFFAEB4]
0000425C  2279 FFFF AEB4           movea.l    A1, [0xFFFFAEB4]
00004262  3350 0392                move.w     [A1 + 0x392], [A0]
00004266  6000 00C8                bra        +0xCA /* 00004330 */
0000426A  3054                     movea.w    A0, [A4]
0000426C  D1C8                     add.l      A0, A0
0000426E  41E8 0236                lea.l      A0, [A0 + 0x236]
00004272  D1F9 FFFF AEB4           add.l      A0, [0xFFFFAEB4]
00004278  2279 FFFF AEB4           movea.l    A1, [0xFFFFAEB4]
0000427E  3350 0398                move.w     [A1 + 0x398], [A0]
00004282  6000 00AC                bra        +0xAE /* 00004330 */
00004286  3054                     movea.w    A0, [A4]
00004288  D1C8                     add.l      A0, A0
0000428A  41E8 0236                lea.l      A0, [A0 + 0x236]
0000428E  D1F9 FFFF AEB4           add.l      A0, [0xFFFFAEB4]
00004294  2279 FFFF AEB4           movea.l    A1, [0xFFFFAEB4]
0000429A  3350 039E                move.w     [A1 + 0x39E], [A0]
0000429E  6000 0090                bra        +0x92 /* 00004330 */
000042A2  3054                     movea.w    A0, [A4]
000042A4  D1C8                     add.l      A0, A0
000042A6  41E8 0236                lea.l      A0, [A0 + 0x236]
000042AA  D1F9 FFFF AEB4           add.l      A0, [0xFFFFAEB4]
000042B0  2279 FFFF AEB4           movea.l    A1, [0xFFFFAEB4]
000042B6  3350 03A4                move.w     [A1 + 0x3A4], [A0]
000042BA  6074                     bra        +0x76 /* 00004330 */
000042BC  3054                     movea.w    A0, [A4]
000042BE  D1C8                     add.l      A0, A0
000042C0  41E8 0236                lea.l      A0, [A0 + 0x236]
000042C4  D1F9 FFFF AEB4           add.l      A0, [0xFFFFAEB4]
000042CA  2279 FFFF AEB4           movea.l    A1, [0xFFFFAEB4]
000042D0  3350 03AA                move.w     [A1 + 0x3AA], [A0]
000042D4  605A                     bra        +0x5C /* 00004330 */
000042D6  3054                     movea.w    A0, [A4]
000042D8  D1C8                     add.l      A0, A0
000042DA  41E8 0236                lea.l      A0, [A0 + 0x236]
000042DE  D1F9 FFFF AEB4           add.l      A0, [0xFFFFAEB4]
000042E4  2279 FFFF AEB4           movea.l    A1, [0xFFFFAEB4]
000042EA  3350 03B0                move.w     [A1 + 0x3B0], [A0]
000042EE  6040                     bra        +0x42 /* 00004330 */
000042F0  3054                     movea.w    A0, [A4]
000042F2  D1C8                     add.l      A0, A0
000042F4  41E8 0236                lea.l      A0, [A0 + 0x236]
000042F8  D1F9 FFFF AEB4           add.l      A0, [0xFFFFAEB4]
000042FE  2279 FFFF AEB4           movea.l    A1, [0xFFFFAEB4]
00004304  3350 03B6                move.w     [A1 + 0x3B6], [A0]
00004308  6026                     bra        +0x28 /* 00004330 */
0000430A  3054                     movea.w    A0, [A4]
0000430C  D1C8                     add.l      A0, A0
0000430E  41E8 0236                lea.l      A0, [A0 + 0x236]
00004312  D1F9 FFFF AEB4           add.l      A0, [0xFFFFAEB4]
00004318  2279 FFFF AEB4           movea.l    A1, [0xFFFFAEB4]
0000431E  3350 03BC                move.w     [A1 + 0x3BC], [A0]
00004322  600C                     bra        +0xE /* 00004330 */
label00004324:
00004324  2F3C FFFF B2FC           move.l     -[A7], 0xFFFFB2FC
0000432A  4EBA BCD4                jsr        [PC - 0x432C /* 00000000 */]
0000432E  588F                     addq.l     A7, 4
label00004330:
00004330  285F                     movea.l    A4, [A7]+
00004332  4E75                     rts
00004334  FF36                     .extension 0xF36 <<F/4-5/7>> // unimplemented
00004336  FFF0                     .invalid   <<F/7/7>>
00004338  FFF0                     .invalid   <<F/7/7>>
0000433A  FFF0                     .invalid   <<F/7/7>>
0000433C  FF1A                     .extension 0xF1A <<F/4-5/7>> // unimplemented
0000433E  FFF0                     .invalid   <<F/7/7>>
00004340  FFF0                     .invalid   <<F/7/7>>
00004342  FFF0                     .invalid   <<F/7/7>>
00004344  FEE2 FFF0                .extension 0xEE2 <<F/2-3/7>> // unimplemented
00004348  FFD6                     .invalid   <<F/7/7>>
0000434A  FFF0                     .invalid   <<F/7/7>>
0000434C  FFF0                     .invalid   <<F/7/7>>
0000434E  FFF0                     .invalid   <<F/7/7>>
00004350  FF52                     .extension 0xF52 <<F/4-5/7>> // unimplemented
00004352  FFF0                     .invalid   <<F/7/7>>
00004354  FFF0                     .invalid   <<F/7/7>>
00004356  FFF0                     .invalid   <<F/7/7>>
00004358  FFF0                     .invalid   <<F/7/7>>
0000435A  FFF0                     .invalid   <<F/7/7>>
0000435C  FFF0                     .invalid   <<F/7/7>>
0000435E  FFF0                     .invalid   <<F/7/7>>
00004360  FFF0                     .invalid   <<F/7/7>>
00004362  FFF0                     .invalid   <<F/7/7>>
00004364  FFF0                     .invalid   <<F/7/7>>
00004366  FFF0                     .invalid   <<F/7/7>>
00004368  FFF0                     .invalid   <<F/7/7>>
0000436A  FFF0                     .invalid   <<F/7/7>>
0000436C  FF6E                     .extension 0xF6E <<F/4-5/7>> // unimplemented
0000436E  FF88                     .invalid   <<F/6/7>>
00004370  FFA2                     .invalid   <<F/6/7>>
00004372  FFBC                     .invalid   <<F/6/7>>
00004374  FEFE 2F0C                .extension 0xEFE <<F/2-3/7>> // unimplemented
// begin alternate branch 00004376-00004378
fn00004376:
00004376  2F0C                     move.l     -[A7], A4
// end alternate branch 00004376-00004378
fn00004376: // (misaligned)
00004378  2879 FFFF AEB4           movea.l    A4, [0xFFFFAEB4]
0000437E  49EC 0302                lea.l      A4, [A4 + 0x302]
00004382  0C54 0002                cmpi.w     [A4], 0x2
00004386  6C10                     bge        +0x12 /* 00004398 */
00004388  2F3C FFFF B31E           move.l     -[A7], 0xFFFFB31E
0000438E  4EBA BC70                jsr        [PC - 0x4390 /* 00000000 */]
00004392  588F                     addq.l     A7, 4
00004394  6000 014A                bra        +0x14C /* 000044E0 */
label00004398:
00004398  5554                     subq.w     [A4], 2
0000439A  3054                     movea.w    A0, [A4]
0000439C  D1C8                     add.l      A0, A0
0000439E  41E8 0238                lea.l      A0, [A0 + 0x238]
000043A2  D1F9 FFFF AEB4           add.l      A0, [0xFFFFAEB4]
000043A8  3010                     move.w     D0, [A0]
000043AA  0640 B0B4                addi.w     D0, 0xB0B4
000043AE  0440 001D                subi.w     D0, 0x1D
000043B2  0C40 0020                cmpi.w     D0, 0x20 /* ' ' */
000043B6  6200 011C                bhi        +0x11E /* 000044D4 */
000043BA  43FA 0128                lea.l      A1, [PC + 0x128 /* 000044E4, value 0xFF36FFF0 */]
000043BE  D040                     add.w      D0, D0
000043C0  D2F1 0000                add.w      A1, [A1 + D0.w]
000043C4  4ED1                     jmp        [A1]
000043C6  3054                     movea.w    A0, [A4]
000043C8  D1C8                     add.l      A0, A0
000043CA  41E8 0236                lea.l      A0, [A0 + 0x236]
000043CE  D1F9 FFFF AEB4           add.l      A0, [0xFFFFAEB4]
000043D4  2279 FFFF AEB4           movea.l    A1, [0xFFFFAEB4]
000043DA  3350 0388                move.w     [A1 + 0x388], [A0]
000043DE  6000 0100                bra        +0x102 /* 000044E0 */
000043E2  3054                     movea.w    A0, [A4]
000043E4  D1C8                     add.l      A0, A0
000043E6  41E8 0236                lea.l      A0, [A0 + 0x236]
000043EA  D1F9 FFFF AEB4           add.l      A0, [0xFFFFAEB4]
000043F0  2279 FFFF AEB4           movea.l    A1, [0xFFFFAEB4]
000043F6  3350 038E                move.w     [A1 + 0x38E], [A0]
000043FA  6000 00E4                bra        +0xE6 /* 000044E0 */
000043FE  3054                     movea.w    A0, [A4]
00004400  D1C8                     add.l      A0, A0
00004402  41E8 0236                lea.l      A0, [A0 + 0x236]
00004406  D1F9 FFFF AEB4           add.l      A0, [0xFFFFAEB4]
0000440C  2279 FFFF AEB4           movea.l    A1, [0xFFFFAEB4]
00004412  3350 0394                move.w     [A1 + 0x394], [A0]
00004416  6000 00C8                bra        +0xCA /* 000044E0 */
0000441A  3054                     movea.w    A0, [A4]
0000441C  D1C8                     add.l      A0, A0
0000441E  41E8 0236                lea.l      A0, [A0 + 0x236]
00004422  D1F9 FFFF AEB4           add.l      A0, [0xFFFFAEB4]
00004428  2279 FFFF AEB4           movea.l    A1, [0xFFFFAEB4]
0000442E  3350 039A                move.w     [A1 + 0x39A], [A0]
00004432  6000 00AC                bra        +0xAE /* 000044E0 */
00004436  3054                     movea.w    A0, [A4]
00004438  D1C8                     add.l      A0, A0
0000443A  41E8 0236                lea.l      A0, [A0 + 0x236]
0000443E  D1F9 FFFF AEB4           add.l      A0, [0xFFFFAEB4]
00004444  2279 FFFF AEB4           movea.l    A1, [0xFFFFAEB4]
0000444A  3350 03A0                move.w     [A1 + 0x3A0], [A0]
0000444E  6000 0090                bra        +0x92 /* 000044E0 */
00004452  3054                     movea.w    A0, [A4]
00004454  D1C8                     add.l      A0, A0
00004456  41E8 0236                lea.l      A0, [A0 + 0x236]
0000445A  D1F9 FFFF AEB4           add.l      A0, [0xFFFFAEB4]
00004460  2279 FFFF AEB4           movea.l    A1, [0xFFFFAEB4]
00004466  3350 03A6                move.w     [A1 + 0x3A6], [A0]
0000446A  6074                     bra        +0x76 /* 000044E0 */
0000446C  3054                     movea.w    A0, [A4]
0000446E  D1C8                     add.l      A0, A0
00004470  41E8 0236                lea.l      A0, [A0 + 0x236]
00004474  D1F9 FFFF AEB4           add.l      A0, [0xFFFFAEB4]
0000447A  2279 FFFF AEB4           movea.l    A1, [0xFFFFAEB4]
00004480  3350 03AC                move.w     [A1 + 0x3AC], [A0]
00004484  605A                     bra        +0x5C /* 000044E0 */
00004486  3054                     movea.w    A0, [A4]
00004488  D1C8                     add.l      A0, A0
0000448A  41E8 0236                lea.l      A0, [A0 + 0x236]
0000448E  D1F9 FFFF AEB4           add.l      A0, [0xFFFFAEB4]
00004494  2279 FFFF AEB4           movea.l    A1, [0xFFFFAEB4]
0000449A  3350 03B2                move.w     [A1 + 0x3B2], [A0]
0000449E  6040                     bra        +0x42 /* 000044E0 */
000044A0  3054                     movea.w    A0, [A4]
000044A2  D1C8                     add.l      A0, A0
000044A4  41E8 0236                lea.l      A0, [A0 + 0x236]
000044A8  D1F9 FFFF AEB4           add.l      A0, [0xFFFFAEB4]
000044AE  2279 FFFF AEB4           movea.l    A1, [0xFFFFAEB4]
000044B4  3350 03B8                move.w     [A1 + 0x3B8], [A0]
000044B8  6026                     bra        +0x28 /* 000044E0 */
000044BA  3054                     movea.w    A0, [A4]
000044BC  D1C8                     add.l      A0, A0
000044BE  41E8 0236                lea.l      A0, [A0 + 0x236]
000044C2  D1F9 FFFF AEB4           add.l      A0, [0xFFFFAEB4]
000044C8  2279 FFFF AEB4           movea.l    A1, [0xFFFFAEB4]
000044CE  3350 03BE                move.w     [A1 + 0x3BE], [A0]
000044D2  600C                     bra        +0xE /* 000044E0 */
label000044D4:
000044D4  2F3C FFFF B32E           move.l     -[A7], 0xFFFFB32E
000044DA  4EBA BB24                jsr        [PC - 0x44DC /* 00000000 */]
000044DE  588F                     addq.l     A7, 4
label000044E0:
000044E0  285F                     movea.l    A4, [A7]+
000044E2  4E75                     rts
000044E4  FF36                     .extension 0xF36 <<F/4-5/7>> // unimplemented
000044E6  FFF0                     .invalid   <<F/7/7>>
000044E8  FFF0                     .invalid   <<F/7/7>>
000044EA  FFF0                     .invalid   <<F/7/7>>
000044EC  FF1A                     .extension 0xF1A <<F/4-5/7>> // unimplemented
000044EE  FFF0                     .invalid   <<F/7/7>>
000044F0  FFF0                     .invalid   <<F/7/7>>
000044F2  FFF0                     .invalid   <<F/7/7>>
000044F4  FEE2 FFF0                .extension 0xEE2 <<F/2-3/7>> // unimplemented
000044F8  FFD6                     .invalid   <<F/7/7>>
000044FA  FFF0                     .invalid   <<F/7/7>>
000044FC  FFF0                     .invalid   <<F/7/7>>
000044FE  FFF0                     .invalid   <<F/7/7>>
00004500  FF52                     .extension 0xF52 <<F/4-5/7>> // unimplemented
00004502  FFF0                     .invalid   <<F/7/7>>
00004504  FFF0                     .invalid   <<F/7/7>>
00004506  FFF0                     .invalid   <<F/7/7>>
00004508  FFF0                     .invalid   <<F/7/7>>
0000450A  FFF0                     .invalid   <<F/7/7>>
0000450C  FFF0                     .invalid   <<F/7/7>>
0000450E  FFF0                     .invalid   <<F/7/7>>
00004510  FFF0                     .invalid   <<F/7/7>>
00004512  FFF0                     .invalid   <<F/7/7>>
00004514  FFF0                     .invalid   <<F/7/7>>
00004516  FFF0                     .invalid   <<F/7/7>>
00004518  FFF0                     .invalid   <<F/7/7>>
0000451A  FFF0                     .invalid   <<F/7/7>>
0000451C  FF6E                     .extension 0xF6E <<F/4-5/7>> // unimplemented
0000451E  FF88                     .invalid   <<F/6/7>>
00004520  FFA2                     .invalid   <<F/6/7>>
00004522  FFBC                     .invalid   <<F/6/7>>
00004524  FEFE 4E56                .extension 0xEFE <<F/2-3/7>> // unimplemented
// begin alternate branch 00004526-00004538
fn00004526:
00004526  4E56 0000                link       A6, 0
0000452A  48E7 0018                movem.l    -[A7], A3,A4
0000452E  286E 0008                movea.l    A4, [A6 + 0x8]
00004532  396C 0110 038A           move.w     [A4 + 0x38A], [A4 + 0x110]
// end alternate branch 00004526-00004538
fn00004526: // (misaligned)
00004528  0000 48E7                ori.b      D0, 0xE7
0000452C  0018 286E                ori.b      [A0]+, 0x6E /* 'n' */
00004530  0008 396C                ori.b      A0, 0x6C /* 'l' */
00004534  0110                     btst       [A0], D0
00004536  038A                     bclr       A2, D1
00004538  47EC 0032                lea.l      A3, [A4 + 0x32]
0000453C  0C53 000A                cmpi.w     [A3], 0xA /* '\n' */
00004540  6D1A                     blt        +0x1C /* 0000455C */
00004542  0C53 0122                cmpi.w     [A3], 0x122
00004546  6E14                     bgt        +0x16 /* 0000455C */
00004548  0C6C 000A 0030           cmpi.w     [A4 + 0x30], 0xA /* '\n' */
0000454E  6D0C                     blt        +0xE /* 0000455C */
00004550  0C6C 0122 0030           cmpi.w     [A4 + 0x30], 0x122
00004556  6E04                     bgt        +0x6 /* 0000455C */
00004558  7000                     moveq.l    D0, 0x00
0000455A  6002                     bra        +0x4 /* 0000455E */
label0000455C:
0000455C  7001                     moveq.l    D0, 0x01
label0000455E:
0000455E  3940 0390                move.w     [A4 + 0x390], D0
00004562  396C 0108 0396           move.w     [A4 + 0x396], [A4 + 0x108]
00004568  3953 03A8                move.w     [A4 + 0x3A8], [A3]
0000456C  396C 0030 03B4           move.w     [A4 + 0x3B4], [A4 + 0x30]
00004572  4CDF 1800                movem.l    A3,A4, [A7]+
00004576  4E5E                     unlink     A6
00004578  4E75                     rts
fn0000457A:
0000457A  4E56 0000                link       A6, 0
0000457E  48E7 0108                movem.l    -[A7], D7,A4
00004582  286E 0008                movea.l    A4, [A6 + 0x8]
00004586  0C6C FFFF 0386           cmpi.w     [A4 + 0x386], 0xFFFF
0000458C  671C                     beq        +0x1E /* 000045AA */
0000458E  4A2C 037D                tst.b      [A4 + 0x37D]
00004592  6616                     bne        +0x18 /* 000045AA */
00004594  4A6C 0110                tst.w      [A4 + 0x110]
00004598  6710                     beq        +0x12 /* 000045AA */
0000459A  4A6C 038A                tst.w      [A4 + 0x38A]
0000459E  660A                     bne        +0xC /* 000045AA */
000045A0  197C 0001 037D           move.b     [A4 + 0x37D], 0x1
000045A6  522C 037C                addq.b     [A4 + 0x37C], 1
label000045AA:
000045AA  0C6C FFFF 038C           cmpi.w     [A4 + 0x38C], 0xFFFF
000045B0  6736                     beq        +0x38 /* 000045E8 */
000045B2  4A2C 037E                tst.b      [A4 + 0x37E]
000045B6  6630                     bne        +0x32 /* 000045E8 */
000045B8  4A6C 0390                tst.w      [A4 + 0x390]
000045BC  662A                     bne        +0x2C /* 000045E8 */
000045BE  3E2C 0032                move.w     D7, [A4 + 0x32]
000045C2  0C47 000A                cmpi.w     D7, 0xA /* '\n' */
000045C6  6D16                     blt        +0x18 /* 000045DE */
000045C8  0C47 0122                cmpi.w     D7, 0x122
000045CC  6E10                     bgt        +0x12 /* 000045DE */
000045CE  0C6C 000A 0030           cmpi.w     [A4 + 0x30], 0xA /* '\n' */
000045D4  6D08                     blt        +0xA /* 000045DE */
000045D6  0C6C 0122 0030           cmpi.w     [A4 + 0x30], 0x122
000045DC  6F0A                     ble        +0xC /* 000045E8 */
label000045DE:
000045DE  197C 0001 037E           move.b     [A4 + 0x37E], 0x1
000045E4  522C 037C                addq.b     [A4 + 0x37C], 1
label000045E8:
000045E8  0C6C FFFF 0392           cmpi.w     [A4 + 0x392], 0xFFFF
000045EE  6720                     beq        +0x22 /* 00004610 */
000045F0  4A2C 037F                tst.b      [A4 + 0x37F]
000045F4  661A                     bne        +0x1C /* 00004610 */
000045F6  3E2C 0108                move.w     D7, [A4 + 0x108]
000045FA  BE6C 0396                cmp.w      D7, [A4 + 0x396]
000045FE  6710                     beq        +0x12 /* 00004610 */
00004600  BE6C 0394                cmp.w      D7, [A4 + 0x394]
00004604  6C0A                     bge        +0xC /* 00004610 */
00004606  197C 0001 037F           move.b     [A4 + 0x37F], 0x1
0000460C  522C 037C                addq.b     [A4 + 0x37C], 1
label00004610:
00004610  0C6C FFFF 03A4           cmpi.w     [A4 + 0x3A4], 0xFFFF
00004616  6720                     beq        +0x22 /* 00004638 */
00004618  4A2C 0380                tst.b      [A4 + 0x380]
0000461C  661A                     bne        +0x1C /* 00004638 */
0000461E  3E2C 03A6                move.w     D7, [A4 + 0x3A6]
00004622  BE6C 0032                cmp.w      D7, [A4 + 0x32]
00004626  6D10                     blt        +0x12 /* 00004638 */
00004628  BE6C 03A8                cmp.w      D7, [A4 + 0x3A8]
0000462C  6C0A                     bge        +0xC /* 00004638 */
0000462E  197C 0001 0380           move.b     [A4 + 0x380], 0x1
00004634  522C 037C                addq.b     [A4 + 0x37C], 1
label00004638:
00004638  0C6C FFFF 03AA           cmpi.w     [A4 + 0x3AA], 0xFFFF
0000463E  6720                     beq        +0x22 /* 00004660 */
00004640  4A2C 0381                tst.b      [A4 + 0x381]
00004644  661A                     bne        +0x1C /* 00004660 */
00004646  3E2C 03AC                move.w     D7, [A4 + 0x3AC]
0000464A  BE6C 0032                cmp.w      D7, [A4 + 0x32]
0000464E  6E10                     bgt        +0x12 /* 00004660 */
00004650  BE6C 03A8                cmp.w      D7, [A4 + 0x3A8]
00004654  6F0A                     ble        +0xC /* 00004660 */
00004656  197C 0001 0381           move.b     [A4 + 0x381], 0x1
0000465C  522C 037C                addq.b     [A4 + 0x37C], 1
label00004660:
00004660  0C6C FFFF 03B0           cmpi.w     [A4 + 0x3B0], 0xFFFF
00004666  6720                     beq        +0x22 /* 00004688 */
00004668  4A2C 0382                tst.b      [A4 + 0x382]
0000466C  661A                     bne        +0x1C /* 00004688 */
0000466E  3E2C 03B2                move.w     D7, [A4 + 0x3B2]
00004672  BE6C 0030                cmp.w      D7, [A4 + 0x30]
00004676  6D10                     blt        +0x12 /* 00004688 */
00004678  BE6C 03B4                cmp.w      D7, [A4 + 0x3B4]
0000467C  6C0A                     bge        +0xC /* 00004688 */
0000467E  197C 0001 0382           move.b     [A4 + 0x382], 0x1
00004684  522C 037C                addq.b     [A4 + 0x37C], 1
label00004688:
00004688  0C6C FFFF 03B6           cmpi.w     [A4 + 0x3B6], 0xFFFF
0000468E  6720                     beq        +0x22 /* 000046B0 */
00004690  4A2C 0383                tst.b      [A4 + 0x383]
00004694  661A                     bne        +0x1C /* 000046B0 */
00004696  3E2C 03B8                move.w     D7, [A4 + 0x3B8]
0000469A  BE6C 0030                cmp.w      D7, [A4 + 0x30]
0000469E  6E10                     bgt        +0x12 /* 000046B0 */
000046A0  BE6C 03B4                cmp.w      D7, [A4 + 0x3B4]
000046A4  6F0A                     ble        +0xC /* 000046B0 */
000046A6  197C 0001 0383           move.b     [A4 + 0x383], 0x1
000046AC  522C 037C                addq.b     [A4 + 0x37C], 1
label000046B0:
000046B0  4CDF 1080                movem.l    D7,A4, [A7]+
000046B4  4E5E                     unlink     A6
000046B6  4E75                     rts
fn000046B8:
000046B8  4E56 0000                link       A6, 0
000046BC  48E7 0118                movem.l    -[A7], D7,A3,A4
000046C0  266E 0008                movea.l    A3, [A6 + 0x8]
000046C4  49EB 037A                lea.l      A4, [A3 + 0x37A]
000046C8  4A54                     tst.w      [A4]
000046CA  6758                     beq        +0x5A /* 00004724 */
000046CC  0C6B FFFF 039E           cmpi.w     [A3 + 0x39E], 0xFFFF
000046D2  6750                     beq        +0x52 /* 00004724 */
000046D4  4A2B 037C                tst.b      [A3 + 0x37C]
000046D8  664A                     bne        +0x4C /* 00004724 */
000046DA  2F0B                     move.l     -[A7], A3
000046DC  2079 FFFF AEC2           movea.l    A0, [0xFFFFAEC2]
000046E2  4E90                     jsr        [A0]
000046E4  3E00                     move.w     D7, D0
000046E6  4A47                     tst.w      D7
000046E8  588F                     addq.l     A7, 4
000046EA  6F38                     ble        +0x3A /* 00004724 */
000046EC  BE6B 03A0                cmp.w      D7, [A3 + 0x3A0]
000046F0  6E32                     bgt        +0x34 /* 00004724 */
000046F2  4254                     clr.w      [A4]
000046F4  0C6B 0064 0302           cmpi.w     [A3 + 0x302], 0x64 /* 'd' */
000046FA  6C1C                     bge        +0x1E /* 00004718 */
000046FC  302B 0302                move.w     D0, [A3 + 0x302]
00004700  526B 0302                addq.w     [A3 + 0x302], 1
00004704  204B                     movea.l    A0, A3
00004706  D0C0                     add.w      A0, D0
00004708  D0C0                     add.w      A0, D0
0000470A  316B 0300 0236           move.w     [A0 + 0x236], [A3 + 0x300]
00004710  376B 039E 0300           move.w     [A3 + 0x300], [A3 + 0x39E]
00004716  600C                     bra        +0xE /* 00004724 */
label00004718:
00004718  2F3C FFFF B350           move.l     -[A7], 0xFFFFB350
0000471E  4EBA B8E0                jsr        [PC - 0x4720 /* 00000000 */]
00004722  588F                     addq.l     A7, 4
label00004724:
00004724  4CDF 1880                movem.l    D7,A3,A4, [A7]+
00004728  4E5E                     unlink     A6
0000472A  4E75                     rts
fn0000472C:
0000472C  4E56 0000                link       A6, 0
00004730  48E7 0118                movem.l    -[A7], D7,A3,A4
00004734  266E 0008                movea.l    A3, [A6 + 0x8]
00004738  49EB 037A                lea.l      A4, [A3 + 0x37A]
0000473C  4A54                     tst.w      [A4]
0000473E  6758                     beq        +0x5A /* 00004798 */
00004740  0C6B FFFF 0398           cmpi.w     [A3 + 0x398], 0xFFFF
00004746  6750                     beq        +0x52 /* 00004798 */
00004748  4A2B 037C                tst.b      [A3 + 0x37C]
0000474C  664A                     bne        +0x4C /* 00004798 */
0000474E  2F0B                     move.l     -[A7], A3
00004750  2079 FFFF AEBE           movea.l    A0, [0xFFFFAEBE]
00004756  4E90                     jsr        [A0]
00004758  3E00                     move.w     D7, D0
0000475A  4A47                     tst.w      D7
0000475C  588F                     addq.l     A7, 4
0000475E  6F38                     ble        +0x3A /* 00004798 */
00004760  BE6B 039A                cmp.w      D7, [A3 + 0x39A]
00004764  6E32                     bgt        +0x34 /* 00004798 */
00004766  4254                     clr.w      [A4]
00004768  0C6B 0064 0302           cmpi.w     [A3 + 0x302], 0x64 /* 'd' */
0000476E  6C1C                     bge        +0x1E /* 0000478C */
00004770  302B 0302                move.w     D0, [A3 + 0x302]
00004774  526B 0302                addq.w     [A3 + 0x302], 1
00004778  204B                     movea.l    A0, A3
0000477A  D0C0                     add.w      A0, D0
0000477C  D0C0                     add.w      A0, D0
0000477E  316B 0300 0236           move.w     [A0 + 0x236], [A3 + 0x300]
00004784  376B 0398 0300           move.w     [A3 + 0x300], [A3 + 0x398]
0000478A  600C                     bra        +0xE /* 00004798 */
label0000478C:
0000478C  2F3C FFFF B370           move.l     -[A7], 0xFFFFB370
00004792  4EBA B86C                jsr        [PC - 0x4794 /* 00000000 */]
00004796  588F                     addq.l     A7, 4
label00004798:
00004798  4CDF 1880                movem.l    D7,A3,A4, [A7]+
0000479C  4E5E                     unlink     A6
0000479E  4E75                     rts
fn000047A0:
000047A0  4E56 0000                link       A6, 0
000047A4  2F0C                     move.l     -[A7], A4
000047A6  286E 0008                movea.l    A4, [A6 + 0x8]
000047AA  0C6C FFFF 03BC           cmpi.w     [A4 + 0x3BC], 0xFFFF
000047B0  6710                     beq        +0x12 /* 000047C2 */
000047B2  4A2C 0384                tst.b      [A4 + 0x384]
000047B6  660A                     bne        +0xC /* 000047C2 */
000047B8  197C 0001 0384           move.b     [A4 + 0x384], 0x1
000047BE  522C 037C                addq.b     [A4 + 0x37C], 1
label000047C2:
000047C2  285F                     movea.l    A4, [A7]+
000047C4  4E5E                     unlink     A6
000047C6  4E75                     rts
fn000047C8:
000047C8  4E56 0000                link       A6, 0
000047CC  48E7 0038                movem.l    -[A7], A2,A3,A4
000047D0  266E 0008                movea.l    A3, [A6 + 0x8]
000047D4  49EB 037C                lea.l      A4, [A3 + 0x37C]
000047D8  4A14                     tst.b      [A4]
000047DA  6700 0262                beq        +0x264 /* 00004A3E */
000047DE  4A6B 037A                tst.w      [A3 + 0x37A]
000047E2  6746                     beq        +0x48 /* 0000482A */
000047E4  45EB 037D                lea.l      A2, [A3 + 0x37D]
000047E8  4A12                     tst.b      [A2]
000047EA  673E                     beq        +0x40 /* 0000482A */
000047EC  5314                     subq.b     [A4], 1
000047EE  4212                     clr.b      [A2]
000047F0  4A6B 0386                tst.w      [A3 + 0x386]
000047F4  6734                     beq        +0x36 /* 0000482A */
000047F6  426B 037A                clr.w      [A3 + 0x37A]
000047FA  0C6B 0064 0302           cmpi.w     [A3 + 0x302], 0x64 /* 'd' */
00004800  6C1C                     bge        +0x1E /* 0000481E */
00004802  302B 0302                move.w     D0, [A3 + 0x302]
00004806  526B 0302                addq.w     [A3 + 0x302], 1
0000480A  204B                     movea.l    A0, A3
0000480C  D0C0                     add.w      A0, D0
0000480E  D0C0                     add.w      A0, D0
00004810  316B 0300 0236           move.w     [A0 + 0x236], [A3 + 0x300]
00004816  376B 0386 0300           move.w     [A3 + 0x300], [A3 + 0x386]
0000481C  600C                     bra        +0xE /* 0000482A */
label0000481E:
0000481E  2F3C FFFF B390           move.l     -[A7], 0xFFFFB390
00004824  4EBA B7DA                jsr        [PC - 0x4826 /* 00000000 */]
00004828  588F                     addq.l     A7, 4
label0000482A:
0000482A  4A6B 037A                tst.w      [A3 + 0x37A]
0000482E  6746                     beq        +0x48 /* 00004876 */
00004830  45EB 037E                lea.l      A2, [A3 + 0x37E]
00004834  4A12                     tst.b      [A2]
00004836  673E                     beq        +0x40 /* 00004876 */
00004838  5314                     subq.b     [A4], 1
0000483A  4212                     clr.b      [A2]
0000483C  4A6B 038C                tst.w      [A3 + 0x38C]
00004840  6734                     beq        +0x36 /* 00004876 */
00004842  426B 037A                clr.w      [A3 + 0x37A]
00004846  0C6B 0064 0302           cmpi.w     [A3 + 0x302], 0x64 /* 'd' */
0000484C  6C1C                     bge        +0x1E /* 0000486A */
0000484E  302B 0302                move.w     D0, [A3 + 0x302]
00004852  526B 0302                addq.w     [A3 + 0x302], 1
00004856  204B                     movea.l    A0, A3
00004858  D0C0                     add.w      A0, D0
0000485A  D0C0                     add.w      A0, D0
0000485C  316B 0300 0236           move.w     [A0 + 0x236], [A3 + 0x300]
00004862  376B 038C 0300           move.w     [A3 + 0x300], [A3 + 0x38C]
00004868  600C                     bra        +0xE /* 00004876 */
label0000486A:
0000486A  2F3C FFFF B3B0           move.l     -[A7], 0xFFFFB3B0
00004870  4EBA B78E                jsr        [PC - 0x4872 /* 00000000 */]
00004874  588F                     addq.l     A7, 4
label00004876:
00004876  4A6B 037A                tst.w      [A3 + 0x37A]
0000487A  6746                     beq        +0x48 /* 000048C2 */
0000487C  45EB 037F                lea.l      A2, [A3 + 0x37F]
00004880  4A12                     tst.b      [A2]
00004882  673E                     beq        +0x40 /* 000048C2 */
00004884  5314                     subq.b     [A4], 1
00004886  4212                     clr.b      [A2]
00004888  4A6B 0392                tst.w      [A3 + 0x392]
0000488C  6734                     beq        +0x36 /* 000048C2 */
0000488E  426B 037A                clr.w      [A3 + 0x37A]
00004892  0C6B 0064 0302           cmpi.w     [A3 + 0x302], 0x64 /* 'd' */
00004898  6C1C                     bge        +0x1E /* 000048B6 */
0000489A  302B 0302                move.w     D0, [A3 + 0x302]
0000489E  526B 0302                addq.w     [A3 + 0x302], 1
000048A2  204B                     movea.l    A0, A3
000048A4  D0C0                     add.w      A0, D0
000048A6  D0C0                     add.w      A0, D0
000048A8  316B 0300 0236           move.w     [A0 + 0x236], [A3 + 0x300]
000048AE  376B 0392 0300           move.w     [A3 + 0x300], [A3 + 0x392]
000048B4  600C                     bra        +0xE /* 000048C2 */
label000048B6:
000048B6  2F3C FFFF B3D0           move.l     -[A7], 0xFFFFB3D0
000048BC  4EBA B742                jsr        [PC - 0x48BE /* 00000000 */]
000048C0  588F                     addq.l     A7, 4
label000048C2:
000048C2  4A6B 037A                tst.w      [A3 + 0x37A]
000048C6  6746                     beq        +0x48 /* 0000490E */
000048C8  45EB 0380                lea.l      A2, [A3 + 0x380]
000048CC  4A12                     tst.b      [A2]
000048CE  673E                     beq        +0x40 /* 0000490E */
000048D0  5314                     subq.b     [A4], 1
000048D2  4212                     clr.b      [A2]
000048D4  4A6B 03A4                tst.w      [A3 + 0x3A4]
000048D8  6734                     beq        +0x36 /* 0000490E */
000048DA  426B 037A                clr.w      [A3 + 0x37A]
000048DE  0C6B 0064 0302           cmpi.w     [A3 + 0x302], 0x64 /* 'd' */
000048E4  6C1C                     bge        +0x1E /* 00004902 */
000048E6  302B 0302                move.w     D0, [A3 + 0x302]
000048EA  526B 0302                addq.w     [A3 + 0x302], 1
000048EE  204B                     movea.l    A0, A3
000048F0  D0C0                     add.w      A0, D0
000048F2  D0C0                     add.w      A0, D0
000048F4  316B 0300 0236           move.w     [A0 + 0x236], [A3 + 0x300]
000048FA  376B 03A4 0300           move.w     [A3 + 0x300], [A3 + 0x3A4]
00004900  600C                     bra        +0xE /* 0000490E */
label00004902:
00004902  2F3C FFFF B3F0           move.l     -[A7], 0xFFFFB3F0
00004908  4EBA B6F6                jsr        [PC - 0x490A /* 00000000 */]
0000490C  588F                     addq.l     A7, 4
label0000490E:
0000490E  4A6B 037A                tst.w      [A3 + 0x37A]
00004912  6746                     beq        +0x48 /* 0000495A */
00004914  45EB 0381                lea.l      A2, [A3 + 0x381]
00004918  4A12                     tst.b      [A2]
0000491A  673E                     beq        +0x40 /* 0000495A */
0000491C  5314                     subq.b     [A4], 1
0000491E  4212                     clr.b      [A2]
00004920  4A6B 03AA                tst.w      [A3 + 0x3AA]
00004924  6734                     beq        +0x36 /* 0000495A */
00004926  426B 037A                clr.w      [A3 + 0x37A]
0000492A  0C6B 0064 0302           cmpi.w     [A3 + 0x302], 0x64 /* 'd' */
00004930  6C1C                     bge        +0x1E /* 0000494E */
00004932  302B 0302                move.w     D0, [A3 + 0x302]
00004936  526B 0302                addq.w     [A3 + 0x302], 1
0000493A  204B                     movea.l    A0, A3
0000493C  D0C0                     add.w      A0, D0
0000493E  D0C0                     add.w      A0, D0
00004940  316B 0300 0236           move.w     [A0 + 0x236], [A3 + 0x300]
00004946  376B 03AA 0300           move.w     [A3 + 0x300], [A3 + 0x3AA]
0000494C  600C                     bra        +0xE /* 0000495A */
label0000494E:
0000494E  2F3C FFFF B410           move.l     -[A7], 0xFFFFB410
00004954  4EBA B6AA                jsr        [PC - 0x4956 /* 00000000 */]
00004958  588F                     addq.l     A7, 4
label0000495A:
0000495A  4A6B 037A                tst.w      [A3 + 0x37A]
0000495E  6746                     beq        +0x48 /* 000049A6 */
00004960  45EB 0382                lea.l      A2, [A3 + 0x382]
00004964  4A12                     tst.b      [A2]
00004966  673E                     beq        +0x40 /* 000049A6 */
00004968  5314                     subq.b     [A4], 1
0000496A  4212                     clr.b      [A2]
0000496C  4A6B 03B0                tst.w      [A3 + 0x3B0]
00004970  6734                     beq        +0x36 /* 000049A6 */
00004972  426B 037A                clr.w      [A3 + 0x37A]
00004976  0C6B 0064 0302           cmpi.w     [A3 + 0x302], 0x64 /* 'd' */
0000497C  6C1C                     bge        +0x1E /* 0000499A */
0000497E  302B 0302                move.w     D0, [A3 + 0x302]
00004982  526B 0302                addq.w     [A3 + 0x302], 1
00004986  204B                     movea.l    A0, A3
00004988  D0C0                     add.w      A0, D0
0000498A  D0C0                     add.w      A0, D0
0000498C  316B 0300 0236           move.w     [A0 + 0x236], [A3 + 0x300]
00004992  376B 03B0 0300           move.w     [A3 + 0x300], [A3 + 0x3B0]
00004998  600C                     bra        +0xE /* 000049A6 */
label0000499A:
0000499A  2F3C FFFF B430           move.l     -[A7], 0xFFFFB430
000049A0  4EBA B65E                jsr        [PC - 0x49A2 /* 00000000 */]
000049A4  588F                     addq.l     A7, 4
label000049A6:
000049A6  4A6B 037A                tst.w      [A3 + 0x37A]
000049AA  6746                     beq        +0x48 /* 000049F2 */
000049AC  45EB 0383                lea.l      A2, [A3 + 0x383]
000049B0  4A12                     tst.b      [A2]
000049B2  673E                     beq        +0x40 /* 000049F2 */
000049B4  5314                     subq.b     [A4], 1
000049B6  4212                     clr.b      [A2]
000049B8  4A6B 03B6                tst.w      [A3 + 0x3B6]
000049BC  6734                     beq        +0x36 /* 000049F2 */
000049BE  426B 037A                clr.w      [A3 + 0x37A]
000049C2  0C6B 0064 0302           cmpi.w     [A3 + 0x302], 0x64 /* 'd' */
000049C8  6C1C                     bge        +0x1E /* 000049E6 */
000049CA  302B 0302                move.w     D0, [A3 + 0x302]
000049CE  526B 0302                addq.w     [A3 + 0x302], 1
000049D2  204B                     movea.l    A0, A3
000049D4  D0C0                     add.w      A0, D0
000049D6  D0C0                     add.w      A0, D0
000049D8  316B 0300 0236           move.w     [A0 + 0x236], [A3 + 0x300]
000049DE  376B 03B6 0300           move.w     [A3 + 0x300], [A3 + 0x3B6]
000049E4  600C                     bra        +0xE /* 000049F2 */
label000049E6:
000049E6  2F3C FFFF B450           move.l     -[A7], 0xFFFFB450
000049EC  4EBA B612                jsr        [PC - 0x49EE /* 00000000 */]
000049F0  588F                     addq.l     A7, 4
label000049F2:
000049F2  4A6B 037A                tst.w      [A3 + 0x37A]
000049F6  6746                     beq        +0x48 /* 00004A3E */
000049F8  45EB 0384                lea.l      A2, [A3 + 0x384]
000049FC  4A12                     tst.b      [A2]
000049FE  673E                     beq        +0x40 /* 00004A3E */
00004A00  5314                     subq.b     [A4], 1
00004A02  4212                     clr.b      [A2]
00004A04  4A6B 03BC                tst.w      [A3 + 0x3BC]
00004A08  6734                     beq        +0x36 /* 00004A3E */
00004A0A  426B 037A                clr.w      [A3 + 0x37A]
00004A0E  0C6B 0064 0302           cmpi.w     [A3 + 0x302], 0x64 /* 'd' */
00004A14  6C1C                     bge        +0x1E /* 00004A32 */
00004A16  302B 0302                move.w     D0, [A3 + 0x302]
00004A1A  526B 0302                addq.w     [A3 + 0x302], 1
00004A1E  204B                     movea.l    A0, A3
00004A20  D0C0                     add.w      A0, D0
00004A22  D0C0                     add.w      A0, D0
00004A24  316B 0300 0236           move.w     [A0 + 0x236], [A3 + 0x300]
00004A2A  376B 03BC 0300           move.w     [A3 + 0x300], [A3 + 0x3BC]
00004A30  600C                     bra        +0xE /* 00004A3E */
label00004A32:
00004A32  2F3C FFFF B470           move.l     -[A7], 0xFFFFB470
00004A38  4EBA B5C6                jsr        [PC - 0x4A3A /* 00000000 */]
00004A3C  588F                     addq.l     A7, 4
label00004A3E:
00004A3E  4CDF 1C00                movem.l    A2,A3,A4, [A7]+
00004A42  4E5E                     unlink     A6
00004A44  4E75                     rts
fn00004A46:
00004A46  4E56 FEEC                link       A6, -0x0114
00004A4A  48E7 1F38                movem.l    -[A7], D3,D4,D5,D6,D7,A2,A3,A4
00004A4E  426E FF9A                clr.w      [A6 - 0x66]
00004A52  3D7C 0006 FF9C           move.w     [A6 - 0x64], 0x6
00004A58  2079 FFFF AEB4           movea.l    A0, [0xFFFFAEB4]
00004A5E  3E28 010C                move.w     D7, [A0 + 0x10C]
00004A62  DE68 0102                add.w      D7, [A0 + 0x102]
00004A66  2007                     move.l     D0, D7
00004A68  0640 010E                addi.w     D0, 0x10E
00004A6C  48C0                     ext.l      D0
00004A6E  81FC 0168                divs.w     D0, 0x168
00004A72  4840                     swap.w     D0
00004A74  C1FC 000C                muls.w     D0, 0xC
00004A78  2240                     movea.l    A1, D0
00004A7A  D3FC FFFF 7E84           add.l      A1, 0xFFFF7E84
00004A80  41EE FFF4                lea.l      A0, [A6 - 0xC]
00004A84  20D9                     move.l     [A0]+, [A1]+
00004A86  20D9                     move.l     [A0]+, [A1]+
00004A88  20D9                     move.l     [A0]+, [A1]+
00004A8A  2007                     move.l     D0, D7
00004A8C  48C0                     ext.l      D0
00004A8E  81FC 0168                divs.w     D0, 0x168
00004A92  4840                     swap.w     D0
00004A94  C1FC 000C                muls.w     D0, 0xC
00004A98  2040                     movea.l    A0, D0
00004A9A  D1FC FFFF 7E84           add.l      A0, 0xFFFF7E84
00004AA0  43EE FF90                lea.l      A1, [A6 - 0x70]
00004AA4  5488                     addq.l     A0, 2
00004AA6  22D8                     move.l     [A1]+, [A0]+
00004AA8  22D8                     move.l     [A1]+, [A0]+
00004AAA  32D8                     move.w     [A1]+, [A0]+
00004AAC  4869 FFF6                pea.l      [A1 - 0xA]
00004AB0  3F3C 000D                move.w     -[A7], 0xD /* '\r' */
00004AB4  A9EB                     syscall    Pack4/FP68K
00004AB6  41EE FFF4                lea.l      A0, [A6 - 0xC]
00004ABA  2121                     move.l     -[A0], -[A1]
00004ABC  2121                     move.l     -[A0], -[A1]
00004ABE  3121                     move.w     -[A0], -[A1]
00004AC0  3110                     move.w     -[A0], [A0]
00004AC2  2079 FFFF AEB4           movea.l    A0, [0xFFFFAEB4]
00004AC8  3E28 0030                move.w     D7, [A0 + 0x30]
00004ACC  48C7                     ext.l      D7
00004ACE  3C28 0032                move.w     D6, [A0 + 0x32]
00004AD2  48C6                     ext.l      D6
00004AD4  7600                     moveq.l    D3, 0x00
00004AD6  3D50 FF9E                move.w     [A6 - 0x62], [A0]
00004ADA  43EE FFC6                lea.l      A1, [A6 - 0x3A]
00004ADE  2D47 FF96                move.l     [A6 - 0x6A], D7
00004AE2  486E FF96                pea.l      [A6 - 0x6A]
00004AE6  4851                     pea.l      [A1]
00004AE8  3F3C 280E                move.w     -[A7], 0x280E
00004AEC  A9EB                     syscall    Pack4/FP68K
00004AEE  3311                     move.w     -[A1], [A1]
00004AF0  43EE FF90                lea.l      A1, [A6 - 0x70]
00004AF4  41EE FFF6                lea.l      A0, [A6 - 0xA]
00004AF8  22D8                     move.l     [A1]+, [A0]+
00004AFA  22D8                     move.l     [A1]+, [A0]+
00004AFC  32D8                     move.w     [A1]+, [A0]+
00004AFE  2D47 FF8C                move.l     [A6 - 0x74], D7
00004B02  486E FF8C                pea.l      [A6 - 0x74]
00004B06  4869 FFF6                pea.l      [A1 - 0xA]
00004B0A  3F3C 2804                move.w     -[A7], 0x2804
00004B0E  A9EB                     syscall    Pack4/FP68K
00004B10  41EE FFAC                lea.l      A0, [A6 - 0x54]
00004B14  2121                     move.l     -[A0], -[A1]
00004B16  2121                     move.l     -[A0], -[A1]
00004B18  3121                     move.w     -[A0], -[A1]
00004B1A  3110                     move.w     -[A0], [A0]
00004B1C  41EE FFD2                lea.l      A0, [A6 - 0x2E]
00004B20  2D46 FF96                move.l     [A6 - 0x6A], D6
00004B24  486E FF96                pea.l      [A6 - 0x6A]
00004B28  4850                     pea.l      [A0]
00004B2A  3F3C 280E                move.w     -[A7], 0x280E
00004B2E  A9EB                     syscall    Pack4/FP68K
00004B30  3110                     move.w     -[A0], [A0]
00004B32  41EE FF90                lea.l      A0, [A6 - 0x70]
00004B36  43EE FFEA                lea.l      A1, [A6 - 0x16]
00004B3A  20D9                     move.l     [A0]+, [A1]+
00004B3C  20D9                     move.l     [A0]+, [A1]+
00004B3E  30D9                     move.w     [A0]+, [A1]+
00004B40  2D46 FF8C                move.l     [A6 - 0x74], D6
00004B44  486E FF8C                pea.l      [A6 - 0x74]
00004B48  4868 FFF6                pea.l      [A0 - 0xA]
00004B4C  3F3C 2804                move.w     -[A7], 0x2804
00004B50  A9EB                     syscall    Pack4/FP68K
00004B52  43EE FFB8                lea.l      A1, [A6 - 0x48]
00004B56  2320                     move.l     -[A1], -[A0]
00004B58  2320                     move.l     -[A1], -[A0]
00004B5A  3320                     move.w     -[A1], -[A0]
00004B5C  3311                     move.w     -[A1], [A1]
00004B5E  41EE FF90                lea.l      A0, [A6 - 0x70]
00004B62  43EE FFEA                lea.l      A1, [A6 - 0x16]
00004B66  20D9                     move.l     [A0]+, [A1]+
00004B68  20D9                     move.l     [A0]+, [A1]+
00004B6A  30D9                     move.w     [A0]+, [A1]+
00004B6C  486E FFEA                pea.l      [A6 - 0x16]
00004B70  4868 FFF6                pea.l      [A0 - 0xA]
00004B74  3F3C 0004                move.w     -[A7], 0x4
00004B78  A9EB                     syscall    Pack4/FP68K
00004B7A  43EE FF86                lea.l      A1, [A6 - 0x7A]
00004B7E  45EE FFF6                lea.l      A2, [A6 - 0xA]
00004B82  22DA                     move.l     [A1]+, [A2]+
00004B84  22DA                     move.l     [A1]+, [A2]+
00004B86  32DA                     move.w     [A1]+, [A2]+
00004B88  486E FFF6                pea.l      [A6 - 0xA]
00004B8C  4869 FFF6                pea.l      [A1 - 0xA]
00004B90  3F3C 0004                move.w     -[A7], 0x4
00004B94  A9EB                     syscall    Pack4/FP68K
00004B96  45EE FF7C                lea.l      A2, [A6 - 0x84]
00004B9A  43E9 FFF6                lea.l      A1, [A1 - 0xA]
00004B9E  24D9                     move.l     [A2]+, [A1]+
00004BA0  24D9                     move.l     [A2]+, [A1]+
00004BA2  34D9                     move.w     [A2]+, [A1]+
00004BA4  4868 FFF6                pea.l      [A0 - 0xA]
00004BA8  486A FFF6                pea.l      [A2 - 0xA]
00004BAC  4267                     clr.w      -[A7]
00004BAE  A9EB                     syscall    Pack4/FP68K
00004BB0  41EE FFC4                lea.l      A0, [A6 - 0x3C]
00004BB4  2122                     move.l     -[A0], -[A2]
00004BB6  2122                     move.l     -[A0], -[A2]
00004BB8  3122                     move.w     -[A0], -[A2]
00004BBA  3110                     move.w     -[A0], [A0]
00004BBC  303C 03C2                move.w     D0, 0x3C2
00004BC0  C1C3                     muls.w     D0, D3
00004BC2  0680 FFFF 9442           addi.l     D0, 0xFFFF9442
00004BC8  2840                     movea.l    A4, D0
00004BCA  6000 02FC                bra        +0x2FE /* 00004EC8 */
label00004BCE:
00004BCE  4A2C 0116                tst.b      [A4 + 0x116]
00004BD2  6700 02EE                beq        +0x2F0 /* 00004EC2 */
00004BD6  B66E FF9E                cmp.w      D3, [A6 - 0x62]
00004BDA  6700 02E6                beq        +0x2E8 /* 00004EC2 */
00004BDE  3A2C 0030                move.w     D5, [A4 + 0x30]
00004BE2  48C5                     ext.l      D5
00004BE4  382C 0032                move.w     D4, [A4 + 0x32]
00004BE8  48C4                     ext.l      D4
00004BEA  41EE FF90                lea.l      A0, [A6 - 0x70]
00004BEE  43EE FFEA                lea.l      A1, [A6 - 0x16]
00004BF2  20D9                     move.l     [A0]+, [A1]+
00004BF4  20D9                     move.l     [A0]+, [A1]+
00004BF6  30D9                     move.w     [A0]+, [A1]+
00004BF8  2D44 FF8C                move.l     [A6 - 0x74], D4
00004BFC  486E FF8C                pea.l      [A6 - 0x74]
00004C00  4868 FFF6                pea.l      [A0 - 0xA]
00004C04  3F3C 2804                move.w     -[A7], 0x2804
00004C08  A9EB                     syscall    Pack4/FP68K
00004C0A  43EE FF82                lea.l      A1, [A6 - 0x7E]
00004C0E  45EE FFF6                lea.l      A2, [A6 - 0xA]
00004C12  22DA                     move.l     [A1]+, [A2]+
00004C14  22DA                     move.l     [A1]+, [A2]+
00004C16  32DA                     move.w     [A1]+, [A2]+
00004C18  2D45 FF7E                move.l     [A6 - 0x82], D5
00004C1C  486E FF7E                pea.l      [A6 - 0x82]
00004C20  4869 FFF6                pea.l      [A1 - 0xA]
00004C24  3F3C 2804                move.w     -[A7], 0x2804
00004C28  A9EB                     syscall    Pack4/FP68K
00004C2A  45EE FF74                lea.l      A2, [A6 - 0x8C]
00004C2E  43E9 FFF6                lea.l      A1, [A1 - 0xA]
00004C32  24D9                     move.l     [A2]+, [A1]+
00004C34  24D9                     move.l     [A2]+, [A1]+
00004C36  34D9                     move.w     [A2]+, [A1]+
00004C38  4868 FFF6                pea.l      [A0 - 0xA]
00004C3C  486A FFF6                pea.l      [A2 - 0xA]
00004C40  4267                     clr.w      -[A7]
00004C42  A9EB                     syscall    Pack4/FP68K
00004C44  41EE FF6A                lea.l      A0, [A6 - 0x96]
00004C48  45EA FFF6                lea.l      A2, [A2 - 0xA]
00004C4C  20DA                     move.l     [A0]+, [A2]+
00004C4E  20DA                     move.l     [A0]+, [A2]+
00004C50  30DA                     move.w     [A0]+, [A2]+
00004C52  486E FFA2                pea.l      [A6 - 0x5E]
00004C56  4868 FFF6                pea.l      [A0 - 0xA]
00004C5A  3F3C 0002                move.w     -[A7], 0x2
00004C5E  A9EB                     syscall    Pack4/FP68K
00004C60  43EE FF60                lea.l      A1, [A6 - 0xA0]
00004C64  41E8 FFF6                lea.l      A0, [A0 - 0xA]
00004C68  22D8                     move.l     [A1]+, [A0]+
00004C6A  22D8                     move.l     [A1]+, [A0]+
00004C6C  32D8                     move.w     [A1]+, [A0]+
00004C6E  486E FFAE                pea.l      [A6 - 0x52]
00004C72  4869 FFF6                pea.l      [A1 - 0xA]
00004C76  3F3C 0002                move.w     -[A7], 0x2
00004C7A  A9EB                     syscall    Pack4/FP68K
00004C7C  41EE FF56                lea.l      A0, [A6 - 0xAA]
00004C80  43E9 FFF6                lea.l      A1, [A1 - 0xA]
00004C84  20D9                     move.l     [A0]+, [A1]+
00004C86  20D9                     move.l     [A0]+, [A1]+
00004C88  30D9                     move.w     [A0]+, [A1]+
00004C8A  486E FFBA                pea.l      [A6 - 0x46]
00004C8E  4868 FFF6                pea.l      [A0 - 0xA]
00004C92  3F3C 0006                move.w     -[A7], 0x6
00004C96  A9EB                     syscall    Pack4/FP68K
00004C98  43EE FFE8                lea.l      A1, [A6 - 0x18]
00004C9C  2320                     move.l     -[A1], -[A0]
00004C9E  2320                     move.l     -[A1], -[A0]
00004CA0  3320                     move.w     -[A1], -[A0]
00004CA2  3311                     move.w     -[A1], [A1]
00004CA4  487A 026A                pea.l      [PC + 0x26A /* 00004F10, value 0x4E56 'NV', cstring "" */]
00004CA8  486E FFDE                pea.l      [A6 - 0x22]
00004CAC  3F3C 2008                move.w     -[A7], 0x2008
00004CB0  A9EB                     syscall    Pack4/FP68K
00004CB2  6F00 020E                ble        +0x210 /* 00004EC2 */
00004CB6  41EE FF90                lea.l      A0, [A6 - 0x70]
00004CBA  43EE FFEA                lea.l      A1, [A6 - 0x16]
00004CBE  20D9                     move.l     [A0]+, [A1]+
00004CC0  20D9                     move.l     [A0]+, [A1]+
00004CC2  30D9                     move.w     [A0]+, [A1]+
00004CC4  486E FFDE                pea.l      [A6 - 0x22]
00004CC8  4868 FFF6                pea.l      [A0 - 0xA]
00004CCC  3F3C 0004                move.w     -[A7], 0x4
00004CD0  A9EB                     syscall    Pack4/FP68K
00004CD2  43EE FF86                lea.l      A1, [A6 - 0x7A]
00004CD6  41E8 FFF6                lea.l      A0, [A0 - 0xA]
00004CDA  22D8                     move.l     [A1]+, [A0]+
00004CDC  22D8                     move.l     [A1]+, [A0]+
00004CDE  32D8                     move.w     [A1]+, [A0]+
00004CE0  2D46 FF82                move.l     [A6 - 0x7E], D6
00004CE4  486E FF82                pea.l      [A6 - 0x7E]
00004CE8  4869 FFF6                pea.l      [A1 - 0xA]
00004CEC  3F3C 2800                move.w     -[A7], 0x2800 /* '(\0' */
00004CF0  A9EB                     syscall    Pack4/FP68K
00004CF2  41EE FF78                lea.l      A0, [A6 - 0x88]
00004CF6  43E9 FFF6                lea.l      A1, [A1 - 0xA]
00004CFA  20D9                     move.l     [A0]+, [A1]+
00004CFC  20D9                     move.l     [A0]+, [A1]+
00004CFE  30D9                     move.w     [A0]+, [A1]+
00004D00  2D44 FF74                move.l     [A6 - 0x8C], D4
00004D04  486E FF74                pea.l      [A6 - 0x8C]
00004D08  4868 FFF6                pea.l      [A0 - 0xA]
00004D0C  3F3C 2802                move.w     -[A7], 0x2802
00004D10  A9EB                     syscall    Pack4/FP68K
00004D12  43EE FF6A                lea.l      A1, [A6 - 0x96]
00004D16  45EE FFEA                lea.l      A2, [A6 - 0x16]
00004D1A  22DA                     move.l     [A1]+, [A2]+
00004D1C  22DA                     move.l     [A1]+, [A2]+
00004D1E  32DA                     move.w     [A1]+, [A2]+
00004D20  486E FFDE                pea.l      [A6 - 0x22]
00004D24  4869 FFF6                pea.l      [A1 - 0xA]
00004D28  3F3C 0004                move.w     -[A7], 0x4
00004D2C  A9EB                     syscall    Pack4/FP68K
00004D2E  45EE FF60                lea.l      A2, [A6 - 0xA0]
00004D32  43E9 FFF6                lea.l      A1, [A1 - 0xA]
00004D36  24D9                     move.l     [A2]+, [A1]+
00004D38  24D9                     move.l     [A2]+, [A1]+
00004D3A  34D9                     move.w     [A2]+, [A1]+
00004D3C  486E FFD2                pea.l      [A6 - 0x2E]
00004D40  486A FFF6                pea.l      [A2 - 0xA]
00004D44  4267                     clr.w      -[A7]
00004D46  A9EB                     syscall    Pack4/FP68K
00004D48  43EE FF56                lea.l      A1, [A6 - 0xAA]
00004D4C  45EA FFF6                lea.l      A2, [A2 - 0xA]
00004D50  22DA                     move.l     [A1]+, [A2]+
00004D52  22DA                     move.l     [A1]+, [A2]+
00004D54  32DA                     move.w     [A1]+, [A2]+
00004D56  2D44 FF52                move.l     [A6 - 0xAE], D4
00004D5A  486E FF52                pea.l      [A6 - 0xAE]
00004D5E  4869 FFF6                pea.l      [A1 - 0xA]
00004D62  3F3C 2802                move.w     -[A7], 0x2802
00004D66  A9EB                     syscall    Pack4/FP68K
00004D68  45EE FF48                lea.l      A2, [A6 - 0xB8]
00004D6C  43E9 FFF6                lea.l      A1, [A1 - 0xA]
00004D70  24D9                     move.l     [A2]+, [A1]+
00004D72  24D9                     move.l     [A2]+, [A1]+
00004D74  34D9                     move.w     [A2]+, [A1]+
00004D76  4868 FFF6                pea.l      [A0 - 0xA]
00004D7A  486A FFF6                pea.l      [A2 - 0xA]
00004D7E  3F3C 0004                move.w     -[A7], 0x4
00004D82  A9EB                     syscall    Pack4/FP68K
00004D84  41EE FF3E                lea.l      A0, [A6 - 0xC2]
00004D88  43EE FFF6                lea.l      A1, [A6 - 0xA]
00004D8C  20D9                     move.l     [A0]+, [A1]+
00004D8E  20D9                     move.l     [A0]+, [A1]+
00004D90  30D9                     move.w     [A0]+, [A1]+
00004D92  486E FFDE                pea.l      [A6 - 0x22]
00004D96  4868 FFF6                pea.l      [A0 - 0xA]
00004D9A  3F3C 0004                move.w     -[A7], 0x4
00004D9E  A9EB                     syscall    Pack4/FP68K
00004DA0  43EE FF34                lea.l      A1, [A6 - 0xCC]
00004DA4  41E8 FFF6                lea.l      A0, [A0 - 0xA]
00004DA8  22D8                     move.l     [A1]+, [A0]+
00004DAA  22D8                     move.l     [A1]+, [A0]+
00004DAC  32D8                     move.w     [A1]+, [A0]+
00004DAE  2D47 FF30                move.l     [A6 - 0xD0], D7
00004DB2  486E FF30                pea.l      [A6 - 0xD0]
00004DB6  4869 FFF6                pea.l      [A1 - 0xA]
00004DBA  3F3C 2800                move.w     -[A7], 0x2800 /* '(\0' */
00004DBE  A9EB                     syscall    Pack4/FP68K
00004DC0  41EE FF26                lea.l      A0, [A6 - 0xDA]
00004DC4  43E9 FFF6                lea.l      A1, [A1 - 0xA]
00004DC8  20D9                     move.l     [A0]+, [A1]+
00004DCA  20D9                     move.l     [A0]+, [A1]+
00004DCC  30D9                     move.w     [A0]+, [A1]+
00004DCE  2D45 FF22                move.l     [A6 - 0xDE], D5
00004DD2  486E FF22                pea.l      [A6 - 0xDE]
00004DD6  4868 FFF6                pea.l      [A0 - 0xA]
00004DDA  3F3C 2802                move.w     -[A7], 0x2802
00004DDE  A9EB                     syscall    Pack4/FP68K
00004DE0  43EE FF18                lea.l      A1, [A6 - 0xE8]
00004DE4  47EE FFF6                lea.l      A3, [A6 - 0xA]
00004DE8  22DB                     move.l     [A1]+, [A3]+
00004DEA  22DB                     move.l     [A1]+, [A3]+
00004DEC  32DB                     move.w     [A1]+, [A3]+
00004DEE  486E FFDE                pea.l      [A6 - 0x22]
00004DF2  4869 FFF6                pea.l      [A1 - 0xA]
00004DF6  3F3C 0004                move.w     -[A7], 0x4
00004DFA  A9EB                     syscall    Pack4/FP68K
00004DFC  47EE FF0E                lea.l      A3, [A6 - 0xF2]
00004E00  43E9 FFF6                lea.l      A1, [A1 - 0xA]
00004E04  26D9                     move.l     [A3]+, [A1]+
00004E06  26D9                     move.l     [A3]+, [A1]+
00004E08  36D9                     move.w     [A3]+, [A1]+
00004E0A  486E FFC6                pea.l      [A6 - 0x3A]
00004E0E  486B FFF6                pea.l      [A3 - 0xA]
00004E12  4267                     clr.w      -[A7]
00004E14  A9EB                     syscall    Pack4/FP68K
00004E16  43EE FF04                lea.l      A1, [A6 - 0xFC]
00004E1A  47EB FFF6                lea.l      A3, [A3 - 0xA]
00004E1E  22DB                     move.l     [A1]+, [A3]+
00004E20  22DB                     move.l     [A1]+, [A3]+
00004E22  32DB                     move.w     [A1]+, [A3]+
00004E24  2D45 FF00                move.l     [A6 - 0x100], D5
00004E28  486E FF00                pea.l      [A6 - 0x100]
00004E2C  4869 FFF6                pea.l      [A1 - 0xA]
00004E30  3F3C 2802                move.w     -[A7], 0x2802
00004E34  A9EB                     syscall    Pack4/FP68K
00004E36  47EE FEF6                lea.l      A3, [A6 - 0x10A]
00004E3A  43E9 FFF6                lea.l      A1, [A1 - 0xA]
00004E3E  26D9                     move.l     [A3]+, [A1]+
00004E40  26D9                     move.l     [A3]+, [A1]+
00004E42  36D9                     move.w     [A3]+, [A1]+
00004E44  4868 FFF6                pea.l      [A0 - 0xA]
00004E48  486B FFF6                pea.l      [A3 - 0xA]
00004E4C  3F3C 0004                move.w     -[A7], 0x4
00004E50  A9EB                     syscall    Pack4/FP68K
00004E52  41EE FEEC                lea.l      A0, [A6 - 0x114]
00004E56  47EB FFF6                lea.l      A3, [A3 - 0xA]
00004E5A  20DB                     move.l     [A0]+, [A3]+
00004E5C  20DB                     move.l     [A0]+, [A3]+
00004E5E  30DB                     move.w     [A0]+, [A3]+
00004E60  486A FFF6                pea.l      [A2 - 0xA]
00004E64  4868 FFF6                pea.l      [A0 - 0xA]
00004E68  4267                     clr.w      -[A7]
00004E6A  A9EB                     syscall    Pack4/FP68K
00004E6C  487A 00A0                pea.l      [PC + 0xA0 /* 00004F0E, value 0x5B0000 '[\0\0', cstring "" */]
00004E70  4868 FFF6                pea.l      [A0 - 0xA]
00004E74  3F3C 2008                move.w     -[A7], 0x2008
00004E78  A9EB                     syscall    Pack4/FP68K
00004E7A  6C46                     bge        +0x48 /* 00004EC2 */
00004E7C  4A6E FF9A                tst.w      [A6 - 0x66]
00004E80  6710                     beq        +0x12 /* 00004E92 */
00004E82  486E FF9A                pea.l      [A6 - 0x66]
00004E86  486E FFDE                pea.l      [A6 - 0x22]
00004E8A  3F3C 2008                move.w     -[A7], 0x2008
00004E8E  A9EB                     syscall    Pack4/FP68K
00004E90  6C30                     bge        +0x32 /* 00004EC2 */
label00004E92:
00004E92  41EE FF8E                lea.l      A0, [A6 - 0x72]
00004E96  43EE FFDE                lea.l      A1, [A6 - 0x22]
00004E9A  20D9                     move.l     [A0]+, [A1]+
00004E9C  20D9                     move.l     [A0]+, [A1]+
00004E9E  30D9                     move.w     [A0]+, [A1]+
00004EA0  4868 FFF6                pea.l      [A0 - 0xA]
00004EA4  3F3C 0016                move.w     -[A7], 0x16
00004EA8  A9EB                     syscall    Pack4/FP68K
00004EAA  4868 FFF6                pea.l      [A0 - 0xA]
00004EAE  486E FF98                pea.l      [A6 - 0x68]
00004EB2  3F3C 2010                move.w     -[A7], 0x2010
00004EB6  A9EB                     syscall    Pack4/FP68K
00004EB8  3D6E FF98 FF9A           move.w     [A6 - 0x66], [A6 - 0x68]
00004EBE  3D43 FF9C                move.w     [A6 - 0x64], D3
label00004EC2:
00004EC2  5243                     addq.w     D3, 1
00004EC4  49EC 03C2                lea.l      A4, [A4 + 0x3C2]
label00004EC8:
00004EC8  B679 FFFF 9226           cmp.w      D3, [0xFFFF9226]
00004ECE  6D00 FCFE                blt        -0x300 /* 00004BCE */
00004ED2  2079 FFFF AEB4           movea.l    A0, [0xFFFFAEB4]
00004ED8  3E28 034C                move.w     D7, [A0 + 0x34C]
00004EDC  4A47                     tst.w      D7
00004EDE  6718                     beq        +0x1A /* 00004EF8 */
00004EE0  303C 03C2                move.w     D0, 0x3C2
00004EE4  C1EE FF9C                muls.w     D0, [A6 - 0x64]
00004EE8  2040                     movea.l    A0, D0
00004EEA  D1FC FFFF 978E           add.l      A0, 0xFFFF978E
00004EF0  BE50                     cmp.w      D7, [A0]
00004EF2  6604                     bne        +0x6 /* 00004EF8 */
00004EF4  426E FF9A                clr.w      [A6 - 0x66]
label00004EF8:
00004EF8  4A6E FF9A                tst.w      [A6 - 0x66]
00004EFC  6706                     beq        +0x8 /* 00004F04 */
00004EFE  302E FF9C                move.w     D0, [A6 - 0x64]
00004F02  6002                     bra        +0x4 /* 00004F06 */
label00004F04:
00004F04  70FF                     moveq.l    D0, 0xFFFFFFFF
label00004F06:
00004F06  4CDF 1CF8                movem.l    D3,D4,D5,D6,D7,A2,A3,A4, [A7]+
00004F0A  4E5E                     unlink     A6
00004F0C  4E75                     rts
00004F0E  005B 0000                ori.w      [A3]+, 0x0
fn00004F12:
00004F12  4E56 FEEE                link       A6, -0x0112
00004F16  48E7 1F38                movem.l    -[A7], D3,D4,D5,D6,D7,A2,A3,A4
00004F1A  426E FF9C                clr.w      [A6 - 0x64]
00004F1E  3D7C 0006 FF9E           move.w     [A6 - 0x62], 0x6
00004F24  2079 FFFF AEB4           movea.l    A0, [0xFFFFAEB4]
00004F2A  3E28 010C                move.w     D7, [A0 + 0x10C]
00004F2E  DE68 0102                add.w      D7, [A0 + 0x102]
00004F32  2007                     move.l     D0, D7
00004F34  0640 010E                addi.w     D0, 0x10E
00004F38  48C0                     ext.l      D0
00004F3A  81FC 0168                divs.w     D0, 0x168
00004F3E  4840                     swap.w     D0
00004F40  C1FC 000C                muls.w     D0, 0xC
00004F44  2240                     movea.l    A1, D0
00004F46  D3FC FFFF 7E84           add.l      A1, 0xFFFF7E84
00004F4C  41EE FFF4                lea.l      A0, [A6 - 0xC]
00004F50  20D9                     move.l     [A0]+, [A1]+
00004F52  20D9                     move.l     [A0]+, [A1]+
00004F54  20D9                     move.l     [A0]+, [A1]+
00004F56  2007                     move.l     D0, D7
00004F58  48C0                     ext.l      D0
00004F5A  81FC 0168                divs.w     D0, 0x168
00004F5E  4840                     swap.w     D0
00004F60  C1FC 000C                muls.w     D0, 0xC
00004F64  2040                     movea.l    A0, D0
00004F66  D1FC FFFF 7E84           add.l      A0, 0xFFFF7E84
00004F6C  43EE FF92                lea.l      A1, [A6 - 0x6E]
00004F70  5488                     addq.l     A0, 2
00004F72  22D8                     move.l     [A1]+, [A0]+
00004F74  22D8                     move.l     [A1]+, [A0]+
00004F76  32D8                     move.w     [A1]+, [A0]+
00004F78  4869 FFF6                pea.l      [A1 - 0xA]
00004F7C  3F3C 000D                move.w     -[A7], 0xD /* '\r' */
00004F80  A9EB                     syscall    Pack4/FP68K
00004F82  41EE FFF4                lea.l      A0, [A6 - 0xC]
00004F86  2121                     move.l     -[A0], -[A1]
00004F88  2121                     move.l     -[A0], -[A1]
00004F8A  3121                     move.w     -[A0], -[A1]
00004F8C  3110                     move.w     -[A0], [A0]
00004F8E  2079 FFFF AEB4           movea.l    A0, [0xFFFFAEB4]
00004F94  3E28 0030                move.w     D7, [A0 + 0x30]
00004F98  48C7                     ext.l      D7
00004F9A  3C28 0032                move.w     D6, [A0 + 0x32]
00004F9E  48C6                     ext.l      D6
00004FA0  7600                     moveq.l    D3, 0x00
00004FA2  43EE FFC6                lea.l      A1, [A6 - 0x3A]
00004FA6  2D47 FF98                move.l     [A6 - 0x68], D7
00004FAA  486E FF98                pea.l      [A6 - 0x68]
00004FAE  4851                     pea.l      [A1]
00004FB0  3F3C 280E                move.w     -[A7], 0x280E
00004FB4  A9EB                     syscall    Pack4/FP68K
00004FB6  3311                     move.w     -[A1], [A1]
00004FB8  43EE FF92                lea.l      A1, [A6 - 0x6E]
00004FBC  41EE FFF6                lea.l      A0, [A6 - 0xA]
00004FC0  22D8                     move.l     [A1]+, [A0]+
00004FC2  22D8                     move.l     [A1]+, [A0]+
00004FC4  32D8                     move.w     [A1]+, [A0]+
00004FC6  2D47 FF8E                move.l     [A6 - 0x72], D7
00004FCA  486E FF8E                pea.l      [A6 - 0x72]
00004FCE  4869 FFF6                pea.l      [A1 - 0xA]
00004FD2  3F3C 2804                move.w     -[A7], 0x2804
00004FD6  A9EB                     syscall    Pack4/FP68K
00004FD8  41EE FFAC                lea.l      A0, [A6 - 0x54]
00004FDC  2121                     move.l     -[A0], -[A1]
00004FDE  2121                     move.l     -[A0], -[A1]
00004FE0  3121                     move.w     -[A0], -[A1]
00004FE2  3110                     move.w     -[A0], [A0]
00004FE4  41EE FFD2                lea.l      A0, [A6 - 0x2E]
00004FE8  2D46 FF98                move.l     [A6 - 0x68], D6
00004FEC  486E FF98                pea.l      [A6 - 0x68]
00004FF0  4850                     pea.l      [A0]
00004FF2  3F3C 280E                move.w     -[A7], 0x280E
00004FF6  A9EB                     syscall    Pack4/FP68K
00004FF8  3110                     move.w     -[A0], [A0]
00004FFA  41EE FF92                lea.l      A0, [A6 - 0x6E]
00004FFE  43EE FFEA                lea.l      A1, [A6 - 0x16]
00005002  20D9                     move.l     [A0]+, [A1]+
00005004  20D9                     move.l     [A0]+, [A1]+
00005006  30D9                     move.w     [A0]+, [A1]+
00005008  2D46 FF8E                move.l     [A6 - 0x72], D6
0000500C  486E FF8E                pea.l      [A6 - 0x72]
00005010  4868 FFF6                pea.l      [A0 - 0xA]
00005014  3F3C 2804                move.w     -[A7], 0x2804
00005018  A9EB                     syscall    Pack4/FP68K
0000501A  43EE FFB8                lea.l      A1, [A6 - 0x48]
0000501E  2320                     move.l     -[A1], -[A0]
00005020  2320                     move.l     -[A1], -[A0]
00005022  3320                     move.w     -[A1], -[A0]
00005024  3311                     move.w     -[A1], [A1]
00005026  41EE FF92                lea.l      A0, [A6 - 0x6E]
0000502A  43EE FFEA                lea.l      A1, [A6 - 0x16]
0000502E  20D9                     move.l     [A0]+, [A1]+
00005030  20D9                     move.l     [A0]+, [A1]+
00005032  30D9                     move.w     [A0]+, [A1]+
00005034  486E FFEA                pea.l      [A6 - 0x16]
00005038  4868 FFF6                pea.l      [A0 - 0xA]
0000503C  3F3C 0004                move.w     -[A7], 0x4
00005040  A9EB                     syscall    Pack4/FP68K
00005042  43EE FF88                lea.l      A1, [A6 - 0x78]
00005046  45EE FFF6                lea.l      A2, [A6 - 0xA]
0000504A  22DA                     move.l     [A1]+, [A2]+
0000504C  22DA                     move.l     [A1]+, [A2]+
0000504E  32DA                     move.w     [A1]+, [A2]+
00005050  486E FFF6                pea.l      [A6 - 0xA]
00005054  4869 FFF6                pea.l      [A1 - 0xA]
00005058  3F3C 0004                move.w     -[A7], 0x4
0000505C  A9EB                     syscall    Pack4/FP68K
0000505E  45EE FF7E                lea.l      A2, [A6 - 0x82]
00005062  43E9 FFF6                lea.l      A1, [A1 - 0xA]
00005066  24D9                     move.l     [A2]+, [A1]+
00005068  24D9                     move.l     [A2]+, [A1]+
0000506A  34D9                     move.w     [A2]+, [A1]+
0000506C  4868 FFF6                pea.l      [A0 - 0xA]
00005070  486A FFF6                pea.l      [A2 - 0xA]
00005074  4267                     clr.w      -[A7]
00005076  A9EB                     syscall    Pack4/FP68K
00005078  41EE FFC4                lea.l      A0, [A6 - 0x3C]
0000507C  2122                     move.l     -[A0], -[A2]
0000507E  2122                     move.l     -[A0], -[A2]
00005080  3122                     move.w     -[A0], -[A2]
00005082  3110                     move.w     -[A0], [A0]
00005084  303C 03C2                move.w     D0, 0x3C2
00005088  C1C3                     muls.w     D0, D3
0000508A  0680 FFFF 9442           addi.l     D0, 0xFFFF9442
00005090  2840                     movea.l    A4, D0
00005092  6000 0390                bra        +0x392 /* 00005424 */
label00005096:
00005096  4A2C 0116                tst.b      [A4 + 0x116]
0000509A  6700 0382                beq        +0x384 /* 0000541E */
0000509E  2079 FFFF AEB4           movea.l    A0, [0xFFFFAEB4]
000050A4  B650                     cmp.w      D3, [A0]
000050A6  6700 0376                beq        +0x378 /* 0000541E */
000050AA  3A2C 0030                move.w     D5, [A4 + 0x30]
000050AE  48C5                     ext.l      D5
000050B0  382C 0032                move.w     D4, [A4 + 0x32]
000050B4  48C4                     ext.l      D4
000050B6  41EE FF92                lea.l      A0, [A6 - 0x6E]
000050BA  43EE FFEA                lea.l      A1, [A6 - 0x16]
000050BE  20D9                     move.l     [A0]+, [A1]+
000050C0  20D9                     move.l     [A0]+, [A1]+
000050C2  30D9                     move.w     [A0]+, [A1]+
000050C4  2D44 FF8E                move.l     [A6 - 0x72], D4
000050C8  486E FF8E                pea.l      [A6 - 0x72]
000050CC  4868 FFF6                pea.l      [A0 - 0xA]
000050D0  3F3C 2804                move.w     -[A7], 0x2804
000050D4  A9EB                     syscall    Pack4/FP68K
000050D6  43EE FF84                lea.l      A1, [A6 - 0x7C]
000050DA  45EE FFF6                lea.l      A2, [A6 - 0xA]
000050DE  22DA                     move.l     [A1]+, [A2]+
000050E0  22DA                     move.l     [A1]+, [A2]+
000050E2  32DA                     move.w     [A1]+, [A2]+
000050E4  2D45 FF80                move.l     [A6 - 0x80], D5
000050E8  486E FF80                pea.l      [A6 - 0x80]
000050EC  4869 FFF6                pea.l      [A1 - 0xA]
000050F0  3F3C 2804                move.w     -[A7], 0x2804
000050F4  A9EB                     syscall    Pack4/FP68K
000050F6  45EE FF76                lea.l      A2, [A6 - 0x8A]
000050FA  43E9 FFF6                lea.l      A1, [A1 - 0xA]
000050FE  24D9                     move.l     [A2]+, [A1]+
00005100  24D9                     move.l     [A2]+, [A1]+
00005102  34D9                     move.w     [A2]+, [A1]+
00005104  4868 FFF6                pea.l      [A0 - 0xA]
00005108  486A FFF6                pea.l      [A2 - 0xA]
0000510C  4267                     clr.w      -[A7]
0000510E  A9EB                     syscall    Pack4/FP68K
00005110  41EE FF6C                lea.l      A0, [A6 - 0x94]
00005114  45EA FFF6                lea.l      A2, [A2 - 0xA]
00005118  20DA                     move.l     [A0]+, [A2]+
0000511A  20DA                     move.l     [A0]+, [A2]+
0000511C  30DA                     move.w     [A0]+, [A2]+
0000511E  486E FFA2                pea.l      [A6 - 0x5E]
00005122  4868 FFF6                pea.l      [A0 - 0xA]
00005126  3F3C 0002                move.w     -[A7], 0x2
0000512A  A9EB                     syscall    Pack4/FP68K
0000512C  43EE FF62                lea.l      A1, [A6 - 0x9E]
00005130  41E8 FFF6                lea.l      A0, [A0 - 0xA]
00005134  22D8                     move.l     [A1]+, [A0]+
00005136  22D8                     move.l     [A1]+, [A0]+
00005138  32D8                     move.w     [A1]+, [A0]+
0000513A  486E FFAE                pea.l      [A6 - 0x52]
0000513E  4869 FFF6                pea.l      [A1 - 0xA]
00005142  3F3C 0002                move.w     -[A7], 0x2
00005146  A9EB                     syscall    Pack4/FP68K
00005148  41EE FF58                lea.l      A0, [A6 - 0xA8]
0000514C  43E9 FFF6                lea.l      A1, [A1 - 0xA]
00005150  20D9                     move.l     [A0]+, [A1]+
00005152  20D9                     move.l     [A0]+, [A1]+
00005154  30D9                     move.w     [A0]+, [A1]+
00005156  486E FFBA                pea.l      [A6 - 0x46]
0000515A  4868 FFF6                pea.l      [A0 - 0xA]
0000515E  3F3C 0006                move.w     -[A7], 0x6
00005162  A9EB                     syscall    Pack4/FP68K
00005164  43EE FFE8                lea.l      A1, [A6 - 0x18]
00005168  2320                     move.l     -[A1], -[A0]
0000516A  2320                     move.l     -[A1], -[A0]
0000516C  3320                     move.w     -[A1], -[A0]
0000516E  3311                     move.w     -[A1], [A1]
00005170  487A 02FA                pea.l      [PC + 0x2FA /* 0000546C, value 0x4E56 'NV', cstring "" */]
00005174  486E FFDE                pea.l      [A6 - 0x22]
00005178  3F3C 2008                move.w     -[A7], 0x2008
0000517C  A9EB                     syscall    Pack4/FP68K
0000517E  6F00 029E                ble        +0x2A0 /* 0000541E */
00005182  41EE FF92                lea.l      A0, [A6 - 0x6E]
00005186  43EE FFEA                lea.l      A1, [A6 - 0x16]
0000518A  20D9                     move.l     [A0]+, [A1]+
0000518C  20D9                     move.l     [A0]+, [A1]+
0000518E  30D9                     move.w     [A0]+, [A1]+
00005190  486E FFDE                pea.l      [A6 - 0x22]
00005194  4868 FFF6                pea.l      [A0 - 0xA]
00005198  3F3C 0004                move.w     -[A7], 0x4
0000519C  A9EB                     syscall    Pack4/FP68K
0000519E  43EE FF88                lea.l      A1, [A6 - 0x78]
000051A2  41E8 FFF6                lea.l      A0, [A0 - 0xA]
000051A6  22D8                     move.l     [A1]+, [A0]+
000051A8  22D8                     move.l     [A1]+, [A0]+
000051AA  32D8                     move.w     [A1]+, [A0]+
000051AC  2D46 FF84                move.l     [A6 - 0x7C], D6
000051B0  486E FF84                pea.l      [A6 - 0x7C]
000051B4  4869 FFF6                pea.l      [A1 - 0xA]
000051B8  3F3C 2800                move.w     -[A7], 0x2800 /* '(\0' */
000051BC  A9EB                     syscall    Pack4/FP68K
000051BE  41EE FF7A                lea.l      A0, [A6 - 0x86]
000051C2  43E9 FFF6                lea.l      A1, [A1 - 0xA]
000051C6  20D9                     move.l     [A0]+, [A1]+
000051C8  20D9                     move.l     [A0]+, [A1]+
000051CA  30D9                     move.w     [A0]+, [A1]+
000051CC  2D44 FF76                move.l     [A6 - 0x8A], D4
000051D0  486E FF76                pea.l      [A6 - 0x8A]
000051D4  4868 FFF6                pea.l      [A0 - 0xA]
000051D8  3F3C 2802                move.w     -[A7], 0x2802
000051DC  A9EB                     syscall    Pack4/FP68K
000051DE  43EE FF6C                lea.l      A1, [A6 - 0x94]
000051E2  45EE FFEA                lea.l      A2, [A6 - 0x16]
000051E6  22DA                     move.l     [A1]+, [A2]+
000051E8  22DA                     move.l     [A1]+, [A2]+
000051EA  32DA                     move.w     [A1]+, [A2]+
000051EC  486E FFDE                pea.l      [A6 - 0x22]
000051F0  4869 FFF6                pea.l      [A1 - 0xA]
000051F4  3F3C 0004                move.w     -[A7], 0x4
000051F8  A9EB                     syscall    Pack4/FP68K
000051FA  45EE FF62                lea.l      A2, [A6 - 0x9E]
000051FE  43E9 FFF6                lea.l      A1, [A1 - 0xA]
00005202  24D9                     move.l     [A2]+, [A1]+
00005204  24D9                     move.l     [A2]+, [A1]+
00005206  34D9                     move.w     [A2]+, [A1]+
00005208  486E FFD2                pea.l      [A6 - 0x2E]
0000520C  486A FFF6                pea.l      [A2 - 0xA]
00005210  4267                     clr.w      -[A7]
00005212  A9EB                     syscall    Pack4/FP68K
00005214  43EE FF58                lea.l      A1, [A6 - 0xA8]
00005218  45EA FFF6                lea.l      A2, [A2 - 0xA]
0000521C  22DA                     move.l     [A1]+, [A2]+
0000521E  22DA                     move.l     [A1]+, [A2]+
00005220  32DA                     move.w     [A1]+, [A2]+
00005222  2D44 FF54                move.l     [A6 - 0xAC], D4
00005226  486E FF54                pea.l      [A6 - 0xAC]
0000522A  4869 FFF6                pea.l      [A1 - 0xA]
0000522E  3F3C 2802                move.w     -[A7], 0x2802
00005232  A9EB                     syscall    Pack4/FP68K
00005234  45EE FF4A                lea.l      A2, [A6 - 0xB6]
00005238  43E9 FFF6                lea.l      A1, [A1 - 0xA]
0000523C  24D9                     move.l     [A2]+, [A1]+
0000523E  24D9                     move.l     [A2]+, [A1]+
00005240  34D9                     move.w     [A2]+, [A1]+
00005242  4868 FFF6                pea.l      [A0 - 0xA]
00005246  486A FFF6                pea.l      [A2 - 0xA]
0000524A  3F3C 0004                move.w     -[A7], 0x4
0000524E  A9EB                     syscall    Pack4/FP68K
00005250  41EE FF40                lea.l      A0, [A6 - 0xC0]
00005254  43EE FFF6                lea.l      A1, [A6 - 0xA]
00005258  20D9                     move.l     [A0]+, [A1]+
0000525A  20D9                     move.l     [A0]+, [A1]+
0000525C  30D9                     move.w     [A0]+, [A1]+
0000525E  486E FFDE                pea.l      [A6 - 0x22]
00005262  4868 FFF6                pea.l      [A0 - 0xA]
00005266  3F3C 0004                move.w     -[A7], 0x4
0000526A  A9EB                     syscall    Pack4/FP68K
0000526C  43EE FF36                lea.l      A1, [A6 - 0xCA]
00005270  41E8 FFF6                lea.l      A0, [A0 - 0xA]
00005274  22D8                     move.l     [A1]+, [A0]+
00005276  22D8                     move.l     [A1]+, [A0]+
00005278  32D8                     move.w     [A1]+, [A0]+
0000527A  2D47 FF32                move.l     [A6 - 0xCE], D7
0000527E  486E FF32                pea.l      [A6 - 0xCE]
00005282  4869 FFF6                pea.l      [A1 - 0xA]
00005286  3F3C 2800                move.w     -[A7], 0x2800 /* '(\0' */
0000528A  A9EB                     syscall    Pack4/FP68K
0000528C  41EE FF28                lea.l      A0, [A6 - 0xD8]
00005290  43E9 FFF6                lea.l      A1, [A1 - 0xA]
00005294  20D9                     move.l     [A0]+, [A1]+
00005296  20D9                     move.l     [A0]+, [A1]+
00005298  30D9                     move.w     [A0]+, [A1]+
0000529A  2D45 FF24                move.l     [A6 - 0xDC], D5
0000529E  486E FF24                pea.l      [A6 - 0xDC]
000052A2  4868 FFF6                pea.l      [A0 - 0xA]
000052A6  3F3C 2802                move.w     -[A7], 0x2802
000052AA  A9EB                     syscall    Pack4/FP68K
000052AC  43EE FF1A                lea.l      A1, [A6 - 0xE6]
000052B0  47EE FFF6                lea.l      A3, [A6 - 0xA]
000052B4  22DB                     move.l     [A1]+, [A3]+
000052B6  22DB                     move.l     [A1]+, [A3]+
000052B8  32DB                     move.w     [A1]+, [A3]+
000052BA  486E FFDE                pea.l      [A6 - 0x22]
000052BE  4869 FFF6                pea.l      [A1 - 0xA]
000052C2  3F3C 0004                move.w     -[A7], 0x4
000052C6  A9EB                     syscall    Pack4/FP68K
000052C8  47EE FF10                lea.l      A3, [A6 - 0xF0]
000052CC  43E9 FFF6                lea.l      A1, [A1 - 0xA]
000052D0  26D9                     move.l     [A3]+, [A1]+
000052D2  26D9                     move.l     [A3]+, [A1]+
000052D4  36D9                     move.w     [A3]+, [A1]+
000052D6  486E FFC6                pea.l      [A6 - 0x3A]
000052DA  486B FFF6                pea.l      [A3 - 0xA]
000052DE  4267                     clr.w      -[A7]
000052E0  A9EB                     syscall    Pack4/FP68K
000052E2  43EE FF06                lea.l      A1, [A6 - 0xFA]
000052E6  47EB FFF6                lea.l      A3, [A3 - 0xA]
000052EA  22DB                     move.l     [A1]+, [A3]+
000052EC  22DB                     move.l     [A1]+, [A3]+
000052EE  32DB                     move.w     [A1]+, [A3]+
000052F0  2D45 FF02                move.l     [A6 - 0xFE], D5
000052F4  486E FF02                pea.l      [A6 - 0xFE]
000052F8  4869 FFF6                pea.l      [A1 - 0xA]
000052FC  3F3C 2802                move.w     -[A7], 0x2802
00005300  A9EB                     syscall    Pack4/FP68K
00005302  47EE FEF8                lea.l      A3, [A6 - 0x108]
00005306  43E9 FFF6                lea.l      A1, [A1 - 0xA]
0000530A  26D9                     move.l     [A3]+, [A1]+
0000530C  26D9                     move.l     [A3]+, [A1]+
0000530E  36D9                     move.w     [A3]+, [A1]+
00005310  4868 FFF6                pea.l      [A0 - 0xA]
00005314  486B FFF6                pea.l      [A3 - 0xA]
00005318  3F3C 0004                move.w     -[A7], 0x4
0000531C  A9EB                     syscall    Pack4/FP68K
0000531E  41EE FEEE                lea.l      A0, [A6 - 0x112]
00005322  47EB FFF6                lea.l      A3, [A3 - 0xA]
00005326  20DB                     move.l     [A0]+, [A3]+
00005328  20DB                     move.l     [A0]+, [A3]+
0000532A  30DB                     move.w     [A0]+, [A3]+
0000532C  486A FFF6                pea.l      [A2 - 0xA]
00005330  4868 FFF6                pea.l      [A0 - 0xA]
00005334  4267                     clr.w      -[A7]
00005336  A9EB                     syscall    Pack4/FP68K
00005338  487A 0130                pea.l      [PC + 0x130 /* 0000546A, value 0x5B0000 '[\0\0', cstring "" */]
0000533C  4868 FFF6                pea.l      [A0 - 0xA]
00005340  3F3C 2008                move.w     -[A7], 0x2008
00005344  A9EB                     syscall    Pack4/FP68K
00005346  6C00 00D6                bge        +0xD8 /* 0000541E */
0000534A  4A6E FF9C                tst.w      [A6 - 0x64]
0000534E  6712                     beq        +0x14 /* 00005362 */
00005350  486E FF9C                pea.l      [A6 - 0x64]
00005354  486E FFDE                pea.l      [A6 - 0x22]
00005358  3F3C 2008                move.w     -[A7], 0x2008
0000535C  A9EB                     syscall    Pack4/FP68K
0000535E  6C00 00BE                bge        +0xC0 /* 0000541E */
label00005362:
00005362  41EE FF90                lea.l      A0, [A6 - 0x70]
00005366  43EE FFDE                lea.l      A1, [A6 - 0x22]
0000536A  20D9                     move.l     [A0]+, [A1]+
0000536C  20D9                     move.l     [A0]+, [A1]+
0000536E  30D9                     move.w     [A0]+, [A1]+
00005370  4868 FFF6                pea.l      [A0 - 0xA]
00005374  3F3C 0016                move.w     -[A7], 0x16
00005378  A9EB                     syscall    Pack4/FP68K
0000537A  4868 FFF6                pea.l      [A0 - 0xA]
0000537E  486E FF9A                pea.l      [A6 - 0x66]
00005382  3F3C 2010                move.w     -[A7], 0x2010
00005386  A9EB                     syscall    Pack4/FP68K
00005388  3D6E FF9A FF9C           move.w     [A6 - 0x64], [A6 - 0x66]
0000538E  41EE FF92                lea.l      A0, [A6 - 0x6E]
00005392  43EE FFF6                lea.l      A1, [A6 - 0xA]
00005396  20D9                     move.l     [A0]+, [A1]+
00005398  20D9                     move.l     [A0]+, [A1]+
0000539A  30D9                     move.w     [A0]+, [A1]+
0000539C  486E FFDE                pea.l      [A6 - 0x22]
000053A0  4868 FFF6                pea.l      [A0 - 0xA]
000053A4  3F3C 0004                move.w     -[A7], 0x4
000053A8  A9EB                     syscall    Pack4/FP68K
000053AA  43EE FF88                lea.l      A1, [A6 - 0x78]
000053AE  41E8 FFF6                lea.l      A0, [A0 - 0xA]
000053B2  22D8                     move.l     [A1]+, [A0]+
000053B4  22D8                     move.l     [A1]+, [A0]+
000053B6  32D8                     move.w     [A1]+, [A0]+
000053B8  486E FFC6                pea.l      [A6 - 0x3A]
000053BC  4869 FFF6                pea.l      [A1 - 0xA]
000053C0  4267                     clr.w      -[A7]
000053C2  A9EB                     syscall    Pack4/FP68K
000053C4  206E 0008                movea.l    A0, [A6 + 0x8]
000053C8  41E8 000C                lea.l      A0, [A0 + 0xC]
000053CC  2121                     move.l     -[A0], -[A1]
000053CE  2121                     move.l     -[A0], -[A1]
000053D0  3121                     move.w     -[A0], -[A1]
000053D2  3110                     move.w     -[A0], [A0]
000053D4  41EE FF92                lea.l      A0, [A6 - 0x6E]
000053D8  43EE FFEA                lea.l      A1, [A6 - 0x16]
000053DC  20D9                     move.l     [A0]+, [A1]+
000053DE  20D9                     move.l     [A0]+, [A1]+
000053E0  30D9                     move.w     [A0]+, [A1]+
000053E2  486E FFDE                pea.l      [A6 - 0x22]
000053E6  4868 FFF6                pea.l      [A0 - 0xA]
000053EA  3F3C 0004                move.w     -[A7], 0x4
000053EE  A9EB                     syscall    Pack4/FP68K
000053F0  43EE FF88                lea.l      A1, [A6 - 0x78]
000053F4  41E8 FFF6                lea.l      A0, [A0 - 0xA]
000053F8  22D8                     move.l     [A1]+, [A0]+
000053FA  22D8                     move.l     [A1]+, [A0]+
000053FC  32D8                     move.w     [A1]+, [A0]+
000053FE  486E FFD2                pea.l      [A6 - 0x2E]
00005402  4869 FFF6                pea.l      [A1 - 0xA]
00005406  4267                     clr.w      -[A7]
00005408  A9EB                     syscall    Pack4/FP68K
0000540A  206E 000C                movea.l    A0, [A6 + 0xC]
0000540E  41E8 000C                lea.l      A0, [A0 + 0xC]
00005412  2121                     move.l     -[A0], -[A1]
00005414  2121                     move.l     -[A0], -[A1]
00005416  3121                     move.w     -[A0], -[A1]
00005418  3110                     move.w     -[A0], [A0]
0000541A  3D43 FF9E                move.w     [A6 - 0x62], D3
label0000541E:
0000541E  5243                     addq.w     D3, 1
00005420  49EC 03C2                lea.l      A4, [A4 + 0x3C2]
label00005424:
00005424  B679 FFFF 9226           cmp.w      D3, [0xFFFF9226]
0000542A  6D00 FC6A                blt        -0x394 /* 00005096 */
0000542E  2079 FFFF AEB4           movea.l    A0, [0xFFFFAEB4]
00005434  3E28 034C                move.w     D7, [A0 + 0x34C]
00005438  4A47                     tst.w      D7
0000543A  6718                     beq        +0x1A /* 00005454 */
0000543C  303C 03C2                move.w     D0, 0x3C2
00005440  C1EE FF9E                muls.w     D0, [A6 - 0x62]
00005444  2040                     movea.l    A0, D0
00005446  D1FC FFFF 978E           add.l      A0, 0xFFFF978E
0000544C  BE50                     cmp.w      D7, [A0]
0000544E  6604                     bne        +0x6 /* 00005454 */
00005450  426E FF9C                clr.w      [A6 - 0x64]
label00005454:
00005454  4A6E FF9C                tst.w      [A6 - 0x64]
00005458  6706                     beq        +0x8 /* 00005460 */
0000545A  302E FF9E                move.w     D0, [A6 - 0x62]
0000545E  6002                     bra        +0x4 /* 00005462 */
label00005460:
00005460  70FF                     moveq.l    D0, 0xFFFFFFFF
label00005462:
00005462  4CDF 1CF8                movem.l    D3,D4,D5,D6,D7,A2,A3,A4, [A7]+
00005466  4E5E                     unlink     A6
00005468  4E75                     rts
0000546A  005B 0000                ori.w      [A3]+, 0x0
fn0000546E:
0000546E  4E56 FFD4                link       A6, -0x002C
00005472  48E7 0308                movem.l    -[A7], D6,D7,A4
00005476  3C2E 0008                move.w     D6, [A6 + 0x8]
0000547A  2879 FFFF AACE           movea.l    A4, [0xFFFFAACE]
00005480  200C                     move.l     D0, A4
00005482  6606                     bne        +0x8 /* 0000548A */
00005484  6018                     bra        +0x1A /* 0000549E */
label00005486:
00005486  286C 0038                movea.l    A4, [A4 + 0x38]
label0000548A:
0000548A  4AAC 0038                tst.l      [A4 + 0x38]
0000548E  66F6                     bne        -0x8 /* 00005486 */
00005490  703C                     moveq.l    D0, 0x3C
00005492  A11E                     syscall    NewPtr, flags=1
00005494  2948 0038                move.l     [A4 + 0x38], A0
00005498  286C 0038                movea.l    A4, [A4 + 0x38]
0000549C  600C                     bra        +0xE /* 000054AA */
label0000549E:
0000549E  703C                     moveq.l    D0, 0x3C
000054A0  A11E                     syscall    NewPtr, flags=1
000054A2  23C8 FFFF AACE           move.l     [0xFFFFAACE], A0
000054A8  2848                     movea.l    A4, A0
label000054AA:
000054AA  2079 FFFF AEB4           movea.l    A0, [0xFFFFAEB4]
000054B0  3E28 0102                move.w     D7, [A0 + 0x102]
000054B4  2007                     move.l     D0, D7
000054B6  0640 010E                addi.w     D0, 0x10E
000054BA  48C0                     ext.l      D0
000054BC  81FC 0168                divs.w     D0, 0x168
000054C0  4840                     swap.w     D0
000054C2  C1FC 000C                muls.w     D0, 0xC
000054C6  2240                     movea.l    A1, D0
000054C8  D3FC FFFF 7E84           add.l      A1, 0xFFFF7E84
000054CE  41EE FFF4                lea.l      A0, [A6 - 0xC]
000054D2  20D9                     move.l     [A0]+, [A1]+
000054D4  20D9                     move.l     [A0]+, [A1]+
000054D6  20D9                     move.l     [A0]+, [A1]+
000054D8  700C                     moveq.l    D0, 0x0C
000054DA  C1C7                     muls.w     D0, D7
000054DC  2040                     movea.l    A0, D0
000054DE  D1FC FFFF 7E84           add.l      A0, 0xFFFF7E84
000054E4  43EE FFDE                lea.l      A1, [A6 - 0x22]
000054E8  5488                     addq.l     A0, 2
000054EA  22D8                     move.l     [A1]+, [A0]+
000054EC  22D8                     move.l     [A1]+, [A0]+
000054EE  32D8                     move.w     [A1]+, [A0]+
000054F0  4869 FFF6                pea.l      [A1 - 0xA]
000054F4  3F3C 000D                move.w     -[A7], 0xD /* '\r' */
000054F8  A9EB                     syscall    Pack4/FP68K
000054FA  41EE FFF4                lea.l      A0, [A6 - 0xC]
000054FE  2121                     move.l     -[A0], -[A1]
00005500  2121                     move.l     -[A0], -[A1]
00005502  3121                     move.w     -[A0], -[A1]
00005504  3110                     move.w     -[A0], [A0]
00005506  41EE FFDE                lea.l      A0, [A6 - 0x22]
0000550A  43EE FFF6                lea.l      A1, [A6 - 0xA]
0000550E  20D9                     move.l     [A0]+, [A1]+
00005510  20D9                     move.l     [A0]+, [A1]+
00005512  30D9                     move.w     [A0]+, [A1]+
00005514  487A 019A                pea.l      [PC + 0x19A /* 000056B0, value 0xB4E56, cstring "" */]
00005518  4868 FFF6                pea.l      [A0 - 0xA]
0000551C  3F3C 2004                move.w     -[A7], 0x2004
00005520  A9EB                     syscall    Pack4/FP68K
00005522  2279 FFFF AEB4           movea.l    A1, [0xFFFFAEB4]
00005528  4869 0030                pea.l      [A1 + 0x30]
0000552C  486E FFD4                pea.l      [A6 - 0x2C]
00005530  3F3C 200E                move.w     -[A7], 0x200E
00005534  A9EB                     syscall    Pack4/FP68K
00005536  4868 FFF6                pea.l      [A0 - 0xA]
0000553A  486E FFD4                pea.l      [A6 - 0x2C]
0000553E  4267                     clr.w      -[A7]
00005540  A9EB                     syscall    Pack4/FP68K
00005542  41EC 000C                lea.l      A0, [A4 + 0xC]
00005546  43EE FFDE                lea.l      A1, [A6 - 0x22]
0000554A  2121                     move.l     -[A0], -[A1]
0000554C  2121                     move.l     -[A0], -[A1]
0000554E  3121                     move.w     -[A0], -[A1]
00005550  3110                     move.w     -[A0], [A0]
00005552  41EE FFDE                lea.l      A0, [A6 - 0x22]
00005556  43EE FFEA                lea.l      A1, [A6 - 0x16]
0000555A  20D9                     move.l     [A0]+, [A1]+
0000555C  20D9                     move.l     [A0]+, [A1]+
0000555E  30D9                     move.w     [A0]+, [A1]+
00005560  487A 014C                pea.l      [PC + 0x14C /* 000056AE, value 0xB000B, cstring "" */]
00005564  4868 FFF6                pea.l      [A0 - 0xA]
00005568  3F3C 2004                move.w     -[A7], 0x2004
0000556C  A9EB                     syscall    Pack4/FP68K
0000556E  2279 FFFF AEB4           movea.l    A1, [0xFFFFAEB4]
00005574  4869 0032                pea.l      [A1 + 0x32]
00005578  486E FFD4                pea.l      [A6 - 0x2C]
0000557C  3F3C 200E                move.w     -[A7], 0x200E
00005580  A9EB                     syscall    Pack4/FP68K
00005582  4868 FFF6                pea.l      [A0 - 0xA]
00005586  486E FFD4                pea.l      [A6 - 0x2C]
0000558A  4267                     clr.w      -[A7]
0000558C  A9EB                     syscall    Pack4/FP68K
0000558E  41EC 0018                lea.l      A0, [A4 + 0x18]
00005592  43EE FFDE                lea.l      A1, [A6 - 0x22]
00005596  2121                     move.l     -[A0], -[A1]
00005598  2121                     move.l     -[A0], -[A1]
0000559A  3121                     move.w     -[A0], -[A1]
0000559C  3110                     move.w     -[A0], [A0]
0000559E  41EE FFDC                lea.l      A0, [A6 - 0x24]
000055A2  43EC 0002                lea.l      A1, [A4 + 0x2]
000055A6  20D9                     move.l     [A0]+, [A1]+
000055A8  20D9                     move.l     [A0]+, [A1]+
000055AA  30D9                     move.w     [A0]+, [A1]+
000055AC  4868 FFF6                pea.l      [A0 - 0xA]
000055B0  3F3C 0016                move.w     -[A7], 0x16
000055B4  A9EB                     syscall    Pack4/FP68K
000055B6  4868 FFF6                pea.l      [A0 - 0xA]
000055BA  486E FFE6                pea.l      [A6 - 0x1A]
000055BE  3F3C 2010                move.w     -[A7], 0x2010
000055C2  A9EB                     syscall    Pack4/FP68K
000055C4  396E FFE6 0018           move.w     [A4 + 0x18], [A6 - 0x1A]
000055CA  41EE FFDC                lea.l      A0, [A6 - 0x24]
000055CE  43EC 000E                lea.l      A1, [A4 + 0xE]
000055D2  20D9                     move.l     [A0]+, [A1]+
000055D4  20D9                     move.l     [A0]+, [A1]+
000055D6  30D9                     move.w     [A0]+, [A1]+
000055D8  4868 FFF6                pea.l      [A0 - 0xA]
000055DC  3F3C 0016                move.w     -[A7], 0x16
000055E0  A9EB                     syscall    Pack4/FP68K
000055E2  4868 FFF6                pea.l      [A0 - 0xA]
000055E6  486E FFE6                pea.l      [A6 - 0x1A]
000055EA  3F3C 2010                move.w     -[A7], 0x2010
000055EE  A9EB                     syscall    Pack4/FP68K
000055F0  396E FFE6 001A           move.w     [A4 + 0x1A], [A6 - 0x1A]
000055F6  41EE FFDE                lea.l      A0, [A6 - 0x22]
000055FA  43EE FFF6                lea.l      A1, [A6 - 0xA]
000055FE  20D9                     move.l     [A0]+, [A1]+
00005600  20D9                     move.l     [A0]+, [A1]+
00005602  30D9                     move.w     [A0]+, [A1]+
00005604  487A 00A6                pea.l      [PC + 0xA6 /* 000056AC, value 0x6000B, cstring "" */]
00005608  4868 FFF6                pea.l      [A0 - 0xA]
0000560C  3F3C 2004                move.w     -[A7], 0x2004
00005610  A9EB                     syscall    Pack4/FP68K
00005612  43EC 0028                lea.l      A1, [A4 + 0x28]
00005616  2320                     move.l     -[A1], -[A0]
00005618  2320                     move.l     -[A1], -[A0]
0000561A  3320                     move.w     -[A1], -[A0]
0000561C  3311                     move.w     -[A1], [A1]
0000561E  41EE FFDE                lea.l      A0, [A6 - 0x22]
00005622  43EE FFEA                lea.l      A1, [A6 - 0x16]
00005626  20D9                     move.l     [A0]+, [A1]+
00005628  20D9                     move.l     [A0]+, [A1]+
0000562A  30D9                     move.w     [A0]+, [A1]+
0000562C  487A 007C                pea.l      [PC + 0x7C /* 000056AA, value 0x60006, cstring "" */]
00005630  4868 FFF6                pea.l      [A0 - 0xA]
00005634  3F3C 2004                move.w     -[A7], 0x2004
00005638  A9EB                     syscall    Pack4/FP68K
0000563A  43EC 0034                lea.l      A1, [A4 + 0x34]
0000563E  2320                     move.l     -[A1], -[A0]
00005640  2320                     move.l     -[A1], -[A0]
00005642  3320                     move.w     -[A1], -[A0]
00005644  3311                     move.w     -[A1], [A1]
00005646  197C 0001 0034           move.b     [A4 + 0x34], 0x1
0000564C  2079 FFFF AEB4           movea.l    A0, [0xFFFFAEB4]
00005652  1968 030F 0035           move.b     [A4 + 0x35], [A0 + 0x30F]
00005658  197C 0001 0037           move.b     [A4 + 0x37], 0x1
0000565E  2079 FFFF AEB4           movea.l    A0, [0xFFFFAEB4]
00005664  3E28 0306                move.w     D7, [A0 + 0x306]
00005668  BE46                     cmp.w      D7, D6
0000566A  6C02                     bge        +0x4 /* 0000566E */
0000566C  3C07                     move.w     D6, D7
label0000566E:
0000566E  2079 FFFF AEB4           movea.l    A0, [0xFFFFAEB4]
00005674  4A68 0320                tst.w      [A0 + 0x320]
00005678  6716                     beq        +0x18 /* 00005690 */
0000567A  2079 FFFF AEB4           movea.l    A0, [0xFFFFAEB4]
00005680  BC68 00FE                cmp.w      D6, [A0 + 0xFE]
00005684  6F0A                     ble        +0xC /* 00005690 */
00005686  2079 FFFF AEB4           movea.l    A0, [0xFFFFAEB4]
0000568C  3C28 00FE                move.w     D6, [A0 + 0xFE]
label00005690:
00005690  1946 0036                move.b     [A4 + 0x36], D6
00005694  2079 FFFF AEB4           movea.l    A0, [0xFFFFAEB4]
0000569A  9D68 00FE                sub.w      [A0 + 0xFE], D6
0000569E  42AC 0038                clr.l      [A4 + 0x38]
000056A2  4CDF 10C0                movem.l    D6,D7,A4, [A7]+
000056A6  4E5E                     unlink     A6
000056A8  4E75                     rts
000056AA  0006 0006                ori.b      D6, 0x6
000056AE  000B 000B                ori.b      A3, 0xB
fn000056B2:
000056B2  4E56 FFD4                link       A6, -0x002C
000056B6  48E7 0308                movem.l    -[A7], D6,D7,A4
000056BA  3C2E 0008                move.w     D6, [A6 + 0x8]
000056BE  2079 FFFF AEB4           movea.l    A0, [0xFFFFAEB4]
000056C4  4A68 0310                tst.w      [A0 + 0x310]
000056C8  6610                     bne        +0x12 /* 000056DA */
000056CA  2F3C FFFF B490           move.l     -[A7], 0xFFFFB490
000056D0  4EBA A92E                jsr        [PC - 0x56D2 /* 00000000 */]
000056D4  588F                     addq.l     A7, 4
000056D6  6000 0284                bra        +0x286 /* 0000595C */
label000056DA:
000056DA  2879 FFFF AACE           movea.l    A4, [0xFFFFAACE]
000056E0  200C                     move.l     D0, A4
000056E2  6606                     bne        +0x8 /* 000056EA */
000056E4  6018                     bra        +0x1A /* 000056FE */
label000056E6:
000056E6  286C 0038                movea.l    A4, [A4 + 0x38]
label000056EA:
000056EA  4AAC 0038                tst.l      [A4 + 0x38]
000056EE  66F6                     bne        -0x8 /* 000056E6 */
000056F0  703C                     moveq.l    D0, 0x3C
000056F2  A11E                     syscall    NewPtr, flags=1
000056F4  2948 0038                move.l     [A4 + 0x38], A0
000056F8  286C 0038                movea.l    A4, [A4 + 0x38]
000056FC  600C                     bra        +0xE /* 0000570A */
label000056FE:
000056FE  703C                     moveq.l    D0, 0x3C
00005700  A11E                     syscall    NewPtr, flags=1
00005702  23C8 FFFF AACE           move.l     [0xFFFFAACE], A0
00005708  2848                     movea.l    A4, A0
label0000570A:
0000570A  2079 FFFF AEB4           movea.l    A0, [0xFFFFAEB4]
00005710  3E28 0102                move.w     D7, [A0 + 0x102]
00005714  2007                     move.l     D0, D7
00005716  0640 010E                addi.w     D0, 0x10E
0000571A  48C0                     ext.l      D0
0000571C  81FC 0168                divs.w     D0, 0x168
00005720  4840                     swap.w     D0
00005722  C1FC 000C                muls.w     D0, 0xC
00005726  2240                     movea.l    A1, D0
00005728  D3FC FFFF 7E84           add.l      A1, 0xFFFF7E84
0000572E  41EE FFF4                lea.l      A0, [A6 - 0xC]
00005732  20D9                     move.l     [A0]+, [A1]+
00005734  20D9                     move.l     [A0]+, [A1]+
00005736  20D9                     move.l     [A0]+, [A1]+
00005738  700C                     moveq.l    D0, 0x0C
0000573A  C1C7                     muls.w     D0, D7
0000573C  2040                     movea.l    A0, D0
0000573E  D1FC FFFF 7E84           add.l      A0, 0xFFFF7E84
00005744  43EE FFDE                lea.l      A1, [A6 - 0x22]
00005748  5488                     addq.l     A0, 2
0000574A  22D8                     move.l     [A1]+, [A0]+
0000574C  22D8                     move.l     [A1]+, [A0]+
0000574E  32D8                     move.w     [A1]+, [A0]+
00005750  4869 FFF6                pea.l      [A1 - 0xA]
00005754  3F3C 000D                move.w     -[A7], 0xD /* '\r' */
00005758  A9EB                     syscall    Pack4/FP68K
0000575A  41EE FFF4                lea.l      A0, [A6 - 0xC]
0000575E  2121                     move.l     -[A0], -[A1]
00005760  2121                     move.l     -[A0], -[A1]
00005762  3121                     move.w     -[A0], -[A1]
00005764  3110                     move.w     -[A0], [A0]
00005766  41EE FFDE                lea.l      A0, [A6 - 0x22]
0000576A  43EE FFF6                lea.l      A1, [A6 - 0xA]
0000576E  20D9                     move.l     [A0]+, [A1]+
00005770  20D9                     move.l     [A0]+, [A1]+
00005772  30D9                     move.w     [A0]+, [A1]+
00005774  487A 0208                pea.l      [PC + 0x208 /* 0000597E, value 0xB4E56, cstring "" */]
00005778  4868 FFF6                pea.l      [A0 - 0xA]
0000577C  3F3C 2004                move.w     -[A7], 0x2004
00005780  A9EB                     syscall    Pack4/FP68K
00005782  2279 FFFF AEB4           movea.l    A1, [0xFFFFAEB4]
00005788  4869 0030                pea.l      [A1 + 0x30]
0000578C  486E FFD4                pea.l      [A6 - 0x2C]
00005790  3F3C 200E                move.w     -[A7], 0x200E
00005794  A9EB                     syscall    Pack4/FP68K
00005796  4868 FFF6                pea.l      [A0 - 0xA]
0000579A  486E FFD4                pea.l      [A6 - 0x2C]
0000579E  4267                     clr.w      -[A7]
000057A0  A9EB                     syscall    Pack4/FP68K
000057A2  41EC 000C                lea.l      A0, [A4 + 0xC]
000057A6  43EE FFDE                lea.l      A1, [A6 - 0x22]
000057AA  2121                     move.l     -[A0], -[A1]
000057AC  2121                     move.l     -[A0], -[A1]
000057AE  3121                     move.w     -[A0], -[A1]
000057B0  3110                     move.w     -[A0], [A0]
000057B2  41EE FFDE                lea.l      A0, [A6 - 0x22]
000057B6  43EE FFEA                lea.l      A1, [A6 - 0x16]
000057BA  20D9                     move.l     [A0]+, [A1]+
000057BC  20D9                     move.l     [A0]+, [A1]+
000057BE  30D9                     move.w     [A0]+, [A1]+
000057C0  487A 01BA                pea.l      [PC + 0x1BA /* 0000597C, value 0xB000B, cstring "" */]
000057C4  4868 FFF6                pea.l      [A0 - 0xA]
000057C8  3F3C 2004                move.w     -[A7], 0x2004
000057CC  A9EB                     syscall    Pack4/FP68K
000057CE  2279 FFFF AEB4           movea.l    A1, [0xFFFFAEB4]
000057D4  4869 0032                pea.l      [A1 + 0x32]
000057D8  486E FFD4                pea.l      [A6 - 0x2C]
000057DC  3F3C 200E                move.w     -[A7], 0x200E
000057E0  A9EB                     syscall    Pack4/FP68K
000057E2  4868 FFF6                pea.l      [A0 - 0xA]
000057E6  486E FFD4                pea.l      [A6 - 0x2C]
000057EA  4267                     clr.w      -[A7]
000057EC  A9EB                     syscall    Pack4/FP68K
000057EE  41EC 0018                lea.l      A0, [A4 + 0x18]
000057F2  43EE FFDE                lea.l      A1, [A6 - 0x22]
000057F6  2121                     move.l     -[A0], -[A1]
000057F8  2121                     move.l     -[A0], -[A1]
000057FA  3121                     move.w     -[A0], -[A1]
000057FC  3110                     move.w     -[A0], [A0]
000057FE  41EE FFDC                lea.l      A0, [A6 - 0x24]
00005802  43EC 0002                lea.l      A1, [A4 + 0x2]
00005806  20D9                     move.l     [A0]+, [A1]+
00005808  20D9                     move.l     [A0]+, [A1]+
0000580A  30D9                     move.w     [A0]+, [A1]+
0000580C  4868 FFF6                pea.l      [A0 - 0xA]
00005810  3F3C 0016                move.w     -[A7], 0x16
00005814  A9EB                     syscall    Pack4/FP68K
00005816  4868 FFF6                pea.l      [A0 - 0xA]
0000581A  486E FFE6                pea.l      [A6 - 0x1A]
0000581E  3F3C 2010                move.w     -[A7], 0x2010
00005822  A9EB                     syscall    Pack4/FP68K
00005824  396E FFE6 0018           move.w     [A4 + 0x18], [A6 - 0x1A]
0000582A  41EE FFDC                lea.l      A0, [A6 - 0x24]
0000582E  43EC 000E                lea.l      A1, [A4 + 0xE]
00005832  20D9                     move.l     [A0]+, [A1]+
00005834  20D9                     move.l     [A0]+, [A1]+
00005836  30D9                     move.w     [A0]+, [A1]+
00005838  4868 FFF6                pea.l      [A0 - 0xA]
0000583C  3F3C 0016                move.w     -[A7], 0x16
00005840  A9EB                     syscall    Pack4/FP68K
00005842  4868 FFF6                pea.l      [A0 - 0xA]
00005846  486E FFE6                pea.l      [A6 - 0x1A]
0000584A  3F3C 2010                move.w     -[A7], 0x2010
0000584E  A9EB                     syscall    Pack4/FP68K
00005850  396E FFE6 001A           move.w     [A4 + 0x1A], [A6 - 0x1A]
00005856  41EE FFDE                lea.l      A0, [A6 - 0x22]
0000585A  43EE FFF6                lea.l      A1, [A6 - 0xA]
0000585E  20D9                     move.l     [A0]+, [A1]+
00005860  20D9                     move.l     [A0]+, [A1]+
00005862  30D9                     move.w     [A0]+, [A1]+
00005864  487A 0114                pea.l      [PC + 0x114 /* 0000597A, value 0x5000B, cstring "" */]
00005868  4868 FFF6                pea.l      [A0 - 0xA]
0000586C  3F3C 2004                move.w     -[A7], 0x2004
00005870  A9EB                     syscall    Pack4/FP68K
00005872  43EC 0028                lea.l      A1, [A4 + 0x28]
00005876  2320                     move.l     -[A1], -[A0]
00005878  2320                     move.l     -[A1], -[A0]
0000587A  3320                     move.w     -[A1], -[A0]
0000587C  3311                     move.w     -[A1], [A1]
0000587E  41EE FFDE                lea.l      A0, [A6 - 0x22]
00005882  43EE FFEA                lea.l      A1, [A6 - 0x16]
00005886  20D9                     move.l     [A0]+, [A1]+
00005888  20D9                     move.l     [A0]+, [A1]+
0000588A  30D9                     move.w     [A0]+, [A1]+
0000588C  487A 00EA                pea.l      [PC + 0xEA /* 00005978, value 0x50005, cstring "" */]
00005890  4868 FFF6                pea.l      [A0 - 0xA]
00005894  3F3C 2004                move.w     -[A7], 0x2004
00005898  A9EB                     syscall    Pack4/FP68K
0000589A  43EC 0034                lea.l      A1, [A4 + 0x34]
0000589E  2320                     move.l     -[A1], -[A0]
000058A0  2320                     move.l     -[A1], -[A0]
000058A2  3320                     move.w     -[A1], -[A0]
000058A4  3311                     move.w     -[A1], [A1]
000058A6  2F2C 0024                move.l     -[A7], [A4 + 0x24]
000058AA  2F2C 0020                move.l     -[A7], [A4 + 0x20]
000058AE  2F2C 001C                move.l     -[A7], [A4 + 0x1C]
000058B2  486E FFDC                pea.l      [A6 - 0x24]
000058B6  4EAD 037A                jsr        [A5 + 0x37A /* export_107, CODE:7 @ 00003CA2 */]
000058BA  487A 00B2                pea.l      [PC + 0xB2 /* 0000596E, value 0x3FF58312 */]
000058BE  486E FFDE                pea.l      [A6 - 0x22]
000058C2  3F3C 0008                move.w     -[A7], 0x8
000058C6  A9EB                     syscall    Pack4/FP68K
000058C8  4FEF 0010                lea.l      A7, [A7 + 0x10]
000058CC  6C0C                     bge        +0xE /* 000058DA */
000058CE  42AC 0024                clr.l      [A4 + 0x24]
000058D2  42AC 0020                clr.l      [A4 + 0x20]
000058D6  42AC 001C                clr.l      [A4 + 0x1C]
label000058DA:
000058DA  2F2C 0030                move.l     -[A7], [A4 + 0x30]
000058DE  2F2C 002C                move.l     -[A7], [A4 + 0x2C]
000058E2  2F2C 0028                move.l     -[A7], [A4 + 0x28]
000058E6  486E FFDC                pea.l      [A6 - 0x24]
000058EA  4EAD 037A                jsr        [A5 + 0x37A /* export_107, CODE:7 @ 00003CA2 */]
000058EE  487A 0074                pea.l      [PC + 0x74 /* 00005964, value 0x3FF58312 */]
000058F2  486E FFDE                pea.l      [A6 - 0x22]
000058F6  3F3C 0008                move.w     -[A7], 0x8
000058FA  A9EB                     syscall    Pack4/FP68K
000058FC  4FEF 0010                lea.l      A7, [A7 + 0x10]
00005900  6C0C                     bge        +0xE /* 0000590E */
00005902  42AC 0030                clr.l      [A4 + 0x30]
00005906  42AC 002C                clr.l      [A4 + 0x2C]
0000590A  42AC 0028                clr.l      [A4 + 0x28]
label0000590E:
0000590E  197C 0002 0034           move.b     [A4 + 0x34], 0x2
00005914  197C 0002 0035           move.b     [A4 + 0x35], 0x2
0000591A  197C 0001 0037           move.b     [A4 + 0x37], 0x1
00005920  0C46 0032                cmpi.w     D6, 0x32 /* '2' */
00005924  6F02                     ble        +0x4 /* 00005928 */
00005926  7C32                     moveq.l    D6, 0x32
label00005928:
00005928  2079 FFFF AEB4           movea.l    A0, [0xFFFFAEB4]
0000592E  4A68 0320                tst.w      [A0 + 0x320]
00005932  6716                     beq        +0x18 /* 0000594A */
00005934  2079 FFFF AEB4           movea.l    A0, [0xFFFFAEB4]
0000593A  BC68 00FE                cmp.w      D6, [A0 + 0xFE]
0000593E  6F0A                     ble        +0xC /* 0000594A */
00005940  2079 FFFF AEB4           movea.l    A0, [0xFFFFAEB4]
00005946  3C28 00FE                move.w     D6, [A0 + 0xFE]
label0000594A:
0000594A  1946 0036                move.b     [A4 + 0x36], D6
0000594E  2079 FFFF AEB4           movea.l    A0, [0xFFFFAEB4]
00005954  9D68 00FE                sub.w      [A0 + 0xFE], D6
00005958  42AC 0038                clr.l      [A4 + 0x38]
label0000595C:
0000595C  4CDF 10C0                movem.l    D6,D7,A4, [A7]+
00005960  4E5E                     unlink     A6
00005962  4E75                     rts
00005964  3FF5 8312 6E97           move.w     <<invalid special address>>, [[A5 + A0 * 2] + 0x6E97]
0000596A  8D4F DF3B                pack       -[A6], -[A7], 0xDF3B
0000596E  3FF5 8312 6E97           move.w     <<invalid special address>>, [[A5 + A0 * 2] + 0x6E97]
00005974  8D4F DF3B                pack       -[A6], -[A7], 0xDF3B
00005978  0005 0005                ori.b      D5, 0x5
0000597C  000B 000B                ori.b      A3, 0xB
fn00005980:
00005980  4E56 FFF4                link       A6, -0x000C
00005984  48E7 0318                movem.l    -[A7], D6,D7,A3,A4
00005988  3C2E 0008                move.w     D6, [A6 + 0x8]
0000598C  2079 FFFF AEB4           movea.l    A0, [0xFFFFAEB4]
00005992  4A68 0312                tst.w      [A0 + 0x312]
00005996  6610                     bne        +0x12 /* 000059A8 */
00005998  2F3C FFFF B4A6           move.l     -[A7], 0xFFFFB4A6
0000599E  4EBA A660                jsr        [PC - 0x59A0 /* 00000000 */]
000059A2  588F                     addq.l     A7, 4
000059A4  6000 0124                bra        +0x126 /* 00005ACA */
label000059A8:
000059A8  2879 FFFF AACE           movea.l    A4, [0xFFFFAACE]
000059AE  200C                     move.l     D0, A4
000059B0  6606                     bne        +0x8 /* 000059B8 */
000059B2  6018                     bra        +0x1A /* 000059CC */
label000059B4:
000059B4  286C 0038                movea.l    A4, [A4 + 0x38]
label000059B8:
000059B8  4AAC 0038                tst.l      [A4 + 0x38]
000059BC  66F6                     bne        -0x8 /* 000059B4 */
000059BE  703C                     moveq.l    D0, 0x3C
000059C0  A11E                     syscall    NewPtr, flags=1
000059C2  2948 0038                move.l     [A4 + 0x38], A0
000059C6  286C 0038                movea.l    A4, [A4 + 0x38]
000059CA  600C                     bra        +0xE /* 000059D8 */
label000059CC:
000059CC  703C                     moveq.l    D0, 0x3C
000059CE  A11E                     syscall    NewPtr, flags=1
000059D0  23C8 FFFF AACE           move.l     [0xFFFFAACE], A0
000059D6  2848                     movea.l    A4, A0
label000059D8:
000059D8  2079 FFFF AEB4           movea.l    A0, [0xFFFFAEB4]
000059DE  43EC 0002                lea.l      A1, [A4 + 0x2]
000059E2  4868 0030                pea.l      [A0 + 0x30]
000059E6  4851                     pea.l      [A1]
000059E8  3F3C 200E                move.w     -[A7], 0x200E
000059EC  A9EB                     syscall    Pack4/FP68K
000059EE  3311                     move.w     -[A1], [A1]
000059F0  2079 FFFF AEB4           movea.l    A0, [0xFFFFAEB4]
000059F6  43EC 000E                lea.l      A1, [A4 + 0xE]
000059FA  4868 0032                pea.l      [A0 + 0x32]
000059FE  4851                     pea.l      [A1]
00005A00  3F3C 200E                move.w     -[A7], 0x200E
00005A04  A9EB                     syscall    Pack4/FP68K
00005A06  3311                     move.w     -[A1], [A1]
00005A08  41EE FFF4                lea.l      A0, [A6 - 0xC]
00005A0C  43EC 0002                lea.l      A1, [A4 + 0x2]
00005A10  20D9                     move.l     [A0]+, [A1]+
00005A12  20D9                     move.l     [A0]+, [A1]+
00005A14  30D9                     move.w     [A0]+, [A1]+
00005A16  4868 FFF6                pea.l      [A0 - 0xA]
00005A1A  3F3C 0016                move.w     -[A7], 0x16
00005A1E  A9EB                     syscall    Pack4/FP68K
00005A20  4868 FFF6                pea.l      [A0 - 0xA]
00005A24  486E FFFE                pea.l      [A6 - 0x2]
00005A28  3F3C 2010                move.w     -[A7], 0x2010
00005A2C  A9EB                     syscall    Pack4/FP68K
00005A2E  396E FFFE 0018           move.w     [A4 + 0x18], [A6 - 0x2]
00005A34  41EE FFF4                lea.l      A0, [A6 - 0xC]
00005A38  43EC 000E                lea.l      A1, [A4 + 0xE]
00005A3C  20D9                     move.l     [A0]+, [A1]+
00005A3E  20D9                     move.l     [A0]+, [A1]+
00005A40  30D9                     move.w     [A0]+, [A1]+
00005A42  4868 FFF6                pea.l      [A0 - 0xA]
00005A46  3F3C 0016                move.w     -[A7], 0x16
00005A4A  A9EB                     syscall    Pack4/FP68K
00005A4C  4868 FFF6                pea.l      [A0 - 0xA]
00005A50  486E FFFE                pea.l      [A6 - 0x2]
00005A54  3F3C 2010                move.w     -[A7], 0x2010
00005A58  A9EB                     syscall    Pack4/FP68K
00005A5A  396E FFFE 001A           move.w     [A4 + 0x1A], [A6 - 0x2]
00005A60  42AC 0024                clr.l      [A4 + 0x24]
00005A64  42AC 0020                clr.l      [A4 + 0x20]
00005A68  42AC 001C                clr.l      [A4 + 0x1C]
00005A6C  42AC 0030                clr.l      [A4 + 0x30]
00005A70  42AC 002C                clr.l      [A4 + 0x2C]
00005A74  42AC 0028                clr.l      [A4 + 0x28]
00005A78  197C 0003 0034           move.b     [A4 + 0x34], 0x3
00005A7E  197C 0003 0035           move.b     [A4 + 0x35], 0x3
00005A84  422C 0037                clr.b      [A4 + 0x37]
00005A88  2079 FFFF AEB4           movea.l    A0, [0xFFFFAEB4]
00005A8E  3E28 0306                move.w     D7, [A0 + 0x306]
00005A92  47E8 0306                lea.l      A3, [A0 + 0x306]
00005A96  BE46                     cmp.w      D7, D6
00005A98  6C02                     bge        +0x4 /* 00005A9C */
00005A9A  3C07                     move.w     D6, D7
label00005A9C:
00005A9C  4A6B 001A                tst.w      [A3 + 0x1A]
00005AA0  6716                     beq        +0x18 /* 00005AB8 */
00005AA2  2079 FFFF AEB4           movea.l    A0, [0xFFFFAEB4]
00005AA8  BC68 00FE                cmp.w      D6, [A0 + 0xFE]
00005AAC  6F0A                     ble        +0xC /* 00005AB8 */
00005AAE  2079 FFFF AEB4           movea.l    A0, [0xFFFFAEB4]
00005AB4  3C28 00FE                move.w     D6, [A0 + 0xFE]
label00005AB8:
00005AB8  1946 0036                move.b     [A4 + 0x36], D6
00005ABC  2079 FFFF AEB4           movea.l    A0, [0xFFFFAEB4]
00005AC2  9D68 00FE                sub.w      [A0 + 0xFE], D6
00005AC6  42AC 0038                clr.l      [A4 + 0x38]
label00005ACA:
00005ACA  4CDF 18C0                movem.l    D6,D7,A3,A4, [A7]+
00005ACE  4E5E                     unlink     A6
00005AD0  4E75                     rts
fn00005AD2:
00005AD2  4E56 FFF4                link       A6, -0x000C
00005AD6  48E7 0018                movem.l    -[A7], A3,A4
00005ADA  2879 FFFF AACE           movea.l    A4, [0xFFFFAACE]
00005AE0  200C                     move.l     D0, A4
00005AE2  6606                     bne        +0x8 /* 00005AEA */
00005AE4  6018                     bra        +0x1A /* 00005AFE */
label00005AE6:
00005AE6  286C 0038                movea.l    A4, [A4 + 0x38]
label00005AEA:
00005AEA  4AAC 0038                tst.l      [A4 + 0x38]
00005AEE  66F6                     bne        -0x8 /* 00005AE6 */
00005AF0  703C                     moveq.l    D0, 0x3C
00005AF2  A11E                     syscall    NewPtr, flags=1
00005AF4  2948 0038                move.l     [A4 + 0x38], A0
00005AF8  286C 0038                movea.l    A4, [A4 + 0x38]
00005AFC  600C                     bra        +0xE /* 00005B0A */
label00005AFE:
00005AFE  703C                     moveq.l    D0, 0x3C
00005B00  A11E                     syscall    NewPtr, flags=1
00005B02  23C8 FFFF AACE           move.l     [0xFFFFAACE], A0
00005B08  2848                     movea.l    A4, A0
label00005B0A:
00005B0A  7002                     moveq.l    D0, 0x02
00005B0C  D0B9 FFFF AEB4           add.l      D0, [0xFFFFAEB4]
00005B12  2640                     movea.l    A3, D0
00005B14  41EC 0002                lea.l      A0, [A4 + 0x2]
00005B18  486B 002E                pea.l      [A3 + 0x2E]
00005B1C  4850                     pea.l      [A0]
00005B1E  3F3C 200E                move.w     -[A7], 0x200E
00005B22  A9EB                     syscall    Pack4/FP68K
00005B24  3110                     move.w     -[A0], [A0]
00005B26  41EC 000E                lea.l      A0, [A4 + 0xE]
00005B2A  486B 0030                pea.l      [A3 + 0x30]
00005B2E  4850                     pea.l      [A0]
00005B30  3F3C 200E                move.w     -[A7], 0x200E
00005B34  A9EB                     syscall    Pack4/FP68K
00005B36  3110                     move.w     -[A0], [A0]
00005B38  41EE FFF4                lea.l      A0, [A6 - 0xC]
00005B3C  43EC 0002                lea.l      A1, [A4 + 0x2]
00005B40  20D9                     move.l     [A0]+, [A1]+
00005B42  20D9                     move.l     [A0]+, [A1]+
00005B44  30D9                     move.w     [A0]+, [A1]+
00005B46  4868 FFF6                pea.l      [A0 - 0xA]
00005B4A  3F3C 0016                move.w     -[A7], 0x16
00005B4E  A9EB                     syscall    Pack4/FP68K
00005B50  4868 FFF6                pea.l      [A0 - 0xA]
00005B54  486E FFFE                pea.l      [A6 - 0x2]
00005B58  3F3C 2010                move.w     -[A7], 0x2010
00005B5C  A9EB                     syscall    Pack4/FP68K
00005B5E  396E FFFE 0018           move.w     [A4 + 0x18], [A6 - 0x2]
00005B64  41EE FFF4                lea.l      A0, [A6 - 0xC]
00005B68  43EC 000E                lea.l      A1, [A4 + 0xE]
00005B6C  20D9                     move.l     [A0]+, [A1]+
00005B6E  20D9                     move.l     [A0]+, [A1]+
00005B70  30D9                     move.w     [A0]+, [A1]+
00005B72  4868 FFF6                pea.l      [A0 - 0xA]
00005B76  3F3C 0016                move.w     -[A7], 0x16
00005B7A  A9EB                     syscall    Pack4/FP68K
00005B7C  4868 FFF6                pea.l      [A0 - 0xA]
00005B80  486E FFFE                pea.l      [A6 - 0x2]
00005B84  3F3C 2010                move.w     -[A7], 0x2010
00005B88  A9EB                     syscall    Pack4/FP68K
00005B8A  396E FFFE 001A           move.w     [A4 + 0x1A], [A6 - 0x2]
00005B90  42AC 0024                clr.l      [A4 + 0x24]
00005B94  42AC 0020                clr.l      [A4 + 0x20]
00005B98  42AC 001C                clr.l      [A4 + 0x1C]
00005B9C  42AC 0030                clr.l      [A4 + 0x30]
00005BA0  42AC 002C                clr.l      [A4 + 0x2C]
00005BA4  42AC 0028                clr.l      [A4 + 0x28]
00005BA8  197C 0003 0034           move.b     [A4 + 0x34], 0x3
00005BAE  197C 0003 0035           move.b     [A4 + 0x35], 0x3
00005BB4  422C 0037                clr.b      [A4 + 0x37]
00005BB8  197C 00C8 0036           move.b     [A4 + 0x36], 0xC8
00005BBE  2079 FFFF AEB4           movea.l    A0, [0xFFFFAEB4]
00005BC4  4268 0108                clr.w      [A0 + 0x108]
00005BC8  42AC 0038                clr.l      [A4 + 0x38]
00005BCC  4CDF 1800                movem.l    A3,A4, [A7]+
00005BD0  4E5E                     unlink     A6
00005BD2  4E75                     rts
fn00005BD4:
00005BD4  4E56 FFC8                link       A6, -0x0038
00005BD8  48E7 0318                movem.l    -[A7], D6,D7,A3,A4
00005BDC  3C2E 0008                move.w     D6, [A6 + 0x8]
00005BE0  2079 FFFF AEB4           movea.l    A0, [0xFFFFAEB4]
00005BE6  4A68 0318                tst.w      [A0 + 0x318]
00005BEA  6610                     bne        +0x12 /* 00005BFC */
00005BEC  2F3C FFFF B4BC           move.l     -[A7], 0xFFFFB4BC
00005BF2  4EBA A40C                jsr        [PC - 0x5BF4 /* 00000000 */]
00005BF6  588F                     addq.l     A7, 4
00005BF8  6000 0270                bra        +0x272 /* 00005E6A */
label00005BFC:
00005BFC  2879 FFFF AACE           movea.l    A4, [0xFFFFAACE]
00005C02  200C                     move.l     D0, A4
00005C04  6606                     bne        +0x8 /* 00005C0C */
00005C06  6018                     bra        +0x1A /* 00005C20 */
label00005C08:
00005C08  286C 0038                movea.l    A4, [A4 + 0x38]
label00005C0C:
00005C0C  4AAC 0038                tst.l      [A4 + 0x38]
00005C10  66F6                     bne        -0x8 /* 00005C08 */
00005C12  703C                     moveq.l    D0, 0x3C
00005C14  A11E                     syscall    NewPtr, flags=1
00005C16  2948 0038                move.l     [A4 + 0x38], A0
00005C1A  286C 0038                movea.l    A4, [A4 + 0x38]
00005C1E  600C                     bra        +0xE /* 00005C2C */
label00005C20:
00005C20  703C                     moveq.l    D0, 0x3C
00005C22  A11E                     syscall    NewPtr, flags=1
00005C24  23C8 FFFF AACE           move.l     [0xFFFFAACE], A0
00005C2A  2848                     movea.l    A4, A0
label00005C2C:
00005C2C  2079 FFFF AEB4           movea.l    A0, [0xFFFFAEB4]
00005C32  3E28 0102                move.w     D7, [A0 + 0x102]
00005C36  2007                     move.l     D0, D7
00005C38  0640 010E                addi.w     D0, 0x10E
00005C3C  48C0                     ext.l      D0
00005C3E  81FC 0168                divs.w     D0, 0x168
00005C42  4840                     swap.w     D0
00005C44  C1FC 000C                muls.w     D0, 0xC
00005C48  2240                     movea.l    A1, D0
00005C4A  D3FC FFFF 7E84           add.l      A1, 0xFFFF7E84
00005C50  41EE FFF4                lea.l      A0, [A6 - 0xC]
00005C54  20D9                     move.l     [A0]+, [A1]+
00005C56  20D9                     move.l     [A0]+, [A1]+
00005C58  20D9                     move.l     [A0]+, [A1]+
00005C5A  700C                     moveq.l    D0, 0x0C
00005C5C  C1C7                     muls.w     D0, D7
00005C5E  2040                     movea.l    A0, D0
00005C60  D1FC FFFF 7E84           add.l      A0, 0xFFFF7E84
00005C66  43EE FFD2                lea.l      A1, [A6 - 0x2E]
00005C6A  5488                     addq.l     A0, 2
00005C6C  22D8                     move.l     [A1]+, [A0]+
00005C6E  22D8                     move.l     [A1]+, [A0]+
00005C70  32D8                     move.w     [A1]+, [A0]+
00005C72  4869 FFF6                pea.l      [A1 - 0xA]
00005C76  3F3C 000D                move.w     -[A7], 0xD /* '\r' */
00005C7A  A9EB                     syscall    Pack4/FP68K
00005C7C  41EE FFF4                lea.l      A0, [A6 - 0xC]
00005C80  2121                     move.l     -[A0], -[A1]
00005C82  2121                     move.l     -[A0], -[A1]
00005C84  3121                     move.w     -[A0], -[A1]
00005C86  3110                     move.w     -[A0], [A0]
00005C88  41EE FFD2                lea.l      A0, [A6 - 0x2E]
00005C8C  43EE FFF6                lea.l      A1, [A6 - 0xA]
00005C90  20D9                     move.l     [A0]+, [A1]+
00005C92  20D9                     move.l     [A0]+, [A1]+
00005C94  30D9                     move.w     [A0]+, [A1]+
00005C96  487A 01E0                pea.l      [PC + 0x1E0 /* 00005E78, value 0xB4E56, cstring "" */]
00005C9A  4868 FFF6                pea.l      [A0 - 0xA]
00005C9E  3F3C 2004                move.w     -[A7], 0x2004
00005CA2  A9EB                     syscall    Pack4/FP68K
00005CA4  2279 FFFF AEB4           movea.l    A1, [0xFFFFAEB4]
00005CAA  4869 0030                pea.l      [A1 + 0x30]
00005CAE  486E FFC8                pea.l      [A6 - 0x38]
00005CB2  3F3C 200E                move.w     -[A7], 0x200E
00005CB6  A9EB                     syscall    Pack4/FP68K
00005CB8  4868 FFF6                pea.l      [A0 - 0xA]
00005CBC  486E FFC8                pea.l      [A6 - 0x38]
00005CC0  4267                     clr.w      -[A7]
00005CC2  A9EB                     syscall    Pack4/FP68K
00005CC4  41EC 000C                lea.l      A0, [A4 + 0xC]
00005CC8  43EE FFD2                lea.l      A1, [A6 - 0x2E]
00005CCC  2121                     move.l     -[A0], -[A1]
00005CCE  2121                     move.l     -[A0], -[A1]
00005CD0  3121                     move.w     -[A0], -[A1]
00005CD2  3110                     move.w     -[A0], [A0]
00005CD4  41EE FFD2                lea.l      A0, [A6 - 0x2E]
00005CD8  43EE FFEA                lea.l      A1, [A6 - 0x16]
00005CDC  20D9                     move.l     [A0]+, [A1]+
00005CDE  20D9                     move.l     [A0]+, [A1]+
00005CE0  30D9                     move.w     [A0]+, [A1]+
00005CE2  487A 0192                pea.l      [PC + 0x192 /* 00005E76, value 0xB000B, cstring "" */]
00005CE6  4868 FFF6                pea.l      [A0 - 0xA]
00005CEA  3F3C 2004                move.w     -[A7], 0x2004
00005CEE  A9EB                     syscall    Pack4/FP68K
00005CF0  2279 FFFF AEB4           movea.l    A1, [0xFFFFAEB4]
00005CF6  4869 0032                pea.l      [A1 + 0x32]
00005CFA  486E FFC8                pea.l      [A6 - 0x38]
00005CFE  3F3C 200E                move.w     -[A7], 0x200E
00005D02  A9EB                     syscall    Pack4/FP68K
00005D04  4868 FFF6                pea.l      [A0 - 0xA]
00005D08  486E FFC8                pea.l      [A6 - 0x38]
00005D0C  4267                     clr.w      -[A7]
00005D0E  A9EB                     syscall    Pack4/FP68K
00005D10  41EC 0018                lea.l      A0, [A4 + 0x18]
00005D14  43EE FFD2                lea.l      A1, [A6 - 0x2E]
00005D18  2121                     move.l     -[A0], -[A1]
00005D1A  2121                     move.l     -[A0], -[A1]
00005D1C  3121                     move.w     -[A0], -[A1]
00005D1E  3110                     move.w     -[A0], [A0]
00005D20  41EE FFD0                lea.l      A0, [A6 - 0x30]
00005D24  43EC 0002                lea.l      A1, [A4 + 0x2]
00005D28  20D9                     move.l     [A0]+, [A1]+
00005D2A  20D9                     move.l     [A0]+, [A1]+
00005D2C  30D9                     move.w     [A0]+, [A1]+
00005D2E  4868 FFF6                pea.l      [A0 - 0xA]
00005D32  3F3C 0016                move.w     -[A7], 0x16
00005D36  A9EB                     syscall    Pack4/FP68K
00005D38  4868 FFF6                pea.l      [A0 - 0xA]
00005D3C  486E FFDA                pea.l      [A6 - 0x26]
00005D40  3F3C 2010                move.w     -[A7], 0x2010
00005D44  A9EB                     syscall    Pack4/FP68K
00005D46  396E FFDA 0018           move.w     [A4 + 0x18], [A6 - 0x26]
00005D4C  41EE FFD0                lea.l      A0, [A6 - 0x30]
00005D50  43EC 000E                lea.l      A1, [A4 + 0xE]
00005D54  20D9                     move.l     [A0]+, [A1]+
00005D56  20D9                     move.l     [A0]+, [A1]+
00005D58  30D9                     move.w     [A0]+, [A1]+
00005D5A  4868 FFF6                pea.l      [A0 - 0xA]
00005D5E  3F3C 0016                move.w     -[A7], 0x16
00005D62  A9EB                     syscall    Pack4/FP68K
00005D64  4868 FFF6                pea.l      [A0 - 0xA]
00005D68  486E FFDA                pea.l      [A6 - 0x26]
00005D6C  3F3C 2010                move.w     -[A7], 0x2010
00005D70  A9EB                     syscall    Pack4/FP68K
00005D72  396E FFDA 001A           move.w     [A4 + 0x1A], [A6 - 0x26]
00005D78  41EE FFDE                lea.l      A0, [A6 - 0x22]
00005D7C  3D46 FFDA                move.w     [A6 - 0x26], D6
00005D80  486E FFDA                pea.l      [A6 - 0x26]
00005D84  4850                     pea.l      [A0]
00005D86  3F3C 200E                move.w     -[A7], 0x200E
00005D8A  A9EB                     syscall    Pack4/FP68K
00005D8C  3110                     move.w     -[A0], [A0]
00005D8E  41EE FFD2                lea.l      A0, [A6 - 0x2E]
00005D92  43EE FFF6                lea.l      A1, [A6 - 0xA]
00005D96  20D9                     move.l     [A0]+, [A1]+
00005D98  20D9                     move.l     [A0]+, [A1]+
00005D9A  30D9                     move.w     [A0]+, [A1]+
00005D9C  486E FFDE                pea.l      [A6 - 0x22]
00005DA0  4868 FFF6                pea.l      [A0 - 0xA]
00005DA4  3F3C 0004                move.w     -[A7], 0x4
00005DA8  A9EB                     syscall    Pack4/FP68K
00005DAA  43EE FFC8                lea.l      A1, [A6 - 0x38]
00005DAE  41E8 FFF6                lea.l      A0, [A0 - 0xA]
00005DB2  22D8                     move.l     [A1]+, [A0]+
00005DB4  22D8                     move.l     [A1]+, [A0]+
00005DB6  32D8                     move.w     [A1]+, [A0]+
00005DB8  487A 00BA                pea.l      [PC + 0xBA /* 00005E74, value 0x2000B, cstring "" */]
00005DBC  4869 FFF6                pea.l      [A1 - 0xA]
00005DC0  3F3C 2006                move.w     -[A7], 0x2006
00005DC4  A9EB                     syscall    Pack4/FP68K
00005DC6  41EC 0028                lea.l      A0, [A4 + 0x28]
00005DCA  2121                     move.l     -[A0], -[A1]
00005DCC  2121                     move.l     -[A0], -[A1]
00005DCE  3121                     move.w     -[A0], -[A1]
00005DD0  3110                     move.w     -[A0], [A0]
00005DD2  41EE FFD2                lea.l      A0, [A6 - 0x2E]
00005DD6  43EE FFEA                lea.l      A1, [A6 - 0x16]
00005DDA  20D9                     move.l     [A0]+, [A1]+
00005DDC  20D9                     move.l     [A0]+, [A1]+
00005DDE  30D9                     move.w     [A0]+, [A1]+
00005DE0  486E FFDE                pea.l      [A6 - 0x22]
00005DE4  4868 FFF6                pea.l      [A0 - 0xA]
00005DE8  3F3C 0004                move.w     -[A7], 0x4
00005DEC  A9EB                     syscall    Pack4/FP68K
00005DEE  43EE FFC8                lea.l      A1, [A6 - 0x38]
00005DF2  41E8 FFF6                lea.l      A0, [A0 - 0xA]
00005DF6  22D8                     move.l     [A1]+, [A0]+
00005DF8  22D8                     move.l     [A1]+, [A0]+
00005DFA  32D8                     move.w     [A1]+, [A0]+
00005DFC  487A 0074                pea.l      [PC + 0x74 /* 00005E72, value 0x20002, cstring "" */]
00005E00  4869 FFF6                pea.l      [A1 - 0xA]
00005E04  3F3C 2006                move.w     -[A7], 0x2006
00005E08  A9EB                     syscall    Pack4/FP68K
00005E0A  41EC 0034                lea.l      A0, [A4 + 0x34]
00005E0E  2121                     move.l     -[A0], -[A1]
00005E10  2121                     move.l     -[A0], -[A1]
00005E12  3121                     move.w     -[A0], -[A1]
00005E14  3110                     move.w     -[A0], [A0]
00005E16  197C 0006 0034           move.b     [A4 + 0x34], 0x6
00005E1C  197C 0006 0035           move.b     [A4 + 0x35], 0x6
00005E22  197C 0001 0037           move.b     [A4 + 0x37], 0x1
00005E28  2079 FFFF AEB4           movea.l    A0, [0xFFFFAEB4]
00005E2E  3E28 0306                move.w     D7, [A0 + 0x306]
00005E32  47E8 0306                lea.l      A3, [A0 + 0x306]
00005E36  BE46                     cmp.w      D7, D6
00005E38  6C02                     bge        +0x4 /* 00005E3C */
00005E3A  3C07                     move.w     D6, D7
label00005E3C:
00005E3C  4A6B 001A                tst.w      [A3 + 0x1A]
00005E40  6716                     beq        +0x18 /* 00005E58 */
00005E42  2079 FFFF AEB4           movea.l    A0, [0xFFFFAEB4]
00005E48  BC68 00FE                cmp.w      D6, [A0 + 0xFE]
00005E4C  6F0A                     ble        +0xC /* 00005E58 */
00005E4E  2079 FFFF AEB4           movea.l    A0, [0xFFFFAEB4]
00005E54  3C28 00FE                move.w     D6, [A0 + 0xFE]
label00005E58:
00005E58  1946 0036                move.b     [A4 + 0x36], D6
00005E5C  2079 FFFF AEB4           movea.l    A0, [0xFFFFAEB4]
00005E62  9D68 00FE                sub.w      [A0 + 0xFE], D6
00005E66  42AC 0038                clr.l      [A4 + 0x38]
label00005E6A:
00005E6A  4CDF 18C0                movem.l    D6,D7,A3,A4, [A7]+
00005E6E  4E5E                     unlink     A6
00005E70  4E75                     rts
00005E72  0002 0002                ori.b      D2, 0x2
00005E76  000B 000B                ori.b      A3, 0xB
fn00005E7A:
00005E7A  4E56 FFD4                link       A6, -0x002C
00005E7E  48E7 0318                movem.l    -[A7], D6,D7,A3,A4
00005E82  3C2E 0008                move.w     D6, [A6 + 0x8]
00005E86  2079 FFFF AEB4           movea.l    A0, [0xFFFFAEB4]
00005E8C  4A68 031A                tst.w      [A0 + 0x31A]
00005E90  6610                     bne        +0x12 /* 00005EA2 */
00005E92  2F3C FFFF B4D4           move.l     -[A7], 0xFFFFB4D4
00005E98  4EBA A166                jsr        [PC - 0x5E9A /* 00000000 */]
00005E9C  588F                     addq.l     A7, 4
00005E9E  6000 01FE                bra        +0x200 /* 0000609E */
label00005EA2:
00005EA2  2879 FFFF AACE           movea.l    A4, [0xFFFFAACE]
00005EA8  200C                     move.l     D0, A4
00005EAA  6606                     bne        +0x8 /* 00005EB2 */
00005EAC  6018                     bra        +0x1A /* 00005EC6 */
label00005EAE:
00005EAE  286C 0038                movea.l    A4, [A4 + 0x38]
label00005EB2:
00005EB2  4AAC 0038                tst.l      [A4 + 0x38]
00005EB6  66F6                     bne        -0x8 /* 00005EAE */
00005EB8  703C                     moveq.l    D0, 0x3C
00005EBA  A11E                     syscall    NewPtr, flags=1
00005EBC  2948 0038                move.l     [A4 + 0x38], A0
00005EC0  286C 0038                movea.l    A4, [A4 + 0x38]
00005EC4  600C                     bra        +0xE /* 00005ED2 */
label00005EC6:
00005EC6  703C                     moveq.l    D0, 0x3C
00005EC8  A11E                     syscall    NewPtr, flags=1
00005ECA  23C8 FFFF AACE           move.l     [0xFFFFAACE], A0
00005ED0  2848                     movea.l    A4, A0
label00005ED2:
00005ED2  2079 FFFF AEB4           movea.l    A0, [0xFFFFAEB4]
00005ED8  3E28 0102                move.w     D7, [A0 + 0x102]
00005EDC  2007                     move.l     D0, D7
00005EDE  0640 010E                addi.w     D0, 0x10E
00005EE2  48C0                     ext.l      D0
00005EE4  81FC 0168                divs.w     D0, 0x168
00005EE8  4840                     swap.w     D0
00005EEA  C1FC 000C                muls.w     D0, 0xC
00005EEE  2240                     movea.l    A1, D0
00005EF0  D3FC FFFF 7E84           add.l      A1, 0xFFFF7E84
00005EF6  41EE FFF4                lea.l      A0, [A6 - 0xC]
00005EFA  20D9                     move.l     [A0]+, [A1]+
00005EFC  20D9                     move.l     [A0]+, [A1]+
00005EFE  20D9                     move.l     [A0]+, [A1]+
00005F00  700C                     moveq.l    D0, 0x0C
00005F02  C1C7                     muls.w     D0, D7
00005F04  2040                     movea.l    A0, D0
00005F06  D1FC FFFF 7E84           add.l      A0, 0xFFFF7E84
00005F0C  43EE FFDE                lea.l      A1, [A6 - 0x22]
00005F10  5488                     addq.l     A0, 2
00005F12  22D8                     move.l     [A1]+, [A0]+
00005F14  22D8                     move.l     [A1]+, [A0]+
00005F16  32D8                     move.w     [A1]+, [A0]+
00005F18  4869 FFF6                pea.l      [A1 - 0xA]
00005F1C  3F3C 000D                move.w     -[A7], 0xD /* '\r' */
00005F20  A9EB                     syscall    Pack4/FP68K
00005F22  41EE FFF4                lea.l      A0, [A6 - 0xC]
00005F26  2121                     move.l     -[A0], -[A1]
00005F28  2121                     move.l     -[A0], -[A1]
00005F2A  3121                     move.w     -[A0], -[A1]
00005F2C  3110                     move.w     -[A0], [A0]
00005F2E  41EE FFDE                lea.l      A0, [A6 - 0x22]
00005F32  43EE FFF6                lea.l      A1, [A6 - 0xA]
00005F36  20D9                     move.l     [A0]+, [A1]+
00005F38  20D9                     move.l     [A0]+, [A1]+
00005F3A  30D9                     move.w     [A0]+, [A1]+
00005F3C  487A 016A                pea.l      [PC + 0x16A /* 000060A8, value 0xB4E56, cstring "" */]
00005F40  4868 FFF6                pea.l      [A0 - 0xA]
00005F44  3F3C 2004                move.w     -[A7], 0x2004
00005F48  A9EB                     syscall    Pack4/FP68K
00005F4A  2279 FFFF AEB4           movea.l    A1, [0xFFFFAEB4]
00005F50  4869 0030                pea.l      [A1 + 0x30]
00005F54  486E FFD4                pea.l      [A6 - 0x2C]
00005F58  3F3C 200E                move.w     -[A7], 0x200E
00005F5C  A9EB                     syscall    Pack4/FP68K
00005F5E  4868 FFF6                pea.l      [A0 - 0xA]
00005F62  486E FFD4                pea.l      [A6 - 0x2C]
00005F66  4267                     clr.w      -[A7]
00005F68  A9EB                     syscall    Pack4/FP68K
00005F6A  41EC 000C                lea.l      A0, [A4 + 0xC]
00005F6E  43EE FFDE                lea.l      A1, [A6 - 0x22]
00005F72  2121                     move.l     -[A0], -[A1]
00005F74  2121                     move.l     -[A0], -[A1]
00005F76  3121                     move.w     -[A0], -[A1]
00005F78  3110                     move.w     -[A0], [A0]
00005F7A  41EE FFDE                lea.l      A0, [A6 - 0x22]
00005F7E  43EE FFEA                lea.l      A1, [A6 - 0x16]
00005F82  20D9                     move.l     [A0]+, [A1]+
00005F84  20D9                     move.l     [A0]+, [A1]+
00005F86  30D9                     move.w     [A0]+, [A1]+
00005F88  487A 011C                pea.l      [PC + 0x11C /* 000060A6, value 0xB000B, cstring "" */]
00005F8C  4868 FFF6                pea.l      [A0 - 0xA]
00005F90  3F3C 2004                move.w     -[A7], 0x2004
00005F94  A9EB                     syscall    Pack4/FP68K
00005F96  2279 FFFF AEB4           movea.l    A1, [0xFFFFAEB4]
00005F9C  4869 0032                pea.l      [A1 + 0x32]
00005FA0  486E FFD4                pea.l      [A6 - 0x2C]
00005FA4  3F3C 200E                move.w     -[A7], 0x200E
00005FA8  A9EB                     syscall    Pack4/FP68K
00005FAA  4868 FFF6                pea.l      [A0 - 0xA]
00005FAE  486E FFD4                pea.l      [A6 - 0x2C]
00005FB2  4267                     clr.w      -[A7]
00005FB4  A9EB                     syscall    Pack4/FP68K
00005FB6  41EC 0018                lea.l      A0, [A4 + 0x18]
00005FBA  43EE FFDE                lea.l      A1, [A6 - 0x22]
00005FBE  2121                     move.l     -[A0], -[A1]
00005FC0  2121                     move.l     -[A0], -[A1]
00005FC2  3121                     move.w     -[A0], -[A1]
00005FC4  3110                     move.w     -[A0], [A0]
00005FC6  41EE FFDC                lea.l      A0, [A6 - 0x24]
00005FCA  43EC 0002                lea.l      A1, [A4 + 0x2]
00005FCE  20D9                     move.l     [A0]+, [A1]+
00005FD0  20D9                     move.l     [A0]+, [A1]+
00005FD2  30D9                     move.w     [A0]+, [A1]+
00005FD4  4868 FFF6                pea.l      [A0 - 0xA]
00005FD8  3F3C 0016                move.w     -[A7], 0x16
00005FDC  A9EB                     syscall    Pack4/FP68K
00005FDE  4868 FFF6                pea.l      [A0 - 0xA]
00005FE2  486E FFE6                pea.l      [A6 - 0x1A]
00005FE6  3F3C 2010                move.w     -[A7], 0x2010
00005FEA  A9EB                     syscall    Pack4/FP68K
00005FEC  396E FFE6 0018           move.w     [A4 + 0x18], [A6 - 0x1A]
00005FF2  41EE FFDC                lea.l      A0, [A6 - 0x24]
00005FF6  43EC 000E                lea.l      A1, [A4 + 0xE]
00005FFA  20D9                     move.l     [A0]+, [A1]+
00005FFC  20D9                     move.l     [A0]+, [A1]+
00005FFE  30D9                     move.w     [A0]+, [A1]+
00006000  4868 FFF6                pea.l      [A0 - 0xA]
00006004  3F3C 0016                move.w     -[A7], 0x16
00006008  A9EB                     syscall    Pack4/FP68K
0000600A  4868 FFF6                pea.l      [A0 - 0xA]
0000600E  486E FFE6                pea.l      [A6 - 0x1A]
00006012  3F3C 2010                move.w     -[A7], 0x2010
00006016  A9EB                     syscall    Pack4/FP68K
00006018  396E FFE6 001A           move.w     [A4 + 0x1A], [A6 - 0x1A]
0000601E  42AC 0024                clr.l      [A4 + 0x24]
00006022  297C C800 0000 0020      move.l     [A4 + 0x20], 0xC8000000
0000602A  297C 4005 4005 001C      move.l     [A4 + 0x1C], 0x40054005
00006032  41EC 002A                lea.l      A0, [A4 + 0x2A]
00006036  486E 000A                pea.l      [A6 + 0xA]
0000603A  4850                     pea.l      [A0]
0000603C  3F3C 200E                move.w     -[A7], 0x200E
00006040  A9EB                     syscall    Pack4/FP68K
00006042  3110                     move.w     -[A0], [A0]
00006044  197C 0009 0034           move.b     [A4 + 0x34], 0x9 /* '\t' */
0000604A  197C 0009 0035           move.b     [A4 + 0x35], 0x9 /* '\t' */
00006050  197C 0001 0037           move.b     [A4 + 0x37], 0x1
00006056  197C 0001 0035           move.b     [A4 + 0x35], 0x1
0000605C  2079 FFFF AEB4           movea.l    A0, [0xFFFFAEB4]
00006062  3E28 0306                move.w     D7, [A0 + 0x306]
00006066  47E8 0306                lea.l      A3, [A0 + 0x306]
0000606A  BE46                     cmp.w      D7, D6
0000606C  6C02                     bge        +0x4 /* 00006070 */
0000606E  3C07                     move.w     D6, D7
label00006070:
00006070  4A6B 001A                tst.w      [A3 + 0x1A]
00006074  6716                     beq        +0x18 /* 0000608C */
00006076  2079 FFFF AEB4           movea.l    A0, [0xFFFFAEB4]
0000607C  BC68 00FE                cmp.w      D6, [A0 + 0xFE]
00006080  6F0A                     ble        +0xC /* 0000608C */
00006082  2079 FFFF AEB4           movea.l    A0, [0xFFFFAEB4]
00006088  3C28 00FE                move.w     D6, [A0 + 0xFE]
label0000608C:
0000608C  1946 0036                move.b     [A4 + 0x36], D6
00006090  2079 FFFF AEB4           movea.l    A0, [0xFFFFAEB4]
00006096  9D68 00FE                sub.w      [A0 + 0xFE], D6
0000609A  42AC 0038                clr.l      [A4 + 0x38]
label0000609E:
0000609E  4CDF 18C0                movem.l    D6,D7,A3,A4, [A7]+
000060A2  4E5E                     unlink     A6
000060A4  4E75                     rts
000060A6  000B 000B                ori.b      A3, 0xB
fn000060AA:
000060AA  4E56 FFF4                link       A6, -0x000C
000060AE  48E7 0318                movem.l    -[A7], D6,D7,A3,A4
000060B2  3C2E 0008                move.w     D6, [A6 + 0x8]
000060B6  2079 FFFF AEB4           movea.l    A0, [0xFFFFAEB4]
000060BC  4A68 031C                tst.w      [A0 + 0x31C]
000060C0  6610                     bne        +0x12 /* 000060D2 */
000060C2  2F3C FFFF B4E8           move.l     -[A7], 0xFFFFB4E8
000060C8  4EBA 9F36                jsr        [PC - 0x60CA /* 00000000 */]
000060CC  588F                     addq.l     A7, 4
000060CE  6000 0132                bra        +0x134 /* 00006202 */
label000060D2:
000060D2  2879 FFFF AACE           movea.l    A4, [0xFFFFAACE]
000060D8  200C                     move.l     D0, A4
000060DA  6606                     bne        +0x8 /* 000060E2 */
000060DC  6018                     bra        +0x1A /* 000060F6 */
label000060DE:
000060DE  286C 0038                movea.l    A4, [A4 + 0x38]
label000060E2:
000060E2  4AAC 0038                tst.l      [A4 + 0x38]
000060E6  66F6                     bne        -0x8 /* 000060DE */
000060E8  703C                     moveq.l    D0, 0x3C
000060EA  A11E                     syscall    NewPtr, flags=1
000060EC  2948 0038                move.l     [A4 + 0x38], A0
000060F0  286C 0038                movea.l    A4, [A4 + 0x38]
000060F4  600C                     bra        +0xE /* 00006102 */
label000060F6:
000060F6  703C                     moveq.l    D0, 0x3C
000060F8  A11E                     syscall    NewPtr, flags=1
000060FA  23C8 FFFF AACE           move.l     [0xFFFFAACE], A0
00006100  2848                     movea.l    A4, A0
label00006102:
00006102  2079 FFFF AEB4           movea.l    A0, [0xFFFFAEB4]
00006108  43EC 0002                lea.l      A1, [A4 + 0x2]
0000610C  4868 0030                pea.l      [A0 + 0x30]
00006110  4851                     pea.l      [A1]
00006112  3F3C 200E                move.w     -[A7], 0x200E
00006116  A9EB                     syscall    Pack4/FP68K
00006118  3311                     move.w     -[A1], [A1]
0000611A  2079 FFFF AEB4           movea.l    A0, [0xFFFFAEB4]
00006120  43EC 000E                lea.l      A1, [A4 + 0xE]
00006124  4868 0032                pea.l      [A0 + 0x32]
00006128  4851                     pea.l      [A1]
0000612A  3F3C 200E                move.w     -[A7], 0x200E
0000612E  A9EB                     syscall    Pack4/FP68K
00006130  3311                     move.w     -[A1], [A1]
00006132  41EE FFF4                lea.l      A0, [A6 - 0xC]
00006136  43EC 0002                lea.l      A1, [A4 + 0x2]
0000613A  20D9                     move.l     [A0]+, [A1]+
0000613C  20D9                     move.l     [A0]+, [A1]+
0000613E  30D9                     move.w     [A0]+, [A1]+
00006140  4868 FFF6                pea.l      [A0 - 0xA]
00006144  3F3C 0016                move.w     -[A7], 0x16
00006148  A9EB                     syscall    Pack4/FP68K
0000614A  4868 FFF6                pea.l      [A0 - 0xA]
0000614E  486E FFFE                pea.l      [A6 - 0x2]
00006152  3F3C 2010                move.w     -[A7], 0x2010
00006156  A9EB                     syscall    Pack4/FP68K
00006158  396E FFFE 0018           move.w     [A4 + 0x18], [A6 - 0x2]
0000615E  41EE FFF4                lea.l      A0, [A6 - 0xC]
00006162  43EC 000E                lea.l      A1, [A4 + 0xE]
00006166  20D9                     move.l     [A0]+, [A1]+
00006168  20D9                     move.l     [A0]+, [A1]+
0000616A  30D9                     move.w     [A0]+, [A1]+
0000616C  4868 FFF6                pea.l      [A0 - 0xA]
00006170  3F3C 0016                move.w     -[A7], 0x16
00006174  A9EB                     syscall    Pack4/FP68K
00006176  4868 FFF6                pea.l      [A0 - 0xA]
0000617A  486E FFFE                pea.l      [A6 - 0x2]
0000617E  3F3C 2010                move.w     -[A7], 0x2010
00006182  A9EB                     syscall    Pack4/FP68K
00006184  396E FFFE 001A           move.w     [A4 + 0x1A], [A6 - 0x2]
0000618A  42AC 0024                clr.l      [A4 + 0x24]
0000618E  297C A000 0000 0020      move.l     [A4 + 0x20], 0xA0000000
00006196  297C 4002 4002 001C      move.l     [A4 + 0x1C], 0x40024002
0000619E  42AC 0030                clr.l      [A4 + 0x30]
000061A2  42AC 002C                clr.l      [A4 + 0x2C]
000061A6  42AC 0028                clr.l      [A4 + 0x28]
000061AA  197C 0008 0034           move.b     [A4 + 0x34], 0x8
000061B0  197C 0007 0035           move.b     [A4 + 0x35], 0x7
000061B6  197C 0001 0037           move.b     [A4 + 0x37], 0x1
000061BC  2079 FFFF AEB4           movea.l    A0, [0xFFFFAEB4]
000061C2  3E28 0306                move.w     D7, [A0 + 0x306]
000061C6  47E8 0306                lea.l      A3, [A0 + 0x306]
000061CA  BE46                     cmp.w      D7, D6
000061CC  6C02                     bge        +0x4 /* 000061D0 */
000061CE  3C07                     move.w     D6, D7
label000061D0:
000061D0  4A6B 001A                tst.w      [A3 + 0x1A]
000061D4  6716                     beq        +0x18 /* 000061EC */
000061D6  2079 FFFF AEB4           movea.l    A0, [0xFFFFAEB4]
000061DC  BC68 00FE                cmp.w      D6, [A0 + 0xFE]
000061E0  6F0A                     ble        +0xC /* 000061EC */
000061E2  2079 FFFF AEB4           movea.l    A0, [0xFFFFAEB4]
000061E8  3C28 00FE                move.w     D6, [A0 + 0xFE]
label000061EC:
000061EC  70FB                     moveq.l    D0, 0xFFFFFFFB
000061EE  D006                     add.b      D0, D6
000061F0  1940 0036                move.b     [A4 + 0x36], D0
000061F4  2079 FFFF AEB4           movea.l    A0, [0xFFFFAEB4]
000061FA  9D68 00FE                sub.w      [A0 + 0xFE], D6
000061FE  42AC 0038                clr.l      [A4 + 0x38]
label00006202:
00006202  4CDF 18C0                movem.l    D6,D7,A3,A4, [A7]+
00006206  4E5E                     unlink     A6
00006208  4E75                     rts
fn0000620A:
0000620A  4E56 FFEC                link       A6, -0x0014
0000620E  48E7 0318                movem.l    -[A7], D6,D7,A3,A4
00006212  3C2E 0008                move.w     D6, [A6 + 0x8]
00006216  2079 FFFF AEB4           movea.l    A0, [0xFFFFAEB4]
0000621C  4A68 0316                tst.w      [A0 + 0x316]
00006220  6610                     bne        +0x12 /* 00006232 */
00006222  2F3C FFFF B4FC           move.l     -[A7], 0xFFFFB4FC
00006228  4EBA 9DD6                jsr        [PC - 0x622A /* 00000000 */]
0000622C  588F                     addq.l     A7, 4
0000622E  6000 0204                bra        +0x206 /* 00006434 */
label00006232:
00006232  2879 FFFF AACE           movea.l    A4, [0xFFFFAACE]
00006238  200C                     move.l     D0, A4
0000623A  6606                     bne        +0x8 /* 00006242 */
0000623C  6018                     bra        +0x1A /* 00006256 */
label0000623E:
0000623E  286C 0038                movea.l    A4, [A4 + 0x38]
label00006242:
00006242  4AAC 0038                tst.l      [A4 + 0x38]
00006246  66F6                     bne        -0x8 /* 0000623E */
00006248  703C                     moveq.l    D0, 0x3C
0000624A  A11E                     syscall    NewPtr, flags=1
0000624C  2948 0038                move.l     [A4 + 0x38], A0
00006250  286C 0038                movea.l    A4, [A4 + 0x38]
00006254  600C                     bra        +0xE /* 00006262 */
label00006256:
00006256  703C                     moveq.l    D0, 0x3C
00006258  A11E                     syscall    NewPtr, flags=1
0000625A  23C8 FFFF AACE           move.l     [0xFFFFAACE], A0
00006260  2848                     movea.l    A4, A0
label00006262:
00006262  197C 000A 0034           move.b     [A4 + 0x34], 0xA /* '\n' */
00006268  196E 0023 0035           move.b     [A4 + 0x35], [A6 + 0x23]
0000626E  41EC 001C                lea.l      A0, [A4 + 0x1C]
00006272  43EE 000A                lea.l      A1, [A6 + 0xA]
00006276  20D9                     move.l     [A0]+, [A1]+
00006278  20D9                     move.l     [A0]+, [A1]+
0000627A  20D9                     move.l     [A0]+, [A1]+
0000627C  41EC 0028                lea.l      A0, [A4 + 0x28]
00006280  43EE 0016                lea.l      A1, [A6 + 0x16]
00006284  20D9                     move.l     [A0]+, [A1]+
00006286  20D9                     move.l     [A0]+, [A1]+
00006288  20D9                     move.l     [A0]+, [A1]+
0000628A  2079 FFFF AEB4           movea.l    A0, [0xFFFFAEB4]
00006290  3E28 0102                move.w     D7, [A0 + 0x102]
00006294  2007                     move.l     D0, D7
00006296  0640 010E                addi.w     D0, 0x10E
0000629A  48C0                     ext.l      D0
0000629C  81FC 0168                divs.w     D0, 0x168
000062A0  4840                     swap.w     D0
000062A2  C1FC 000C                muls.w     D0, 0xC
000062A6  2240                     movea.l    A1, D0
000062A8  D3FC FFFF 7E84           add.l      A1, 0xFFFF7E84
000062AE  41EE 000A                lea.l      A0, [A6 + 0xA]
000062B2  20D9                     move.l     [A0]+, [A1]+
000062B4  20D9                     move.l     [A0]+, [A1]+
000062B6  20D9                     move.l     [A0]+, [A1]+
000062B8  700C                     moveq.l    D0, 0x0C
000062BA  C1C7                     muls.w     D0, D7
000062BC  2040                     movea.l    A0, D0
000062BE  D1FC FFFF 7E84           add.l      A0, 0xFFFF7E84
000062C4  43EE FFF6                lea.l      A1, [A6 - 0xA]
000062C8  5488                     addq.l     A0, 2
000062CA  22D8                     move.l     [A1]+, [A0]+
000062CC  22D8                     move.l     [A1]+, [A0]+
000062CE  32D8                     move.w     [A1]+, [A0]+
000062D0  4869 FFF6                pea.l      [A1 - 0xA]
000062D4  3F3C 000D                move.w     -[A7], 0xD /* '\r' */
000062D8  A9EB                     syscall    Pack4/FP68K
000062DA  41EE 0022                lea.l      A0, [A6 + 0x22]
000062DE  2121                     move.l     -[A0], -[A1]
000062E0  2121                     move.l     -[A0], -[A1]
000062E2  3121                     move.w     -[A0], -[A1]
000062E4  3110                     move.w     -[A0], [A0]
000062E6  41EE FFF6                lea.l      A0, [A6 - 0xA]
000062EA  43EE 000C                lea.l      A1, [A6 + 0xC]
000062EE  20D9                     move.l     [A0]+, [A1]+
000062F0  20D9                     move.l     [A0]+, [A1]+
000062F2  30D9                     move.w     [A0]+, [A1]+
000062F4  487A 0148                pea.l      [PC + 0x148 /* 0000643E, value 0xB4E56, cstring "" */]
000062F8  4868 FFF6                pea.l      [A0 - 0xA]
000062FC  3F3C 2004                move.w     -[A7], 0x2004
00006300  A9EB                     syscall    Pack4/FP68K
00006302  2279 FFFF AEB4           movea.l    A1, [0xFFFFAEB4]
00006308  4869 0030                pea.l      [A1 + 0x30]
0000630C  486E FFEC                pea.l      [A6 - 0x14]
00006310  3F3C 200E                move.w     -[A7], 0x200E
00006314  A9EB                     syscall    Pack4/FP68K
00006316  4868 FFF6                pea.l      [A0 - 0xA]
0000631A  486E FFEC                pea.l      [A6 - 0x14]
0000631E  4267                     clr.w      -[A7]
00006320  A9EB                     syscall    Pack4/FP68K
00006322  41EC 000C                lea.l      A0, [A4 + 0xC]
00006326  43EE FFF6                lea.l      A1, [A6 - 0xA]
0000632A  2121                     move.l     -[A0], -[A1]
0000632C  2121                     move.l     -[A0], -[A1]
0000632E  3121                     move.w     -[A0], -[A1]
00006330  3110                     move.w     -[A0], [A0]
00006332  41EE FFF6                lea.l      A0, [A6 - 0xA]
00006336  43EE 0018                lea.l      A1, [A6 + 0x18]
0000633A  20D9                     move.l     [A0]+, [A1]+
0000633C  20D9                     move.l     [A0]+, [A1]+
0000633E  30D9                     move.w     [A0]+, [A1]+
00006340  487A 00FA                pea.l      [PC + 0xFA /* 0000643C, value 0xB000B, cstring "" */]
00006344  4868 FFF6                pea.l      [A0 - 0xA]
00006348  3F3C 2004                move.w     -[A7], 0x2004
0000634C  A9EB                     syscall    Pack4/FP68K
0000634E  2279 FFFF AEB4           movea.l    A1, [0xFFFFAEB4]
00006354  4869 0032                pea.l      [A1 + 0x32]
00006358  486E FFEC                pea.l      [A6 - 0x14]
0000635C  3F3C 200E                move.w     -[A7], 0x200E
00006360  A9EB                     syscall    Pack4/FP68K
00006362  4868 FFF6                pea.l      [A0 - 0xA]
00006366  486E FFEC                pea.l      [A6 - 0x14]
0000636A  4267                     clr.w      -[A7]
0000636C  A9EB                     syscall    Pack4/FP68K
0000636E  41EC 0018                lea.l      A0, [A4 + 0x18]
00006372  43EE FFF6                lea.l      A1, [A6 - 0xA]
00006376  2121                     move.l     -[A0], -[A1]
00006378  2121                     move.l     -[A0], -[A1]
0000637A  3121                     move.w     -[A0], -[A1]
0000637C  3110                     move.w     -[A0], [A0]
0000637E  41EE FFF4                lea.l      A0, [A6 - 0xC]
00006382  43EC 0002                lea.l      A1, [A4 + 0x2]
00006386  20D9                     move.l     [A0]+, [A1]+
00006388  20D9                     move.l     [A0]+, [A1]+
0000638A  30D9                     move.w     [A0]+, [A1]+
0000638C  4868 FFF6                pea.l      [A0 - 0xA]
00006390  3F3C 0016                move.w     -[A7], 0x16
00006394  A9EB                     syscall    Pack4/FP68K
00006396  4868 FFF6                pea.l      [A0 - 0xA]
0000639A  486E FFFE                pea.l      [A6 - 0x2]
0000639E  3F3C 2010                move.w     -[A7], 0x2010
000063A2  A9EB                     syscall    Pack4/FP68K
000063A4  396E FFFE 0018           move.w     [A4 + 0x18], [A6 - 0x2]
000063AA  41EE FFF4                lea.l      A0, [A6 - 0xC]
000063AE  43EC 000E                lea.l      A1, [A4 + 0xE]
000063B2  20D9                     move.l     [A0]+, [A1]+
000063B4  20D9                     move.l     [A0]+, [A1]+
000063B6  30D9                     move.w     [A0]+, [A1]+
000063B8  4868 FFF6                pea.l      [A0 - 0xA]
000063BC  3F3C 0016                move.w     -[A7], 0x16
000063C0  A9EB                     syscall    Pack4/FP68K
000063C2  4868 FFF6                pea.l      [A0 - 0xA]
000063C6  486E FFFE                pea.l      [A6 - 0x2]
000063CA  3F3C 2010                move.w     -[A7], 0x2010
000063CE  A9EB                     syscall    Pack4/FP68K
000063D0  396E FFFE 001A           move.w     [A4 + 0x1A], [A6 - 0x2]
000063D6  197C 0001 0037           move.b     [A4 + 0x37], 0x1
000063DC  2079 FFFF AEB4           movea.l    A0, [0xFFFFAEB4]
000063E2  3E28 0306                move.w     D7, [A0 + 0x306]
000063E6  47E8 0306                lea.l      A3, [A0 + 0x306]
000063EA  BE46                     cmp.w      D7, D6
000063EC  6C02                     bge        +0x4 /* 000063F0 */
000063EE  3C07                     move.w     D6, D7
label000063F0:
000063F0  4A6B 001A                tst.w      [A3 + 0x1A]
000063F4  6716                     beq        +0x18 /* 0000640C */
000063F6  2079 FFFF AEB4           movea.l    A0, [0xFFFFAEB4]
000063FC  BC68 00FE                cmp.w      D6, [A0 + 0xFE]
00006400  6F0A                     ble        +0xC /* 0000640C */
00006402  2079 FFFF AEB4           movea.l    A0, [0xFFFFAEB4]
00006408  3C28 00FE                move.w     D6, [A0 + 0xFE]
label0000640C:
0000640C  2079 FFFF AEB4           movea.l    A0, [0xFFFFAEB4]
00006412  3E28 00FE                move.w     D7, [A0 + 0xFE]
00006416  4A47                     tst.w      D7
00006418  6C02                     bge        +0x4 /* 0000641C */
0000641A  7E00                     moveq.l    D7, 0x00
label0000641C:
0000641C  2079 FFFF AEB4           movea.l    A0, [0xFFFFAEB4]
00006422  9D68 00FE                sub.w      [A0 + 0xFE], D6
00006426  BE46                     cmp.w      D7, D6
00006428  6C02                     bge        +0x4 /* 0000642C */
0000642A  3C07                     move.w     D6, D7
label0000642C:
0000642C  1946 0036                move.b     [A4 + 0x36], D6
00006430  42AC 0038                clr.l      [A4 + 0x38]
label00006434:
00006434  4CDF 18C0                movem.l    D6,D7,A3,A4, [A7]+
00006438  4E5E                     unlink     A6
0000643A  4E75                     rts
0000643C  000B 000B                ori.b      A3, 0xB
fn00006440:
00006440  4E56 FFD4                link       A6, -0x002C
00006444  48E7 0318                movem.l    -[A7], D6,D7,A3,A4
00006448  3C2E 0008                move.w     D6, [A6 + 0x8]
0000644C  2079 FFFF AEB4           movea.l    A0, [0xFFFFAEB4]
00006452  0C68 0001 030E           cmpi.w     [A0 + 0x30E], 0x1
00006458  6610                     bne        +0x12 /* 0000646A */
0000645A  2F3C FFFF B510           move.l     -[A7], 0xFFFFB510
00006460  4EBA 9B9E                jsr        [PC - 0x6462 /* 00000000 */]
00006464  588F                     addq.l     A7, 4
00006466  6000 0222                bra        +0x224 /* 0000668A */
label0000646A:
0000646A  2879 FFFF AACE           movea.l    A4, [0xFFFFAACE]
00006470  200C                     move.l     D0, A4
00006472  6606                     bne        +0x8 /* 0000647A */
00006474  6018                     bra        +0x1A /* 0000648E */
label00006476:
00006476  286C 0038                movea.l    A4, [A4 + 0x38]
label0000647A:
0000647A  4AAC 0038                tst.l      [A4 + 0x38]
0000647E  66F6                     bne        -0x8 /* 00006476 */
00006480  703C                     moveq.l    D0, 0x3C
00006482  A11E                     syscall    NewPtr, flags=1
00006484  2948 0038                move.l     [A4 + 0x38], A0
00006488  286C 0038                movea.l    A4, [A4 + 0x38]
0000648C  600C                     bra        +0xE /* 0000649A */
label0000648E:
0000648E  703C                     moveq.l    D0, 0x3C
00006490  A11E                     syscall    NewPtr, flags=1
00006492  23C8 FFFF AACE           move.l     [0xFFFFAACE], A0
00006498  2848                     movea.l    A4, A0
label0000649A:
0000649A  2079 FFFF AEB4           movea.l    A0, [0xFFFFAEB4]
000064A0  3E28 0102                move.w     D7, [A0 + 0x102]
000064A4  2007                     move.l     D0, D7
000064A6  0640 010E                addi.w     D0, 0x10E
000064AA  48C0                     ext.l      D0
000064AC  81FC 0168                divs.w     D0, 0x168
000064B0  4840                     swap.w     D0
000064B2  C1FC 000C                muls.w     D0, 0xC
000064B6  2240                     movea.l    A1, D0
000064B8  D3FC FFFF 7E84           add.l      A1, 0xFFFF7E84
000064BE  41EE FFF4                lea.l      A0, [A6 - 0xC]
000064C2  20D9                     move.l     [A0]+, [A1]+
000064C4  20D9                     move.l     [A0]+, [A1]+
000064C6  20D9                     move.l     [A0]+, [A1]+
000064C8  700C                     moveq.l    D0, 0x0C
000064CA  C1C7                     muls.w     D0, D7
000064CC  2040                     movea.l    A0, D0
000064CE  D1FC FFFF 7E84           add.l      A0, 0xFFFF7E84
000064D4  43EE FFDE                lea.l      A1, [A6 - 0x22]
000064D8  5488                     addq.l     A0, 2
000064DA  22D8                     move.l     [A1]+, [A0]+
000064DC  22D8                     move.l     [A1]+, [A0]+
000064DE  32D8                     move.w     [A1]+, [A0]+
000064E0  4869 FFF6                pea.l      [A1 - 0xA]
000064E4  3F3C 000D                move.w     -[A7], 0xD /* '\r' */
000064E8  A9EB                     syscall    Pack4/FP68K
000064EA  41EE FFF4                lea.l      A0, [A6 - 0xC]
000064EE  2121                     move.l     -[A0], -[A1]
000064F0  2121                     move.l     -[A0], -[A1]
000064F2  3121                     move.w     -[A0], -[A1]
000064F4  3110                     move.w     -[A0], [A0]
000064F6  41EE FFDE                lea.l      A0, [A6 - 0x22]
000064FA  43EE FFF6                lea.l      A1, [A6 - 0xA]
000064FE  20D9                     move.l     [A0]+, [A1]+
00006500  20D9                     move.l     [A0]+, [A1]+
00006502  30D9                     move.w     [A0]+, [A1]+
00006504  487A 0192                pea.l      [PC + 0x192 /* 00006698, value 0xB4E56, cstring "" */]
00006508  4868 FFF6                pea.l      [A0 - 0xA]
0000650C  3F3C 2004                move.w     -[A7], 0x2004
00006510  A9EB                     syscall    Pack4/FP68K
00006512  2279 FFFF AEB4           movea.l    A1, [0xFFFFAEB4]
00006518  4869 0030                pea.l      [A1 + 0x30]
0000651C  486E FFD4                pea.l      [A6 - 0x2C]
00006520  3F3C 200E                move.w     -[A7], 0x200E
00006524  A9EB                     syscall    Pack4/FP68K
00006526  4868 FFF6                pea.l      [A0 - 0xA]
0000652A  486E FFD4                pea.l      [A6 - 0x2C]
0000652E  4267                     clr.w      -[A7]
00006530  A9EB                     syscall    Pack4/FP68K
00006532  41EC 000C                lea.l      A0, [A4 + 0xC]
00006536  43EE FFDE                lea.l      A1, [A6 - 0x22]
0000653A  2121                     move.l     -[A0], -[A1]
0000653C  2121                     move.l     -[A0], -[A1]
0000653E  3121                     move.w     -[A0], -[A1]
00006540  3110                     move.w     -[A0], [A0]
00006542  41EE FFDE                lea.l      A0, [A6 - 0x22]
00006546  43EE FFEA                lea.l      A1, [A6 - 0x16]
0000654A  20D9                     move.l     [A0]+, [A1]+
0000654C  20D9                     move.l     [A0]+, [A1]+
0000654E  30D9                     move.w     [A0]+, [A1]+
00006550  487A 0144                pea.l      [PC + 0x144 /* 00006696, value 0xB000B, cstring "" */]
00006554  4868 FFF6                pea.l      [A0 - 0xA]
00006558  3F3C 2004                move.w     -[A7], 0x2004
0000655C  A9EB                     syscall    Pack4/FP68K
0000655E  2279 FFFF AEB4           movea.l    A1, [0xFFFFAEB4]
00006564  4869 0032                pea.l      [A1 + 0x32]
00006568  486E FFD4                pea.l      [A6 - 0x2C]
0000656C  3F3C 200E                move.w     -[A7], 0x200E
00006570  A9EB                     syscall    Pack4/FP68K
00006572  4868 FFF6                pea.l      [A0 - 0xA]
00006576  486E FFD4                pea.l      [A6 - 0x2C]
0000657A  4267                     clr.w      -[A7]
0000657C  A9EB                     syscall    Pack4/FP68K
0000657E  41EC 0018                lea.l      A0, [A4 + 0x18]
00006582  43EE FFDE                lea.l      A1, [A6 - 0x22]
00006586  2121                     move.l     -[A0], -[A1]
00006588  2121                     move.l     -[A0], -[A1]
0000658A  3121                     move.w     -[A0], -[A1]
0000658C  3110                     move.w     -[A0], [A0]
0000658E  41EE FFDC                lea.l      A0, [A6 - 0x24]
00006592  43EC 0002                lea.l      A1, [A4 + 0x2]
00006596  20D9                     move.l     [A0]+, [A1]+
00006598  20D9                     move.l     [A0]+, [A1]+
0000659A  30D9                     move.w     [A0]+, [A1]+
0000659C  4868 FFF6                pea.l      [A0 - 0xA]
000065A0  3F3C 0016                move.w     -[A7], 0x16
000065A4  A9EB                     syscall    Pack4/FP68K
000065A6  4868 FFF6                pea.l      [A0 - 0xA]
000065AA  486E FFE6                pea.l      [A6 - 0x1A]
000065AE  3F3C 2010                move.w     -[A7], 0x2010
000065B2  A9EB                     syscall    Pack4/FP68K
000065B4  396E FFE6 0018           move.w     [A4 + 0x18], [A6 - 0x1A]
000065BA  41EE FFDC                lea.l      A0, [A6 - 0x24]
000065BE  43EC 000E                lea.l      A1, [A4 + 0xE]
000065C2  20D9                     move.l     [A0]+, [A1]+
000065C4  20D9                     move.l     [A0]+, [A1]+
000065C6  30D9                     move.w     [A0]+, [A1]+
000065C8  4868 FFF6                pea.l      [A0 - 0xA]
000065CC  3F3C 0016                move.w     -[A7], 0x16
000065D0  A9EB                     syscall    Pack4/FP68K
000065D2  4868 FFF6                pea.l      [A0 - 0xA]
000065D6  486E FFE6                pea.l      [A6 - 0x1A]
000065DA  3F3C 2010                move.w     -[A7], 0x2010
000065DE  A9EB                     syscall    Pack4/FP68K
000065E0  396E FFE6 001A           move.w     [A4 + 0x1A], [A6 - 0x1A]
000065E6  41EE FFDE                lea.l      A0, [A6 - 0x22]
000065EA  43EE FFF6                lea.l      A1, [A6 - 0xA]
000065EE  20D9                     move.l     [A0]+, [A1]+
000065F0  20D9                     move.l     [A0]+, [A1]+
000065F2  30D9                     move.w     [A0]+, [A1]+
000065F4  487A 009E                pea.l      [PC + 0x9E /* 00006694, value 0x6000B, cstring "" */]
000065F8  4868 FFF6                pea.l      [A0 - 0xA]
000065FC  3F3C 2004                move.w     -[A7], 0x2004
00006600  A9EB                     syscall    Pack4/FP68K
00006602  43EC 0028                lea.l      A1, [A4 + 0x28]
00006606  2320                     move.l     -[A1], -[A0]
00006608  2320                     move.l     -[A1], -[A0]
0000660A  3320                     move.w     -[A1], -[A0]
0000660C  3311                     move.w     -[A1], [A1]
0000660E  41EE FFDE                lea.l      A0, [A6 - 0x22]
00006612  43EE FFEA                lea.l      A1, [A6 - 0x16]
00006616  20D9                     move.l     [A0]+, [A1]+
00006618  20D9                     move.l     [A0]+, [A1]+
0000661A  30D9                     move.w     [A0]+, [A1]+
0000661C  487A 0074                pea.l      [PC + 0x74 /* 00006692, value 0x60006, cstring "" */]
00006620  4868 FFF6                pea.l      [A0 - 0xA]
00006624  3F3C 2004                move.w     -[A7], 0x2004
00006628  A9EB                     syscall    Pack4/FP68K
0000662A  43EC 0034                lea.l      A1, [A4 + 0x34]
0000662E  2320                     move.l     -[A1], -[A0]
00006630  2320                     move.l     -[A1], -[A0]
00006632  3320                     move.w     -[A1], -[A0]
00006634  3311                     move.w     -[A1], [A1]
00006636  197C 0001 0034           move.b     [A4 + 0x34], 0x1
0000663C  197C 0002 0035           move.b     [A4 + 0x35], 0x2
00006642  197C 0001 0037           move.b     [A4 + 0x37], 0x1
00006648  2079 FFFF AEB4           movea.l    A0, [0xFFFFAEB4]
0000664E  3E28 0306                move.w     D7, [A0 + 0x306]
00006652  47E8 0306                lea.l      A3, [A0 + 0x306]
00006656  BE46                     cmp.w      D7, D6
00006658  6C02                     bge        +0x4 /* 0000665C */
0000665A  3C07                     move.w     D6, D7
label0000665C:
0000665C  4A6B 001A                tst.w      [A3 + 0x1A]
00006660  6716                     beq        +0x18 /* 00006678 */
00006662  2079 FFFF AEB4           movea.l    A0, [0xFFFFAEB4]
00006668  BC68 00FE                cmp.w      D6, [A0 + 0xFE]
0000666C  6F0A                     ble        +0xC /* 00006678 */
0000666E  2079 FFFF AEB4           movea.l    A0, [0xFFFFAEB4]
00006674  3C28 00FE                move.w     D6, [A0 + 0xFE]
label00006678:
00006678  1946 0036                move.b     [A4 + 0x36], D6
0000667C  2079 FFFF AEB4           movea.l    A0, [0xFFFFAEB4]
00006682  9D68 00FE                sub.w      [A0 + 0xFE], D6
00006686  42AC 0038                clr.l      [A4 + 0x38]
label0000668A:
0000668A  4CDF 18C0                movem.l    D6,D7,A3,A4, [A7]+
0000668E  4E5E                     unlink     A6
00006690  4E75                     rts
00006692  0006 0006                ori.b      D6, 0x6
00006696  000B 000B                ori.b      A3, 0xB
fn0000669A:
0000669A  4E56 FFD4                link       A6, -0x002C
0000669E  48E7 0318                movem.l    -[A7], D6,D7,A3,A4
000066A2  3C2E 0008                move.w     D6, [A6 + 0x8]
000066A6  2079 FFFF AEB4           movea.l    A0, [0xFFFFAEB4]
000066AC  4A68 031E                tst.w      [A0 + 0x31E]
000066B0  6610                     bne        +0x12 /* 000066C2 */
000066B2  2F3C FFFF B52E           move.l     -[A7], 0xFFFFB52E
000066B8  4EBA 9946                jsr        [PC - 0x66BA /* 00000000 */]
000066BC  588F                     addq.l     A7, 4
000066BE  6000 0222                bra        +0x224 /* 000068E2 */
label000066C2:
000066C2  2879 FFFF AACE           movea.l    A4, [0xFFFFAACE]
000066C8  200C                     move.l     D0, A4
000066CA  6606                     bne        +0x8 /* 000066D2 */
000066CC  6018                     bra        +0x1A /* 000066E6 */
label000066CE:
000066CE  286C 0038                movea.l    A4, [A4 + 0x38]
label000066D2:
000066D2  4AAC 0038                tst.l      [A4 + 0x38]
000066D6  66F6                     bne        -0x8 /* 000066CE */
000066D8  703C                     moveq.l    D0, 0x3C
000066DA  A11E                     syscall    NewPtr, flags=1
000066DC  2948 0038                move.l     [A4 + 0x38], A0
000066E0  286C 0038                movea.l    A4, [A4 + 0x38]
000066E4  600C                     bra        +0xE /* 000066F2 */
label000066E6:
000066E6  703C                     moveq.l    D0, 0x3C
000066E8  A11E                     syscall    NewPtr, flags=1
000066EA  23C8 FFFF AACE           move.l     [0xFFFFAACE], A0
000066F0  2848                     movea.l    A4, A0
label000066F2:
000066F2  2079 FFFF AEB4           movea.l    A0, [0xFFFFAEB4]
000066F8  3E28 0102                move.w     D7, [A0 + 0x102]
000066FC  2007                     move.l     D0, D7
000066FE  0640 010E                addi.w     D0, 0x10E
00006702  48C0                     ext.l      D0
00006704  81FC 0168                divs.w     D0, 0x168
00006708  4840                     swap.w     D0
0000670A  C1FC 000C                muls.w     D0, 0xC
0000670E  2240                     movea.l    A1, D0
00006710  D3FC FFFF 7E84           add.l      A1, 0xFFFF7E84
00006716  41EE FFF4                lea.l      A0, [A6 - 0xC]
0000671A  20D9                     move.l     [A0]+, [A1]+
0000671C  20D9                     move.l     [A0]+, [A1]+
0000671E  20D9                     move.l     [A0]+, [A1]+
00006720  700C                     moveq.l    D0, 0x0C
00006722  C1C7                     muls.w     D0, D7
00006724  2040                     movea.l    A0, D0
00006726  D1FC FFFF 7E84           add.l      A0, 0xFFFF7E84
0000672C  43EE FFDE                lea.l      A1, [A6 - 0x22]
00006730  5488                     addq.l     A0, 2
00006732  22D8                     move.l     [A1]+, [A0]+
00006734  22D8                     move.l     [A1]+, [A0]+
00006736  32D8                     move.w     [A1]+, [A0]+
00006738  4869 FFF6                pea.l      [A1 - 0xA]
0000673C  3F3C 000D                move.w     -[A7], 0xD /* '\r' */
00006740  A9EB                     syscall    Pack4/FP68K
00006742  41EE FFF4                lea.l      A0, [A6 - 0xC]
00006746  2121                     move.l     -[A0], -[A1]
00006748  2121                     move.l     -[A0], -[A1]
0000674A  3121                     move.w     -[A0], -[A1]
0000674C  3110                     move.w     -[A0], [A0]
0000674E  41EE FFDE                lea.l      A0, [A6 - 0x22]
00006752  43EE FFF6                lea.l      A1, [A6 - 0xA]
00006756  20D9                     move.l     [A0]+, [A1]+
00006758  20D9                     move.l     [A0]+, [A1]+
0000675A  30D9                     move.w     [A0]+, [A1]+
0000675C  487A 0192                pea.l      [PC + 0x192 /* 000068F0, value 0xB4E56, cstring "" */]
00006760  4868 FFF6                pea.l      [A0 - 0xA]
00006764  3F3C 2004                move.w     -[A7], 0x2004
00006768  A9EB                     syscall    Pack4/FP68K
0000676A  2279 FFFF AEB4           movea.l    A1, [0xFFFFAEB4]
00006770  4869 0030                pea.l      [A1 + 0x30]
00006774  486E FFD4                pea.l      [A6 - 0x2C]
00006778  3F3C 200E                move.w     -[A7], 0x200E
0000677C  A9EB                     syscall    Pack4/FP68K
0000677E  4868 FFF6                pea.l      [A0 - 0xA]
00006782  486E FFD4                pea.l      [A6 - 0x2C]
00006786  4267                     clr.w      -[A7]
00006788  A9EB                     syscall    Pack4/FP68K
0000678A  41EC 000C                lea.l      A0, [A4 + 0xC]
0000678E  43EE FFDE                lea.l      A1, [A6 - 0x22]
00006792  2121                     move.l     -[A0], -[A1]
00006794  2121                     move.l     -[A0], -[A1]
00006796  3121                     move.w     -[A0], -[A1]
00006798  3110                     move.w     -[A0], [A0]
0000679A  41EE FFDE                lea.l      A0, [A6 - 0x22]
0000679E  43EE FFEA                lea.l      A1, [A6 - 0x16]
000067A2  20D9                     move.l     [A0]+, [A1]+
000067A4  20D9                     move.l     [A0]+, [A1]+
000067A6  30D9                     move.w     [A0]+, [A1]+
000067A8  487A 0144                pea.l      [PC + 0x144 /* 000068EE, value 0xB000B, cstring "" */]
000067AC  4868 FFF6                pea.l      [A0 - 0xA]
000067B0  3F3C 2004                move.w     -[A7], 0x2004
000067B4  A9EB                     syscall    Pack4/FP68K
000067B6  2279 FFFF AEB4           movea.l    A1, [0xFFFFAEB4]
000067BC  4869 0032                pea.l      [A1 + 0x32]
000067C0  486E FFD4                pea.l      [A6 - 0x2C]
000067C4  3F3C 200E                move.w     -[A7], 0x200E
000067C8  A9EB                     syscall    Pack4/FP68K
000067CA  4868 FFF6                pea.l      [A0 - 0xA]
000067CE  486E FFD4                pea.l      [A6 - 0x2C]
000067D2  4267                     clr.w      -[A7]
000067D4  A9EB                     syscall    Pack4/FP68K
000067D6  41EC 0018                lea.l      A0, [A4 + 0x18]
000067DA  43EE FFDE                lea.l      A1, [A6 - 0x22]
000067DE  2121                     move.l     -[A0], -[A1]
000067E0  2121                     move.l     -[A0], -[A1]
000067E2  3121                     move.w     -[A0], -[A1]
000067E4  3110                     move.w     -[A0], [A0]
000067E6  41EE FFDC                lea.l      A0, [A6 - 0x24]
000067EA  43EC 0002                lea.l      A1, [A4 + 0x2]
000067EE  20D9                     move.l     [A0]+, [A1]+
000067F0  20D9                     move.l     [A0]+, [A1]+
000067F2  30D9                     move.w     [A0]+, [A1]+
000067F4  4868 FFF6                pea.l      [A0 - 0xA]
000067F8  3F3C 0016                move.w     -[A7], 0x16
000067FC  A9EB                     syscall    Pack4/FP68K
000067FE  4868 FFF6                pea.l      [A0 - 0xA]
00006802  486E FFE6                pea.l      [A6 - 0x1A]
00006806  3F3C 2010                move.w     -[A7], 0x2010
0000680A  A9EB                     syscall    Pack4/FP68K
0000680C  396E FFE6 0018           move.w     [A4 + 0x18], [A6 - 0x1A]
00006812  41EE FFDC                lea.l      A0, [A6 - 0x24]
00006816  43EC 000E                lea.l      A1, [A4 + 0xE]
0000681A  20D9                     move.l     [A0]+, [A1]+
0000681C  20D9                     move.l     [A0]+, [A1]+
0000681E  30D9                     move.w     [A0]+, [A1]+
00006820  4868 FFF6                pea.l      [A0 - 0xA]
00006824  3F3C 0016                move.w     -[A7], 0x16
00006828  A9EB                     syscall    Pack4/FP68K
0000682A  4868 FFF6                pea.l      [A0 - 0xA]
0000682E  486E FFE6                pea.l      [A6 - 0x1A]
00006832  3F3C 2010                move.w     -[A7], 0x2010
00006836  A9EB                     syscall    Pack4/FP68K
00006838  396E FFE6 001A           move.w     [A4 + 0x1A], [A6 - 0x1A]
0000683E  41EE FFDE                lea.l      A0, [A6 - 0x22]
00006842  43EE FFF6                lea.l      A1, [A6 - 0xA]
00006846  20D9                     move.l     [A0]+, [A1]+
00006848  20D9                     move.l     [A0]+, [A1]+
0000684A  30D9                     move.w     [A0]+, [A1]+
0000684C  487A 009E                pea.l      [PC + 0x9E /* 000068EC, value 0x7000B, cstring "" */]
00006850  4868 FFF6                pea.l      [A0 - 0xA]
00006854  3F3C 2004                move.w     -[A7], 0x2004
00006858  A9EB                     syscall    Pack4/FP68K
0000685A  43EC 0028                lea.l      A1, [A4 + 0x28]
0000685E  2320                     move.l     -[A1], -[A0]
00006860  2320                     move.l     -[A1], -[A0]
00006862  3320                     move.w     -[A1], -[A0]
00006864  3311                     move.w     -[A1], [A1]
00006866  41EE FFDE                lea.l      A0, [A6 - 0x22]
0000686A  43EE FFEA                lea.l      A1, [A6 - 0x16]
0000686E  20D9                     move.l     [A0]+, [A1]+
00006870  20D9                     move.l     [A0]+, [A1]+
00006872  30D9                     move.w     [A0]+, [A1]+
00006874  487A 0074                pea.l      [PC + 0x74 /* 000068EA, value 0x70007, cstring "" */]
00006878  4868 FFF6                pea.l      [A0 - 0xA]
0000687C  3F3C 2004                move.w     -[A7], 0x2004
00006880  A9EB                     syscall    Pack4/FP68K
00006882  43EC 0034                lea.l      A1, [A4 + 0x34]
00006886  2320                     move.l     -[A1], -[A0]
00006888  2320                     move.l     -[A1], -[A0]
0000688A  3320                     move.w     -[A1], -[A0]
0000688C  3311                     move.w     -[A1], [A1]
0000688E  197C 000B 0034           move.b     [A4 + 0x34], 0xB
00006894  197C 000B 0035           move.b     [A4 + 0x35], 0xB
0000689A  197C 0001 0037           move.b     [A4 + 0x37], 0x1
000068A0  2079 FFFF AEB4           movea.l    A0, [0xFFFFAEB4]
000068A6  3E28 0306                move.w     D7, [A0 + 0x306]
000068AA  47E8 0306                lea.l      A3, [A0 + 0x306]
000068AE  BE46                     cmp.w      D7, D6
000068B0  6C02                     bge        +0x4 /* 000068B4 */
000068B2  3C07                     move.w     D6, D7
label000068B4:
000068B4  4A6B 001A                tst.w      [A3 + 0x1A]
000068B8  6716                     beq        +0x18 /* 000068D0 */
000068BA  2079 FFFF AEB4           movea.l    A0, [0xFFFFAEB4]
000068C0  BC68 00FE                cmp.w      D6, [A0 + 0xFE]
000068C4  6F0A                     ble        +0xC /* 000068D0 */
000068C6  2079 FFFF AEB4           movea.l    A0, [0xFFFFAEB4]
000068CC  3C28 00FE                move.w     D6, [A0 + 0xFE]
label000068D0:
000068D0  1946 0036                move.b     [A4 + 0x36], D6
000068D4  2079 FFFF AEB4           movea.l    A0, [0xFFFFAEB4]
000068DA  9D68 00FE                sub.w      [A0 + 0xFE], D6
000068DE  42AC 0038                clr.l      [A4 + 0x38]
label000068E2:
000068E2  4CDF 18C0                movem.l    D6,D7,A3,A4, [A7]+
000068E6  4E5E                     unlink     A6
000068E8  4E75                     rts
000068EA  0007 0007                ori.b      D7, 0x7
000068EE  000B 000B                ori.b      A3, 0xB
export_32:
000068F2  4E56 FF26                link       A6, -0x00DA
000068F6  48E7 1F38                movem.l    -[A7], D3,D4,D5,D6,D7,A2,A3,A4
000068FA  286E 0008                movea.l    A4, [A6 + 0x8]
000068FE  426E FF6C                clr.w      [A6 - 0x94]
00006902  3D7C 0006 FF6E           move.w     [A6 - 0x92], 0x6
00006908  3E2C 010C                move.w     D7, [A4 + 0x10C]
0000690C  DE6C 0102                add.w      D7, [A4 + 0x102]
00006910  2007                     move.l     D0, D7
00006912  0640 010E                addi.w     D0, 0x10E
00006916  48C0                     ext.l      D0
00006918  81FC 0168                divs.w     D0, 0x168
0000691C  4840                     swap.w     D0
0000691E  C1FC 000C                muls.w     D0, 0xC
00006922  2040                     movea.l    A0, D0
00006924  D1FC FFFF 7E84           add.l      A0, 0xFFFF7E84
0000692A  43EE FFF4                lea.l      A1, [A6 - 0xC]
0000692E  22D8                     move.l     [A1]+, [A0]+
00006930  22D8                     move.l     [A1]+, [A0]+
00006932  22D8                     move.l     [A1]+, [A0]+
00006934  2007                     move.l     D0, D7
00006936  48C0                     ext.l      D0
00006938  81FC 0168                divs.w     D0, 0x168
0000693C  4840                     swap.w     D0
0000693E  C1FC 000C                muls.w     D0, 0xC
00006942  2040                     movea.l    A0, D0
00006944  D1FC FFFF 7E84           add.l      A0, 0xFFFF7E84
0000694A  43EE FF62                lea.l      A1, [A6 - 0x9E]
0000694E  5488                     addq.l     A0, 2
00006950  22D8                     move.l     [A1]+, [A0]+
00006952  22D8                     move.l     [A1]+, [A0]+
00006954  32D8                     move.w     [A1]+, [A0]+
00006956  4869 FFF6                pea.l      [A1 - 0xA]
0000695A  3F3C 000D                move.w     -[A7], 0xD /* '\r' */
0000695E  A9EB                     syscall    Pack4/FP68K
00006960  41EE FFF4                lea.l      A0, [A6 - 0xC]
00006964  2121                     move.l     -[A0], -[A1]
00006966  2121                     move.l     -[A0], -[A1]
00006968  3121                     move.w     -[A0], -[A1]
0000696A  3110                     move.w     -[A0], [A0]
0000696C  3E2C 0030                move.w     D7, [A4 + 0x30]
00006970  48C7                     ext.l      D7
00006972  3C2C 0032                move.w     D6, [A4 + 0x32]
00006976  48C6                     ext.l      D6
00006978  7600                     moveq.l    D3, 0x00
0000697A  41EE FF62                lea.l      A0, [A6 - 0x9E]
0000697E  43EE FFF6                lea.l      A1, [A6 - 0xA]
00006982  20D9                     move.l     [A0]+, [A1]+
00006984  20D9                     move.l     [A0]+, [A1]+
00006986  30D9                     move.w     [A0]+, [A1]+
00006988  486E FFEA                pea.l      [A6 - 0x16]
0000698C  4868 FFF6                pea.l      [A0 - 0xA]
00006990  4267                     clr.w      -[A7]
00006992  A9EB                     syscall    Pack4/FP68K
00006994  43EE FF7C                lea.l      A1, [A6 - 0x84]
00006998  2320                     move.l     -[A1], -[A0]
0000699A  2320                     move.l     -[A1], -[A0]
0000699C  3320                     move.w     -[A1], -[A0]
0000699E  3311                     move.w     -[A1], [A1]
000069A0  41EE FF7E                lea.l      A0, [A6 - 0x82]
000069A4  2D47 FF68                move.l     [A6 - 0x98], D7
000069A8  486E FF68                pea.l      [A6 - 0x98]
000069AC  4850                     pea.l      [A0]
000069AE  3F3C 280E                move.w     -[A7], 0x280E
000069B2  A9EB                     syscall    Pack4/FP68K
000069B4  3110                     move.w     -[A0], [A0]
000069B6  41EE FF8A                lea.l      A0, [A6 - 0x76]
000069BA  2D46 FF68                move.l     [A6 - 0x98], D6
000069BE  486E FF68                pea.l      [A6 - 0x98]
000069C2  4850                     pea.l      [A0]
000069C4  3F3C 280E                move.w     -[A7], 0x280E
000069C8  A9EB                     syscall    Pack4/FP68K
000069CA  3110                     move.w     -[A0], [A0]
000069CC  303C 03C2                move.w     D0, 0x3C2
000069D0  C1C3                     muls.w     D0, D3
000069D2  0680 FFFF 9442           addi.l     D0, 0xFFFF9442
000069D8  2640                     movea.l    A3, D0
000069DA  6000 0300                bra        +0x302 /* 00006CDC */
label000069DE:
000069DE  4A2B 0116                tst.b      [A3 + 0x116]
000069E2  6700 02F2                beq        +0x2F4 /* 00006CD6 */
000069E6  B654                     cmp.w      D3, [A4]
000069E8  6700 02EC                beq        +0x2EE /* 00006CD6 */
000069EC  3A2B 0030                move.w     D5, [A3 + 0x30]
000069F0  48C5                     ext.l      D5
000069F2  382B 0032                move.w     D4, [A3 + 0x32]
000069F6  48C4                     ext.l      D4
000069F8  2004                     move.l     D0, D4
000069FA  9086                     sub.l      D0, D6
000069FC  41EE FF62                lea.l      A0, [A6 - 0x9E]
00006A00  43EE FFEA                lea.l      A1, [A6 - 0x16]
00006A04  20D9                     move.l     [A0]+, [A1]+
00006A06  20D9                     move.l     [A0]+, [A1]+
00006A08  30D9                     move.w     [A0]+, [A1]+
00006A0A  2D40 FF5E                move.l     [A6 - 0xA2], D0
00006A0E  486E FF5E                pea.l      [A6 - 0xA2]
00006A12  4868 FFF6                pea.l      [A0 - 0xA]
00006A16  3F3C 2804                move.w     -[A7], 0x2804
00006A1A  A9EB                     syscall    Pack4/FP68K
00006A1C  2005                     move.l     D0, D5
00006A1E  9087                     sub.l      D0, D7
00006A20  43EE FF54                lea.l      A1, [A6 - 0xAC]
00006A24  45EE FFF6                lea.l      A2, [A6 - 0xA]
00006A28  22DA                     move.l     [A1]+, [A2]+
00006A2A  22DA                     move.l     [A1]+, [A2]+
00006A2C  32DA                     move.w     [A1]+, [A2]+
00006A2E  2D40 FF50                move.l     [A6 - 0xB0], D0
00006A32  486E FF50                pea.l      [A6 - 0xB0]
00006A36  4869 FFF6                pea.l      [A1 - 0xA]
00006A3A  3F3C 2804                move.w     -[A7], 0x2804
00006A3E  A9EB                     syscall    Pack4/FP68K
00006A40  45EE FF46                lea.l      A2, [A6 - 0xBA]
00006A44  43E9 FFF6                lea.l      A1, [A1 - 0xA]
00006A48  24D9                     move.l     [A2]+, [A1]+
00006A4A  24D9                     move.l     [A2]+, [A1]+
00006A4C  34D9                     move.w     [A2]+, [A1]+
00006A4E  4868 FFF6                pea.l      [A0 - 0xA]
00006A52  486A FFF6                pea.l      [A2 - 0xA]
00006A56  4267                     clr.w      -[A7]
00006A58  A9EB                     syscall    Pack4/FP68K
00006A5A  41EE FFE8                lea.l      A0, [A6 - 0x18]
00006A5E  2122                     move.l     -[A0], -[A2]
00006A60  2122                     move.l     -[A0], -[A2]
00006A62  3122                     move.w     -[A0], -[A2]
00006A64  3110                     move.w     -[A0], [A0]
00006A66  487A 02AE                pea.l      [PC + 0x2AE /* 00006D16, value 0x4E56 'NV', cstring "" */]
00006A6A  486E FFDE                pea.l      [A6 - 0x22]
00006A6E  3F3C 2008                move.w     -[A7], 0x2008
00006A72  A9EB                     syscall    Pack4/FP68K
00006A74  6F00 0260                ble        +0x262 /* 00006CD6 */
00006A78  41EE FF56                lea.l      A0, [A6 - 0xAA]
00006A7C  43EE FF72                lea.l      A1, [A6 - 0x8E]
00006A80  20D9                     move.l     [A0]+, [A1]+
00006A82  20D9                     move.l     [A0]+, [A1]+
00006A84  30D9                     move.w     [A0]+, [A1]+
00006A86  486E FFDE                pea.l      [A6 - 0x22]
00006A8A  4868 FFF6                pea.l      [A0 - 0xA]
00006A8E  3F3C 0004                move.w     -[A7], 0x4
00006A92  A9EB                     syscall    Pack4/FP68K
00006A94  43EE FF4C                lea.l      A1, [A6 - 0xB4]
00006A98  41E8 FFF6                lea.l      A0, [A0 - 0xA]
00006A9C  22D8                     move.l     [A1]+, [A0]+
00006A9E  22D8                     move.l     [A1]+, [A0]+
00006AA0  32D8                     move.w     [A1]+, [A0]+
00006AA2  486E FF7E                pea.l      [A6 - 0x82]
00006AA6  4869 FFF6                pea.l      [A1 - 0xA]
00006AAA  4267                     clr.w      -[A7]
00006AAC  A9EB                     syscall    Pack4/FP68K
00006AAE  41EE FF42                lea.l      A0, [A6 - 0xBE]
00006AB2  43E9 FFF6                lea.l      A1, [A1 - 0xA]
00006AB6  20D9                     move.l     [A0]+, [A1]+
00006AB8  20D9                     move.l     [A0]+, [A1]+
00006ABA  30D9                     move.w     [A0]+, [A1]+
00006ABC  486E FF8A                pea.l      [A6 - 0x76]
00006AC0  4868 FFF6                pea.l      [A0 - 0xA]
00006AC4  4267                     clr.w      -[A7]
00006AC6  A9EB                     syscall    Pack4/FP68K
00006AC8  43EE FF38                lea.l      A1, [A6 - 0xC8]
00006ACC  41E8 FFF6                lea.l      A0, [A0 - 0xA]
00006AD0  22D8                     move.l     [A1]+, [A0]+
00006AD2  22D8                     move.l     [A1]+, [A0]+
00006AD4  32D8                     move.w     [A1]+, [A0]+
00006AD6  2D45 FF34                move.l     [A6 - 0xCC], D5
00006ADA  486E FF34                pea.l      [A6 - 0xCC]
00006ADE  4869 FFF6                pea.l      [A1 - 0xA]
00006AE2  3F3C 2802                move.w     -[A7], 0x2802
00006AE6  A9EB                     syscall    Pack4/FP68K
00006AE8  41EE FF2A                lea.l      A0, [A6 - 0xD6]
00006AEC  43E9 FFF6                lea.l      A1, [A1 - 0xA]
00006AF0  20D9                     move.l     [A0]+, [A1]+
00006AF2  20D9                     move.l     [A0]+, [A1]+
00006AF4  30D9                     move.w     [A0]+, [A1]+
00006AF6  2D44 FF26                move.l     [A6 - 0xDA], D4
00006AFA  486E FF26                pea.l      [A6 - 0xDA]
00006AFE  4868 FFF6                pea.l      [A0 - 0xA]
00006B02  3F3C 2802                move.w     -[A7], 0x2802
00006B06  A9EB                     syscall    Pack4/FP68K
00006B08  3F20                     move.w     -[A7], -[A0]
00006B0A  2F20                     move.l     -[A7], -[A0]
00006B0C  2F20                     move.l     -[A7], -[A0]
00006B0E  3F17                     move.w     -[A7], [A7]
00006B10  486E FF60                pea.l      [A6 - 0xA0]
00006B14  4EAD 037A                jsr        [A5 + 0x37A /* export_107, CODE:7 @ 00003CA2 */]
00006B18  487A 01FA                pea.l      [PC + 0x1FA /* 00006D14, value 0x140000, cstring "" */]
00006B1C  486E FF62                pea.l      [A6 - 0x9E]
00006B20  3F3C 2008                move.w     -[A7], 0x2008
00006B24  A9EB                     syscall    Pack4/FP68K
00006B26  4FEF 0010                lea.l      A7, [A7 + 0x10]
00006B2A  6C00 01AA                bge        +0x1AC /* 00006CD6 */
00006B2E  41EE FF62                lea.l      A0, [A6 - 0x9E]
00006B32  43EE FFF6                lea.l      A1, [A6 - 0xA]
00006B36  20D9                     move.l     [A0]+, [A1]+
00006B38  20D9                     move.l     [A0]+, [A1]+
00006B3A  30D9                     move.w     [A0]+, [A1]+
00006B3C  486E FFDE                pea.l      [A6 - 0x22]
00006B40  4868 FFF6                pea.l      [A0 - 0xA]
00006B44  3F3C 0004                move.w     -[A7], 0x4
00006B48  A9EB                     syscall    Pack4/FP68K
00006B4A  43EE FFA0                lea.l      A1, [A6 - 0x60]
00006B4E  2320                     move.l     -[A1], -[A0]
00006B50  2320                     move.l     -[A1], -[A0]
00006B52  3320                     move.w     -[A1], -[A0]
00006B54  3311                     move.w     -[A1], [A1]
00006B56  41EE FFA2                lea.l      A0, [A6 - 0x5E]
00006B5A  2D45 FF68                move.l     [A6 - 0x98], D5
00006B5E  486E FF68                pea.l      [A6 - 0x98]
00006B62  4850                     pea.l      [A0]
00006B64  3F3C 280E                move.w     -[A7], 0x280E
00006B68  A9EB                     syscall    Pack4/FP68K
00006B6A  3110                     move.w     -[A0], [A0]
00006B6C  41EE FF62                lea.l      A0, [A6 - 0x9E]
00006B70  43EE FFEA                lea.l      A1, [A6 - 0x16]
00006B74  20D9                     move.l     [A0]+, [A1]+
00006B76  20D9                     move.l     [A0]+, [A1]+
00006B78  30D9                     move.w     [A0]+, [A1]+
00006B7A  486E FFDE                pea.l      [A6 - 0x22]
00006B7E  4868 FFF6                pea.l      [A0 - 0xA]
00006B82  3F3C 0004                move.w     -[A7], 0x4
00006B86  A9EB                     syscall    Pack4/FP68K
00006B88  43EE FFB8                lea.l      A1, [A6 - 0x48]
00006B8C  2320                     move.l     -[A1], -[A0]
00006B8E  2320                     move.l     -[A1], -[A0]
00006B90  3320                     move.w     -[A1], -[A0]
00006B92  3311                     move.w     -[A1], [A1]
00006B94  41EE FFBA                lea.l      A0, [A6 - 0x46]
00006B98  2D44 FF68                move.l     [A6 - 0x98], D4
00006B9C  486E FF68                pea.l      [A6 - 0x98]
00006BA0  4850                     pea.l      [A0]
00006BA2  3F3C 280E                move.w     -[A7], 0x280E
00006BA6  A9EB                     syscall    Pack4/FP68K
00006BA8  3110                     move.w     -[A0], [A0]
00006BAA  41EE FF62                lea.l      A0, [A6 - 0x9E]
00006BAE  43EE FF96                lea.l      A1, [A6 - 0x6A]
00006BB2  20D9                     move.l     [A0]+, [A1]+
00006BB4  20D9                     move.l     [A0]+, [A1]+
00006BB6  30D9                     move.w     [A0]+, [A1]+
00006BB8  486E FF7E                pea.l      [A6 - 0x82]
00006BBC  4868 FFF6                pea.l      [A0 - 0xA]
00006BC0  4267                     clr.w      -[A7]
00006BC2  A9EB                     syscall    Pack4/FP68K
00006BC4  43EE FF58                lea.l      A1, [A6 - 0xA8]
00006BC8  41E8 FFF6                lea.l      A0, [A0 - 0xA]
00006BCC  22D8                     move.l     [A1]+, [A0]+
00006BCE  22D8                     move.l     [A1]+, [A0]+
00006BD0  32D8                     move.w     [A1]+, [A0]+
00006BD2  486E FFA2                pea.l      [A6 - 0x5E]
00006BD6  4869 FFF6                pea.l      [A1 - 0xA]
00006BDA  3F3C 0002                move.w     -[A7], 0x2
00006BDE  A9EB                     syscall    Pack4/FP68K
00006BE0  41EE FFD0                lea.l      A0, [A6 - 0x30]
00006BE4  2121                     move.l     -[A0], -[A1]
00006BE6  2121                     move.l     -[A0], -[A1]
00006BE8  3121                     move.w     -[A0], -[A1]
00006BEA  3110                     move.w     -[A0], [A0]
00006BEC  41EE FF62                lea.l      A0, [A6 - 0x9E]
00006BF0  43EE FFAE                lea.l      A1, [A6 - 0x52]
00006BF4  20D9                     move.l     [A0]+, [A1]+
00006BF6  20D9                     move.l     [A0]+, [A1]+
00006BF8  30D9                     move.w     [A0]+, [A1]+
00006BFA  486E FF8A                pea.l      [A6 - 0x76]
00006BFE  4868 FFF6                pea.l      [A0 - 0xA]
00006C02  4267                     clr.w      -[A7]
00006C04  A9EB                     syscall    Pack4/FP68K
00006C06  43EE FF58                lea.l      A1, [A6 - 0xA8]
00006C0A  41E8 FFF6                lea.l      A0, [A0 - 0xA]
00006C0E  22D8                     move.l     [A1]+, [A0]+
00006C10  22D8                     move.l     [A1]+, [A0]+
00006C12  32D8                     move.w     [A1]+, [A0]+
00006C14  486E FFBA                pea.l      [A6 - 0x46]
00006C18  4869 FFF6                pea.l      [A1 - 0xA]
00006C1C  3F3C 0002                move.w     -[A7], 0x2
00006C20  A9EB                     syscall    Pack4/FP68K
00006C22  41EE FFDC                lea.l      A0, [A6 - 0x24]
00006C26  2121                     move.l     -[A0], -[A1]
00006C28  2121                     move.l     -[A0], -[A1]
00006C2A  3121                     move.w     -[A0], -[A1]
00006C2C  3110                     move.w     -[A0], [A0]
00006C2E  41EE FF62                lea.l      A0, [A6 - 0x9E]
00006C32  43EE FFD2                lea.l      A1, [A6 - 0x2E]
00006C36  20D9                     move.l     [A0]+, [A1]+
00006C38  20D9                     move.l     [A0]+, [A1]+
00006C3A  30D9                     move.w     [A0]+, [A1]+
00006C3C  486E FFD2                pea.l      [A6 - 0x2E]
00006C40  4868 FFF6                pea.l      [A0 - 0xA]
00006C44  3F3C 0004                move.w     -[A7], 0x4
00006C48  A9EB                     syscall    Pack4/FP68K
00006C4A  43EE FF58                lea.l      A1, [A6 - 0xA8]
00006C4E  45EE FFC6                lea.l      A2, [A6 - 0x3A]
00006C52  22DA                     move.l     [A1]+, [A2]+
00006C54  22DA                     move.l     [A1]+, [A2]+
00006C56  32DA                     move.w     [A1]+, [A2]+
00006C58  486E FFC6                pea.l      [A6 - 0x3A]
00006C5C  4869 FFF6                pea.l      [A1 - 0xA]
00006C60  3F3C 0004                move.w     -[A7], 0x4
00006C64  A9EB                     syscall    Pack4/FP68K
00006C66  45EE FF4E                lea.l      A2, [A6 - 0xB2]
00006C6A  43E9 FFF6                lea.l      A1, [A1 - 0xA]
00006C6E  24D9                     move.l     [A2]+, [A1]+
00006C70  24D9                     move.l     [A2]+, [A1]+
00006C72  34D9                     move.w     [A2]+, [A1]+
00006C74  4868 FFF6                pea.l      [A0 - 0xA]
00006C78  486A FFF6                pea.l      [A2 - 0xA]
00006C7C  4267                     clr.w      -[A7]
00006C7E  A9EB                     syscall    Pack4/FP68K
00006C80  487A 0090                pea.l      [PC + 0x90 /* 00006D12, value 0x5B0014, cstring "" */]
00006C84  486A FFF6                pea.l      [A2 - 0xA]
00006C88  3F3C 2008                move.w     -[A7], 0x2008
00006C8C  A9EB                     syscall    Pack4/FP68K
00006C8E  6C46                     bge        +0x48 /* 00006CD6 */
00006C90  4A6E FF6C                tst.w      [A6 - 0x94]
00006C94  6710                     beq        +0x12 /* 00006CA6 */
00006C96  486E FF6C                pea.l      [A6 - 0x94]
00006C9A  486E FFDE                pea.l      [A6 - 0x22]
00006C9E  3F3C 2008                move.w     -[A7], 0x2008
00006CA2  A9EB                     syscall    Pack4/FP68K
00006CA4  6C30                     bge        +0x32 /* 00006CD6 */
label00006CA6:
00006CA6  41EE FF60                lea.l      A0, [A6 - 0xA0]
00006CAA  43EE FFDE                lea.l      A1, [A6 - 0x22]
00006CAE  20D9                     move.l     [A0]+, [A1]+
00006CB0  20D9                     move.l     [A0]+, [A1]+
00006CB2  30D9                     move.w     [A0]+, [A1]+
00006CB4  4868 FFF6                pea.l      [A0 - 0xA]
00006CB8  3F3C 0016                move.w     -[A7], 0x16
00006CBC  A9EB                     syscall    Pack4/FP68K
00006CBE  4868 FFF6                pea.l      [A0 - 0xA]
00006CC2  486E FF6A                pea.l      [A6 - 0x96]
00006CC6  3F3C 2010                move.w     -[A7], 0x2010
00006CCA  A9EB                     syscall    Pack4/FP68K
00006CCC  3D6E FF6A FF6C           move.w     [A6 - 0x94], [A6 - 0x96]
00006CD2  3D43 FF6E                move.w     [A6 - 0x92], D3
label00006CD6:
00006CD6  5243                     addq.w     D3, 1
00006CD8  47EB 03C2                lea.l      A3, [A3 + 0x3C2]
label00006CDC:
00006CDC  B679 FFFF 9226           cmp.w      D3, [0xFFFF9226]
00006CE2  6D00 FCFA                blt        -0x304 /* 000069DE */
00006CE6  3E2C 034C                move.w     D7, [A4 + 0x34C]
00006CEA  4A47                     tst.w      D7
00006CEC  6718                     beq        +0x1A /* 00006D06 */
00006CEE  303C 03C2                move.w     D0, 0x3C2
00006CF2  C1EE FF6E                muls.w     D0, [A6 - 0x92]
00006CF6  2040                     movea.l    A0, D0
00006CF8  D1FC FFFF 978E           add.l      A0, 0xFFFF978E
00006CFE  BE50                     cmp.w      D7, [A0]
00006D00  6604                     bne        +0x6 /* 00006D06 */
00006D02  426E FF6C                clr.w      [A6 - 0x94]
label00006D06:
00006D06  302E FF6C                move.w     D0, [A6 - 0x94]
00006D0A  4CDF 1CF8                movem.l    D3,D4,D5,D6,D7,A2,A3,A4, [A7]+
00006D0E  4E5E                     unlink     A6
00006D10  4E75                     rts
00006D12  005B 0014                ori.w      [A3]+, 0x14
00006D16  0000 4E56                ori.b      D0, 0x56 /* 'V' */
// begin alternate branch 00006D18-00006D1C
export_33:
00006D18  4E56 FF9C                link       A6, -0x0064
// end alternate branch 00006D18-00006D1C
export_33: // at 00006D18 (misaligned)
00006D1A  FF9C                     .invalid   <<F/6/7>>
00006D1C  48E7 1F18                movem.l    -[A7], D3,D4,D5,D6,D7,A3,A4
00006D20  F227 E0F0                .fmovem    0xF227, 0xE0F0 // unimplemented
00006D24  286E 0008                movea.l    A4, [A6 + 0x8]
00006D28  426E FFFC                clr.w      [A6 - 0x4]
00006D2C  3D7C 0006 FFFE           move.w     [A6 - 0x2], 0x6
00006D32  3E2C 010C                move.w     D7, [A4 + 0x10C]
00006D36  DE6C 0102                add.w      D7, [A4 + 0x102]
00006D3A  2007                     move.l     D0, D7
00006D3C  0640 010E                addi.w     D0, 0x10E
00006D40  48C0                     ext.l      D0
00006D42  81FC 0168                divs.w     D0, 0x168
00006D46  4840                     swap.w     D0
00006D48  C1FC 000C                muls.w     D0, 0xC
00006D4C  2040                     movea.l    A0, D0
00006D4E  D1FC FFFF 7E84           add.l      A0, 0xFFFF7E84
00006D54  F210 4B80                fmove      fp7, (extended) [A0]
00006D58  2007                     move.l     D0, D7
00006D5A  48C0                     ext.l      D0
00006D5C  81FC 0168                divs.w     D0, 0x168
00006D60  4840                     swap.w     D0
00006D62  C1FC 000C                muls.w     D0, 0xC
00006D66  2040                     movea.l    A0, D0
00006D68  D1FC FFFF 7E84           add.l      A0, 0xFFFF7E84
00006D6E  F210 4B1A                fneg       fp6, (extended) [A0]
00006D72  3E2C 0030                move.w     D7, [A4 + 0x30]
00006D76  48C7                     ext.l      D7
00006D78  3C2C 0032                move.w     D6, [A4 + 0x32]
00006D7C  48C6                     ext.l      D6
00006D7E  7600                     moveq.l    D3, 0x00
00006D80  F200 1C00                .fmovecr   0xF200, 0x1C00 // unimplemented
00006D84  F200 1822                fadd       fp0, fp6
00006D88  41EE FFF0                lea.l      A0, [A6 - 0x10]
00006D8C  F210 6800                fmove      (extended) [A0], fp0
00006D90  3098                     move.w     [A0], [A0]+
00006D92  41EE FFE4                lea.l      A0, [A6 - 0x1C]
00006D96  F207 4000                fmove      fp0, (int32_t) D7
00006D9A  F210 6800                fmove      (extended) [A0], fp0
00006D9E  3098                     move.w     [A0], [A0]+
00006DA0  41EE FFD8                lea.l      A0, [A6 - 0x28]
00006DA4  F206 4000                fmove      fp0, (int32_t) D6
00006DA8  F210 6800                fmove      (extended) [A0], fp0
00006DAC  3098                     move.w     [A0], [A0]+
00006DAE  303C 03C2                move.w     D0, 0x3C2
00006DB2  C1C3                     muls.w     D0, D3
00006DB4  0680 FFFF 9442           addi.l     D0, 0xFFFF9442
00006DBA  2640                     movea.l    A3, D0
00006DBC  6000 012C                bra        +0x12E /* 00006EEA */
label00006DC0:
00006DC0  4A2B 0116                tst.b      [A3 + 0x116]
00006DC4  6700 011E                beq        +0x120 /* 00006EE4 */
00006DC8  B654                     cmp.w      D3, [A4]
00006DCA  6700 0118                beq        +0x11A /* 00006EE4 */
00006DCE  3A2B 0030                move.w     D5, [A3 + 0x30]
00006DD2  48C5                     ext.l      D5
00006DD4  382B 0032                move.w     D4, [A3 + 0x32]
00006DD8  48C4                     ext.l      D4
00006DDA  2004                     move.l     D0, D4
00006DDC  9086                     sub.l      D0, D6
00006DDE  F200 1800                fmove      fp0, fp6
00006DE2  F200 4023                fmul       fp0, (int32_t) D0
00006DE6  2005                     move.l     D0, D5
00006DE8  9087                     sub.l      D0, D7
00006DEA  F200 1E00                .fmovecr   0xF200, 0x1E00 // unimplemented
00006DEE  F200 4223                fmul       fp4, (int32_t) D0
00006DF2  F200 0222                fadd       fp4, fp0
00006DF6  F200 103A                ftst       fp0, fp4
00006DFA  F29D 00E8                .extension 0x29D <<F/2-3/1>> // unimplemented
00006DFE  F22E 4800 FFF0           fmove      fp0, (extended) [A6 - 0x10]
00006E04  F200 1023                fmul       fp0, fp4
00006E08  F22E 4822 FFE4           fadd       fp0, (extended) [A6 - 0x1C]
00006E0E  F22E 4822 FFD8           fadd       fp0, (extended) [A6 - 0x28]
00006E14  F205 4028                fsub       fp0, (int32_t) D5
00006E18  F204 4028                fsub       fp0, (int32_t) D4
00006E1C  F227 6800                fmove      (extended) -[A7], fp0
00006E20  3F57 0002                move.w     [A7 + 0x2], [A7]
00006E24  486E FF9C                pea.l      [A6 - 0x64]
00006E28  4EAD 037A                jsr        [A5 + 0x37A /* export_107, CODE:7 @ 00003CA2 */]
00006E2C  F23C 5000 0014           fmove      fp0, (int16_t) 0x14
00006E32  F22E 4838 FF9C           fcmp       fp0, (extended) [A6 - 0x64]
00006E38  4FEF 0010                lea.l      A7, [A7 + 0x10]
00006E3C  F29D 00A6                .extension 0x29D <<F/2-3/1>> // unimplemented
00006E40  F200 1E80                .fmovecr   0xF200, 0x1E80 // unimplemented
00006E44  F200 12A3                fmul       fp5, fp4
00006E48  41EE FFCC                lea.l      A0, [A6 - 0x34]
00006E4C  F205 4000                fmove      fp0, (int32_t) D5
00006E50  F210 6800                fmove      (extended) [A0], fp0
00006E54  3098                     move.w     [A0], [A0]+
00006E56  F200 1800                fmove      fp0, fp6
00006E5A  F200 1023                fmul       fp0, fp4
00006E5E  41EE FFC0                lea.l      A0, [A6 - 0x40]
00006E62  F210 6800                fmove      (extended) [A0], fp0
00006E66  3098                     move.w     [A0], [A0]+
00006E68  41EE FFB4                lea.l      A0, [A6 - 0x4C]
00006E6C  F204 4000                fmove      fp0, (int32_t) D4
00006E70  F210 6800                fmove      (extended) [A0], fp0
00006E74  3098                     move.w     [A0], [A0]+
00006E76  F200 1400                fmove      fp0, fp5
00006E7A  F22E 4822 FFE4           fadd       fp0, (extended) [A6 - 0x1C]
00006E80  F22E 4828 FFCC           fsub       fp0, (extended) [A6 - 0x34]
00006E86  41EE FFA8                lea.l      A0, [A6 - 0x58]
00006E8A  F210 6800                fmove      (extended) [A0], fp0
00006E8E  3098                     move.w     [A0], [A0]+
00006E90  F22E 4A80 FFC0           fmove      fp5, (extended) [A6 - 0x40]
00006E96  F22E 4AA2 FFD8           fadd       fp5, (extended) [A6 - 0x28]
00006E9C  F22E 4AA8 FFB4           fsub       fp5, (extended) [A6 - 0x4C]
00006EA2  F200 1400                fmove      fp0, fp5
00006EA6  F200 1423                fmul       fp0, fp5
00006EAA  F22E 4880 FFA8           fmove      fp1, (extended) [A6 - 0x58]
00006EB0  F22E 48A3 FFA8           fmul       fp1, (extended) [A6 - 0x58]
00006EB6  F200 00A2                fadd       fp1, fp0
00006EBA  F23C 50B8 005B           fcmp       fp1, (int16_t) 0x5B /* '[' */
00006EC0  F29B 0022                .extension 0x29B <<F/2-3/1>> // unimplemented
00006EC4  4A6E FFFC                tst.w      [A6 - 0x4]
00006EC8  670A                     beq        +0xC /* 00006ED4 */
00006ECA  F22E 5238 FFFC           fcmp       fp4, (int16_t) [A6 - 0x4]
00006ED0  F29B 0012                .extension 0x29B <<F/2-3/1>> // unimplemented
label00006ED4:
00006ED4  F200 1003                fintrz     fp0, fp4
00006ED8  F200 7000                fmove      (int16_t) D0, fp0
00006EDC  3D40 FFFC                move.w     [A6 - 0x4], D0
00006EE0  3D43 FFFE                move.w     [A6 - 0x2], D3
label00006EE4:
00006EE4  5243                     addq.w     D3, 1
00006EE6  47EB 03C2                lea.l      A3, [A3 + 0x3C2]
label00006EEA:
00006EEA  B679 FFFF 9226           cmp.w      D3, [0xFFFF9226]
00006EF0  6D00 FECE                blt        -0x130 /* 00006DC0 */
00006EF4  3E2C 034C                move.w     D7, [A4 + 0x34C]
00006EF8  4A47                     tst.w      D7
00006EFA  6718                     beq        +0x1A /* 00006F14 */
00006EFC  303C 03C2                move.w     D0, 0x3C2
00006F00  C1EE FFFE                muls.w     D0, [A6 - 0x2]
00006F04  2040                     movea.l    A0, D0
00006F06  D1FC FFFF 978E           add.l      A0, 0xFFFF978E
00006F0C  BE50                     cmp.w      D7, [A0]
00006F0E  6604                     bne        +0x6 /* 00006F14 */
00006F10  426E FFFC                clr.w      [A6 - 0x4]
label00006F14:
00006F14  302E FFFC                move.w     D0, [A6 - 0x4]
00006F18  F21F D00F                .fmovem    0xF21F, 0xD00F // unimplemented
00006F1C  4CDF 18F8                movem.l    D3,D4,D5,D6,D7,A3,A4, [A7]+
00006F20  4E5E                     unlink     A6
00006F22  4E75                     rts
export_34:
00006F24  4E56 FFDE                link       A6, -0x0022
00006F28  48E7 1F38                movem.l    -[A7], D3,D4,D5,D6,D7,A2,A3,A4
00006F2C  246E 0008                movea.l    A2, [A6 + 0x8]
00006F30  263C 000F 4240           move.l     D3, 0xF4240
00006F36  2879 FFFF AACE           movea.l    A4, [0xFFFFAACE]
00006F3C  47EA 0002                lea.l      A3, [A2 + 0x2]
00006F40  3E2B 002E                move.w     D7, [A3 + 0x2E]
00006F44  3C2B 0030                move.w     D6, [A3 + 0x30]
00006F48  3A2A 010E                move.w     D5, [A2 + 0x10E]
00006F4C  DA6A 0102                add.w      D5, [A2 + 0x102]
00006F50  48C5                     ext.l      D5
00006F52  8BFC 0168                divs.w     D5, 0x168
00006F56  4845                     swap.w     D5
00006F58  6000 00EE                bra        +0xF0 /* 00007048 */
label00006F5C:
00006F5C  0C2C 000A 0034           cmpi.b     [A4 + 0x34], 0xA /* '\n' */
00006F62  6700 00E0                beq        +0xE2 /* 00007044 */
00006F66  302C 0018                move.w     D0, [A4 + 0x18]
00006F6A  9047                     sub.w      D0, D7
00006F6C  4FEF FFF6                lea.l      A7, [A7 - 0xA]
00006F70  3D40 FFEC                move.w     [A6 - 0x14], D0
00006F74  486E FFEC                pea.l      [A6 - 0x14]
00006F78  486F 0004                pea.l      [A7 + 0x4]
00006F7C  3F3C 200E                move.w     -[A7], 0x200E
00006F80  A9EB                     syscall    Pack4/FP68K
00006F82  3F17                     move.w     -[A7], [A7]
00006F84  3006                     move.w     D0, D6
00006F86  906C 001A                sub.w      D0, [A4 + 0x1A]
00006F8A  4FEF FFF6                lea.l      A7, [A7 - 0xA]
00006F8E  3D40 FFEA                move.w     [A6 - 0x16], D0
00006F92  486E FFEA                pea.l      [A6 - 0x16]
00006F96  486F 0004                pea.l      [A7 + 0x4]
00006F9A  3F3C 200E                move.w     -[A7], 0x200E
00006F9E  A9EB                     syscall    Pack4/FP68K
00006FA0  3F17                     move.w     -[A7], [A7]
00006FA2  486E FFEE                pea.l      [A6 - 0x12]
00006FA6  4EAD 0392                jsr        [A5 + 0x392 /* export_110, CODE:7 @ 000033E0 */]
00006FAA  487A 00FA                pea.l      [PC + 0xFA /* 000070A6, value 0x4004E52E */]
00006FAE  486E FFF0                pea.l      [A6 - 0x10]
00006FB2  3F3C 0004                move.w     -[A7], 0x4
00006FB6  A9EB                     syscall    Pack4/FP68K
00006FB8  487A 00EA                pea.l      [PC + 0xEA /* 000070A4, value 0x1C24004 */]
00006FBC  486E FFE0                pea.l      [A6 - 0x20]
00006FC0  3F3C 200E                move.w     -[A7], 0x200E
00006FC4  A9EB                     syscall    Pack4/FP68K
00006FC6  486E FFF0                pea.l      [A6 - 0x10]
00006FCA  486E FFE0                pea.l      [A6 - 0x20]
00006FCE  3F3C 0002                move.w     -[A7], 0x2
00006FD2  A9EB                     syscall    Pack4/FP68K
00006FD4  486E FFE0                pea.l      [A6 - 0x20]
00006FD8  3F3C 0016                move.w     -[A7], 0x16
00006FDC  A9EB                     syscall    Pack4/FP68K
00006FDE  486E FFE0                pea.l      [A6 - 0x20]
00006FE2  486E FFDE                pea.l      [A6 - 0x22]
00006FE6  3F3C 2010                move.w     -[A7], 0x2010
00006FEA  A9EB                     syscall    Pack4/FP68K
00006FEC  382E FFDE                move.w     D4, [A6 - 0x22]
00006FF0  48C4                     ext.l      D4
00006FF2  89FC 0168                divs.w     D4, 0x168
00006FF6  4844                     swap.w     D4
00006FF8  3004                     move.w     D0, D4
00006FFA  9045                     sub.w      D0, D5
00006FFC  3E80                     move.w     [A7], D0
00006FFE  4EAD 048A                jsr        [A5 + 0x48A /* export_141, CODE:7 @ 0000028C */]
00007002  0C40 0014                cmpi.w     D0, 0x14
00007006  4FEF 001C                lea.l      A7, [A7 + 0x1C]
0000700A  6D12                     blt        +0x14 /* 0000701E */
0000700C  3004                     move.w     D0, D4
0000700E  9045                     sub.w      D0, D5
00007010  3F00                     move.w     -[A7], D0
00007012  4EAD 048A                jsr        [A5 + 0x48A /* export_141, CODE:7 @ 0000028C */]
00007016  0C40 0154                cmpi.w     D0, 0x154
0000701A  548F                     addq.l     A7, 2
0000701C  6F26                     ble        +0x28 /* 00007044 */
label0000701E:
0000701E  3806                     move.w     D4, D6
00007020  986C 001A                sub.w      D4, [A4 + 0x1A]
00007024  3007                     move.w     D0, D7
00007026  906C 0018                sub.w      D0, [A4 + 0x18]
0000702A  3D40 FFFE                move.w     [A6 - 0x2], D0
0000702E  3204                     move.w     D1, D4
00007030  C3C4                     muls.w     D1, D4
00007032  3400                     move.w     D2, D0
00007034  C5C0                     muls.w     D2, D0
00007036  D282                     add.l      D1, D2
00007038  2D41 FFFA                move.l     [A6 - 0x6], D1
0000703C  B681                     cmp.l      D3, D1
0000703E  6F04                     ble        +0x6 /* 00007044 */
00007040  262E FFFA                move.l     D3, [A6 - 0x6]
label00007044:
00007044  286C 0038                movea.l    A4, [A4 + 0x38]
label00007048:
00007048  200C                     move.l     D0, A4
0000704A  6600 FF10                bne        -0xEE /* 00006F5C */
0000704E  0C83 000F 4240           cmpi.l     D3, 0xF4240
00007054  6604                     bne        +0x6 /* 0000705A */
00007056  7E00                     moveq.l    D7, 0x00
00007058  6040                     bra        +0x42 /* 0000709A */
label0000705A:
0000705A  4FEF FFF6                lea.l      A7, [A7 - 0xA]
0000705E  2D43 FFEA                move.l     [A6 - 0x16], D3
00007062  486E FFEA                pea.l      [A6 - 0x16]
00007066  486F 0004                pea.l      [A7 + 0x4]
0000706A  3F3C 280E                move.w     -[A7], 0x280E
0000706E  A9EB                     syscall    Pack4/FP68K
00007070  3F17                     move.w     -[A7], [A7]
00007072  486E FFEE                pea.l      [A6 - 0x12]
00007076  4EAD 038A                jsr        [A5 + 0x38A /* export_109, CODE:7 @ 00003BF8 */]
0000707A  486E FFF0                pea.l      [A6 - 0x10]
0000707E  3F3C 0016                move.w     -[A7], 0x16
00007082  A9EB                     syscall    Pack4/FP68K
00007084  486E FFF0                pea.l      [A6 - 0x10]
00007088  486E FFE6                pea.l      [A6 - 0x1A]
0000708C  3F3C 2810                move.w     -[A7], 0x2810
00007090  A9EB                     syscall    Pack4/FP68K
00007092  2E2E FFE6                move.l     D7, [A6 - 0x1A]
00007096  4FEF 0010                lea.l      A7, [A7 + 0x10]
label0000709A:
0000709A  3007                     move.w     D0, D7
0000709C  4CDF 1CF8                movem.l    D3,D4,D5,D6,D7,A2,A3,A4, [A7]+
000070A0  4E5E                     unlink     A6
000070A2  4E75                     rts
000070A4  01C2                     .incomplete
000070A6  4004                     negx.b     D4
000070A8  E52E                     lsl        D6.b, D2
000070AA  E0D3                     asr   .w   [A3]
000070AC  1E5D                     movea.b    A7, [A5]+
000070AE  7EAF                     moveq.l    D7, 0xFFFFFFAF
export_35:
000070B0  4E56 FFEE                link       A6, -0x0012
000070B4  48E7 1F38                movem.l    -[A7], D3,D4,D5,D6,D7,A2,A3,A4
000070B8  246E 0008                movea.l    A2, [A6 + 0x8]
000070BC  263C 000F 4240           move.l     D3, 0xF4240
000070C2  2879 FFFF AACE           movea.l    A4, [0xFFFFAACE]
000070C8  47EA 0002                lea.l      A3, [A2 + 0x2]
000070CC  3E2B 002E                move.w     D7, [A3 + 0x2E]
000070D0  3C2B 0030                move.w     D6, [A3 + 0x30]
000070D4  3A2A 010E                move.w     D5, [A2 + 0x10E]
000070D8  DA6A 0102                add.w      D5, [A2 + 0x102]
000070DC  48C5                     ext.l      D5
000070DE  8BFC 0168                divs.w     D5, 0x168
000070E2  4845                     swap.w     D5
000070E4  6000 00B8                bra        +0xBA /* 0000719E */
label000070E8:
000070E8  0C2C 000A 0034           cmpi.b     [A4 + 0x34], 0xA /* '\n' */
000070EE  6700 00AA                beq        +0xAC /* 0000719A */
000070F2  302C 0018                move.w     D0, [A4 + 0x18]
000070F6  9047                     sub.w      D0, D7
000070F8  F200 5000                fmove      fp0, (int16_t) D0
000070FC  F227 6800                fmove      (extended) -[A7], fp0
00007100  3F57 0002                move.w     [A7 + 0x2], [A7]
00007104  3006                     move.w     D0, D6
00007106  906C 001A                sub.w      D0, [A4 + 0x1A]
0000710A  F200 5000                fmove      fp0, (int16_t) D0
0000710E  F227 6800                fmove      (extended) -[A7], fp0
00007112  3F57 0002                move.w     [A7 + 0x2], [A7]
00007116  486E FFEE                pea.l      [A6 - 0x12]
0000711A  4EAD 0392                jsr        [A5 + 0x392 /* export_110, CODE:7 @ 000033E0 */]
0000711E  F22E 4800 FFEE           fmove      fp0, (extended) [A6 - 0x12]
00007124  F23C 4823 4004 0000 E... fmul       fp0, (extended) (extended)0x40040000E52EE0D31E5D7EAF
00007134  F23C 5080 01C2           fmove      fp1, (int16_t) 0x1C2
0000713A  F200 00A8                fsub       fp1, fp0
0000713E  F200 0483                fintrz     fp1, fp1
00007142  F204 7080                fmove      (int16_t) D4, fp1
00007146  48C4                     ext.l      D4
00007148  89FC 0168                divs.w     D4, 0x168
0000714C  4844                     swap.w     D4
0000714E  3004                     move.w     D0, D4
00007150  9045                     sub.w      D0, D5
00007152  3E80                     move.w     [A7], D0
00007154  4EAD 048A                jsr        [A5 + 0x48A /* export_141, CODE:7 @ 0000028C */]
00007158  0C40 0014                cmpi.w     D0, 0x14
0000715C  4FEF 001C                lea.l      A7, [A7 + 0x1C]
00007160  6D12                     blt        +0x14 /* 00007174 */
00007162  3004                     move.w     D0, D4
00007164  9045                     sub.w      D0, D5
00007166  3F00                     move.w     -[A7], D0
00007168  4EAD 048A                jsr        [A5 + 0x48A /* export_141, CODE:7 @ 0000028C */]
0000716C  0C40 0154                cmpi.w     D0, 0x154
00007170  548F                     addq.l     A7, 2
00007172  6F26                     ble        +0x28 /* 0000719A */
label00007174:
00007174  3806                     move.w     D4, D6
00007176  986C 001A                sub.w      D4, [A4 + 0x1A]
0000717A  3007                     move.w     D0, D7
0000717C  906C 0018                sub.w      D0, [A4 + 0x18]
00007180  3D40 FFFE                move.w     [A6 - 0x2], D0
00007184  3204                     move.w     D1, D4
00007186  C3C4                     muls.w     D1, D4
00007188  3400                     move.w     D2, D0
0000718A  C5C0                     muls.w     D2, D0
0000718C  D282                     add.l      D1, D2
0000718E  2D41 FFFA                move.l     [A6 - 0x6], D1
00007192  B681                     cmp.l      D3, D1
00007194  6F04                     ble        +0x6 /* 0000719A */
00007196  262E FFFA                move.l     D3, [A6 - 0x6]
label0000719A:
0000719A  286C 0038                movea.l    A4, [A4 + 0x38]
label0000719E:
0000719E  200C                     move.l     D0, A4
000071A0  6600 FF46                bne        -0xB8 /* 000070E8 */
000071A4  0C83 000F 4240           cmpi.l     D3, 0xF4240
000071AA  6604                     bne        +0x6 /* 000071B0 */
000071AC  7E00                     moveq.l    D7, 0x00
000071AE  6022                     bra        +0x24 /* 000071D2 */
label000071B0:
000071B0  F203 4000                fmove      fp0, (int32_t) D3
000071B4  F227 6800                fmove      (extended) -[A7], fp0
000071B8  3F57 0002                move.w     [A7 + 0x2], [A7]
000071BC  486E FFEE                pea.l      [A6 - 0x12]
000071C0  4EAD 038A                jsr        [A5 + 0x38A /* export_109, CODE:7 @ 00003BF8 */]
000071C4  F22E 4803 FFEE           fintrz     fp0, (extended) [A6 - 0x12]
000071CA  F207 6000                fmove      (int32_t) D7, fp0
000071CE  4FEF 0010                lea.l      A7, [A7 + 0x10]
label000071D2:
000071D2  3007                     move.w     D0, D7
000071D4  4CDF 1CF8                movem.l    D3,D4,D5,D6,D7,A2,A3,A4, [A7]+
000071D8  4E5E                     unlink     A6
000071DA  4E75                     rts
fn000071DC:
000071DC  4E56 FF0C                link       A6, -0x00F4
000071E0  48E7 1F38                movem.l    -[A7], D3,D4,D5,D6,D7,A2,A3,A4
000071E4  426E FFCA                clr.w      [A6 - 0x36]
000071E8  7606                     moveq.l    D3, 0x06
000071EA  2079 FFFF AEB4           movea.l    A0, [0xFFFFAEB4]
000071F0  3E28 010C                move.w     D7, [A0 + 0x10C]
000071F4  DE68 0102                add.w      D7, [A0 + 0x102]
000071F8  2007                     move.l     D0, D7
000071FA  0640 010E                addi.w     D0, 0x10E
000071FE  48C0                     ext.l      D0
00007200  81FC 0168                divs.w     D0, 0x168
00007204  4840                     swap.w     D0
00007206  C1FC 000C                muls.w     D0, 0xC
0000720A  2240                     movea.l    A1, D0
0000720C  D3FC FFFF 7E84           add.l      A1, 0xFFFF7E84
00007212  41EE FFF4                lea.l      A0, [A6 - 0xC]
00007216  20D9                     move.l     [A0]+, [A1]+
00007218  20D9                     move.l     [A0]+, [A1]+
0000721A  20D9                     move.l     [A0]+, [A1]+
0000721C  2007                     move.l     D0, D7
0000721E  48C0                     ext.l      D0
00007220  81FC 0168                divs.w     D0, 0x168
00007224  4840                     swap.w     D0
00007226  C1FC 000C                muls.w     D0, 0xC
0000722A  2040                     movea.l    A0, D0
0000722C  D1FC FFFF 7E84           add.l      A0, 0xFFFF7E84
00007232  43EE FFB8                lea.l      A1, [A6 - 0x48]
00007236  5488                     addq.l     A0, 2
00007238  22D8                     move.l     [A1]+, [A0]+
0000723A  22D8                     move.l     [A1]+, [A0]+
0000723C  32D8                     move.w     [A1]+, [A0]+
0000723E  4869 FFF6                pea.l      [A1 - 0xA]
00007242  3F3C 000D                move.w     -[A7], 0xD /* '\r' */
00007246  A9EB                     syscall    Pack4/FP68K
00007248  41EE FFF4                lea.l      A0, [A6 - 0xC]
0000724C  2121                     move.l     -[A0], -[A1]
0000724E  2121                     move.l     -[A0], -[A1]
00007250  3121                     move.w     -[A0], -[A1]
00007252  3110                     move.w     -[A0], [A0]
00007254  2079 FFFF AEB4           movea.l    A0, [0xFFFFAEB4]
0000725A  3E28 0030                move.w     D7, [A0 + 0x30]
0000725E  48C7                     ext.l      D7
00007260  3C28 0032                move.w     D6, [A0 + 0x32]
00007264  48C6                     ext.l      D6
00007266  426E FFC8                clr.w      [A6 - 0x38]
0000726A  43EE FFB8                lea.l      A1, [A6 - 0x48]
0000726E  41EE FFEA                lea.l      A0, [A6 - 0x16]
00007272  22D8                     move.l     [A1]+, [A0]+
00007274  22D8                     move.l     [A1]+, [A0]+
00007276  32D8                     move.w     [A1]+, [A0]+
00007278  486E FFEA                pea.l      [A6 - 0x16]
0000727C  4869 FFF6                pea.l      [A1 - 0xA]
00007280  3F3C 0004                move.w     -[A7], 0x4
00007284  A9EB                     syscall    Pack4/FP68K
00007286  41EE FFAE                lea.l      A0, [A6 - 0x52]
0000728A  45EE FFF6                lea.l      A2, [A6 - 0xA]
0000728E  20DA                     move.l     [A0]+, [A2]+
00007290  20DA                     move.l     [A0]+, [A2]+
00007292  30DA                     move.w     [A0]+, [A2]+
00007294  486E FFF6                pea.l      [A6 - 0xA]
00007298  4868 FFF6                pea.l      [A0 - 0xA]
0000729C  3F3C 0004                move.w     -[A7], 0x4
000072A0  A9EB                     syscall    Pack4/FP68K
000072A2  45EE FFA4                lea.l      A2, [A6 - 0x5C]
000072A6  41E8 FFF6                lea.l      A0, [A0 - 0xA]
000072AA  24D8                     move.l     [A2]+, [A0]+
000072AC  24D8                     move.l     [A2]+, [A0]+
000072AE  34D8                     move.w     [A2]+, [A0]+
000072B0  4869 FFF6                pea.l      [A1 - 0xA]
000072B4  486A FFF6                pea.l      [A2 - 0xA]
000072B8  4267                     clr.w      -[A7]
000072BA  A9EB                     syscall    Pack4/FP68K
000072BC  41EE FFD8                lea.l      A0, [A6 - 0x28]
000072C0  2122                     move.l     -[A0], -[A2]
000072C2  2122                     move.l     -[A0], -[A2]
000072C4  3122                     move.w     -[A0], -[A2]
000072C6  3110                     move.w     -[A0], [A0]
000072C8  303C 03C2                move.w     D0, 0x3C2
000072CC  C1EE FFC8                muls.w     D0, [A6 - 0x38]
000072D0  0680 FFFF 9442           addi.l     D0, 0xFFFF9442
000072D6  2840                     movea.l    A4, D0
000072D8  6000 059C                bra        +0x59E /* 00007876 */
label000072DC:
000072DC  4A2C 0116                tst.b      [A4 + 0x116]
000072E0  6700 058C                beq        +0x58E /* 0000786E */
000072E4  2079 FFFF AEB4           movea.l    A0, [0xFFFFAEB4]
000072EA  302E FFC8                move.w     D0, [A6 - 0x38]
000072EE  B050                     cmp.w      D0, [A0]
000072F0  6700 057C                beq        +0x57E /* 0000786E */
000072F4  3A2C 0030                move.w     D5, [A4 + 0x30]
000072F8  48C5                     ext.l      D5
000072FA  382C 0032                move.w     D4, [A4 + 0x32]
000072FE  48C4                     ext.l      D4
00007300  41EE FFB8                lea.l      A0, [A6 - 0x48]
00007304  43EE FFEA                lea.l      A1, [A6 - 0x16]
00007308  20D9                     move.l     [A0]+, [A1]+
0000730A  20D9                     move.l     [A0]+, [A1]+
0000730C  30D9                     move.w     [A0]+, [A1]+
0000730E  2D46 FFB4                move.l     [A6 - 0x4C], D6
00007312  486E FFB4                pea.l      [A6 - 0x4C]
00007316  4868 FFF6                pea.l      [A0 - 0xA]
0000731A  3F3C 2804                move.w     -[A7], 0x2804
0000731E  A9EB                     syscall    Pack4/FP68K
00007320  43EE FFAA                lea.l      A1, [A6 - 0x56]
00007324  45EE FFF6                lea.l      A2, [A6 - 0xA]
00007328  22DA                     move.l     [A1]+, [A2]+
0000732A  22DA                     move.l     [A1]+, [A2]+
0000732C  32DA                     move.w     [A1]+, [A2]+
0000732E  2D47 FFA6                move.l     [A6 - 0x5A], D7
00007332  486E FFA6                pea.l      [A6 - 0x5A]
00007336  4869 FFF6                pea.l      [A1 - 0xA]
0000733A  3F3C 2804                move.w     -[A7], 0x2804
0000733E  A9EB                     syscall    Pack4/FP68K
00007340  45EE FF9C                lea.l      A2, [A6 - 0x64]
00007344  47EE FFEA                lea.l      A3, [A6 - 0x16]
00007348  24DB                     move.l     [A2]+, [A3]+
0000734A  24DB                     move.l     [A2]+, [A3]+
0000734C  34DB                     move.w     [A2]+, [A3]+
0000734E  2D44 FF98                move.l     [A6 - 0x68], D4
00007352  486E FF98                pea.l      [A6 - 0x68]
00007356  486A FFF6                pea.l      [A2 - 0xA]
0000735A  3F3C 2804                move.w     -[A7], 0x2804
0000735E  A9EB                     syscall    Pack4/FP68K
00007360  47EE FF8E                lea.l      A3, [A6 - 0x72]
00007364  26EE FFF6                move.l     [A3]+, [A6 - 0xA]
00007368  26EE FFFA                move.l     [A3]+, [A6 - 0x6]
0000736C  36EE FFFE                move.w     [A3]+, [A6 - 0x2]
00007370  2D45 FF8A                move.l     [A6 - 0x76], D5
00007374  486E FF8A                pea.l      [A6 - 0x76]
00007378  486B FFF6                pea.l      [A3 - 0xA]
0000737C  3F3C 2804                move.w     -[A7], 0x2804
00007380  A9EB                     syscall    Pack4/FP68K
00007382  47EB FFF6                lea.l      A3, [A3 - 0xA]
00007386  2D5B FF80                move.l     [A6 - 0x80], [A3]+
0000738A  2D5B FF84                move.l     [A6 - 0x7C], [A3]+
0000738E  3D5B FF88                move.w     [A6 - 0x78], [A3]+
00007392  486A FFF6                pea.l      [A2 - 0xA]
00007396  486E FF80                pea.l      [A6 - 0x80]
0000739A  4267                     clr.w      -[A7]
0000739C  A9EB                     syscall    Pack4/FP68K
0000739E  4869 FFF6                pea.l      [A1 - 0xA]
000073A2  486E FF80                pea.l      [A6 - 0x80]
000073A6  3F3C 0002                move.w     -[A7], 0x2
000073AA  A9EB                     syscall    Pack4/FP68K
000073AC  4868 FFF6                pea.l      [A0 - 0xA]
000073B0  486E FF80                pea.l      [A6 - 0x80]
000073B4  3F3C 0002                move.w     -[A7], 0x2
000073B8  A9EB                     syscall    Pack4/FP68K
000073BA  486E FFCE                pea.l      [A6 - 0x32]
000073BE  486E FF80                pea.l      [A6 - 0x80]
000073C2  3F3C 0006                move.w     -[A7], 0x6
000073C6  A9EB                     syscall    Pack4/FP68K
000073C8  41EE FFE8                lea.l      A0, [A6 - 0x18]
000073CC  43EE FF8A                lea.l      A1, [A6 - 0x76]
000073D0  2121                     move.l     -[A0], -[A1]
000073D2  2121                     move.l     -[A0], -[A1]
000073D4  3121                     move.w     -[A0], -[A1]
000073D6  3110                     move.w     -[A0], [A0]
000073D8  487A 04EC                pea.l      [PC + 0x4EC /* 000078C6, cstring "" */]
000073DC  486E FFDE                pea.l      [A6 - 0x22]
000073E0  3F3C 2008                move.w     -[A7], 0x2008
000073E4  A9EB                     syscall    Pack4/FP68K
000073E6  6F00 0486                ble        +0x488 /* 0000786E */
000073EA  41EE FFB8                lea.l      A0, [A6 - 0x48]
000073EE  43EE FFEA                lea.l      A1, [A6 - 0x16]
000073F2  20D9                     move.l     [A0]+, [A1]+
000073F4  20D9                     move.l     [A0]+, [A1]+
000073F6  30D9                     move.w     [A0]+, [A1]+
000073F8  486E FFDE                pea.l      [A6 - 0x22]
000073FC  4868 FFF6                pea.l      [A0 - 0xA]
00007400  3F3C 0004                move.w     -[A7], 0x4
00007404  A9EB                     syscall    Pack4/FP68K
00007406  43EE FFAE                lea.l      A1, [A6 - 0x52]
0000740A  41E8 FFF6                lea.l      A0, [A0 - 0xA]
0000740E  22D8                     move.l     [A1]+, [A0]+
00007410  22D8                     move.l     [A1]+, [A0]+
00007412  32D8                     move.w     [A1]+, [A0]+
00007414  2D46 FFAA                move.l     [A6 - 0x56], D6
00007418  486E FFAA                pea.l      [A6 - 0x56]
0000741C  4869 FFF6                pea.l      [A1 - 0xA]
00007420  3F3C 2800                move.w     -[A7], 0x2800 /* '(\0' */
00007424  A9EB                     syscall    Pack4/FP68K
00007426  41EE FFA0                lea.l      A0, [A6 - 0x60]
0000742A  43E9 FFF6                lea.l      A1, [A1 - 0xA]
0000742E  20D9                     move.l     [A0]+, [A1]+
00007430  20D9                     move.l     [A0]+, [A1]+
00007432  30D9                     move.w     [A0]+, [A1]+
00007434  2D44 FF9C                move.l     [A6 - 0x64], D4
00007438  486E FF9C                pea.l      [A6 - 0x64]
0000743C  4868 FFF6                pea.l      [A0 - 0xA]
00007440  3F3C 2802                move.w     -[A7], 0x2802
00007444  A9EB                     syscall    Pack4/FP68K
00007446  43EE FF92                lea.l      A1, [A6 - 0x6E]
0000744A  45EE FFEA                lea.l      A2, [A6 - 0x16]
0000744E  22DA                     move.l     [A1]+, [A2]+
00007450  22DA                     move.l     [A1]+, [A2]+
00007452  32DA                     move.w     [A1]+, [A2]+
00007454  486E FFDE                pea.l      [A6 - 0x22]
00007458  4869 FFF6                pea.l      [A1 - 0xA]
0000745C  3F3C 0004                move.w     -[A7], 0x4
00007460  A9EB                     syscall    Pack4/FP68K
00007462  45EE FF88                lea.l      A2, [A6 - 0x78]
00007466  43E9 FFF6                lea.l      A1, [A1 - 0xA]
0000746A  24D9                     move.l     [A2]+, [A1]+
0000746C  24D9                     move.l     [A2]+, [A1]+
0000746E  34D9                     move.w     [A2]+, [A1]+
00007470  2D46 FF84                move.l     [A6 - 0x7C], D6
00007474  486E FF84                pea.l      [A6 - 0x7C]
00007478  486A FFF6                pea.l      [A2 - 0xA]
0000747C  3F3C 2800                move.w     -[A7], 0x2800 /* '(\0' */
00007480  A9EB                     syscall    Pack4/FP68K
00007482  43EE FF7A                lea.l      A1, [A6 - 0x86]
00007486  45EA FFF6                lea.l      A2, [A2 - 0xA]
0000748A  22DA                     move.l     [A1]+, [A2]+
0000748C  22DA                     move.l     [A1]+, [A2]+
0000748E  32DA                     move.w     [A1]+, [A2]+
00007490  2D44 FF76                move.l     [A6 - 0x8A], D4
00007494  486E FF76                pea.l      [A6 - 0x8A]
00007498  4869 FFF6                pea.l      [A1 - 0xA]
0000749C  3F3C 2802                move.w     -[A7], 0x2802
000074A0  A9EB                     syscall    Pack4/FP68K
000074A2  45EE FF6C                lea.l      A2, [A6 - 0x94]
000074A6  43E9 FFF6                lea.l      A1, [A1 - 0xA]
000074AA  24D9                     move.l     [A2]+, [A1]+
000074AC  24D9                     move.l     [A2]+, [A1]+
000074AE  34D9                     move.w     [A2]+, [A1]+
000074B0  4868 FFF6                pea.l      [A0 - 0xA]
000074B4  486A FFF6                pea.l      [A2 - 0xA]
000074B8  3F3C 0004                move.w     -[A7], 0x4
000074BC  A9EB                     syscall    Pack4/FP68K
000074BE  41EE FF62                lea.l      A0, [A6 - 0x9E]
000074C2  43EE FFF6                lea.l      A1, [A6 - 0xA]
000074C6  20D9                     move.l     [A0]+, [A1]+
000074C8  20D9                     move.l     [A0]+, [A1]+
000074CA  30D9                     move.w     [A0]+, [A1]+
000074CC  486E FFDE                pea.l      [A6 - 0x22]
000074D0  4868 FFF6                pea.l      [A0 - 0xA]
000074D4  3F3C 0004                move.w     -[A7], 0x4
000074D8  A9EB                     syscall    Pack4/FP68K
000074DA  43EE FF58                lea.l      A1, [A6 - 0xA8]
000074DE  41E8 FFF6                lea.l      A0, [A0 - 0xA]
000074E2  22D8                     move.l     [A1]+, [A0]+
000074E4  22D8                     move.l     [A1]+, [A0]+
000074E6  32D8                     move.w     [A1]+, [A0]+
000074E8  2D47 FF54                move.l     [A6 - 0xAC], D7
000074EC  486E FF54                pea.l      [A6 - 0xAC]
000074F0  4869 FFF6                pea.l      [A1 - 0xA]
000074F4  3F3C 2800                move.w     -[A7], 0x2800 /* '(\0' */
000074F8  A9EB                     syscall    Pack4/FP68K
000074FA  41EE FF4A                lea.l      A0, [A6 - 0xB6]
000074FE  43E9 FFF6                lea.l      A1, [A1 - 0xA]
00007502  20D9                     move.l     [A0]+, [A1]+
00007504  20D9                     move.l     [A0]+, [A1]+
00007506  30D9                     move.w     [A0]+, [A1]+
00007508  2D45 FF46                move.l     [A6 - 0xBA], D5
0000750C  486E FF46                pea.l      [A6 - 0xBA]
00007510  4868 FFF6                pea.l      [A0 - 0xA]
00007514  3F3C 2802                move.w     -[A7], 0x2802
00007518  A9EB                     syscall    Pack4/FP68K
0000751A  43EE FF3C                lea.l      A1, [A6 - 0xC4]
0000751E  47EE FFF6                lea.l      A3, [A6 - 0xA]
00007522  22DB                     move.l     [A1]+, [A3]+
00007524  22DB                     move.l     [A1]+, [A3]+
00007526  32DB                     move.w     [A1]+, [A3]+
00007528  486E FFDE                pea.l      [A6 - 0x22]
0000752C  4869 FFF6                pea.l      [A1 - 0xA]
00007530  3F3C 0004                move.w     -[A7], 0x4
00007534  A9EB                     syscall    Pack4/FP68K
00007536  47EE FF32                lea.l      A3, [A6 - 0xCE]
0000753A  43E9 FFF6                lea.l      A1, [A1 - 0xA]
0000753E  26D9                     move.l     [A3]+, [A1]+
00007540  26D9                     move.l     [A3]+, [A1]+
00007542  36D9                     move.w     [A3]+, [A1]+
00007544  2D47 FF2E                move.l     [A6 - 0xD2], D7
00007548  486E FF2E                pea.l      [A6 - 0xD2]
0000754C  486B FFF6                pea.l      [A3 - 0xA]
00007550  3F3C 2800                move.w     -[A7], 0x2800 /* '(\0' */
00007554  A9EB                     syscall    Pack4/FP68K
00007556  43EE FF24                lea.l      A1, [A6 - 0xDC]
0000755A  47EB FFF6                lea.l      A3, [A3 - 0xA]
0000755E  22DB                     move.l     [A1]+, [A3]+
00007560  22DB                     move.l     [A1]+, [A3]+
00007562  32DB                     move.w     [A1]+, [A3]+
00007564  2D45 FF20                move.l     [A6 - 0xE0], D5
00007568  486E FF20                pea.l      [A6 - 0xE0]
0000756C  4869 FFF6                pea.l      [A1 - 0xA]
00007570  3F3C 2802                move.w     -[A7], 0x2802
00007574  A9EB                     syscall    Pack4/FP68K
00007576  47EE FF16                lea.l      A3, [A6 - 0xEA]
0000757A  43E9 FFF6                lea.l      A1, [A1 - 0xA]
0000757E  26D9                     move.l     [A3]+, [A1]+
00007580  26D9                     move.l     [A3]+, [A1]+
00007582  36D9                     move.w     [A3]+, [A1]+
00007584  4868 FFF6                pea.l      [A0 - 0xA]
00007588  486B FFF6                pea.l      [A3 - 0xA]
0000758C  3F3C 0004                move.w     -[A7], 0x4
00007590  A9EB                     syscall    Pack4/FP68K
00007592  41EE FF0C                lea.l      A0, [A6 - 0xF4]
00007596  47EB FFF6                lea.l      A3, [A3 - 0xA]
0000759A  20DB                     move.l     [A0]+, [A3]+
0000759C  20DB                     move.l     [A0]+, [A3]+
0000759E  30DB                     move.w     [A0]+, [A3]+
000075A0  486A FFF6                pea.l      [A2 - 0xA]
000075A4  4868 FFF6                pea.l      [A0 - 0xA]
000075A8  4267                     clr.w      -[A7]
000075AA  A9EB                     syscall    Pack4/FP68K
000075AC  487A 0316                pea.l      [PC + 0x316 /* 000078C4, value 0x5B0000 '[\0\0', cstring "" */]
000075B0  4868 FFF6                pea.l      [A0 - 0xA]
000075B4  3F3C 2008                move.w     -[A7], 0x2008
000075B8  A9EB                     syscall    Pack4/FP68K
000075BA  6C00 02B2                bge        +0x2B4 /* 0000786E */
000075BE  4A6E FFCA                tst.w      [A6 - 0x36]
000075C2  6712                     beq        +0x14 /* 000075D6 */
000075C4  486E FFCA                pea.l      [A6 - 0x36]
000075C8  486E FFDE                pea.l      [A6 - 0x22]
000075CC  3F3C 2008                move.w     -[A7], 0x2008
000075D0  A9EB                     syscall    Pack4/FP68K
000075D2  6C00 029A                bge        +0x29C /* 0000786E */
label000075D6:
000075D6  41EE FFB6                lea.l      A0, [A6 - 0x4A]
000075DA  43EE FFDE                lea.l      A1, [A6 - 0x22]
000075DE  20D9                     move.l     [A0]+, [A1]+
000075E0  20D9                     move.l     [A0]+, [A1]+
000075E2  30D9                     move.w     [A0]+, [A1]+
000075E4  4868 FFF6                pea.l      [A0 - 0xA]
000075E8  3F3C 0016                move.w     -[A7], 0x16
000075EC  A9EB                     syscall    Pack4/FP68K
000075EE  4868 FFF6                pea.l      [A0 - 0xA]
000075F2  486E FFC0                pea.l      [A6 - 0x40]
000075F6  3F3C 2010                move.w     -[A7], 0x2010
000075FA  A9EB                     syscall    Pack4/FP68K
000075FC  3D6E FFC0 FFCA           move.w     [A6 - 0x36], [A6 - 0x40]
00007602  362E FFC8                move.w     D3, [A6 - 0x38]
00007606  303C 03C2                move.w     D0, 0x3C2
0000760A  C1C3                     muls.w     D0, D3
0000760C  2040                     movea.l    A0, D0
0000760E  D1FC FFFF 9540           add.l      A0, 0xFFFF9540
00007614  4A50                     tst.w      [A0]
00007616  6D24                     blt        +0x26 /* 0000763C */
00007618  303C 03C2                move.w     D0, 0x3C2
0000761C  C1C3                     muls.w     D0, D3
0000761E  2040                     movea.l    A0, D0
00007620  D1FC FFFF 97BA           add.l      A0, 0xFFFF97BA
00007626  4A50                     tst.w      [A0]
00007628  6612                     bne        +0x14 /* 0000763C */
0000762A  303C 03C2                move.w     D0, 0x3C2
0000762E  C1C3                     muls.w     D0, D3
00007630  2040                     movea.l    A0, D0
00007632  D1FC FFFF 9552           add.l      A0, 0xFFFF9552
00007638  4A50                     tst.w      [A0]
0000763A  6708                     beq        +0xA /* 00007644 */
label0000763C:
0000763C  42AE FFC4                clr.l      [A6 - 0x3C]
00007640  6000 022C                bra        +0x22E /* 0000786E */
label00007644:
00007644  9E85                     sub.l      D7, D5
00007646  9C84                     sub.l      D6, D4
00007648  303C 03C2                move.w     D0, 0x3C2
0000764C  C1C3                     muls.w     D0, D3
0000764E  2040                     movea.l    A0, D0
00007650  D1FC FFFF 9546           add.l      A0, 0xFFFF9546
00007656  3D50 FFC4                move.w     [A6 - 0x3C], [A0]
0000765A  303C 03C2                move.w     D0, 0x3C2
0000765E  C1C3                     muls.w     D0, D3
00007660  2040                     movea.l    A0, D0
00007662  D1FC FFFF 9548           add.l      A0, 0xFFFF9548
00007668  3D50 FFC2                move.w     [A6 - 0x3E], [A0]
0000766C  2F06                     move.l     -[A7], D6
0000766E  306E FFC2                movea.w    A0, [A6 - 0x3E]
00007672  2F08                     move.l     -[A7], A0
00007674  4EAD 0042                jsr        [A5 + 0x42 /* export_4, CODE:1 @ 000002E8 */]
00007678  306E FFC4                movea.w    A0, [A6 - 0x3C]
0000767C  2F08                     move.l     -[A7], A0
0000767E  2F07                     move.l     -[A7], D7
00007680  2200                     move.l     D1, D0
00007682  4EAD 0042                jsr        [A5 + 0x42 /* export_4, CODE:1 @ 000002E8 */]
00007686  C141                     exg        D0, D1
00007688  D081                     add.l      D0, D1
0000768A  2A00                     move.l     D5, D0
0000768C  2F07                     move.l     -[A7], D7
0000768E  2F07                     move.l     -[A7], D7
00007690  4EAD 0042                jsr        [A5 + 0x42 /* export_4, CODE:1 @ 000002E8 */]
00007694  2F06                     move.l     -[A7], D6
00007696  2F06                     move.l     -[A7], D6
00007698  2200                     move.l     D1, D0
0000769A  4EAD 0042                jsr        [A5 + 0x42 /* export_4, CODE:1 @ 000002E8 */]
0000769E  C141                     exg        D0, D1
000076A0  D081                     add.l      D0, D1
000076A2  2F05                     move.l     -[A7], D5
000076A4  2F05                     move.l     -[A7], D5
000076A6  2200                     move.l     D1, D0
000076A8  4EAD 0042                jsr        [A5 + 0x42 /* export_4, CODE:1 @ 000002E8 */]
000076AC  C141                     exg        D0, D1
000076AE  2D41 FFB4                move.l     [A6 - 0x4C], D1
000076B2  486E FFB4                pea.l      [A6 - 0x4C]
000076B6  486E FFB8                pea.l      [A6 - 0x48]
000076BA  3F3C 280E                move.w     -[A7], 0x280E
000076BE  A9EB                     syscall    Pack4/FP68K
000076C0  2D40 FFB0                move.l     [A6 - 0x50], D0
000076C4  486E FFB0                pea.l      [A6 - 0x50]
000076C8  486E FFB8                pea.l      [A6 - 0x48]
000076CC  3F3C 2806                move.w     -[A7], 0x2806
000076D0  A9EB                     syscall    Pack4/FP68K
000076D2  302E FFC2                move.w     D0, [A6 - 0x3E]
000076D6  C1EE FFC2                muls.w     D0, [A6 - 0x3E]
000076DA  382E FFC4                move.w     D4, [A6 - 0x3C]
000076DE  C9EE FFC4                muls.w     D4, [A6 - 0x3C]
000076E2  D840                     add.w      D4, D0
000076E4  3D44 FFA4                move.w     [A6 - 0x5C], D4
000076E8  486E FFA4                pea.l      [A6 - 0x5C]
000076EC  486E FFA6                pea.l      [A6 - 0x5A]
000076F0  3F3C 200E                move.w     -[A7], 0x200E
000076F4  A9EB                     syscall    Pack4/FP68K
000076F6  486E FFB8                pea.l      [A6 - 0x48]
000076FA  486E FFA6                pea.l      [A6 - 0x5A]
000076FE  3F3C 0002                move.w     -[A7], 0x2
00007702  A9EB                     syscall    Pack4/FP68K
00007704  486E FFA6                pea.l      [A6 - 0x5A]
00007708  3F3C 0016                move.w     -[A7], 0x16
0000770C  A9EB                     syscall    Pack4/FP68K
0000770E  486E FFA6                pea.l      [A6 - 0x5A]
00007712  486E FFA0                pea.l      [A6 - 0x60]
00007716  3F3C 2810                move.w     -[A7], 0x2810
0000771A  A9EB                     syscall    Pack4/FP68K
0000771C  282E FFA0                move.l     D4, [A6 - 0x60]
00007720  4FEF FFF6                lea.l      A7, [A7 - 0xA]
00007724  2D44 FFB2                move.l     [A6 - 0x4E], D4
00007728  486E FFB2                pea.l      [A6 - 0x4E]
0000772C  486F 0004                pea.l      [A7 + 0x4]
00007730  3F3C 280E                move.w     -[A7], 0x280E
00007734  A9EB                     syscall    Pack4/FP68K
00007736  3F17                     move.w     -[A7], [A7]
00007738  486E FFB6                pea.l      [A6 - 0x4A]
0000773C  4EAD 038A                jsr        [A5 + 0x38A /* export_109, CODE:7 @ 00003BF8 */]
00007740  486E FFB8                pea.l      [A6 - 0x48]
00007744  486E FFAE                pea.l      [A6 - 0x52]
00007748  3F3C 1010                move.w     -[A7], 0x1010
0000774C  A9EB                     syscall    Pack4/FP68K
0000774E  2D6E FFAE FFD8           move.l     [A6 - 0x28], [A6 - 0x52]
00007754  486E FFD8                pea.l      [A6 - 0x28]
00007758  486E FFB4                pea.l      [A6 - 0x4C]
0000775C  3F3C 100E                move.w     -[A7], 0x100E
00007760  A9EB                     syscall    Pack4/FP68K
00007762  486E FFB4                pea.l      [A6 - 0x4C]
00007766  3F3C 0016                move.w     -[A7], 0x16
0000776A  A9EB                     syscall    Pack4/FP68K
0000776C  486E FFB4                pea.l      [A6 - 0x4C]
00007770  486E FFBE                pea.l      [A6 - 0x42]
00007774  3F3C 2810                move.w     -[A7], 0x2810
00007778  A9EB                     syscall    Pack4/FP68K
0000777A  486E FFD8                pea.l      [A6 - 0x28]
0000777E  486E FFAA                pea.l      [A6 - 0x56]
00007782  3F3C 100E                move.w     -[A7], 0x100E
00007786  A9EB                     syscall    Pack4/FP68K
00007788  486E FFBE                pea.l      [A6 - 0x42]
0000778C  486E FFAA                pea.l      [A6 - 0x56]
00007790  3F3C 2802                move.w     -[A7], 0x2802
00007794  A9EB                     syscall    Pack4/FP68K
00007796  487A 0128                pea.l      [PC + 0x128 /* 000078C0, value 0x3F000000 '?\0\0\0', cstring "?" */]
0000779A  486E FFAA                pea.l      [A6 - 0x56]
0000779E  3F3C 1008                move.w     -[A7], 0x1008
000077A2  A9EB                     syscall    Pack4/FP68K
000077A4  4FEF 0010                lea.l      A7, [A7 + 0x10]
000077A8  6F30                     ble        +0x32 /* 000077DA */
000077AA  486E FFD8                pea.l      [A6 - 0x28]
000077AE  486E FFB8                pea.l      [A6 - 0x48]
000077B2  3F3C 100E                move.w     -[A7], 0x100E
000077B6  A9EB                     syscall    Pack4/FP68K
000077B8  487A 0104                pea.l      [PC + 0x104 /* 000078BE, value 0x13F00, cstring "" */]
000077BC  486E FFB8                pea.l      [A6 - 0x48]
000077C0  3F3C 2000                move.w     -[A7], 0x2000 /* ' \0' */
000077C4  A9EB                     syscall    Pack4/FP68K
000077C6  486E FFB8                pea.l      [A6 - 0x48]
000077CA  486E FFB4                pea.l      [A6 - 0x4C]
000077CE  3F3C 1010                move.w     -[A7], 0x1010
000077D2  A9EB                     syscall    Pack4/FP68K
000077D4  2D6E FFB4 FFD8           move.l     [A6 - 0x28], [A6 - 0x4C]
label000077DA:
000077DA  2F06                     move.l     -[A7], D6
000077DC  303C 03C2                move.w     D0, 0x3C2
000077E0  C1C3                     muls.w     D0, D3
000077E2  2040                     movea.l    A0, D0
000077E4  D1FC FFFF 9546           add.l      A0, 0xFFFF9546
000077EA  3050                     movea.w    A0, [A0]
000077EC  2F08                     move.l     -[A7], A0
000077EE  4EAD 0042                jsr        [A5 + 0x42 /* export_4, CODE:1 @ 000002E8 */]
000077F2  2F07                     move.l     -[A7], D7
000077F4  323C 03C2                move.w     D1, 0x3C2
000077F8  C3C3                     muls.w     D1, D3
000077FA  2041                     movea.l    A0, D1
000077FC  D1FC FFFF 9548           add.l      A0, 0xFFFF9548
00007802  3050                     movea.w    A0, [A0]
00007804  2F08                     move.l     -[A7], A0
00007806  2200                     move.l     D1, D0
00007808  4EAD 0042                jsr        [A5 + 0x42 /* export_4, CODE:1 @ 000002E8 */]
0000780C  C141                     exg        D0, D1
0000780E  9280                     sub.l      D1, D0
00007810  4A81                     tst.l      D1
00007812  6F28                     ble        +0x2A /* 0000783C */
00007814  486E FFD8                pea.l      [A6 - 0x28]
00007818  486E FFB8                pea.l      [A6 - 0x48]
0000781C  3F3C 100E                move.w     -[A7], 0x100E
00007820  A9EB                     syscall    Pack4/FP68K
00007822  486E FFB8                pea.l      [A6 - 0x48]
00007826  3F3C 000D                move.w     -[A7], 0xD /* '\r' */
0000782A  A9EB                     syscall    Pack4/FP68K
0000782C  486E FFB8                pea.l      [A6 - 0x48]
00007830  486E FFB4                pea.l      [A6 - 0x4C]
00007834  3F3C 1010                move.w     -[A7], 0x1010
00007838  A9EB                     syscall    Pack4/FP68K
0000783A  6006                     bra        +0x8 /* 00007842 */
label0000783C:
0000783C  2D6E FFD8 FFB4           move.l     [A6 - 0x4C], [A6 - 0x28]
label00007842:
00007842  486E FFB4                pea.l      [A6 - 0x4C]
00007846  486E FFA6                pea.l      [A6 - 0x5A]
0000784A  3F3C 100E                move.w     -[A7], 0x100E
0000784E  A9EB                     syscall    Pack4/FP68K
00007850  486E FFA6                pea.l      [A6 - 0x5A]
00007854  3F3C 0016                move.w     -[A7], 0x16
00007858  A9EB                     syscall    Pack4/FP68K
0000785A  486E FFA6                pea.l      [A6 - 0x5A]
0000785E  486E FFB0                pea.l      [A6 - 0x50]
00007862  3F3C 2810                move.w     -[A7], 0x2810
00007866  A9EB                     syscall    Pack4/FP68K
00007868  2D6E FFB0 FFC4           move.l     [A6 - 0x3C], [A6 - 0x50]
label0000786E:
0000786E  526E FFC8                addq.w     [A6 - 0x38], 1
00007872  49EC 03C2                lea.l      A4, [A4 + 0x3C2]
label00007876:
00007876  302E FFC8                move.w     D0, [A6 - 0x38]
0000787A  B079 FFFF 9226           cmp.w      D0, [0xFFFF9226]
00007880  6D00 FA5A                blt        -0x5A4 /* 000072DC */
00007884  2079 FFFF AEB4           movea.l    A0, [0xFFFFAEB4]
0000788A  3E28 034C                move.w     D7, [A0 + 0x34C]
0000788E  4A47                     tst.w      D7
00007890  6716                     beq        +0x18 /* 000078A8 */
00007892  303C 03C2                move.w     D0, 0x3C2
00007896  C1C3                     muls.w     D0, D3
00007898  2040                     movea.l    A0, D0
0000789A  D1FC FFFF 978E           add.l      A0, 0xFFFF978E
000078A0  BE50                     cmp.w      D7, [A0]
000078A2  6604                     bne        +0x6 /* 000078A8 */
000078A4  426E FFCA                clr.w      [A6 - 0x36]
label000078A8:
000078A8  4A6E FFCA                tst.w      [A6 - 0x36]
000078AC  6604                     bne        +0x6 /* 000078B2 */
000078AE  7000                     moveq.l    D0, 0x00
000078B0  6004                     bra        +0x6 /* 000078B6 */
label000078B2:
000078B2  202E FFC4                move.l     D0, [A6 - 0x3C]
label000078B6:
000078B6  4CDF 1CF8                movem.l    D3,D4,D5,D6,D7,A2,A3,A4, [A7]+
000078BA  4E5E                     unlink     A6
000078BC  4E75                     rts
000078BE  0001 3F00                ori.b      D1, 0x0
000078C2  0000 005B                ori.b      D0, 0x5B /* '[' */
000078C6  0000                     .incomplete
