# near model CODE resource
# jump table entries: 32778-65566 (32789 of them)
fn00000000:
00000000  4E56 FFFA                link       A6, -0x0006
00000004  48E7 0138                movem.l    -[A7], D7,A2,A3,A4
00000008  486E FFFC                pea.l      [A6 - 0x4]
0000000C  303C 03C2                move.w     D0, 0x3C2
00000010  C1F9 FFFF 9228           muls.w     D0, [0xFFFF9228]
00000016  2040                     movea.l    A0, D0
00000018  D1FC FFFF 9764           add.l      A0, 0xFFFF9764
0000001E  3F10                     move.w     -[A7], [A0]
00000020  303C 03C2                move.w     D0, 0x3C2
00000024  C1F9 FFFF 9228           muls.w     D0, [0xFFFF9228]
0000002A  0680 FFFF 955E           addi.l     D0, 0xFFFF955E
00000030  2F00                     move.l     -[A7], D0
00000032  4EAD 024A                jsr        [A5 + 0x24A /* export_69, CODE:2 @ 00004FCA */]
00000036  2840                     movea.l    A4, D0
00000038  200C                     move.l     D0, A4
0000003A  4FEF 000A                lea.l      A7, [A7 + 0xA]
0000003E  6700 00A6                beq        +0xA8 /* 000000E6 */
00000042  303C 03C2                move.w     D0, 0x3C2
00000046  C1F9 FFFF 9228           muls.w     D0, [0xFFFF9228]
0000004C  0680 FFFF 965E           addi.l     D0, 0xFFFF965E
00000052  2640                     movea.l    A3, D0
00000054  303C 03C2                move.w     D0, 0x3C2
00000058  C1F9 FFFF 9228           muls.w     D0, [0xFFFF9228]
0000005E  0680 FFFF 965E           addi.l     D0, 0xFFFF965E
00000064  2440                     movea.l    A2, D0
00000066  4A13                     tst.b      [A3]
00000068  6726                     beq        +0x28 /* 00000090 */
0000006A  7E00                     moveq.l    D7, 0x00
0000006C  601A                     bra        +0x1C /* 00000088 */
label0000006E:
0000006E  7043                     moveq.l    D0, 0x43
00000070  D007                     add.b      D0, D7
00000072  1213                     move.b     D1, [A3]
00000074  4881                     ext.w      D1
00000076  2407                     move.l     D2, D7
00000078  48C2                     ext.l      D2
0000007A  85C1                     divs.w     D2, D1
0000007C  4842                     swap.w     D2
0000007E  D032 2001                add.b      D0, [A2 + D2.w + 0x1]
00000082  9134 7000                sub.b      [A4 + D7.w], D0
00000086  5247                     addq.w     D7, 1
label00000088:
00000088  3047                     movea.w    A0, D7
0000008A  B1EE FFFC                cmpa.l     A0, [A6 - 0x4]
0000008E  6DDE                     blt        -0x20 /* 0000006E */
label00000090:
00000090  2F0C                     move.l     -[A7], A4
00000092  2F2E FFFC                move.l     -[A7], [A6 - 0x4]
00000096  2F39 FFFF 7D6A           move.l     -[A7], [0xFFFF7D6A]
0000009C  A9CF                     syscall    TESetText
0000009E  204C                     movea.l    A0, A4
000000A0  A01F                     syscall    DisposPtr/DisposePtr
000000A2  4A78 0220                tst.w      [0x00000220 /* MemErr */]
000000A6  6706                     beq        +0x8 /* 000000AE */
000000A8  3F3C 0001                move.w     -[A7], 0x1
000000AC  A9C8                     syscall    SysBeep
label000000AE:
000000AE  42A7                     clr.l      -[A7]
000000B0  2F39 FFFF 7D6A           move.l     -[A7], [0xFFFF7D6A]
000000B6  A9CB                     syscall    TEGetText
000000B8  23DF FFFF 9088           move.l     [0xFFFF9088], [A7]+
000000BE  4267                     clr.w      -[A7]
000000C0  2F3C FFFF 9088           move.l     -[A7], 0xFFFF9088
000000C6  4EAD 0452                jsr        [A5 + 0x452 /* export_134, CODE:7 @ 000029AC */]
000000CA  4A5F                     tst.w      [A7]+
000000CC  6706                     beq        +0x8 /* 000000D4 */
000000CE  3F3C 0001                move.w     -[A7], 0x1
000000D2  A9C8                     syscall    SysBeep
label000000D4:
000000D4  4279 FFFF 908C           clr.w      [0xFFFF908C]
000000DA  42B9 FFFF 908E           clr.l      [0xFFFF908E]
000000E0  42B9 FFFF 9092           clr.l      [0xFFFF9092]
label000000E6:
000000E6  4279 FFFF 9238           clr.w      [0xFFFF9238]
000000EC  303C 03C2                move.w     D0, 0x3C2
000000F0  C1F9 FFFF 9228           muls.w     D0, [0xFFFF9228]
000000F6  2040                     movea.l    A0, D0
000000F8  D1FC FFFF 9764           add.l      A0, 0xFFFF9764
000000FE  3F10                     move.w     -[A7], [A0]
00000100  4EAD 0262                jsr        [A5 + 0x262 /* export_72, CODE:2 @ 00005522 */]
00000104  4257                     clr.w      [A7]
00000106  303C 03C2                move.w     D0, 0x3C2
0000010A  C1F9 FFFF 9228           muls.w     D0, [0xFFFF9228]
00000110  0680 FFFF 955E           addi.l     D0, 0xFFFF955E
00000116  2F00                     move.l     -[A7], D0
00000118  A997                     syscall    OpenResFile
0000011A  3E1F                     move.w     D7, [A7]+
0000011C  42A7                     clr.l      -[A7]
0000011E  2F3C 4441 5445           move.l     -[A7], 0x44415445 /* 'DATE' */
00000124  3F3C 03E8                move.w     -[A7], 0x3E8
00000128  A9A0                     syscall    GetResource
0000012A  285F                     movea.l    A4, [A7]+
0000012C  200C                     move.l     D0, A4
0000012E  6608                     bne        +0xA /* 00000138 */
00000130  42B9 FFFF 74F8           clr.l      [0xFFFF74F8]
00000136  6008                     bra        +0xA /* 00000140 */
label00000138:
00000138  2054                     movea.l    A0, [A4]
0000013A  23D0 FFFF 74F8           move.l     [0xFFFF74F8], [A0]
label00000140:
00000140  42A7                     clr.l      -[A7]
00000142  2F3C 4441 5445           move.l     -[A7], 0x44415445 /* 'DATE' */
00000148  3F3C 03E9                move.w     -[A7], 0x3E9
0000014C  A9A0                     syscall    GetResource
0000014E  285F                     movea.l    A4, [A7]+
00000150  200C                     move.l     D0, A4
00000152  6608                     bne        +0xA /* 0000015C */
00000154  42B9 FFFF 74FC           clr.l      [0xFFFF74FC]
0000015A  6008                     bra        +0xA /* 00000164 */
label0000015C:
0000015C  2054                     movea.l    A0, [A4]
0000015E  23D0 FFFF 74FC           move.l     [0xFFFF74FC], [A0]
label00000164:
00000164  42A7                     clr.l      -[A7]
00000166  2F3C 4441 5445           move.l     -[A7], 0x44415445 /* 'DATE' */
0000016C  3F3C 03EA                move.w     -[A7], 0x3EA
00000170  A9A0                     syscall    GetResource
00000172  285F                     movea.l    A4, [A7]+
00000174  200C                     move.l     D0, A4
00000176  6608                     bne        +0xA /* 00000180 */
00000178  42B9 FFFF 7500           clr.l      [0xFFFF7500]
0000017E  6008                     bra        +0xA /* 00000188 */
label00000180:
00000180  2054                     movea.l    A0, [A4]
00000182  23D0 FFFF 7500           move.l     [0xFFFF7500], [A0]
label00000188:
00000188  42A7                     clr.l      -[A7]
0000018A  2F3C 4441 5445           move.l     -[A7], 0x44415445 /* 'DATE' */
00000190  3F3C 03EB                move.w     -[A7], 0x3EB
00000194  A9A0                     syscall    GetResource
00000196  285F                     movea.l    A4, [A7]+
00000198  200C                     move.l     D0, A4
0000019A  6608                     bne        +0xA /* 000001A4 */
0000019C  42B9 FFFF 7504           clr.l      [0xFFFF7504]
000001A2  6008                     bra        +0xA /* 000001AC */
label000001A4:
000001A4  2054                     movea.l    A0, [A4]
000001A6  23D0 FFFF 7504           move.l     [0xFFFF7504], [A0]
label000001AC:
000001AC  42A7                     clr.l      -[A7]
000001AE  2F3C 4441 5445           move.l     -[A7], 0x44415445 /* 'DATE' */
000001B4  3F3C 03EC                move.w     -[A7], 0x3EC
000001B8  A9A0                     syscall    GetResource
000001BA  285F                     movea.l    A4, [A7]+
000001BC  200C                     move.l     D0, A4
000001BE  6608                     bne        +0xA /* 000001C8 */
000001C0  42B9 FFFF 7508           clr.l      [0xFFFF7508]
000001C6  6008                     bra        +0xA /* 000001D0 */
label000001C8:
000001C8  2054                     movea.l    A0, [A4]
000001CA  23D0 FFFF 7508           move.l     [0xFFFF7508], [A0]
label000001D0:
000001D0  42A7                     clr.l      -[A7]
000001D2  2F3C 524C 454E           move.l     -[A7], 0x524C454E /* 'RLEN' */
000001D8  3F3C 03E8                move.w     -[A7], 0x3E8
000001DC  A9A0                     syscall    GetResource
000001DE  285F                     movea.l    A4, [A7]+
000001E0  200C                     move.l     D0, A4
000001E2  6608                     bne        +0xA /* 000001EC */
000001E4  4279 FFFF 74F2           clr.w      [0xFFFF74F2]
000001EA  6008                     bra        +0xA /* 000001F4 */
label000001EC:
000001EC  2054                     movea.l    A0, [A4]
000001EE  33D0 FFFF 74F2           move.w     [0xFFFF74F2], [A0]
label000001F4:
000001F4  42A7                     clr.l      -[A7]
000001F6  2F3C 4350 4F53           move.l     -[A7], 0x43504F53 /* 'CPOS' */
000001FC  3F3C 03E8                move.w     -[A7], 0x3E8
00000200  A9A0                     syscall    GetResource
00000202  285F                     movea.l    A4, [A7]+
00000204  200C                     move.l     D0, A4
00000206  661A                     bne        +0x1C /* 00000222 */
00000208  2079 FFFF 7D6A           movea.l    A0, [0xFFFF7D6A]
0000020E  2050                     movea.l    A0, [A0]
00000210  4268 0020                clr.w      [A0 + 0x20]
00000214  2079 FFFF 7D6A           movea.l    A0, [0xFFFF7D6A]
0000021A  2050                     movea.l    A0, [A0]
0000021C  4268 0022                clr.w      [A0 + 0x22]
00000220  6048                     bra        +0x4A /* 0000026A */
label00000222:
00000222  2054                     movea.l    A0, [A4]
00000224  2279 FFFF 7D6A           movea.l    A1, [0xFFFF7D6A]
0000022A  2251                     movea.l    A1, [A1]
0000022C  3350 0020                move.w     [A1 + 0x20], [A0]
00000230  42A7                     clr.l      -[A7]
00000232  2F3C 4350 4F53           move.l     -[A7], 0x43504F53 /* 'CPOS' */
00000238  3F3C 03E9                move.w     -[A7], 0x3E9
0000023C  A9A0                     syscall    GetResource
0000023E  285F                     movea.l    A4, [A7]+
00000240  200C                     move.l     D0, A4
00000242  6618                     bne        +0x1A /* 0000025C */
00000244  2079 FFFF 7D6A           movea.l    A0, [0xFFFF7D6A]
0000024A  2050                     movea.l    A0, [A0]
0000024C  2279 FFFF 7D6A           movea.l    A1, [0xFFFF7D6A]
00000252  2251                     movea.l    A1, [A1]
00000254  3368 0020 0022           move.w     [A1 + 0x22], [A0 + 0x20]
0000025A  600E                     bra        +0x10 /* 0000026A */
label0000025C:
0000025C  2054                     movea.l    A0, [A4]
0000025E  2279 FFFF 7D6A           movea.l    A1, [0xFFFF7D6A]
00000264  2251                     movea.l    A1, [A1]
00000266  3350 0022                move.w     [A1 + 0x22], [A0]
label0000026A:
0000026A  4267                     clr.w      -[A7]
0000026C  2F3C 4943 4F4E           move.l     -[A7], 0x49434F4E /* 'ICON' */
00000272  A80D                     syscall    Count1Resources
00000274  33DF FFFF 74F4           move.w     [0xFFFF74F4], [A7]+
0000027A  4267                     clr.w      -[A7]
0000027C  2F3C 736E 6420           move.l     -[A7], 0x736E6420 /* 'snd ' */
00000282  A80D                     syscall    Count1Resources
00000284  33DF FFFF 74F6           move.w     [0xFFFF74F6], [A7]+
0000028A  3F07                     move.w     -[A7], D7
0000028C  A99A                     syscall    CloseResFile
0000028E  4EAD 026A                jsr        [A5 + 0x26A /* export_73, CODE:2 @ 0000554A */]
00000292  4CDF 1C80                movem.l    D7,A2,A3,A4, [A7]+
00000296  4E5E                     unlink     A6
00000298  4E75                     rts
fn0000029A:
0000029A  4E56 FFA6                link       A6, -0x005A
0000029E  48E7 0338                movem.l    -[A7], D6,D7,A2,A3,A4
000002A2  7E00                     moveq.l    D7, 0x00
000002A4  4267                     clr.w      -[A7]
000002A6  303C 03C2                move.w     D0, 0x3C2
000002AA  C1F9 FFFF 9228           muls.w     D0, [0xFFFF9228]
000002B0  0680 FFFF 955E           addi.l     D0, 0xFFFF955E
000002B6  2F00                     move.l     -[A7], D0
000002B8  303C 03C2                move.w     D0, 0x3C2
000002BC  C1F9 FFFF 9228           muls.w     D0, [0xFFFF9228]
000002C2  2040                     movea.l    A0, D0
000002C4  D1FC FFFF 9764           add.l      A0, 0xFFFF9764
000002CA  3F10                     move.w     -[A7], [A0]
000002CC  486E FFFE                pea.l      [A6 - 0x2]
000002D0  4EAD 03CA                jsr        [A5 + 0x3CA /* export_117, CODE:7 @ 0000274C */]
000002D4  4A5F                     tst.w      [A7]+
000002D6  6706                     beq        +0x8 /* 000002DE */
000002D8  7E01                     moveq.l    D7, 0x01
000002DA  6000 00AC                bra        +0xAE /* 00000388 */
label000002DE:
000002DE  42A7                     clr.l      -[A7]
000002E0  2F39 FFFF 7D6A           move.l     -[A7], [0xFFFF7D6A]
000002E6  A9CB                     syscall    TEGetText
000002E8  285F                     movea.l    A4, [A7]+
000002EA  204C                     movea.l    A0, A4
000002EC  A029                     syscall    HLock
000002EE  42A7                     clr.l      -[A7]
000002F0  2F0C                     move.l     -[A7], A4
000002F2  4EAD 03BA                jsr        [A5 + 0x3BA /* export_115, CODE:7 @ 0000272A */]
000002F6  2D5F FFFA                move.l     [A6 - 0x6], [A7]+
000002FA  303C 03C2                move.w     D0, 0x3C2
000002FE  C1F9 FFFF 9228           muls.w     D0, [0xFFFF9228]
00000304  0680 FFFF 965E           addi.l     D0, 0xFFFF965E
0000030A  2640                     movea.l    A3, D0
0000030C  303C 03C2                move.w     D0, 0x3C2
00000310  C1F9 FFFF 9228           muls.w     D0, [0xFFFF9228]
00000316  0680 FFFF 965E           addi.l     D0, 0xFFFF965E
0000031C  2440                     movea.l    A2, D0
0000031E  4A13                     tst.b      [A3]
00000320  6728                     beq        +0x2A /* 0000034A */
00000322  7C00                     moveq.l    D6, 0x00
00000324  601C                     bra        +0x1E /* 00000342 */
label00000326:
00000326  7043                     moveq.l    D0, 0x43
00000328  D006                     add.b      D0, D6
0000032A  1213                     move.b     D1, [A3]
0000032C  4881                     ext.w      D1
0000032E  2406                     move.l     D2, D6
00000330  48C2                     ext.l      D2
00000332  85C1                     divs.w     D2, D1
00000334  4842                     swap.w     D2
00000336  D032 2001                add.b      D0, [A2 + D2.w + 0x1]
0000033A  2054                     movea.l    A0, [A4]
0000033C  D130 6000                add.b      [A0 + D6.w], D0
00000340  5246                     addq.w     D6, 1
label00000342:
00000342  3046                     movea.w    A0, D6
00000344  B1EE FFFA                cmpa.l     A0, [A6 - 0x6]
00000348  6DDC                     blt        -0x22 /* 00000326 */
label0000034A:
0000034A  4267                     clr.w      -[A7]
0000034C  3F2E FFFE                move.w     -[A7], [A6 - 0x2]
00000350  486E FFFA                pea.l      [A6 - 0x6]
00000354  2F14                     move.l     -[A7], [A4]
00000356  4EAD 03E2                jsr        [A5 + 0x3E2 /* export_120, CODE:7 @ 000027AA */]
0000035A  4A5F                     tst.w      [A7]+
0000035C  6702                     beq        +0x4 /* 00000360 */
0000035E  7E01                     moveq.l    D7, 0x01
label00000360:
00000360  4267                     clr.w      -[A7]
00000362  3F2E FFFE                move.w     -[A7], [A6 - 0x2]
00000366  2F2E FFFA                move.l     -[A7], [A6 - 0x6]
0000036A  4EAD 041A                jsr        [A5 + 0x41A /* export_127, CODE:7 @ 000028D4 */]
0000036E  4A5F                     tst.w      [A7]+
00000370  6702                     beq        +0x4 /* 00000374 */
00000372  7E01                     moveq.l    D7, 0x01
label00000374:
00000374  4267                     clr.w      -[A7]
00000376  3F2E FFFE                move.w     -[A7], [A6 - 0x2]
0000037A  4EAD 03D2                jsr        [A5 + 0x3D2 /* export_118, CODE:7 @ 0000278C */]
0000037E  4A5F                     tst.w      [A7]+
00000380  6702                     beq        +0x4 /* 00000384 */
00000382  7E01                     moveq.l    D7, 0x01
label00000384:
00000384  204C                     movea.l    A0, A4
00000386  A02A                     syscall    HUnlock
label00000388:
00000388  4A47                     tst.w      D7
0000038A  6712                     beq        +0x14 /* 0000039E */
0000038C  2F3C FFFF 750C           move.l     -[A7], 0xFFFF750C
00000392  2F3C FFFF 750E           move.l     -[A7], 0xFFFF750E
00000398  4EAD 0222                jsr        [A5 + 0x222 /* export_64, CODE:2 @ 00004DCE */]
0000039C  508F                     addq.l     A7, 8
label0000039E:
0000039E  42A7                     clr.l      -[A7]
000003A0  A9FC                     syscall    ZeroScrap
000003A2  4A9F                     tst.l      [A7]+
000003A4  6714                     beq        +0x16 /* 000003BA */
000003A6  2F3C FFFF 7522           move.l     -[A7], 0xFFFF7522
000003AC  2F3C FFFF 7524           move.l     -[A7], 0xFFFF7524
000003B2  4EAD 0222                jsr        [A5 + 0x222 /* export_64, CODE:2 @ 00004DCE */]
000003B6  508F                     addq.l     A7, 8
000003B8  601C                     bra        +0x1E /* 000003D6 */
label000003BA:
000003BA  4267                     clr.w      -[A7]
000003BC  4EAD 0462                jsr        [A5 + 0x462 /* export_136, CODE:7 @ 00002A18 */]
000003C0  4A5F                     tst.w      [A7]+
000003C2  6712                     beq        +0x14 /* 000003D6 */
000003C4  2F3C FFFF 753A           move.l     -[A7], 0xFFFF753A
000003CA  2F3C FFFF 753C           move.l     -[A7], 0xFFFF753C
000003D0  4EAD 0222                jsr        [A5 + 0x222 /* export_64, CODE:2 @ 00004DCE */]
000003D4  508F                     addq.l     A7, 8
label000003D6:
000003D6  41EE FFF6                lea.l      A0, [A6 - 0xA]
000003DA  20B8 020C                move.l     [A0], [0x0000020C /* Time */]
000003DE  303C 03C2                move.w     D0, 0x3C2
000003E2  C1F9 FFFF 9228           muls.w     D0, [0xFFFF9228]
000003E8  2040                     movea.l    A0, D0
000003EA  D1FC FFFF 9764           add.l      A0, 0xFFFF9764
000003F0  3F10                     move.w     -[A7], [A0]
000003F2  4EAD 0262                jsr        [A5 + 0x262 /* export_72, CODE:2 @ 00005522 */]
000003F6  303C 03C2                move.w     D0, 0x3C2
000003FA  C1F9 FFFF 9228           muls.w     D0, [0xFFFF9228]
00000400  0680 FFFF 955E           addi.l     D0, 0xFFFF955E
00000406  2F00                     move.l     -[A7], D0
00000408  A9B1                     syscall    CreateResFile
0000040A  4257                     clr.w      [A7]
0000040C  303C 03C2                move.w     D0, 0x3C2
00000410  C1F9 FFFF 9228           muls.w     D0, [0xFFFF9228]
00000416  0680 FFFF 955E           addi.l     D0, 0xFFFF955E
0000041C  2F00                     move.l     -[A7], D0
0000041E  A997                     syscall    OpenResFile
00000420  301F                     move.w     D0, [A7]+
00000422  3D40 FFFE                move.w     [A6 - 0x2], D0
00000426  5240                     addq.w     D0, 1
00000428  6628                     bne        +0x2A /* 00000452 */
0000042A  3F38 0A60                move.w     -[A7], [0x00000A60 /* ResErr */]
0000042E  2F3C FFFF 7552           move.l     -[A7], 0xFFFF7552
00000434  486E FFA6                pea.l      [A6 - 0x5A]
00000438  4EAD 050A                jsr        [A5 + 0x50A /* export_157, CODE:7 @ 000020CA */]
0000043C  486E FFA6                pea.l      [A6 - 0x5A]
00000440  2F3C FFFF 7564           move.l     -[A7], 0xFFFF7564
00000446  4EAD 0222                jsr        [A5 + 0x222 /* export_64, CODE:2 @ 00004DCE */]
0000044A  4FEF 0012                lea.l      A7, [A7 + 0x12]
0000044E  6000 0174                bra        +0x176 /* 000005C4 */
label00000452:
00000452  42A7                     clr.l      -[A7]
00000454  2F3C 4441 5445           move.l     -[A7], 0x44415445 /* 'DATE' */
0000045A  3F3C 03E8                move.w     -[A7], 0x3E8
0000045E  A9A0                     syscall    GetResource
00000460  285F                     movea.l    A4, [A7]+
00000462  200C                     move.l     D0, A4
00000464  672C                     beq        +0x2E /* 00000492 */
00000466  2F0C                     move.l     -[A7], A4
00000468  A9AD                     syscall    RemoveResource/RmveResource
0000046A  4A78 0A60                tst.w      [0x00000A60 /* ResErr */]
0000046E  6712                     beq        +0x14 /* 00000482 */
00000470  2F3C FFFF 7582           move.l     -[A7], 0xFFFF7582
00000476  2F3C FFFF 7584           move.l     -[A7], 0xFFFF7584
0000047C  4EAD 0222                jsr        [A5 + 0x222 /* export_64, CODE:2 @ 00004DCE */]
00000480  508F                     addq.l     A7, 8
label00000482:
00000482  204C                     movea.l    A0, A4
00000484  A023                     syscall    DisposHandle/DisposeHandle
00000486  4A78 0220                tst.w      [0x00000220 /* MemErr */]
0000048A  6706                     beq        +0x8 /* 00000492 */
0000048C  3F3C 0001                move.w     -[A7], 0x1
00000490  A9C8                     syscall    SysBeep
label00000492:
00000492  42A7                     clr.l      -[A7]
00000494  2F3C 4350 4F53           move.l     -[A7], 0x43504F53 /* 'CPOS' */
0000049A  3F3C 03E8                move.w     -[A7], 0x3E8
0000049E  A9A0                     syscall    GetResource
000004A0  285F                     movea.l    A4, [A7]+
000004A2  200C                     move.l     D0, A4
000004A4  6720                     beq        +0x22 /* 000004C6 */
000004A6  2F0C                     move.l     -[A7], A4
000004A8  A9AD                     syscall    RemoveResource/RmveResource
000004AA  4A78 0A60                tst.w      [0x00000A60 /* ResErr */]
000004AE  6712                     beq        +0x14 /* 000004C2 */
000004B0  2F3C FFFF 759C           move.l     -[A7], 0xFFFF759C
000004B6  2F3C FFFF 759E           move.l     -[A7], 0xFFFF759E
000004BC  4EAD 0222                jsr        [A5 + 0x222 /* export_64, CODE:2 @ 00004DCE */]
000004C0  508F                     addq.l     A7, 8
label000004C2:
000004C2  204C                     movea.l    A0, A4
000004C4  A023                     syscall    DisposHandle/DisposeHandle
label000004C6:
000004C6  42A7                     clr.l      -[A7]
000004C8  2F3C 4350 4F53           move.l     -[A7], 0x43504F53 /* 'CPOS' */
000004CE  3F3C 03E9                move.w     -[A7], 0x3E9
000004D2  A9A0                     syscall    GetResource
000004D4  285F                     movea.l    A4, [A7]+
000004D6  200C                     move.l     D0, A4
000004D8  6720                     beq        +0x22 /* 000004FA */
000004DA  2F0C                     move.l     -[A7], A4
000004DC  A9AD                     syscall    RemoveResource/RmveResource
000004DE  4A78 0A60                tst.w      [0x00000A60 /* ResErr */]
000004E2  6712                     beq        +0x14 /* 000004F6 */
000004E4  2F3C FFFF 75B6           move.l     -[A7], 0xFFFF75B6
000004EA  2F3C FFFF 75B8           move.l     -[A7], 0xFFFF75B8
000004F0  4EAD 0222                jsr        [A5 + 0x222 /* export_64, CODE:2 @ 00004DCE */]
000004F4  508F                     addq.l     A7, 8
label000004F6:
000004F6  204C                     movea.l    A0, A4
000004F8  A023                     syscall    DisposHandle/DisposeHandle
label000004FA:
000004FA  7004                     moveq.l    D0, 0x04
000004FC  A122                     syscall    NewHandle, flags=1
000004FE  2848                     movea.l    A4, A0
00000500  4A78 0220                tst.w      [0x00000220 /* MemErr */]
00000504  6706                     beq        +0x8 /* 0000050C */
00000506  3F3C 0001                move.w     -[A7], 0x1
0000050A  A9C8                     syscall    SysBeep
label0000050C:
0000050C  2054                     movea.l    A0, [A4]
0000050E  20AE FFF6                move.l     [A0], [A6 - 0xA]
00000512  2F0C                     move.l     -[A7], A4
00000514  2F3C 4441 5445           move.l     -[A7], 0x44415445 /* 'DATE' */
0000051A  3F3C 03E8                move.w     -[A7], 0x3E8
0000051E  2F3C FFFF 75D0           move.l     -[A7], 0xFFFF75D0
00000524  A9AB                     syscall    AddResource
00000526  4A78 0A60                tst.w      [0x00000A60 /* ResErr */]
0000052A  6712                     beq        +0x14 /* 0000053E */
0000052C  2F3C FFFF 75DA           move.l     -[A7], 0xFFFF75DA
00000532  2F3C FFFF 75DC           move.l     -[A7], 0xFFFF75DC
00000538  4EAD 0222                jsr        [A5 + 0x222 /* export_64, CODE:2 @ 00004DCE */]
0000053C  508F                     addq.l     A7, 8
label0000053E:
0000053E  7002                     moveq.l    D0, 0x02
00000540  A122                     syscall    NewHandle, flags=1
00000542  2848                     movea.l    A4, A0
00000544  2079 FFFF 7D6A           movea.l    A0, [0xFFFF7D6A]
0000054A  2050                     movea.l    A0, [A0]
0000054C  2254                     movea.l    A1, [A4]
0000054E  32A8 0020                move.w     [A1], [A0 + 0x20]
00000552  2F0C                     move.l     -[A7], A4
00000554  2F3C 4350 4F53           move.l     -[A7], 0x43504F53 /* 'CPOS' */
0000055A  3F3C 03E8                move.w     -[A7], 0x3E8
0000055E  2F3C FFFF 75F8           move.l     -[A7], 0xFFFF75F8
00000564  A9AB                     syscall    AddResource
00000566  4A78 0A60                tst.w      [0x00000A60 /* ResErr */]
0000056A  6712                     beq        +0x14 /* 0000057E */
0000056C  2F3C FFFF 7608           move.l     -[A7], 0xFFFF7608
00000572  2F3C FFFF 760A           move.l     -[A7], 0xFFFF760A
00000578  4EAD 0222                jsr        [A5 + 0x222 /* export_64, CODE:2 @ 00004DCE */]
0000057C  508F                     addq.l     A7, 8
label0000057E:
0000057E  7002                     moveq.l    D0, 0x02
00000580  A122                     syscall    NewHandle, flags=1
00000582  2848                     movea.l    A4, A0
00000584  2079 FFFF 7D6A           movea.l    A0, [0xFFFF7D6A]
0000058A  2050                     movea.l    A0, [A0]
0000058C  2254                     movea.l    A1, [A4]
0000058E  32A8 0022                move.w     [A1], [A0 + 0x22]
00000592  2F0C                     move.l     -[A7], A4
00000594  2F3C 4350 4F53           move.l     -[A7], 0x43504F53 /* 'CPOS' */
0000059A  3F3C 03E9                move.w     -[A7], 0x3E9
0000059E  2F3C FFFF 7626           move.l     -[A7], 0xFFFF7626
000005A4  A9AB                     syscall    AddResource
000005A6  4A78 0A60                tst.w      [0x00000A60 /* ResErr */]
000005AA  6712                     beq        +0x14 /* 000005BE */
000005AC  2F3C FFFF 7634           move.l     -[A7], 0xFFFF7634
000005B2  2F3C FFFF 7636           move.l     -[A7], 0xFFFF7636
000005B8  4EAD 0222                jsr        [A5 + 0x222 /* export_64, CODE:2 @ 00004DCE */]
000005BC  508F                     addq.l     A7, 8
label000005BE:
000005BE  3F2E FFFE                move.w     -[A7], [A6 - 0x2]
000005C2  A99A                     syscall    CloseResFile
label000005C4:
000005C4  4EAD 026A                jsr        [A5 + 0x26A /* export_73, CODE:2 @ 0000554A */]
000005C8  4CDF 1CC0                movem.l    D6,D7,A2,A3,A4, [A7]+
000005CC  4E5E                     unlink     A6
000005CE  4E75                     rts
export_27:
000005D0  4E56 FFE6                link       A6, -0x001A
000005D4  48E7 1F18                movem.l    -[A7], D3,D4,D5,D6,D7,A3,A4
000005D8  7E00                     moveq.l    D7, 0x00
000005DA  7C00                     moveq.l    D6, 0x00
000005DC  2079 FFFF 7D6A           movea.l    A0, [0xFFFF7D6A]
000005E2  2050                     movea.l    A0, [A0]
000005E4  2279 FFFF 907C           movea.l    A1, [0xFFFF907C]
000005EA  2251                     movea.l    A1, [A1]
000005EC  3A29 000C                move.w     D5, [A1 + 0xC]
000005F0  48C5                     ext.l      D5
000005F2  8BE8 0018                divs.w     D5, [A0 + 0x18]
000005F6  5345                     subq.w     D5, 1
000005F8  42A7                     clr.l      -[A7]
000005FA  2F39 FFFF 7D6A           move.l     -[A7], [0xFFFF7D6A]
00000600  A9CB                     syscall    TEGetText
00000602  285F                     movea.l    A4, [A7]+
00000604  204C                     movea.l    A0, A4
00000606  A064                     syscall    MoveHHi
00000608  204C                     movea.l    A0, A4
0000060A  A029                     syscall    HLock
0000060C  4A78 0220                tst.w      [0x00000220 /* MemErr */]
00000610  6700 0092                beq        +0x94 /* 000006A4 */
00000614  3F3C 0001                move.w     -[A7], 0x1
00000618  A9C8                     syscall    SysBeep
0000061A  6000 0088                bra        +0x8A /* 000006A4 */
label0000061E:
0000061E  2F2E 0008                move.l     -[A7], [A6 + 0x8]
00000622  42A7                     clr.l      -[A7]
00000624  2F3C 1000 0808           move.l     -[A7], 0x10000808
0000062A  A8FD                     syscall    PrGlue
0000062C  4267                     clr.w      -[A7]
0000062E  2079 FFFF 7D6A           movea.l    A0, [0xFFFF7D6A]
00000634  2050                     movea.l    A0, [A0]
00000636  3F28 0018                move.w     -[A7], [A0 + 0x18]
0000063A  A893                     syscall    MoveTo
0000063C  3F3C 0004                move.w     -[A7], 0x4
00000640  A887                     syscall    TextFont
00000642  3F3C 0009                move.w     -[A7], 0x9 /* '\t' */
00000646  A88A                     syscall    TextSize
00000648  3805                     move.w     D4, D5
0000064A  D846                     add.w      D4, D6
0000064C  2079 FFFF 7D6A           movea.l    A0, [0xFFFF7D6A]
00000652  2050                     movea.l    A0, [A0]
00000654  3628 005E                move.w     D3, [A0 + 0x5E]
00000658  B644                     cmp.w      D3, D4
0000065A  6E04                     bgt        +0x6 /* 00000660 */
0000065C  3803                     move.w     D4, D3
0000065E  7E01                     moveq.l    D7, 0x01
label00000660:
00000660  3646                     movea.w    A3, D6
00000662  D7CB                     add.l      A3, A3
00000664  2079 FFFF 7D6A           movea.l    A0, [0xFFFF7D6A]
0000066A  2010                     move.l     D0, [A0]
0000066C  3273 0860                movea.w    A1, [A3 + D0 + 0x60]
00000670  D3D4                     add.l      A1, [A4]
00000672  2F09                     move.l     -[A7], A1
00000674  2010                     move.l     D0, [A0]
00000676  2050                     movea.l    A0, [A0]
00000678  D0C4                     add.w      A0, D4
0000067A  3230 4060                move.w     D1, [A0 + D4.w + 0x60]
0000067E  9273 0860                sub.w      D1, [A3 + D0 + 0x60]
00000682  3041                     movea.w    A0, D1
00000684  2F08                     move.l     -[A7], A0
00000686  2079 FFFF 907C           movea.l    A0, [0xFFFF907C]
0000068C  2050                     movea.l    A0, [A0]
0000068E  4868 0008                pea.l      [A0 + 0x8]
00000692  4267                     clr.w      -[A7]
00000694  A9CE                     syscall    TETextBox/TextBox
00000696  DC45                     add.w      D6, D5
00000698  2F2E 0008                move.l     -[A7], [A6 + 0x8]
0000069C  2F3C 1800 040C           move.l     -[A7], 0x1800040C
000006A2  A8FD                     syscall    PrGlue
label000006A4:
000006A4  4A47                     tst.w      D7
000006A6  6610                     bne        +0x12 /* 000006B8 */
000006A8  4267                     clr.w      -[A7]
000006AA  2F3C BA00 0000           move.l     -[A7], 0xBA000000
000006B0  A8FD                     syscall    PrGlue
000006B2  4A5F                     tst.w      [A7]+
000006B4  6700 FF68                beq        -0x96 /* 0000061E */
label000006B8:
000006B8  204C                     movea.l    A0, A4
000006BA  A02A                     syscall    HUnlock
000006BC  4A78 0220                tst.w      [0x00000220 /* MemErr */]
000006C0  6706                     beq        +0x8 /* 000006C8 */
000006C2  3F3C 0001                move.w     -[A7], 0x1
000006C6  A9C8                     syscall    SysBeep
label000006C8:
000006C8  4CDF 18F8                movem.l    D3,D4,D5,D6,D7,A3,A4, [A7]+
000006CC  4E5E                     unlink     A6
000006CE  4E75                     rts
fn000006D0:
000006D0  4E56 FFF8                link       A6, -0x0008
000006D4  48E7 1F18                movem.l    -[A7], D3,D4,D5,D6,D7,A3,A4
000006D8  42A7                     clr.l      -[A7]
000006DA  2F39 FFFF 7D6A           move.l     -[A7], [0xFFFF7D6A]
000006E0  A9CB                     syscall    TEGetText
000006E2  285F                     movea.l    A4, [A7]+
000006E4  2079 FFFF 7D6A           movea.l    A0, [0xFFFF7D6A]
000006EA  2050                     movea.l    A0, [A0]
000006EC  3E28 003C                move.w     D7, [A0 + 0x3C]
000006F0  48C7                     ext.l      D7
000006F2  2654                     movea.l    A3, [A4]
000006F4  7CFF                     moveq.l    D6, 0xFFFFFFFF
000006F6  7000                     moveq.l    D0, 0x00
000006F8  1039 FFFF 9242           move.b     D0, [0xFFFF9242]
000006FE  3F00                     move.w     -[A7], D0
00000700  4EAD 04C2                jsr        [A5 + 0x4C2 /* export_148, CODE:7 @ 000008FC */]
00000704  1A00                     move.b     D5, D0
00000706  2079 FFFF 7D6A           movea.l    A0, [0xFFFF7D6A]
0000070C  2050                     movea.l    A0, [A0]
0000070E  3828 0022                move.w     D4, [A0 + 0x22]
00000712  1005                     move.b     D0, D5
00000714  4880                     ext.w      D0
00000716  3D40 FFFE                move.w     [A6 - 0x2], D0
0000071A  548F                     addq.l     A7, 2
0000071C  6000 00A8                bra        +0xAA /* 000007C6 */
label00000720:
00000720  1033 4000                move.b     D0, [A3 + D4.w]
00000724  4880                     ext.w      D0
00000726  3F00                     move.w     -[A7], D0
00000728  4EAD 04C2                jsr        [A5 + 0x4C2 /* export_148, CODE:7 @ 000008FC */]
0000072C  B06E FFFE                cmp.w      D0, [A6 - 0x2]
00000730  548F                     addq.l     A7, 2
00000732  6600 0090                bne        +0x92 /* 000007C4 */
00000736  7A01                     moveq.l    D5, 0x01
00000738  6002                     bra        +0x4 /* 0000073C */
label0000073A:
0000073A  5245                     addq.w     D5, 1
label0000073C:
0000073C  3004                     move.w     D0, D4
0000073E  D045                     add.w      D0, D5
00000740  3040                     movea.w    A0, D0
00000742  BE88                     cmp.l      D7, A0
00000744  6F3A                     ble        +0x3C /* 00000780 */
00000746  3045                     movea.w    A0, D5
00000748  D1FC FFFF 9242           add.l      A0, 0xFFFF9242
0000074E  4A10                     tst.b      [A0]
00000750  672E                     beq        +0x30 /* 00000780 */
00000752  3045                     movea.w    A0, D5
00000754  D1FC FFFF 9242           add.l      A0, 0xFFFF9242
0000075A  7000                     moveq.l    D0, 0x00
0000075C  1010                     move.b     D0, [A0]
0000075E  3F00                     move.w     -[A7], D0
00000760  4EAD 04C2                jsr        [A5 + 0x4C2 /* export_148, CODE:7 @ 000008FC */]
00000764  3D40 FFF8                move.w     [A6 - 0x8], D0
00000768  3004                     move.w     D0, D4
0000076A  D045                     add.w      D0, D5
0000076C  1033 0000                move.b     D0, [A3 + D0.w]
00000770  4880                     ext.w      D0
00000772  3E80                     move.w     [A7], D0
00000774  4EAD 04C2                jsr        [A5 + 0x4C2 /* export_148, CODE:7 @ 000008FC */]
00000778  B06E FFF8                cmp.w      D0, [A6 - 0x8]
0000077C  548F                     addq.l     A7, 2
0000077E  67BA                     beq        -0x44 /* 0000073A */
label00000780:
00000780  3045                     movea.w    A0, D5
00000782  D1FC FFFF 9241           add.l      A0, 0xFFFF9241
00000788  7000                     moveq.l    D0, 0x00
0000078A  1010                     move.b     D0, [A0]
0000078C  3F00                     move.w     -[A7], D0
0000078E  4EAD 04C2                jsr        [A5 + 0x4C2 /* export_148, CODE:7 @ 000008FC */]
00000792  3605                     move.w     D3, D5
00000794  D644                     add.w      D3, D4
00000796  3D40 FFF8                move.w     [A6 - 0x8], D0
0000079A  1033 30FF                move.b     D0, [A3 + D3.w - 0x1]
0000079E  4880                     ext.w      D0
000007A0  3E80                     move.w     [A7], D0
000007A2  4EAD 04C2                jsr        [A5 + 0x4C2 /* export_148, CODE:7 @ 000008FC */]
000007A6  B06E FFF8                cmp.w      D0, [A6 - 0x8]
000007AA  548F                     addq.l     A7, 2
000007AC  6616                     bne        +0x18 /* 000007C4 */
000007AE  3045                     movea.w    A0, D5
000007B0  D1FC FFFF 9242           add.l      A0, 0xFFFF9242
000007B6  4A10                     tst.b      [A0]
000007B8  660A                     bne        +0xC /* 000007C4 */
000007BA  2C04                     move.l     D6, D4
000007BC  48C6                     ext.l      D6
000007BE  3043                     movea.w    A0, D3
000007C0  2D48 FFFA                move.l     [A6 - 0x6], A0
label000007C4:
000007C4  5244                     addq.w     D4, 1
label000007C6:
000007C6  3044                     movea.w    A0, D4
000007C8  BE88                     cmp.l      D7, A0
000007CA  6F08                     ble        +0xA /* 000007D4 */
000007CC  70FF                     moveq.l    D0, 0xFFFFFFFF
000007CE  B086                     cmp.l      D0, D6
000007D0  6700 FF4E                beq        -0xB0 /* 00000720 */
label000007D4:
000007D4  70FF                     moveq.l    D0, 0xFFFFFFFF
000007D6  B086                     cmp.l      D0, D6
000007D8  6720                     beq        +0x22 /* 000007FA */
000007DA  2F06                     move.l     -[A7], D6
000007DC  2F2E FFFA                move.l     -[A7], [A6 - 0x6]
000007E0  2F39 FFFF 7D6A           move.l     -[A7], [0xFFFF7D6A]
000007E6  A9D1                     syscall    TESetSelect
000007E8  33FC 0001 FFFF 908C      move.w     [0xFFFF908C], 0x1
000007F0  33FC 0001 FFFF 9238      move.w     [0xFFFF9238], 0x1
000007F8  6006                     bra        +0x8 /* 00000800 */
label000007FA:
000007FA  3F3C 0001                move.w     -[A7], 0x1
000007FE  A9C8                     syscall    SysBeep
label00000800:
00000800  4CDF 18F8                movem.l    D3,D4,D5,D6,D7,A3,A4, [A7]+
00000804  4E5E                     unlink     A6
00000806  4E75                     rts
fn00000808:
00000808  2F07                     move.l     -[A7], D7
0000080A  7E00                     moveq.l    D7, 0x00
0000080C  6002                     bra        +0x4 /* 00000810 */
label0000080E:
0000080E  5287                     addq.l     D7, 1
label00000810:
00000810  2047                     movea.l    A0, D7
00000812  D1FC FFFF 9342           add.l      A0, 0xFFFF9342
00000818  4A10                     tst.b      [A0]
0000081A  66F2                     bne        -0xC /* 0000080E */
0000081C  4EBA 0850                jsr        [PC + 0x850 /* 0000106E */]
00000820  2F39 FFFF 7D6A           move.l     -[A7], [0xFFFF7D6A]
00000826  A9D7                     syscall    TEDelete
00000828  2F3C FFFF 9342           move.l     -[A7], 0xFFFF9342
0000082E  2F07                     move.l     -[A7], D7
00000830  2F39 FFFF 7D6A           move.l     -[A7], [0xFFFF7D6A]
00000836  A9DE                     syscall    TEInsert
00000838  2E1F                     move.l     D7, [A7]+
0000083A  4E75                     rts
fn0000083C:
0000083C  4EBA FFCA                jsr        [PC - 0x36 /* 00000808 */]
00000840  4EBA FE8E                jsr        [PC - 0x172 /* 000006D0 */]
00000844  4E75                     rts
fn00000846:
00000846  4E56 FFF0                link       A6, -0x0010
0000084A  2F0C                     move.l     -[A7], A4
0000084C  42A7                     clr.l      -[A7]
0000084E  3F3C 03EC                move.w     -[A7], 0x3EC
00000852  42A7                     clr.l      -[A7]
00000854  4878 FFFF                push.l     0xFFFF
00000858  A97C                     syscall    GetNewDialog
0000085A  285F                     movea.l    A4, [A7]+
0000085C  3F3C 0005                move.w     -[A7], 0x5
00000860  2F0C                     move.l     -[A7], A4
00000862  4EAD 0242                jsr        [A5 + 0x242 /* export_68, CODE:2 @ 00004F96 */]
00000866  2E8C                     move.l     [A7], A4
00000868  3F3C 0004                move.w     -[A7], 0x4
0000086C  486E FFFC                pea.l      [A6 - 0x4]
00000870  486E FFF8                pea.l      [A6 - 0x8]
00000874  486E FFF0                pea.l      [A6 - 0x10]
00000878  A98D                     syscall    GetDialogItem/GetDItem
0000087A  2F3C FFFF 9242           move.l     -[A7], 0xFFFF9242
00000880  4EAD 0482                jsr        [A5 + 0x482 /* export_140, CODE:7 @ 0000237C */]
00000884  2EAE FFF8                move.l     [A7], [A6 - 0x8]
00000888  2F3C FFFF 9242           move.l     -[A7], 0xFFFF9242
0000088E  A98F                     syscall    SetDialogItemText/SetIText
00000890  2F0C                     move.l     -[A7], A4
00000892  4878 0004                push.l     0x4
00000896  3F3C 7FFF                move.w     -[A7], 0x7FFF
0000089A  A97E                     syscall    SelectDialogItemText/SelIText
0000089C  548F                     addq.l     A7, 2
label0000089E:
0000089E  42A7                     clr.l      -[A7]
000008A0  486E FFFE                pea.l      [A6 - 0x2]
000008A4  A991                     syscall    ModalDialog
000008A6  0C6E 0001 FFFE           cmpi.w     [A6 - 0x2], 0x1
000008AC  6708                     beq        +0xA /* 000008B6 */
000008AE  0C6E 0002 FFFE           cmpi.w     [A6 - 0x2], 0x2
000008B4  66E8                     bne        -0x16 /* 0000089E */
label000008B6:
000008B6  0C6E 0001 FFFE           cmpi.w     [A6 - 0x2], 0x1
000008BC  6656                     bne        +0x58 /* 00000914 */
000008BE  2F2E FFF8                move.l     -[A7], [A6 - 0x8]
000008C2  2F3C FFFF 9242           move.l     -[A7], 0xFFFF9242
000008C8  A990                     syscall    GetDialogItemText/GetIText
000008CA  4A39 FFFF 9242           tst.b      [0xFFFF9242]
000008D0  6722                     beq        +0x24 /* 000008F4 */
000008D2  2F39 FFFF 7D42           move.l     -[A7], [0xFFFF7D42]
000008D8  3F3C 0009                move.w     -[A7], 0x9 /* '\t' */
000008DC  A939                     syscall    EnableItem
000008DE  4A39 FFFF 9342           tst.b      [0xFFFF9342]
000008E4  672E                     beq        +0x30 /* 00000914 */
000008E6  2F39 FFFF 7D42           move.l     -[A7], [0xFFFF7D42]
000008EC  3F3C 000B                move.w     -[A7], 0xB
000008F0  A939                     syscall    EnableItem
000008F2  6020                     bra        +0x22 /* 00000914 */
label000008F4:
000008F4  2F39 FFFF 7D42           move.l     -[A7], [0xFFFF7D42]
000008FA  3F3C 0009                move.w     -[A7], 0x9 /* '\t' */
000008FE  A93A                     syscall    DisableItem
00000900  4A39 FFFF 9342           tst.b      [0xFFFF9342]
00000906  670C                     beq        +0xE /* 00000914 */
00000908  2F39 FFFF 7D42           move.l     -[A7], [0xFFFF7D42]
0000090E  3F3C 000B                move.w     -[A7], 0xB
00000912  A93A                     syscall    DisableItem
label00000914:
00000914  2F0C                     move.l     -[A7], A4
00000916  A983                     syscall    DisposeDialog
00000918  2F3C FFFF 9242           move.l     -[A7], 0xFFFF9242
0000091E  4EAD 047A                jsr        [A5 + 0x47A /* export_139, CODE:7 @ 00002398 */]
00000922  0C6E 0001 FFFE           cmpi.w     [A6 - 0x2], 0x1
00000928  588F                     addq.l     A7, 4
0000092A  660C                     bne        +0xE /* 00000938 */
0000092C  4A39 FFFF 9242           tst.b      [0xFFFF9242]
00000932  6704                     beq        +0x6 /* 00000938 */
00000934  4EBA FD9A                jsr        [PC - 0x266 /* 000006D0 */]
label00000938:
00000938  285F                     movea.l    A4, [A7]+
0000093A  4E5E                     unlink     A6
0000093C  4E75                     rts
fn0000093E:
0000093E  4E56 FFF0                link       A6, -0x0010
00000942  2F0C                     move.l     -[A7], A4
00000944  42A7                     clr.l      -[A7]
00000946  3F3C 03ED                move.w     -[A7], 0x3ED
0000094A  42A7                     clr.l      -[A7]
0000094C  4878 FFFF                push.l     0xFFFF
00000950  A97C                     syscall    GetNewDialog
00000952  285F                     movea.l    A4, [A7]+
00000954  3F3C 0005                move.w     -[A7], 0x5
00000958  2F0C                     move.l     -[A7], A4
0000095A  4EAD 0242                jsr        [A5 + 0x242 /* export_68, CODE:2 @ 00004F96 */]
0000095E  2E8C                     move.l     [A7], A4
00000960  3F3C 0004                move.w     -[A7], 0x4
00000964  486E FFFC                pea.l      [A6 - 0x4]
00000968  486E FFF8                pea.l      [A6 - 0x8]
0000096C  486E FFF0                pea.l      [A6 - 0x10]
00000970  A98D                     syscall    GetDialogItem/GetDItem
00000972  2F3C FFFF 9342           move.l     -[A7], 0xFFFF9342
00000978  4EAD 0482                jsr        [A5 + 0x482 /* export_140, CODE:7 @ 0000237C */]
0000097C  2EAE FFF8                move.l     [A7], [A6 - 0x8]
00000980  2F3C FFFF 9342           move.l     -[A7], 0xFFFF9342
00000986  A98F                     syscall    SetDialogItemText/SetIText
00000988  2F0C                     move.l     -[A7], A4
0000098A  4878 0004                push.l     0x4
0000098E  3F3C 7FFF                move.w     -[A7], 0x7FFF
00000992  A97E                     syscall    SelectDialogItemText/SelIText
00000994  548F                     addq.l     A7, 2
label00000996:
00000996  42A7                     clr.l      -[A7]
00000998  486E FFFE                pea.l      [A6 - 0x2]
0000099C  A991                     syscall    ModalDialog
0000099E  0C6E 0001 FFFE           cmpi.w     [A6 - 0x2], 0x1
000009A4  6708                     beq        +0xA /* 000009AE */
000009A6  0C6E 0002 FFFE           cmpi.w     [A6 - 0x2], 0x2
000009AC  66E8                     bne        -0x16 /* 00000996 */
label000009AE:
000009AE  0C6E 0001 FFFE           cmpi.w     [A6 - 0x2], 0x1
000009B4  6636                     bne        +0x38 /* 000009EC */
000009B6  2F2E FFF8                move.l     -[A7], [A6 - 0x8]
000009BA  2F3C FFFF 9342           move.l     -[A7], 0xFFFF9342
000009C0  A990                     syscall    GetDialogItemText/GetIText
000009C2  4A39 FFFF 9342           tst.b      [0xFFFF9342]
000009C8  6716                     beq        +0x18 /* 000009E0 */
000009CA  4A39 FFFF 9242           tst.b      [0xFFFF9242]
000009D0  670E                     beq        +0x10 /* 000009E0 */
000009D2  2F39 FFFF 7D42           move.l     -[A7], [0xFFFF7D42]
000009D8  3F3C 000B                move.w     -[A7], 0xB
000009DC  A939                     syscall    EnableItem
000009DE  600C                     bra        +0xE /* 000009EC */
label000009E0:
000009E0  2F39 FFFF 7D42           move.l     -[A7], [0xFFFF7D42]
000009E6  3F3C 000B                move.w     -[A7], 0xB
000009EA  A93A                     syscall    DisableItem
label000009EC:
000009EC  2F0C                     move.l     -[A7], A4
000009EE  A983                     syscall    DisposeDialog
000009F0  2F3C FFFF 9342           move.l     -[A7], 0xFFFF9342
000009F6  4EAD 047A                jsr        [A5 + 0x47A /* export_139, CODE:7 @ 00002398 */]
000009FA  0C6E 0001 FFFE           cmpi.w     [A6 - 0x2], 0x1
00000A00  588F                     addq.l     A7, 4
00000A02  660C                     bne        +0xE /* 00000A10 */
00000A04  4A39 FFFF 9342           tst.b      [0xFFFF9342]
00000A0A  6704                     beq        +0x6 /* 00000A10 */
00000A0C  4EBA FDFA                jsr        [PC - 0x206 /* 00000808 */]
label00000A10:
00000A10  285F                     movea.l    A4, [A7]+
00000A12  4E5E                     unlink     A6
00000A14  4E75                     rts
export_28:
00000A16  4E56 FCFE                link       A6, -0x0302
00000A1A  2079 FFFF 7D56           movea.l    A0, [0xFFFF7D56]
00000A20  4868 0010                pea.l      [A0 + 0x10]
00000A24  A8A3                     syscall    EraseRect
00000A26  4A79 FFFF 9222           tst.w      [0xFFFF9222]
00000A2C  6716                     beq        +0x18 /* 00000A44 */
00000A2E  4EBA 04FA                jsr        [PC + 0x4FA /* 00000F2A */]
00000A32  4EBA 045A                jsr        [PC + 0x45A /* 00000E8E */]
00000A36  2F39 FFFF 9064           move.l     -[A7], [0xFFFF9064]
00000A3C  A957                     syscall    ShowControl
00000A3E  4279 FFFF 9222           clr.w      [0xFFFF9222]
label00000A44:
00000A44  2079 FFFF 7D56           movea.l    A0, [0xFFFF7D56]
00000A4A  4868 0010                pea.l      [A0 + 0x10]
00000A4E  2F39 FFFF 7D6A           move.l     -[A7], [0xFFFF7D6A]
00000A54  A9D3                     syscall    TEUpdate
00000A56  3F3C 0005                move.w     -[A7], 0x5
00000A5A  A888                     syscall    TextFace
00000A5C  2F3C 0028 0131           move.l     -[A7], 0x280131
00000A62  A893                     syscall    MoveTo
00000A64  2F3C FFFF 7652           move.l     -[A7], 0xFFFF7652
00000A6A  A884                     syscall    DrawString
00000A6C  2F3C 0069 0131           move.l     -[A7], 0x690131
00000A72  A893                     syscall    MoveTo
00000A74  2F3C FFFF 7668           move.l     -[A7], 0xFFFF7668
00000A7A  A884                     syscall    DrawString
00000A7C  2F3C 008C 0131           move.l     -[A7], 0x8C0131
00000A82  A893                     syscall    MoveTo
00000A84  2F3C FFFF 767E           move.l     -[A7], 0xFFFF767E
00000A8A  A884                     syscall    DrawString
00000A8C  4267                     clr.w      -[A7]
00000A8E  A888                     syscall    TextFace
00000A90  2F3C 0037 0136           move.l     -[A7], 0x370136
00000A96  A893                     syscall    MoveTo
00000A98  2F3C FFFF 7692           move.l     -[A7], 0xFFFF7692
00000A9E  A884                     syscall    DrawString
00000AA0  2F3C 0041 0136           move.l     -[A7], 0x410136
00000AA6  A893                     syscall    MoveTo
00000AA8  2F3C FFFF 76A4           move.l     -[A7], 0xFFFF76A4
00000AAE  A884                     syscall    DrawString
00000AB0  2F3C 004B 0136           move.l     -[A7], 0x4B0136
00000AB6  A893                     syscall    MoveTo
00000AB8  2F3C FFFF 76B2           move.l     -[A7], 0xFFFF76B2
00000ABE  A884                     syscall    DrawString
00000AC0  2F3C 0055 0136           move.l     -[A7], 0x550136
00000AC6  A893                     syscall    MoveTo
00000AC8  2F3C FFFF 76C4           move.l     -[A7], 0xFFFF76C4
00000ACE  A884                     syscall    DrawString
00000AD0  2F3C 0078 0136           move.l     -[A7], 0x780136
00000AD6  A893                     syscall    MoveTo
00000AD8  2F3C FFFF 76D6           move.l     -[A7], 0xFFFF76D6
00000ADE  A884                     syscall    DrawString
00000AE0  2F3C 009B 0136           move.l     -[A7], 0x9B0136
00000AE6  A893                     syscall    MoveTo
00000AE8  2F3C FFFF 76E8           move.l     -[A7], 0xFFFF76E8
00000AEE  A884                     syscall    DrawString
00000AF0  2F3C 00A5 0136           move.l     -[A7], 0xA50136
00000AF6  A893                     syscall    MoveTo
00000AF8  2F3C FFFF 76F2           move.l     -[A7], 0xFFFF76F2
00000AFE  A884                     syscall    DrawString
00000B00  2F3C 00AF 0136           move.l     -[A7], 0xAF0136
00000B06  A893                     syscall    MoveTo
00000B08  2F3C FFFF 76F8           move.l     -[A7], 0xFFFF76F8
00000B0E  A884                     syscall    DrawString
00000B10  2F3C 00B9 0136           move.l     -[A7], 0xB90136
00000B16  A893                     syscall    MoveTo
00000B18  2F3C FFFF 7702           move.l     -[A7], 0xFFFF7702
00000B1E  A884                     syscall    DrawString
00000B20  2F3C 00C3 0136           move.l     -[A7], 0xC30136
00000B26  A893                     syscall    MoveTo
00000B28  2F3C FFFF 770A           move.l     -[A7], 0xFFFF770A
00000B2E  A884                     syscall    DrawString
00000B30  2079 FFFF 7D6A           movea.l    A0, [0xFFFF7D6A]
00000B36  2050                     movea.l    A0, [A0]
00000B38  3F28 003C                move.w     -[A7], [A0 + 0x3C]
00000B3C  2079 FFFF 7D6A           movea.l    A0, [0xFFFF7D6A]
00000B42  2050                     movea.l    A0, [A0]
00000B44  3F28 005E                move.w     -[A7], [A0 + 0x5E]
00000B48  2F3C FFFF 7712           move.l     -[A7], 0xFFFF7712
00000B4E  486E FD00                pea.l      [A6 - 0x300]
00000B52  4EAD 050A                jsr        [A5 + 0x50A /* export_157, CODE:7 @ 000020CA */]
00000B56  486E FD00                pea.l      [A6 - 0x300]
00000B5A  4EAD 0482                jsr        [A5 + 0x482 /* export_140, CODE:7 @ 0000237C */]
00000B5E  2EBC 0037 01A4           move.l     [A7], 0x3701A4
00000B64  A893                     syscall    MoveTo
00000B66  486E FD00                pea.l      [A6 - 0x300]
00000B6A  A884                     syscall    DrawString
00000B6C  3EB9 FFFF 74F2           move.w     [A7], [0xFFFF74F2]
00000B72  2F3C FFFF 771C           move.l     -[A7], 0xFFFF771C
00000B78  486E FD00                pea.l      [A6 - 0x300]
00000B7C  4EAD 050A                jsr        [A5 + 0x50A /* export_157, CODE:7 @ 000020CA */]
00000B80  486E FD00                pea.l      [A6 - 0x300]
00000B84  4EAD 0482                jsr        [A5 + 0x482 /* export_140, CODE:7 @ 0000237C */]
00000B88  2EBC 0041 01A4           move.l     [A7], 0x4101A4
00000B8E  A893                     syscall    MoveTo
00000B90  486E FD00                pea.l      [A6 - 0x300]
00000B94  A884                     syscall    DrawString
00000B96  3EB9 FFFF 74F4           move.w     [A7], [0xFFFF74F4]
00000B9C  2F3C FFFF 7720           move.l     -[A7], 0xFFFF7720
00000BA2  486E FD00                pea.l      [A6 - 0x300]
00000BA6  4EAD 050A                jsr        [A5 + 0x50A /* export_157, CODE:7 @ 000020CA */]
00000BAA  486E FD00                pea.l      [A6 - 0x300]
00000BAE  4EAD 0482                jsr        [A5 + 0x482 /* export_140, CODE:7 @ 0000237C */]
00000BB2  2EBC 004B 01A4           move.l     [A7], 0x4B01A4
00000BB8  A893                     syscall    MoveTo
00000BBA  486E FD00                pea.l      [A6 - 0x300]
00000BBE  A884                     syscall    DrawString
00000BC0  3EB9 FFFF 74F6           move.w     [A7], [0xFFFF74F6]
00000BC6  2F3C FFFF 7724           move.l     -[A7], 0xFFFF7724
00000BCC  486E FD00                pea.l      [A6 - 0x300]
00000BD0  4EAD 050A                jsr        [A5 + 0x50A /* export_157, CODE:7 @ 000020CA */]
00000BD4  486E FD00                pea.l      [A6 - 0x300]
00000BD8  4EAD 0482                jsr        [A5 + 0x482 /* export_140, CODE:7 @ 0000237C */]
00000BDC  2EBC 0055 01A4           move.l     [A7], 0x5501A4
00000BE2  A893                     syscall    MoveTo
00000BE4  486E FD00                pea.l      [A6 - 0x300]
00000BE8  A884                     syscall    DrawString
00000BEA  2EBC 0078 01A4           move.l     [A7], 0x7801A4
00000BF0  A893                     syscall    MoveTo
00000BF2  303C 03C2                move.w     D0, 0x3C2
00000BF6  C1F9 FFFF 9228           muls.w     D0, [0xFFFF9228]
00000BFC  2040                     movea.l    A0, D0
00000BFE  D1FC FFFF 965E           add.l      A0, 0xFFFF965E
00000C04  4A10                     tst.b      [A0]
00000C06  4FEF 0020                lea.l      A7, [A7 + 0x20]
00000C0A  670A                     beq        +0xC /* 00000C16 */
00000C0C  2F3C FFFF 7728           move.l     -[A7], 0xFFFF7728
00000C12  A884                     syscall    DrawString
00000C14  6008                     bra        +0xA /* 00000C1E */
label00000C16:
00000C16  2F3C FFFF 772C           move.l     -[A7], 0xFFFF772C
00000C1C  A884                     syscall    DrawString
label00000C1E:
00000C1E  4AB9 FFFF 74F8           tst.l      [0xFFFF74F8]
00000C24  674E                     beq        +0x50 /* 00000C74 */
00000C26  2F39 FFFF 74F8           move.l     -[A7], [0xFFFF74F8]
00000C2C  4227                     clr.b      -[A7]
00000C2E  486E FF00                pea.l      [A6 - 0x100]
00000C32  4267                     clr.w      -[A7]
00000C34  A9ED                     syscall    Pack6
00000C36  2F39 FFFF 74F8           move.l     -[A7], [0xFFFF74F8]
00000C3C  4227                     clr.b      -[A7]
00000C3E  486E FE00                pea.l      [A6 - 0x200]
00000C42  3F3C 0002                move.w     -[A7], 0x2
00000C46  A9ED                     syscall    Pack6
00000C48  486E FF00                pea.l      [A6 - 0x100]
00000C4C  4EAD 047A                jsr        [A5 + 0x47A /* export_139, CODE:7 @ 00002398 */]
00000C50  486E FE00                pea.l      [A6 - 0x200]
00000C54  4EAD 047A                jsr        [A5 + 0x47A /* export_139, CODE:7 @ 00002398 */]
00000C58  486E FF00                pea.l      [A6 - 0x100]
00000C5C  486E FE00                pea.l      [A6 - 0x200]
00000C60  2F3C FFFF 7730           move.l     -[A7], 0xFFFF7730
00000C66  486E FD00                pea.l      [A6 - 0x300]
00000C6A  4EAD 050A                jsr        [A5 + 0x50A /* export_157, CODE:7 @ 000020CA */]
00000C6E  4FEF 0018                lea.l      A7, [A7 + 0x18]
00000C72  6010                     bra        +0x12 /* 00000C84 */
label00000C74:
00000C74  2F3C FFFF 773A           move.l     -[A7], 0xFFFF773A
00000C7A  486E FD00                pea.l      [A6 - 0x300]
00000C7E  4EAD 051A                jsr        [A5 + 0x51A /* export_159, CODE:7 @ 000021A6 */]
00000C82  508F                     addq.l     A7, 8
label00000C84:
00000C84  486E FD00                pea.l      [A6 - 0x300]
00000C88  4EAD 0482                jsr        [A5 + 0x482 /* export_140, CODE:7 @ 0000237C */]
00000C8C  2EBC 009B 0172           move.l     [A7], 0x9B0172
00000C92  A893                     syscall    MoveTo
00000C94  486E FD00                pea.l      [A6 - 0x300]
00000C98  A884                     syscall    DrawString
00000C9A  4AB9 FFFF 7500           tst.l      [0xFFFF7500]
00000CA0  674E                     beq        +0x50 /* 00000CF0 */
00000CA2  2F39 FFFF 7500           move.l     -[A7], [0xFFFF7500]
00000CA8  4227                     clr.b      -[A7]
00000CAA  486E FF00                pea.l      [A6 - 0x100]
00000CAE  4267                     clr.w      -[A7]
00000CB0  A9ED                     syscall    Pack6
00000CB2  2F39 FFFF 7500           move.l     -[A7], [0xFFFF7500]
00000CB8  4227                     clr.b      -[A7]
00000CBA  486E FE00                pea.l      [A6 - 0x200]
00000CBE  3F3C 0002                move.w     -[A7], 0x2
00000CC2  A9ED                     syscall    Pack6
00000CC4  486E FF00                pea.l      [A6 - 0x100]
00000CC8  4EAD 047A                jsr        [A5 + 0x47A /* export_139, CODE:7 @ 00002398 */]
00000CCC  486E FE00                pea.l      [A6 - 0x200]
00000CD0  4EAD 047A                jsr        [A5 + 0x47A /* export_139, CODE:7 @ 00002398 */]
00000CD4  486E FF00                pea.l      [A6 - 0x100]
00000CD8  486E FE00                pea.l      [A6 - 0x200]
00000CDC  2F3C FFFF 774E           move.l     -[A7], 0xFFFF774E
00000CE2  486E FD00                pea.l      [A6 - 0x300]
00000CE6  4EAD 050A                jsr        [A5 + 0x50A /* export_157, CODE:7 @ 000020CA */]
00000CEA  4FEF 0018                lea.l      A7, [A7 + 0x18]
00000CEE  6010                     bra        +0x12 /* 00000D00 */
label00000CF0:
00000CF0  2F3C FFFF 7758           move.l     -[A7], 0xFFFF7758
00000CF6  486E FD00                pea.l      [A6 - 0x300]
00000CFA  4EAD 051A                jsr        [A5 + 0x51A /* export_159, CODE:7 @ 000021A6 */]
00000CFE  508F                     addq.l     A7, 8
label00000D00:
00000D00  486E FD00                pea.l      [A6 - 0x300]
00000D04  4EAD 0482                jsr        [A5 + 0x482 /* export_140, CODE:7 @ 0000237C */]
00000D08  2EBC 00A5 0172           move.l     [A7], 0xA50172
00000D0E  A893                     syscall    MoveTo
00000D10  486E FD00                pea.l      [A6 - 0x300]
00000D14  A884                     syscall    DrawString
00000D16  4AB9 FFFF 74FC           tst.l      [0xFFFF74FC]
00000D1C  674E                     beq        +0x50 /* 00000D6C */
00000D1E  2F39 FFFF 74FC           move.l     -[A7], [0xFFFF74FC]
00000D24  4227                     clr.b      -[A7]
00000D26  486E FF00                pea.l      [A6 - 0x100]
00000D2A  4267                     clr.w      -[A7]
00000D2C  A9ED                     syscall    Pack6
00000D2E  2F39 FFFF 74FC           move.l     -[A7], [0xFFFF74FC]
00000D34  4227                     clr.b      -[A7]
00000D36  486E FE00                pea.l      [A6 - 0x200]
00000D3A  3F3C 0002                move.w     -[A7], 0x2
00000D3E  A9ED                     syscall    Pack6
00000D40  486E FF00                pea.l      [A6 - 0x100]
00000D44  4EAD 047A                jsr        [A5 + 0x47A /* export_139, CODE:7 @ 00002398 */]
00000D48  486E FE00                pea.l      [A6 - 0x200]
00000D4C  4EAD 047A                jsr        [A5 + 0x47A /* export_139, CODE:7 @ 00002398 */]
00000D50  486E FF00                pea.l      [A6 - 0x100]
00000D54  486E FE00                pea.l      [A6 - 0x200]
00000D58  2F3C FFFF 776C           move.l     -[A7], 0xFFFF776C
00000D5E  486E FD00                pea.l      [A6 - 0x300]
00000D62  4EAD 050A                jsr        [A5 + 0x50A /* export_157, CODE:7 @ 000020CA */]
00000D66  4FEF 0018                lea.l      A7, [A7 + 0x18]
00000D6A  6010                     bra        +0x12 /* 00000D7C */
label00000D6C:
00000D6C  2F3C FFFF 7776           move.l     -[A7], 0xFFFF7776
00000D72  486E FD00                pea.l      [A6 - 0x300]
00000D76  4EAD 051A                jsr        [A5 + 0x51A /* export_159, CODE:7 @ 000021A6 */]
00000D7A  508F                     addq.l     A7, 8
label00000D7C:
00000D7C  486E FD00                pea.l      [A6 - 0x300]
00000D80  4EAD 0482                jsr        [A5 + 0x482 /* export_140, CODE:7 @ 0000237C */]
00000D84  2EBC 00AF 0172           move.l     [A7], 0xAF0172
00000D8A  A893                     syscall    MoveTo
00000D8C  486E FD00                pea.l      [A6 - 0x300]
00000D90  A884                     syscall    DrawString
00000D92  4AB9 FFFF 7504           tst.l      [0xFFFF7504]
00000D98  674E                     beq        +0x50 /* 00000DE8 */
00000D9A  2F39 FFFF 7504           move.l     -[A7], [0xFFFF7504]
00000DA0  4227                     clr.b      -[A7]
00000DA2  486E FF00                pea.l      [A6 - 0x100]
00000DA6  4267                     clr.w      -[A7]
00000DA8  A9ED                     syscall    Pack6
00000DAA  2F39 FFFF 7504           move.l     -[A7], [0xFFFF7504]
00000DB0  4227                     clr.b      -[A7]
00000DB2  486E FE00                pea.l      [A6 - 0x200]
00000DB6  3F3C 0002                move.w     -[A7], 0x2
00000DBA  A9ED                     syscall    Pack6
00000DBC  486E FF00                pea.l      [A6 - 0x100]
00000DC0  4EAD 047A                jsr        [A5 + 0x47A /* export_139, CODE:7 @ 00002398 */]
00000DC4  486E FE00                pea.l      [A6 - 0x200]
00000DC8  4EAD 047A                jsr        [A5 + 0x47A /* export_139, CODE:7 @ 00002398 */]
00000DCC  486E FF00                pea.l      [A6 - 0x100]
00000DD0  486E FE00                pea.l      [A6 - 0x200]
00000DD4  2F3C FFFF 778A           move.l     -[A7], 0xFFFF778A
00000DDA  486E FD00                pea.l      [A6 - 0x300]
00000DDE  4EAD 050A                jsr        [A5 + 0x50A /* export_157, CODE:7 @ 000020CA */]
00000DE2  4FEF 0018                lea.l      A7, [A7 + 0x18]
00000DE6  6010                     bra        +0x12 /* 00000DF8 */
label00000DE8:
00000DE8  2F3C FFFF 7794           move.l     -[A7], 0xFFFF7794
00000DEE  486E FD00                pea.l      [A6 - 0x300]
00000DF2  4EAD 051A                jsr        [A5 + 0x51A /* export_159, CODE:7 @ 000021A6 */]
00000DF6  508F                     addq.l     A7, 8
label00000DF8:
00000DF8  486E FD00                pea.l      [A6 - 0x300]
00000DFC  4EAD 0482                jsr        [A5 + 0x482 /* export_140, CODE:7 @ 0000237C */]
00000E00  2EBC 00B9 0172           move.l     [A7], 0xB90172
00000E06  A893                     syscall    MoveTo
00000E08  486E FD00                pea.l      [A6 - 0x300]
00000E0C  A884                     syscall    DrawString
00000E0E  4AB9 FFFF 7508           tst.l      [0xFFFF7508]
00000E14  674E                     beq        +0x50 /* 00000E64 */
00000E16  2F39 FFFF 7508           move.l     -[A7], [0xFFFF7508]
00000E1C  4227                     clr.b      -[A7]
00000E1E  486E FF00                pea.l      [A6 - 0x100]
00000E22  4267                     clr.w      -[A7]
00000E24  A9ED                     syscall    Pack6
00000E26  2F39 FFFF 7508           move.l     -[A7], [0xFFFF7508]
00000E2C  4227                     clr.b      -[A7]
00000E2E  486E FE00                pea.l      [A6 - 0x200]
00000E32  3F3C 0002                move.w     -[A7], 0x2
00000E36  A9ED                     syscall    Pack6
00000E38  486E FF00                pea.l      [A6 - 0x100]
00000E3C  4EAD 047A                jsr        [A5 + 0x47A /* export_139, CODE:7 @ 00002398 */]
00000E40  486E FE00                pea.l      [A6 - 0x200]
00000E44  4EAD 047A                jsr        [A5 + 0x47A /* export_139, CODE:7 @ 00002398 */]
00000E48  486E FF00                pea.l      [A6 - 0x100]
00000E4C  486E FE00                pea.l      [A6 - 0x200]
00000E50  2F3C FFFF 77A8           move.l     -[A7], 0xFFFF77A8
00000E56  486E FD00                pea.l      [A6 - 0x300]
00000E5A  4EAD 050A                jsr        [A5 + 0x50A /* export_157, CODE:7 @ 000020CA */]
00000E5E  4FEF 0018                lea.l      A7, [A7 + 0x18]
00000E62  6010                     bra        +0x12 /* 00000E74 */
label00000E64:
00000E64  2F3C FFFF 77B2           move.l     -[A7], 0xFFFF77B2
00000E6A  486E FD00                pea.l      [A6 - 0x300]
00000E6E  4EAD 051A                jsr        [A5 + 0x51A /* export_159, CODE:7 @ 000021A6 */]
00000E72  508F                     addq.l     A7, 8
label00000E74:
00000E74  486E FD00                pea.l      [A6 - 0x300]
00000E78  4EAD 0482                jsr        [A5 + 0x482 /* export_140, CODE:7 @ 0000237C */]
00000E7C  2EBC 00C3 0172           move.l     [A7], 0xC30172
00000E82  A893                     syscall    MoveTo
00000E84  486E FD00                pea.l      [A6 - 0x300]
00000E88  A884                     syscall    DrawString
00000E8A  4E5E                     unlink     A6
00000E8C  4E75                     rts
fn00000E8E:
00000E8E  48E7 0708                movem.l    -[A7], D5,D6,D7,A4
00000E92  2079 FFFF 7D6A           movea.l    A0, [0xFFFF7D6A]
00000E98  2850                     movea.l    A4, [A0]
00000E9A  3E2C 0008                move.w     D7, [A4 + 0x8]
00000E9E  9E54                     sub.w      D7, [A4]
00000EA0  4267                     clr.w      -[A7]
00000EA2  2F39 FFFF 9064           move.l     -[A7], [0xFFFF9064]
00000EA8  A960                     syscall    GetControlValue/GetCtlValue
00000EAA  2079 FFFF 7D6A           movea.l    A0, [0xFFFF7D6A]
00000EB0  2050                     movea.l    A0, [A0]
00000EB2  3C28 0018                move.w     D6, [A0 + 0x18]
00000EB6  CDDF                     muls.w     D6, [A7]+
00000EB8  3A07                     move.w     D5, D7
00000EBA  9A46                     sub.w      D5, D6
00000EBC  4A45                     tst.w      D5
00000EBE  670C                     beq        +0xE /* 00000ECC */
00000EC0  4267                     clr.w      -[A7]
00000EC2  3F05                     move.w     -[A7], D5
00000EC4  2F39 FFFF 7D6A           move.l     -[A7], [0xFFFF7D6A]
00000ECA  A812                     syscall    TEPinScroll
label00000ECC:
00000ECC  4CDF 10E0                movem.l    D5,D6,D7,A4, [A7]+
00000ED0  4E75                     rts
export_29:
00000ED2  4E56 0000                link       A6, 0
00000ED6  2F07                     move.l     -[A7], D7
00000ED8  4A6E 0008                tst.w      [A6 + 0x8]
00000EDC  6742                     beq        +0x44 /* 00000F20 */
00000EDE  302E 0008                move.w     D0, [A6 + 0x8]
00000EE2  6B24                     bmi        +0x26 /* 00000F08 */
00000EE4  0440 0016                subi.w     D0, 0x16
00000EE8  6718                     beq        +0x1A /* 00000F02 */
00000EEA  6A08                     bpl        +0xA /* 00000EF4 */
00000EEC  5440                     addq.w     D0, 2
00000EEE  670A                     beq        +0xC /* 00000EFA */
00000EF0  6A0C                     bpl        +0xE /* 00000EFE */
00000EF2  6014                     bra        +0x16 /* 00000F08 */
label00000EF4:
00000EF4  5540                     subq.w     D0, 2
00000EF6  6A10                     bpl        +0x12 /* 00000F08 */
00000EF8  600C                     bra        +0xE /* 00000F06 */
label00000EFA:
00000EFA  7EFF                     moveq.l    D7, 0xFFFFFFFF
00000EFC  600A                     bra        +0xC /* 00000F08 */
label00000EFE:
00000EFE  7E01                     moveq.l    D7, 0x01
00000F00  6006                     bra        +0x8 /* 00000F08 */
label00000F02:
00000F02  7EE6                     moveq.l    D7, 0xFFFFFFE6
00000F04  6002                     bra        +0x4 /* 00000F08 */
label00000F06:
00000F06  7E1A                     moveq.l    D7, 0x1A
label00000F08:
00000F08  2F2E 000A                move.l     -[A7], [A6 + 0xA]
00000F0C  4267                     clr.w      -[A7]
00000F0E  2F2E 000A                move.l     -[A7], [A6 + 0xA]
00000F12  A960                     syscall    GetControlValue/GetCtlValue
00000F14  301F                     move.w     D0, [A7]+
00000F16  D047                     add.w      D0, D7
00000F18  3F00                     move.w     -[A7], D0
00000F1A  A963                     syscall    SetControlValue/SetCtlValue
00000F1C  4EBA FF70                jsr        [PC - 0x90 /* 00000E8E */]
label00000F20:
00000F20  2E1F                     move.l     D7, [A7]+
00000F22  4E5E                     unlink     A6
00000F24  205F                     movea.l    A0, [A7]+
00000F26  5C8F                     addq.l     A7, 6
00000F28  4ED0                     jmp        [A0]
export_26:
fn00000F2A:
00000F2A  48E7 0718                movem.l    -[A7], D5,D6,D7,A3,A4
00000F2E  2079 FFFF 7D6A           movea.l    A0, [0xFFFF7D6A]
00000F34  2850                     movea.l    A4, [A0]
00000F36  7EE5                     moveq.l    D7, 0xFFFFFFE5
00000F38  DE6C 005E                add.w      D7, [A4 + 0x5E]
00000F3C  4A6C 003C                tst.w      [A4 + 0x3C]
00000F40  6F12                     ble        +0x14 /* 00000F54 */
00000F42  206C 003E                movea.l    A0, [A4 + 0x3E]
00000F46  326C 003C                movea.w    A1, [A4 + 0x3C]
00000F4A  D3D0                     add.l      A1, [A0]
00000F4C  0C21 000D                cmpi.b     -[A1], 0xD /* '\r' */
00000F50  6602                     bne        +0x4 /* 00000F54 */
00000F52  5247                     addq.w     D7, 1
label00000F54:
00000F54  2F39 FFFF 9064           move.l     -[A7], [0xFFFF9064]
00000F5A  4A47                     tst.w      D7
00000F5C  6F04                     ble        +0x6 /* 00000F62 */
00000F5E  3007                     move.w     D0, D7
00000F60  6002                     bra        +0x4 /* 00000F64 */
label00000F62:
00000F62  7000                     moveq.l    D0, 0x00
label00000F64:
00000F64  3F00                     move.w     -[A7], D0
00000F66  A965                     syscall    SetControlMaximum/SetMaxCtl
00000F68  4267                     clr.w      -[A7]
00000F6A  2F39 FFFF 9064           move.l     -[A7], [0xFFFF9064]
00000F70  A960                     syscall    GetControlValue/GetCtlValue
00000F72  3E1F                     move.w     D7, [A7]+
00000F74  7C1B                     moveq.l    D6, 0x1B
00000F76  DC47                     add.w      D6, D7
00000F78  2079 FFFF 7D6A           movea.l    A0, [0xFFFF7D6A]
00000F7E  2050                     movea.l    A0, [A0]
00000F80  3A28 0020                move.w     D5, [A0 + 0x20]
00000F84  2079 FFFF 7D6A           movea.l    A0, [0xFFFF7D6A]
00000F8A  7060                     moveq.l    D0, 0x60
00000F8C  D090                     add.l      D0, [A0]
00000F8E  2840                     movea.l    A4, D0
00000F90  224C                     movea.l    A1, A4
00000F92  D2C7                     add.w      A1, D7
00000F94  BA71 7000                cmp.w      D5, [A1 + D7.w]
00000F98  6D0A                     blt        +0xC /* 00000FA4 */
00000F9A  204C                     movea.l    A0, A4
00000F9C  D0C6                     add.w      A0, D6
00000F9E  BA70 6000                cmp.w      D5, [A0 + D6.w]
00000FA2  6D26                     blt        +0x28 /* 00000FCA */
label00000FA4:
00000FA4  7E00                     moveq.l    D7, 0x00
00000FA6  3647                     movea.w    A3, D7
00000FA8  D7CB                     add.l      A3, A3
00000FAA  6004                     bra        +0x6 /* 00000FB0 */
label00000FAC:
00000FAC  5247                     addq.w     D7, 1
00000FAE  548B                     addq.l     A3, 2
label00000FB0:
00000FB0  204C                     movea.l    A0, A4
00000FB2  D1CB                     add.l      A0, A3
00000FB4  BA50                     cmp.w      D5, [A0]
00000FB6  6CF4                     bge        -0xA /* 00000FAC */
00000FB8  2F39 FFFF 9064           move.l     -[A7], [0xFFFF9064]
00000FBE  70F3                     moveq.l    D0, 0xFFFFFFF3
00000FC0  D047                     add.w      D0, D7
00000FC2  3F00                     move.w     -[A7], D0
00000FC4  A963                     syscall    SetControlValue/SetCtlValue
00000FC6  4EBA FEC6                jsr        [PC - 0x13A /* 00000E8E */]
label00000FCA:
00000FCA  2079 FFFF 7D6A           movea.l    A0, [0xFFFF7D6A]
00000FD0  2050                     movea.l    A0, [A0]
00000FD2  0C68 7530 003C           cmpi.w     [A0 + 0x3C], 0x7530 /* 'u0' */
00000FD8  6F12                     ble        +0x14 /* 00000FEC */
00000FDA  2F3C FFFF 77C6           move.l     -[A7], 0xFFFF77C6
00000FE0  2F3C FFFF 77D6           move.l     -[A7], 0xFFFF77D6
00000FE6  4EAD 0222                jsr        [A5 + 0x222 /* export_64, CODE:2 @ 00004DCE */]
00000FEA  508F                     addq.l     A7, 8
label00000FEC:
00000FEC  4CDF 18E0                movem.l    D5,D6,D7,A3,A4, [A7]+
00000FF0  4E75                     rts
export_30:
00000FF2  4E56 FFF8                link       A6, -0x0008
00000FF6  2F3C FFFF 7D64           move.l     -[A7], 0xFFFF7D64
00000FFC  A871                     syscall    GlobalToLocal
00000FFE  4227                     clr.b      -[A7]
00001000  2F39 FFFF 7D64           move.l     -[A7], [0xFFFF7D64]
00001006  2079 FFFF 7D6A           movea.l    A0, [0xFFFF7D6A]
0000100C  2050                     movea.l    A0, [A0]
0000100E  4868 0008                pea.l      [A0 + 0x8]
00001012  A8AD                     syscall    PtInRect
00001014  4A1F                     tst.b      [A7]+
00001016  6752                     beq        +0x54 /* 0000106A */
00001018  2F39 FFFF 7D64           move.l     -[A7], [0xFFFF7D64]
0000101E  3039 FFFF 7D68           move.w     D0, [0xFFFF7D68]
00001024  48C0                     ext.l      D0
00001026  0280 0000 0200           andi.l     D0, 0x200
0000102C  4A80                     tst.l      D0
0000102E  5EC0                     sgt        D0
00001030  4400                     neg.b      D0
00001032  1F00                     move.b     -[A7], D0
00001034  2F39 FFFF 7D6A           move.l     -[A7], [0xFFFF7D6A]
0000103A  A9D4                     syscall    TEClick
0000103C  3D7C 002D FFF8           move.w     [A6 - 0x8], 0x2D /* '-' */
00001042  3D7C 0037 FFFC           move.w     [A6 - 0x4], 0x37 /* '7' */
00001048  3D7C 01A4 FFFA           move.w     [A6 - 0x6], 0x1A4
0000104E  3D7C 01EA FFFE           move.w     [A6 - 0x2], 0x1EA
00001054  486E FFF8                pea.l      [A6 - 0x8]
00001058  A928                     syscall    InvalRect
0000105A  33FC 0001 FFFF 908C      move.w     [0xFFFF908C], 0x1
00001062  33FC 0001 FFFF 9238      move.w     [0xFFFF9238], 0x1
label0000106A:
0000106A  4E5E                     unlink     A6
0000106C  4E75                     rts
fn0000106E:
0000106E  2F0C                     move.l     -[A7], A4
00001070  4279 FFFF 908C           clr.w      [0xFFFF908C]
00001076  2079 FFFF 9088           movea.l    A0, [0xFFFF9088]
0000107C  A023                     syscall    DisposHandle/DisposeHandle
0000107E  4A78 0220                tst.w      [0x00000220 /* MemErr */]
00001082  6706                     beq        +0x8 /* 0000108A */
00001084  3F3C 0001                move.w     -[A7], 0x1
00001088  A9C8                     syscall    SysBeep
label0000108A:
0000108A  42A7                     clr.l      -[A7]
0000108C  2F39 FFFF 7D6A           move.l     -[A7], [0xFFFF7D6A]
00001092  A9CB                     syscall    TEGetText
00001094  23DF FFFF 9088           move.l     [0xFFFF9088], [A7]+
0000109A  4267                     clr.w      -[A7]
0000109C  2F3C FFFF 9088           move.l     -[A7], 0xFFFF9088
000010A2  4EAD 0452                jsr        [A5 + 0x452 /* export_134, CODE:7 @ 000029AC */]
000010A6  4A5F                     tst.w      [A7]+
000010A8  6706                     beq        +0x8 /* 000010B0 */
000010AA  3F3C 0001                move.w     -[A7], 0x1
000010AE  A9C8                     syscall    SysBeep
label000010B0:
000010B0  2079 FFFF 7D6A           movea.l    A0, [0xFFFF7D6A]
000010B6  2850                     movea.l    A4, [A0]
000010B8  326C 0020                movea.w    A1, [A4 + 0x20]
000010BC  23C9 FFFF 908E           move.l     [0xFFFF908E], A1
000010C2  306C 0022                movea.w    A0, [A4 + 0x22]
000010C6  23C8 FFFF 9092           move.l     [0xFFFF9092], A0
000010CC  33FC 0001 FFFF 9238      move.w     [0xFFFF9238], 0x1
000010D4  285F                     movea.l    A4, [A7]+
000010D6  4E75                     rts
fn000010D8:
000010D8  4EBA FF94                jsr        [PC - 0x6C /* 0000106E */]
000010DC  2F39 FFFF 7D6A           move.l     -[A7], [0xFFFF7D6A]
000010E2  A9D6                     syscall    TECut
000010E4  4E75                     rts
fn000010E6:
000010E6  2F0C                     move.l     -[A7], A4
000010E8  2079 FFFF 7D6A           movea.l    A0, [0xFFFF7D6A]
000010EE  2850                     movea.l    A4, [A0]
000010F0  302C 0020                move.w     D0, [A4 + 0x20]
000010F4  B06C 0022                cmp.w      D0, [A4 + 0x22]
000010F8  6608                     bne        +0xA /* 00001102 */
000010FA  3F3C 0001                move.w     -[A7], 0x1
000010FE  A9C8                     syscall    SysBeep
00001100  6008                     bra        +0xA /* 0000110A */
label00001102:
00001102  2F39 FFFF 7D6A           move.l     -[A7], [0xFFFF7D6A]
00001108  A9D5                     syscall    TECopy
label0000110A:
0000110A  285F                     movea.l    A4, [A7]+
0000110C  4E75                     rts
fn0000110E:
0000110E  4EBA FF5E                jsr        [PC - 0xA2 /* 0000106E */]
00001112  2F39 FFFF 7D6A           move.l     -[A7], [0xFFFF7D6A]
00001118  A9DB                     syscall    TEPaste
0000111A  4E75                     rts
fn0000111C:
0000111C  4EBA FF50                jsr        [PC - 0xB0 /* 0000106E */]
00001120  2F39 FFFF 7D6A           move.l     -[A7], [0xFFFF7D6A]
00001126  A9D7                     syscall    TEDelete
00001128  4E75                     rts
fn0000112A:
0000112A  4E56 FFF4                link       A6, -0x000C
0000112E  48E7 0308                movem.l    -[A7], D6,D7,A4
00001132  33FC 0001 FFFF 908C      move.w     [0xFFFF908C], 0x1
0000113A  42A7                     clr.l      -[A7]
0000113C  2F39 FFFF 7D6A           move.l     -[A7], [0xFFFF7D6A]
00001142  A9CB                     syscall    TEGetText
00001144  2D5F FFFC                move.l     [A6 - 0x4], [A7]+
00001148  4267                     clr.w      -[A7]
0000114A  486E FFFC                pea.l      [A6 - 0x4]
0000114E  4EAD 0452                jsr        [A5 + 0x452 /* export_134, CODE:7 @ 000029AC */]
00001152  4A5F                     tst.w      [A7]+
00001154  6706                     beq        +0x8 /* 0000115C */
00001156  3F3C 0001                move.w     -[A7], 0x1
0000115A  A9C8                     syscall    SysBeep
label0000115C:
0000115C  2079 FFFF 7D6A           movea.l    A0, [0xFFFF7D6A]
00001162  2850                     movea.l    A4, [A0]
00001164  3E2C 0020                move.w     D7, [A4 + 0x20]
00001168  48C7                     ext.l      D7
0000116A  3C2C 0022                move.w     D6, [A4 + 0x22]
0000116E  48C6                     ext.l      D6
00001170  2079 FFFF 9088           movea.l    A0, [0xFFFF9088]
00001176  A029                     syscall    HLock
00001178  2079 FFFF 9088           movea.l    A0, [0xFFFF9088]
0000117E  2F10                     move.l     -[A7], [A0]
00001180  42A7                     clr.l      -[A7]
00001182  2F08                     move.l     -[A7], A0
00001184  4EAD 03BA                jsr        [A5 + 0x3BA /* export_115, CODE:7 @ 0000272A */]
00001188  2F39 FFFF 7D6A           move.l     -[A7], [0xFFFF7D6A]
0000118E  A9CF                     syscall    TESetText
00001190  2079 FFFF 9088           movea.l    A0, [0xFFFF9088]
00001196  A02A                     syscall    HUnlock
00001198  2079 FFFF 9088           movea.l    A0, [0xFFFF9088]
0000119E  A023                     syscall    DisposHandle/DisposeHandle
000011A0  4A78 0220                tst.w      [0x00000220 /* MemErr */]
000011A4  6706                     beq        +0x8 /* 000011AC */
000011A6  3F3C 0001                move.w     -[A7], 0x1
000011AA  A9C8                     syscall    SysBeep
label000011AC:
000011AC  2F39 FFFF 908E           move.l     -[A7], [0xFFFF908E]
000011B2  2F39 FFFF 9092           move.l     -[A7], [0xFFFF9092]
000011B8  2F39 FFFF 7D6A           move.l     -[A7], [0xFFFF7D6A]
000011BE  A9D1                     syscall    TESetSelect
000011C0  23EE FFFC FFFF 9088      move.l     [0xFFFF9088], [A6 - 0x4]
000011C8  23C7 FFFF 908E           move.l     [0xFFFF908E], D7
000011CE  23C6 FFFF 9092           move.l     [0xFFFF9092], D6
000011D4  4EBA FD54                jsr        [PC - 0x2AC /* 00000F2A */]
000011D8  3D7C 002D FFF4           move.w     [A6 - 0xC], 0x2D /* '-' */
000011DE  3D7C 0037 FFF8           move.w     [A6 - 0x8], 0x37 /* '7' */
000011E4  3D7C 01A4 FFF6           move.w     [A6 - 0xA], 0x1A4
000011EA  3D7C 01EA FFFA           move.w     [A6 - 0x6], 0x1EA
000011F0  486E FFF4                pea.l      [A6 - 0xC]
000011F4  A928                     syscall    InvalRect
000011F6  2079 FFFF 7D6A           movea.l    A0, [0xFFFF7D6A]
000011FC  2050                     movea.l    A0, [A0]
000011FE  4868 0008                pea.l      [A0 + 0x8]
00001202  A928                     syscall    InvalRect
00001204  4CDF 10C0                movem.l    D6,D7,A4, [A7]+
00001208  4E5E                     unlink     A6
0000120A  4E75                     rts
fn0000120C:
0000120C  2F0C                     move.l     -[A7], A4
0000120E  4A79 FFFF 908C           tst.w      [0xFFFF908C]
00001214  675C                     beq        +0x5E /* 00001272 */
00001216  4279 FFFF 908C           clr.w      [0xFFFF908C]
0000121C  2079 FFFF 9088           movea.l    A0, [0xFFFF9088]
00001222  A023                     syscall    DisposHandle/DisposeHandle
00001224  4A78 0220                tst.w      [0x00000220 /* MemErr */]
00001228  6706                     beq        +0x8 /* 00001230 */
0000122A  3F3C 0001                move.w     -[A7], 0x1
0000122E  A9C8                     syscall    SysBeep
label00001230:
00001230  42A7                     clr.l      -[A7]
00001232  2F39 FFFF 7D6A           move.l     -[A7], [0xFFFF7D6A]
00001238  A9CB                     syscall    TEGetText
0000123A  23DF FFFF 9088           move.l     [0xFFFF9088], [A7]+
00001240  4267                     clr.w      -[A7]
00001242  2F3C FFFF 9088           move.l     -[A7], 0xFFFF9088
00001248  4EAD 0452                jsr        [A5 + 0x452 /* export_134, CODE:7 @ 000029AC */]
0000124C  4A5F                     tst.w      [A7]+
0000124E  6706                     beq        +0x8 /* 00001256 */
00001250  3F3C 0001                move.w     -[A7], 0x1
00001254  A9C8                     syscall    SysBeep
label00001256:
00001256  2079 FFFF 7D6A           movea.l    A0, [0xFFFF7D6A]
0000125C  2850                     movea.l    A4, [A0]
0000125E  326C 0020                movea.w    A1, [A4 + 0x20]
00001262  23C9 FFFF 908E           move.l     [0xFFFF908E], A1
00001268  306C 0022                movea.w    A0, [A4 + 0x22]
0000126C  23C8 FFFF 9092           move.l     [0xFFFF9092], A0
label00001272:
00001272  285F                     movea.l    A4, [A7]+
00001274  4E75                     rts
fn00001276:
00001276  4E56 FFF8                link       A6, -0x0008
0000127A  48E7 0718                movem.l    -[A7], D5,D6,D7,A3,A4
0000127E  1E2E 0008                move.b     D7, [A6 + 0x8]
00001282  0C07 0009                cmpi.b     D7, 0x9 /* '\t' */
00001286  666C                     bne        +0x6E /* 000012F4 */
00001288  2079 FFFF 7D6A           movea.l    A0, [0xFFFF7D6A]
0000128E  2050                     movea.l    A0, [A0]
00001290  3E28 005E                move.w     D7, [A0 + 0x5E]
00001294  2079 FFFF 7D6A           movea.l    A0, [0xFFFF7D6A]
0000129A  2050                     movea.l    A0, [A0]
0000129C  3C28 0020                move.w     D6, [A0 + 0x20]
000012A0  2079 FFFF 7D6A           movea.l    A0, [0xFFFF7D6A]
000012A6  7060                     moveq.l    D0, 0x60
000012A8  D090                     add.l      D0, [A0]
000012AA  2840                     movea.l    A4, D0
000012AC  3647                     movea.w    A3, D7
000012AE  D7CB                     add.l      A3, A3
000012B0  6004                     bra        +0x6 /* 000012B6 */
label000012B2:
000012B2  5347                     subq.w     D7, 1
000012B4  558B                     subq.l     A3, 2
label000012B6:
000012B6  204C                     movea.l    A0, A4
000012B8  D1CB                     add.l      A0, A3
000012BA  BC50                     cmp.w      D6, [A0]
000012BC  6DF4                     blt        -0xA /* 000012B2 */
000012BE  204C                     movea.l    A0, A4
000012C0  D0C7                     add.w      A0, D7
000012C2  3A06                     move.w     D5, D6
000012C4  9A70 7000                sub.w      D5, [A0 + D7.w]
000012C8  2005                     move.l     D0, D5
000012CA  48C0                     ext.l      D0
000012CC  81FC 0004                divs.w     D0, 0x4
000012D0  4840                     swap.w     D0
000012D2  7C04                     moveq.l    D6, 0x04
000012D4  9C40                     sub.w      D6, D0
000012D6  7E00                     moveq.l    D7, 0x00
000012D8  600E                     bra        +0x10 /* 000012E8 */
label000012DA:
000012DA  3F3C 0020                move.w     -[A7], 0x20 /* ' ' */
000012DE  2F39 FFFF 7D6A           move.l     -[A7], [0xFFFF7D6A]
000012E4  A9DC                     syscall    TEKey
000012E6  5247                     addq.w     D7, 1
label000012E8:
000012E8  BC47                     cmp.w      D6, D7
000012EA  6EEE                     bgt        -0x10 /* 000012DA */
000012EC  4EBA FF1E                jsr        [PC - 0xE2 /* 0000120C */]
000012F0  6000 00D8                bra        +0xDA /* 000013CA */
label000012F4:
000012F4  0C07 007F                cmpi.b     D7, 0x7F
000012F8  665C                     bne        +0x5E /* 00001356 */
000012FA  2079 FFFF 7D6A           movea.l    A0, [0xFFFF7D6A]
00001300  2050                     movea.l    A0, [A0]
00001302  2279 FFFF 7D6A           movea.l    A1, [0xFFFF7D6A]
00001308  2251                     movea.l    A1, [A1]
0000130A  3028 0020                move.w     D0, [A0 + 0x20]
0000130E  B069 0022                cmp.w      D0, [A1 + 0x22]
00001312  6708                     beq        +0xA /* 0000131C */
00001314  4EBA FE06                jsr        [PC - 0x1FA /* 0000111C */]
00001318  6000 00B0                bra        +0xB2 /* 000013CA */
label0000131C:
0000131C  2079 FFFF 7D6A           movea.l    A0, [0xFFFF7D6A]
00001322  2050                     movea.l    A0, [A0]
00001324  3068 0020                movea.w    A0, [A0 + 0x20]
00001328  4868 0001                pea.l      [A0 + 0x1]
0000132C  2079 FFFF 7D6A           movea.l    A0, [0xFFFF7D6A]
00001332  2050                     movea.l    A0, [A0]
00001334  3068 0020                movea.w    A0, [A0 + 0x20]
00001338  4868 0001                pea.l      [A0 + 0x1]
0000133C  2F39 FFFF 7D6A           move.l     -[A7], [0xFFFF7D6A]
00001342  A9D1                     syscall    TESetSelect
00001344  3F3C 0008                move.w     -[A7], 0x8
00001348  2F39 FFFF 7D6A           move.l     -[A7], [0xFFFF7D6A]
0000134E  A9DC                     syscall    TEKey
00001350  4EBA FEBA                jsr        [PC - 0x146 /* 0000120C */]
00001354  6074                     bra        +0x76 /* 000013CA */
label00001356:
00001356  0C07 0008                cmpi.b     D7, 0x8
0000135A  6632                     bne        +0x34 /* 0000138E */
0000135C  2079 FFFF 7D6A           movea.l    A0, [0xFFFF7D6A]
00001362  2050                     movea.l    A0, [A0]
00001364  2279 FFFF 7D6A           movea.l    A1, [0xFFFF7D6A]
0000136A  2251                     movea.l    A1, [A1]
0000136C  3028 0020                move.w     D0, [A0 + 0x20]
00001370  B069 0022                cmp.w      D0, [A1 + 0x22]
00001374  6706                     beq        +0x8 /* 0000137C */
00001376  4EBA FDA4                jsr        [PC - 0x25C /* 0000111C */]
0000137A  604E                     bra        +0x50 /* 000013CA */
label0000137C:
0000137C  3F3C 0008                move.w     -[A7], 0x8
00001380  2F39 FFFF 7D6A           move.l     -[A7], [0xFFFF7D6A]
00001386  A9DC                     syscall    TEKey
00001388  4EBA FE82                jsr        [PC - 0x17E /* 0000120C */]
0000138C  603C                     bra        +0x3E /* 000013CA */
label0000138E:
0000138E  0C07 0003                cmpi.b     D7, 0x3
00001392  6612                     bne        +0x14 /* 000013A6 */
00001394  3F3C 000D                move.w     -[A7], 0xD /* '\r' */
00001398  2F39 FFFF 7D6A           move.l     -[A7], [0xFFFF7D6A]
0000139E  A9DC                     syscall    TEKey
000013A0  4EBA FE6A                jsr        [PC - 0x196 /* 0000120C */]
000013A4  6024                     bra        +0x26 /* 000013CA */
label000013A6:
000013A6  0C07 001C                cmpi.b     D7, 0x1C
000013AA  6C0C                     bge        +0xE /* 000013B8 */
000013AC  0C07 000D                cmpi.b     D7, 0xD /* '\r' */
000013B0  6706                     beq        +0x8 /* 000013B8 */
000013B2  0C07 0008                cmpi.b     D7, 0x8
000013B6  6612                     bne        +0x14 /* 000013CA */
label000013B8:
000013B8  1007                     move.b     D0, D7
000013BA  4880                     ext.w      D0
000013BC  3F00                     move.w     -[A7], D0
000013BE  2F39 FFFF 7D6A           move.l     -[A7], [0xFFFF7D6A]
000013C4  A9DC                     syscall    TEKey
000013C6  4EBA FE44                jsr        [PC - 0x1BC /* 0000120C */]
label000013CA:
000013CA  33FC 0001 FFFF 9238      move.w     [0xFFFF9238], 0x1
000013D2  4EBA FB56                jsr        [PC - 0x4AA /* 00000F2A */]
000013D6  3D7C 002D FFF8           move.w     [A6 - 0x8], 0x2D /* '-' */
000013DC  3D7C 0037 FFFC           move.w     [A6 - 0x4], 0x37 /* '7' */
000013E2  3D7C 01A4 FFFA           move.w     [A6 - 0x6], 0x1A4
000013E8  3D7C 01EA FFFE           move.w     [A6 - 0x2], 0x1EA
000013EE  486E FFF8                pea.l      [A6 - 0x8]
000013F2  A928                     syscall    InvalRect
000013F4  4CDF 18E0                movem.l    D5,D6,D7,A3,A4, [A7]+
000013F8  4E5E                     unlink     A6
000013FA  4E75                     rts
fn000013FC:
000013FC  4E56 FFFC                link       A6, -0x0004
00001400  48E7 0108                movem.l    -[A7], D7,A4
00001404  2F39 FFFF 7D6A           move.l     -[A7], [0xFFFF7D6A]
0000140A  A9DA                     syscall    TEIdle
0000140C  486E FFFC                pea.l      [A6 - 0x4]
00001410  A972                     syscall    GetMouse
00001412  4227                     clr.b      -[A7]
00001414  2F2E FFFC                move.l     -[A7], [A6 - 0x4]
00001418  2079 FFFF 7D6A           movea.l    A0, [0xFFFF7D6A]
0000141E  2050                     movea.l    A0, [A0]
00001420  4868 0008                pea.l      [A0 + 0x8]
00001424  A8AD                     syscall    PtInRect
00001426  4A1F                     tst.b      [A7]+
00001428  670C                     beq        +0xE /* 00001436 */
0000142A  2079 FFFF 7D72           movea.l    A0, [0xFFFF7D72]
00001430  2F10                     move.l     -[A7], [A0]
00001432  A851                     syscall    SetCursor
00001434  6008                     bra        +0xA /* 0000143E */
label00001436:
00001436  2F3C FFFF FA60           move.l     -[A7], 0xFFFFFA60
0000143C  A851                     syscall    SetCursor
label0000143E:
0000143E  2079 FFFF 7D6A           movea.l    A0, [0xFFFF7D6A]
00001444  2850                     movea.l    A4, [A0]
00001446  7EE5                     moveq.l    D7, 0xFFFFFFE5
00001448  DE6C 005E                add.w      D7, [A4 + 0x5E]
0000144C  4A6C 003C                tst.w      [A4 + 0x3C]
00001450  6F12                     ble        +0x14 /* 00001464 */
00001452  206C 003E                movea.l    A0, [A4 + 0x3E]
00001456  326C 003C                movea.w    A1, [A4 + 0x3C]
0000145A  D3D0                     add.l      A1, [A0]
0000145C  0C21 000D                cmpi.b     -[A1], 0xD /* '\r' */
00001460  6602                     bne        +0x4 /* 00001464 */
00001462  5247                     addq.w     D7, 1
label00001464:
00001464  2F39 FFFF 9064           move.l     -[A7], [0xFFFF9064]
0000146A  4A47                     tst.w      D7
0000146C  6F04                     ble        +0x6 /* 00001472 */
0000146E  3007                     move.w     D0, D7
00001470  6002                     bra        +0x4 /* 00001474 */
label00001472:
00001472  7000                     moveq.l    D0, 0x00
label00001474:
00001474  3F00                     move.w     -[A7], D0
00001476  A965                     syscall    SetControlMaximum/SetMaxCtl
00001478  4CDF 1080                movem.l    D7,A4, [A7]+
0000147C  4E5E                     unlink     A6
0000147E  4E75                     rts
export_10:
fn00001480:
00001480  4E56 0000                link       A6, 0
00001484  48E7 0018                movem.l    -[A7], A3,A4
00001488  266E 0008                movea.l    A3, [A6 + 0x8]
0000148C  49EB 000E                lea.l      A4, [A3 + 0xE]
00001490  4254                     clr.w      [A4]
00001492  3013                     move.w     D0, [A3]
00001494  6B2C                     bmi        +0x2E /* 000014C2 */
00001496  0440 0064                subi.w     D0, 0x64 /* 'd' */
0000149A  671E                     beq        +0x20 /* 000014BA */
0000149C  6A10                     bpl        +0x12 /* 000014AE */
0000149E  0440 FFD8                subi.w     D0, 0xFFD8
000014A2  671A                     beq        +0x1C /* 000014BE */
000014A4  6A1C                     bpl        +0x1E /* 000014C2 */
000014A6  0440 FFEC                subi.w     D0, 0xFFEC
000014AA  671A                     beq        +0x1C /* 000014C6 */
000014AC  6014                     bra        +0x16 /* 000014C2 */
label000014AE:
000014AE  0440 0032                subi.w     D0, 0x32 /* '2' */
000014B2  6702                     beq        +0x4 /* 000014B6 */
000014B4  600C                     bra        +0xE /* 000014C2 */
label000014B6:
000014B6  5654                     addq.w     [A4], 3
000014B8  600C                     bra        +0xE /* 000014C6 */
label000014BA:
000014BA  5454                     addq.w     [A4], 2
000014BC  6008                     bra        +0xA /* 000014C6 */
label000014BE:
000014BE  5254                     addq.w     [A4], 1
000014C0  6004                     bra        +0x6 /* 000014C6 */
label000014C2:
000014C2  0654 0064                addi.w     [A4], 0x64 /* 'd' */
label000014C6:
000014C6  302B 0002                move.w     D0, [A3 + 0x2]
000014CA  6B2C                     bmi        +0x2E /* 000014F8 */
000014CC  0440 0064                subi.w     D0, 0x64 /* 'd' */
000014D0  671E                     beq        +0x20 /* 000014F0 */
000014D2  6A10                     bpl        +0x12 /* 000014E4 */
000014D4  0440 FFD8                subi.w     D0, 0xFFD8
000014D8  671A                     beq        +0x1C /* 000014F4 */
000014DA  6A1C                     bpl        +0x1E /* 000014F8 */
000014DC  0440 FFE2                subi.w     D0, 0xFFE2
000014E0  671A                     beq        +0x1C /* 000014FC */
000014E2  6014                     bra        +0x16 /* 000014F8 */
label000014E4:
000014E4  0440 0032                subi.w     D0, 0x32 /* '2' */
000014E8  6702                     beq        +0x4 /* 000014EC */
000014EA  600C                     bra        +0xE /* 000014F8 */
label000014EC:
000014EC  5654                     addq.w     [A4], 3
000014EE  600C                     bra        +0xE /* 000014FC */
label000014F0:
000014F0  5454                     addq.w     [A4], 2
000014F2  6008                     bra        +0xA /* 000014FC */
label000014F4:
000014F4  5254                     addq.w     [A4], 1
000014F6  6004                     bra        +0x6 /* 000014FC */
label000014F8:
000014F8  0654 0064                addi.w     [A4], 0x64 /* 'd' */
label000014FC:
000014FC  302B 0004                move.w     D0, [A3 + 0x4]
00001500  672A                     beq        +0x2C /* 0000152C */
00001502  6B24                     bmi        +0x26 /* 00001528 */
00001504  0440 0032                subi.w     D0, 0x32 /* '2' */
00001508  6716                     beq        +0x18 /* 00001520 */
0000150A  6A08                     bpl        +0xA /* 00001514 */
0000150C  0440 FFE7                subi.w     D0, 0xFFE7
00001510  6712                     beq        +0x14 /* 00001524 */
00001512  6014                     bra        +0x16 /* 00001528 */
label00001514:
00001514  0440 0032                subi.w     D0, 0x32 /* '2' */
00001518  6702                     beq        +0x4 /* 0000151C */
0000151A  600C                     bra        +0xE /* 00001528 */
label0000151C:
0000151C  5654                     addq.w     [A4], 3
0000151E  600C                     bra        +0xE /* 0000152C */
label00001520:
00001520  5454                     addq.w     [A4], 2
00001522  6008                     bra        +0xA /* 0000152C */
label00001524:
00001524  5254                     addq.w     [A4], 1
00001526  6004                     bra        +0x6 /* 0000152C */
label00001528:
00001528  0654 0064                addi.w     [A4], 0x64 /* 'd' */
label0000152C:
0000152C  302B 0006                move.w     D0, [A3 + 0x6]
00001530  6B34                     bmi        +0x36 /* 00001566 */
00001532  0440 000F                subi.w     D0, 0xF
00001536  6726                     beq        +0x28 /* 0000155E */
00001538  6A0C                     bpl        +0xE /* 00001546 */
0000153A  5A40                     addq.w     D0, 5
0000153C  6724                     beq        +0x26 /* 00001562 */
0000153E  6A26                     bpl        +0x28 /* 00001566 */
00001540  5A40                     addq.w     D0, 5
00001542  6726                     beq        +0x28 /* 0000156A */
00001544  6020                     bra        +0x22 /* 00001566 */
label00001546:
00001546  0440 0023                subi.w     D0, 0x23 /* '#' */
0000154A  670A                     beq        +0xC /* 00001556 */
0000154C  6A18                     bpl        +0x1A /* 00001566 */
0000154E  0440 FFEC                subi.w     D0, 0xFFEC
00001552  6706                     beq        +0x8 /* 0000155A */
00001554  6010                     bra        +0x12 /* 00001566 */
label00001556:
00001556  5854                     addq.w     [A4], 4
00001558  6010                     bra        +0x12 /* 0000156A */
label0000155A:
0000155A  5654                     addq.w     [A4], 3
0000155C  600C                     bra        +0xE /* 0000156A */
label0000155E:
0000155E  5454                     addq.w     [A4], 2
00001560  6008                     bra        +0xA /* 0000156A */
label00001562:
00001562  5254                     addq.w     [A4], 1
00001564  6004                     bra        +0x6 /* 0000156A */
label00001566:
00001566  0654 0064                addi.w     [A4], 0x64 /* 'd' */
label0000156A:
0000156A  302B 0008                move.w     D0, [A3 + 0x8]
0000156E  6716                     beq        +0x18 /* 00001586 */
00001570  6B14                     bmi        +0x16 /* 00001586 */
00001572  5740                     subq.w     D0, 3
00001574  6708                     beq        +0xA /* 0000157E */
00001576  6A0E                     bpl        +0x10 /* 00001586 */
00001578  5240                     addq.w     D0, 1
0000157A  6A06                     bpl        +0x8 /* 00001582 */
0000157C  600C                     bra        +0xE /* 0000158A */
label0000157E:
0000157E  5454                     addq.w     [A4], 2
00001580  6008                     bra        +0xA /* 0000158A */
label00001582:
00001582  5254                     addq.w     [A4], 1
00001584  6004                     bra        +0x6 /* 0000158A */
label00001586:
00001586  0654 0064                addi.w     [A4], 0x64 /* 'd' */
label0000158A:
0000158A  4A6B 000A                tst.w      [A3 + 0xA]
0000158E  6702                     beq        +0x4 /* 00001592 */
00001590  5254                     addq.w     [A4], 1
label00001592:
00001592  4A6B 000C                tst.w      [A3 + 0xC]
00001596  6702                     beq        +0x4 /* 0000159A */
00001598  5254                     addq.w     [A4], 1
label0000159A:
0000159A  4A6B 0014                tst.w      [A3 + 0x14]
0000159E  6702                     beq        +0x4 /* 000015A2 */
000015A0  5254                     addq.w     [A4], 1
label000015A2:
000015A2  4A6B 0012                tst.w      [A3 + 0x12]
000015A6  6702                     beq        +0x4 /* 000015AA */
000015A8  5254                     addq.w     [A4], 1
label000015AA:
000015AA  4A6B 0016                tst.w      [A3 + 0x16]
000015AE  6702                     beq        +0x4 /* 000015B2 */
000015B0  5254                     addq.w     [A4], 1
label000015B2:
000015B2  4A6B 0010                tst.w      [A3 + 0x10]
000015B6  6702                     beq        +0x4 /* 000015BA */
000015B8  5254                     addq.w     [A4], 1
label000015BA:
000015BA  4A6B 0018                tst.w      [A3 + 0x18]
000015BE  6702                     beq        +0x4 /* 000015C2 */
000015C0  5254                     addq.w     [A4], 1
label000015C2:
000015C2  4CDF 1800                movem.l    A3,A4, [A7]+
000015C6  4E5E                     unlink     A6
000015C8  4E75                     rts
fn000015CA:
000015CA  4E56 FFFE                link       A6, -0x0002
000015CE  2F0C                     move.l     -[A7], A4
000015D0  286E 0008                movea.l    A4, [A6 + 0x8]
000015D4  426C 000E                clr.w      [A4 + 0xE]
000015D8  3039 FFFF 7888           move.w     D0, [0xFFFF7888]
000015DE  670E                     beq        +0x10 /* 000015EE */
000015E0  6B22                     bmi        +0x24 /* 00001604 */
000015E2  5740                     subq.w     D0, 3
000015E4  671A                     beq        +0x1C /* 00001600 */
000015E6  6A1C                     bpl        +0x1E /* 00001604 */
000015E8  5240                     addq.w     D0, 1
000015EA  6A0E                     bpl        +0x10 /* 000015FA */
000015EC  6006                     bra        +0x8 /* 000015F4 */
label000015EE:
000015EE  38BC 0096                move.w     [A4], 0x96
000015F2  6010                     bra        +0x12 /* 00001604 */
label000015F4:
000015F4  38BC 0064                move.w     [A4], 0x64 /* 'd' */
000015F8  600A                     bra        +0xC /* 00001604 */
label000015FA:
000015FA  38BC 003C                move.w     [A4], 0x3C /* '<' */
000015FE  6004                     bra        +0x6 /* 00001604 */
label00001600:
00001600  38BC 0028                move.w     [A4], 0x28 /* '(' */
label00001604:
00001604  3039 FFFF 788A           move.w     D0, [0xFFFF788A]
0000160A  6B32                     bmi        +0x34 /* 0000163E */
0000160C  5D40                     subq.w     D0, 6
0000160E  6720                     beq        +0x22 /* 00001630 */
00001610  6A08                     bpl        +0xA /* 0000161A */
00001612  5440                     addq.w     D0, 2
00001614  670A                     beq        +0xC /* 00001620 */
00001616  6A10                     bpl        +0x12 /* 00001628 */
00001618  6024                     bra        +0x26 /* 0000163E */
label0000161A:
0000161A  5540                     subq.w     D0, 2
0000161C  6A20                     bpl        +0x22 /* 0000163E */
0000161E  6018                     bra        +0x1A /* 00001638 */
label00001620:
00001620  397C 0096 0002           move.w     [A4 + 0x2], 0x96
00001626  6016                     bra        +0x18 /* 0000163E */
label00001628:
00001628  397C 0064 0002           move.w     [A4 + 0x2], 0x64 /* 'd' */
0000162E  600E                     bra        +0x10 /* 0000163E */
label00001630:
00001630  397C 003C 0002           move.w     [A4 + 0x2], 0x3C /* '<' */
00001636  6006                     bra        +0x8 /* 0000163E */
label00001638:
00001638  397C 001E 0002           move.w     [A4 + 0x2], 0x1E
label0000163E:
0000163E  3039 FFFF 788C           move.w     D0, [0xFFFF788C]
00001644  6B32                     bmi        +0x34 /* 00001678 */
00001646  0440 000A                subi.w     D0, 0xA /* '\n' */
0000164A  6720                     beq        +0x22 /* 0000166C */
0000164C  6A08                     bpl        +0xA /* 00001656 */
0000164E  5440                     addq.w     D0, 2
00001650  670A                     beq        +0xC /* 0000165C */
00001652  6A10                     bpl        +0x12 /* 00001664 */
00001654  6022                     bra        +0x24 /* 00001678 */
label00001656:
00001656  5540                     subq.w     D0, 2
00001658  6A1E                     bpl        +0x20 /* 00001678 */
0000165A  6018                     bra        +0x1A /* 00001674 */
label0000165C:
0000165C  397C 0064 0004           move.w     [A4 + 0x4], 0x64 /* 'd' */
00001662  6014                     bra        +0x16 /* 00001678 */
label00001664:
00001664  397C 0032 0004           move.w     [A4 + 0x4], 0x32 /* '2' */
0000166A  600C                     bra        +0xE /* 00001678 */
label0000166C:
0000166C  397C 0019 0004           move.w     [A4 + 0x4], 0x19
00001672  6004                     bra        +0x6 /* 00001678 */
label00001674:
00001674  426C 0004                clr.w      [A4 + 0x4]
label00001678:
00001678  3039 FFFF 788E           move.w     D0, [0xFFFF788E]
0000167E  6B3E                     bmi        +0x40 /* 000016BE */
00001680  0440 000E                subi.w     D0, 0xE
00001684  6722                     beq        +0x24 /* 000016A8 */
00001686  6A08                     bpl        +0xA /* 00001690 */
00001688  5440                     addq.w     D0, 2
0000168A  670C                     beq        +0xE /* 00001698 */
0000168C  6A12                     bpl        +0x14 /* 000016A0 */
0000168E  602E                     bra        +0x30 /* 000016BE */
label00001690:
00001690  5540                     subq.w     D0, 2
00001692  6724                     beq        +0x26 /* 000016B8 */
00001694  6A28                     bpl        +0x2A /* 000016BE */
00001696  6018                     bra        +0x1A /* 000016B0 */
label00001698:
00001698  397C 0032 0006           move.w     [A4 + 0x6], 0x32 /* '2' */
0000169E  601E                     bra        +0x20 /* 000016BE */
label000016A0:
000016A0  397C 001E 0006           move.w     [A4 + 0x6], 0x1E
000016A6  6016                     bra        +0x18 /* 000016BE */
label000016A8:
000016A8  397C 000F 0006           move.w     [A4 + 0x6], 0xF
000016AE  600E                     bra        +0x10 /* 000016BE */
label000016B0:
000016B0  397C 000A 0006           move.w     [A4 + 0x6], 0xA /* '\n' */
000016B6  6006                     bra        +0x8 /* 000016BE */
label000016B8:
000016B8  397C 0005 0006           move.w     [A4 + 0x6], 0x5
label000016BE:
000016BE  3039 FFFF 7890           move.w     D0, [0xFFFF7890]
000016C4  6B2A                     bmi        +0x2C /* 000016F0 */
000016C6  0440 0012                subi.w     D0, 0x12
000016CA  6716                     beq        +0x18 /* 000016E2 */
000016CC  6A06                     bpl        +0x8 /* 000016D4 */
000016CE  5240                     addq.w     D0, 1
000016D0  6A08                     bpl        +0xA /* 000016DA */
000016D2  601C                     bra        +0x1E /* 000016F0 */
label000016D4:
000016D4  5540                     subq.w     D0, 2
000016D6  6A18                     bpl        +0x1A /* 000016F0 */
000016D8  6010                     bra        +0x12 /* 000016EA */
label000016DA:
000016DA  397C 0003 0008           move.w     [A4 + 0x8], 0x3
000016E0  600E                     bra        +0x10 /* 000016F0 */
label000016E2:
000016E2  397C 0002 0008           move.w     [A4 + 0x8], 0x2
000016E8  6006                     bra        +0x8 /* 000016F0 */
label000016EA:
000016EA  397C 0001 0008           move.w     [A4 + 0x8], 0x1
label000016F0:
000016F0  3039 FFFF 7892           move.w     D0, [0xFFFF7892]
000016F6  6B5A                     bmi        +0x5C /* 00001752 */
000016F8  0440 0015                subi.w     D0, 0x15
000016FC  6726                     beq        +0x28 /* 00001724 */
000016FE  6A06                     bpl        +0x8 /* 00001706 */
00001700  5240                     addq.w     D0, 1
00001702  6A08                     bpl        +0xA /* 0000170C */
00001704  604C                     bra        +0x4E /* 00001752 */
label00001706:
00001706  5540                     subq.w     D0, 2
00001708  6A48                     bpl        +0x4A /* 00001752 */
0000170A  6030                     bra        +0x32 /* 0000173C */
label0000170C:
0000170C  303C 03C2                move.w     D0, 0x3C2
00001710  C1F9 FFFF 9228           muls.w     D0, [0xFFFF9228]
00001716  2040                     movea.l    A0, D0
00001718  D1FC FFFF 9790           add.l      A0, 0xFFFF9790
0000171E  30BC 0001                move.w     [A0], 0x1
00001722  602E                     bra        +0x30 /* 00001752 */
label00001724:
00001724  303C 03C2                move.w     D0, 0x3C2
00001728  C1F9 FFFF 9228           muls.w     D0, [0xFFFF9228]
0000172E  2040                     movea.l    A0, D0
00001730  D1FC FFFF 9790           add.l      A0, 0xFFFF9790
00001736  30BC 0002                move.w     [A0], 0x2
0000173A  6016                     bra        +0x18 /* 00001752 */
label0000173C:
0000173C  303C 03C2                move.w     D0, 0x3C2
00001740  C1F9 FFFF 9228           muls.w     D0, [0xFFFF9228]
00001746  2040                     movea.l    A0, D0
00001748  D1FC FFFF 9790           add.l      A0, 0xFFFF9790
0000174E  30BC 0003                move.w     [A0], 0x3
label00001752:
00001752  4267                     clr.w      -[A7]
00001754  2F39 FFFF 7870           move.l     -[A7], [0xFFFF7870]
0000175A  A960                     syscall    GetControlValue/GetCtlValue
0000175C  395F 000A                move.w     [A4 + 0xA], [A7]+
00001760  4267                     clr.w      -[A7]
00001762  2F39 FFFF 7874           move.l     -[A7], [0xFFFF7874]
00001768  A960                     syscall    GetControlValue/GetCtlValue
0000176A  395F 000C                move.w     [A4 + 0xC], [A7]+
0000176E  4267                     clr.w      -[A7]
00001770  2F39 FFFF 7878           move.l     -[A7], [0xFFFF7878]
00001776  A960                     syscall    GetControlValue/GetCtlValue
00001778  395F 0012                move.w     [A4 + 0x12], [A7]+
0000177C  4267                     clr.w      -[A7]
0000177E  2F39 FFFF 787C           move.l     -[A7], [0xFFFF787C]
00001784  A960                     syscall    GetControlValue/GetCtlValue
00001786  395F 0016                move.w     [A4 + 0x16], [A7]+
0000178A  4267                     clr.w      -[A7]
0000178C  2F39 FFFF 7880           move.l     -[A7], [0xFFFF7880]
00001792  A960                     syscall    GetControlValue/GetCtlValue
00001794  395F 0018                move.w     [A4 + 0x18], [A7]+
00001798  4267                     clr.w      -[A7]
0000179A  2F39 FFFF 7884           move.l     -[A7], [0xFFFF7884]
000017A0  A960                     syscall    GetControlValue/GetCtlValue
000017A2  395F 001A                move.w     [A4 + 0x1A], [A7]+
000017A6  2F0C                     move.l     -[A7], A4
000017A8  4EBA FCD6                jsr        [PC - 0x32A /* 00001480 */]
000017AC  286E FFFA                movea.l    A4, [A6 - 0x6]
000017B0  4E5E                     unlink     A6
000017B2  4E75                     rts
fn000017B4:
000017B4  4E56 FFF8                link       A6, -0x0008
000017B8  48E7 0108                movem.l    -[A7], D7,A4
000017BC  7E00                     moveq.l    D7, 0x00
000017BE  287C FFFF 7814           movea.l    A4, 0xFFFF7814
000017C4  6000 00D8                bra        +0xDA /* 0000189E */
label000017C8:
000017C8  0C47 000C                cmpi.w     D7, 0xC
000017CC  6C38                     bge        +0x3A /* 00001806 */
000017CE  3D7C 0019 FFFA           move.w     [A6 - 0x6], 0x19
000017D4  3D7C 0085 FFFE           move.w     [A6 - 0x2], 0x85
000017DA  0C47 0003                cmpi.w     D7, 0x3
000017DE  5EC0                     sgt        D0
000017E0  4400                     neg.b      D0
000017E2  4880                     ext.w      D0
000017E4  7202                     moveq.l    D1, 0x02
000017E6  D247                     add.w      D1, D7
000017E8  D040                     add.w      D0, D0
000017EA  D240                     add.w      D1, D0
000017EC  0C47 0007                cmpi.w     D7, 0x7
000017F0  5EC0                     sgt        D0
000017F2  4400                     neg.b      D0
000017F4  4880                     ext.w      D0
000017F6  D040                     add.w      D0, D0
000017F8  D240                     add.w      D1, D0
000017FA  C3FC 000F                muls.w     D1, 0xF
000017FE  5741                     subq.w     D1, 3
00001800  3D41 FFF8                move.w     [A6 - 0x8], D1
00001804  604C                     bra        +0x4E /* 00001852 */
label00001806:
00001806  0C47 0014                cmpi.w     D7, 0x14
0000180A  6C2A                     bge        +0x2C /* 00001836 */
0000180C  3D7C 00AF FFFA           move.w     [A6 - 0x6], 0xAF
00001812  3D7C 011B FFFE           move.w     [A6 - 0x2], 0x11B
00001818  0C47 0010                cmpi.w     D7, 0x10
0000181C  5EC0                     sgt        D0
0000181E  4400                     neg.b      D0
00001820  4880                     ext.w      D0
00001822  72F6                     moveq.l    D1, 0xFFFFFFF6
00001824  D247                     add.w      D1, D7
00001826  D040                     add.w      D0, D0
00001828  D240                     add.w      D1, D0
0000182A  C3FC 000F                muls.w     D1, 0xF
0000182E  5741                     subq.w     D1, 3
00001830  3D41 FFF8                move.w     [A6 - 0x8], D1
00001834  601C                     bra        +0x1E /* 00001852 */
label00001836:
00001836  3D7C 013B FFFA           move.w     [A6 - 0x6], 0x13B
0000183C  3D7C 01C2 FFFE           move.w     [A6 - 0x2], 0x1C2
00001842  70EC                     moveq.l    D0, 0xFFFFFFEC
00001844  D047                     add.w      D0, D7
00001846  C1FC 000F                muls.w     D0, 0xF
0000184A  0640 006F                addi.w     D0, 0x6F /* 'o' */
0000184E  3D40 FFF8                move.w     [A6 - 0x8], D0
label00001852:
00001852  700F                     moveq.l    D0, 0x0F
00001854  D06E FFF8                add.w      D0, [A6 - 0x8]
00001858  3D40 FFFC                move.w     [A6 - 0x4], D0
0000185C  42A7                     clr.l      -[A7]
0000185E  2F39 FFFF 7D56           move.l     -[A7], [0xFFFF7D56]
00001864  486E FFF8                pea.l      [A6 - 0x8]
00001868  2F3C FFFF 9096           move.l     -[A7], 0xFFFF9096
0000186E  42A7                     clr.l      -[A7]
00001870  2F3C 0001 0000           move.l     -[A7], 0x10000
00001876  3F3C 0002                move.w     -[A7], 0x2
0000187A  2F3C 4242 4242           move.l     -[A7], 0x42424242 /* 'BBBB' */
00001880  A954                     syscall    NewControl
00001882  289F                     move.l     [A4], [A7]+
00001884  4A94                     tst.l      [A4]
00001886  6612                     bne        +0x14 /* 0000189A */
00001888  2F3C FFFF 7894           move.l     -[A7], 0xFFFF7894
0000188E  2F3C FFFF 7896           move.l     -[A7], 0xFFFF7896
00001894  4EAD 0222                jsr        [A5 + 0x222 /* export_64, CODE:2 @ 00004DCE */]
00001898  508F                     addq.l     A7, 8
label0000189A:
0000189A  5247                     addq.w     D7, 1
0000189C  588C                     addq.l     A4, 4
label0000189E:
0000189E  0C47 0017                cmpi.w     D7, 0x17
000018A2  6D00 FF24                blt        -0xDA /* 000017C8 */
000018A6  7E00                     moveq.l    D7, 0x00
000018A8  287C FFFF 7870           movea.l    A4, 0xFFFF7870
000018AE  6064                     bra        +0x66 /* 00001914 */
label000018B0:
000018B0  3D7C 00AF FFFA           move.w     [A6 - 0x6], 0xAF
000018B6  3D7C 011B FFFE           move.w     [A6 - 0x2], 0x11B
000018BC  700F                     moveq.l    D0, 0x0F
000018BE  C1C7                     muls.w     D0, D7
000018C0  0640 00D0                addi.w     D0, 0xD0
000018C4  3D40 FFF8                move.w     [A6 - 0x8], D0
000018C8  700F                     moveq.l    D0, 0x0F
000018CA  D06E FFF8                add.w      D0, [A6 - 0x8]
000018CE  3D40 FFFC                move.w     [A6 - 0x4], D0
000018D2  42A7                     clr.l      -[A7]
000018D4  2F39 FFFF 7D56           move.l     -[A7], [0xFFFF7D56]
000018DA  486E FFF8                pea.l      [A6 - 0x8]
000018DE  2F3C FFFF 9096           move.l     -[A7], 0xFFFF9096
000018E4  42A7                     clr.l      -[A7]
000018E6  2F3C 0001 0000           move.l     -[A7], 0x10000
000018EC  3F3C 0001                move.w     -[A7], 0x1
000018F0  2F3C 2424 2424           move.l     -[A7], 0x24242424 /* '$$$$' */
000018F6  A954                     syscall    NewControl
000018F8  289F                     move.l     [A4], [A7]+
000018FA  4A94                     tst.l      [A4]
000018FC  6612                     bne        +0x14 /* 00001910 */
000018FE  2F3C FFFF 78B0           move.l     -[A7], 0xFFFF78B0
00001904  2F3C FFFF 78B2           move.l     -[A7], 0xFFFF78B2
0000190A  4EAD 0222                jsr        [A5 + 0x222 /* export_64, CODE:2 @ 00004DCE */]
0000190E  508F                     addq.l     A7, 8
label00001910:
00001910  5247                     addq.w     D7, 1
00001912  588C                     addq.l     A4, 4
label00001914:
00001914  0C47 0005                cmpi.w     D7, 0x5
00001918  6D96                     blt        -0x68 /* 000018B0 */
0000191A  3D7C 013B FFFA           move.w     [A6 - 0x6], 0x13B
00001920  3D7C 01E0 FFFE           move.w     [A6 - 0x2], 0x1E0
00001926  3D7C 00AE FFF8           move.w     [A6 - 0x8], 0xAE
0000192C  3D7C 00BD FFFC           move.w     [A6 - 0x4], 0xBD
00001932  42A7                     clr.l      -[A7]
00001934  2F39 FFFF 7D56           move.l     -[A7], [0xFFFF7D56]
0000193A  486E FFF8                pea.l      [A6 - 0x8]
0000193E  2F3C FFFF 9096           move.l     -[A7], 0xFFFF9096
00001944  42A7                     clr.l      -[A7]
00001946  2F3C 0001 0000           move.l     -[A7], 0x10000
0000194C  3F3C 0001                move.w     -[A7], 0x1
00001950  2F3C 2424 2424           move.l     -[A7], 0x24242424 /* '$$$$' */
00001956  A954                     syscall    NewControl
00001958  23DF FFFF 7884           move.l     [0xFFFF7884], [A7]+
0000195E  4AB9 FFFF 7884           tst.l      [0xFFFF7884]
00001964  6612                     bne        +0x14 /* 00001978 */
00001966  2F3C FFFF 78CC           move.l     -[A7], 0xFFFF78CC
0000196C  2F3C FFFF 78CE           move.l     -[A7], 0xFFFF78CE
00001972  4EAD 0222                jsr        [A5 + 0x222 /* export_64, CODE:2 @ 00004DCE */]
00001976  508F                     addq.l     A7, 8
label00001978:
00001978  2F39 FFFF 7814           move.l     -[A7], [0xFFFF7814]
0000197E  2F3C FFFF 78E8           move.l     -[A7], 0xFFFF78E8
00001984  A95F                     syscall    SetControlTitle/SetCTitle
00001986  2F39 FFFF 7818           move.l     -[A7], [0xFFFF7818]
0000198C  2F3C FFFF 78EC           move.l     -[A7], 0xFFFF78EC
00001992  A95F                     syscall    SetControlTitle/SetCTitle
00001994  2F39 FFFF 781C           move.l     -[A7], [0xFFFF781C]
0000199A  2F3C FFFF 78F0           move.l     -[A7], 0xFFFF78F0
000019A0  A95F                     syscall    SetControlTitle/SetCTitle
000019A2  2F39 FFFF 7820           move.l     -[A7], [0xFFFF7820]
000019A8  2F3C FFFF 78F4           move.l     -[A7], 0xFFFF78F4
000019AE  A95F                     syscall    SetControlTitle/SetCTitle
000019B0  2F39 FFFF 7824           move.l     -[A7], [0xFFFF7824]
000019B6  2F3C FFFF 78F8           move.l     -[A7], 0xFFFF78F8
000019BC  A95F                     syscall    SetControlTitle/SetCTitle
000019BE  2F39 FFFF 7828           move.l     -[A7], [0xFFFF7828]
000019C4  2F3C FFFF 78FC           move.l     -[A7], 0xFFFF78FC
000019CA  A95F                     syscall    SetControlTitle/SetCTitle
000019CC  2F39 FFFF 782C           move.l     -[A7], [0xFFFF782C]
000019D2  2F3C FFFF 7900           move.l     -[A7], 0xFFFF7900
000019D8  A95F                     syscall    SetControlTitle/SetCTitle
000019DA  2F39 FFFF 7830           move.l     -[A7], [0xFFFF7830]
000019E0  2F3C FFFF 7904           move.l     -[A7], 0xFFFF7904
000019E6  A95F                     syscall    SetControlTitle/SetCTitle
000019E8  2F39 FFFF 7834           move.l     -[A7], [0xFFFF7834]
000019EE  2F3C FFFF 7908           move.l     -[A7], 0xFFFF7908
000019F4  A95F                     syscall    SetControlTitle/SetCTitle
000019F6  2F39 FFFF 7838           move.l     -[A7], [0xFFFF7838]
000019FC  2F3C FFFF 790C           move.l     -[A7], 0xFFFF790C
00001A02  A95F                     syscall    SetControlTitle/SetCTitle
00001A04  2F39 FFFF 783C           move.l     -[A7], [0xFFFF783C]
00001A0A  2F3C FFFF 7910           move.l     -[A7], 0xFFFF7910
00001A10  A95F                     syscall    SetControlTitle/SetCTitle
00001A12  2F39 FFFF 7840           move.l     -[A7], [0xFFFF7840]
00001A18  2F3C FFFF 7914           move.l     -[A7], 0xFFFF7914
00001A1E  A95F                     syscall    SetControlTitle/SetCTitle
00001A20  2F39 FFFF 7844           move.l     -[A7], [0xFFFF7844]
00001A26  2F3C FFFF 791A           move.l     -[A7], 0xFFFF791A
00001A2C  A95F                     syscall    SetControlTitle/SetCTitle
00001A2E  2F39 FFFF 7848           move.l     -[A7], [0xFFFF7848]
00001A34  2F3C FFFF 791E           move.l     -[A7], 0xFFFF791E
00001A3A  A95F                     syscall    SetControlTitle/SetCTitle
00001A3C  2F39 FFFF 784C           move.l     -[A7], [0xFFFF784C]
00001A42  2F3C FFFF 7922           move.l     -[A7], 0xFFFF7922
00001A48  A95F                     syscall    SetControlTitle/SetCTitle
00001A4A  2F39 FFFF 7850           move.l     -[A7], [0xFFFF7850]
00001A50  2F3C FFFF 7926           move.l     -[A7], 0xFFFF7926
00001A56  A95F                     syscall    SetControlTitle/SetCTitle
00001A58  2F39 FFFF 7854           move.l     -[A7], [0xFFFF7854]
00001A5E  2F3C FFFF 792A           move.l     -[A7], 0xFFFF792A
00001A64  A95F                     syscall    SetControlTitle/SetCTitle
00001A66  2F39 FFFF 7858           move.l     -[A7], [0xFFFF7858]
00001A6C  2F3C FFFF 792C           move.l     -[A7], 0xFFFF792C
00001A72  A95F                     syscall    SetControlTitle/SetCTitle
00001A74  2F39 FFFF 785C           move.l     -[A7], [0xFFFF785C]
00001A7A  2F3C FFFF 7936           move.l     -[A7], 0xFFFF7936
00001A80  A95F                     syscall    SetControlTitle/SetCTitle
00001A82  2F39 FFFF 7860           move.l     -[A7], [0xFFFF7860]
00001A88  2F3C FFFF 793E           move.l     -[A7], 0xFFFF793E
00001A8E  A95F                     syscall    SetControlTitle/SetCTitle
00001A90  2F39 FFFF 7864           move.l     -[A7], [0xFFFF7864]
00001A96  2F3C FFFF 7946           move.l     -[A7], 0xFFFF7946
00001A9C  A95F                     syscall    SetControlTitle/SetCTitle
00001A9E  2F39 FFFF 7868           move.l     -[A7], [0xFFFF7868]
00001AA4  2F3C FFFF 794C           move.l     -[A7], 0xFFFF794C
00001AAA  A95F                     syscall    SetControlTitle/SetCTitle
00001AAC  2F39 FFFF 786C           move.l     -[A7], [0xFFFF786C]
00001AB2  2F3C FFFF 7950           move.l     -[A7], 0xFFFF7950
00001AB8  A95F                     syscall    SetControlTitle/SetCTitle
00001ABA  2F39 FFFF 7870           move.l     -[A7], [0xFFFF7870]
00001AC0  2F3C FFFF 7956           move.l     -[A7], 0xFFFF7956
00001AC6  A95F                     syscall    SetControlTitle/SetCTitle
00001AC8  2F39 FFFF 7874           move.l     -[A7], [0xFFFF7874]
00001ACE  2F3C FFFF 7960           move.l     -[A7], 0xFFFF7960
00001AD4  A95F                     syscall    SetControlTitle/SetCTitle
00001AD6  2F39 FFFF 7878           move.l     -[A7], [0xFFFF7878]
00001ADC  2F3C FFFF 796A           move.l     -[A7], 0xFFFF796A
00001AE2  A95F                     syscall    SetControlTitle/SetCTitle
00001AE4  2F39 FFFF 787C           move.l     -[A7], [0xFFFF787C]
00001AEA  2F3C FFFF 7974           move.l     -[A7], 0xFFFF7974
00001AF0  A95F                     syscall    SetControlTitle/SetCTitle
00001AF2  2F39 FFFF 7880           move.l     -[A7], [0xFFFF7880]
00001AF8  2F3C FFFF 797A           move.l     -[A7], 0xFFFF797A
00001AFE  A95F                     syscall    SetControlTitle/SetCTitle
00001B00  2F39 FFFF 7884           move.l     -[A7], [0xFFFF7884]
00001B06  2F3C FFFF 7982           move.l     -[A7], 0xFFFF7982
00001B0C  A95F                     syscall    SetControlTitle/SetCTitle
00001B0E  3039 FFFF 77F8           move.w     D0, [0xFFFF77F8]
00001B14  6B74                     bmi        +0x76 /* 00001B8A */
00001B16  0440 0064                subi.w     D0, 0x64 /* 'd' */
00001B1A  672E                     beq        +0x30 /* 00001B4A */
00001B1C  6A10                     bpl        +0x12 /* 00001B2E */
00001B1E  0440 FFD8                subi.w     D0, 0xFFD8
00001B22  673C                     beq        +0x3E /* 00001B60 */
00001B24  6A64                     bpl        +0x66 /* 00001B8A */
00001B26  0440 FFEC                subi.w     D0, 0xFFEC
00001B2A  674A                     beq        +0x4C /* 00001B76 */
00001B2C  605C                     bra        +0x5E /* 00001B8A */
label00001B2E:
00001B2E  0440 0032                subi.w     D0, 0x32 /* '2' */
00001B32  6702                     beq        +0x4 /* 00001B36 */
00001B34  6054                     bra        +0x56 /* 00001B8A */
label00001B36:
00001B36  2F39 FFFF 7814           move.l     -[A7], [0xFFFF7814]
00001B3C  3F3C 0001                move.w     -[A7], 0x1
00001B40  A963                     syscall    SetControlValue/SetCtlValue
00001B42  4279 FFFF 7888           clr.w      [0xFFFF7888]
00001B48  6040                     bra        +0x42 /* 00001B8A */
label00001B4A:
00001B4A  2F39 FFFF 7818           move.l     -[A7], [0xFFFF7818]
00001B50  3F3C 0001                move.w     -[A7], 0x1
00001B54  A963                     syscall    SetControlValue/SetCtlValue
00001B56  33FC 0001 FFFF 7888      move.w     [0xFFFF7888], 0x1
00001B5E  602A                     bra        +0x2C /* 00001B8A */
label00001B60:
00001B60  2F39 FFFF 781C           move.l     -[A7], [0xFFFF781C]
00001B66  3F3C 0001                move.w     -[A7], 0x1
00001B6A  A963                     syscall    SetControlValue/SetCtlValue
00001B6C  33FC 0002 FFFF 7888      move.w     [0xFFFF7888], 0x2
00001B74  6014                     bra        +0x16 /* 00001B8A */
label00001B76:
00001B76  2F39 FFFF 7820           move.l     -[A7], [0xFFFF7820]
00001B7C  3F3C 0001                move.w     -[A7], 0x1
00001B80  A963                     syscall    SetControlValue/SetCtlValue
00001B82  33FC 0003 FFFF 7888      move.w     [0xFFFF7888], 0x3
label00001B8A:
00001B8A  3039 FFFF 77FA           move.w     D0, [0xFFFF77FA]
00001B90  6B76                     bmi        +0x78 /* 00001C08 */
00001B92  0440 0064                subi.w     D0, 0x64 /* 'd' */
00001B96  6730                     beq        +0x32 /* 00001BC8 */
00001B98  6A10                     bpl        +0x12 /* 00001BAA */
00001B9A  0440 FFD8                subi.w     D0, 0xFFD8
00001B9E  673E                     beq        +0x40 /* 00001BDE */
00001BA0  6A66                     bpl        +0x68 /* 00001C08 */
00001BA2  0440 FFE2                subi.w     D0, 0xFFE2
00001BA6  674C                     beq        +0x4E /* 00001BF4 */
00001BA8  605E                     bra        +0x60 /* 00001C08 */
label00001BAA:
00001BAA  0440 0032                subi.w     D0, 0x32 /* '2' */
00001BAE  6702                     beq        +0x4 /* 00001BB2 */
00001BB0  6056                     bra        +0x58 /* 00001C08 */
label00001BB2:
00001BB2  2F39 FFFF 7824           move.l     -[A7], [0xFFFF7824]
00001BB8  3F3C 0001                move.w     -[A7], 0x1
00001BBC  A963                     syscall    SetControlValue/SetCtlValue
00001BBE  33FC 0004 FFFF 788A      move.w     [0xFFFF788A], 0x4
00001BC6  6040                     bra        +0x42 /* 00001C08 */
label00001BC8:
00001BC8  2F39 FFFF 7828           move.l     -[A7], [0xFFFF7828]
00001BCE  3F3C 0001                move.w     -[A7], 0x1
00001BD2  A963                     syscall    SetControlValue/SetCtlValue
00001BD4  33FC 0005 FFFF 788A      move.w     [0xFFFF788A], 0x5
00001BDC  602A                     bra        +0x2C /* 00001C08 */
label00001BDE:
00001BDE  2F39 FFFF 782C           move.l     -[A7], [0xFFFF782C]
00001BE4  3F3C 0001                move.w     -[A7], 0x1
00001BE8  A963                     syscall    SetControlValue/SetCtlValue
00001BEA  33FC 0006 FFFF 788A      move.w     [0xFFFF788A], 0x6
00001BF2  6014                     bra        +0x16 /* 00001C08 */
label00001BF4:
00001BF4  2F39 FFFF 7830           move.l     -[A7], [0xFFFF7830]
00001BFA  3F3C 0001                move.w     -[A7], 0x1
00001BFE  A963                     syscall    SetControlValue/SetCtlValue
00001C00  33FC 0007 FFFF 788A      move.w     [0xFFFF788A], 0x7
label00001C08:
00001C08  3039 FFFF 77FC           move.w     D0, [0xFFFF77FC]
00001C0E  675C                     beq        +0x5E /* 00001C6C */
00001C10  6B6E                     bmi        +0x70 /* 00001C80 */
00001C12  0440 0032                subi.w     D0, 0x32 /* '2' */
00001C16  6728                     beq        +0x2A /* 00001C40 */
00001C18  6A08                     bpl        +0xA /* 00001C22 */
00001C1A  0440 FFE7                subi.w     D0, 0xFFE7
00001C1E  6736                     beq        +0x38 /* 00001C56 */
00001C20  605E                     bra        +0x60 /* 00001C80 */
label00001C22:
00001C22  0440 0032                subi.w     D0, 0x32 /* '2' */
00001C26  6702                     beq        +0x4 /* 00001C2A */
00001C28  6056                     bra        +0x58 /* 00001C80 */
label00001C2A:
00001C2A  2F39 FFFF 7834           move.l     -[A7], [0xFFFF7834]
00001C30  3F3C 0001                move.w     -[A7], 0x1
00001C34  A963                     syscall    SetControlValue/SetCtlValue
00001C36  33FC 0008 FFFF 788C      move.w     [0xFFFF788C], 0x8
00001C3E  6040                     bra        +0x42 /* 00001C80 */
label00001C40:
00001C40  2F39 FFFF 7838           move.l     -[A7], [0xFFFF7838]
00001C46  3F3C 0001                move.w     -[A7], 0x1
00001C4A  A963                     syscall    SetControlValue/SetCtlValue
00001C4C  33FC 0009 FFFF 788C      move.w     [0xFFFF788C], 0x9 /* '\t' */
00001C54  602A                     bra        +0x2C /* 00001C80 */
label00001C56:
00001C56  2F39 FFFF 783C           move.l     -[A7], [0xFFFF783C]
00001C5C  3F3C 0001                move.w     -[A7], 0x1
00001C60  A963                     syscall    SetControlValue/SetCtlValue
00001C62  33FC 000A FFFF 788C      move.w     [0xFFFF788C], 0xA /* '\n' */
00001C6A  6014                     bra        +0x16 /* 00001C80 */
label00001C6C:
00001C6C  2F39 FFFF 7840           move.l     -[A7], [0xFFFF7840]
00001C72  3F3C 0001                move.w     -[A7], 0x1
00001C76  A963                     syscall    SetControlValue/SetCtlValue
00001C78  33FC 000B FFFF 788C      move.w     [0xFFFF788C], 0xB
label00001C80:
00001C80  3039 FFFF 77FE           move.w     D0, [0xFFFF77FE]
00001C86  6B00 0094                bmi        +0x96 /* 00001D1C */
00001C8A  0440 000F                subi.w     D0, 0xF
00001C8E  674C                     beq        +0x4E /* 00001CDC */
00001C90  6A0E                     bpl        +0x10 /* 00001CA0 */
00001C92  5A40                     addq.w     D0, 5
00001C94  675C                     beq        +0x5E /* 00001CF2 */
00001C96  6A00 0084                bpl        +0x86 /* 00001D1C */
00001C9A  5A40                     addq.w     D0, 5
00001C9C  676A                     beq        +0x6C /* 00001D08 */
00001C9E  607C                     bra        +0x7E /* 00001D1C */
label00001CA0:
00001CA0  0440 0023                subi.w     D0, 0x23 /* '#' */
00001CA4  670A                     beq        +0xC /* 00001CB0 */
00001CA6  6A74                     bpl        +0x76 /* 00001D1C */
00001CA8  0440 FFEC                subi.w     D0, 0xFFEC
00001CAC  6718                     beq        +0x1A /* 00001CC6 */
00001CAE  606C                     bra        +0x6E /* 00001D1C */
label00001CB0:
00001CB0  2F39 FFFF 7844           move.l     -[A7], [0xFFFF7844]
00001CB6  3F3C 0001                move.w     -[A7], 0x1
00001CBA  A963                     syscall    SetControlValue/SetCtlValue
00001CBC  33FC 000C FFFF 788E      move.w     [0xFFFF788E], 0xC
00001CC4  6056                     bra        +0x58 /* 00001D1C */
label00001CC6:
00001CC6  2F39 FFFF 7848           move.l     -[A7], [0xFFFF7848]
00001CCC  3F3C 0001                move.w     -[A7], 0x1
00001CD0  A963                     syscall    SetControlValue/SetCtlValue
00001CD2  33FC 000D FFFF 788E      move.w     [0xFFFF788E], 0xD /* '\r' */
00001CDA  6040                     bra        +0x42 /* 00001D1C */
label00001CDC:
00001CDC  2F39 FFFF 784C           move.l     -[A7], [0xFFFF784C]
00001CE2  3F3C 0001                move.w     -[A7], 0x1
00001CE6  A963                     syscall    SetControlValue/SetCtlValue
00001CE8  33FC 000E FFFF 788E      move.w     [0xFFFF788E], 0xE
00001CF0  602A                     bra        +0x2C /* 00001D1C */
label00001CF2:
00001CF2  2F39 FFFF 7850           move.l     -[A7], [0xFFFF7850]
00001CF8  3F3C 0001                move.w     -[A7], 0x1
00001CFC  A963                     syscall    SetControlValue/SetCtlValue
00001CFE  33FC 000F FFFF 788E      move.w     [0xFFFF788E], 0xF
00001D06  6014                     bra        +0x16 /* 00001D1C */
label00001D08:
00001D08  2F39 FFFF 7854           move.l     -[A7], [0xFFFF7854]
00001D0E  3F3C 0001                move.w     -[A7], 0x1
00001D12  A963                     syscall    SetControlValue/SetCtlValue
00001D14  33FC 0010 FFFF 788E      move.w     [0xFFFF788E], 0x10
label00001D1C:
00001D1C  3039 FFFF 7800           move.w     D0, [0xFFFF7800]
00001D22  674E                     beq        +0x50 /* 00001D72 */
00001D24  6B4C                     bmi        +0x4E /* 00001D72 */
00001D26  5740                     subq.w     D0, 3
00001D28  6708                     beq        +0xA /* 00001D32 */
00001D2A  6A46                     bpl        +0x48 /* 00001D72 */
00001D2C  5240                     addq.w     D0, 1
00001D2E  6A18                     bpl        +0x1A /* 00001D48 */
00001D30  602C                     bra        +0x2E /* 00001D5E */
label00001D32:
00001D32  2F39 FFFF 7858           move.l     -[A7], [0xFFFF7858]
00001D38  3F3C 0001                move.w     -[A7], 0x1
00001D3C  A963                     syscall    SetControlValue/SetCtlValue
00001D3E  33FC 0011 FFFF 7890      move.w     [0xFFFF7890], 0x11
00001D46  602A                     bra        +0x2C /* 00001D72 */
label00001D48:
00001D48  2F39 FFFF 785C           move.l     -[A7], [0xFFFF785C]
00001D4E  3F3C 0001                move.w     -[A7], 0x1
00001D52  A963                     syscall    SetControlValue/SetCtlValue
00001D54  33FC 0012 FFFF 7890      move.w     [0xFFFF7890], 0x12
00001D5C  6014                     bra        +0x16 /* 00001D72 */
label00001D5E:
00001D5E  2F39 FFFF 7860           move.l     -[A7], [0xFFFF7860]
00001D64  3F3C 0001                move.w     -[A7], 0x1
00001D68  A963                     syscall    SetControlValue/SetCtlValue
00001D6A  33FC 0013 FFFF 7890      move.w     [0xFFFF7890], 0x13
label00001D72:
00001D72  303C 03C2                move.w     D0, 0x3C2
00001D76  C1F9 FFFF 9228           muls.w     D0, [0xFFFF9228]
00001D7C  2040                     movea.l    A0, D0
00001D7E  D1FC FFFF 9790           add.l      A0, 0xFFFF9790
00001D84  3010                     move.w     D0, [A0]
00001D86  674C                     beq        +0x4E /* 00001DD4 */
00001D88  6B4A                     bmi        +0x4C /* 00001DD4 */
00001D8A  5740                     subq.w     D0, 3
00001D8C  6732                     beq        +0x34 /* 00001DC0 */
00001D8E  6A44                     bpl        +0x46 /* 00001DD4 */
00001D90  5240                     addq.w     D0, 1
00001D92  6A16                     bpl        +0x18 /* 00001DAA */
00001D94  2F39 FFFF 7864           move.l     -[A7], [0xFFFF7864]
00001D9A  3F3C 0001                move.w     -[A7], 0x1
00001D9E  A963                     syscall    SetControlValue/SetCtlValue
00001DA0  33FC 0014 FFFF 7892      move.w     [0xFFFF7892], 0x14
00001DA8  602A                     bra        +0x2C /* 00001DD4 */
label00001DAA:
00001DAA  2F39 FFFF 7868           move.l     -[A7], [0xFFFF7868]
00001DB0  3F3C 0001                move.w     -[A7], 0x1
00001DB4  A963                     syscall    SetControlValue/SetCtlValue
00001DB6  33FC 0015 FFFF 7892      move.w     [0xFFFF7892], 0x15
00001DBE  6014                     bra        +0x16 /* 00001DD4 */
label00001DC0:
00001DC0  2F39 FFFF 786C           move.l     -[A7], [0xFFFF786C]
00001DC6  3F3C 0001                move.w     -[A7], 0x1
00001DCA  A963                     syscall    SetControlValue/SetCtlValue
00001DCC  33FC 0016 FFFF 7892      move.w     [0xFFFF7892], 0x16
label00001DD4:
00001DD4  2F39 FFFF 7870           move.l     -[A7], [0xFFFF7870]
00001DDA  3F39 FFFF 7802           move.w     -[A7], [0xFFFF7802]
00001DE0  A963                     syscall    SetControlValue/SetCtlValue
00001DE2  2F39 FFFF 7874           move.l     -[A7], [0xFFFF7874]
00001DE8  3F39 FFFF 7804           move.w     -[A7], [0xFFFF7804]
00001DEE  A963                     syscall    SetControlValue/SetCtlValue
00001DF0  2F39 FFFF 7878           move.l     -[A7], [0xFFFF7878]
00001DF6  3F39 FFFF 780A           move.w     -[A7], [0xFFFF780A]
00001DFC  A963                     syscall    SetControlValue/SetCtlValue
00001DFE  2F39 FFFF 787C           move.l     -[A7], [0xFFFF787C]
00001E04  3F39 FFFF 780E           move.w     -[A7], [0xFFFF780E]
00001E0A  A963                     syscall    SetControlValue/SetCtlValue
00001E0C  2F39 FFFF 7880           move.l     -[A7], [0xFFFF7880]
00001E12  3F39 FFFF 7810           move.w     -[A7], [0xFFFF7810]
00001E18  A963                     syscall    SetControlValue/SetCtlValue
00001E1A  2F39 FFFF 7884           move.l     -[A7], [0xFFFF7884]
00001E20  3F39 FFFF 7812           move.w     -[A7], [0xFFFF7812]
00001E26  A963                     syscall    SetControlValue/SetCtlValue
00001E28  4CDF 1080                movem.l    D7,A4, [A7]+
00001E2C  4E5E                     unlink     A6
00001E2E  4E75                     rts
fn00001E30:
00001E30  4E56 FFA8                link       A6, -0x0058
00001E34  48E7 0108                movem.l    -[A7], D7,A4
00001E38  0C79 0009 FFFF 7806      cmpi.w     [0xFFFF7806], 0x9 /* '\t' */
00001E40  6F12                     ble        +0x14 /* 00001E54 */
00001E42  2F3C FFFF 7996           move.l     -[A7], 0xFFFF7996
00001E48  2F3C FFFF 79B8           move.l     -[A7], 0xFFFF79B8
00001E4E  4EAD 0222                jsr        [A5 + 0x222 /* export_64, CODE:2 @ 00004DCE */]
00001E52  508F                     addq.l     A7, 8
label00001E54:
00001E54  4A79 FFFF 9238           tst.w      [0xFFFF9238]
00001E5A  6700 021C                beq        +0x21E /* 00002078 */
00001E5E  41EE FFA8                lea.l      A0, [A6 - 0x58]
00001E62  20B8 020C                move.l     [A0], [0x0000020C /* Time */]
00001E66  303C 03C2                move.w     D0, 0x3C2
00001E6A  C1F9 FFFF 9228           muls.w     D0, [0xFFFF9228]
00001E70  2040                     movea.l    A0, D0
00001E72  D1FC FFFF 9764           add.l      A0, 0xFFFF9764
00001E78  3F10                     move.w     -[A7], [A0]
00001E7A  4EAD 0262                jsr        [A5 + 0x262 /* export_72, CODE:2 @ 00005522 */]
00001E7E  303C 03C2                move.w     D0, 0x3C2
00001E82  C1F9 FFFF 9228           muls.w     D0, [0xFFFF9228]
00001E88  0680 FFFF 955E           addi.l     D0, 0xFFFF955E
00001E8E  2F00                     move.l     -[A7], D0
00001E90  A9B1                     syscall    CreateResFile
00001E92  4257                     clr.w      [A7]
00001E94  303C 03C2                move.w     D0, 0x3C2
00001E98  C1F9 FFFF 9228           muls.w     D0, [0xFFFF9228]
00001E9E  0680 FFFF 955E           addi.l     D0, 0xFFFF955E
00001EA4  2F00                     move.l     -[A7], D0
00001EA6  A997                     syscall    OpenResFile
00001EA8  3E1F                     move.w     D7, [A7]+
00001EAA  0C47 FFFF                cmpi.w     D7, 0xFFFF
00001EAE  6616                     bne        +0x18 /* 00001EC6 */
00001EB0  2F3C FFFF 79C2           move.l     -[A7], 0xFFFF79C2
00001EB6  2F3C FFFF 79C4           move.l     -[A7], 0xFFFF79C4
00001EBC  4EAD 0222                jsr        [A5 + 0x222 /* export_64, CODE:2 @ 00004DCE */]
00001EC0  508F                     addq.l     A7, 8
00001EC2  6000 0164                bra        +0x166 /* 00002028 */
label00001EC6:
00001EC6  42A7                     clr.l      -[A7]
00001EC8  2F3C 4441 5445           move.l     -[A7], 0x44415445 /* 'DATE' */
00001ECE  3F3C 03E9                move.w     -[A7], 0x3E9
00001ED2  A9A0                     syscall    GetResource
00001ED4  285F                     movea.l    A4, [A7]+
00001ED6  200C                     move.l     D0, A4
00001ED8  6720                     beq        +0x22 /* 00001EFA */
00001EDA  2F0C                     move.l     -[A7], A4
00001EDC  A9AD                     syscall    RemoveResource/RmveResource
00001EDE  4A78 0A60                tst.w      [0x00000A60 /* ResErr */]
00001EE2  6712                     beq        +0x14 /* 00001EF6 */
00001EE4  2F3C FFFF 79E2           move.l     -[A7], 0xFFFF79E2
00001EEA  2F3C FFFF 79E4           move.l     -[A7], 0xFFFF79E4
00001EF0  4EAD 0222                jsr        [A5 + 0x222 /* export_64, CODE:2 @ 00004DCE */]
00001EF4  508F                     addq.l     A7, 8
label00001EF6:
00001EF6  204C                     movea.l    A0, A4
00001EF8  A023                     syscall    DisposHandle/DisposeHandle
label00001EFA:
00001EFA  42A7                     clr.l      -[A7]
00001EFC  2F3C 4841 5244           move.l     -[A7], 0x48415244 /* 'HARD' */
00001F02  3F3C 03E8                move.w     -[A7], 0x3E8
00001F06  A9A0                     syscall    GetResource
00001F08  285F                     movea.l    A4, [A7]+
00001F0A  200C                     move.l     D0, A4
00001F0C  6720                     beq        +0x22 /* 00001F2E */
00001F0E  2F0C                     move.l     -[A7], A4
00001F10  A9AD                     syscall    RemoveResource/RmveResource
00001F12  4A78 0A60                tst.w      [0x00000A60 /* ResErr */]
00001F16  6712                     beq        +0x14 /* 00001F2A */
00001F18  2F3C FFFF 79FC           move.l     -[A7], 0xFFFF79FC
00001F1E  2F3C FFFF 79FE           move.l     -[A7], 0xFFFF79FE
00001F24  4EAD 0222                jsr        [A5 + 0x222 /* export_64, CODE:2 @ 00004DCE */]
00001F28  508F                     addq.l     A7, 8
label00001F2A:
00001F2A  204C                     movea.l    A0, A4
00001F2C  A023                     syscall    DisposHandle/DisposeHandle
label00001F2E:
00001F2E  42A7                     clr.l      -[A7]
00001F30  2F3C 5455 5254           move.l     -[A7], 0x54555254 /* 'TURT' */
00001F36  3F3C 03E8                move.w     -[A7], 0x3E8
00001F3A  A9A0                     syscall    GetResource
00001F3C  285F                     movea.l    A4, [A7]+
00001F3E  200C                     move.l     D0, A4
00001F40  6720                     beq        +0x22 /* 00001F62 */
00001F42  2F0C                     move.l     -[A7], A4
00001F44  A9AD                     syscall    RemoveResource/RmveResource
00001F46  4A78 0A60                tst.w      [0x00000A60 /* ResErr */]
00001F4A  6712                     beq        +0x14 /* 00001F5E */
00001F4C  2F3C FFFF 7A16           move.l     -[A7], 0xFFFF7A16
00001F52  2F3C FFFF 7A18           move.l     -[A7], 0xFFFF7A18
00001F58  4EAD 0222                jsr        [A5 + 0x222 /* export_64, CODE:2 @ 00004DCE */]
00001F5C  508F                     addq.l     A7, 8
label00001F5E:
00001F5E  204C                     movea.l    A0, A4
00001F60  A023                     syscall    DisposHandle/DisposeHandle
label00001F62:
00001F62  7004                     moveq.l    D0, 0x04
00001F64  A122                     syscall    NewHandle, flags=1
00001F66  2848                     movea.l    A4, A0
00001F68  2054                     movea.l    A0, [A4]
00001F6A  20AE FFA8                move.l     [A0], [A6 - 0x58]
00001F6E  2F0C                     move.l     -[A7], A4
00001F70  2F3C 4441 5445           move.l     -[A7], 0x44415445 /* 'DATE' */
00001F76  3F3C 03E9                move.w     -[A7], 0x3E9
00001F7A  2F3C FFFF 7A30           move.l     -[A7], 0xFFFF7A30
00001F80  A9AB                     syscall    AddResource
00001F82  4A78 0A60                tst.w      [0x00000A60 /* ResErr */]
00001F86  6712                     beq        +0x14 /* 00001F9A */
00001F88  2F3C FFFF 7A3A           move.l     -[A7], 0xFFFF7A3A
00001F8E  2F3C FFFF 7A3C           move.l     -[A7], 0xFFFF7A3C
00001F94  4EAD 0222                jsr        [A5 + 0x222 /* export_64, CODE:2 @ 00004DCE */]
00001F98  508F                     addq.l     A7, 8
label00001F9A:
00001F9A  701C                     moveq.l    D0, 0x1C
00001F9C  A122                     syscall    NewHandle, flags=1
00001F9E  2848                     movea.l    A4, A0
00001FA0  2054                     movea.l    A0, [A4]
00001FA2  43F9 FFFF 77F8           lea.l      A1, [0xFFFF77F8]
00001FA8  7006                     moveq.l    D0, 0x06
label00001FAA:
00001FAA  20D9                     move.l     [A0]+, [A1]+
00001FAC  51C8 FFFC                dbf        D0, -0x6 /* 00001FAA */
00001FB0  2F0C                     move.l     -[A7], A4
00001FB2  2F3C 4841 5244           move.l     -[A7], 0x48415244 /* 'HARD' */
00001FB8  3F3C 03E8                move.w     -[A7], 0x3E8
00001FBC  2F3C FFFF 7A58           move.l     -[A7], 0xFFFF7A58
00001FC2  A9AB                     syscall    AddResource
00001FC4  4A78 0A60                tst.w      [0x00000A60 /* ResErr */]
00001FC8  6712                     beq        +0x14 /* 00001FDC */
00001FCA  2F3C FFFF 7A66           move.l     -[A7], 0xFFFF7A66
00001FD0  2F3C FFFF 7A68           move.l     -[A7], 0xFFFF7A68
00001FD6  4EAD 0222                jsr        [A5 + 0x222 /* export_64, CODE:2 @ 00004DCE */]
00001FDA  508F                     addq.l     A7, 8
label00001FDC:
00001FDC  7002                     moveq.l    D0, 0x02
00001FDE  A122                     syscall    NewHandle, flags=1
00001FE0  2848                     movea.l    A4, A0
00001FE2  303C 03C2                move.w     D0, 0x3C2
00001FE6  C1F9 FFFF 9228           muls.w     D0, [0xFFFF9228]
00001FEC  2040                     movea.l    A0, D0
00001FEE  D1FC FFFF 9790           add.l      A0, 0xFFFF9790
00001FF4  2254                     movea.l    A1, [A4]
00001FF6  3290                     move.w     [A1], [A0]
00001FF8  2F0C                     move.l     -[A7], A4
00001FFA  2F3C 5455 5254           move.l     -[A7], 0x54555254 /* 'TURT' */
00002000  3F3C 03E8                move.w     -[A7], 0x3E8
00002004  2F3C FFFF 7A84           move.l     -[A7], 0xFFFF7A84
0000200A  A9AB                     syscall    AddResource
0000200C  4A78 0A60                tst.w      [0x00000A60 /* ResErr */]
00002010  6712                     beq        +0x14 /* 00002024 */
00002012  2F3C FFFF 7A90           move.l     -[A7], 0xFFFF7A90
00002018  2F3C FFFF 7A92           move.l     -[A7], 0xFFFF7A92
0000201E  4EAD 0222                jsr        [A5 + 0x222 /* export_64, CODE:2 @ 00004DCE */]
00002022  508F                     addq.l     A7, 8
label00002024:
00002024  3F07                     move.w     -[A7], D7
00002026  A99A                     syscall    CloseResFile
label00002028:
00002028  4EAD 026A                jsr        [A5 + 0x26A /* export_73, CODE:2 @ 0000554A */]
0000202C  7E00                     moveq.l    D7, 0x00
0000202E  287C FFFF 9442           movea.l    A4, 0xFFFF9442
00002034  603A                     bra        +0x3C /* 00002070 */
label00002036:
00002036  3F07                     move.w     -[A7], D7
00002038  4EAD 025A                jsr        [A5 + 0x25A /* export_71, CODE:2 @ 00005494 */]
0000203C  4A00                     tst.b      D0
0000203E  548F                     addq.l     A7, 2
00002040  6728                     beq        +0x2A /* 0000206A */
00002042  303C 03C2                move.w     D0, 0x3C2
00002046  C1F9 FFFF 9228           muls.w     D0, [0xFFFF9228]
0000204C  2040                     movea.l    A0, D0
0000204E  D1FC FFFF 9790           add.l      A0, 0xFFFF9790
00002054  3950 034E                move.w     [A4 + 0x34E], [A0]
00002058  41EC 0306                lea.l      A0, [A4 + 0x306]
0000205C  43F9 FFFF 77F8           lea.l      A1, [0xFFFF77F8]
00002062  7006                     moveq.l    D0, 0x06
label00002064:
00002064  20D9                     move.l     [A0]+, [A1]+
00002066  51C8 FFFC                dbf        D0, -0x6 /* 00002064 */
label0000206A:
0000206A  5247                     addq.w     D7, 1
0000206C  49EC 03C2                lea.l      A4, [A4 + 0x3C2]
label00002070:
00002070  BE79 FFFF 9226           cmp.w      D7, [0xFFFF9226]
00002076  6DBE                     blt        -0x40 /* 00002036 */
label00002078:
00002078  4CDF 1080                movem.l    D7,A4, [A7]+
0000207C  4E5E                     unlink     A6
0000207E  4E75                     rts
fn00002080:
00002080  48E7 0108                movem.l    -[A7], D7,A4
00002084  303C 03C2                move.w     D0, 0x3C2
00002088  C1F9 FFFF 9228           muls.w     D0, [0xFFFF9228]
0000208E  2040                     movea.l    A0, D0
00002090  D1FC FFFF 9764           add.l      A0, 0xFFFF9764
00002096  3F10                     move.w     -[A7], [A0]
00002098  4EAD 0262                jsr        [A5 + 0x262 /* export_72, CODE:2 @ 00005522 */]
0000209C  4257                     clr.w      [A7]
0000209E  303C 03C2                move.w     D0, 0x3C2
000020A2  C1F9 FFFF 9228           muls.w     D0, [0xFFFF9228]
000020A8  0680 FFFF 955E           addi.l     D0, 0xFFFF955E
000020AE  2F00                     move.l     -[A7], D0
000020B0  A997                     syscall    OpenResFile
000020B2  3E1F                     move.w     D7, [A7]+
000020B4  42A7                     clr.l      -[A7]
000020B6  2F3C 4841 5244           move.l     -[A7], 0x48415244 /* 'HARD' */
000020BC  3F3C 03E8                move.w     -[A7], 0x3E8
000020C0  A9A0                     syscall    GetResource
000020C2  285F                     movea.l    A4, [A7]+
000020C4  200C                     move.l     D0, A4
000020C6  665C                     bne        +0x5E /* 00002124 */
000020C8  33FC 0064 FFFF 77F8      move.w     [0xFFFF77F8], 0x64 /* 'd' */
000020D0  33FC 0064 FFFF 77FA      move.w     [0xFFFF77FA], 0x64 /* 'd' */
000020D8  33FC 0032 FFFF 77FC      move.w     [0xFFFF77FC], 0x32 /* '2' */
000020E0  33FC 000A FFFF 77FE      move.w     [0xFFFF77FE], 0xA /* '\n' */
000020E8  33FC 0002 FFFF 7800      move.w     [0xFFFF7800], 0x2
000020F0  4279 FFFF 7802           clr.w      [0xFFFF7802]
000020F6  4279 FFFF 7804           clr.w      [0xFFFF7804]
000020FC  4279 FFFF 780A           clr.w      [0xFFFF780A]
00002102  4279 FFFF 780C           clr.w      [0xFFFF780C]
00002108  4279 FFFF 7808           clr.w      [0xFFFF7808]
0000210E  4279 FFFF 780E           clr.w      [0xFFFF780E]
00002114  4279 FFFF 7810           clr.w      [0xFFFF7810]
0000211A  4279 FFFF 7812           clr.w      [0xFFFF7812]
00002120  6000 0092                bra        +0x94 /* 000021B4 */
label00002124:
00002124  42A7                     clr.l      -[A7]
00002126  2F0C                     move.l     -[A7], A4
00002128  4EAD 03BA                jsr        [A5 + 0x3BA /* export_115, CODE:7 @ 0000272A */]
0000212C  701A                     moveq.l    D0, 0x1A
0000212E  B09F                     cmp.l      D0, [A7]+
00002130  6628                     bne        +0x2A /* 0000215A */
00002132  701C                     moveq.l    D0, 0x1C
00002134  204C                     movea.l    A0, A4
00002136  A024                     syscall    SetHandleSize
00002138  2054                     movea.l    A0, [A4]
0000213A  43F9 FFFF 77F8           lea.l      A1, [0xFFFF77F8]
00002140  7006                     moveq.l    D0, 0x06
label00002142:
00002142  22D8                     move.l     [A1]+, [A0]+
00002144  51C8 FFFC                dbf        D0, -0x6 /* 00002142 */
00002148  33F9 FFFF 7810 FFFF 7812 move.w     [0xFFFF7812], [0xFFFF7810]
00002152  4279 FFFF 7810           clr.w      [0xFFFF7810]
00002158  605A                     bra        +0x5C /* 000021B4 */
label0000215A:
0000215A  42A7                     clr.l      -[A7]
0000215C  2F0C                     move.l     -[A7], A4
0000215E  4EAD 03BA                jsr        [A5 + 0x3BA /* export_115, CODE:7 @ 0000272A */]
00002162  701C                     moveq.l    D0, 0x1C
00002164  B09F                     cmp.l      D0, [A7]+
00002166  633C                     bls        +0x3E /* 000021A4 */
00002168  701C                     moveq.l    D0, 0x1C
0000216A  204C                     movea.l    A0, A4
0000216C  A024                     syscall    SetHandleSize
0000216E  2054                     movea.l    A0, [A4]
00002170  43F9 FFFF 77F8           lea.l      A1, [0xFFFF77F8]
00002176  7006                     moveq.l    D0, 0x06
label00002178:
00002178  22D8                     move.l     [A1]+, [A0]+
0000217A  51C8 FFFC                dbf        D0, -0x6 /* 00002178 */
0000217E  4279 FFFF 7808           clr.w      [0xFFFF7808]
00002184  4279 FFFF 780A           clr.w      [0xFFFF780A]
0000218A  4279 FFFF 780C           clr.w      [0xFFFF780C]
00002190  4279 FFFF 780E           clr.w      [0xFFFF780E]
00002196  4279 FFFF 7810           clr.w      [0xFFFF7810]
0000219C  4279 FFFF 7812           clr.w      [0xFFFF7812]
000021A2  6010                     bra        +0x12 /* 000021B4 */
label000021A4:
000021A4  2054                     movea.l    A0, [A4]
000021A6  43F9 FFFF 77F8           lea.l      A1, [0xFFFF77F8]
000021AC  7006                     moveq.l    D0, 0x06
label000021AE:
000021AE  22D8                     move.l     [A1]+, [A0]+
000021B0  51C8 FFFC                dbf        D0, -0x6 /* 000021AE */
label000021B4:
000021B4  3F07                     move.w     -[A7], D7
000021B6  A99A                     syscall    CloseResFile
000021B8  4EAD 026A                jsr        [A5 + 0x26A /* export_73, CODE:2 @ 0000554A */]
000021BC  4EBA F5F6                jsr        [PC - 0xA0A /* 000017B4 */]
000021C0  2F3C FFFF 77F8           move.l     -[A7], 0xFFFF77F8
000021C6  4EBA F402                jsr        [PC - 0xBFE /* 000015CA */]
000021CA  33FC 0001 FFFF 9222      move.w     [0xFFFF9222], 0x1
000021D2  2079 FFFF 7D56           movea.l    A0, [0xFFFF7D56]
000021D8  4868 0010                pea.l      [A0 + 0x10]
000021DC  A928                     syscall    InvalRect
000021DE  4279 FFFF 9238           clr.w      [0xFFFF9238]
000021E4  588F                     addq.l     A7, 4
000021E6  4CDF 1080                movem.l    D7,A4, [A7]+
000021EA  4E75                     rts
fn000021EC:
000021EC  48E7 0108                movem.l    -[A7], D7,A4
000021F0  4EBA FC3E                jsr        [PC - 0x3C2 /* 00001E30 */]
000021F4  7E00                     moveq.l    D7, 0x00
000021F6  287C FFFF 7814           movea.l    A4, 0xFFFF7814
000021FC  6028                     bra        +0x2A /* 00002226 */
label000021FE:
000021FE  4A94                     tst.l      [A4]
00002200  6720                     beq        +0x22 /* 00002222 */
00002202  2054                     movea.l    A0, [A4]
00002204  2050                     movea.l    A0, [A0]
00002206  2254                     movea.l    A1, [A4]
00002208  2251                     movea.l    A1, [A1]
0000220A  3368 0008 000C           move.w     [A1 + 0xC], [A0 + 0x8]
00002210  2054                     movea.l    A0, [A4]
00002212  2050                     movea.l    A0, [A0]
00002214  2254                     movea.l    A1, [A4]
00002216  2251                     movea.l    A1, [A1]
00002218  3368 000A 000E           move.w     [A1 + 0xE], [A0 + 0xA]
0000221E  2F14                     move.l     -[A7], [A4]
00002220  A955                     syscall    DisposeControl
label00002222:
00002222  5247                     addq.w     D7, 1
00002224  588C                     addq.l     A4, 4
label00002226:
00002226  0C47 0017                cmpi.w     D7, 0x17
0000222A  6DD2                     blt        -0x2C /* 000021FE */
0000222C  7E00                     moveq.l    D7, 0x00
0000222E  287C FFFF 7870           movea.l    A4, 0xFFFF7870
00002234  6028                     bra        +0x2A /* 0000225E */
label00002236:
00002236  4A94                     tst.l      [A4]
00002238  6720                     beq        +0x22 /* 0000225A */
0000223A  2054                     movea.l    A0, [A4]
0000223C  2050                     movea.l    A0, [A0]
0000223E  2254                     movea.l    A1, [A4]
00002240  2251                     movea.l    A1, [A1]
00002242  3368 0008 000C           move.w     [A1 + 0xC], [A0 + 0x8]
00002248  2054                     movea.l    A0, [A4]
0000224A  2050                     movea.l    A0, [A0]
0000224C  2254                     movea.l    A1, [A4]
0000224E  2251                     movea.l    A1, [A1]
00002250  3368 000A 000E           move.w     [A1 + 0xE], [A0 + 0xA]
00002256  2F14                     move.l     -[A7], [A4]
00002258  A955                     syscall    DisposeControl
label0000225A:
0000225A  5247                     addq.w     D7, 1
0000225C  588C                     addq.l     A4, 4
label0000225E:
0000225E  0C47 0006                cmpi.w     D7, 0x6
00002262  6DD2                     blt        -0x2C /* 00002236 */
00002264  4CDF 1080                movem.l    D7,A4, [A7]+
00002268  4E75                     rts
export_11:
0000226A  4E75                     rts
export_12:
0000226C  4E56 FEF4                link       A6, -0x010C
00002270  48E7 0108                movem.l    -[A7], D7,A4
00002274  2079 FFFF 7D56           movea.l    A0, [0xFFFF7D56]
0000227A  4868 0010                pea.l      [A0 + 0x10]
0000227E  A8A3                     syscall    EraseRect
00002280  4878 0199                push.l     0x199
00002284  A862                     syscall    ForeColor
00002286  3F3C 0004                move.w     -[A7], 0x4
0000228A  A888                     syscall    TextFace
0000228C  4267                     clr.w      -[A7]
0000228E  A887                     syscall    TextFont
00002290  3F3C 000C                move.w     -[A7], 0xC
00002294  A88A                     syscall    TextSize
00002296  2F3C 0028 0131           move.l     -[A7], 0x280131
0000229C  A893                     syscall    MoveTo
0000229E  2F3C FFFF 7AAE           move.l     -[A7], 0xFFFF7AAE
000022A4  A884                     syscall    DrawString
000022A6  2F3C 005A 0131           move.l     -[A7], 0x5A0131
000022AC  A893                     syscall    MoveTo
000022AE  2F3C FFFF 7AB8           move.l     -[A7], 0xFFFF7AB8
000022B4  A884                     syscall    DrawString
000022B6  4267                     clr.w      -[A7]
000022B8  A888                     syscall    TextFace
000022BA  2F3C 0039 0136           move.l     -[A7], 0x390136
000022C0  A893                     syscall    MoveTo
000022C2  2F3C FFFF 7ACA           move.l     -[A7], 0xFFFF7ACA
000022C8  A884                     syscall    DrawString
000022CA  4267                     clr.w      -[A7]
000022CC  A887                     syscall    TextFont
000022CE  3F3C 000C                move.w     -[A7], 0xC
000022D2  A88A                     syscall    TextSize
000022D4  4878 00CD                push.l     0xCD
000022D8  A862                     syscall    ForeColor
000022DA  3F39 FFFF 7806           move.w     -[A7], [0xFFFF7806]
000022E0  2F3C FFFF 7AD2           move.l     -[A7], 0xFFFF7AD2
000022E6  486E FF00                pea.l      [A6 - 0x100]
000022EA  4EAD 050A                jsr        [A5 + 0x50A /* export_157, CODE:7 @ 000020CA */]
000022EE  486E FF00                pea.l      [A6 - 0x100]
000022F2  4EAD 0482                jsr        [A5 + 0x482 /* export_140, CODE:7 @ 0000237C */]
000022F6  2EBC 0039 0168           move.l     [A7], 0x390168
000022FC  A893                     syscall    MoveTo
000022FE  486E FF00                pea.l      [A6 - 0x100]
00002302  A884                     syscall    DrawString
00002304  4878 0199                push.l     0x199
00002308  A862                     syscall    ForeColor
0000230A  2EBC 000A 000F           move.l     [A7], 0xA000F
00002310  A893                     syscall    MoveTo
00002312  2EBC 000A 0087           move.l     [A7], 0xA0087
00002318  A891                     syscall    LineTo
0000231A  2F3C 0059 0087           move.l     -[A7], 0x590087
00002320  A891                     syscall    LineTo
00002322  2F3C 0059 000F           move.l     -[A7], 0x59000F
00002328  A891                     syscall    LineTo
0000232A  2F3C 000A 000F           move.l     -[A7], 0xA000F
00002330  A891                     syscall    LineTo
00002332  2F3C 005A 0010           move.l     -[A7], 0x5A0010
00002338  A893                     syscall    MoveTo
0000233A  2F3C 005A 0088           move.l     -[A7], 0x5A0088
00002340  A891                     syscall    LineTo
00002342  2F3C 000B 0088           move.l     -[A7], 0xB0088
00002348  A891                     syscall    LineTo
0000234A  2F3C 0064 000F           move.l     -[A7], 0x64000F
00002350  A893                     syscall    MoveTo
00002352  2F3C 0064 0087           move.l     -[A7], 0x640087
00002358  A891                     syscall    LineTo
0000235A  2F3C 00B3 0087           move.l     -[A7], 0xB30087
00002360  A891                     syscall    LineTo
00002362  2F3C 00B3 000F           move.l     -[A7], 0xB3000F
00002368  A891                     syscall    LineTo
0000236A  2F3C 0064 000F           move.l     -[A7], 0x64000F
00002370  A891                     syscall    LineTo
00002372  2F3C 00B4 0010           move.l     -[A7], 0xB40010
00002378  A893                     syscall    MoveTo
0000237A  2F3C 00B4 0088           move.l     -[A7], 0xB40088
00002380  A891                     syscall    LineTo
00002382  2F3C 0065 0088           move.l     -[A7], 0x650088
00002388  A891                     syscall    LineTo
0000238A  2F3C 00BE 000F           move.l     -[A7], 0xBE000F
00002390  A893                     syscall    MoveTo
00002392  2F3C 00BE 0087           move.l     -[A7], 0xBE0087
00002398  A891                     syscall    LineTo
0000239A  2F3C 010D 0087           move.l     -[A7], 0x10D0087
000023A0  A891                     syscall    LineTo
000023A2  2F3C 010D 000F           move.l     -[A7], 0x10D000F
000023A8  A891                     syscall    LineTo
000023AA  2F3C 00BE 000F           move.l     -[A7], 0xBE000F
000023B0  A891                     syscall    LineTo
000023B2  2F3C 010E 0010           move.l     -[A7], 0x10E0010
000023B8  A893                     syscall    MoveTo
000023BA  2F3C 010E 0088           move.l     -[A7], 0x10E0088
000023C0  A891                     syscall    LineTo
000023C2  2F3C 00BF 0088           move.l     -[A7], 0xBF0088
000023C8  A891                     syscall    LineTo
000023CA  2F3C 000A 00A5           move.l     -[A7], 0xA00A5
000023D0  A893                     syscall    MoveTo
000023D2  2F3C 000A 011D           move.l     -[A7], 0xA011D
000023D8  A891                     syscall    LineTo
000023DA  2F3C 0068 011D           move.l     -[A7], 0x68011D
000023E0  A891                     syscall    LineTo
000023E2  2F3C 0068 00A5           move.l     -[A7], 0x6800A5
000023E8  A891                     syscall    LineTo
000023EA  2F3C 000A 00A5           move.l     -[A7], 0xA00A5
000023F0  A891                     syscall    LineTo
000023F2  2F3C 0069 00A6           move.l     -[A7], 0x6900A6
000023F8  A893                     syscall    MoveTo
000023FA  2F3C 0069 011E           move.l     -[A7], 0x69011E
00002400  A891                     syscall    LineTo
00002402  2F3C 000B 011E           move.l     -[A7], 0xB011E
00002408  A891                     syscall    LineTo
0000240A  2F3C 0073 00A5           move.l     -[A7], 0x7300A5
00002410  A893                     syscall    MoveTo
00002412  2F3C 0073 011D           move.l     -[A7], 0x73011D
00002418  A891                     syscall    LineTo
0000241A  2F3C 00B3 011D           move.l     -[A7], 0xB3011D
00002420  A891                     syscall    LineTo
00002422  2F3C 00B3 00A5           move.l     -[A7], 0xB300A5
00002428  A891                     syscall    LineTo
0000242A  2F3C 0073 00A5           move.l     -[A7], 0x7300A5
00002430  A891                     syscall    LineTo
00002432  2F3C 00B4 00A6           move.l     -[A7], 0xB400A6
00002438  A893                     syscall    MoveTo
0000243A  2F3C 00B4 011E           move.l     -[A7], 0xB4011E
00002440  A891                     syscall    LineTo
00002442  2F3C 0074 011E           move.l     -[A7], 0x74011E
00002448  A891                     syscall    LineTo
0000244A  2F3C 00BE 00A5           move.l     -[A7], 0xBE00A5
00002450  A893                     syscall    MoveTo
00002452  2F3C 00BE 011D           move.l     -[A7], 0xBE011D
00002458  A891                     syscall    LineTo
0000245A  2F3C 011E 011D           move.l     -[A7], 0x11E011D
00002460  A891                     syscall    LineTo
00002462  2F3C 011E 00A5           move.l     -[A7], 0x11E00A5
00002468  A891                     syscall    LineTo
0000246A  2F3C 00BE 00A5           move.l     -[A7], 0xBE00A5
00002470  A891                     syscall    LineTo
00002472  2F3C 011F 00A6           move.l     -[A7], 0x11F00A6
00002478  A893                     syscall    MoveTo
0000247A  2F3C 011F 011E           move.l     -[A7], 0x11F011E
00002480  A891                     syscall    LineTo
00002482  2F3C 00BF 011E           move.l     -[A7], 0xBF011E
00002488  A891                     syscall    LineTo
0000248A  4878 00CD                push.l     0xCD
0000248E  A862                     syscall    ForeColor
00002490  2F3C 0018 0014           move.l     -[A7], 0x180014
00002496  A893                     syscall    MoveTo
00002498  2F3C FFFF 7AD6           move.l     -[A7], 0xFFFF7AD6
0000249E  A884                     syscall    DrawString
000024A0  2F3C 0072 0014           move.l     -[A7], 0x720014
000024A6  A893                     syscall    MoveTo
000024A8  2F3C FFFF 7AE2           move.l     -[A7], 0xFFFF7AE2
000024AE  A884                     syscall    DrawString
000024B0  2F3C 00CC 0014           move.l     -[A7], 0xCC0014
000024B6  A893                     syscall    MoveTo
000024B8  2F3C FFFF 7AEE           move.l     -[A7], 0xFFFF7AEE
000024BE  A884                     syscall    DrawString
000024C0  2F3C 0018 00AA           move.l     -[A7], 0x1800AA
000024C6  A893                     syscall    MoveTo
000024C8  2F3C FFFF 7AFA           move.l     -[A7], 0xFFFF7AFA
000024CE  A884                     syscall    DrawString
000024D0  2F3C 0081 00AA           move.l     -[A7], 0x8100AA
000024D6  A893                     syscall    MoveTo
000024D8  2F3C FFFF 7B0A           move.l     -[A7], 0xFFFF7B0A
000024DE  A884                     syscall    DrawString
000024E0  2F3C 00CC 00AA           move.l     -[A7], 0xCC00AA
000024E6  A893                     syscall    MoveTo
000024E8  2F3C FFFF 7B12           move.l     -[A7], 0xFFFF7B12
000024EE  A884                     syscall    DrawString
000024F0  2F3C 006C 0136           move.l     -[A7], 0x6C0136
000024F6  A893                     syscall    MoveTo
000024F8  2F3C FFFF 7B20           move.l     -[A7], 0xFFFF7B20
000024FE  A884                     syscall    DrawString
00002500  2F3C 00AB 0136           move.l     -[A7], 0xAB0136
00002506  A893                     syscall    MoveTo
00002508  2F3C FFFF 7B2E           move.l     -[A7], 0xFFFF7B2E
0000250E  A884                     syscall    DrawString
00002510  4878 0021                push.l     0x21 /* '!' */
00002514  A862                     syscall    ForeColor
00002516  3EBC 0004                move.w     [A7], 0x4
0000251A  A887                     syscall    TextFont
0000251C  3F3C 0009                move.w     -[A7], 0x9 /* '\t' */
00002520  A88A                     syscall    TextSize
00002522  4A79 FFFF 9222           tst.w      [0xFFFF9222]
00002528  6736                     beq        +0x38 /* 00002560 */
0000252A  4279 FFFF 9222           clr.w      [0xFFFF9222]
00002530  7E00                     moveq.l    D7, 0x00
00002532  287C FFFF 7814           movea.l    A4, 0xFFFF7814
00002538  6008                     bra        +0xA /* 00002542 */
label0000253A:
0000253A  2F14                     move.l     -[A7], [A4]
0000253C  A957                     syscall    ShowControl
0000253E  5247                     addq.w     D7, 1
00002540  588C                     addq.l     A4, 4
label00002542:
00002542  0C47 0017                cmpi.w     D7, 0x17
00002546  6DF2                     blt        -0xC /* 0000253A */
00002548  7E00                     moveq.l    D7, 0x00
0000254A  287C FFFF 7870           movea.l    A4, 0xFFFF7870
00002550  6008                     bra        +0xA /* 0000255A */
label00002552:
00002552  2F14                     move.l     -[A7], [A4]
00002554  A957                     syscall    ShowControl
00002556  5247                     addq.w     D7, 1
00002558  588C                     addq.l     A4, 4
label0000255A:
0000255A  0C47 0006                cmpi.w     D7, 0x6
0000255E  6DF2                     blt        -0xC /* 00002552 */
label00002560:
00002560  4CDF 1080                movem.l    D7,A4, [A7]+
00002564  4E5E                     unlink     A6
00002566  4E75                     rts
fn00002568:
00002568  4E56 FFF8                link       A6, -0x0008
0000256C  48E7 0308                movem.l    -[A7], D6,D7,A4
00002570  4267                     clr.w      -[A7]
00002572  2F2E 0008                move.l     -[A7], [A6 + 0x8]
00002576  2F39 FFFF 7D64           move.l     -[A7], [0xFFFF7D64]
0000257C  42A7                     clr.l      -[A7]
0000257E  A968                     syscall    TrackControl
00002580  4A5F                     tst.w      [A7]+
00002582  6700 01A4                beq        +0x1A6 /* 00002728 */
00002586  33FC 0001 FFFF 9238      move.w     [0xFFFF9238], 0x1
0000258E  7E00                     moveq.l    D7, 0x00
00002590  287C FFFF 7814           movea.l    A4, 0xFFFF7814
00002596  6000 015E                bra        +0x160 /* 000026F6 */
label0000259A:
0000259A  2014                     move.l     D0, [A4]
0000259C  B0AE 0008                cmp.l      D0, [A6 + 0x8]
000025A0  6600 0150                bne        +0x152 /* 000026F2 */
000025A4  3007                     move.w     D0, D7
000025A6  6B00 014A                bmi        +0x14C /* 000026F2 */
000025AA  0440 0011                subi.w     D0, 0x11
000025AE  6A14                     bpl        +0x16 /* 000025C4 */
000025B0  0440 FFF7                subi.w     D0, 0xFFF7
000025B4  6A06                     bpl        +0x8 /* 000025BC */
000025B6  5840                     addq.w     D0, 4
000025B8  6A46                     bpl        +0x48 /* 00002600 */
000025BA  6018                     bra        +0x1A /* 000025D4 */
label000025BC:
000025BC  5940                     subq.w     D0, 4
000025BE  6A00 0098                bpl        +0x9A /* 00002658 */
000025C2  6068                     bra        +0x6A /* 0000262C */
label000025C4:
000025C4  5D40                     subq.w     D0, 6
000025C6  6A00 012A                bpl        +0x12C /* 000026F2 */
000025CA  5640                     addq.w     D0, 3
000025CC  6A00 00DE                bpl        +0xE0 /* 000026AC */
000025D0  6000 00B0                bra        +0xB2 /* 00002682 */
label000025D4:
000025D4  3C39 FFFF 7888           move.w     D6, [0xFFFF7888]
000025DA  33C7 FFFF 7888           move.w     [0xFFFF7888], D7
000025E0  2006                     move.l     D0, D6
000025E2  48C0                     ext.l      D0
000025E4  E588                     lsl        D0, 2
000025E6  2040                     movea.l    A0, D0
000025E8  D1FC FFFF 7814           add.l      A0, 0xFFFF7814
000025EE  2F10                     move.l     -[A7], [A0]
000025F0  4267                     clr.w      -[A7]
000025F2  A963                     syscall    SetControlValue/SetCtlValue
000025F4  2F14                     move.l     -[A7], [A4]
000025F6  3F3C 0001                move.w     -[A7], 0x1
000025FA  A963                     syscall    SetControlValue/SetCtlValue
000025FC  6000 00F4                bra        +0xF6 /* 000026F2 */
label00002600:
00002600  3C39 FFFF 788A           move.w     D6, [0xFFFF788A]
00002606  33C7 FFFF 788A           move.w     [0xFFFF788A], D7
0000260C  2006                     move.l     D0, D6
0000260E  48C0                     ext.l      D0
00002610  E588                     lsl        D0, 2
00002612  2040                     movea.l    A0, D0
00002614  D1FC FFFF 7814           add.l      A0, 0xFFFF7814
0000261A  2F10                     move.l     -[A7], [A0]
0000261C  4267                     clr.w      -[A7]
0000261E  A963                     syscall    SetControlValue/SetCtlValue
00002620  2F14                     move.l     -[A7], [A4]
00002622  3F3C 0001                move.w     -[A7], 0x1
00002626  A963                     syscall    SetControlValue/SetCtlValue
00002628  6000 00C8                bra        +0xCA /* 000026F2 */
label0000262C:
0000262C  3C39 FFFF 788C           move.w     D6, [0xFFFF788C]
00002632  33C7 FFFF 788C           move.w     [0xFFFF788C], D7
00002638  2006                     move.l     D0, D6
0000263A  48C0                     ext.l      D0
0000263C  E588                     lsl        D0, 2
0000263E  2040                     movea.l    A0, D0
00002640  D1FC FFFF 7814           add.l      A0, 0xFFFF7814
00002646  2F10                     move.l     -[A7], [A0]
00002648  4267                     clr.w      -[A7]
0000264A  A963                     syscall    SetControlValue/SetCtlValue
0000264C  2F14                     move.l     -[A7], [A4]
0000264E  3F3C 0001                move.w     -[A7], 0x1
00002652  A963                     syscall    SetControlValue/SetCtlValue
00002654  6000 009C                bra        +0x9E /* 000026F2 */
label00002658:
00002658  3C39 FFFF 788E           move.w     D6, [0xFFFF788E]
0000265E  33C7 FFFF 788E           move.w     [0xFFFF788E], D7
00002664  2006                     move.l     D0, D6
00002666  48C0                     ext.l      D0
00002668  E588                     lsl        D0, 2
0000266A  2040                     movea.l    A0, D0
0000266C  D1FC FFFF 7814           add.l      A0, 0xFFFF7814
00002672  2F10                     move.l     -[A7], [A0]
00002674  4267                     clr.w      -[A7]
00002676  A963                     syscall    SetControlValue/SetCtlValue
00002678  2F14                     move.l     -[A7], [A4]
0000267A  3F3C 0001                move.w     -[A7], 0x1
0000267E  A963                     syscall    SetControlValue/SetCtlValue
00002680  6070                     bra        +0x72 /* 000026F2 */
label00002682:
00002682  3C39 FFFF 7890           move.w     D6, [0xFFFF7890]
00002688  33C7 FFFF 7890           move.w     [0xFFFF7890], D7
0000268E  2006                     move.l     D0, D6
00002690  48C0                     ext.l      D0
00002692  E588                     lsl        D0, 2
00002694  2040                     movea.l    A0, D0
00002696  D1FC FFFF 7814           add.l      A0, 0xFFFF7814
0000269C  2F10                     move.l     -[A7], [A0]
0000269E  4267                     clr.w      -[A7]
000026A0  A963                     syscall    SetControlValue/SetCtlValue
000026A2  2F14                     move.l     -[A7], [A4]
000026A4  3F3C 0001                move.w     -[A7], 0x1
000026A8  A963                     syscall    SetControlValue/SetCtlValue
000026AA  6046                     bra        +0x48 /* 000026F2 */
label000026AC:
000026AC  3C39 FFFF 7892           move.w     D6, [0xFFFF7892]
000026B2  33C7 FFFF 7892           move.w     [0xFFFF7892], D7
000026B8  2006                     move.l     D0, D6
000026BA  48C0                     ext.l      D0
000026BC  E588                     lsl        D0, 2
000026BE  2040                     movea.l    A0, D0
000026C0  D1FC FFFF 7814           add.l      A0, 0xFFFF7814
000026C6  2F10                     move.l     -[A7], [A0]
000026C8  4267                     clr.w      -[A7]
000026CA  A963                     syscall    SetControlValue/SetCtlValue
000026CC  2F14                     move.l     -[A7], [A4]
000026CE  3F3C 0001                move.w     -[A7], 0x1
000026D2  A963                     syscall    SetControlValue/SetCtlValue
000026D4  3D7C 00FE FFF8           move.w     [A6 - 0x8], 0xFE
000026DA  3D7C 011E FFFC           move.w     [A6 - 0x4], 0x11E
000026E0  3D7C 0131 FFFA           move.w     [A6 - 0x6], 0x131
000026E6  3D7C 0151 FFFE           move.w     [A6 - 0x2], 0x151
000026EC  486E FFF8                pea.l      [A6 - 0x8]
000026F0  A928                     syscall    InvalRect
label000026F2:
000026F2  5247                     addq.w     D7, 1
000026F4  588C                     addq.l     A4, 4
label000026F6:
000026F6  0C47 0017                cmpi.w     D7, 0x17
000026FA  6D00 FE9E                blt        -0x160 /* 0000259A */
000026FE  2F3C FFFF 77F8           move.l     -[A7], 0xFFFF77F8
00002704  4EBA EEC4                jsr        [PC - 0x113C /* 000015CA */]
00002708  3D7C 0168 FFFA           move.w     [A6 - 0x6], 0x168
0000270E  3D7C 01F4 FFFE           move.w     [A6 - 0x2], 0x1F4
00002714  3D7C 002C FFF8           move.w     [A6 - 0x8], 0x2C /* ',' */
0000271A  3D7C 0039 FFFC           move.w     [A6 - 0x4], 0x39 /* '9' */
00002720  486E FFF8                pea.l      [A6 - 0x8]
00002724  A928                     syscall    InvalRect
00002726  588F                     addq.l     A7, 4
label00002728:
00002728  4CDF 10C0                movem.l    D6,D7,A4, [A7]+
0000272C  4E5E                     unlink     A6
0000272E  4E75                     rts
fn00002730:
00002730  4E56 FFF6                link       A6, -0x000A
00002734  48E7 0108                movem.l    -[A7], D7,A4
00002738  4267                     clr.w      -[A7]
0000273A  2F2E 0008                move.l     -[A7], [A6 + 0x8]
0000273E  2F39 FFFF 7D64           move.l     -[A7], [0xFFFF7D64]
00002744  42A7                     clr.l      -[A7]
00002746  A968                     syscall    TrackControl
00002748  4A5F                     tst.w      [A7]+
0000274A  6762                     beq        +0x64 /* 000027AE */
0000274C  33FC 0001 FFFF 9238      move.w     [0xFFFF9238], 0x1
00002754  7E00                     moveq.l    D7, 0x00
00002756  287C FFFF 7870           movea.l    A4, 0xFFFF7870
0000275C  6020                     bra        +0x22 /* 0000277E */
label0000275E:
0000275E  2014                     move.l     D0, [A4]
00002760  B0AE 0008                cmp.l      D0, [A6 + 0x8]
00002764  6614                     bne        +0x16 /* 0000277A */
00002766  2F14                     move.l     -[A7], [A4]
00002768  4267                     clr.w      -[A7]
0000276A  2F14                     move.l     -[A7], [A4]
0000276C  A960                     syscall    GetControlValue/GetCtlValue
0000276E  4A5F                     tst.w      [A7]+
00002770  57C0                     seq        D0
00002772  4400                     neg.b      D0
00002774  4880                     ext.w      D0
00002776  3F00                     move.w     -[A7], D0
00002778  A963                     syscall    SetControlValue/SetCtlValue
label0000277A:
0000277A  5247                     addq.w     D7, 1
0000277C  588C                     addq.l     A4, 4
label0000277E:
0000277E  0C47 0006                cmpi.w     D7, 0x6
00002782  6DDA                     blt        -0x24 /* 0000275E */
00002784  2F3C FFFF 77F8           move.l     -[A7], 0xFFFF77F8
0000278A  4EBA EE3E                jsr        [PC - 0x11C2 /* 000015CA */]
0000278E  3D7C 0168 FFF8           move.w     [A6 - 0x8], 0x168
00002794  3D7C 01F4 FFFC           move.w     [A6 - 0x4], 0x1F4
0000279A  3D7C 002C FFF6           move.w     [A6 - 0xA], 0x2C /* ',' */
000027A0  3D7C 0039 FFFA           move.w     [A6 - 0x6], 0x39 /* '9' */
000027A6  486E FFF6                pea.l      [A6 - 0xA]
000027AA  A928                     syscall    InvalRect
000027AC  588F                     addq.l     A7, 4
label000027AE:
000027AE  4CDF 1080                movem.l    D7,A4, [A7]+
000027B2  4E5E                     unlink     A6
000027B4  4E75                     rts
fn000027B6:
000027B6  4E56 FFEA                link       A6, -0x0016
000027BA  48E7 0118                movem.l    -[A7], D7,A3,A4
000027BE  4A79 FFFF 7B3E           tst.w      [0xFFFF7B3E]
000027C4  6600 0100                bne        +0x102 /* 000028C6 */
000027C8  42A7                     clr.l      -[A7]
000027CA  A9FC                     syscall    ZeroScrap
000027CC  4A9F                     tst.l      [A7]+
000027CE  6712                     beq        +0x14 /* 000027E2 */
000027D0  2F3C FFFF 7C6E           move.l     -[A7], 0xFFFF7C6E
000027D6  2F3C FFFF 7C70           move.l     -[A7], 0xFFFF7C70
000027DC  4EAD 0222                jsr        [A5 + 0x222 /* export_64, CODE:2 @ 00004DCE */]
000027E0  508F                     addq.l     A7, 8
label000027E2:
000027E2  203C 0000 0080           move.l     D0, 0x80
000027E8  A11E                     syscall    NewPtr, flags=1
000027EA  2848                     movea.l    A4, A0
000027EC  4A78 0220                tst.w      [0x00000220 /* MemErr */]
000027F0  6706                     beq        +0x8 /* 000027F8 */
000027F2  3F3C 0001                move.w     -[A7], 0x1
000027F6  A9C8                     syscall    SysBeep
label000027F8:
000027F8  7E00                     moveq.l    D7, 0x00
000027FA  600E                     bra        +0x10 /* 0000280A */
label000027FC:
000027FC  3047                     movea.w    A0, D7
000027FE  D1FC FFFF 7BC4           add.l      A0, 0xFFFF7BC4
00002804  1990 7000                move.b     [A4 + D7.w], [A0]
00002808  5247                     addq.w     D7, 1
label0000280A:
0000280A  0C47 0080                cmpi.w     D7, 0x80
0000280E  6DEC                     blt        -0x12 /* 000027FC */
00002810  42A7                     clr.l      -[A7]
00002812  4878 0080                push.l     0x80
00002816  2F3C 4943 4F4E           move.l     -[A7], 0x49434F4E /* 'ICON' */
0000281C  2F0C                     move.l     -[A7], A4
0000281E  A9FE                     syscall    PutScrap
00002820  4A9F                     tst.l      [A7]+
00002822  6706                     beq        +0x8 /* 0000282A */
00002824  3F3C 0001                move.w     -[A7], 0x1
00002828  A9C8                     syscall    SysBeep
label0000282A:
0000282A  204C                     movea.l    A0, A4
0000282C  A01F                     syscall    DisposPtr/DisposePtr
0000282E  4A78 0220                tst.w      [0x00000220 /* MemErr */]
00002832  6706                     beq        +0x8 /* 0000283A */
00002834  3F3C 0001                move.w     -[A7], 0x1
00002838  A9C8                     syscall    SysBeep
label0000283A:
0000283A  2D7C FFFF 7BC4 FFEA      move.l     [A6 - 0x16], 0xFFFF7BC4
00002842  426E FFF0                clr.w      [A6 - 0x10]
00002846  3D7C 0020 FFF4           move.w     [A6 - 0xC], 0x20 /* ' ' */
0000284C  426E FFF2                clr.w      [A6 - 0xE]
00002850  3D7C 0020 FFF6           move.w     [A6 - 0xA], 0x20 /* ' ' */
00002856  3D7C 0004 FFEE           move.w     [A6 - 0x12], 0x4
0000285C  42A7                     clr.l      -[A7]
0000285E  A8D8                     syscall    NewRgn
00002860  285F                     movea.l    A4, [A7]+
00002862  2F0C                     move.l     -[A7], A4
00002864  A87A                     syscall    GetClip
00002866  486E FFF0                pea.l      [A6 - 0x10]
0000286A  A87B                     syscall    ClipRect
0000286C  42A7                     clr.l      -[A7]
0000286E  486E FFF0                pea.l      [A6 - 0x10]
00002872  A8F3                     syscall    OpenPicture
00002874  265F                     movea.l    A3, [A7]+
00002876  486E FFEA                pea.l      [A6 - 0x16]
0000287A  2079 FFFF FACC           movea.l    A0, [0xFFFFFACC]
00002880  4868 0002                pea.l      [A0 + 0x2]
00002884  486E FFF0                pea.l      [A6 - 0x10]
00002888  486E FFF0                pea.l      [A6 - 0x10]
0000288C  4267                     clr.w      -[A7]
0000288E  42A7                     clr.l      -[A7]
00002890  A8EC                     syscall    CopyBits
00002892  A8F4                     syscall    ClosePicture
00002894  2F0C                     move.l     -[A7], A4
00002896  A879                     syscall    SetClip
00002898  2F0C                     move.l     -[A7], A4
0000289A  A8D9                     syscall    DisposRgn/DisposeRgn
0000289C  204B                     movea.l    A0, A3
0000289E  A029                     syscall    HLock
000028A0  42A7                     clr.l      -[A7]
000028A2  2053                     movea.l    A0, [A3]
000028A4  3050                     movea.w    A0, [A0]
000028A6  4868 000C                pea.l      [A0 + 0xC]
000028AA  2F3C 5049 4354           move.l     -[A7], 0x50494354 /* 'PICT' */
000028B0  2F13                     move.l     -[A7], [A3]
000028B2  A9FE                     syscall    PutScrap
000028B4  4A9F                     tst.l      [A7]+
000028B6  6706                     beq        +0x8 /* 000028BE */
000028B8  3F3C 0001                move.w     -[A7], 0x1
000028BC  A9C8                     syscall    SysBeep
label000028BE:
000028BE  204B                     movea.l    A0, A3
000028C0  A02A                     syscall    HUnlock
000028C2  2F0B                     move.l     -[A7], A3
000028C4  A8F5                     syscall    KillPicture
label000028C6:
000028C6  4CDF 1880                movem.l    D7,A3,A4, [A7]+
000028CA  4E5E                     unlink     A6
000028CC  4E75                     rts
fn000028CE:
000028CE  4E56 FFE0                link       A6, -0x0020
000028D2  48E7 0118                movem.l    -[A7], D7,A3,A4
000028D6  42A7                     clr.l      -[A7]
000028D8  42A7                     clr.l      -[A7]
000028DA  2F3C 4943 4F4E           move.l     -[A7], 0x49434F4E /* 'ICON' */
000028E0  486E FFFC                pea.l      [A6 - 0x4]
000028E4  A9FD                     syscall    GetScrap
000028E6  2E1F                     move.l     D7, [A7]+
000028E8  4A87                     tst.l      D7
000028EA  6C00 00E4                bge        +0xE6 /* 000029D0 */
000028EE  42A7                     clr.l      -[A7]
000028F0  42A7                     clr.l      -[A7]
000028F2  2F3C 5049 4354           move.l     -[A7], 0x50494354 /* 'PICT' */
000028F8  486E FFFC                pea.l      [A6 - 0x4]
000028FC  A9FD                     syscall    GetScrap
000028FE  2E1F                     move.l     D7, [A7]+
00002900  4A87                     tst.l      D7
00002902  6C0C                     bge        +0xE /* 00002910 */
00002904  33FC 0001 FFFF 7B3E      move.w     [0xFFFF7B3E], 0x1
0000290C  6000 011E                bra        +0x120 /* 00002A2C */
label00002910:
00002910  7001                     moveq.l    D0, 0x01
00002912  A122                     syscall    NewHandle, flags=1
00002914  2848                     movea.l    A4, A0
00002916  4A78 0220                tst.w      [0x00000220 /* MemErr */]
0000291A  6706                     beq        +0x8 /* 00002922 */
0000291C  3F3C 0001                move.w     -[A7], 0x1
00002920  A9C8                     syscall    SysBeep
label00002922:
00002922  42A7                     clr.l      -[A7]
00002924  2F0C                     move.l     -[A7], A4
00002926  2F3C 5049 4354           move.l     -[A7], 0x50494354 /* 'PICT' */
0000292C  486E FFFC                pea.l      [A6 - 0x4]
00002930  A9FD                     syscall    GetScrap
00002932  4A9F                     tst.l      [A7]+
00002934  6F00 008C                ble        +0x8E /* 000029C2 */
00002938  426E FFF4                clr.w      [A6 - 0xC]
0000293C  3D7C 0020 FFF8           move.w     [A6 - 0x8], 0x20 /* ' ' */
00002942  426E FFF6                clr.w      [A6 - 0xA]
00002946  3D7C 0020 FFFA           move.w     [A6 - 0x6], 0x20 /* ' ' */
0000294C  3D7C 0004 FFF2           move.w     [A6 - 0xE], 0x4
00002952  2D7C FFFF 7BC4 FFEE      move.l     [A6 - 0x12], 0xFFFF7BC4
0000295A  2079 FFFF FACC           movea.l    A0, [0xFFFFFACC]
00002960  43EE FFE0                lea.l      A1, [A6 - 0x20]
00002964  5488                     addq.l     A0, 2
00002966  22D8                     move.l     [A1]+, [A0]+
00002968  22D8                     move.l     [A1]+, [A0]+
0000296A  22D8                     move.l     [A1]+, [A0]+
0000296C  32D8                     move.w     [A1]+, [A0]+
0000296E  486E FFEE                pea.l      [A6 - 0x12]
00002972  A875                     syscall    SetPBits/SetPortBits
00002974  486E FFF4                pea.l      [A6 - 0xC]
00002978  A8A3                     syscall    EraseRect
0000297A  42A7                     clr.l      -[A7]
0000297C  A8D8                     syscall    NewRgn
0000297E  265F                     movea.l    A3, [A7]+
00002980  2F0B                     move.l     -[A7], A3
00002982  A87A                     syscall    GetClip
00002984  486E FFF4                pea.l      [A6 - 0xC]
00002988  A87B                     syscall    ClipRect
0000298A  2054                     movea.l    A0, [A4]
0000298C  4868 0002                pea.l      [A0 + 0x2]
00002990  3028 0004                move.w     D0, [A0 + 0x4]
00002994  4440                     neg.w      D0
00002996  3F00                     move.w     -[A7], D0
00002998  3028 0002                move.w     D0, [A0 + 0x2]
0000299C  4440                     neg.w      D0
0000299E  3F00                     move.w     -[A7], D0
000029A0  A8A8                     syscall    OffsetRect
000029A2  2F0C                     move.l     -[A7], A4
000029A4  2054                     movea.l    A0, [A4]
000029A6  4868 0002                pea.l      [A0 + 0x2]
000029AA  A8F6                     syscall    DrawPicture
000029AC  2F0B                     move.l     -[A7], A3
000029AE  A879                     syscall    SetClip
000029B0  4279 FFFF 7B3E           clr.w      [0xFFFF7B3E]
000029B6  486E FFE0                pea.l      [A6 - 0x20]
000029BA  A875                     syscall    SetPBits/SetPortBits
000029BC  2F0B                     move.l     -[A7], A3
000029BE  A8D9                     syscall    DisposRgn/DisposeRgn
000029C0  6008                     bra        +0xA /* 000029CA */
label000029C2:
000029C2  33FC 0001 FFFF 7B3E      move.w     [0xFFFF7B3E], 0x1
label000029CA:
000029CA  204C                     movea.l    A0, A4
000029CC  A023                     syscall    DisposHandle/DisposeHandle
000029CE  605C                     bra        +0x5E /* 00002A2C */
label000029D0:
000029D0  203C 0000 0080           move.l     D0, 0x80
000029D6  A122                     syscall    NewHandle, flags=1
000029D8  2848                     movea.l    A4, A0
000029DA  4A78 0220                tst.w      [0x00000220 /* MemErr */]
000029DE  6706                     beq        +0x8 /* 000029E6 */
000029E0  3F3C 0001                move.w     -[A7], 0x1
000029E4  A9C8                     syscall    SysBeep
label000029E6:
000029E6  42A7                     clr.l      -[A7]
000029E8  2F0C                     move.l     -[A7], A4
000029EA  2F3C 4943 4F4E           move.l     -[A7], 0x49434F4E /* 'ICON' */
000029F0  486E FFFC                pea.l      [A6 - 0x4]
000029F4  A9FD                     syscall    GetScrap
000029F6  0C9F 0000 0080           cmpi.l     [A7]+, 0x80
000029FC  6622                     bne        +0x24 /* 00002A20 */
000029FE  7E00                     moveq.l    D7, 0x00
00002A00  6010                     bra        +0x12 /* 00002A12 */
label00002A02:
00002A02  2054                     movea.l    A0, [A4]
00002A04  3247                     movea.w    A1, D7
00002A06  D3FC FFFF 7BC4           add.l      A1, 0xFFFF7BC4
00002A0C  12B0 7000                move.b     [A1], [A0 + D7.w]
00002A10  5247                     addq.w     D7, 1
label00002A12:
00002A12  0C47 0080                cmpi.w     D7, 0x80
00002A16  6DEA                     blt        -0x14 /* 00002A02 */
00002A18  4279 FFFF 7B3E           clr.w      [0xFFFF7B3E]
00002A1E  6008                     bra        +0xA /* 00002A28 */
label00002A20:
00002A20  33FC 0001 FFFF 7B3E      move.w     [0xFFFF7B3E], 0x1
label00002A28:
00002A28  204C                     movea.l    A0, A4
00002A2A  A023                     syscall    DisposHandle/DisposeHandle
label00002A2C:
00002A2C  4CDF 1880                movem.l    D7,A3,A4, [A7]+
00002A30  4E5E                     unlink     A6
00002A32  4E75                     rts
fn00002A34:
00002A34  48E7 0108                movem.l    -[A7], D7,A4
00002A38  303C 03C2                move.w     D0, 0x3C2
00002A3C  C1F9 FFFF 9228           muls.w     D0, [0xFFFF9228]
00002A42  2840                     movea.l    A4, D0
00002A44  D9FC FFFF 9766           add.l      A4, 0xFFFF9766
00002A4A  3039 FFFF 7B3C           move.w     D0, [0xFFFF7B3C]
00002A50  48C0                     ext.l      D0
00002A52  E588                     lsl        D0, 2
00002A54  D08C                     add.l      D0, A4
00002A56  2840                     movea.l    A4, D0
00002A58  4A94                     tst.l      [A4]
00002A5A  660A                     bne        +0xC /* 00002A66 */
00002A5C  33FC 0001 FFFF 7B40      move.w     [0xFFFF7B40], 0x1
00002A64  6020                     bra        +0x22 /* 00002A86 */
label00002A66:
00002A66  7E00                     moveq.l    D7, 0x00
00002A68  6010                     bra        +0x12 /* 00002A7A */
label00002A6A:
00002A6A  2054                     movea.l    A0, [A4]
00002A6C  3247                     movea.w    A1, D7
00002A6E  D3FC FFFF 7B44           add.l      A1, 0xFFFF7B44
00002A74  12B0 7000                move.b     [A1], [A0 + D7.w]
00002A78  5247                     addq.w     D7, 1
label00002A7A:
00002A7A  0C47 0080                cmpi.w     D7, 0x80
00002A7E  6DEA                     blt        -0x14 /* 00002A6A */
00002A80  4279 FFFF 7B40           clr.w      [0xFFFF7B40]
label00002A86:
00002A86  2F39 FFFF 7D42           move.l     -[A7], [0xFFFF7D42]
00002A8C  3F3C 0001                move.w     -[A7], 0x1
00002A90  A939                     syscall    EnableItem
00002A92  4CDF 1080                movem.l    D7,A4, [A7]+
00002A96  4E75                     rts
fn00002A98:
00002A98  2F39 FFFF 7D42           move.l     -[A7], [0xFFFF7D42]
00002A9E  3F3C 0003                move.w     -[A7], 0x3
00002AA2  A939                     syscall    EnableItem
00002AA4  2F39 FFFF 7D42           move.l     -[A7], [0xFFFF7D42]
00002AAA  3F3C 0004                move.w     -[A7], 0x4
00002AAE  A939                     syscall    EnableItem
00002AB0  2F39 FFFF 7D42           move.l     -[A7], [0xFFFF7D42]
00002AB6  3F3C 0006                move.w     -[A7], 0x6
00002ABA  A939                     syscall    EnableItem
00002ABC  4E75                     rts
fn00002ABE:
00002ABE  2F39 FFFF 7D42           move.l     -[A7], [0xFFFF7D42]
00002AC4  3F3C 0003                move.w     -[A7], 0x3
00002AC8  A93A                     syscall    DisableItem
00002ACA  2F39 FFFF 7D42           move.l     -[A7], [0xFFFF7D42]
00002AD0  3F3C 0004                move.w     -[A7], 0x4
00002AD4  A93A                     syscall    DisableItem
00002AD6  2F39 FFFF 7D42           move.l     -[A7], [0xFFFF7D42]
00002ADC  3F3C 0006                move.w     -[A7], 0x6
00002AE0  A93A                     syscall    DisableItem
00002AE2  4E75                     rts
fn00002AE4:
00002AE4  4E56 FFF8                link       A6, -0x0008
00002AE8  4A79 FFFF 7B3C           tst.w      [0xFFFF7B3C]
00002AEE  6600 0094                bne        +0x96 /* 00002B84 */
00002AF2  3D7C 00FE FFF8           move.w     [A6 - 0x8], 0xFE
00002AF8  3D7C 011E FFFC           move.w     [A6 - 0x4], 0x11E
00002AFE  3D7C 0131 FFFA           move.w     [A6 - 0x6], 0x131
00002B04  3D7C 0151 FFFE           move.w     [A6 - 0x2], 0x151
00002B0A  486E FFF8                pea.l      [A6 - 0x8]
00002B0E  A8A3                     syscall    EraseRect
00002B10  303C 03C2                move.w     D0, 0x3C2
00002B14  C1F9 FFFF 9228           muls.w     D0, [0xFFFF9228]
00002B1A  2040                     movea.l    A0, D0
00002B1C  D1FC FFFF 9766           add.l      A0, 0xFFFF9766
00002B22  4A90                     tst.l      [A0]
00002B24  6730                     beq        +0x32 /* 00002B56 */
00002B26  303C 03C2                move.w     D0, 0x3C2
00002B2A  C1F9 FFFF 9228           muls.w     D0, [0xFFFF9228]
00002B30  2040                     movea.l    A0, D0
00002B32  D1FC FFFF 9790           add.l      A0, 0xFFFF9790
00002B38  3F10                     move.w     -[A7], [A0]
00002B3A  42A7                     clr.l      -[A7]
00002B3C  2F3C 005A 0000           move.l     -[A7], 0x5A0000 /* 'Z\0\0' */
00002B42  2F3C 0141 010E           move.l     -[A7], 0x141010E
00002B48  3F3C FFFE                move.w     -[A7], 0xFFFE
00002B4C  4EAD 0252                jsr        [A5 + 0x252 /* export_70, CODE:2 @ 0000506A */]
00002B50  4FEF 0010                lea.l      A7, [A7 + 0x10]
00002B54  602E                     bra        +0x30 /* 00002B84 */
label00002B56:
00002B56  303C 03C2                move.w     D0, 0x3C2
00002B5A  C1F9 FFFF 9228           muls.w     D0, [0xFFFF9228]
00002B60  2040                     movea.l    A0, D0
00002B62  D1FC FFFF 9790           add.l      A0, 0xFFFF9790
00002B68  3F10                     move.w     -[A7], [A0]
00002B6A  42A7                     clr.l      -[A7]
00002B6C  2F3C 005A 0000           move.l     -[A7], 0x5A0000 /* 'Z\0\0' */
00002B72  2F3C 0141 010E           move.l     -[A7], 0x141010E
00002B78  3F3C FFFF                move.w     -[A7], 0xFFFF
00002B7C  4EAD 0252                jsr        [A5 + 0x252 /* export_70, CODE:2 @ 0000506A */]
00002B80  4FEF 0010                lea.l      A7, [A7 + 0x10]
label00002B84:
00002B84  2F3C FFFF 7C4A           move.l     -[A7], 0xFFFF7C4A
00002B8A  A928                     syscall    InvalRect
00002B8C  3039 FFFF 7B3C           move.w     D0, [0xFFFF7B3C]
00002B92  48C0                     ext.l      D0
00002B94  81FC 0002                divs.w     D0, 0x2
00002B98  C1FC 002D                muls.w     D0, 0x2D /* '-' */
00002B9C  0640 0013                addi.w     D0, 0x13
00002BA0  3D40 FFF8                move.w     [A6 - 0x8], D0
00002BA4  7020                     moveq.l    D0, 0x20
00002BA6  D06E FFF8                add.w      D0, [A6 - 0x8]
00002BAA  3D40 FFFC                move.w     [A6 - 0x4], D0
00002BAE  3039 FFFF 7B3C           move.w     D0, [0xFFFF7B3C]
00002BB4  48C0                     ext.l      D0
00002BB6  81FC 0002                divs.w     D0, 0x2
00002BBA  4840                     swap.w     D0
00002BBC  C1FC 0064                muls.w     D0, 0x64 /* 'd' */
00002BC0  0640 014E                addi.w     D0, 0x14E
00002BC4  3D40 FFFA                move.w     [A6 - 0x6], D0
00002BC8  7020                     moveq.l    D0, 0x20
00002BCA  D06E FFFA                add.w      D0, [A6 - 0x6]
00002BCE  3D40 FFFE                move.w     [A6 - 0x2], D0
00002BD2  486E FFF8                pea.l      [A6 - 0x8]
00002BD6  A928                     syscall    InvalRect
00002BD8  4E5E                     unlink     A6
00002BDA  4E75                     rts
export_13:
00002BDC  4E56 FEF2                link       A6, -0x010E
00002BE0  48E7 1F08                movem.l    -[A7], D3,D4,D5,D6,D7,A4
00002BE4  2079 FFFF 7D56           movea.l    A0, [0xFFFF7D56]
00002BEA  4868 0010                pea.l      [A0 + 0x10]
00002BEE  A8A3                     syscall    EraseRect
00002BF0  3F3C 0004                move.w     -[A7], 0x4
00002BF4  A887                     syscall    TextFont
00002BF6  3F3C 0009                move.w     -[A7], 0x9 /* '\t' */
00002BFA  A88A                     syscall    TextSize
00002BFC  7E00                     moveq.l    D7, 0x00
00002BFE  7C00                     moveq.l    D6, 0x00
00002C00  6000 013C                bra        +0x13E /* 00002D3E */
label00002C04:
00002C04  7A00                     moveq.l    D5, 0x00
00002C06  3807                     move.w     D4, D7
00002C08  D847                     add.w      D4, D7
00002C0A  7013                     moveq.l    D0, 0x13
00002C0C  D046                     add.w      D0, D6
00002C0E  3D40 FEF2                move.w     [A6 - 0x10E], D0
00002C12  7233                     moveq.l    D1, 0x33
00002C14  D246                     add.w      D1, D6
00002C16  3D41 FEF6                move.w     [A6 - 0x10A], D1
00002C1A  743D                     moveq.l    D2, 0x3D
00002C1C  D446                     add.w      D2, D6
00002C1E  3D42 FEF4                move.w     [A6 - 0x10C], D2
00002C22  7664                     moveq.l    D3, 0x64
00002C24  C7C5                     muls.w     D3, D5
00002C26  6000 0108                bra        +0x10A /* 00002D30 */
label00002C2A:
00002C2A  303C 03C2                move.w     D0, 0x3C2
00002C2E  C1F9 FFFF 9228           muls.w     D0, [0xFFFF9228]
00002C34  3204                     move.w     D1, D4
00002C36  D245                     add.w      D1, D5
00002C38  0680 FFFF 9766           addi.l     D0, 0xFFFF9766
00002C3E  48C1                     ext.l      D1
00002C40  E589                     lsl        D1, 2
00002C42  D081                     add.l      D0, D1
00002C44  2040                     movea.l    A0, D0
00002C46  4A90                     tst.l      [A0]
00002C48  6768                     beq        +0x6A /* 00002CB2 */
00002C4A  3D6E FEF2 FFF8           move.w     [A6 - 0x8], [A6 - 0x10E]
00002C50  3D6E FEF6 FFFC           move.w     [A6 - 0x4], [A6 - 0x10A]
00002C56  3003                     move.w     D0, D3
00002C58  0640 014E                addi.w     D0, 0x14E
00002C5C  3D40 FFFA                move.w     [A6 - 0x6], D0
00002C60  3003                     move.w     D0, D3
00002C62  0640 016E                addi.w     D0, 0x16E
00002C66  3D40 FFFE                move.w     [A6 - 0x2], D0
00002C6A  4878 0111                push.l     0x111
00002C6E  A862                     syscall    ForeColor
00002C70  303C 03C2                move.w     D0, 0x3C2
00002C74  C1F9 FFFF 9228           muls.w     D0, [0xFFFF9228]
00002C7A  3204                     move.w     D1, D4
00002C7C  D245                     add.w      D1, D5
00002C7E  0680 FFFF 9766           addi.l     D0, 0xFFFF9766
00002C84  48C1                     ext.l      D1
00002C86  E589                     lsl        D1, 2
00002C88  D081                     add.l      D0, D1
00002C8A  2040                     movea.l    A0, D0
00002C8C  23D0 FFFF 7E26           move.l     [0xFFFF7E26], [A0]
00002C92  2F3C FFFF 7E26           move.l     -[A7], 0xFFFF7E26
00002C98  2079 FFFF 7D56           movea.l    A0, [0xFFFF7D56]
00002C9E  4868 0002                pea.l      [A0 + 0x2]
00002CA2  2F3C FFFF 7E2C           move.l     -[A7], 0xFFFF7E2C
00002CA8  486E FFF8                pea.l      [A6 - 0x8]
00002CAC  4267                     clr.w      -[A7]
00002CAE  42A7                     clr.l      -[A7]
00002CB0  A8EC                     syscall    CopyBits
label00002CB2:
00002CB2  4878 0155                push.l     0x155
00002CB6  A862                     syscall    ForeColor
00002CB8  4A47                     tst.w      D7
00002CBA  671A                     beq        +0x1C /* 00002CD6 */
00002CBC  3004                     move.w     D0, D4
00002CBE  D045                     add.w      D0, D5
00002CC0  3F00                     move.w     -[A7], D0
00002CC2  2F3C FFFF 7C86           move.l     -[A7], 0xFFFF7C86
00002CC8  486E FEF8                pea.l      [A6 - 0x108]
00002CCC  4EAD 050A                jsr        [A5 + 0x50A /* export_157, CODE:7 @ 000020CA */]
00002CD0  4FEF 000A                lea.l      A7, [A7 + 0xA]
00002CD4  6026                     bra        +0x28 /* 00002CFC */
label00002CD6:
00002CD6  4A45                     tst.w      D5
00002CD8  6712                     beq        +0x14 /* 00002CEC */
00002CDA  2F3C FFFF 7C8E           move.l     -[A7], 0xFFFF7C8E
00002CE0  486E FEF8                pea.l      [A6 - 0x108]
00002CE4  4EAD 051A                jsr        [A5 + 0x51A /* export_159, CODE:7 @ 000021A6 */]
00002CE8  508F                     addq.l     A7, 8
00002CEA  6010                     bra        +0x12 /* 00002CFC */
label00002CEC:
00002CEC  2F3C FFFF 7C96           move.l     -[A7], 0xFFFF7C96
00002CF2  486E FEF8                pea.l      [A6 - 0x108]
00002CF6  4EAD 051A                jsr        [A5 + 0x51A /* export_159, CODE:7 @ 000021A6 */]
00002CFA  508F                     addq.l     A7, 8
label00002CFC:
00002CFC  486E FEF8                pea.l      [A6 - 0x108]
00002D00  4EAD 0482                jsr        [A5 + 0x482 /* export_140, CODE:7 @ 0000237C */]
00002D04  4257                     clr.w      [A7]
00002D06  486E FEF8                pea.l      [A6 - 0x108]
00002D0A  A88C                     syscall    StringWidth
00002D0C  301F                     move.w     D0, [A7]+
00002D0E  48C0                     ext.l      D0
00002D10  81FC 0002                divs.w     D0, 0x2
00002D14  3203                     move.w     D1, D3
00002D16  0641 015E                addi.w     D1, 0x15E
00002D1A  9240                     sub.w      D1, D0
00002D1C  3E81                     move.w     [A7], D1
00002D1E  3F2E FEF4                move.w     -[A7], [A6 - 0x10C]
00002D22  A893                     syscall    MoveTo
00002D24  486E FEF8                pea.l      [A6 - 0x108]
00002D28  A884                     syscall    DrawString
00002D2A  5245                     addq.w     D5, 1
00002D2C  0643 0064                addi.w     D3, 0x64 /* 'd' */
label00002D30:
00002D30  0C45 0002                cmpi.w     D5, 0x2
00002D34  6D00 FEF4                blt        -0x10A /* 00002C2A */
00002D38  5247                     addq.w     D7, 1
00002D3A  0646 002D                addi.w     D6, 0x2D /* '-' */
label00002D3E:
00002D3E  0C47 0005                cmpi.w     D7, 0x5
00002D42  6D00 FEC0                blt        -0x13E /* 00002C04 */
00002D46  4878 0199                push.l     0x199
00002D4A  A862                     syscall    ForeColor
00002D4C  2F3C FFFF 7C44           move.l     -[A7], 0xFFFF7C44
00002D52  2079 FFFF 7D56           movea.l    A0, [0xFFFF7D56]
00002D58  4868 0002                pea.l      [A0 + 0x2]
00002D5C  2F3C FFFF 7C4A           move.l     -[A7], 0xFFFF7C4A
00002D62  2F3C FFFF 7C4A           move.l     -[A7], 0xFFFF7C4A
00002D68  4267                     clr.w      -[A7]
00002D6A  42A7                     clr.l      -[A7]
00002D6C  A8EC                     syscall    CopyBits
00002D6E  4878 00CD                push.l     0xCD
00002D72  A862                     syscall    ForeColor
00002D74  7E00                     moveq.l    D7, 0x00
00002D76  287C FFFF 7C52           movea.l    A4, 0xFFFF7C52
00002D7C  6008                     bra        +0xA /* 00002D86 */
label00002D7E:
00002D7E  2F14                     move.l     -[A7], [A4]
00002D80  A8D3                     syscall    PaintRgn
00002D82  5247                     addq.w     D7, 1
00002D84  588C                     addq.l     A4, 4
label00002D86:
00002D86  0C47 0007                cmpi.w     D7, 0x7
00002D8A  6DF2                     blt        -0xC /* 00002D7E */
00002D8C  2F3C FFFF FAB4           move.l     -[A7], 0xFFFFFAB4
00002D92  A89D                     syscall    PenPat
00002D94  7E00                     moveq.l    D7, 0x00
00002D96  6046                     bra        +0x48 /* 00002DDE */
label00002D98:
00002D98  2007                     move.l     D0, D7
00002D9A  48C0                     ext.l      D0
00002D9C  81FC 0002                divs.w     D0, 0x2
00002DA0  C1FC 002D                muls.w     D0, 0x2D /* '-' */
00002DA4  0640 0012                addi.w     D0, 0x12
00002DA8  3D40 FFF8                move.w     [A6 - 0x8], D0
00002DAC  7022                     moveq.l    D0, 0x22
00002DAE  D06E FFF8                add.w      D0, [A6 - 0x8]
00002DB2  3D40 FFFC                move.w     [A6 - 0x4], D0
00002DB6  2007                     move.l     D0, D7
00002DB8  48C0                     ext.l      D0
00002DBA  81FC 0002                divs.w     D0, 0x2
00002DBE  4840                     swap.w     D0
00002DC0  C1FC 0064                muls.w     D0, 0x64 /* 'd' */
00002DC4  0640 014D                addi.w     D0, 0x14D
00002DC8  3D40 FFFA                move.w     [A6 - 0x6], D0
00002DCC  7022                     moveq.l    D0, 0x22
00002DCE  D06E FFFA                add.w      D0, [A6 - 0x6]
00002DD2  3D40 FFFE                move.w     [A6 - 0x2], D0
00002DD6  486E FFF8                pea.l      [A6 - 0x8]
00002DDA  A8A1                     syscall    FrameRect
00002DDC  5247                     addq.w     D7, 1
label00002DDE:
00002DDE  0C47 000A                cmpi.w     D7, 0xA /* '\n' */
00002DE2  6DB4                     blt        -0x4A /* 00002D98 */
00002DE4  2F3C FFFF FABC           move.l     -[A7], 0xFFFFFABC
00002DEA  A89D                     syscall    PenPat
00002DEC  4878 0021                push.l     0x21 /* '!' */
00002DF0  A862                     syscall    ForeColor
00002DF2  3039 FFFF 7B3C           move.w     D0, [0xFFFF7B3C]
00002DF8  48C0                     ext.l      D0
00002DFA  81FC 0002                divs.w     D0, 0x2
00002DFE  C1FC 002D                muls.w     D0, 0x2D /* '-' */
00002E02  0640 0012                addi.w     D0, 0x12
00002E06  3D40 FFF8                move.w     [A6 - 0x8], D0
00002E0A  7022                     moveq.l    D0, 0x22
00002E0C  D06E FFF8                add.w      D0, [A6 - 0x8]
00002E10  3D40 FFFC                move.w     [A6 - 0x4], D0
00002E14  3039 FFFF 7B3C           move.w     D0, [0xFFFF7B3C]
00002E1A  48C0                     ext.l      D0
00002E1C  81FC 0002                divs.w     D0, 0x2
00002E20  4840                     swap.w     D0
00002E22  C1FC 0064                muls.w     D0, 0x64 /* 'd' */
00002E26  0640 014D                addi.w     D0, 0x14D
00002E2A  3D40 FFFA                move.w     [A6 - 0x6], D0
00002E2E  7022                     moveq.l    D0, 0x22
00002E30  D06E FFFA                add.w      D0, [A6 - 0x6]
00002E34  3D40 FFFE                move.w     [A6 - 0x2], D0
00002E38  486E FFF8                pea.l      [A6 - 0x8]
00002E3C  A8A1                     syscall    FrameRect
00002E3E  303C 03C2                move.w     D0, 0x3C2
00002E42  C1F9 FFFF 9228           muls.w     D0, [0xFFFF9228]
00002E48  2040                     movea.l    A0, D0
00002E4A  D1FC FFFF 9766           add.l      A0, 0xFFFF9766
00002E50  3039 FFFF 7B3C           move.w     D0, [0xFFFF7B3C]
00002E56  48C0                     ext.l      D0
00002E58  E588                     lsl        D0, 2
00002E5A  4AB0 0800                tst.l      [A0 + D0]
00002E5E  6700 0082                beq        +0x84 /* 00002EE2 */
00002E62  3D7C 0017 FFF8           move.w     [A6 - 0x8], 0x17
00002E68  3D7C 001E FFFC           move.w     [A6 - 0x4], 0x1E
00002E6E  7C00                     moveq.l    D6, 0x00
00002E70  7E00                     moveq.l    D7, 0x00
00002E72  6068                     bra        +0x6A /* 00002EDC */
label00002E74:
00002E74  7A00                     moveq.l    D5, 0x00
00002E76  7800                     moveq.l    D4, 0x00
00002E78  604E                     bra        +0x50 /* 00002EC8 */
label00002E7A:
00002E7A  4227                     clr.b      -[A7]
00002E7C  303C 03C2                move.w     D0, 0x3C2
00002E80  C1F9 FFFF 9228           muls.w     D0, [0xFFFF9228]
00002E86  2040                     movea.l    A0, D0
00002E88  D1FC FFFF 9766           add.l      A0, 0xFFFF9766
00002E8E  3039 FFFF 7B3C           move.w     D0, [0xFFFF7B3C]
00002E94  48C0                     ext.l      D0
00002E96  E588                     lsl        D0, 2
00002E98  2F30 0800                move.l     -[A7], [A0 + D0]
00002E9C  3006                     move.w     D0, D6
00002E9E  D045                     add.w      D0, D5
00002EA0  3040                     movea.w    A0, D0
00002EA2  2F08                     move.l     -[A7], A0
00002EA4  A85D                     syscall    BitTst
00002EA6  4A1F                     tst.b      [A7]+
00002EA8  671A                     beq        +0x1C /* 00002EC4 */
00002EAA  7017                     moveq.l    D0, 0x17
00002EAC  D044                     add.w      D0, D4
00002EAE  3D40 FFFA                move.w     [A6 - 0x6], D0
00002EB2  3005                     move.w     D0, D5
00002EB4  E748                     lsl        D0.w, 3
00002EB6  0640 001E                addi.w     D0, 0x1E
00002EBA  3D40 FFFE                move.w     [A6 - 0x2], D0
00002EBE  486E FFF8                pea.l      [A6 - 0x8]
00002EC2  A8A2                     syscall    PaintRect
label00002EC4:
00002EC4  5245                     addq.w     D5, 1
00002EC6  5044                     addq.w     D4, 8
label00002EC8:
00002EC8  0C45 0020                cmpi.w     D5, 0x20 /* ' ' */
00002ECC  6DAC                     blt        -0x52 /* 00002E7A */
00002ECE  506E FFF8                addq.w     [A6 - 0x8], 8
00002ED2  506E FFFC                addq.w     [A6 - 0x4], 8
00002ED6  0646 0020                addi.w     D6, 0x20 /* ' ' */
00002EDA  5247                     addq.w     D7, 1
label00002EDC:
00002EDC  0C47 0020                cmpi.w     D7, 0x20 /* ' ' */
00002EE0  6D92                     blt        -0x6C /* 00002E74 */
label00002EE2:
00002EE2  4CDF 10F8                movem.l    D3,D4,D5,D6,D7,A4, [A7]+
00002EE6  4E5E                     unlink     A6
00002EE8  4E75                     rts
fn00002EEA:
00002EEA  4E56 FFF0                link       A6, -0x0010
00002EEE  48E7 0308                movem.l    -[A7], D6,D7,A4
00002EF2  4EBA FB40                jsr        [PC - 0x4C0 /* 00002A34 */]
00002EF6  303C 03C2                move.w     D0, 0x3C2
00002EFA  C1F9 FFFF 9228           muls.w     D0, [0xFFFF9228]
00002F00  2040                     movea.l    A0, D0
00002F02  D1FC FFFF 9766           add.l      A0, 0xFFFF9766
00002F08  3039 FFFF 7B3C           move.w     D0, [0xFFFF7B3C]
00002F0E  48C0                     ext.l      D0
00002F10  E588                     lsl        D0, 2
00002F12  4AB0 0800                tst.l      [A0 + D0]
00002F16  666A                     bne        +0x6C /* 00002F82 */
00002F18  203C 0000 0080           move.l     D0, 0x80
00002F1E  A11E                     syscall    NewPtr, flags=1
00002F20  303C 03C2                move.w     D0, 0x3C2
00002F24  C1F9 FFFF 9228           muls.w     D0, [0xFFFF9228]
00002F2A  2240                     movea.l    A1, D0
00002F2C  D3FC FFFF 9766           add.l      A1, 0xFFFF9766
00002F32  3039 FFFF 7B3C           move.w     D0, [0xFFFF7B3C]
00002F38  48C0                     ext.l      D0
00002F3A  E588                     lsl        D0, 2
00002F3C  2388 0800                move.l     [A1 + D0], A0
00002F40  4A78 0220                tst.w      [0x00000220 /* MemErr */]
00002F44  6706                     beq        +0x8 /* 00002F4C */
00002F46  3F3C 0001                move.w     -[A7], 0x1
00002F4A  A9C8                     syscall    SysBeep
label00002F4C:
00002F4C  7E00                     moveq.l    D7, 0x00
00002F4E  303C 03C2                move.w     D0, 0x3C2
00002F52  C1F9 FFFF 9228           muls.w     D0, [0xFFFF9228]
00002F58  2840                     movea.l    A4, D0
00002F5A  D9FC FFFF 9766           add.l      A4, 0xFFFF9766
00002F60  3039 FFFF 7B3C           move.w     D0, [0xFFFF7B3C]
00002F66  48C0                     ext.l      D0
00002F68  E588                     lsl        D0, 2
00002F6A  D08C                     add.l      D0, A4
00002F6C  2840                     movea.l    A4, D0
00002F6E  6008                     bra        +0xA /* 00002F78 */
label00002F70:
00002F70  2054                     movea.l    A0, [A4]
00002F72  4230 7000                clr.b      [A0 + D7.w]
00002F76  5247                     addq.w     D7, 1
label00002F78:
00002F78  0C47 0080                cmpi.w     D7, 0x80
00002F7C  6DF2                     blt        -0xC /* 00002F70 */
00002F7E  4EBA FB18                jsr        [PC - 0x4E8 /* 00002A98 */]
label00002F82:
00002F82  486E FFFC                pea.l      [A6 - 0x4]
00002F86  A972                     syscall    GetMouse
00002F88  70EA                     moveq.l    D0, 0xFFFFFFEA
00002F8A  D06E FFFE                add.w      D0, [A6 - 0x2]
00002F8E  48C0                     ext.l      D0
00002F90  81FC 0008                divs.w     D0, 0x8
00002F94  3D40 FFFE                move.w     [A6 - 0x2], D0
00002F98  70EA                     moveq.l    D0, 0xFFFFFFEA
00002F9A  D06E FFFC                add.w      D0, [A6 - 0x4]
00002F9E  48C0                     ext.l      D0
00002FA0  81FC 0008                divs.w     D0, 0x8
00002FA4  3D40 FFFC                move.w     [A6 - 0x4], D0
00002FA8  4227                     clr.b      -[A7]
00002FAA  303C 03C2                move.w     D0, 0x3C2
00002FAE  C1F9 FFFF 9228           muls.w     D0, [0xFFFF9228]
00002FB4  2040                     movea.l    A0, D0
00002FB6  D1FC FFFF 9766           add.l      A0, 0xFFFF9766
00002FBC  3039 FFFF 7B3C           move.w     D0, [0xFFFF7B3C]
00002FC2  48C0                     ext.l      D0
00002FC4  E588                     lsl        D0, 2
00002FC6  2F30 0800                move.l     -[A7], [A0 + D0]
00002FCA  302E FFFC                move.w     D0, [A6 - 0x4]
00002FCE  EB48                     lsl        D0.w, 5
00002FD0  306E FFFE                movea.w    A0, [A6 - 0x2]
00002FD4  4870 0000                pea.l      [A0 + D0.w]
00002FD8  A85D                     syscall    BitTst
00002FDA  7C00                     moveq.l    D6, 0x00
00002FDC  1C1F                     move.b     D6, [A7]+
00002FDE  6000 011A                bra        +0x11C /* 000030FA */
label00002FE2:
00002FE2  4A6E FFFC                tst.w      [A6 - 0x4]
00002FE6  6D00 00C0                blt        +0xC2 /* 000030A8 */
00002FEA  0C6E 001F FFFC           cmpi.w     [A6 - 0x4], 0x1F
00002FF0  6E00 00B6                bgt        +0xB8 /* 000030A8 */
00002FF4  4A6E FFFE                tst.w      [A6 - 0x2]
00002FF8  6D00 00AE                blt        +0xB0 /* 000030A8 */
00002FFC  0C6E 001F FFFE           cmpi.w     [A6 - 0x2], 0x1F
00003002  6E00 00A4                bgt        +0xA6 /* 000030A8 */
00003006  302E FFFC                move.w     D0, [A6 - 0x4]
0000300A  E748                     lsl        D0.w, 3
0000300C  0640 0017                addi.w     D0, 0x17
00003010  3D40 FFF0                move.w     [A6 - 0x10], D0
00003014  7007                     moveq.l    D0, 0x07
00003016  D06E FFF0                add.w      D0, [A6 - 0x10]
0000301A  3D40 FFF4                move.w     [A6 - 0xC], D0
0000301E  302E FFFE                move.w     D0, [A6 - 0x2]
00003022  E748                     lsl        D0.w, 3
00003024  0640 0017                addi.w     D0, 0x17
00003028  3D40 FFF2                move.w     [A6 - 0xE], D0
0000302C  7007                     moveq.l    D0, 0x07
0000302E  D06E FFF2                add.w      D0, [A6 - 0xE]
00003032  3D40 FFF6                move.w     [A6 - 0xA], D0
00003036  4A46                     tst.w      D6
00003038  6738                     beq        +0x3A /* 00003072 */
0000303A  486E FFF0                pea.l      [A6 - 0x10]
0000303E  A8A3                     syscall    EraseRect
00003040  303C 03C2                move.w     D0, 0x3C2
00003044  C1F9 FFFF 9228           muls.w     D0, [0xFFFF9228]
0000304A  2040                     movea.l    A0, D0
0000304C  D1FC FFFF 9766           add.l      A0, 0xFFFF9766
00003052  3039 FFFF 7B3C           move.w     D0, [0xFFFF7B3C]
00003058  48C0                     ext.l      D0
0000305A  E588                     lsl        D0, 2
0000305C  2F30 0800                move.l     -[A7], [A0 + D0]
00003060  302E FFFC                move.w     D0, [A6 - 0x4]
00003064  EB48                     lsl        D0.w, 5
00003066  306E FFFE                movea.w    A0, [A6 - 0x2]
0000306A  4870 0000                pea.l      [A0 + D0.w]
0000306E  A85F                     syscall    BitClr
00003070  6036                     bra        +0x38 /* 000030A8 */
label00003072:
00003072  486E FFF0                pea.l      [A6 - 0x10]
00003076  A8A2                     syscall    PaintRect
00003078  303C 03C2                move.w     D0, 0x3C2
0000307C  C1F9 FFFF 9228           muls.w     D0, [0xFFFF9228]
00003082  2040                     movea.l    A0, D0
00003084  D1FC FFFF 9766           add.l      A0, 0xFFFF9766
0000308A  3039 FFFF 7B3C           move.w     D0, [0xFFFF7B3C]
00003090  48C0                     ext.l      D0
00003092  E588                     lsl        D0, 2
00003094  2F30 0800                move.l     -[A7], [A0 + D0]
00003098  302E FFFC                move.w     D0, [A6 - 0x4]
0000309C  EB48                     lsl        D0.w, 5
0000309E  306E FFFE                movea.w    A0, [A6 - 0x2]
000030A2  4870 0000                pea.l      [A0 + D0.w]
000030A6  A85E                     syscall    BitSet
label000030A8:
000030A8  486E FFF8                pea.l      [A6 - 0x8]
000030AC  A972                     syscall    GetMouse
000030AE  4227                     clr.b      -[A7]
000030B0  A974                     syscall    Button
000030B2  4A1F                     tst.b      [A7]+
000030B4  6724                     beq        +0x26 /* 000030DA */
000030B6  70EA                     moveq.l    D0, 0xFFFFFFEA
000030B8  D06E FFFA                add.w      D0, [A6 - 0x6]
000030BC  48C0                     ext.l      D0
000030BE  81FC 0008                divs.w     D0, 0x8
000030C2  B06E FFFE                cmp.w      D0, [A6 - 0x2]
000030C6  6612                     bne        +0x14 /* 000030DA */
000030C8  70EA                     moveq.l    D0, 0xFFFFFFEA
000030CA  D06E FFF8                add.w      D0, [A6 - 0x8]
000030CE  48C0                     ext.l      D0
000030D0  81FC 0008                divs.w     D0, 0x8
000030D4  B06E FFFC                cmp.w      D0, [A6 - 0x4]
000030D8  67CE                     beq        -0x30 /* 000030A8 */
label000030DA:
000030DA  70EA                     moveq.l    D0, 0xFFFFFFEA
000030DC  D06E FFFA                add.w      D0, [A6 - 0x6]
000030E0  48C0                     ext.l      D0
000030E2  81FC 0008                divs.w     D0, 0x8
000030E6  3D40 FFFE                move.w     [A6 - 0x2], D0
000030EA  70EA                     moveq.l    D0, 0xFFFFFFEA
000030EC  D06E FFF8                add.w      D0, [A6 - 0x8]
000030F0  48C0                     ext.l      D0
000030F2  81FC 0008                divs.w     D0, 0x8
000030F6  3D40 FFFC                move.w     [A6 - 0x4], D0
label000030FA:
000030FA  4227                     clr.b      -[A7]
000030FC  A974                     syscall    Button
000030FE  4A1F                     tst.b      [A7]+
00003100  6600 FEE0                bne        -0x11E /* 00002FE2 */
00003104  4A46                     tst.w      D6
00003106  6756                     beq        +0x58 /* 0000315E */
00003108  4878 0199                push.l     0x199
0000310C  A862                     syscall    ForeColor
0000310E  2F3C 0002 0002           move.l     -[A7], 0x20002
00003114  A89B                     syscall    PenSize
00003116  3F3C 0009                move.w     -[A7], 0x9 /* '\t' */
0000311A  A89C                     syscall    PenMode
0000311C  2F3C FFFF FAB4           move.l     -[A7], 0xFFFFFAB4
00003122  A89D                     syscall    PenPat
00003124  3D7C 0046 FFF0           move.w     [A6 - 0x10], 0x46 /* 'F' */
0000312A  3D7C 00E7 FFF4           move.w     [A6 - 0xC], 0xE7
00003130  3D7C 0046 FFF2           move.w     [A6 - 0xE], 0x46 /* 'F' */
00003136  3D7C 00E7 FFF6           move.w     [A6 - 0xA], 0xE7
0000313C  486E FFF0                pea.l      [A6 - 0x10]
00003140  A8B7                     syscall    FrameOval
00003142  2F3C FFFF FABC           move.l     -[A7], 0xFFFFFABC
00003148  A89D                     syscall    PenPat
0000314A  3F3C 0008                move.w     -[A7], 0x8
0000314E  A89C                     syscall    PenMode
00003150  2F3C 0001 0001           move.l     -[A7], 0x10001
00003156  A89B                     syscall    PenSize
00003158  4878 0021                push.l     0x21 /* '!' */
0000315C  A862                     syscall    ForeColor
label0000315E:
0000315E  7C00                     moveq.l    D6, 0x00
00003160  7E00                     moveq.l    D7, 0x00
00003162  6028                     bra        +0x2A /* 0000318C */
label00003164:
00003164  303C 03C2                move.w     D0, 0x3C2
00003168  C1F9 FFFF 9228           muls.w     D0, [0xFFFF9228]
0000316E  2040                     movea.l    A0, D0
00003170  D1FC FFFF 9766           add.l      A0, 0xFFFF9766
00003176  3039 FFFF 7B3C           move.w     D0, [0xFFFF7B3C]
0000317C  48C0                     ext.l      D0
0000317E  E588                     lsl        D0, 2
00003180  3247                     movea.w    A1, D7
00003182  D3F0 0800                add.l      A1, [A0 + D0]
00003186  1C11                     move.b     D6, [A1]
00003188  4886                     ext.w      D6
0000318A  5247                     addq.w     D7, 1
label0000318C:
0000318C  0C47 0080                cmpi.w     D7, 0x80
00003190  6C04                     bge        +0x6 /* 00003196 */
00003192  4A46                     tst.w      D6
00003194  67CE                     beq        -0x30 /* 00003164 */
label00003196:
00003196  4A46                     tst.w      D6
00003198  6670                     bne        +0x72 /* 0000320A */
0000319A  303C 03C2                move.w     D0, 0x3C2
0000319E  C1F9 FFFF 9228           muls.w     D0, [0xFFFF9228]
000031A4  2040                     movea.l    A0, D0
000031A6  D1FC FFFF 9766           add.l      A0, 0xFFFF9766
000031AC  3039 FFFF 7B3C           move.w     D0, [0xFFFF7B3C]
000031B2  48C0                     ext.l      D0
000031B4  E588                     lsl        D0, 2
000031B6  2070 0800                movea.l    A0, [A0 + D0]
000031BA  A01F                     syscall    DisposPtr/DisposePtr
000031BC  4A78 0220                tst.w      [0x00000220 /* MemErr */]
000031C0  6706                     beq        +0x8 /* 000031C8 */
000031C2  3F3C 0001                move.w     -[A7], 0x1
000031C6  A9C8                     syscall    SysBeep
label000031C8:
000031C8  303C 03C2                move.w     D0, 0x3C2
000031CC  C1F9 FFFF 9228           muls.w     D0, [0xFFFF9228]
000031D2  2040                     movea.l    A0, D0
000031D4  D1FC FFFF 9766           add.l      A0, 0xFFFF9766
000031DA  3039 FFFF 7B3C           move.w     D0, [0xFFFF7B3C]
000031E0  48C0                     ext.l      D0
000031E2  E588                     lsl        D0, 2
000031E4  42B0 0800                clr.l      [A0 + D0]
000031E8  4EBA F8FA                jsr        [PC - 0x706 /* 00002AE4 */]
000031EC  4EBA F8D0                jsr        [PC - 0x730 /* 00002ABE */]
000031F0  4A79 FFFF 7B40           tst.w      [0xFFFF7B40]
000031F6  6700 00AE                beq        +0xB0 /* 000032A6 */
000031FA  2F39 FFFF 7D42           move.l     -[A7], [0xFFFF7D42]
00003200  3F3C 0001                move.w     -[A7], 0x1
00003204  A93A                     syscall    DisableItem
00003206  6000 009E                bra        +0xA0 /* 000032A6 */
label0000320A:
0000320A  4A79 FFFF 7B3C           tst.w      [0xFFFF7B3C]
00003210  6600 0094                bne        +0x96 /* 000032A6 */
00003214  3D7C 00FE FFF0           move.w     [A6 - 0x10], 0xFE
0000321A  3D7C 011E FFF4           move.w     [A6 - 0xC], 0x11E
00003220  3D7C 0131 FFF2           move.w     [A6 - 0xE], 0x131
00003226  3D7C 0151 FFF6           move.w     [A6 - 0xA], 0x151
0000322C  486E FFF0                pea.l      [A6 - 0x10]
00003230  A8A3                     syscall    EraseRect
00003232  303C 03C2                move.w     D0, 0x3C2
00003236  C1F9 FFFF 9228           muls.w     D0, [0xFFFF9228]
0000323C  2040                     movea.l    A0, D0
0000323E  D1FC FFFF 9766           add.l      A0, 0xFFFF9766
00003244  4A90                     tst.l      [A0]
00003246  6730                     beq        +0x32 /* 00003278 */
00003248  303C 03C2                move.w     D0, 0x3C2
0000324C  C1F9 FFFF 9228           muls.w     D0, [0xFFFF9228]
00003252  2040                     movea.l    A0, D0
00003254  D1FC FFFF 9790           add.l      A0, 0xFFFF9790
0000325A  3F10                     move.w     -[A7], [A0]
0000325C  42A7                     clr.l      -[A7]
0000325E  2F3C 005A 0000           move.l     -[A7], 0x5A0000 /* 'Z\0\0' */
00003264  2F3C 0141 010E           move.l     -[A7], 0x141010E
0000326A  3F3C FFFE                move.w     -[A7], 0xFFFE
0000326E  4EAD 0252                jsr        [A5 + 0x252 /* export_70, CODE:2 @ 0000506A */]
00003272  4FEF 0010                lea.l      A7, [A7 + 0x10]
00003276  602E                     bra        +0x30 /* 000032A6 */
label00003278:
00003278  303C 03C2                move.w     D0, 0x3C2
0000327C  C1F9 FFFF 9228           muls.w     D0, [0xFFFF9228]
00003282  2040                     movea.l    A0, D0
00003284  D1FC FFFF 9790           add.l      A0, 0xFFFF9790
0000328A  3F10                     move.w     -[A7], [A0]
0000328C  42A7                     clr.l      -[A7]
0000328E  2F3C 005A 0000           move.l     -[A7], 0x5A0000 /* 'Z\0\0' */
00003294  2F3C 0141 010E           move.l     -[A7], 0x141010E
0000329A  3F3C FFFF                move.w     -[A7], 0xFFFF
0000329E  4EAD 0252                jsr        [A5 + 0x252 /* export_70, CODE:2 @ 0000506A */]
000032A2  4FEF 0010                lea.l      A7, [A7 + 0x10]
label000032A6:
000032A6  33FC 0001 FFFF 9238      move.w     [0xFFFF9238], 0x1
000032AE  4CDF 10C0                movem.l    D6,D7,A4, [A7]+
000032B2  4E5E                     unlink     A6
000032B4  4E75                     rts
fn000032B6:
000032B6  4E56 FF7C                link       A6, -0x0084
000032BA  48E7 1F38                movem.l    -[A7], D3,D4,D5,D6,D7,A2,A3,A4
000032BE  4EBA F774                jsr        [PC - 0x88C /* 00002A34 */]
000032C2  303C 03C2                move.w     D0, 0x3C2
000032C6  C1F9 FFFF 9228           muls.w     D0, [0xFFFF9228]
000032CC  2040                     movea.l    A0, D0
000032CE  D1FC FFFF 9766           add.l      A0, 0xFFFF9766
000032D4  3039 FFFF 7B3C           move.w     D0, [0xFFFF7B3C]
000032DA  48C0                     ext.l      D0
000032DC  E588                     lsl        D0, 2
000032DE  2870 0800                movea.l    A4, [A0 + D0]
000032E2  264C                     movea.l    A3, A4
000032E4  244C                     movea.l    A2, A4
000032E6  4EBA F7FC                jsr        [PC - 0x804 /* 00002AE4 */]
000032EA  33FC 0001 FFFF 9238      move.w     [0xFFFF9238], 0x1
000032F2  302E 0008                move.w     D0, [A6 + 0x8]
000032F6  0C40 0006                cmpi.w     D0, 0x6
000032FA  6200 01EE                bhi        +0x1F0 /* 000034EA */
000032FE  43FA 01F2                lea.l      A1, [PC + 0x1F2 /* 000034F2, value 0xFE18FE5E */]
00003302  D040                     add.w      D0, D0
00003304  D2F1 0000                add.w      A1, [A1 + D0.w]
00003308  4ED1                     jmp        [A1]
0000330A  7C01                     moveq.l    D6, 0x01
0000330C  7A04                     moveq.l    D5, 0x04
0000330E  6026                     bra        +0x28 /* 00003336 */
label00003310:
00003310  7800                     moveq.l    D4, 0x00
00003312  3606                     move.w     D3, D6
00003314  E54B                     lsl        D3.w, 2
00003316  5943                     subq.w     D3, 4
00003318  3E05                     move.w     D7, D5
0000331A  6010                     bra        +0x12 /* 0000332C */
label0000331C:
0000331C  3007                     move.w     D0, D7
0000331E  D044                     add.w      D0, D4
00003320  3203                     move.w     D1, D3
00003322  D244                     add.w      D1, D4
00003324  17B3 0000 1000           move.b     [A3 + D1.w], [A3 + D0.w]
0000332A  5244                     addq.w     D4, 1
label0000332C:
0000332C  0C44 0004                cmpi.w     D4, 0x4
00003330  6DEA                     blt        -0x14 /* 0000331C */
00003332  5246                     addq.w     D6, 1
00003334  5845                     addq.w     D5, 4
label00003336:
00003336  0C46 0020                cmpi.w     D6, 0x20 /* ' ' */
0000333A  6DD4                     blt        -0x2A /* 00003310 */
0000333C  7800                     moveq.l    D4, 0x00
0000333E  6006                     bra        +0x8 /* 00003346 */
label00003340:
00003340  4233 407C                clr.b      [A3 + D4.w + 0x7C]
00003344  5244                     addq.w     D4, 1
label00003346:
00003346  0C44 0004                cmpi.w     D4, 0x4
0000334A  6DF4                     blt        -0xA /* 00003340 */
0000334C  6000 019C                bra        +0x19E /* 000034EA */
00003350  7C1F                     moveq.l    D6, 0x1F
00003352  7A7C                     moveq.l    D5, 0x7C
00003354  6022                     bra        +0x24 /* 00003378 */
label00003356:
00003356  7800                     moveq.l    D4, 0x00
00003358  6014                     bra        +0x16 /* 0000336E */
label0000335A:
0000335A  3006                     move.w     D0, D6
0000335C  E548                     lsl        D0.w, 2
0000335E  5940                     subq.w     D0, 4
00003360  D044                     add.w      D0, D4
00003362  3205                     move.w     D1, D5
00003364  D244                     add.w      D1, D4
00003366  17B3 0000 1000           move.b     [A3 + D1.w], [A3 + D0.w]
0000336C  5244                     addq.w     D4, 1
label0000336E:
0000336E  0C44 0004                cmpi.w     D4, 0x4
00003372  6DE6                     blt        -0x18 /* 0000335A */
00003374  5346                     subq.w     D6, 1
00003376  5945                     subq.w     D5, 4
label00003378:
00003378  4A46                     tst.w      D6
0000337A  6EDA                     bgt        -0x24 /* 00003356 */
0000337C  7800                     moveq.l    D4, 0x00
0000337E  6006                     bra        +0x8 /* 00003386 */
label00003380:
00003380  4233 4000                clr.b      [A3 + D4.w]
00003384  5244                     addq.w     D4, 1
label00003386:
00003386  0C44 0004                cmpi.w     D4, 0x4
0000338A  6DF4                     blt        -0xA /* 00003380 */
0000338C  6000 015C                bra        +0x15E /* 000034EA */
00003390  7C00                     moveq.l    D6, 0x00
00003392  99CC                     sub.l      A4, A4
00003394  6014                     bra        +0x16 /* 000033AA */
label00003396:
00003396  264C                     movea.l    A3, A4
00003398  D7CA                     add.l      A3, A2
0000339A  42A7                     clr.l      -[A7]
0000339C  2F13                     move.l     -[A7], [A3]
0000339E  3F3C 0001                move.w     -[A7], 0x1
000033A2  A85C                     syscall    BitShift
000033A4  269F                     move.l     [A3], [A7]+
000033A6  5246                     addq.w     D6, 1
000033A8  588C                     addq.l     A4, 4
label000033AA:
000033AA  0C46 0020                cmpi.w     D6, 0x20 /* ' ' */
000033AE  6DE6                     blt        -0x18 /* 00003396 */
000033B0  6000 0138                bra        +0x13A /* 000034EA */
000033B4  7C00                     moveq.l    D6, 0x00
000033B6  99CC                     sub.l      A4, A4
000033B8  6014                     bra        +0x16 /* 000033CE */
label000033BA:
000033BA  264C                     movea.l    A3, A4
000033BC  D7CA                     add.l      A3, A2
000033BE  42A7                     clr.l      -[A7]
000033C0  2F13                     move.l     -[A7], [A3]
000033C2  3F3C FFFF                move.w     -[A7], 0xFFFF
000033C6  A85C                     syscall    BitShift
000033C8  269F                     move.l     [A3], [A7]+
000033CA  5246                     addq.w     D6, 1
000033CC  588C                     addq.l     A4, 4
label000033CE:
000033CE  0C46 0020                cmpi.w     D6, 0x20 /* ' ' */
000033D2  6DE6                     blt        -0x18 /* 000033BA */
000033D4  6000 0114                bra        +0x116 /* 000034EA */
000033D8  284B                     movea.l    A4, A3
000033DA  47EE FF80                lea.l      A3, [A6 - 0x80]
000033DE  7C00                     moveq.l    D6, 0x00
000033E0  7A00                     moveq.l    D5, 0x00
000033E2  6048                     bra        +0x4A /* 0000342C */
label000033E4:
000033E4  7800                     moveq.l    D4, 0x00
000033E6  3605                     move.w     D3, D5
000033E8  6036                     bra        +0x38 /* 00003420 */
label000033EA:
000033EA  4227                     clr.b      -[A7]
000033EC  2F0C                     move.l     -[A7], A4
000033EE  3003                     move.w     D0, D3
000033F0  D044                     add.w      D0, D4
000033F2  3040                     movea.w    A0, D0
000033F4  2F08                     move.l     -[A7], A0
000033F6  A85D                     syscall    BitTst
000033F8  4A1F                     tst.b      [A7]+
000033FA  6712                     beq        +0x14 /* 0000340E */
000033FC  2F0B                     move.l     -[A7], A3
000033FE  701F                     moveq.l    D0, 0x1F
00003400  9044                     sub.w      D0, D4
00003402  EB48                     lsl        D0.w, 5
00003404  D046                     add.w      D0, D6
00003406  3040                     movea.w    A0, D0
00003408  2F08                     move.l     -[A7], A0
0000340A  A85E                     syscall    BitSet
0000340C  6010                     bra        +0x12 /* 0000341E */
label0000340E:
0000340E  2F0B                     move.l     -[A7], A3
00003410  701F                     moveq.l    D0, 0x1F
00003412  9044                     sub.w      D0, D4
00003414  EB48                     lsl        D0.w, 5
00003416  D046                     add.w      D0, D6
00003418  3040                     movea.w    A0, D0
0000341A  2F08                     move.l     -[A7], A0
0000341C  A85F                     syscall    BitClr
label0000341E:
0000341E  5244                     addq.w     D4, 1
label00003420:
00003420  0C44 0020                cmpi.w     D4, 0x20 /* ' ' */
00003424  6DC4                     blt        -0x3A /* 000033EA */
00003426  5246                     addq.w     D6, 1
00003428  0645 0020                addi.w     D5, 0x20 /* ' ' */
label0000342C:
0000342C  0C46 0020                cmpi.w     D6, 0x20 /* ' ' */
00003430  6DB2                     blt        -0x4C /* 000033E4 */
00003432  7C00                     moveq.l    D6, 0x00
00003434  49EE FF80                lea.l      A4, [A6 - 0x80]
00003438  97CB                     sub.l      A3, A3
0000343A  600C                     bra        +0xE /* 00003448 */
label0000343C:
0000343C  204A                     movea.l    A0, A2
0000343E  D1CB                     add.l      A0, A3
00003440  2094                     move.l     [A0], [A4]
00003442  5246                     addq.w     D6, 1
00003444  588C                     addq.l     A4, 4
00003446  588B                     addq.l     A3, 4
label00003448:
00003448  0C46 0020                cmpi.w     D6, 0x20 /* ' ' */
0000344C  6DEE                     blt        -0x10 /* 0000343C */
0000344E  6000 009A                bra        +0x9C /* 000034EA */
00003452  7C00                     moveq.l    D6, 0x00
00003454  7A00                     moveq.l    D5, 0x00
00003456  605E                     bra        +0x60 /* 000034B6 */
label00003458:
00003458  7800                     moveq.l    D4, 0x00
0000345A  3445                     movea.w    A2, D5
0000345C  D5CB                     add.l      A2, A3
0000345E  604C                     bra        +0x4E /* 000034AC */
label00003460:
00003460  284A                     movea.l    A4, A2
00003462  4227                     clr.b      -[A7]
00003464  2F0C                     move.l     -[A7], A4
00003466  3044                     movea.w    A0, D4
00003468  2F08                     move.l     -[A7], A0
0000346A  A85D                     syscall    BitTst
0000346C  7600                     moveq.l    D3, 0x00
0000346E  161F                     move.b     D3, [A7]+
00003470  7E1F                     moveq.l    D7, 0x1F
00003472  9E44                     sub.w      D7, D4
00003474  4227                     clr.b      -[A7]
00003476  2F0C                     move.l     -[A7], A4
00003478  3047                     movea.w    A0, D7
0000347A  2F08                     move.l     -[A7], A0
0000347C  A85D                     syscall    BitTst
0000347E  4A1F                     tst.b      [A7]+
00003480  670A                     beq        +0xC /* 0000348C */
00003482  2F0C                     move.l     -[A7], A4
00003484  3044                     movea.w    A0, D4
00003486  2F08                     move.l     -[A7], A0
00003488  A85E                     syscall    BitSet
0000348A  6008                     bra        +0xA /* 00003494 */
label0000348C:
0000348C  2F0C                     move.l     -[A7], A4
0000348E  3044                     movea.w    A0, D4
00003490  2F08                     move.l     -[A7], A0
00003492  A85F                     syscall    BitClr
label00003494:
00003494  4A43                     tst.w      D3
00003496  670A                     beq        +0xC /* 000034A2 */
00003498  2F0C                     move.l     -[A7], A4
0000349A  3047                     movea.w    A0, D7
0000349C  2F08                     move.l     -[A7], A0
0000349E  A85E                     syscall    BitSet
000034A0  6008                     bra        +0xA /* 000034AA */
label000034A2:
000034A2  2F0C                     move.l     -[A7], A4
000034A4  3047                     movea.w    A0, D7
000034A6  2F08                     move.l     -[A7], A0
000034A8  A85F                     syscall    BitClr
label000034AA:
000034AA  5244                     addq.w     D4, 1
label000034AC:
000034AC  0C44 0010                cmpi.w     D4, 0x10
000034B0  6DAE                     blt        -0x50 /* 00003460 */
000034B2  5246                     addq.w     D6, 1
000034B4  5845                     addq.w     D5, 4
label000034B6:
000034B6  0C46 0020                cmpi.w     D6, 0x20 /* ' ' */
000034BA  6D9C                     blt        -0x62 /* 00003458 */
000034BC  602C                     bra        +0x2E /* 000034EA */
000034BE  7C00                     moveq.l    D6, 0x00
000034C0  99CC                     sub.l      A4, A4
000034C2  6020                     bra        +0x22 /* 000034E4 */
label000034C4:
000034C4  264C                     movea.l    A3, A4
000034C6  D7CA                     add.l      A3, A2
000034C8  2A13                     move.l     D5, [A3]
000034CA  701F                     moveq.l    D0, 0x1F
000034CC  9046                     sub.w      D0, D6
000034CE  48C0                     ext.l      D0
000034D0  E588                     lsl        D0, 2
000034D2  D08A                     add.l      D0, A2
000034D4  2D40 FF7C                move.l     [A6 - 0x84], D0
000034D8  2040                     movea.l    A0, D0
000034DA  2690                     move.l     [A3], [A0]
000034DC  2040                     movea.l    A0, D0
000034DE  2085                     move.l     [A0], D5
000034E0  5246                     addq.w     D6, 1
000034E2  588C                     addq.l     A4, 4
label000034E4:
000034E4  0C46 0010                cmpi.w     D6, 0x10
000034E8  6DDA                     blt        -0x24 /* 000034C4 */
label000034EA:
000034EA  4CDF 1CF8                movem.l    D3,D4,D5,D6,D7,A2,A3,A4, [A7]+
000034EE  4E5E                     unlink     A6
000034F0  4E75                     rts
000034F2  FE18 FE5E                .unknown   0xFE18 0xFE5E (W = 7)
000034F6  FE9E FEC2                .extension 0xE9E <<F/2-3/7>> // unimplemented
000034FA  FEE6 FF60                .extension 0xEE6 <<F/2-3/7>> // unimplemented
000034FE  FFCC                     .invalid   <<F/7/7>>
export_14:
00003500  4E56 FFF8                link       A6, -0x0008
00003504  48E7 0708                movem.l    -[A7], D5,D6,D7,A4
00003508  3E39 FFFF 7B3C           move.w     D7, [0xFFFF7B3C]
0000350E  2F3C FFFF 7D64           move.l     -[A7], 0xFFFF7D64
00003514  A871                     syscall    GlobalToLocal
00003516  0C79 0016 FFFF 7D66      cmpi.w     [0xFFFF7D66], 0x16
0000351E  6F24                     ble        +0x26 /* 00003544 */
00003520  0C79 0118 FFFF 7D66      cmpi.w     [0xFFFF7D66], 0x118
00003528  6C1A                     bge        +0x1C /* 00003544 */
0000352A  0C79 0016 FFFF 7D64      cmpi.w     [0xFFFF7D64], 0x16
00003532  6F10                     ble        +0x12 /* 00003544 */
00003534  0C79 0118 FFFF 7D64      cmpi.w     [0xFFFF7D64], 0x118
0000353C  6C06                     bge        +0x8 /* 00003544 */
0000353E  4EBA F9AA                jsr        [PC - 0x656 /* 00002EEA */]
00003542  604E                     bra        +0x50 /* 00003592 */
label00003544:
00003544  303C 03C2                move.w     D0, 0x3C2
00003548  C1F9 FFFF 9228           muls.w     D0, [0xFFFF9228]
0000354E  2040                     movea.l    A0, D0
00003550  D1FC FFFF 9766           add.l      A0, 0xFFFF9766
00003556  3039 FFFF 7B3C           move.w     D0, [0xFFFF7B3C]
0000355C  48C0                     ext.l      D0
0000355E  E588                     lsl        D0, 2
00003560  4AB0 0800                tst.l      [A0 + D0]
00003564  672C                     beq        +0x2E /* 00003592 */
00003566  7C00                     moveq.l    D6, 0x00
00003568  287C FFFF 7C52           movea.l    A4, 0xFFFF7C52
0000356E  601C                     bra        +0x1E /* 0000358C */
label00003570:
00003570  4227                     clr.b      -[A7]
00003572  2F39 FFFF 7D64           move.l     -[A7], [0xFFFF7D64]
00003578  2F14                     move.l     -[A7], [A4]
0000357A  A8E8                     syscall    PtInRgn
0000357C  4A1F                     tst.b      [A7]+
0000357E  6708                     beq        +0xA /* 00003588 */
00003580  3F06                     move.w     -[A7], D6
00003582  4EBA FD32                jsr        [PC - 0x2CE /* 000032B6 */]
00003586  548F                     addq.l     A7, 2
label00003588:
00003588  5246                     addq.w     D6, 1
0000358A  588C                     addq.l     A4, 4
label0000358C:
0000358C  0C46 0007                cmpi.w     D6, 0x7
00003590  6DDE                     blt        -0x20 /* 00003570 */
label00003592:
00003592  7C00                     moveq.l    D6, 0x00
00003594  7A00                     moveq.l    D5, 0x00
00003596  6052                     bra        +0x54 /* 000035EA */
label00003598:
00003598  7012                     moveq.l    D0, 0x12
0000359A  D045                     add.w      D0, D5
0000359C  B079 FFFF 7D64           cmp.w      D0, [0xFFFF7D64]
000035A2  6C40                     bge        +0x42 /* 000035E4 */
000035A4  7034                     moveq.l    D0, 0x34
000035A6  D045                     add.w      D0, D5
000035A8  B079 FFFF 7D64           cmp.w      D0, [0xFFFF7D64]
000035AE  6F34                     ble        +0x36 /* 000035E4 */
000035B0  0C79 014D FFFF 7D66      cmpi.w     [0xFFFF7D66], 0x14D
000035B8  6F10                     ble        +0x12 /* 000035CA */
000035BA  0C79 016F FFFF 7D66      cmpi.w     [0xFFFF7D66], 0x16F
000035C2  6C06                     bge        +0x8 /* 000035CA */
000035C4  3E06                     move.w     D7, D6
000035C6  DE46                     add.w      D7, D6
000035C8  601A                     bra        +0x1C /* 000035E4 */
label000035CA:
000035CA  0C79 01B1 FFFF 7D66      cmpi.w     [0xFFFF7D66], 0x1B1
000035D2  6F10                     ble        +0x12 /* 000035E4 */
000035D4  0C79 01D3 FFFF 7D66      cmpi.w     [0xFFFF7D66], 0x1D3
000035DC  6C06                     bge        +0x8 /* 000035E4 */
000035DE  3E06                     move.w     D7, D6
000035E0  DE46                     add.w      D7, D6
000035E2  5247                     addq.w     D7, 1
label000035E4:
000035E4  5246                     addq.w     D6, 1
000035E6  0645 002D                addi.w     D5, 0x2D /* '-' */
label000035EA:
000035EA  0C46 0005                cmpi.w     D6, 0x5
000035EE  6DA8                     blt        -0x56 /* 00003598 */
000035F0  BE79 FFFF 7B3C           cmp.w      D7, [0xFFFF7B3C]
000035F6  6700 00F6                beq        +0xF8 /* 000036EE */
000035FA  3039 FFFF 7B3C           move.w     D0, [0xFFFF7B3C]
00003600  48C0                     ext.l      D0
00003602  81FC 0002                divs.w     D0, 0x2
00003606  C1FC 002D                muls.w     D0, 0x2D /* '-' */
0000360A  0640 0012                addi.w     D0, 0x12
0000360E  3D40 FFF8                move.w     [A6 - 0x8], D0
00003612  7022                     moveq.l    D0, 0x22
00003614  D06E FFF8                add.w      D0, [A6 - 0x8]
00003618  3D40 FFFC                move.w     [A6 - 0x4], D0
0000361C  3039 FFFF 7B3C           move.w     D0, [0xFFFF7B3C]
00003622  48C0                     ext.l      D0
00003624  81FC 0002                divs.w     D0, 0x2
00003628  4840                     swap.w     D0
0000362A  C1FC 0064                muls.w     D0, 0x64 /* 'd' */
0000362E  0640 014D                addi.w     D0, 0x14D
00003632  3D40 FFFA                move.w     [A6 - 0x6], D0
00003636  7022                     moveq.l    D0, 0x22
00003638  D06E FFFA                add.w      D0, [A6 - 0x6]
0000363C  3D40 FFFE                move.w     [A6 - 0x2], D0
00003640  486E FFF8                pea.l      [A6 - 0x8]
00003644  A928                     syscall    InvalRect
00003646  33C7 FFFF 7B3C           move.w     [0xFFFF7B3C], D7
0000364C  3039 FFFF 7B3C           move.w     D0, [0xFFFF7B3C]
00003652  48C0                     ext.l      D0
00003654  81FC 0002                divs.w     D0, 0x2
00003658  C1FC 002D                muls.w     D0, 0x2D /* '-' */
0000365C  0640 0012                addi.w     D0, 0x12
00003660  3D40 FFF8                move.w     [A6 - 0x8], D0
00003664  7022                     moveq.l    D0, 0x22
00003666  D06E FFF8                add.w      D0, [A6 - 0x8]
0000366A  3D40 FFFC                move.w     [A6 - 0x4], D0
0000366E  3039 FFFF 7B3C           move.w     D0, [0xFFFF7B3C]
00003674  48C0                     ext.l      D0
00003676  81FC 0002                divs.w     D0, 0x2
0000367A  4840                     swap.w     D0
0000367C  C1FC 0064                muls.w     D0, 0x64 /* 'd' */
00003680  0640 014D                addi.w     D0, 0x14D
00003684  3D40 FFFA                move.w     [A6 - 0x6], D0
00003688  7022                     moveq.l    D0, 0x22
0000368A  D06E FFFA                add.w      D0, [A6 - 0x6]
0000368E  3D40 FFFE                move.w     [A6 - 0x2], D0
00003692  486E FFF8                pea.l      [A6 - 0x8]
00003696  A928                     syscall    InvalRect
00003698  3D7C 0016 FFFA           move.w     [A6 - 0x6], 0x16
0000369E  3D7C 0118 FFFE           move.w     [A6 - 0x2], 0x118
000036A4  3D7C 0016 FFF8           move.w     [A6 - 0x8], 0x16
000036AA  3D7C 0118 FFFC           move.w     [A6 - 0x4], 0x118
000036B0  486E FFF8                pea.l      [A6 - 0x8]
000036B4  A928                     syscall    InvalRect
000036B6  303C 03C2                move.w     D0, 0x3C2
000036BA  C1F9 FFFF 9228           muls.w     D0, [0xFFFF9228]
000036C0  2040                     movea.l    A0, D0
000036C2  D1FC FFFF 9766           add.l      A0, 0xFFFF9766
000036C8  3039 FFFF 7B3C           move.w     D0, [0xFFFF7B3C]
000036CE  48C0                     ext.l      D0
000036D0  E588                     lsl        D0, 2
000036D2  4AB0 0800                tst.l      [A0 + D0]
000036D6  6706                     beq        +0x8 /* 000036DE */
000036D8  4EBA F3BE                jsr        [PC - 0xC42 /* 00002A98 */]
000036DC  6004                     bra        +0x6 /* 000036E2 */
label000036DE:
000036DE  4EBA F3DE                jsr        [PC - 0xC22 /* 00002ABE */]
label000036E2:
000036E2  2F39 FFFF 7D42           move.l     -[A7], [0xFFFF7D42]
000036E8  3F3C 0001                move.w     -[A7], 0x1
000036EC  A93A                     syscall    DisableItem
label000036EE:
000036EE  4CDF 10E0                movem.l    D5,D6,D7,A4, [A7]+
000036F2  4E5E                     unlink     A6
000036F4  4E75                     rts
fn000036F6:
000036F6  4E56 FFEA                link       A6, -0x0016
000036FA  48E7 0108                movem.l    -[A7], D7,A4
000036FE  2079 FFFF FACC           movea.l    A0, [0xFFFFFACC]
00003704  43EE FFEA                lea.l      A1, [A6 - 0x16]
00003708  5488                     addq.l     A0, 2
0000370A  22D8                     move.l     [A1]+, [A0]+
0000370C  22D8                     move.l     [A1]+, [A0]+
0000370E  22D8                     move.l     [A1]+, [A0]+
00003710  32D8                     move.w     [A1]+, [A0]+
00003712  33FC 0015 FFFF 7C4A      move.w     [0xFFFF7C4A], 0x15
0000371A  33FC 0118 FFFF 7C4E      move.w     [0xFFFF7C4E], 0x118
00003722  33FC 0015 FFFF 7C4C      move.w     [0xFFFF7C4C], 0x15
0000372A  33FC 0118 FFFF 7C50      move.w     [0xFFFF7C50], 0x118
00003732  33FC 0022 FFFF 7C48      move.w     [0xFFFF7C48], 0x22 /* '\"' */
0000373A  203C 0000 2266           move.l     D0, 0x2266 /* '\"f' */
00003740  A11E                     syscall    NewPtr, flags=1
00003742  23C8 FFFF 7C44           move.l     [0xFFFF7C44], A0
00003748  4A78 0220                tst.w      [0x00000220 /* MemErr */]
0000374C  6706                     beq        +0x8 /* 00003754 */
0000374E  3F3C 0001                move.w     -[A7], 0x1
00003752  A9C8                     syscall    SysBeep
label00003754:
00003754  2F3C FFFF 7C44           move.l     -[A7], 0xFFFF7C44
0000375A  A875                     syscall    SetPBits/SetPortBits
0000375C  2F3C FFFF 7C4A           move.l     -[A7], 0xFFFF7C4A
00003762  A8A3                     syscall    EraseRect
00003764  2F3C FFFF FAB4           move.l     -[A7], 0xFFFFFAB4
0000376A  A89D                     syscall    PenPat
0000376C  7E16                     moveq.l    D7, 0x16
0000376E  6022                     bra        +0x24 /* 00003792 */
label00003770:
00003770  3F07                     move.w     -[A7], D7
00003772  3F3C 0016                move.w     -[A7], 0x16
00003776  A893                     syscall    MoveTo
00003778  3F07                     move.w     -[A7], D7
0000377A  3F3C 0116                move.w     -[A7], 0x116
0000377E  A891                     syscall    LineTo
00003780  3F3C 0016                move.w     -[A7], 0x16
00003784  3F07                     move.w     -[A7], D7
00003786  A893                     syscall    MoveTo
00003788  3F3C 0116                move.w     -[A7], 0x116
0000378C  3F07                     move.w     -[A7], D7
0000378E  A891                     syscall    LineTo
00003790  5047                     addq.w     D7, 8
label00003792:
00003792  0C47 0116                cmpi.w     D7, 0x116
00003796  6FD8                     ble        -0x26 /* 00003770 */
00003798  2F3C 0002 0002           move.l     -[A7], 0x20002
0000379E  A89B                     syscall    PenSize
000037A0  3D7C 0046 FFF8           move.w     [A6 - 0x8], 0x46 /* 'F' */
000037A6  3D7C 00E7 FFFC           move.w     [A6 - 0x4], 0xE7
000037AC  3D7C 0046 FFFA           move.w     [A6 - 0x6], 0x46 /* 'F' */
000037B2  3D7C 00E7 FFFE           move.w     [A6 - 0x2], 0xE7
000037B8  486E FFF8                pea.l      [A6 - 0x8]
000037BC  A8B7                     syscall    FrameOval
000037BE  2F3C FFFF FABC           move.l     -[A7], 0xFFFFFABC
000037C4  A89D                     syscall    PenPat
000037C6  3D7C 0015 FFF8           move.w     [A6 - 0x8], 0x15
000037CC  3D7C 0118 FFFC           move.w     [A6 - 0x4], 0x118
000037D2  3D7C 0015 FFFA           move.w     [A6 - 0x6], 0x15
000037D8  3D7C 0118 FFFE           move.w     [A6 - 0x2], 0x118
000037DE  486E FFF8                pea.l      [A6 - 0x8]
000037E2  A8A1                     syscall    FrameRect
000037E4  2F3C 0001 0001           move.l     -[A7], 0x10001
000037EA  A89B                     syscall    PenSize
000037EC  2F3C 0016 0096           move.l     -[A7], 0x160096
000037F2  A893                     syscall    MoveTo
000037F4  2F3C 0116 0096           move.l     -[A7], 0x1160096
000037FA  A891                     syscall    LineTo
000037FC  2F3C 0096 0016           move.l     -[A7], 0x960016
00003802  A893                     syscall    MoveTo
00003804  2F3C 0096 0116           move.l     -[A7], 0x960116
0000380A  A891                     syscall    LineTo
0000380C  486E FFEA                pea.l      [A6 - 0x16]
00003810  A875                     syscall    SetPBits/SetPortBits
00003812  7E00                     moveq.l    D7, 0x00
00003814  287C FFFF 7C52           movea.l    A4, 0xFFFF7C52
0000381A  600A                     bra        +0xC /* 00003826 */
label0000381C:
0000381C  42A7                     clr.l      -[A7]
0000381E  A8D8                     syscall    NewRgn
00003820  289F                     move.l     [A4], [A7]+
00003822  5247                     addq.w     D7, 1
00003824  588C                     addq.l     A4, 4
label00003826:
00003826  0C47 0007                cmpi.w     D7, 0x7
0000382A  6DF0                     blt        -0xE /* 0000381C */
0000382C  A8DA                     syscall    OpenRgn
0000382E  2F3C 0010 008C           move.l     -[A7], 0x10008C
00003834  A893                     syscall    MoveTo
00003836  2F3C 0010 00A0           move.l     -[A7], 0x1000A0
0000383C  A891                     syscall    LineTo
0000383E  2F3C 0012 00A0           move.l     -[A7], 0x1200A0
00003844  A891                     syscall    LineTo
00003846  2F3C 0012 008C           move.l     -[A7], 0x12008C
0000384C  A891                     syscall    LineTo
0000384E  2F3C 0010 008C           move.l     -[A7], 0x10008C
00003854  A891                     syscall    LineTo
00003856  2F3C 000E 008C           move.l     -[A7], 0xE008C
0000385C  A893                     syscall    MoveTo
0000385E  2F3C 000E 00A0           move.l     -[A7], 0xE00A0
00003864  A891                     syscall    LineTo
00003866  2F3C 0004 0096           move.l     -[A7], 0x40096
0000386C  A891                     syscall    LineTo
0000386E  2F3C 000E 008C           move.l     -[A7], 0xE008C
00003874  A891                     syscall    LineTo
00003876  2F39 FFFF 7C52           move.l     -[A7], [0xFFFF7C52]
0000387C  A8DB                     syscall    CloseRgn
0000387E  A8DA                     syscall    OpenRgn
00003880  2F3C 011D 008C           move.l     -[A7], 0x11D008C
00003886  A893                     syscall    MoveTo
00003888  2F3C 011D 00A0           move.l     -[A7], 0x11D00A0
0000388E  A891                     syscall    LineTo
00003890  2F3C 011B 00A0           move.l     -[A7], 0x11B00A0
00003896  A891                     syscall    LineTo
00003898  2F3C 011B 008C           move.l     -[A7], 0x11B008C
0000389E  A891                     syscall    LineTo
000038A0  2F3C 011D 008C           move.l     -[A7], 0x11D008C
000038A6  A891                     syscall    LineTo
000038A8  2F3C 011F 008C           move.l     -[A7], 0x11F008C
000038AE  A893                     syscall    MoveTo
000038B0  2F3C 011F 00A0           move.l     -[A7], 0x11F00A0
000038B6  A891                     syscall    LineTo
000038B8  2F3C 0129 0096           move.l     -[A7], 0x1290096
000038BE  A891                     syscall    LineTo
000038C0  2F3C 011F 008C           move.l     -[A7], 0x11F008C
000038C6  A891                     syscall    LineTo
000038C8  2F39 FFFF 7C56           move.l     -[A7], [0xFFFF7C56]
000038CE  A8DB                     syscall    CloseRgn
000038D0  A8DA                     syscall    OpenRgn
000038D2  2F3C 008C 0010           move.l     -[A7], 0x8C0010
000038D8  A893                     syscall    MoveTo
000038DA  2F3C 00A0 0010           move.l     -[A7], 0xA00010
000038E0  A891                     syscall    LineTo
000038E2  2F3C 00A0 0012           move.l     -[A7], 0xA00012
000038E8  A891                     syscall    LineTo
000038EA  2F3C 008C 0012           move.l     -[A7], 0x8C0012
000038F0  A891                     syscall    LineTo
000038F2  2F3C 008C 0010           move.l     -[A7], 0x8C0010
000038F8  A891                     syscall    LineTo
000038FA  2F3C 008C 000E           move.l     -[A7], 0x8C000E
00003900  A893                     syscall    MoveTo
00003902  2F3C 00A0 000E           move.l     -[A7], 0xA0000E
00003908  A891                     syscall    LineTo
0000390A  2F3C 0096 0004           move.l     -[A7], 0x960004
00003910  A891                     syscall    LineTo
00003912  2F3C 008C 000E           move.l     -[A7], 0x8C000E
00003918  A891                     syscall    LineTo
0000391A  2F39 FFFF 7C5A           move.l     -[A7], [0xFFFF7C5A]
00003920  A8DB                     syscall    CloseRgn
00003922  A8DA                     syscall    OpenRgn
00003924  2F3C 008C 011D           move.l     -[A7], 0x8C011D
0000392A  A893                     syscall    MoveTo
0000392C  2F3C 00A0 011D           move.l     -[A7], 0xA0011D
00003932  A891                     syscall    LineTo
00003934  2F3C 00A0 011B           move.l     -[A7], 0xA0011B
0000393A  A891                     syscall    LineTo
0000393C  2F3C 008C 011B           move.l     -[A7], 0x8C011B
00003942  A891                     syscall    LineTo
00003944  2F3C 008C 011D           move.l     -[A7], 0x8C011D
0000394A  A891                     syscall    LineTo
0000394C  2F3C 008C 011F           move.l     -[A7], 0x8C011F
00003952  A893                     syscall    MoveTo
00003954  2F3C 00A0 011F           move.l     -[A7], 0xA0011F
0000395A  A891                     syscall    LineTo
0000395C  2F3C 0096 0129           move.l     -[A7], 0x960129
00003962  A891                     syscall    LineTo
00003964  2F3C 008C 011F           move.l     -[A7], 0x8C011F
0000396A  A891                     syscall    LineTo
0000396C  2F39 FFFF 7C5E           move.l     -[A7], [0xFFFF7C5E]
00003972  A8DB                     syscall    CloseRgn
00003974  A8DA                     syscall    OpenRgn
00003976  2F3C 0125 0119           move.l     -[A7], 0x1250119
0000397C  A893                     syscall    MoveTo
0000397E  2F3C 0125 0121           move.l     -[A7], 0x1250121
00003984  A891                     syscall    LineTo
00003986  2F3C 0121 0121           move.l     -[A7], 0x1210121
0000398C  A891                     syscall    LineTo
0000398E  2F3C 0121 011D           move.l     -[A7], 0x121011D
00003994  A891                     syscall    LineTo
00003996  2F3C 0119 0123           move.l     -[A7], 0x1190123
0000399C  A891                     syscall    LineTo
0000399E  2F3C 0121 0129           move.l     -[A7], 0x1210129
000039A4  A891                     syscall    LineTo
000039A6  2F3C 0121 0125           move.l     -[A7], 0x1210125
000039AC  A891                     syscall    LineTo
000039AE  2F3C 0129 0125           move.l     -[A7], 0x1290125
000039B4  A891                     syscall    LineTo
000039B6  2F3C 0129 0119           move.l     -[A7], 0x1290119
000039BC  A891                     syscall    LineTo
000039BE  2F3C 0125 0119           move.l     -[A7], 0x1250119
000039C4  A891                     syscall    LineTo
000039C6  2F39 FFFF 7C62           move.l     -[A7], [0xFFFF7C62]
000039CC  A8DB                     syscall    CloseRgn
000039CE  A8DA                     syscall    OpenRgn
000039D0  2F3C 0123 00D8           move.l     -[A7], 0x12300D8
000039D6  A893                     syscall    MoveTo
000039D8  2F3C 011F 00D8           move.l     -[A7], 0x11F00D8
000039DE  A891                     syscall    LineTo
000039E0  2F3C 011F 00E0           move.l     -[A7], 0x11F00E0
000039E6  A891                     syscall    LineTo
000039E8  2F3C 011D 00E0           move.l     -[A7], 0x11D00E0
000039EE  A891                     syscall    LineTo
000039F0  2F3C 0120 00E4           move.l     -[A7], 0x12000E4
000039F6  A891                     syscall    LineTo
000039F8  2F3C 0123 00E0           move.l     -[A7], 0x12300E0
000039FE  A891                     syscall    LineTo
00003A00  2F3C 0121 00E0           move.l     -[A7], 0x12100E0
00003A06  A891                     syscall    LineTo
00003A08  2F3C 0121 00DA           move.l     -[A7], 0x12100DA
00003A0E  A891                     syscall    LineTo
00003A10  2F3C 0123 00DA           move.l     -[A7], 0x12300DA
00003A16  A891                     syscall    LineTo
00003A18  2F3C 0123 00D8           move.l     -[A7], 0x12300D8
00003A1E  A891                     syscall    LineTo
00003A20  2F3C 0123 00DC           move.l     -[A7], 0x12300DC
00003A26  A893                     syscall    MoveTo
00003A28  2F3C 0125 00DC           move.l     -[A7], 0x12500DC
00003A2E  A891                     syscall    LineTo
00003A30  2F3C 0125 00D6           move.l     -[A7], 0x12500D6
00003A36  A891                     syscall    LineTo
00003A38  2F3C 0123 00D6           move.l     -[A7], 0x12300D6
00003A3E  A891                     syscall    LineTo
00003A40  2F3C 0126 00D2           move.l     -[A7], 0x12600D2
00003A46  A891                     syscall    LineTo
00003A48  2F3C 0129 00D6           move.l     -[A7], 0x12900D6
00003A4E  A891                     syscall    LineTo
00003A50  2F3C 0127 00D6           move.l     -[A7], 0x12700D6
00003A56  A891                     syscall    LineTo
00003A58  2F3C 0127 00DE           move.l     -[A7], 0x12700DE
00003A5E  A891                     syscall    LineTo
00003A60  2F3C 0123 00DE           move.l     -[A7], 0x12300DE
00003A66  A891                     syscall    LineTo
00003A68  2F3C 0123 00DC           move.l     -[A7], 0x12300DC
00003A6E  A891                     syscall    LineTo
00003A70  2F39 FFFF 7C66           move.l     -[A7], [0xFFFF7C66]
00003A76  A8DB                     syscall    CloseRgn
00003A78  A8DA                     syscall    OpenRgn
00003A7A  2F3C 00D8 0123           move.l     -[A7], 0xD80123
00003A80  A893                     syscall    MoveTo
00003A82  2F3C 00D8 011F           move.l     -[A7], 0xD8011F
00003A88  A891                     syscall    LineTo
00003A8A  2F3C 00E0 011F           move.l     -[A7], 0xE0011F
00003A90  A891                     syscall    LineTo
00003A92  2F3C 00E0 011D           move.l     -[A7], 0xE0011D
00003A98  A891                     syscall    LineTo
00003A9A  2F3C 00E4 0120           move.l     -[A7], 0xE40120
00003AA0  A891                     syscall    LineTo
00003AA2  2F3C 00E0 0123           move.l     -[A7], 0xE00123
00003AA8  A891                     syscall    LineTo
00003AAA  2F3C 00E0 0121           move.l     -[A7], 0xE00121
00003AB0  A891                     syscall    LineTo
00003AB2  2F3C 00DA 0121           move.l     -[A7], 0xDA0121
00003AB8  A891                     syscall    LineTo
00003ABA  2F3C 00DA 0123           move.l     -[A7], 0xDA0123
00003AC0  A891                     syscall    LineTo
00003AC2  2F3C 00D8 0123           move.l     -[A7], 0xD80123
00003AC8  A891                     syscall    LineTo
00003ACA  2F3C 00DC 0123           move.l     -[A7], 0xDC0123
00003AD0  A893                     syscall    MoveTo
00003AD2  2F3C 00DC 0125           move.l     -[A7], 0xDC0125
00003AD8  A891                     syscall    LineTo
00003ADA  2F3C 00D6 0125           move.l     -[A7], 0xD60125
00003AE0  A891                     syscall    LineTo
00003AE2  2F3C 00D6 0123           move.l     -[A7], 0xD60123
00003AE8  A891                     syscall    LineTo
00003AEA  2F3C 00D2 0126           move.l     -[A7], 0xD20126
00003AF0  A891                     syscall    LineTo
00003AF2  2F3C 00D6 0129           move.l     -[A7], 0xD60129
00003AF8  A891                     syscall    LineTo
00003AFA  2F3C 00D6 0127           move.l     -[A7], 0xD60127
00003B00  A891                     syscall    LineTo
00003B02  2F3C 00DE 0127           move.l     -[A7], 0xDE0127
00003B08  A891                     syscall    LineTo
00003B0A  2F3C 00DE 0123           move.l     -[A7], 0xDE0123
00003B10  A891                     syscall    LineTo
00003B12  2F3C 00DC 0123           move.l     -[A7], 0xDC0123
00003B18  A891                     syscall    LineTo
00003B1A  2F39 FFFF 7C6A           move.l     -[A7], [0xFFFF7C6A]
00003B20  A8DB                     syscall    CloseRgn
00003B22  4CDF 1080                movem.l    D7,A4, [A7]+
00003B26  4E5E                     unlink     A6
00003B28  4E75                     rts
fn00003B2A:
00003B2A  33FC 0001 FFFF 9222      move.w     [0xFFFF9222], 0x1
00003B32  2079 FFFF 7D56           movea.l    A0, [0xFFFF7D56]
00003B38  4868 0010                pea.l      [A0 + 0x10]
00003B3C  A928                     syscall    InvalRect
00003B3E  4279 FFFF 7B3C           clr.w      [0xFFFF7B3C]
00003B44  33FC 005A FFFF 7B42      move.w     [0xFFFF7B42], 0x5A /* 'Z' */
00003B4C  303C 03C2                move.w     D0, 0x3C2
00003B50  C1F9 FFFF 9228           muls.w     D0, [0xFFFF9228]
00003B56  2040                     movea.l    A0, D0
00003B58  D1FC FFFF 9766           add.l      A0, 0xFFFF9766
00003B5E  3039 FFFF 7B3C           move.w     D0, [0xFFFF7B3C]
00003B64  48C0                     ext.l      D0
00003B66  E588                     lsl        D0, 2
00003B68  4AB0 0800                tst.l      [A0 + D0]
00003B6C  6706                     beq        +0x8 /* 00003B74 */
00003B6E  4EBA EF28                jsr        [PC - 0x10D8 /* 00002A98 */]
00003B72  6004                     bra        +0x6 /* 00003B78 */
label00003B74:
00003B74  4EBA EF48                jsr        [PC - 0x10B8 /* 00002ABE */]
label00003B78:
00003B78  4EBA FB7C                jsr        [PC - 0x484 /* 000036F6 */]
00003B7C  2F39 FFFF 7D42           move.l     -[A7], [0xFFFF7D42]
00003B82  3F3C 0001                move.w     -[A7], 0x1
00003B86  A93A                     syscall    DisableItem
00003B88  4279 FFFF 9238           clr.w      [0xFFFF9238]
00003B8E  4E75                     rts
fn00003B90:
00003B90  4E56 FFA8                link       A6, -0x0058
00003B94  48E7 1F38                movem.l    -[A7], D3,D4,D5,D6,D7,A2,A3,A4
00003B98  4A79 FFFF 9238           tst.w      [0xFFFF9238]
00003B9E  6700 02A2                beq        +0x2A4 /* 00003E42 */
00003BA2  303C 03C2                move.w     D0, 0x3C2
00003BA6  C1F9 FFFF 9228           muls.w     D0, [0xFFFF9228]
00003BAC  2040                     movea.l    A0, D0
00003BAE  D1FC FFFF 9764           add.l      A0, 0xFFFF9764
00003BB4  3F10                     move.w     -[A7], [A0]
00003BB6  4EAD 0262                jsr        [A5 + 0x262 /* export_72, CODE:2 @ 00005522 */]
00003BBA  41EE FFAA                lea.l      A0, [A6 - 0x56]
00003BBE  20B8 020C                move.l     [A0], [0x0000020C /* Time */]
00003BC2  303C 03C2                move.w     D0, 0x3C2
00003BC6  C1F9 FFFF 9228           muls.w     D0, [0xFFFF9228]
00003BCC  0680 FFFF 955E           addi.l     D0, 0xFFFF955E
00003BD2  2F00                     move.l     -[A7], D0
00003BD4  A9B1                     syscall    CreateResFile
00003BD6  4257                     clr.w      [A7]
00003BD8  303C 03C2                move.w     D0, 0x3C2
00003BDC  C1F9 FFFF 9228           muls.w     D0, [0xFFFF9228]
00003BE2  0680 FFFF 955E           addi.l     D0, 0xFFFF955E
00003BE8  2F00                     move.l     -[A7], D0
00003BEA  A997                     syscall    OpenResFile
00003BEC  3C1F                     move.w     D6, [A7]+
00003BEE  0C46 FFFF                cmpi.w     D6, 0xFFFF
00003BF2  6616                     bne        +0x18 /* 00003C0A */
00003BF4  2F3C FFFF 7CA0           move.l     -[A7], 0xFFFF7CA0
00003BFA  2F3C FFFF 7CA2           move.l     -[A7], 0xFFFF7CA2
00003C00  4EAD 0222                jsr        [A5 + 0x222 /* export_64, CODE:2 @ 00004DCE */]
00003C04  508F                     addq.l     A7, 8
00003C06  6000 0160                bra        +0x162 /* 00003D68 */
label00003C0A:
00003C0A  7A00                     moveq.l    D5, 0x00
00003C0C  99CC                     sub.l      A4, A4
00003C0E  6000 014C                bra        +0x14E /* 00003D5C */
label00003C12:
00003C12  42A7                     clr.l      -[A7]
00003C14  2F3C 4441 5445           move.l     -[A7], 0x44415445 /* 'DATE' */
00003C1A  3F3C 03EB                move.w     -[A7], 0x3EB
00003C1E  A9A0                     syscall    GetResource
00003C20  265F                     movea.l    A3, [A7]+
00003C22  200B                     move.l     D0, A3
00003C24  6720                     beq        +0x22 /* 00003C46 */
00003C26  2F0B                     move.l     -[A7], A3
00003C28  A9AD                     syscall    RemoveResource/RmveResource
00003C2A  4A78 0A60                tst.w      [0x00000A60 /* ResErr */]
00003C2E  6712                     beq        +0x14 /* 00003C42 */
00003C30  2F3C FFFF 7CC0           move.l     -[A7], 0xFFFF7CC0
00003C36  2F3C FFFF 7CC2           move.l     -[A7], 0xFFFF7CC2
00003C3C  4EAD 0222                jsr        [A5 + 0x222 /* export_64, CODE:2 @ 00004DCE */]
00003C40  508F                     addq.l     A7, 8
label00003C42:
00003C42  204B                     movea.l    A0, A3
00003C44  A023                     syscall    DisposHandle/DisposeHandle
label00003C46:
00003C46  3805                     move.w     D4, D5
00003C48  0644 03E8                addi.w     D4, 0x3E8
00003C4C  42A7                     clr.l      -[A7]
00003C4E  2F3C 4943 4F4E           move.l     -[A7], 0x49434F4E /* 'ICON' */
00003C54  3F04                     move.w     -[A7], D4
00003C56  A9A0                     syscall    GetResource
00003C58  265F                     movea.l    A3, [A7]+
00003C5A  200B                     move.l     D0, A3
00003C5C  6720                     beq        +0x22 /* 00003C7E */
00003C5E  2F0B                     move.l     -[A7], A3
00003C60  A9AD                     syscall    RemoveResource/RmveResource
00003C62  4A78 0A60                tst.w      [0x00000A60 /* ResErr */]
00003C66  6712                     beq        +0x14 /* 00003C7A */
00003C68  2F3C FFFF 7CDA           move.l     -[A7], 0xFFFF7CDA
00003C6E  2F3C FFFF 7CDC           move.l     -[A7], 0xFFFF7CDC
00003C74  4EAD 0222                jsr        [A5 + 0x222 /* export_64, CODE:2 @ 00004DCE */]
00003C78  508F                     addq.l     A7, 8
label00003C7A:
00003C7A  204B                     movea.l    A0, A3
00003C7C  A023                     syscall    DisposHandle/DisposeHandle
label00003C7E:
00003C7E  7004                     moveq.l    D0, 0x04
00003C80  A122                     syscall    NewHandle, flags=1
00003C82  2648                     movea.l    A3, A0
00003C84  2053                     movea.l    A0, [A3]
00003C86  20AE FFAA                move.l     [A0], [A6 - 0x56]
00003C8A  2F0B                     move.l     -[A7], A3
00003C8C  2F3C 4441 5445           move.l     -[A7], 0x44415445 /* 'DATE' */
00003C92  3F3C 03EB                move.w     -[A7], 0x3EB
00003C96  2F3C FFFF 7CF4           move.l     -[A7], 0xFFFF7CF4
00003C9C  A9AB                     syscall    AddResource
00003C9E  4A78 0A60                tst.w      [0x00000A60 /* ResErr */]
00003CA2  6712                     beq        +0x14 /* 00003CB6 */
00003CA4  2F3C FFFF 7CFA           move.l     -[A7], 0xFFFF7CFA
00003CAA  2F3C FFFF 7CFC           move.l     -[A7], 0xFFFF7CFC
00003CB0  4EAD 0222                jsr        [A5 + 0x222 /* export_64, CODE:2 @ 00004DCE */]
00003CB4  508F                     addq.l     A7, 8
label00003CB6:
00003CB6  426E FFA8                clr.w      [A6 - 0x58]
00003CBA  303C 03C2                move.w     D0, 0x3C2
00003CBE  C1F9 FFFF 9228           muls.w     D0, [0xFFFF9228]
00003CC4  0680 FFFF 9766           addi.l     D0, 0xFFFF9766
00003CCA  2474 0800                movea.l    A2, [A4 + D0]
00003CCE  200A                     move.l     D0, A2
00003CD0  6718                     beq        +0x1A /* 00003CEA */
00003CD2  7600                     moveq.l    D3, 0x00
00003CD4  600E                     bra        +0x10 /* 00003CE4 */
label00003CD6:
00003CD6  4A32 3000                tst.b      [A2 + D3.w]
00003CDA  6706                     beq        +0x8 /* 00003CE2 */
00003CDC  3D7C 0001 FFA8           move.w     [A6 - 0x58], 0x1
label00003CE2:
00003CE2  5243                     addq.w     D3, 1
label00003CE4:
00003CE4  0C43 0080                cmpi.w     D3, 0x80
00003CE8  6DEC                     blt        -0x12 /* 00003CD6 */
label00003CEA:
00003CEA  4A6E FFA8                tst.w      [A6 - 0x58]
00003CEE  6768                     beq        +0x6A /* 00003D58 */
00003CF0  203C 0000 0080           move.l     D0, 0x80
00003CF6  A122                     syscall    NewHandle, flags=1
00003CF8  2648                     movea.l    A3, A0
00003CFA  4A78 0220                tst.w      [0x00000220 /* MemErr */]
00003CFE  6706                     beq        +0x8 /* 00003D06 */
00003D00  3F3C 0001                move.w     -[A7], 0x1
00003D04  A9C8                     syscall    SysBeep
label00003D06:
00003D06  7600                     moveq.l    D3, 0x00
00003D08  601E                     bra        +0x20 /* 00003D28 */
label00003D0A:
00003D0A  303C 03C2                move.w     D0, 0x3C2
00003D0E  C1F9 FFFF 9228           muls.w     D0, [0xFFFF9228]
00003D14  0680 FFFF 9766           addi.l     D0, 0xFFFF9766
00003D1A  3043                     movea.w    A0, D3
00003D1C  D1F4 0800                add.l      A0, [A4 + D0]
00003D20  2253                     movea.l    A1, [A3]
00003D22  1390 3000                move.b     [A1 + D3.w], [A0]
00003D26  5243                     addq.w     D3, 1
label00003D28:
00003D28  0C43 0080                cmpi.w     D3, 0x80
00003D2C  6DDC                     blt        -0x22 /* 00003D0A */
00003D2E  2F0B                     move.l     -[A7], A3
00003D30  2F3C 4943 4F4E           move.l     -[A7], 0x49434F4E /* 'ICON' */
00003D36  3F04                     move.w     -[A7], D4
00003D38  2F3C FFFF 9096           move.l     -[A7], 0xFFFF9096
00003D3E  A9AB                     syscall    AddResource
00003D40  4A78 0A60                tst.w      [0x00000A60 /* ResErr */]
00003D44  6712                     beq        +0x14 /* 00003D58 */
00003D46  2F3C FFFF 7D18           move.l     -[A7], 0xFFFF7D18
00003D4C  2F3C FFFF 7D1A           move.l     -[A7], 0xFFFF7D1A
00003D52  4EAD 0222                jsr        [A5 + 0x222 /* export_64, CODE:2 @ 00004DCE */]
00003D56  508F                     addq.l     A7, 8
label00003D58:
00003D58  5245                     addq.w     D5, 1
00003D5A  588C                     addq.l     A4, 4
label00003D5C:
00003D5C  0C45 000A                cmpi.w     D5, 0xA /* '\n' */
00003D60  6D00 FEB0                blt        -0x14E /* 00003C12 */
00003D64  3F06                     move.w     -[A7], D6
00003D66  A99A                     syscall    CloseResFile
label00003D68:
00003D68  4EAD 026A                jsr        [A5 + 0x26A /* export_73, CODE:2 @ 0000554A */]
00003D6C  7600                     moveq.l    D3, 0x00
00003D6E  287C FFFF 9442           movea.l    A4, 0xFFFF9442
00003D74  6000 00C2                bra        +0xC4 /* 00003E38 */
label00003D78:
00003D78  3F03                     move.w     -[A7], D3
00003D7A  4EAD 025A                jsr        [A5 + 0x25A /* export_71, CODE:2 @ 00005494 */]
00003D7E  4A00                     tst.b      D0
00003D80  548F                     addq.l     A7, 2
00003D82  6700 00AE                beq        +0xB0 /* 00003E32 */
00003D86  7A00                     moveq.l    D5, 0x00
00003D88  47EC 0324                lea.l      A3, [A4 + 0x324]
00003D8C  2005                     move.l     D0, D5
00003D8E  48C0                     ext.l      D0
00003D90  E588                     lsl        D0, 2
00003D92  2440                     movea.l    A2, D0
00003D94  6000 0094                bra        +0x96 /* 00003E2A */
label00003D98:
00003D98  303C 03C2                move.w     D0, 0x3C2
00003D9C  C1F9 FFFF 9228           muls.w     D0, [0xFFFF9228]
00003DA2  0680 FFFF 9766           addi.l     D0, 0xFFFF9766
00003DA8  4AB2 0800                tst.l      [A2 + D0]
00003DAC  6754                     beq        +0x56 /* 00003E02 */
00003DAE  204B                     movea.l    A0, A3
00003DB0  D1CA                     add.l      A0, A2
00003DB2  4A90                     tst.l      [A0]
00003DB4  661C                     bne        +0x1E /* 00003DD2 */
00003DB6  203C 0000 0080           move.l     D0, 0x80
00003DBC  A11E                     syscall    NewPtr, flags=1
00003DBE  43EC 0324                lea.l      A1, [A4 + 0x324]
00003DC2  D3CA                     add.l      A1, A2
00003DC4  2288                     move.l     [A1], A0
00003DC6  4A78 0220                tst.w      [0x00000220 /* MemErr */]
00003DCA  6706                     beq        +0x8 /* 00003DD2 */
00003DCC  3F3C 0001                move.w     -[A7], 0x1
00003DD0  A9C8                     syscall    SysBeep
label00003DD2:
00003DD2  7C00                     moveq.l    D6, 0x00
00003DD4  6024                     bra        +0x26 /* 00003DFA */
label00003DD6:
00003DD6  303C 03C2                move.w     D0, 0x3C2
00003DDA  C1F9 FFFF 9228           muls.w     D0, [0xFFFF9228]
00003DE0  0680 FFFF 9766           addi.l     D0, 0xFFFF9766
00003DE6  3046                     movea.w    A0, D6
00003DE8  D1F2 0800                add.l      A0, [A2 + D0]
00003DEC  43EC 0324                lea.l      A1, [A4 + 0x324]
00003DF0  D3CA                     add.l      A1, A2
00003DF2  2251                     movea.l    A1, [A1]
00003DF4  1390 6000                move.b     [A1 + D6.w], [A0]
00003DF8  5246                     addq.w     D6, 1
label00003DFA:
00003DFA  0C46 0080                cmpi.w     D6, 0x80
00003DFE  6DD6                     blt        -0x28 /* 00003DD6 */
00003E00  6024                     bra        +0x26 /* 00003E26 */
label00003E02:
00003E02  41EA 0324                lea.l      A0, [A2 + 0x324]
00003E06  D1CC                     add.l      A0, A4
00003E08  2E08                     move.l     D7, A0
00003E0A  2047                     movea.l    A0, D7
00003E0C  4A90                     tst.l      [A0]
00003E0E  6716                     beq        +0x18 /* 00003E26 */
00003E10  2047                     movea.l    A0, D7
00003E12  2050                     movea.l    A0, [A0]
00003E14  A01F                     syscall    DisposPtr/DisposePtr
00003E16  4A78 0220                tst.w      [0x00000220 /* MemErr */]
00003E1A  6706                     beq        +0x8 /* 00003E22 */
00003E1C  3F3C 0001                move.w     -[A7], 0x1
00003E20  A9C8                     syscall    SysBeep
label00003E22:
00003E22  2047                     movea.l    A0, D7
00003E24  4290                     clr.l      [A0]
label00003E26:
00003E26  5245                     addq.w     D5, 1
00003E28  588A                     addq.l     A2, 4
label00003E2A:
00003E2A  0C45 000A                cmpi.w     D5, 0xA /* '\n' */
00003E2E  6D00 FF68                blt        -0x96 /* 00003D98 */
label00003E32:
00003E32  5243                     addq.w     D3, 1
00003E34  49EC 03C2                lea.l      A4, [A4 + 0x3C2]
label00003E38:
00003E38  B679 FFFF 9226           cmp.w      D3, [0xFFFF9226]
00003E3E  6D00 FF38                blt        -0xC6 /* 00003D78 */
label00003E42:
00003E42  2079 FFFF 7C44           movea.l    A0, [0xFFFF7C44]
00003E48  A01F                     syscall    DisposPtr/DisposePtr
00003E4A  4A78 0220                tst.w      [0x00000220 /* MemErr */]
00003E4E  6706                     beq        +0x8 /* 00003E56 */
00003E50  3F3C 0001                move.w     -[A7], 0x1
00003E54  A9C8                     syscall    SysBeep
label00003E56:
00003E56  7600                     moveq.l    D3, 0x00
00003E58  287C FFFF 7C52           movea.l    A4, 0xFFFF7C52
00003E5E  6008                     bra        +0xA /* 00003E68 */
label00003E60:
00003E60  2F14                     move.l     -[A7], [A4]
00003E62  A8D9                     syscall    DisposRgn/DisposeRgn
00003E64  5243                     addq.w     D3, 1
00003E66  588C                     addq.l     A4, 4
label00003E68:
00003E68  0C43 0007                cmpi.w     D3, 0x7
00003E6C  6DF2                     blt        -0xC /* 00003E60 */
00003E6E  4CDF 1CF8                movem.l    D3,D4,D5,D6,D7,A2,A3,A4, [A7]+
00003E72  4E5E                     unlink     A6
00003E74  4E75                     rts
fn00003E76:
00003E76  48E7 0108                movem.l    -[A7], D7,A4
00003E7A  4279 FFFF 7B3E           clr.w      [0xFFFF7B3E]
00003E80  7E00                     moveq.l    D7, 0x00
00003E82  303C 03C2                move.w     D0, 0x3C2
00003E86  C1F9 FFFF 9228           muls.w     D0, [0xFFFF9228]
00003E8C  2840                     movea.l    A4, D0
00003E8E  D9FC FFFF 9766           add.l      A4, 0xFFFF9766
00003E94  3039 FFFF 7B3C           move.w     D0, [0xFFFF7B3C]
00003E9A  48C0                     ext.l      D0
00003E9C  E588                     lsl        D0, 2
00003E9E  D08C                     add.l      D0, A4
00003EA0  2840                     movea.l    A4, D0
00003EA2  6010                     bra        +0x12 /* 00003EB4 */
label00003EA4:
00003EA4  2054                     movea.l    A0, [A4]
00003EA6  3247                     movea.w    A1, D7
00003EA8  D3FC FFFF 7BC4           add.l      A1, 0xFFFF7BC4
00003EAE  12B0 7000                move.b     [A1], [A0 + D7.w]
00003EB2  5247                     addq.w     D7, 1
label00003EB4:
00003EB4  0C47 0080                cmpi.w     D7, 0x80
00003EB8  6DEA                     blt        -0x14 /* 00003EA4 */
00003EBA  4EBA E8FA                jsr        [PC - 0x1706 /* 000027B6 */]
00003EBE  4CDF 1080                movem.l    D7,A4, [A7]+
00003EC2  4E75                     rts
fn00003EC4:
00003EC4  48E7 0108                movem.l    -[A7], D7,A4
00003EC8  4EBA EA04                jsr        [PC - 0x15FC /* 000028CE */]
00003ECC  4A79 FFFF 7B3E           tst.w      [0xFFFF7B3E]
00003ED2  6600 00B4                bne        +0xB6 /* 00003F88 */
00003ED6  4EBA EB5C                jsr        [PC - 0x14A4 /* 00002A34 */]
00003EDA  2F39 FFFF 7D42           move.l     -[A7], [0xFFFF7D42]
00003EE0  3F3C 0001                move.w     -[A7], 0x1
00003EE4  A939                     syscall    EnableItem
00003EE6  303C 03C2                move.w     D0, 0x3C2
00003EEA  C1F9 FFFF 9228           muls.w     D0, [0xFFFF9228]
00003EF0  2040                     movea.l    A0, D0
00003EF2  D1FC FFFF 9766           add.l      A0, 0xFFFF9766
00003EF8  3039 FFFF 7B3C           move.w     D0, [0xFFFF7B3C]
00003EFE  48C0                     ext.l      D0
00003F00  E588                     lsl        D0, 2
00003F02  4AB0 0800                tst.l      [A0 + D0]
00003F06  6634                     bne        +0x36 /* 00003F3C */
00003F08  203C 0000 0080           move.l     D0, 0x80
00003F0E  A11E                     syscall    NewPtr, flags=1
00003F10  303C 03C2                move.w     D0, 0x3C2
00003F14  C1F9 FFFF 9228           muls.w     D0, [0xFFFF9228]
00003F1A  2240                     movea.l    A1, D0
00003F1C  D3FC FFFF 9766           add.l      A1, 0xFFFF9766
00003F22  3039 FFFF 7B3C           move.w     D0, [0xFFFF7B3C]
00003F28  48C0                     ext.l      D0
00003F2A  E588                     lsl        D0, 2
00003F2C  2388 0800                move.l     [A1 + D0], A0
00003F30  4A78 0220                tst.w      [0x00000220 /* MemErr */]
00003F34  6706                     beq        +0x8 /* 00003F3C */
00003F36  3F3C 0001                move.w     -[A7], 0x1
00003F3A  A9C8                     syscall    SysBeep
label00003F3C:
00003F3C  7E00                     moveq.l    D7, 0x00
00003F3E  303C 03C2                move.w     D0, 0x3C2
00003F42  C1F9 FFFF 9228           muls.w     D0, [0xFFFF9228]
00003F48  2840                     movea.l    A4, D0
00003F4A  D9FC FFFF 9766           add.l      A4, 0xFFFF9766
00003F50  3039 FFFF 7B3C           move.w     D0, [0xFFFF7B3C]
00003F56  48C0                     ext.l      D0
00003F58  E588                     lsl        D0, 2
00003F5A  D08C                     add.l      D0, A4
00003F5C  2840                     movea.l    A4, D0
00003F5E  6010                     bra        +0x12 /* 00003F70 */
label00003F60:
00003F60  3047                     movea.w    A0, D7
00003F62  D1FC FFFF 7BC4           add.l      A0, 0xFFFF7BC4
00003F68  2254                     movea.l    A1, [A4]
00003F6A  1390 7000                move.b     [A1 + D7.w], [A0]
00003F6E  5247                     addq.w     D7, 1
label00003F70:
00003F70  0C47 0080                cmpi.w     D7, 0x80
00003F74  6DEA                     blt        -0x14 /* 00003F60 */
00003F76  4EBA EB6C                jsr        [PC - 0x1494 /* 00002AE4 */]
00003F7A  4EBA EB1C                jsr        [PC - 0x14E4 /* 00002A98 */]
00003F7E  33FC 0001 FFFF 9238      move.w     [0xFFFF9238], 0x1
00003F86  6006                     bra        +0x8 /* 00003F8E */
label00003F88:
00003F88  3F3C 0001                move.w     -[A7], 0x1
00003F8C  A9C8                     syscall    SysBeep
label00003F8E:
00003F8E  4CDF 1080                movem.l    D7,A4, [A7]+
00003F92  4E75                     rts
fn00003F94:
00003F94  4EBA EA9E                jsr        [PC - 0x1562 /* 00002A34 */]
00003F98  303C 03C2                move.w     D0, 0x3C2
00003F9C  C1F9 FFFF 9228           muls.w     D0, [0xFFFF9228]
00003FA2  2040                     movea.l    A0, D0
00003FA4  D1FC FFFF 9766           add.l      A0, 0xFFFF9766
00003FAA  3039 FFFF 7B3C           move.w     D0, [0xFFFF7B3C]
00003FB0  48C0                     ext.l      D0
00003FB2  E588                     lsl        D0, 2
00003FB4  2070 0800                movea.l    A0, [A0 + D0]
00003FB8  A01F                     syscall    DisposPtr/DisposePtr
00003FBA  4A78 0220                tst.w      [0x00000220 /* MemErr */]
00003FBE  6706                     beq        +0x8 /* 00003FC6 */
00003FC0  3F3C 0001                move.w     -[A7], 0x1
00003FC4  A9C8                     syscall    SysBeep
label00003FC6:
00003FC6  303C 03C2                move.w     D0, 0x3C2
00003FCA  C1F9 FFFF 9228           muls.w     D0, [0xFFFF9228]
00003FD0  2040                     movea.l    A0, D0
00003FD2  D1FC FFFF 9766           add.l      A0, 0xFFFF9766
00003FD8  3039 FFFF 7B3C           move.w     D0, [0xFFFF7B3C]
00003FDE  48C0                     ext.l      D0
00003FE0  E588                     lsl        D0, 2
00003FE2  42B0 0800                clr.l      [A0 + D0]
00003FE6  4EBA EAFC                jsr        [PC - 0x1504 /* 00002AE4 */]
00003FEA  4EBA EAD2                jsr        [PC - 0x152E /* 00002ABE */]
00003FEE  33FC 0001 FFFF 9238      move.w     [0xFFFF9238], 0x1
00003FF6  4E75                     rts
fn00003FF8:
00003FF8  4EBA EA3A                jsr        [PC - 0x15C6 /* 00002A34 */]
00003FFC  4EBA FE78                jsr        [PC - 0x188 /* 00003E76 */]
00004000  4EBA FF92                jsr        [PC - 0x6E /* 00003F94 */]
00004004  4E75                     rts
fn00004006:
00004006  48E7 0318                movem.l    -[A7], D6,D7,A3,A4
0000400A  7E00                     moveq.l    D7, 0x00
0000400C  4A79 FFFF 7B40           tst.w      [0xFFFF7B40]
00004012  6700 0098                beq        +0x9A /* 000040AC */
00004016  7E00                     moveq.l    D7, 0x00
00004018  303C 03C2                move.w     D0, 0x3C2
0000401C  C1F9 FFFF 9228           muls.w     D0, [0xFFFF9228]
00004022  2840                     movea.l    A4, D0
00004024  D9FC FFFF 9766           add.l      A4, 0xFFFF9766
0000402A  3039 FFFF 7B3C           move.w     D0, [0xFFFF7B3C]
00004030  48C0                     ext.l      D0
00004032  E588                     lsl        D0, 2
00004034  D08C                     add.l      D0, A4
00004036  2840                     movea.l    A4, D0
00004038  6010                     bra        +0x12 /* 0000404A */
label0000403A:
0000403A  2054                     movea.l    A0, [A4]
0000403C  3247                     movea.w    A1, D7
0000403E  D3FC FFFF 7B44           add.l      A1, 0xFFFF7B44
00004044  12B0 7000                move.b     [A1], [A0 + D7.w]
00004048  5247                     addq.w     D7, 1
label0000404A:
0000404A  0C47 0080                cmpi.w     D7, 0x80
0000404E  6DEA                     blt        -0x14 /* 0000403A */
00004050  303C 03C2                move.w     D0, 0x3C2
00004054  C1F9 FFFF 9228           muls.w     D0, [0xFFFF9228]
0000405A  2040                     movea.l    A0, D0
0000405C  D1FC FFFF 9766           add.l      A0, 0xFFFF9766
00004062  3039 FFFF 7B3C           move.w     D0, [0xFFFF7B3C]
00004068  48C0                     ext.l      D0
0000406A  E588                     lsl        D0, 2
0000406C  2070 0800                movea.l    A0, [A0 + D0]
00004070  A01F                     syscall    DisposPtr/DisposePtr
00004072  4A78 0220                tst.w      [0x00000220 /* MemErr */]
00004076  6706                     beq        +0x8 /* 0000407E */
00004078  3F3C 0001                move.w     -[A7], 0x1
0000407C  A9C8                     syscall    SysBeep
label0000407E:
0000407E  303C 03C2                move.w     D0, 0x3C2
00004082  C1F9 FFFF 9228           muls.w     D0, [0xFFFF9228]
00004088  2040                     movea.l    A0, D0
0000408A  D1FC FFFF 9766           add.l      A0, 0xFFFF9766
00004090  3039 FFFF 7B3C           move.w     D0, [0xFFFF7B3C]
00004096  48C0                     ext.l      D0
00004098  E588                     lsl        D0, 2
0000409A  42B0 0800                clr.l      [A0 + D0]
0000409E  4EBA EA1E                jsr        [PC - 0x15E2 /* 00002ABE */]
000040A2  4279 FFFF 7B40           clr.w      [0xFFFF7B40]
000040A8  6000 00A6                bra        +0xA8 /* 00004150 */
label000040AC:
000040AC  303C 03C2                move.w     D0, 0x3C2
000040B0  C1F9 FFFF 9228           muls.w     D0, [0xFFFF9228]
000040B6  2040                     movea.l    A0, D0
000040B8  D1FC FFFF 9766           add.l      A0, 0xFFFF9766
000040BE  3039 FFFF 7B3C           move.w     D0, [0xFFFF7B3C]
000040C4  48C0                     ext.l      D0
000040C6  E588                     lsl        D0, 2
000040C8  4AB0 0800                tst.l      [A0 + D0]
000040CC  6640                     bne        +0x42 /* 0000410E */
000040CE  203C 0000 0080           move.l     D0, 0x80
000040D4  A11E                     syscall    NewPtr, flags=1
000040D6  303C 03C2                move.w     D0, 0x3C2
000040DA  C1F9 FFFF 9228           muls.w     D0, [0xFFFF9228]
000040E0  2240                     movea.l    A1, D0
000040E2  D3FC FFFF 9766           add.l      A1, 0xFFFF9766
000040E8  3039 FFFF 7B3C           move.w     D0, [0xFFFF7B3C]
000040EE  48C0                     ext.l      D0
000040F0  E588                     lsl        D0, 2
000040F2  2388 0800                move.l     [A1 + D0], A0
000040F6  4A78 0220                tst.w      [0x00000220 /* MemErr */]
000040FA  6706                     beq        +0x8 /* 00004102 */
000040FC  3F3C 0001                move.w     -[A7], 0x1
00004100  A9C8                     syscall    SysBeep
label00004102:
00004102  4EBA E994                jsr        [PC - 0x166C /* 00002A98 */]
00004106  33FC 0001 FFFF 7B40      move.w     [0xFFFF7B40], 0x1
label0000410E:
0000410E  7E00                     moveq.l    D7, 0x00
00004110  6038                     bra        +0x3A /* 0000414A */
label00004112:
00004112  303C 03C2                move.w     D0, 0x3C2
00004116  C1F9 FFFF 9228           muls.w     D0, [0xFFFF9228]
0000411C  2840                     movea.l    A4, D0
0000411E  D9FC FFFF 9766           add.l      A4, 0xFFFF9766
00004124  3039 FFFF 7B3C           move.w     D0, [0xFFFF7B3C]
0000412A  48C0                     ext.l      D0
0000412C  E588                     lsl        D0, 2
0000412E  D08C                     add.l      D0, A4
00004130  2840                     movea.l    A4, D0
00004132  2054                     movea.l    A0, [A4]
00004134  1C30 7000                move.b     D6, [A0 + D7.w]
00004138  3647                     movea.w    A3, D7
0000413A  D7FC FFFF 7B44           add.l      A3, 0xFFFF7B44
00004140  2054                     movea.l    A0, [A4]
00004142  1193 7000                move.b     [A0 + D7.w], [A3]
00004146  1686                     move.b     [A3], D6
00004148  5247                     addq.w     D7, 1
label0000414A:
0000414A  0C47 0080                cmpi.w     D7, 0x80
0000414E  6DC2                     blt        -0x3C /* 00004112 */
label00004150:
00004150  4EBA E992                jsr        [PC - 0x166E /* 00002AE4 */]
00004154  33FC 0001 FFFF 9238      move.w     [0xFFFF9238], 0x1
0000415C  4CDF 18C0                movem.l    D6,D7,A3,A4, [A7]+
00004160  4E75                     rts
fn00004162:
00004162  4E56 FFE4                link       A6, -0x001C
00004166  48E7 0700                movem.l    -[A7], D5,D6,D7
0000416A  486E FFF8                pea.l      [A6 - 0x8]
0000416E  A972                     syscall    GetMouse
00004170  4227                     clr.b      -[A7]
00004172  2F2E FFF8                move.l     -[A7], [A6 - 0x8]
00004176  2F3C FFFF 7C4A           move.l     -[A7], 0xFFFF7C4A
0000417C  A8AD                     syscall    PtInRect
0000417E  4A1F                     tst.b      [A7]+
00004180  670C                     beq        +0xE /* 0000418E */
00004182  2079 FFFF 7D7A           movea.l    A0, [0xFFFF7D7A]
00004188  2F10                     move.l     -[A7], [A0]
0000418A  A851                     syscall    SetCursor
0000418C  6008                     bra        +0xA /* 00004196 */
label0000418E:
0000418E  2F3C FFFF FA60           move.l     -[A7], 0xFFFFFA60
00004194  A851                     syscall    SetCursor
label00004196:
00004196  303C 03C2                move.w     D0, 0x3C2
0000419A  C1F9 FFFF 9228           muls.w     D0, [0xFFFF9228]
000041A0  2040                     movea.l    A0, D0
000041A2  D1FC FFFF 9766           add.l      A0, 0xFFFF9766
000041A8  3039 FFFF 7B3C           move.w     D0, [0xFFFF7B3C]
000041AE  48C0                     ext.l      D0
000041B0  E588                     lsl        D0, 2
000041B2  4AB0 0800                tst.l      [A0 + D0]
000041B6  6700 030E                beq        +0x310 /* 000044C6 */
000041BA  5279 FFFF 7B42           addq.w     [0xFFFF7B42], 1
000041C0  3039 FFFF 7B42           move.w     D0, [0xFFFF7B42]
000041C6  48C0                     ext.l      D0
000041C8  81FC 0168                divs.w     D0, 0x168
000041CC  4840                     swap.w     D0
000041CE  33C0 FFFF 7B42           move.w     [0xFFFF7B42], D0
000041D4  48C0                     ext.l      D0
000041D6  81FC 0005                divs.w     D0, 0x5
000041DA  4840                     swap.w     D0
000041DC  4A40                     tst.w      D0
000041DE  6600 02E6                bne        +0x2E8 /* 000044C6 */
000041E2  486E FFFC                pea.l      [A6 - 0x4]
000041E6  A874                     syscall    GetPort
000041E8  2F39 FFFF 7D56           move.l     -[A7], [0xFFFF7D56]
000041EE  A873                     syscall    SetPort
000041F0  3E39 FFFF 7B3C           move.w     D7, [0xFFFF7B3C]
000041F6  48C7                     ext.l      D7
000041F8  8FFC 0002                divs.w     D7, 0x2
000041FC  CFFC 002D                muls.w     D7, 0x2D /* '-' */
00004200  0647 0023                addi.w     D7, 0x23 /* '#' */
00004204  3C39 FFFF 7B3C           move.w     D6, [0xFFFF7B3C]
0000420A  48C6                     ext.l      D6
0000420C  8DFC 0002                divs.w     D6, 0x2
00004210  4846                     swap.w     D6
00004212  CDFC 0064                muls.w     D6, 0x64 /* 'd' */
00004216  0646 015E                addi.w     D6, 0x15E
0000421A  70F0                     moveq.l    D0, 0xFFFFFFF0
0000421C  D047                     add.w      D0, D7
0000421E  3D40 FFF0                move.w     [A6 - 0x10], D0
00004222  7010                     moveq.l    D0, 0x10
00004224  D047                     add.w      D0, D7
00004226  3D40 FFF4                move.w     [A6 - 0xC], D0
0000422A  70F0                     moveq.l    D0, 0xFFFFFFF0
0000422C  D046                     add.w      D0, D6
0000422E  3D40 FFF2                move.w     [A6 - 0xE], D0
00004232  7010                     moveq.l    D0, 0x10
00004234  D046                     add.w      D0, D6
00004236  3D40 FFF6                move.w     [A6 - 0xA], D0
0000423A  4878 0111                push.l     0x111
0000423E  A862                     syscall    ForeColor
00004240  303C 03C2                move.w     D0, 0x3C2
00004244  C1F9 FFFF 9228           muls.w     D0, [0xFFFF9228]
0000424A  2040                     movea.l    A0, D0
0000424C  D1FC FFFF 9766           add.l      A0, 0xFFFF9766
00004252  3039 FFFF 7B3C           move.w     D0, [0xFFFF7B3C]
00004258  48C0                     ext.l      D0
0000425A  E588                     lsl        D0, 2
0000425C  23F0 0800 FFFF 7E26      move.l     [0xFFFF7E26], [A0 + D0]
00004264  2F3C FFFF 7E26           move.l     -[A7], 0xFFFF7E26
0000426A  2079 FFFF 7D56           movea.l    A0, [0xFFFF7D56]
00004270  4868 0002                pea.l      [A0 + 0x2]
00004274  2F3C FFFF 7E2C           move.l     -[A7], 0xFFFF7E2C
0000427A  486E FFF0                pea.l      [A6 - 0x10]
0000427E  4267                     clr.w      -[A7]
00004280  42A7                     clr.l      -[A7]
00004282  A8EC                     syscall    CopyBits
00004284  4878 0021                push.l     0x21 /* '!' */
00004288  A862                     syscall    ForeColor
0000428A  303C 03C2                move.w     D0, 0x3C2
0000428E  C1F9 FFFF 9228           muls.w     D0, [0xFFFF9228]
00004294  2040                     movea.l    A0, D0
00004296  D1FC FFFF 9790           add.l      A0, 0xFFFF9790
0000429C  3A10                     move.w     D5, [A0]
0000429E  0C45 0001                cmpi.w     D5, 0x1
000042A2  6600 00B4                bne        +0xB6 /* 00004358 */
000042A6  3F06                     move.w     -[A7], D6
000042A8  3F07                     move.w     -[A7], D7
000042AA  A893                     syscall    MoveTo
000042AC  3039 FFFF 7B42           move.w     D0, [0xFFFF7B42]
000042B2  0640 010E                addi.w     D0, 0x10E
000042B6  48C0                     ext.l      D0
000042B8  81FC 0168                divs.w     D0, 0x168
000042BC  4840                     swap.w     D0
000042BE  C1FC 000C                muls.w     D0, 0xC
000042C2  2040                     movea.l    A0, D0
000042C4  D1FC FFFF 7E84           add.l      A0, 0xFFFF7E84
000042CA  487A 020C                pea.l      [PC + 0x20C /* 000044D8, value 0x948E7, cstring "" */]
000042CE  486E FFE6                pea.l      [A6 - 0x1A]
000042D2  3F3C 200E                move.w     -[A7], 0x200E
000042D6  A9EB                     syscall    Pack4/FP68K
000042D8  4868 0002                pea.l      [A0 + 0x2]
000042DC  486E FFE6                pea.l      [A6 - 0x1A]
000042E0  3F3C 0004                move.w     -[A7], 0x4
000042E4  A9EB                     syscall    Pack4/FP68K
000042E6  486E FFE6                pea.l      [A6 - 0x1A]
000042EA  3F3C 0016                move.w     -[A7], 0x16
000042EE  A9EB                     syscall    Pack4/FP68K
000042F0  486E FFE6                pea.l      [A6 - 0x1A]
000042F4  486E FFE4                pea.l      [A6 - 0x1C]
000042F8  3F3C 2010                move.w     -[A7], 0x2010
000042FC  A9EB                     syscall    Pack4/FP68K
000042FE  302E FFE4                move.w     D0, [A6 - 0x1C]
00004302  D046                     add.w      D0, D6
00004304  3F00                     move.w     -[A7], D0
00004306  700C                     moveq.l    D0, 0x0C
00004308  C1F9 FFFF 7B42           muls.w     D0, [0xFFFF7B42]
0000430E  2040                     movea.l    A0, D0
00004310  D1FC FFFF 7E84           add.l      A0, 0xFFFF7E84
00004316  487A 01BE                pea.l      [PC + 0x1BE /* 000044D6, value 0x90009 '\t\0\t', cstring "" */]
0000431A  486E FFE6                pea.l      [A6 - 0x1A]
0000431E  3F3C 200E                move.w     -[A7], 0x200E
00004322  A9EB                     syscall    Pack4/FP68K
00004324  4868 0002                pea.l      [A0 + 0x2]
00004328  486E FFE6                pea.l      [A6 - 0x1A]
0000432C  3F3C 0004                move.w     -[A7], 0x4
00004330  A9EB                     syscall    Pack4/FP68K
00004332  486E FFE6                pea.l      [A6 - 0x1A]
00004336  3F3C 0016                move.w     -[A7], 0x16
0000433A  A9EB                     syscall    Pack4/FP68K
0000433C  486E FFE6                pea.l      [A6 - 0x1A]
00004340  486E FFE4                pea.l      [A6 - 0x1C]
00004344  3F3C 2010                move.w     -[A7], 0x2010
00004348  A9EB                     syscall    Pack4/FP68K
0000434A  3007                     move.w     D0, D7
0000434C  906E FFE4                sub.w      D0, [A6 - 0x1C]
00004350  3F00                     move.w     -[A7], D0
00004352  A891                     syscall    LineTo
00004354  6000 016A                bra        +0x16C /* 000044C0 */
label00004358:
00004358  0C45 0002                cmpi.w     D5, 0x2
0000435C  6600 0162                bne        +0x164 /* 000044C0 */
00004360  2F3C 0002 0002           move.l     -[A7], 0x20002
00004366  A89B                     syscall    PenSize
00004368  3039 FFFF 7B42           move.w     D0, [0xFFFF7B42]
0000436E  0640 010E                addi.w     D0, 0x10E
00004372  48C0                     ext.l      D0
00004374  81FC 0168                divs.w     D0, 0x168
00004378  4840                     swap.w     D0
0000437A  C1FC 000C                muls.w     D0, 0xC
0000437E  2040                     movea.l    A0, D0
00004380  D1FC FFFF 7E84           add.l      A0, 0xFFFF7E84
00004386  487A 014C                pea.l      [PC + 0x14C /* 000044D4, value 0xC0009, cstring "" */]
0000438A  486E FFE6                pea.l      [A6 - 0x1A]
0000438E  3F3C 200E                move.w     -[A7], 0x200E
00004392  A9EB                     syscall    Pack4/FP68K
00004394  4868 0002                pea.l      [A0 + 0x2]
00004398  486E FFE6                pea.l      [A6 - 0x1A]
0000439C  3F3C 0004                move.w     -[A7], 0x4
000043A0  A9EB                     syscall    Pack4/FP68K
000043A2  486E FFE6                pea.l      [A6 - 0x1A]
000043A6  3F3C 0016                move.w     -[A7], 0x16
000043AA  A9EB                     syscall    Pack4/FP68K
000043AC  486E FFE6                pea.l      [A6 - 0x1A]
000043B0  486E FFE4                pea.l      [A6 - 0x1C]
000043B4  3F3C 2010                move.w     -[A7], 0x2010
000043B8  A9EB                     syscall    Pack4/FP68K
000043BA  302E FFE4                move.w     D0, [A6 - 0x1C]
000043BE  D046                     add.w      D0, D6
000043C0  3F00                     move.w     -[A7], D0
000043C2  700C                     moveq.l    D0, 0x0C
000043C4  C1F9 FFFF 7B42           muls.w     D0, [0xFFFF7B42]
000043CA  2040                     movea.l    A0, D0
000043CC  D1FC FFFF 7E84           add.l      A0, 0xFFFF7E84
000043D2  487A 00FE                pea.l      [PC + 0xFE /* 000044D2, value 0xC000C, cstring "" */]
000043D6  486E FFE6                pea.l      [A6 - 0x1A]
000043DA  3F3C 200E                move.w     -[A7], 0x200E
000043DE  A9EB                     syscall    Pack4/FP68K
000043E0  4868 0002                pea.l      [A0 + 0x2]
000043E4  486E FFE6                pea.l      [A6 - 0x1A]
000043E8  3F3C 0004                move.w     -[A7], 0x4
000043EC  A9EB                     syscall    Pack4/FP68K
000043EE  486E FFE6                pea.l      [A6 - 0x1A]
000043F2  3F3C 0016                move.w     -[A7], 0x16
000043F6  A9EB                     syscall    Pack4/FP68K
000043F8  486E FFE6                pea.l      [A6 - 0x1A]
000043FC  486E FFE4                pea.l      [A6 - 0x1C]
00004400  3F3C 2010                move.w     -[A7], 0x2010
00004404  A9EB                     syscall    Pack4/FP68K
00004406  3007                     move.w     D0, D7
00004408  906E FFE4                sub.w      D0, [A6 - 0x1C]
0000440C  3F00                     move.w     -[A7], D0
0000440E  A893                     syscall    MoveTo
00004410  3039 FFFF 7B42           move.w     D0, [0xFFFF7B42]
00004416  0640 010E                addi.w     D0, 0x10E
0000441A  48C0                     ext.l      D0
0000441C  81FC 0168                divs.w     D0, 0x168
00004420  4840                     swap.w     D0
00004422  C1FC 000C                muls.w     D0, 0xC
00004426  2040                     movea.l    A0, D0
00004428  D1FC FFFF 7E84           add.l      A0, 0xFFFF7E84
0000442E  487A 00A0                pea.l      [PC + 0xA0 /* 000044D0, value 0xC000C, cstring "" */]
00004432  486E FFE6                pea.l      [A6 - 0x1A]
00004436  3F3C 200E                move.w     -[A7], 0x200E
0000443A  A9EB                     syscall    Pack4/FP68K
0000443C  4868 0002                pea.l      [A0 + 0x2]
00004440  486E FFE6                pea.l      [A6 - 0x1A]
00004444  3F3C 0004                move.w     -[A7], 0x4
00004448  A9EB                     syscall    Pack4/FP68K
0000444A  486E FFE6                pea.l      [A6 - 0x1A]
0000444E  3F3C 0016                move.w     -[A7], 0x16
00004452  A9EB                     syscall    Pack4/FP68K
00004454  486E FFE6                pea.l      [A6 - 0x1A]
00004458  486E FFE4                pea.l      [A6 - 0x1C]
0000445C  3F3C 2010                move.w     -[A7], 0x2010
00004460  A9EB                     syscall    Pack4/FP68K
00004462  302E FFE4                move.w     D0, [A6 - 0x1C]
00004466  D046                     add.w      D0, D6
00004468  3F00                     move.w     -[A7], D0
0000446A  700C                     moveq.l    D0, 0x0C
0000446C  C1F9 FFFF 7B42           muls.w     D0, [0xFFFF7B42]
00004472  2040                     movea.l    A0, D0
00004474  D1FC FFFF 7E84           add.l      A0, 0xFFFF7E84
0000447A  487A 0052                pea.l      [PC + 0x52 /* 000044CE, value 0xC000C, cstring "" */]
0000447E  486E FFE6                pea.l      [A6 - 0x1A]
00004482  3F3C 200E                move.w     -[A7], 0x200E
00004486  A9EB                     syscall    Pack4/FP68K
00004488  4868 0002                pea.l      [A0 + 0x2]
0000448C  486E FFE6                pea.l      [A6 - 0x1A]
00004490  3F3C 0004                move.w     -[A7], 0x4
00004494  A9EB                     syscall    Pack4/FP68K
00004496  486E FFE6                pea.l      [A6 - 0x1A]
0000449A  3F3C 0016                move.w     -[A7], 0x16
0000449E  A9EB                     syscall    Pack4/FP68K
000044A0  486E FFE6                pea.l      [A6 - 0x1A]
000044A4  486E FFE4                pea.l      [A6 - 0x1C]
000044A8  3F3C 2010                move.w     -[A7], 0x2010
000044AC  A9EB                     syscall    Pack4/FP68K
000044AE  3007                     move.w     D0, D7
000044B0  906E FFE4                sub.w      D0, [A6 - 0x1C]
000044B4  3F00                     move.w     -[A7], D0
000044B6  A891                     syscall    LineTo
000044B8  2F3C 0001 0001           move.l     -[A7], 0x10001
000044BE  A89B                     syscall    PenSize
label000044C0:
000044C0  2F2E FFFC                move.l     -[A7], [A6 - 0x4]
000044C4  A873                     syscall    SetPort
label000044C6:
000044C6  4CDF 00E0                movem.l    D5,D6,D7, [A7]+
000044CA  4E5E                     unlink     A6
000044CC  4E75                     rts
000044CE  000C 000C                ori.b      A4, 0xC
000044D2  000C 000C                ori.b      A4, 0xC
000044D6  0009 0009                ori.b      A1, 0x9 /* '\t' */
fn000044DA:
000044DA  48E7 0108                movem.l    -[A7], D7,A4
000044DE  2F3C FFFF FACC           move.l     -[A7], 0xFFFFFACC
000044E4  A86E                     syscall    InitGraf
000044E6  A8FE                     syscall    InitFonts
000044E8  A912                     syscall    InitWindows
000044EA  A930                     syscall    InitMenus
000044EC  A9CC                     syscall    TEInit
000044EE  42A7                     clr.l      -[A7]
000044F0  A97B                     syscall    InitDialogs
000044F2  A850                     syscall    InitCursor
000044F4  A036                     syscall    MoreMasters
000044F6  A036                     syscall    MoreMasters
000044F8  A036                     syscall    MoreMasters
000044FA  A036                     syscall    MoreMasters
000044FC  A036                     syscall    MoreMasters
000044FE  A063                     syscall    MaxApplZone
00004500  3F3C 03E9                move.w     -[A7], 0x3E9
00004504  A989                     syscall    CouldAlert
00004506  3F3C 03E8                move.w     -[A7], 0x3E8
0000450A  A989                     syscall    CouldAlert
0000450C  4239 FFFF 9096           clr.b      [0xFFFF9096]
00004512  7E00                     moveq.l    D7, 0x00
00004514  287C FFFF 7D3A           movea.l    A4, 0xFFFF7D3A
0000451A  6028                     bra        +0x2A /* 00004544 */
label0000451C:
0000451C  42A7                     clr.l      -[A7]
0000451E  3007                     move.w     D0, D7
00004520  0640 03E8                addi.w     D0, 0x3E8
00004524  3F00                     move.w     -[A7], D0
00004526  A9BF                     syscall    GetRMenu
00004528  289F                     move.l     [A4], [A7]+
0000452A  4A94                     tst.l      [A4]
0000452C  6708                     beq        +0xA /* 00004536 */
0000452E  2F14                     move.l     -[A7], [A4]
00004530  4267                     clr.w      -[A7]
00004532  A935                     syscall    InsertMenu
00004534  600A                     bra        +0xC /* 00004540 */
label00004536:
00004536  3F3C 0001                move.w     -[A7], 0x1
0000453A  4EAD 022A                jsr        [A5 + 0x22A /* export_65, CODE:2 @ 00004EA6 */]
0000453E  548F                     addq.l     A7, 2
label00004540:
00004540  5247                     addq.w     D7, 1
00004542  588C                     addq.l     A4, 4
label00004544:
00004544  0C47 0005                cmpi.w     D7, 0x5
00004548  6DD2                     blt        -0x2C /* 0000451C */
0000454A  42A7                     clr.l      -[A7]
0000454C  3F3C 0080                move.w     -[A7], 0x80
00004550  A9BF                     syscall    GetRMenu
00004552  23DF FFFF 7D4E           move.l     [0xFFFF7D4E], [A7]+
00004558  4AB9 FFFF 7D4E           tst.l      [0xFFFF7D4E]
0000455E  670E                     beq        +0x10 /* 0000456E */
00004560  2F39 FFFF 7D4E           move.l     -[A7], [0xFFFF7D4E]
00004566  3F3C FFFF                move.w     -[A7], 0xFFFF
0000456A  A935                     syscall    InsertMenu
0000456C  600A                     bra        +0xC /* 00004578 */
label0000456E:
0000456E  3F3C 0001                move.w     -[A7], 0x1
00004572  4EAD 022A                jsr        [A5 + 0x22A /* export_65, CODE:2 @ 00004EA6 */]
00004576  548F                     addq.l     A7, 2
label00004578:
00004578  42A7                     clr.l      -[A7]
0000457A  3F3C 0081                move.w     -[A7], 0x81
0000457E  A9BF                     syscall    GetRMenu
00004580  23DF FFFF 7D52           move.l     [0xFFFF7D52], [A7]+
00004586  4AB9 FFFF 7D52           tst.l      [0xFFFF7D52]
0000458C  670E                     beq        +0x10 /* 0000459C */
0000458E  2F39 FFFF 7D52           move.l     -[A7], [0xFFFF7D52]
00004594  3F3C FFFF                move.w     -[A7], 0xFFFF
00004598  A935                     syscall    InsertMenu
0000459A  600A                     bra        +0xC /* 000045A6 */
label0000459C:
0000459C  3F3C 0001                move.w     -[A7], 0x1
000045A0  4EAD 022A                jsr        [A5 + 0x22A /* export_65, CODE:2 @ 00004EA6 */]
000045A4  548F                     addq.l     A7, 2
label000045A6:
000045A6  2F39 FFFF 7D3A           move.l     -[A7], [0xFFFF7D3A]
000045AC  2F3C 4452 5652           move.l     -[A7], 0x44525652 /* 'DRVR' */
000045B2  A94D                     syscall    AppendResMenu/AddResMenu
000045B4  A937                     syscall    DrawMenuBar
000045B6  4EAD 0272                jsr        [A5 + 0x272 /* export_74, CODE:2 @ 000055AC */]
000045BA  42A7                     clr.l      -[A7]
000045BC  3F3C 03E8                move.w     -[A7], 0x3E8
000045C0  42A7                     clr.l      -[A7]
000045C2  4878 FFFF                push.l     0xFFFF
000045C6  A9BD                     syscall    GetNewWindow
000045C8  23DF FFFF 7D56           move.l     [0xFFFF7D56], [A7]+
000045CE  4AB9 FFFF 7D56           tst.l      [0xFFFF7D56]
000045D4  670A                     beq        +0xC /* 000045E0 */
000045D6  2F39 FFFF 7D56           move.l     -[A7], [0xFFFF7D56]
000045DC  A873                     syscall    SetPort
000045DE  600A                     bra        +0xC /* 000045EA */
label000045E0:
000045E0  3F3C 0002                move.w     -[A7], 0x2
000045E4  4EAD 022A                jsr        [A5 + 0x22A /* export_65, CODE:2 @ 00004EA6 */]
000045E8  548F                     addq.l     A7, 2
label000045EA:
000045EA  42A7                     clr.l      -[A7]
000045EC  3F3C 03EA                move.w     -[A7], 0x3EA
000045F0  2F39 FFFF 7D56           move.l     -[A7], [0xFFFF7D56]
000045F6  A9BE                     syscall    GetNewControl
000045F8  23DF FFFF 9068           move.l     [0xFFFF9068], [A7]+
000045FE  4AB9 FFFF 9068           tst.l      [0xFFFF9068]
00004604  660A                     bne        +0xC /* 00004610 */
00004606  3F3C 0004                move.w     -[A7], 0x4
0000460A  4EAD 022A                jsr        [A5 + 0x22A /* export_65, CODE:2 @ 00004EA6 */]
0000460E  548F                     addq.l     A7, 2
label00004610:
00004610  42A7                     clr.l      -[A7]
00004612  3F3C 03EB                move.w     -[A7], 0x3EB
00004616  2F39 FFFF 7D56           move.l     -[A7], [0xFFFF7D56]
0000461C  A9BE                     syscall    GetNewControl
0000461E  23DF FFFF 906C           move.l     [0xFFFF906C], [A7]+
00004624  4AB9 FFFF 906C           tst.l      [0xFFFF906C]
0000462A  660A                     bne        +0xC /* 00004636 */
0000462C  3F3C 0004                move.w     -[A7], 0x4
00004630  4EAD 022A                jsr        [A5 + 0x22A /* export_65, CODE:2 @ 00004EA6 */]
00004634  548F                     addq.l     A7, 2
label00004636:
00004636  42A7                     clr.l      -[A7]
00004638  3F3C 03EC                move.w     -[A7], 0x3EC
0000463C  2F39 FFFF 7D56           move.l     -[A7], [0xFFFF7D56]
00004642  A9BE                     syscall    GetNewControl
00004644  23DF FFFF 9070           move.l     [0xFFFF9070], [A7]+
0000464A  4AB9 FFFF 9070           tst.l      [0xFFFF9070]
00004650  660A                     bne        +0xC /* 0000465C */
00004652  3F3C 0004                move.w     -[A7], 0x4
00004656  4EAD 022A                jsr        [A5 + 0x22A /* export_65, CODE:2 @ 00004EA6 */]
0000465A  548F                     addq.l     A7, 2
label0000465C:
0000465C  42A7                     clr.l      -[A7]
0000465E  3F3C 03ED                move.w     -[A7], 0x3ED
00004662  2F39 FFFF 7D56           move.l     -[A7], [0xFFFF7D56]
00004668  A9BE                     syscall    GetNewControl
0000466A  23DF FFFF 9074           move.l     [0xFFFF9074], [A7]+
00004670  4AB9 FFFF 9074           tst.l      [0xFFFF9074]
00004676  660A                     bne        +0xC /* 00004682 */
00004678  3F3C 0004                move.w     -[A7], 0x4
0000467C  4EAD 022A                jsr        [A5 + 0x22A /* export_65, CODE:2 @ 00004EA6 */]
00004680  548F                     addq.l     A7, 2
label00004682:
00004682  42A7                     clr.l      -[A7]
00004684  3F3C 03EE                move.w     -[A7], 0x3EE
00004688  2F39 FFFF 7D56           move.l     -[A7], [0xFFFF7D56]
0000468E  A9BE                     syscall    GetNewControl
00004690  23DF FFFF 9078           move.l     [0xFFFF9078], [A7]+
00004696  4AB9 FFFF 9078           tst.l      [0xFFFF9078]
0000469C  660A                     bne        +0xC /* 000046A8 */
0000469E  3F3C 0004                move.w     -[A7], 0x4
000046A2  4EAD 022A                jsr        [A5 + 0x22A /* export_65, CODE:2 @ 00004EA6 */]
000046A6  548F                     addq.l     A7, 2
label000046A8:
000046A8  42A7                     clr.l      -[A7]
000046AA  3F3C 03E9                move.w     -[A7], 0x3E9
000046AE  2F39 FFFF 7D56           move.l     -[A7], [0xFFFF7D56]
000046B4  A9BE                     syscall    GetNewControl
000046B6  23DF FFFF 9064           move.l     [0xFFFF9064], [A7]+
000046BC  4AB9 FFFF 9064           tst.l      [0xFFFF9064]
000046C2  660A                     bne        +0xC /* 000046CE */
000046C4  3F3C 0004                move.w     -[A7], 0x4
000046C8  4EAD 022A                jsr        [A5 + 0x22A /* export_65, CODE:2 @ 00004EA6 */]
000046CC  548F                     addq.l     A7, 2
label000046CE:
000046CE  42A7                     clr.l      -[A7]
000046D0  3F3C 0001                move.w     -[A7], 0x1
000046D4  A9B9                     syscall    GetCursor
000046D6  23DF FFFF 7D72           move.l     [0xFFFF7D72], [A7]+
000046DC  4AB9 FFFF 7D72           tst.l      [0xFFFF7D72]
000046E2  6616                     bne        +0x18 /* 000046FA */
000046E4  2079 FFFF 7D72           movea.l    A0, [0xFFFF7D72]
000046EA  2050                     movea.l    A0, [A0]
000046EC  43F9 FFFF FA60           lea.l      A1, [0xFFFFFA60]
000046F2  7010                     moveq.l    D0, 0x10
label000046F4:
000046F4  20D9                     move.l     [A0]+, [A1]+
000046F6  51C8 FFFC                dbf        D0, -0x6 /* 000046F4 */
label000046FA:
000046FA  42A7                     clr.l      -[A7]
000046FC  3F3C 0004                move.w     -[A7], 0x4
00004700  A9B9                     syscall    GetCursor
00004702  23DF FFFF 7D76           move.l     [0xFFFF7D76], [A7]+
00004708  4AB9 FFFF 7D76           tst.l      [0xFFFF7D76]
0000470E  6616                     bne        +0x18 /* 00004726 */
00004710  2079 FFFF 7D76           movea.l    A0, [0xFFFF7D76]
00004716  2050                     movea.l    A0, [A0]
00004718  43F9 FFFF FA60           lea.l      A1, [0xFFFFFA60]
0000471E  7010                     moveq.l    D0, 0x10
label00004720:
00004720  20D9                     move.l     [A0]+, [A1]+
00004722  51C8 FFFC                dbf        D0, -0x6 /* 00004720 */
label00004726:
00004726  42A7                     clr.l      -[A7]
00004728  3F3C 0002                move.w     -[A7], 0x2
0000472C  A9B9                     syscall    GetCursor
0000472E  23DF FFFF 7D7A           move.l     [0xFFFF7D7A], [A7]+
00004734  4AB9 FFFF 7D7A           tst.l      [0xFFFF7D7A]
0000473A  6616                     bne        +0x18 /* 00004752 */
0000473C  2079 FFFF 7D7A           movea.l    A0, [0xFFFF7D7A]
00004742  2050                     movea.l    A0, [A0]
00004744  43F9 FFFF FA60           lea.l      A1, [0xFFFFFA60]
0000474A  7010                     moveq.l    D0, 0x10
label0000474C:
0000474C  20D9                     move.l     [A0]+, [A1]+
0000474E  51C8 FFFC                dbf        D0, -0x6 /* 0000474C */
label00004752:
00004752  3F3C 03E8                move.w     -[A7], 0x3E8
00004756  A98A                     syscall    FreeAlert
00004758  4CDF 1080                movem.l    D7,A4, [A7]+
0000475C  4E75                     rts
fn0000475E:
0000475E  4E56 FFE2                link       A6, -0x001E
00004762  48E7 0F38                movem.l    -[A7], D4,D5,D6,D7,A2,A3,A4
00004766  2F39 FFFF 7D56           move.l     -[A7], [0xFFFF7D56]
0000476C  A915                     syscall    ShowWindow
0000476E  4EAD 028A                jsr        [A5 + 0x28A /* export_77, CODE:2 @ 00005AD2 */]
00004772  42A7                     clr.l      -[A7]
00004774  A9FB                     syscall    LoadScrap/LodeScrap
00004776  4A9F                     tst.l      [A7]+
00004778  6706                     beq        +0x8 /* 00004780 */
0000477A  3F3C 0001                move.w     -[A7], 0x1
0000477E  A9C8                     syscall    SysBeep
label00004780:
00004780  4EAD 01FA                jsr        [A5 + 0x1FA /* export_59, CODE:2 @ 000049EE */]
00004784  4279 FFFF 9226           clr.w      [0xFFFF9226]
0000478A  4279 FFFF 922A           clr.w      [0xFFFF922A]
00004790  42B9 FFFF AACE           clr.l      [0xFFFFAACE]
00004796  33FC 0006 FFFF 9228      move.w     [0xFFFF9228], 0x6
0000479E  33FC 0006 FFFF 923A      move.w     [0xFFFF923A], 0x6
000047A6  4279 FFFF 9222           clr.w      [0xFFFF9222]
000047AC  4239 FFFF 9242           clr.b      [0xFFFF9242]
000047B2  4239 FFFF 9342           clr.b      [0xFFFF9342]
000047B8  33FC 0005 FFFF 9224      move.w     [0xFFFF9224], 0x5
000047C0  4EAD 0292                jsr        [A5 + 0x292 /* export_78, CODE:2 @ 0000181A */]
000047C4  4EAD 02B2                jsr        [A5 + 0x2B2 /* export_82, CODE:2 @ 00000A98 */]
000047C8  2F3C FFFF AAD2           move.l     -[A7], 0xFFFFAAD2
000047CE  4EAD 0232                jsr        [A5 + 0x232 /* export_66, CODE:2 @ 00004F14 */]
000047D2  2EB9 FFFF 7D46           move.l     [A7], [0xFFFF7D46]
000047D8  2F3C 0013 0001           move.l     -[A7], 0x130001
000047DE  A944                     syscall    SetItmMark
000047E0  2F39 FFFF 7D46           move.l     -[A7], [0xFFFF7D46]
000047E6  2F3C 0013 0001           move.l     -[A7], 0x130001
000047EC  A944                     syscall    SetItmMark
000047EE  2F39 FFFF 7D42           move.l     -[A7], [0xFFFF7D42]
000047F4  3F3C 0008                move.w     -[A7], 0x8
000047F8  A93A                     syscall    DisableItem
000047FA  2F39 FFFF 7D42           move.l     -[A7], [0xFFFF7D42]
00004800  3F3C 000A                move.w     -[A7], 0xA /* '\n' */
00004804  A93A                     syscall    DisableItem
00004806  2F39 FFFF 7D42           move.l     -[A7], [0xFFFF7D42]
0000480C  3F3C 0009                move.w     -[A7], 0x9 /* '\t' */
00004810  A93A                     syscall    DisableItem
00004812  2F39 FFFF 7D42           move.l     -[A7], [0xFFFF7D42]
00004818  3F3C 000B                move.w     -[A7], 0xB
0000481C  A93A                     syscall    DisableItem
0000481E  41ED 0102                lea.l      A0, [A5 + 0x102 /* export_28, CODE:4 @ 00000A16 */]
00004822  23C8 FFFF 919A           move.l     [0xFFFF919A], A0
00004828  41ED 0082                lea.l      A0, [A5 + 0x82 /* export_12, CODE:4 @ 0000226C */]
0000482C  23C8 FFFF 919E           move.l     [0xFFFF919E], A0
00004832  41ED 00A2                lea.l      A0, [A5 + 0xA2 /* export_16, CODE:4 @ 0000649E */]
00004836  23C8 FFFF 91A6           move.l     [0xFFFF91A6], A0
0000483C  41ED 02C2                lea.l      A0, [A5 + 0x2C2 /* export_84, CODE:2 @ 00000B3A */]
00004840  23C8 FFFF 91AA           move.l     [0xFFFF91AA], A0
00004846  41ED 008A                lea.l      A0, [A5 + 0x8A /* export_13, CODE:4 @ 00002BDC */]
0000484A  23C8 FFFF 91AE           move.l     [0xFFFF91AE], A0
00004850  41ED 0112                lea.l      A0, [A5 + 0x112 /* export_30, CODE:4 @ 00000FF2 */]
00004854  23C8 FFFF 91B6           move.l     [0xFFFF91B6], A0
0000485A  41ED 007A                lea.l      A0, [A5 + 0x7A /* export_11, CODE:4 @ 0000226A */]
0000485E  23C8 FFFF 91BA           move.l     [0xFFFF91BA], A0
00004864  41ED 00AA                lea.l      A0, [A5 + 0xAA /* export_17, CODE:4 @ 00006C80 */]
00004868  23C8 FFFF 91C2           move.l     [0xFFFF91C2], A0
0000486E  41ED 031A                lea.l      A0, [A5 + 0x31A /* export_95, CODE:3 @ 00001860 */]
00004872  23C8 FFFF 91C6           move.l     [0xFFFF91C6], A0
00004878  41ED 0092                lea.l      A0, [A5 + 0x92 /* export_14, CODE:4 @ 00003500 */]
0000487C  23C8 FFFF 91CA           move.l     [0xFFFF91CA], A0
00004882  4EAD 02CA                jsr        [A5 + 0x2CA /* export_85, CODE:2 @ 00000EBE */]
00004886  42B9 FFFF 7D7E           clr.l      [0xFFFF7D7E]
0000488C  33FC 0004 FFFF 7E2A      move.w     [0xFFFF7E2A], 0x4
00004894  2F3C FFFF 7E2C           move.l     -[A7], 0xFFFF7E2C
0000489A  42A7                     clr.l      -[A7]
0000489C  2F3C 0020 0020           move.l     -[A7], 0x200020 /* ' \0 ' */
000048A2  A8A7                     syscall    SetRect
000048A4  2079 FFFF FACC           movea.l    A0, [0xFFFFFACC]
000048AA  43EE FFF2                lea.l      A1, [A6 - 0xE]
000048AE  5488                     addq.l     A0, 2
000048B0  22D8                     move.l     [A1]+, [A0]+
000048B2  22D8                     move.l     [A1]+, [A0]+
000048B4  22D8                     move.l     [A1]+, [A0]+
000048B6  32D8                     move.w     [A1]+, [A0]+
000048B8  3D7C 0006 FFEA           move.w     [A6 - 0x16], 0x6
000048BE  3D7C 001A FFEE           move.w     [A6 - 0x12], 0x1A
000048C4  3D7C 0006 FFEC           move.w     [A6 - 0x14], 0x6
000048CA  3D7C 001A FFF0           move.w     [A6 - 0x10], 0x1A
000048D0  3D7C 0004 FFE2           move.w     [A6 - 0x1E], 0x4
000048D6  3D7C 001C FFE6           move.w     [A6 - 0x1A], 0x1C
000048DC  3D7C 0004 FFE4           move.w     [A6 - 0x1C], 0x4
000048E2  3D7C 001C FFE8           move.w     [A6 - 0x18], 0x1C
000048E8  42A7                     clr.l      -[A7]
000048EA  A8CB                     syscall    OpenPoly
000048EC  285F                     movea.l    A4, [A7]+
000048EE  2F3C 0007 000B           move.l     -[A7], 0x7000B
000048F4  A893                     syscall    MoveTo
000048F6  2F3C 0007 0015           move.l     -[A7], 0x70015
000048FC  A891                     syscall    LineTo
000048FE  2F3C 0010 001A           move.l     -[A7], 0x10001A
00004904  A891                     syscall    LineTo
00004906  2F3C 0019 0015           move.l     -[A7], 0x190015
0000490C  A891                     syscall    LineTo
0000490E  2F3C 0019 000B           move.l     -[A7], 0x19000B
00004914  A891                     syscall    LineTo
00004916  2F3C 0010 0006           move.l     -[A7], 0x100006
0000491C  A891                     syscall    LineTo
0000491E  2F3C 0007 000B           move.l     -[A7], 0x7000B
00004924  A891                     syscall    LineTo
00004926  A8CC                     syscall    ClosePoly/ClosePgon
00004928  42A7                     clr.l      -[A7]
0000492A  A8CB                     syscall    OpenPoly
0000492C  265F                     movea.l    A3, [A7]+
0000492E  2F3C 0005 000A           move.l     -[A7], 0x5000A
00004934  A893                     syscall    MoveTo
00004936  2F3C 0005 0016           move.l     -[A7], 0x50016
0000493C  A891                     syscall    LineTo
0000493E  2F3C 0010 001C           move.l     -[A7], 0x10001C
00004944  A891                     syscall    LineTo
00004946  2F3C 001B 0016           move.l     -[A7], 0x1B0016
0000494C  A891                     syscall    LineTo
0000494E  2F3C 001B 000A           move.l     -[A7], 0x1B000A
00004954  A891                     syscall    LineTo
00004956  2F3C 0010 0004           move.l     -[A7], 0x100004
0000495C  A891                     syscall    LineTo
0000495E  2F3C 0005 000A           move.l     -[A7], 0x5000A
00004964  A891                     syscall    LineTo
00004966  A8CC                     syscall    ClosePoly/ClosePgon
00004968  7A00                     moveq.l    D5, 0x00
0000496A  7C00                     moveq.l    D6, 0x00
0000496C  6000 00EA                bra        +0xEC /* 00004A58 */
label00004970:
00004970  7800                     moveq.l    D4, 0x00
00004972  2E06                     move.l     D7, D6
00004974  2004                     move.l     D0, D4
00004976  48C0                     ext.l      D0
00004978  E788                     lsl        D0, 3
0000497A  0680 FFFF 7E34           addi.l     D0, 0xFFFF7E34
00004980  2440                     movea.l    A2, D0
00004982  6000 00C8                bra        +0xCA /* 00004A4C */
label00004986:
00004986  203C 0000 0080           move.l     D0, 0x80
0000498C  A11E                     syscall    NewPtr, flags=1
0000498E  2588 7800                move.l     [A2 + D7], A0
00004992  23F2 7800 FFFF 7E26      move.l     [0xFFFF7E26], [A2 + D7]
0000499A  2F3C FFFF 7E26           move.l     -[A7], 0xFFFF7E26
000049A0  A875                     syscall    SetPBits/SetPortBits
000049A2  2F3C FFFF 7E2C           move.l     -[A7], 0xFFFF7E2C
000049A8  A8A3                     syscall    EraseRect
000049AA  3004                     move.w     D0, D4
000049AC  6716                     beq        +0x18 /* 000049C4 */
000049AE  6B60                     bmi        +0x62 /* 00004A10 */
000049B0  5940                     subq.w     D0, 4
000049B2  6750                     beq        +0x52 /* 00004A04 */
000049B4  6A08                     bpl        +0xA /* 000049BE */
000049B6  5440                     addq.w     D0, 2
000049B8  6732                     beq        +0x34 /* 000049EC */
000049BA  6A40                     bpl        +0x42 /* 000049FC */
000049BC  601A                     bra        +0x1C /* 000049D8 */
label000049BE:
000049BE  5540                     subq.w     D0, 2
000049C0  6A4E                     bpl        +0x50 /* 00004A10 */
000049C2  6048                     bra        +0x4A /* 00004A0C */
label000049C4:
000049C4  486E FFEA                pea.l      [A6 - 0x16]
000049C8  2F3C FFFF FABC           move.l     -[A7], 0xFFFFFABC
000049CE  A8BB                     syscall    FillOval
000049D0  486E FFEA                pea.l      [A6 - 0x16]
000049D4  A8B7                     syscall    FrameOval
000049D6  6038                     bra        +0x3A /* 00004A10 */
label000049D8:
000049D8  486E FFEA                pea.l      [A6 - 0x16]
000049DC  2F3C FFFF FABC           move.l     -[A7], 0xFFFFFABC
000049E2  A8A5                     syscall    FillRect
000049E4  486E FFEA                pea.l      [A6 - 0x16]
000049E8  A8A1                     syscall    FrameRect
000049EA  6024                     bra        +0x26 /* 00004A10 */
label000049EC:
000049EC  2F0C                     move.l     -[A7], A4
000049EE  2F3C FFFF FABC           move.l     -[A7], 0xFFFFFABC
000049F4  A8CA                     syscall    FillPoly
000049F6  2F0C                     move.l     -[A7], A4
000049F8  A8C6                     syscall    FramePoly
000049FA  6014                     bra        +0x16 /* 00004A10 */
label000049FC:
000049FC  486E FFEA                pea.l      [A6 - 0x16]
00004A00  A8B7                     syscall    FrameOval
00004A02  600C                     bra        +0xE /* 00004A10 */
label00004A04:
00004A04  486E FFEA                pea.l      [A6 - 0x16]
00004A08  A8A1                     syscall    FrameRect
00004A0A  6004                     bra        +0x6 /* 00004A10 */
label00004A0C:
00004A0C  2F0C                     move.l     -[A7], A4
00004A0E  A8C6                     syscall    FramePoly
label00004A10:
00004A10  4A45                     tst.w      D5
00004A12  672E                     beq        +0x30 /* 00004A42 */
00004A14  3004                     move.w     D0, D4
00004A16  6716                     beq        +0x18 /* 00004A2E */
00004A18  6B28                     bmi        +0x2A /* 00004A42 */
00004A1A  5940                     subq.w     D0, 4
00004A1C  6718                     beq        +0x1A /* 00004A36 */
00004A1E  6A08                     bpl        +0xA /* 00004A28 */
00004A20  5440                     addq.w     D0, 2
00004A22  671A                     beq        +0x1C /* 00004A3E */
00004A24  6A08                     bpl        +0xA /* 00004A2E */
00004A26  600E                     bra        +0x10 /* 00004A36 */
label00004A28:
00004A28  5540                     subq.w     D0, 2
00004A2A  6A16                     bpl        +0x18 /* 00004A42 */
00004A2C  6010                     bra        +0x12 /* 00004A3E */
label00004A2E:
00004A2E  486E FFE2                pea.l      [A6 - 0x1E]
00004A32  A8B7                     syscall    FrameOval
00004A34  600C                     bra        +0xE /* 00004A42 */
label00004A36:
00004A36  486E FFE2                pea.l      [A6 - 0x1E]
00004A3A  A8A1                     syscall    FrameRect
00004A3C  6004                     bra        +0x6 /* 00004A42 */
label00004A3E:
00004A3E  2F0B                     move.l     -[A7], A3
00004A40  A8C6                     syscall    FramePoly
label00004A42:
00004A42  486E FFF2                pea.l      [A6 - 0xE]
00004A46  A875                     syscall    SetPBits/SetPortBits
00004A48  5244                     addq.w     D4, 1
00004A4A  508A                     addq.l     A2, 8
label00004A4C:
00004A4C  0C44 0006                cmpi.w     D4, 0x6
00004A50  6D00 FF34                blt        -0xCA /* 00004986 */
00004A54  5245                     addq.w     D5, 1
00004A56  5886                     addq.l     D6, 4
label00004A58:
00004A58  0C45 0002                cmpi.w     D5, 0x2
00004A5C  6D00 FF12                blt        -0xEC /* 00004970 */
00004A60  2F0C                     move.l     -[A7], A4
00004A62  A8CD                     syscall    KillPoly
00004A64  2F0B                     move.l     -[A7], A3
00004A66  A8CD                     syscall    KillPoly
00004A68  7800                     moveq.l    D4, 0x00
00004A6A  287C FFFF 7E64           movea.l    A4, 0xFFFF7E64
00004A70  6000 00BA                bra        +0xBC /* 00004B2C */
label00004A74:
00004A74  42A7                     clr.l      -[A7]
00004A76  A8D8                     syscall    NewRgn
00004A78  289F                     move.l     [A4], [A7]+
00004A7A  A8DA                     syscall    OpenRgn
00004A7C  42A7                     clr.l      -[A7]
00004A7E  A893                     syscall    MoveTo
00004A80  3004                     move.w     D0, D4
00004A82  0C40 0007                cmpi.w     D0, 0x7
00004A86  6200 0098                bhi        +0x9A /* 00004B20 */
00004A8A  43FA 03AA                lea.l      A1, [PC + 0x3AA /* 00004E36, value 0xFC60FC70 */]
00004A8E  D040                     add.w      D0, D0
00004A90  D2F1 0000                add.w      A1, [A1 + D0.w]
00004A94  4ED1                     jmp        [A1]
00004A96  4878 0011                push.l     0x11
00004A9A  A891                     syscall    LineTo
00004A9C  2F3C 0011 0011           move.l     -[A7], 0x110011
00004AA2  A891                     syscall    LineTo
00004AA4  607A                     bra        +0x7C /* 00004B20 */
00004AA6  2F3C 0011 0000           move.l     -[A7], 0x110000
00004AAC  A891                     syscall    LineTo
00004AAE  2F3C 0011 0011           move.l     -[A7], 0x110011
00004AB4  A891                     syscall    LineTo
00004AB6  6068                     bra        +0x6A /* 00004B20 */
00004AB8  2F3C 0011 0000           move.l     -[A7], 0x110000
00004ABE  A891                     syscall    LineTo
00004AC0  2F3C 0011 FFEF           move.l     -[A7], 0x11FFEF
00004AC6  A891                     syscall    LineTo
00004AC8  6056                     bra        +0x58 /* 00004B20 */
00004ACA  2F3C 0000 FFEF           move.l     -[A7], 0xFFEF
00004AD0  A891                     syscall    LineTo
00004AD2  2F3C 0011 FFEF           move.l     -[A7], 0x11FFEF
00004AD8  A891                     syscall    LineTo
00004ADA  6044                     bra        +0x46 /* 00004B20 */
00004ADC  2F3C 0000 FFEF           move.l     -[A7], 0xFFEF
00004AE2  A891                     syscall    LineTo
00004AE4  2F3C FFEF FFEF           move.l     -[A7], 0xFFEFFFEF
00004AEA  A891                     syscall    LineTo
00004AEC  6032                     bra        +0x34 /* 00004B20 */
00004AEE  2F3C FFEF 0000           move.l     -[A7], 0xFFEF0000
00004AF4  A891                     syscall    LineTo
00004AF6  2F3C FFEF FFEF           move.l     -[A7], 0xFFEFFFEF
00004AFC  A891                     syscall    LineTo
00004AFE  6020                     bra        +0x22 /* 00004B20 */
00004B00  2F3C FFEF 0000           move.l     -[A7], 0xFFEF0000
00004B06  A891                     syscall    LineTo
00004B08  2F3C FFEF 0011           move.l     -[A7], 0xFFEF0011
00004B0E  A891                     syscall    LineTo
00004B10  600E                     bra        +0x10 /* 00004B20 */
00004B12  4878 0011                push.l     0x11
00004B16  A891                     syscall    LineTo
00004B18  2F3C FFEF 0011           move.l     -[A7], 0xFFEF0011
00004B1E  A891                     syscall    LineTo
label00004B20:
00004B20  42A7                     clr.l      -[A7]
00004B22  A891                     syscall    LineTo
00004B24  2F14                     move.l     -[A7], [A4]
00004B26  A8DB                     syscall    CloseRgn
00004B28  5244                     addq.w     D4, 1
00004B2A  588C                     addq.l     A4, 4
label00004B2C:
00004B2C  0C44 0008                cmpi.w     D4, 0x8
00004B30  6D00 FF42                blt        -0xBC /* 00004A74 */
00004B34  426E FFEA                clr.w      [A6 - 0x16]
00004B38  3D7C 0005 FFEE           move.w     [A6 - 0x12], 0x5
00004B3E  426E FFEC                clr.w      [A6 - 0x14]
00004B42  3D7C 0005 FFF0           move.w     [A6 - 0x10], 0x5
00004B48  700A                     moveq.l    D0, 0x0A
00004B4A  A11E                     syscall    NewPtr, flags=1
00004B4C  23C8 FFFF 7D7E           move.l     [0xFFFF7D7E], A0
00004B52  33FC 0002 FFFF 7D82      move.w     [0xFFFF7D82], 0x2
00004B5A  41F9 FFFF 7D84           lea.l      A0, [0xFFFF7D84]
00004B60  20EE FFEA                move.l     [A0]+, [A6 - 0x16]
00004B64  20EE FFEE                move.l     [A0]+, [A6 - 0x12]
00004B68  2F3C FFFF 7D7E           move.l     -[A7], 0xFFFF7D7E
00004B6E  A875                     syscall    SetPBits/SetPortBits
00004B70  486E FFEA                pea.l      [A6 - 0x16]
00004B74  A8A3                     syscall    EraseRect
00004B76  486E FFEA                pea.l      [A6 - 0x16]
00004B7A  A8B8                     syscall    PaintOval
00004B7C  3D7C 0008 FFEE           move.w     [A6 - 0x12], 0x8
00004B82  3D7C 0008 FFF0           move.w     [A6 - 0x10], 0x8
00004B88  7010                     moveq.l    D0, 0x10
00004B8A  A11E                     syscall    NewPtr, flags=1
00004B8C  23C8 FFFF 7D8C           move.l     [0xFFFF7D8C], A0
00004B92  33FC 0002 FFFF 7D90      move.w     [0xFFFF7D90], 0x2
00004B9A  41F9 FFFF 7D92           lea.l      A0, [0xFFFF7D92]
00004BA0  20EE FFEA                move.l     [A0]+, [A6 - 0x16]
00004BA4  20EE FFEE                move.l     [A0]+, [A6 - 0x12]
00004BA8  2F3C FFFF 7D8C           move.l     -[A7], 0xFFFF7D8C
00004BAE  A875                     syscall    SetPBits/SetPortBits
00004BB0  486E FFEA                pea.l      [A6 - 0x16]
00004BB4  A8A3                     syscall    EraseRect
00004BB6  2F3C FFFF FAB4           move.l     -[A7], 0xFFFFFAB4
00004BBC  A89D                     syscall    PenPat
00004BBE  486E FFEA                pea.l      [A6 - 0x16]
00004BC2  A8B8                     syscall    PaintOval
00004BC4  2F3C FFFF FABC           move.l     -[A7], 0xFFFFFABC
00004BCA  A89D                     syscall    PenPat
00004BCC  486E FFEA                pea.l      [A6 - 0x16]
00004BD0  A8B7                     syscall    FrameOval
00004BD2  2F3C 0003 0003           move.l     -[A7], 0x30003
00004BD8  A893                     syscall    MoveTo
00004BDA  2F3C 0004 0003           move.l     -[A7], 0x40003
00004BE0  A891                     syscall    LineTo
00004BE2  2F3C 0004 0004           move.l     -[A7], 0x40004
00004BE8  A891                     syscall    LineTo
00004BEA  2F3C 0003 0004           move.l     -[A7], 0x30004
00004BF0  A891                     syscall    LineTo
00004BF2  7010                     moveq.l    D0, 0x10
00004BF4  A11E                     syscall    NewPtr, flags=1
00004BF6  23C8 FFFF 7DA8           move.l     [0xFFFF7DA8], A0
00004BFC  41F9 FFFF 7DAE           lea.l      A0, [0xFFFF7DAE]
00004C02  20EE FFEA                move.l     [A0]+, [A6 - 0x16]
00004C06  20EE FFEE                move.l     [A0]+, [A6 - 0x12]
00004C0A  33FC 0002 FFFF 7DAC      move.w     [0xFFFF7DAC], 0x2
00004C12  2F3C FFFF 7DA8           move.l     -[A7], 0xFFFF7DA8
00004C18  A875                     syscall    SetPBits/SetPortBits
00004C1A  486E FFEA                pea.l      [A6 - 0x16]
00004C1E  A8A3                     syscall    EraseRect
00004C20  486E FFEA                pea.l      [A6 - 0x16]
00004C24  A8B7                     syscall    FrameOval
00004C26  7010                     moveq.l    D0, 0x10
00004C28  A11E                     syscall    NewPtr, flags=1
00004C2A  23C8 FFFF 7D9A           move.l     [0xFFFF7D9A], A0
00004C30  41F9 FFFF 7DA0           lea.l      A0, [0xFFFF7DA0]
00004C36  20EE FFEA                move.l     [A0]+, [A6 - 0x16]
00004C3A  20EE FFEE                move.l     [A0]+, [A6 - 0x12]
00004C3E  33FC 0002 FFFF 7D9E      move.w     [0xFFFF7D9E], 0x2
00004C46  2F3C FFFF 7D9A           move.l     -[A7], 0xFFFF7D9A
00004C4C  A875                     syscall    SetPBits/SetPortBits
00004C4E  486E FFEA                pea.l      [A6 - 0x16]
00004C52  A8A3                     syscall    EraseRect
00004C54  486E FFEA                pea.l      [A6 - 0x16]
00004C58  A8B7                     syscall    FrameOval
00004C5A  486E FFEA                pea.l      [A6 - 0x16]
00004C5E  2F3C 0002 0002           move.l     -[A7], 0x20002
00004C64  A8A9                     syscall    InsetRect
00004C66  486E FFEA                pea.l      [A6 - 0x16]
00004C6A  A8B8                     syscall    PaintOval
00004C6C  426E FFEA                clr.w      [A6 - 0x16]
00004C70  426E FFEC                clr.w      [A6 - 0x14]
00004C74  3D7C 0007 FFEE           move.w     [A6 - 0x12], 0x7
00004C7A  3D7C 0007 FFF0           move.w     [A6 - 0x10], 0x7
00004C80  7800                     moveq.l    D4, 0x00
00004C82  267C FFFF 7DB6           movea.l    A3, 0xFFFF7DB6
00004C88  6000 0186                bra        +0x188 /* 00004E10 */
label00004C8C:
00004C8C  700E                     moveq.l    D0, 0x0E
00004C8E  A11E                     syscall    NewPtr, flags=1
00004C90  2688                     move.l     [A3], A0
00004C92  276E FFEA 0006           move.l     [A3 + 0x6], [A6 - 0x16]
00004C98  276E FFEE 000A           move.l     [A3 + 0xA], [A6 - 0x12]
00004C9E  377C 0002 0004           move.w     [A3 + 0x4], 0x2
00004CA4  2F0B                     move.l     -[A7], A3
00004CA6  A875                     syscall    SetPBits/SetPortBits
00004CA8  486E FFEA                pea.l      [A6 - 0x16]
00004CAC  A8A3                     syscall    EraseRect
00004CAE  42A7                     clr.l      -[A7]
00004CB0  A8CB                     syscall    OpenPoly
00004CB2  285F                     movea.l    A4, [A7]+
00004CB4  3004                     move.w     D0, D4
00004CB6  0C40 0007                cmpi.w     D0, 0x7
00004CBA  6200 0144                bhi        +0x146 /* 00004E00 */
00004CBE  43FA 0166                lea.l      A1, [PC + 0x166 /* 00004E26, value 0xFEA4FECC */]
00004CC2  D040                     add.w      D0, D0
00004CC4  D2F1 0000                add.w      A1, [A1 + D0.w]
00004CC8  4ED1                     jmp        [A1]
00004CCA  2F3C 0003 0006           move.l     -[A7], 0x30006
00004CD0  A893                     syscall    MoveTo
00004CD2  42A7                     clr.l      -[A7]
00004CD4  A891                     syscall    LineTo
00004CD6  2F3C 0003 0003           move.l     -[A7], 0x30003
00004CDC  A891                     syscall    LineTo
00004CDE  2F3C 0006 0000           move.l     -[A7], 0x60000
00004CE4  A891                     syscall    LineTo
00004CE6  2F3C 0003 0006           move.l     -[A7], 0x30006
00004CEC  A891                     syscall    LineTo
00004CEE  6000 0110                bra        +0x112 /* 00004E00 */
00004CF2  4878 0006                push.l     0x6
00004CF6  A893                     syscall    MoveTo
00004CF8  2F3C 0003 0000           move.l     -[A7], 0x30000
00004CFE  A891                     syscall    LineTo
00004D00  2F3C 0003 0003           move.l     -[A7], 0x30003
00004D06  A891                     syscall    LineTo
00004D08  2F3C 0006 0003           move.l     -[A7], 0x60003
00004D0E  A891                     syscall    LineTo
00004D10  4878 0006                push.l     0x6
00004D14  A891                     syscall    LineTo
00004D16  6000 00E8                bra        +0xEA /* 00004E00 */
00004D1A  4878 0003                push.l     0x3
00004D1E  A893                     syscall    MoveTo
00004D20  2F3C 0006 0000           move.l     -[A7], 0x60000
00004D26  A891                     syscall    LineTo
00004D28  2F3C 0003 0003           move.l     -[A7], 0x30003
00004D2E  A891                     syscall    LineTo
00004D30  2F3C 0006 0006           move.l     -[A7], 0x60006
00004D36  A891                     syscall    LineTo
00004D38  4878 0003                push.l     0x3
00004D3C  A891                     syscall    LineTo
00004D3E  6000 00C0                bra        +0xC2 /* 00004E00 */
00004D42  42A7                     clr.l      -[A7]
00004D44  A893                     syscall    MoveTo
00004D46  2F3C 0006 0003           move.l     -[A7], 0x60003
00004D4C  A891                     syscall    LineTo
00004D4E  2F3C 0003 0003           move.l     -[A7], 0x30003
00004D54  A891                     syscall    LineTo
00004D56  2F3C 0003 0006           move.l     -[A7], 0x30006
00004D5C  A891                     syscall    LineTo
00004D5E  42A7                     clr.l      -[A7]
00004D60  A891                     syscall    LineTo
00004D62  6000 009C                bra        +0x9E /* 00004E00 */
00004D66  2F3C 0003 0000           move.l     -[A7], 0x30000
00004D6C  A893                     syscall    MoveTo
00004D6E  2F3C 0006 0006           move.l     -[A7], 0x60006
00004D74  A891                     syscall    LineTo
00004D76  2F3C 0003 0003           move.l     -[A7], 0x30003
00004D7C  A891                     syscall    LineTo
00004D7E  4878 0006                push.l     0x6
00004D82  A891                     syscall    LineTo
00004D84  2F3C 0003 0000           move.l     -[A7], 0x30000
00004D8A  A891                     syscall    LineTo
00004D8C  6072                     bra        +0x74 /* 00004E00 */
00004D8E  2F3C 0006 0000           move.l     -[A7], 0x60000
00004D94  A893                     syscall    MoveTo
00004D96  2F3C 0003 0006           move.l     -[A7], 0x30006
00004D9C  A891                     syscall    LineTo
00004D9E  2F3C 0003 0003           move.l     -[A7], 0x30003
00004DA4  A891                     syscall    LineTo
00004DA6  4878 0003                push.l     0x3
00004DAA  A891                     syscall    LineTo
00004DAC  2F3C 0006 0000           move.l     -[A7], 0x60000
00004DB2  A891                     syscall    LineTo
00004DB4  604A                     bra        +0x4C /* 00004E00 */
00004DB6  2F3C 0006 0003           move.l     -[A7], 0x60003
00004DBC  A893                     syscall    MoveTo
00004DBE  4878 0006                push.l     0x6
00004DC2  A891                     syscall    LineTo
00004DC4  2F3C 0003 0003           move.l     -[A7], 0x30003
00004DCA  A891                     syscall    LineTo
00004DCC  42A7                     clr.l      -[A7]
00004DCE  A891                     syscall    LineTo
00004DD0  2F3C 0006 0003           move.l     -[A7], 0x60003
00004DD6  A891                     syscall    LineTo
00004DD8  6026                     bra        +0x28 /* 00004E00 */
00004DDA  2F3C 0006 0006           move.l     -[A7], 0x60006
00004DE0  A893                     syscall    MoveTo
00004DE2  4878 0003                push.l     0x3
00004DE6  A891                     syscall    LineTo
00004DE8  2F3C 0003 0003           move.l     -[A7], 0x30003
00004DEE  A891                     syscall    LineTo
00004DF0  2F3C 0003 0000           move.l     -[A7], 0x30000
00004DF6  A891                     syscall    LineTo
00004DF8  2F3C 0006 0006           move.l     -[A7], 0x60006
00004DFE  A891                     syscall    LineTo
label00004E00:
00004E00  A8CC                     syscall    ClosePoly/ClosePgon
00004E02  2F0C                     move.l     -[A7], A4
00004E04  A8C7                     syscall    PaintPoly
00004E06  2F0C                     move.l     -[A7], A4
00004E08  A8CD                     syscall    KillPoly
00004E0A  5244                     addq.w     D4, 1
00004E0C  47EB 000E                lea.l      A3, [A3 + 0xE]
label00004E10:
00004E10  0C44 0008                cmpi.w     D4, 0x8
00004E14  6D00 FE76                blt        -0x188 /* 00004C8C */
00004E18  486E FFF2                pea.l      [A6 - 0xE]
00004E1C  A875                     syscall    SetPBits/SetPortBits
00004E1E  4CDF 1CF0                movem.l    D4,D5,D6,D7,A2,A3,A4, [A7]+
00004E22  4E5E                     unlink     A6
00004E24  4E75                     rts
00004E26  FEA4 FECC                .extension 0xEA4 <<F/2-3/7>> // unimplemented
00004E2A  FEF4 FF1C                .extension 0xEF4 <<F/2-3/7>> // unimplemented
00004E2E  FF40                     .extension 0xF40 <<F/4-5/7>> // unimplemented
00004E30  FF68                     .extension 0xF68 <<F/4-5/7>> // unimplemented
00004E32  FF90                     .invalid   <<F/6/7>>
00004E34  FFB4                     .invalid   <<F/6/7>>
00004E36  FC60 FC70                .extension 0xC60 <<F/1/6>>, 0xFC70 // unimplemented
00004E3A  FC82 FC94                .extension 0xC82 <<F/2-3/6>> // unimplemented
00004E3E  FCA6 FCB8                .extension 0xCA6 <<F/2-3/6>> // unimplemented
00004E42  FCCA FCDC                .extension 0xCCA <<F/2-3/6>> // unimplemented
fn00004E46:
00004E46  4E56 FFE6                link       A6, -0x001A
00004E4A  48E7 0108                movem.l    -[A7], D7,A4
00004E4E  42A7                     clr.l      -[A7]
00004E50  3F3C 03E8                move.w     -[A7], 0x3E8
00004E54  42A7                     clr.l      -[A7]
00004E56  4878 FFFF                push.l     0xFFFF
00004E5A  A97C                     syscall    GetNewDialog
00004E5C  23DF FFFF 7D6E           move.l     [0xFFFF7D6E], [A7]+
00004E62  2F39 FFFF 7D6E           move.l     -[A7], [0xFFFF7D6E]
00004E68  A981                     syscall    DrawDialog
00004E6A  2F39 FFFF 7D6E           move.l     -[A7], [0xFFFF7D6E]
00004E70  A873                     syscall    SetPort
00004E72  4EAD 0212                jsr        [A5 + 0x212 /* export_62, CODE:2 @ 00004CF6 */]
00004E76  7E00                     moveq.l    D7, 0x00
00004E78  287C FFFF 7E84           movea.l    A4, 0xFFFF7E84
00004E7E  6000 0080                bra        +0x82 /* 00004F00 */
label00004E82:
00004E82  705A                     moveq.l    D0, 0x5A
00004E84  9047                     sub.w      D0, D7
00004E86  3D40 FFE6                move.w     [A6 - 0x1A], D0
00004E8A  486E FFE6                pea.l      [A6 - 0x1A]
00004E8E  486E FFE8                pea.l      [A6 - 0x18]
00004E92  3F3C 200E                move.w     -[A7], 0x200E
00004E96  A9EB                     syscall    Pack4/FP68K
00004E98  487A 0094                pea.l      [PC + 0x94 /* 00004F2E, value 0x3FF98EFA */]
00004E9C  486E FFE8                pea.l      [A6 - 0x18]
00004EA0  3F3C 0004                move.w     -[A7], 0x4
00004EA4  A9EB                     syscall    Pack4/FP68K
00004EA6  41EE FFF2                lea.l      A0, [A6 - 0xE]
00004EAA  3F20                     move.w     -[A7], -[A0]
00004EAC  2F20                     move.l     -[A7], -[A0]
00004EAE  2F20                     move.l     -[A7], -[A0]
00004EB0  3F17                     move.w     -[A7], [A7]
00004EB2  486E FFF2                pea.l      [A6 - 0xE]
00004EB6  4EAD 0382                jsr        [A5 + 0x382 /* export_108, CODE:7 @ 000034E8 */]
00004EBA  41D4                     lea.l      A0, [A4]
00004EBC  43EE FFF2                lea.l      A1, [A6 - 0xE]
00004EC0  20D9                     move.l     [A0]+, [A1]+
00004EC2  20D9                     move.l     [A0]+, [A1]+
00004EC4  20D9                     move.l     [A0]+, [A1]+
00004EC6  7001                     moveq.l    D0, 0x01
00004EC8  D047                     add.w      D0, D7
00004ECA  C1FC 000C                muls.w     D0, 0xC
00004ECE  2040                     movea.l    A0, D0
00004ED0  D1FC FFFF 7E84           add.l      A0, 0xFFFF7E84
00004ED6  43D4                     lea.l      A1, [A4]
00004ED8  20D9                     move.l     [A0]+, [A1]+
00004EDA  20D9                     move.l     [A0]+, [A1]+
00004EDC  20D9                     move.l     [A0]+, [A1]+
00004EDE  7002                     moveq.l    D0, 0x02
00004EE0  D047                     add.w      D0, D7
00004EE2  C1FC 000C                muls.w     D0, 0xC
00004EE6  2040                     movea.l    A0, D0
00004EE8  D1FC FFFF 7E84           add.l      A0, 0xFFFF7E84
00004EEE  43D4                     lea.l      A1, [A4]
00004EF0  20D9                     move.l     [A0]+, [A1]+
00004EF2  20D9                     move.l     [A0]+, [A1]+
00004EF4  20D9                     move.l     [A0]+, [A1]+
00004EF6  4FEF 0010                lea.l      A7, [A7 + 0x10]
00004EFA  5647                     addq.w     D7, 3
00004EFC  49EC 0024                lea.l      A4, [A4 + 0x24]
label00004F00:
00004F00  0C47 0168                cmpi.w     D7, 0x168
00004F04  6D00 FF7C                blt        -0x82 /* 00004E82 */
label00004F08:
00004F08  42A7                     clr.l      -[A7]
00004F0A  486E FFFE                pea.l      [A6 - 0x2]
00004F0E  A991                     syscall    ModalDialog
00004F10  4A6E FFFE                tst.w      [A6 - 0x2]
00004F14  67F2                     beq        -0xC /* 00004F08 */
00004F16  2F39 FFFF 7D56           move.l     -[A7], [0xFFFF7D56]
00004F1C  A873                     syscall    SetPort
00004F1E  2F39 FFFF 7D6E           move.l     -[A7], [0xFFFF7D6E]
00004F24  A983                     syscall    DisposeDialog
00004F26  4CDF 1080                movem.l    D7,A4, [A7]+
00004F2A  4E5E                     unlink     A6
00004F2C  4E75                     rts
00004F2E  3FF9 8EFA 3512           move.w     <<invalid special address>>, [0x8EFA3512]
00004F34  96E8 87BB                sub.w      A3, [A0 - 0x7845]
export_18:
fn00004F38:
00004F38  4E56 FFF8                link       A6, -0x0008
00004F3C  2F3C 0002 0002           move.l     -[A7], 0x20002
00004F42  A89B                     syscall    PenSize
00004F44  2F3C 012C 012C           move.l     -[A7], 0x12C012C
00004F4A  A893                     syscall    MoveTo
00004F4C  2F3C 00FA 012C           move.l     -[A7], 0xFA012C
00004F52  A891                     syscall    LineTo
00004F54  2F3C 00FA 01F4           move.l     -[A7], 0xFA01F4
00004F5A  A891                     syscall    LineTo
00004F5C  4267                     clr.w      -[A7]
00004F5E  A887                     syscall    TextFont
00004F60  3F3C 000C                move.w     -[A7], 0xC
00004F64  A88A                     syscall    TextSize
00004F66  2F3C 00FA 012C           move.l     -[A7], 0xFA012C
00004F6C  A893                     syscall    MoveTo
00004F6E  4878 012C                push.l     0x12C
00004F72  A891                     syscall    LineTo
00004F74  4267                     clr.w      -[A7]
00004F76  2F3C FFFF 8F64           move.l     -[A7], 0xFFFF8F64
00004F7C  A88C                     syscall    StringWidth
00004F7E  301F                     move.w     D0, [A7]+
00004F80  48C0                     ext.l      D0
00004F82  81FC 0002                divs.w     D0, 0x2
00004F86  323C 0190                move.w     D1, 0x190
00004F8A  9240                     sub.w      D1, D0
00004F8C  3F01                     move.w     -[A7], D1
00004F8E  3F3C 000F                move.w     -[A7], 0xF
00004F92  A893                     syscall    MoveTo
00004F94  3F3C 0005                move.w     -[A7], 0x5
00004F98  A888                     syscall    TextFace
00004F9A  2F3C FFFF 8F64           move.l     -[A7], 0xFFFF8F64
00004FA0  A884                     syscall    DrawString
00004FA2  4267                     clr.w      -[A7]
00004FA4  A888                     syscall    TextFace
00004FA6  2F3C 0001 0001           move.l     -[A7], 0x10001
00004FAC  A89B                     syscall    PenSize
00004FAE  0C79 0006 FFFF 9228      cmpi.w     [0xFFFF9228], 0x6
00004FB6  6700 0094                beq        +0x96 /* 0000504C */
00004FBA  303C 03C2                move.w     D0, 0x3C2
00004FBE  C1F9 FFFF 9228           muls.w     D0, [0xFFFF9228]
00004FC4  2040                     movea.l    A0, D0
00004FC6  D1FC FFFF 9766           add.l      A0, 0xFFFF9766
00004FCC  4A90                     tst.l      [A0]
00004FCE  6730                     beq        +0x32 /* 00005000 */
00004FD0  303C 03C2                move.w     D0, 0x3C2
00004FD4  C1F9 FFFF 9228           muls.w     D0, [0xFFFF9228]
00004FDA  2040                     movea.l    A0, D0
00004FDC  D1FC FFFF 9790           add.l      A0, 0xFFFF9790
00004FE2  3F10                     move.w     -[A7], [A0]
00004FE4  42A7                     clr.l      -[A7]
00004FE6  2F3C 005A 0000           move.l     -[A7], 0x5A0000 /* 'Z\0\0' */
00004FEC  2F3C 0141 010E           move.l     -[A7], 0x141010E
00004FF2  3F3C FFFE                move.w     -[A7], 0xFFFE
00004FF6  4EAD 0252                jsr        [A5 + 0x252 /* export_70, CODE:2 @ 0000506A */]
00004FFA  4FEF 0010                lea.l      A7, [A7 + 0x10]
00004FFE  602E                     bra        +0x30 /* 0000502E */
label00005000:
00005000  303C 03C2                move.w     D0, 0x3C2
00005004  C1F9 FFFF 9228           muls.w     D0, [0xFFFF9228]
0000500A  2040                     movea.l    A0, D0
0000500C  D1FC FFFF 9790           add.l      A0, 0xFFFF9790
00005012  3F10                     move.w     -[A7], [A0]
00005014  42A7                     clr.l      -[A7]
00005016  2F3C 005A 0000           move.l     -[A7], 0x5A0000 /* 'Z\0\0' */
0000501C  2F3C 0141 010E           move.l     -[A7], 0x141010E
00005022  3F3C FFFF                move.w     -[A7], 0xFFFF
00005026  4EAD 0252                jsr        [A5 + 0x252 /* export_70, CODE:2 @ 0000506A */]
0000502A  4FEF 0010                lea.l      A7, [A7 + 0x10]
label0000502E:
0000502E  2F3C 0128 0131           move.l     -[A7], 0x1280131
00005034  A893                     syscall    MoveTo
00005036  303C 03C2                move.w     D0, 0x3C2
0000503A  C1F9 FFFF 9228           muls.w     D0, [0xFFFF9228]
00005040  0680 FFFF 955E           addi.l     D0, 0xFFFF955E
00005046  2F00                     move.l     -[A7], D0
00005048  A884                     syscall    DrawString
0000504A  6030                     bra        +0x32 /* 0000507C */
label0000504C:
0000504C  2F3C 0109 0131           move.l     -[A7], 0x1090131
00005052  A893                     syscall    MoveTo
00005054  2F3C FFFF AAD4           move.l     -[A7], 0xFFFFAAD4
0000505A  A884                     syscall    DrawString
0000505C  2F3C 0118 0131           move.l     -[A7], 0x1180131
00005062  A893                     syscall    MoveTo
00005064  2F3C FFFF AADC           move.l     -[A7], 0xFFFFAADC
0000506A  A884                     syscall    DrawString
0000506C  2F3C 0127 0131           move.l     -[A7], 0x1270131
00005072  A893                     syscall    MoveTo
00005074  2F3C FFFF AAE4           move.l     -[A7], 0xFFFFAAE4
0000507A  A884                     syscall    DrawString
label0000507C:
0000507C  3F3C 0004                move.w     -[A7], 0x4
00005080  A887                     syscall    TextFont
00005082  3F3C 0009                move.w     -[A7], 0x9 /* '\t' */
00005086  A88A                     syscall    TextSize
00005088  2F39 FFFF 7D56           move.l     -[A7], [0xFFFF7D56]
0000508E  A969                     syscall    DrawControls
00005090  4E5E                     unlink     A6
00005092  4E75                     rts
fn00005094:
00005094  4E56 FFFC                link       A6, -0x0004
00005098  2F07                     move.l     -[A7], D7
0000509A  2F3C FFFF 7D64           move.l     -[A7], 0xFFFF7D64
000050A0  A871                     syscall    GlobalToLocal
000050A2  4267                     clr.w      -[A7]
000050A4  2F39 FFFF 7D64           move.l     -[A7], [0xFFFF7D64]
000050AA  2F39 FFFF 7D56           move.l     -[A7], [0xFFFF7D56]
000050B0  486E FFFC                pea.l      [A6 - 0x4]
000050B4  A96C                     syscall    FindControl
000050B6  3E1F                     move.w     D7, [A7]+
000050B8  6700 01E2                beq        +0x1E4 /* 0000529C */
000050BC  202E FFFC                move.l     D0, [A6 - 0x4]
000050C0  B0B9 FFFF 9078           cmp.l      D0, [0xFFFF9078]
000050C6  6636                     bne        +0x38 /* 000050FE */
000050C8  4267                     clr.w      -[A7]
000050CA  2F2E FFFC                move.l     -[A7], [A6 - 0x4]
000050CE  2F39 FFFF 7D64           move.l     -[A7], [0xFFFF7D64]
000050D4  42A7                     clr.l      -[A7]
000050D6  A968                     syscall    TrackControl
000050D8  4A5F                     tst.w      [A7]+
000050DA  6700 01C0                beq        +0x1C2 /* 0000529C */
000050DE  4A79 FFFF 922C           tst.w      [0xFFFF922C]
000050E4  6710                     beq        +0x12 /* 000050F6 */
000050E6  4279 FFFF 922C           clr.w      [0xFFFF922C]
000050EC  4279 FFFF 922E           clr.w      [0xFFFF922E]
000050F2  6000 01A8                bra        +0x1AA /* 0000529C */
label000050F6:
000050F6  4EAD 02F2                jsr        [A5 + 0x2F2 /* export_90, CODE:2 @ 00001090 */]
000050FA  6000 01A0                bra        +0x1A2 /* 0000529C */
label000050FE:
000050FE  202E FFFC                move.l     D0, [A6 - 0x4]
00005102  B0B9 FFFF 9068           cmp.l      D0, [0xFFFF9068]
00005108  664E                     bne        +0x50 /* 00005158 */
0000510A  4267                     clr.w      -[A7]
0000510C  2F2E FFFC                move.l     -[A7], [A6 - 0x4]
00005110  2F39 FFFF 7D64           move.l     -[A7], [0xFFFF7D64]
00005116  42A7                     clr.l      -[A7]
00005118  A968                     syscall    TrackControl
0000511A  4A5F                     tst.w      [A7]+
0000511C  6700 017E                beq        +0x180 /* 0000529C */
00005120  4279 FFFF 923C           clr.w      [0xFFFF923C]
00005126  2F39 FFFF 9068           move.l     -[A7], [0xFFFF9068]
0000512C  3F3C 00FF                move.w     -[A7], 0xFF
00005130  A95D                     syscall    HiliteControl
00005132  2F39 FFFF 906C           move.l     -[A7], [0xFFFF906C]
00005138  4267                     clr.w      -[A7]
0000513A  A95D                     syscall    HiliteControl
0000513C  2F39 FFFF 9070           move.l     -[A7], [0xFFFF9070]
00005142  3F3C 00FF                move.w     -[A7], 0xFF
00005146  A95D                     syscall    HiliteControl
00005148  2F39 FFFF 9074           move.l     -[A7], [0xFFFF9074]
0000514E  3F3C 00FF                move.w     -[A7], 0xFF
00005152  A95D                     syscall    HiliteControl
00005154  6000 0146                bra        +0x148 /* 0000529C */
label00005158:
00005158  202E FFFC                move.l     D0, [A6 - 0x4]
0000515C  B0B9 FFFF 906C           cmp.l      D0, [0xFFFF906C]
00005162  664C                     bne        +0x4E /* 000051B0 */
00005164  4267                     clr.w      -[A7]
00005166  2F2E FFFC                move.l     -[A7], [A6 - 0x4]
0000516A  2F39 FFFF 7D64           move.l     -[A7], [0xFFFF7D64]
00005170  42A7                     clr.l      -[A7]
00005172  A968                     syscall    TrackControl
00005174  4A5F                     tst.w      [A7]+
00005176  6700 0124                beq        +0x126 /* 0000529C */
0000517A  33FC 0001 FFFF 923C      move.w     [0xFFFF923C], 0x1
00005182  2F39 FFFF 9068           move.l     -[A7], [0xFFFF9068]
00005188  4267                     clr.w      -[A7]
0000518A  A95D                     syscall    HiliteControl
0000518C  2F39 FFFF 906C           move.l     -[A7], [0xFFFF906C]
00005192  3F3C 00FF                move.w     -[A7], 0xFF
00005196  A95D                     syscall    HiliteControl
00005198  2F39 FFFF 9070           move.l     -[A7], [0xFFFF9070]
0000519E  4267                     clr.w      -[A7]
000051A0  A95D                     syscall    HiliteControl
000051A2  2F39 FFFF 9074           move.l     -[A7], [0xFFFF9074]
000051A8  4267                     clr.w      -[A7]
000051AA  A95D                     syscall    HiliteControl
000051AC  6000 00EE                bra        +0xF0 /* 0000529C */
label000051B0:
000051B0  202E FFFC                move.l     D0, [A6 - 0x4]
000051B4  B0B9 FFFF 9074           cmp.l      D0, [0xFFFF9074]
000051BA  6622                     bne        +0x24 /* 000051DE */
000051BC  4267                     clr.w      -[A7]
000051BE  2F2E FFFC                move.l     -[A7], [A6 - 0x4]
000051C2  2F39 FFFF 7D64           move.l     -[A7], [0xFFFF7D64]
000051C8  42A7                     clr.l      -[A7]
000051CA  A968                     syscall    TrackControl
000051CC  4A5F                     tst.w      [A7]+
000051CE  6700 00CC                beq        +0xCE /* 0000529C */
000051D2  33FC 0001 FFFF 9240      move.w     [0xFFFF9240], 0x1
000051DA  6000 00C0                bra        +0xC2 /* 0000529C */
label000051DE:
000051DE  202E FFFC                move.l     D0, [A6 - 0x4]
000051E2  B0B9 FFFF 9070           cmp.l      D0, [0xFFFF9070]
000051E8  6622                     bne        +0x24 /* 0000520C */
000051EA  4267                     clr.w      -[A7]
000051EC  2F2E FFFC                move.l     -[A7], [A6 - 0x4]
000051F0  2F39 FFFF 7D64           move.l     -[A7], [0xFFFF7D64]
000051F6  42A7                     clr.l      -[A7]
000051F8  A968                     syscall    TrackControl
000051FA  4A5F                     tst.w      [A7]+
000051FC  6700 009E                beq        +0xA0 /* 0000529C */
00005200  33FC 0001 FFFF 923E      move.w     [0xFFFF923E], 0x1
00005208  6000 0092                bra        +0x94 /* 0000529C */
label0000520C:
0000520C  202E FFFC                move.l     D0, [A6 - 0x4]
00005210  B0B9 FFFF 9064           cmp.l      D0, [0xFFFF9064]
00005216  6634                     bne        +0x36 /* 0000524C */
00005218  0C47 0081                cmpi.w     D7, 0x81
0000521C  6618                     bne        +0x1A /* 00005236 */
0000521E  4267                     clr.w      -[A7]
00005220  2F2E FFFC                move.l     -[A7], [A6 - 0x4]
00005224  2F39 FFFF 7D64           move.l     -[A7], [0xFFFF7D64]
0000522A  42A7                     clr.l      -[A7]
0000522C  A968                     syscall    TrackControl
0000522E  4EBA BC5E                jsr        [PC - 0x43A2 /* 00000E8E */]
00005232  548F                     addq.l     A7, 2
00005234  6066                     bra        +0x68 /* 0000529C */
label00005236:
00005236  4267                     clr.w      -[A7]
00005238  2F2E FFFC                move.l     -[A7], [A6 - 0x4]
0000523C  2F39 FFFF 7D64           move.l     -[A7], [0xFFFF7D64]
00005242  486D 010A                pea.l      [A5 + 0x10A /* export_29, CODE:4 @ 00000ED2 */]
00005246  A968                     syscall    TrackControl
00005248  548F                     addq.l     A7, 2
0000524A  6050                     bra        +0x52 /* 0000529C */
label0000524C:
0000524C  206E FFFC                movea.l    A0, [A6 - 0x4]
00005250  2050                     movea.l    A0, [A0]
00005252  2E28 0024                move.l     D7, [A0 + 0x24]
00005256  0C87 4242 4242           cmpi.l     D7, 0x42424242 /* 'BBBB' */
0000525C  662C                     bne        +0x2E /* 0000528A */
0000525E  0C79 0002 FFFF 9224      cmpi.w     [0xFFFF9224], 0x2
00005266  660C                     bne        +0xE /* 00005274 */
00005268  2F2E FFFC                move.l     -[A7], [A6 - 0x4]
0000526C  4EBA D2FA                jsr        [PC - 0x2D06 /* 00002568 */]
00005270  588F                     addq.l     A7, 4
00005272  6028                     bra        +0x2A /* 0000529C */
label00005274:
00005274  0C79 0004 FFFF 9224      cmpi.w     [0xFFFF9224], 0x4
0000527C  661E                     bne        +0x20 /* 0000529C */
0000527E  2F2E FFFC                move.l     -[A7], [A6 - 0x4]
00005282  4EBA 19A6                jsr        [PC + 0x19A6 /* 00006C2A */]
00005286  588F                     addq.l     A7, 4
00005288  6012                     bra        +0x14 /* 0000529C */
label0000528A:
0000528A  0C87 2424 2424           cmpi.l     D7, 0x24242424 /* '$$$$' */
00005290  660A                     bne        +0xC /* 0000529C */
00005292  2F2E FFFC                move.l     -[A7], [A6 - 0x4]
00005296  4EBA D498                jsr        [PC - 0x2B68 /* 00002730 */]
0000529A  588F                     addq.l     A7, 4
label0000529C:
0000529C  2F3C FFFF 7D64           move.l     -[A7], 0xFFFF7D64
000052A2  A870                     syscall    LocalToGlobal
000052A4  2E1F                     move.l     D7, [A7]+
000052A6  4E5E                     unlink     A6
000052A8  4E75                     rts
fn000052AA:
000052AA  3039 FFFF 9224           move.w     D0, [0xFFFF9224]
000052B0  0C40 0006                cmpi.w     D0, 0x6
000052B4  6250                     bhi        +0x52 /* 00005306 */
000052B6  43FA 0050                lea.l      A1, [PC + 0x50 /* 00005308, value 0xFFFEFFBA */]
000052BA  D040                     add.w      D0, D0
000052BC  D2F1 0000                add.w      A1, [A1 + D0.w]
000052C0  4ED1                     jmp        [A1]
000052C2  2F39 FFFF 7D46           move.l     -[A7], [0xFFFF7D46]
000052C8  4878 0003                push.l     0x3
000052CC  A944                     syscall    SetItmMark
000052CE  6036                     bra        +0x38 /* 00005306 */
000052D0  2F39 FFFF 7D46           move.l     -[A7], [0xFFFF7D46]
000052D6  4878 0004                push.l     0x4
000052DA  A944                     syscall    SetItmMark
000052DC  6028                     bra        +0x2A /* 00005306 */
000052DE  2F39 FFFF 7D46           move.l     -[A7], [0xFFFF7D46]
000052E4  4878 0005                push.l     0x5
000052E8  A944                     syscall    SetItmMark
000052EA  601A                     bra        +0x1C /* 00005306 */
000052EC  2F39 FFFF 7D46           move.l     -[A7], [0xFFFF7D46]
000052F2  4878 0006                push.l     0x6
000052F6  A944                     syscall    SetItmMark
000052F8  600C                     bra        +0xE /* 00005306 */
000052FA  2F39 FFFF 7D46           move.l     -[A7], [0xFFFF7D46]
00005300  4878 0001                push.l     0x1
00005304  A944                     syscall    SetItmMark
label00005306:
00005306  4E75                     rts
00005308  FFFE                     .invalid   <<F/7/7>>
0000530A  FFBA                     .invalid   <<F/6/7>>
0000530C  FFC8                     .invalid   <<F/7/7>>
0000530E  FFFE                     .invalid   <<F/7/7>>
00005310  FFE4                     .invalid   <<F/7/7>>
00005312  FFF2                     .invalid   <<F/7/7>>
00005314  FFD6                     .invalid   <<F/7/7>>
fn00005316:
00005316  0C79 0005 FFFF 9224      cmpi.w     [0xFFFF9224], 0x5
0000531E  6612                     bne        +0x14 /* 00005332 */
00005320  4EAD 02BA                jsr        [A5 + 0x2BA /* export_83, CODE:2 @ 00000AE0 */]
00005324  2F39 FFFF 7D4A           move.l     -[A7], [0xFFFF7D4A]
0000532A  4267                     clr.w      -[A7]
0000532C  A93A                     syscall    DisableItem
0000532E  A937                     syscall    DrawMenuBar
00005330  6062                     bra        +0x64 /* 00005394 */
label00005332:
00005332  0C79 0002 FFFF 9224      cmpi.w     [0xFFFF9224], 0x2
0000533A  6606                     bne        +0x8 /* 00005342 */
0000533C  4EBA CEAE                jsr        [PC - 0x3152 /* 000021EC */]
00005340  6052                     bra        +0x54 /* 00005394 */
label00005342:
00005342  0C79 0006 FFFF 9224      cmpi.w     [0xFFFF9224], 0x6
0000534A  6606                     bne        +0x8 /* 00005352 */
0000534C  4EBA E842                jsr        [PC - 0x17BE /* 00003B90 */]
00005350  6042                     bra        +0x44 /* 00005394 */
label00005352:
00005352  0C79 0004 FFFF 9224      cmpi.w     [0xFFFF9224], 0x4
0000535A  6606                     bne        +0x8 /* 00005362 */
0000535C  4EBA 1B98                jsr        [PC + 0x1B98 /* 00006EF6 */]
00005360  6032                     bra        +0x34 /* 00005394 */
label00005362:
00005362  0C79 0001 FFFF 9224      cmpi.w     [0xFFFF9224], 0x1
0000536A  6628                     bne        +0x2A /* 00005394 */
0000536C  4A79 FFFF 9238           tst.w      [0xFFFF9238]
00005372  6704                     beq        +0x6 /* 00005378 */
00005374  4EBA AF24                jsr        [PC - 0x50DC /* 0000029A */]
label00005378:
00005378  2F39 FFFF 7D6A           move.l     -[A7], [0xFFFF7D6A]
0000537E  A9CD                     syscall    TEDispose
00005380  2079 FFFF 9088           movea.l    A0, [0xFFFF9088]
00005386  A023                     syscall    DisposHandle/DisposeHandle
00005388  4A78 0220                tst.w      [0x00000220 /* MemErr */]
0000538C  6706                     beq        +0x8 /* 00005394 */
0000538E  3F3C 0001                move.w     -[A7], 0x1
00005392  A9C8                     syscall    SysBeep
label00005394:
00005394  4EBA FF14                jsr        [PC - 0xEC /* 000052AA */]
00005398  2F39 FFFF 7D42           move.l     -[A7], [0xFFFF7D42]
0000539E  3F3C 0001                move.w     -[A7], 0x1
000053A2  A93A                     syscall    DisableItem
000053A4  2F39 FFFF 7D42           move.l     -[A7], [0xFFFF7D42]
000053AA  3F3C 0003                move.w     -[A7], 0x3
000053AE  A93A                     syscall    DisableItem
000053B0  2F39 FFFF 7D42           move.l     -[A7], [0xFFFF7D42]
000053B6  3F3C 0004                move.w     -[A7], 0x4
000053BA  A93A                     syscall    DisableItem
000053BC  2F39 FFFF 7D42           move.l     -[A7], [0xFFFF7D42]
000053C2  3F3C 0005                move.w     -[A7], 0x5
000053C6  A93A                     syscall    DisableItem
000053C8  2F39 FFFF 7D42           move.l     -[A7], [0xFFFF7D42]
000053CE  3F3C 0006                move.w     -[A7], 0x6
000053D2  A93A                     syscall    DisableItem
000053D4  2F39 FFFF 7D42           move.l     -[A7], [0xFFFF7D42]
000053DA  3F3C 0008                move.w     -[A7], 0x8
000053DE  A93A                     syscall    DisableItem
000053E0  2F39 FFFF 7D42           move.l     -[A7], [0xFFFF7D42]
000053E6  3F3C 000A                move.w     -[A7], 0xA /* '\n' */
000053EA  A93A                     syscall    DisableItem
000053EC  2F39 FFFF 7D42           move.l     -[A7], [0xFFFF7D42]
000053F2  3F3C 0009                move.w     -[A7], 0x9 /* '\t' */
000053F6  A93A                     syscall    DisableItem
000053F8  2F39 FFFF 7D42           move.l     -[A7], [0xFFFF7D42]
000053FE  3F3C 000B                move.w     -[A7], 0xB
00005402  A93A                     syscall    DisableItem
00005404  2F3C FFFF FA60           move.l     -[A7], 0xFFFFFA60
0000540A  A851                     syscall    SetCursor
0000540C  2F39 FFFF 9064           move.l     -[A7], [0xFFFF9064]
00005412  A958                     syscall    HideControl
00005414  2F39 FFFF 9078           move.l     -[A7], [0xFFFF9078]
0000541A  A958                     syscall    HideControl
0000541C  2F39 FFFF 9068           move.l     -[A7], [0xFFFF9068]
00005422  A958                     syscall    HideControl
00005424  2F39 FFFF 906C           move.l     -[A7], [0xFFFF906C]
0000542A  A958                     syscall    HideControl
0000542C  2F39 FFFF 9070           move.l     -[A7], [0xFFFF9070]
00005432  A958                     syscall    HideControl
00005434  2F39 FFFF 9074           move.l     -[A7], [0xFFFF9074]
0000543A  A958                     syscall    HideControl
0000543C  4E75                     rts
export_19:
fn0000543E:
0000543E  4E56 FFF8                link       A6, -0x0008
00005442  48E7 0308                movem.l    -[A7], D6,D7,A4
00005446  3E2E 0008                move.w     D7, [A6 + 0x8]
0000544A  303C 03C2                move.w     D0, 0x3C2
0000544E  C1F9 FFFF 9228           muls.w     D0, [0xFFFF9228]
00005454  2040                     movea.l    A0, D0
00005456  D1FC FFFF 9672           add.l      A0, 0xFFFF9672
0000545C  4A10                     tst.b      [A0]
0000545E  6664                     bne        +0x66 /* 000054C4 */
00005460  0C47 0001                cmpi.w     D7, 0x1
00005464  675E                     beq        +0x60 /* 000054C4 */
00005466  303C 03C2                move.w     D0, 0x3C2
0000546A  C1F9 FFFF 9228           muls.w     D0, [0xFFFF9228]
00005470  0680 FFFF 965E           addi.l     D0, 0xFFFF965E
00005476  2F00                     move.l     -[A7], D0
00005478  4EAD 01E2                jsr        [A5 + 0x1E2 /* export_56, CODE:2 @ 0000436E */]
0000547C  3C00                     move.w     D6, D0
0000547E  4A46                     tst.w      D6
00005480  588F                     addq.l     A7, 4
00005482  672C                     beq        +0x2E /* 000054B0 */
00005484  7C00                     moveq.l    D6, 0x00
00005486  287C FFFF 9442           movea.l    A4, 0xFFFF9442
0000548C  6018                     bra        +0x1A /* 000054A6 */
label0000548E:
0000548E  3F06                     move.w     -[A7], D6
00005490  4EAD 025A                jsr        [A5 + 0x25A /* export_71, CODE:2 @ 00005494 */]
00005494  4A00                     tst.b      D0
00005496  548F                     addq.l     A7, 2
00005498  6706                     beq        +0x8 /* 000054A0 */
0000549A  197C 0001 0230           move.b     [A4 + 0x230], 0x1
label000054A0:
000054A0  5246                     addq.w     D6, 1
000054A2  49EC 03C2                lea.l      A4, [A4 + 0x3C2]
label000054A6:
000054A6  BC79 FFFF 9226           cmp.w      D6, [0xFFFF9226]
000054AC  6DE0                     blt        -0x1E /* 0000548E */
000054AE  6014                     bra        +0x16 /* 000054C4 */
label000054B0:
000054B0  2F3C FFFF AAEE           move.l     -[A7], 0xFFFFAAEE
000054B6  2F3C FFFF AAF0           move.l     -[A7], 0xFFFFAAF0
000054BC  4EAD 0222                jsr        [A5 + 0x222 /* export_64, CODE:2 @ 00004DCE */]
000054C0  6000 0298                bra        +0x29A /* 0000575A */
label000054C4:
000054C4  0C47 0003                cmpi.w     D7, 0x3
000054C8  6600 011A                bne        +0x11C /* 000055E4 */
000054CC  0C79 0001 FFFF 9224      cmpi.w     [0xFFFF9224], 0x1
000054D4  6700 010E                beq        +0x110 /* 000055E4 */
000054D8  4EBA FE3C                jsr        [PC - 0x1C4 /* 00005316 */]
000054DC  4279 FFFF 9238           clr.w      [0xFFFF9238]
000054E2  33FC 0001 FFFF 9224      move.w     [0xFFFF9224], 0x1
000054EA  3D7C 0001 FFF8           move.w     [A6 - 0x8], 0x1
000054F0  3D7C 012A FFFC           move.w     [A6 - 0x4], 0x12A
000054F6  3D7C 0001 FFFA           move.w     [A6 - 0x6], 0x1
000054FC  3D7C 011A FFFE           move.w     [A6 - 0x2], 0x11A
00005502  3F3C 0004                move.w     -[A7], 0x4
00005506  A887                     syscall    TextFont
00005508  3F3C 0009                move.w     -[A7], 0x9 /* '\t' */
0000550C  A88A                     syscall    TextSize
0000550E  42A7                     clr.l      -[A7]
00005510  486E FFF8                pea.l      [A6 - 0x8]
00005514  486E FFF8                pea.l      [A6 - 0x8]
00005518  A9D2                     syscall    TENew
0000551A  23DF FFFF 7D6A           move.l     [0xFFFF7D6A], [A7]+
00005520  4EBA AADE                jsr        [PC - 0x5522 /* 00000000 */]
00005524  1F3C 0001                move.b     -[A7], 0x1
00005528  2F39 FFFF 7D6A           move.l     -[A7], [0xFFFF7D6A]
0000552E  A813                     syscall    TEAutoView
00005530  2F39 FFFF 7D6A           move.l     -[A7], [0xFFFF7D6A]
00005536  A9D8                     syscall    TEActivate
00005538  2079 FFFF 7D56           movea.l    A0, [0xFFFF7D56]
0000553E  4868 0010                pea.l      [A0 + 0x10]
00005542  A928                     syscall    InvalRect
00005544  2F3C FFFF AB0C           move.l     -[A7], 0xFFFFAB0C
0000554A  4EAD 0232                jsr        [A5 + 0x232 /* export_66, CODE:2 @ 00004F14 */]
0000554E  2EB9 FFFF 7D42           move.l     [A7], [0xFFFF7D42]
00005554  3F3C 0001                move.w     -[A7], 0x1
00005558  A939                     syscall    EnableItem
0000555A  2F39 FFFF 7D42           move.l     -[A7], [0xFFFF7D42]
00005560  3F3C 0003                move.w     -[A7], 0x3
00005564  A939                     syscall    EnableItem
00005566  2F39 FFFF 7D42           move.l     -[A7], [0xFFFF7D42]
0000556C  3F3C 0004                move.w     -[A7], 0x4
00005570  A939                     syscall    EnableItem
00005572  2F39 FFFF 7D42           move.l     -[A7], [0xFFFF7D42]
00005578  3F3C 0005                move.w     -[A7], 0x5
0000557C  A939                     syscall    EnableItem
0000557E  2F39 FFFF 7D42           move.l     -[A7], [0xFFFF7D42]
00005584  3F3C 0006                move.w     -[A7], 0x6
00005588  A939                     syscall    EnableItem
0000558A  2F39 FFFF 7D42           move.l     -[A7], [0xFFFF7D42]
00005590  3F3C 0008                move.w     -[A7], 0x8
00005594  A939                     syscall    EnableItem
00005596  2F39 FFFF 7D42           move.l     -[A7], [0xFFFF7D42]
0000559C  3F3C 000A                move.w     -[A7], 0xA /* '\n' */
000055A0  A939                     syscall    EnableItem
000055A2  4A39 FFFF 9242           tst.b      [0xFFFF9242]
000055A8  670C                     beq        +0xE /* 000055B6 */
000055AA  2F39 FFFF 7D42           move.l     -[A7], [0xFFFF7D42]
000055B0  3F3C 0009                move.w     -[A7], 0x9 /* '\t' */
000055B4  A939                     syscall    EnableItem
label000055B6:
000055B6  4A39 FFFF 9342           tst.b      [0xFFFF9342]
000055BC  670C                     beq        +0xE /* 000055CA */
000055BE  2F39 FFFF 7D42           move.l     -[A7], [0xFFFF7D42]
000055C4  3F3C 000B                move.w     -[A7], 0xB
000055C8  A939                     syscall    EnableItem
label000055CA:
000055CA  33FC 0001 FFFF 9222      move.w     [0xFFFF9222], 0x1
000055D2  2F39 FFFF 7D46           move.l     -[A7], [0xFFFF7D46]
000055D8  2F3C 0013 0003           move.l     -[A7], 0x130003
000055DE  A944                     syscall    SetItmMark
000055E0  6000 0178                bra        +0x17A /* 0000575A */
label000055E4:
000055E4  0C47 0004                cmpi.w     D7, 0x4
000055E8  663A                     bne        +0x3C /* 00005624 */
000055EA  0C79 0002 FFFF 9224      cmpi.w     [0xFFFF9224], 0x2
000055F2  6730                     beq        +0x32 /* 00005624 */
000055F4  4EBA FCB4                jsr        [PC - 0x34C /* 000052AA */]
000055F8  4EBA FD1C                jsr        [PC - 0x2E4 /* 00005316 */]
000055FC  33FC 0002 FFFF 9224      move.w     [0xFFFF9224], 0x2
00005604  4EBA CA7A                jsr        [PC - 0x3586 /* 00002080 */]
00005608  2F3C FFFF AB1C           move.l     -[A7], 0xFFFFAB1C
0000560E  4EAD 0232                jsr        [A5 + 0x232 /* export_66, CODE:2 @ 00004F14 */]
00005612  2EB9 FFFF 7D46           move.l     [A7], [0xFFFF7D46]
00005618  2F3C 0013 0004           move.l     -[A7], 0x130004
0000561E  A944                     syscall    SetItmMark
00005620  6000 0138                bra        +0x13A /* 0000575A */
label00005624:
00005624  0C47 0001                cmpi.w     D7, 0x1
00005628  6646                     bne        +0x48 /* 00005670 */
0000562A  0C79 0005 FFFF 9224      cmpi.w     [0xFFFF9224], 0x5
00005632  673C                     beq        +0x3E /* 00005670 */
00005634  4EBA FCE0                jsr        [PC - 0x320 /* 00005316 */]
00005638  33FC 0005 FFFF 9224      move.w     [0xFFFF9224], 0x5
00005640  4EAD 0292                jsr        [A5 + 0x292 /* export_78, CODE:2 @ 0000181A */]
00005644  4EAD 02B2                jsr        [A5 + 0x2B2 /* export_82, CODE:2 @ 00000A98 */]
00005648  2F3C FFFF AB2C           move.l     -[A7], 0xFFFFAB2C
0000564E  4EAD 0232                jsr        [A5 + 0x232 /* export_66, CODE:2 @ 00004F14 */]
00005652  2EB9 FFFF 7D4A           move.l     [A7], [0xFFFF7D4A]
00005658  4267                     clr.w      -[A7]
0000565A  A939                     syscall    EnableItem
0000565C  A937                     syscall    DrawMenuBar
0000565E  2F39 FFFF 7D46           move.l     -[A7], [0xFFFF7D46]
00005664  2F3C 0013 0001           move.l     -[A7], 0x130001
0000566A  A944                     syscall    SetItmMark
0000566C  6000 00EC                bra        +0xEE /* 0000575A */
label00005670:
00005670  0C47 0005                cmpi.w     D7, 0x5
00005674  6670                     bne        +0x72 /* 000056E6 */
00005676  0C79 0006 FFFF 9224      cmpi.w     [0xFFFF9224], 0x6
0000567E  6766                     beq        +0x68 /* 000056E6 */
00005680  4EBA FC94                jsr        [PC - 0x36C /* 00005316 */]
00005684  33FC 0006 FFFF 9224      move.w     [0xFFFF9224], 0x6
0000568C  2F39 FFFF 7D42           move.l     -[A7], [0xFFFF7D42]
00005692  3F3C 0001                move.w     -[A7], 0x1
00005696  A939                     syscall    EnableItem
00005698  2F39 FFFF 7D42           move.l     -[A7], [0xFFFF7D42]
0000569E  3F3C 0003                move.w     -[A7], 0x3
000056A2  A939                     syscall    EnableItem
000056A4  2F39 FFFF 7D42           move.l     -[A7], [0xFFFF7D42]
000056AA  3F3C 0004                move.w     -[A7], 0x4
000056AE  A939                     syscall    EnableItem
000056B0  2F39 FFFF 7D42           move.l     -[A7], [0xFFFF7D42]
000056B6  3F3C 0005                move.w     -[A7], 0x5
000056BA  A939                     syscall    EnableItem
000056BC  2F39 FFFF 7D42           move.l     -[A7], [0xFFFF7D42]
000056C2  3F3C 0006                move.w     -[A7], 0x6
000056C6  A939                     syscall    EnableItem
000056C8  4EBA E460                jsr        [PC - 0x1BA0 /* 00003B2A */]
000056CC  2F3C FFFF AB2E           move.l     -[A7], 0xFFFFAB2E
000056D2  4EAD 0232                jsr        [A5 + 0x232 /* export_66, CODE:2 @ 00004F14 */]
000056D6  2EB9 FFFF 7D46           move.l     [A7], [0xFFFF7D46]
000056DC  2F3C 0013 0005           move.l     -[A7], 0x130005
000056E2  A944                     syscall    SetItmMark
000056E4  6074                     bra        +0x76 /* 0000575A */
label000056E6:
000056E6  0C47 0006                cmpi.w     D7, 0x6
000056EA  666E                     bne        +0x70 /* 0000575A */
000056EC  0C79 0004 FFFF 9224      cmpi.w     [0xFFFF9224], 0x4
000056F4  6764                     beq        +0x66 /* 0000575A */
000056F6  4EBA FC1E                jsr        [PC - 0x3E2 /* 00005316 */]
000056FA  33FC 0004 FFFF 9224      move.w     [0xFFFF9224], 0x4
00005702  2F39 FFFF 7D42           move.l     -[A7], [0xFFFF7D42]
00005708  3F3C 0001                move.w     -[A7], 0x1
0000570C  A939                     syscall    EnableItem
0000570E  2F39 FFFF 7D42           move.l     -[A7], [0xFFFF7D42]
00005714  3F3C 0003                move.w     -[A7], 0x3
00005718  A939                     syscall    EnableItem
0000571A  2F39 FFFF 7D42           move.l     -[A7], [0xFFFF7D42]
00005720  3F3C 0004                move.w     -[A7], 0x4
00005724  A939                     syscall    EnableItem
00005726  2F39 FFFF 7D42           move.l     -[A7], [0xFFFF7D42]
0000572C  3F3C 0005                move.w     -[A7], 0x5
00005730  A939                     syscall    EnableItem
00005732  2F39 FFFF 7D42           move.l     -[A7], [0xFFFF7D42]
00005738  3F3C 0006                move.w     -[A7], 0x6
0000573C  A939                     syscall    EnableItem
0000573E  4EBA 176E                jsr        [PC + 0x176E /* 00006EAE */]
00005742  2F3C FFFF AB3C           move.l     -[A7], 0xFFFFAB3C
00005748  4EAD 0232                jsr        [A5 + 0x232 /* export_66, CODE:2 @ 00004F14 */]
0000574C  2EB9 FFFF 7D46           move.l     [A7], [0xFFFF7D46]
00005752  2F3C 0013 0006           move.l     -[A7], 0x130006
00005758  A944                     syscall    SetItmMark
label0000575A:
0000575A  4CEE 10C0 FFEC           movem.l    D6,D7,A4, [A6 - 0x14]
00005760  4E5E                     unlink     A6
00005762  4E75                     rts
fn00005764:
00005764  4E56 FEF8                link       A6, -0x0108
00005768  48E7 0300                movem.l    -[A7], D6,D7
0000576C  4267                     clr.w      -[A7]
0000576E  2F2E 0008                move.l     -[A7], [A6 + 0x8]
00005772  A86A                     syscall    HiWord
00005774  3E1F                     move.w     D7, [A7]+
00005776  4267                     clr.w      -[A7]
00005778  2F2E 0008                move.l     -[A7], [A6 + 0x8]
0000577C  A86B                     syscall    LoWord
0000577E  3C1F                     move.w     D6, [A7]+
00005780  3007                     move.w     D0, D7
00005782  6B00 0294                bmi        +0x296 /* 00005A18 */
00005786  0440 03E9                subi.w     D0, 0x3E9
0000578A  6774                     beq        +0x76 /* 00005800 */
0000578C  6A1E                     bpl        +0x20 /* 000057AC */
0000578E  0440 FC98                subi.w     D0, 0xFC98
00005792  6700 027C                beq        +0x27E /* 00005A10 */
00005796  6A0A                     bpl        +0xC /* 000057A2 */
00005798  5240                     addq.w     D0, 1
0000579A  6A00 026A                bpl        +0x26C /* 00005A06 */
0000579E  6000 0278                bra        +0x27A /* 00005A18 */
label000057A2:
000057A2  0440 0367                subi.w     D0, 0x367
000057A6  6A18                     bpl        +0x1A /* 000057C0 */
000057A8  6000 026E                bra        +0x270 /* 00005A18 */
label000057AC:
000057AC  5740                     subq.w     D0, 3
000057AE  6700 0212                beq        +0x214 /* 000059C2 */
000057B2  6A00 0264                bpl        +0x266 /* 00005A18 */
000057B6  5240                     addq.w     D0, 1
000057B8  6A00 01D6                bpl        +0x1D8 /* 00005990 */
000057BC  6000 00B0                bra        +0xB2 /* 0000586E */
label000057C0:
000057C0  0C46 0001                cmpi.w     D6, 0x1
000057C4  6608                     bne        +0xA /* 000057CE */
000057C6  4EAD 0312                jsr        [A5 + 0x312 /* export_94, CODE:2 @ 000008EE */]
000057CA  6000 024C                bra        +0x24E /* 00005A18 */
label000057CE:
000057CE  0C46 0002                cmpi.w     D6, 0x2
000057D2  6608                     bne        +0xA /* 000057DC */
000057D4  4EAD 01DA                jsr        [A5 + 0x1DA /* export_55, CODE:2 @ 00003720 */]
000057D8  6000 023E                bra        +0x240 /* 00005A18 */
label000057DC:
000057DC  2F39 FFFF 7D3A           move.l     -[A7], [0xFFFF7D3A]
000057E2  3F06                     move.w     -[A7], D6
000057E4  486E FF00                pea.l      [A6 - 0x100]
000057E8  A946                     syscall    GetMenuItemText/GetItem
000057EA  4267                     clr.w      -[A7]
000057EC  486E FF00                pea.l      [A6 - 0x100]
000057F0  A9B6                     syscall    OpenDeskAcc
000057F2  2F39 FFFF 7D56           move.l     -[A7], [0xFFFF7D56]
000057F8  A873                     syscall    SetPort
000057FA  548F                     addq.l     A7, 2
000057FC  6000 021A                bra        +0x21C /* 00005A18 */
label00005800:
00005800  3006                     move.w     D0, D6
00005802  0C40 000C                cmpi.w     D0, 0xC
00005806  6200 0210                bhi        +0x212 /* 00005A18 */
0000580A  43FA 027C                lea.l      A1, [PC + 0x27C /* 00005A88, value 0xFF90FD8E */]
0000580E  D040                     add.w      D0, D0
00005810  D2F1 0000                add.w      A1, [A1 + D0.w]
00005814  4ED1                     jmp        [A1]
00005816  4EAD 017A                jsr        [A5 + 0x17A /* export_43, CODE:2 @ 000029DC */]
0000581A  6000 01FC                bra        +0x1FE /* 00005A18 */
0000581E  4EAD 0182                jsr        [A5 + 0x182 /* export_44, CODE:2 @ 00002BCE */]
00005822  6000 01F4                bra        +0x1F6 /* 00005A18 */
00005826  4EAD 018A                jsr        [A5 + 0x18A /* export_45, CODE:2 @ 00002C5A */]
0000582A  6000 01EC                bra        +0x1EE /* 00005A18 */
0000582E  4EAD 0192                jsr        [A5 + 0x192 /* export_46, CODE:2 @ 00002DD6 */]
00005832  6000 01E4                bra        +0x1E6 /* 00005A18 */
00005836  4EAD 019A                jsr        [A5 + 0x19A /* export_47, CODE:2 @ 00003224 */]
0000583A  6000 01DC                bra        +0x1DE /* 00005A18 */
0000583E  4EAD 01A2                jsr        [A5 + 0x1A2 /* export_48, CODE:2 @ 000033CE */]
00005842  6000 01D4                bra        +0x1D6 /* 00005A18 */
00005846  4EAD 01AA                jsr        [A5 + 0x1AA /* export_49, CODE:2 @ 000034AC */]
0000584A  6000 01CC                bra        +0x1CE /* 00005A18 */
0000584E  4EAD 020A                jsr        [A5 + 0x20A /* export_61, CODE:2 @ 00004BFE */]
00005852  6000 01C4                bra        +0x1C6 /* 00005A18 */
00005856  33FC 0001 FFFF 922A      move.w     [0xFFFF922A], 0x1
0000585E  4279 FFFF 922C           clr.w      [0xFFFF922C]
00005864  4279 FFFF 922E           clr.w      [0xFFFF922E]
0000586A  6000 01AC                bra        +0x1AE /* 00005A18 */
label0000586E:
0000586E  4227                     clr.b      -[A7]
00005870  70FF                     moveq.l    D0, 0xFFFFFFFF
00005872  D046                     add.w      D0, D6
00005874  3F00                     move.w     -[A7], D0
00005876  A9C2                     syscall    SysEdit
00005878  4A1F                     tst.b      [A7]+
0000587A  6600 00E2                bne        +0xE4 /* 0000595E */
0000587E  0C79 0001 FFFF 9224      cmpi.w     [0xFFFF9224], 0x1
00005886  665C                     bne        +0x5E /* 000058E4 */
00005888  3006                     move.w     D0, D6
0000588A  0C40 000B                cmpi.w     D0, 0xB
0000588E  6200 00CE                bhi        +0xD0 /* 0000595E */
00005892  43FA 01DC                lea.l      A1, [PC + 0x1DC /* 00005A70, value 0xFEEEFE4E */]
00005896  D040                     add.w      D0, D0
00005898  D2F1 0000                add.w      A1, [A1 + D0.w]
0000589C  4ED1                     jmp        [A1]
0000589E  4EBA B838                jsr        [PC - 0x47C8 /* 000010D8 */]
000058A2  6000 00BA                bra        +0xBC /* 0000595E */
000058A6  4EBA B83E                jsr        [PC - 0x47C2 /* 000010E6 */]
000058AA  6000 00B2                bra        +0xB4 /* 0000595E */
000058AE  4EBA B85E                jsr        [PC - 0x47A2 /* 0000110E */]
000058B2  6000 00AA                bra        +0xAC /* 0000595E */
000058B6  4EBA B864                jsr        [PC - 0x479C /* 0000111C */]
000058BA  6000 00A2                bra        +0xA4 /* 0000595E */
000058BE  4EBA B86A                jsr        [PC - 0x4796 /* 0000112A */]
000058C2  6000 009A                bra        +0x9C /* 0000595E */
000058C6  4EBA AF7E                jsr        [PC - 0x5082 /* 00000846 */]
000058CA  6000 0092                bra        +0x94 /* 0000595E */
000058CE  4EBA AE00                jsr        [PC - 0x5200 /* 000006D0 */]
000058D2  6000 008A                bra        +0x8C /* 0000595E */
000058D6  4EBA B066                jsr        [PC - 0x4F9A /* 0000093E */]
000058DA  6000 0082                bra        +0x84 /* 0000595E */
000058DE  4EBA AF5C                jsr        [PC - 0x50A4 /* 0000083C */]
000058E2  607A                     bra        +0x7C /* 0000595E */
label000058E4:
000058E4  0C79 0006 FFFF 9224      cmpi.w     [0xFFFF9224], 0x6
000058EC  6632                     bne        +0x34 /* 00005920 */
000058EE  3006                     move.w     D0, D6
000058F0  0C40 0006                cmpi.w     D0, 0x6
000058F4  6268                     bhi        +0x6A /* 0000595E */
000058F6  43FA 016A                lea.l      A1, [PC + 0x16A /* 00005A62, value 0xFEFCFEB8 */]
000058FA  D040                     add.w      D0, D0
000058FC  D2F1 0000                add.w      A1, [A1 + D0.w]
00005900  4ED1                     jmp        [A1]
00005902  4EBA E6F4                jsr        [PC - 0x190C /* 00003FF8 */]
00005906  6056                     bra        +0x58 /* 0000595E */
00005908  4EBA E56C                jsr        [PC - 0x1A94 /* 00003E76 */]
0000590C  6050                     bra        +0x52 /* 0000595E */
0000590E  4EBA E5B4                jsr        [PC - 0x1A4C /* 00003EC4 */]
00005912  604A                     bra        +0x4C /* 0000595E */
00005914  4EBA E67E                jsr        [PC - 0x1982 /* 00003F94 */]
00005918  6044                     bra        +0x46 /* 0000595E */
0000591A  4EBA E6EA                jsr        [PC - 0x1916 /* 00004006 */]
0000591E  603E                     bra        +0x40 /* 0000595E */
label00005920:
00005920  0C79 0004 FFFF 9224      cmpi.w     [0xFFFF9224], 0x4
00005928  6634                     bne        +0x36 /* 0000595E */
0000592A  3006                     move.w     D0, D6
0000592C  0C40 0006                cmpi.w     D0, 0x6
00005930  622C                     bhi        +0x2E /* 0000595E */
00005932  43FA 0120                lea.l      A1, [PC + 0x120 /* 00005A54, value 0xFF0AFF06 */]
00005936  D040                     add.w      D0, D0
00005938  D2F1 0000                add.w      A1, [A1 + D0.w]
0000593C  4ED1                     jmp        [A1]
0000593E  4EBA 1CD0                jsr        [PC + 0x1CD0 /* 00007610 */]
00005942  601A                     bra        +0x1C /* 0000595E */
00005944  4EBA 1700                jsr        [PC + 0x1700 /* 00007046 */]
00005948  6014                     bra        +0x16 /* 0000595E */
0000594A  42A7                     clr.l      -[A7]
0000594C  4EBA 1810                jsr        [PC + 0x1810 /* 0000715E */]
00005950  588F                     addq.l     A7, 4
00005952  600A                     bra        +0xC /* 0000595E */
00005954  4EBA 1B56                jsr        [PC + 0x1B56 /* 000074AC */]
00005958  6004                     bra        +0x6 /* 0000595E */
0000595A  4EBA 1CBE                jsr        [PC + 0x1CBE /* 0000761A */]
label0000595E:
0000595E  0C79 0001 FFFF 9224      cmpi.w     [0xFFFF9224], 0x1
00005966  6600 00B0                bne        +0xB2 /* 00005A18 */
0000596A  4EBA B5BE                jsr        [PC - 0x4A42 /* 00000F2A */]
0000596E  3D7C 002D FEF8           move.w     [A6 - 0x108], 0x2D /* '-' */
00005974  3D7C 0037 FEFC           move.w     [A6 - 0x104], 0x37 /* '7' */
0000597A  3D7C 01A4 FEFA           move.w     [A6 - 0x106], 0x1A4
00005980  3D7C 01EA FEFE           move.w     [A6 - 0x102], 0x1EA
00005986  486E FEF8                pea.l      [A6 - 0x108]
0000598A  A928                     syscall    InvalRect
0000598C  6000 008A                bra        +0x8C /* 00005A18 */
label00005990:
00005990  3006                     move.w     D0, D6
00005992  0C40 000A                cmpi.w     D0, 0xA /* '\n' */
00005996  6200 0080                bhi        +0x82 /* 00005A18 */
0000599A  43FA 00A2                lea.l      A1, [PC + 0xA2 /* 00005A3E, value 0xFFDAFF68 */]
0000599E  D040                     add.w      D0, D0
000059A0  D2F1 0000                add.w      A1, [A1 + D0.w]
000059A4  4ED1                     jmp        [A1]
000059A6  3F06                     move.w     -[A7], D6
000059A8  4EBA FA94                jsr        [PC - 0x56C /* 0000543E */]
000059AC  548F                     addq.l     A7, 2
000059AE  6068                     bra        +0x6A /* 00005A18 */
000059B0  3F3C FFFF                move.w     -[A7], 0xFFFF
000059B4  4EAD 0372                jsr        [A5 + 0x372 /* export_106, CODE:3 @ 00000140 */]
000059B8  548F                     addq.l     A7, 2
000059BA  605C                     bra        +0x5E /* 00005A18 */
000059BC  4EAD 01EA                jsr        [A5 + 0x1EA /* export_57, CODE:2 @ 000045DE */]
000059C0  6056                     bra        +0x58 /* 00005A18 */
label000059C2:
000059C2  3006                     move.w     D0, D6
000059C4  0C40 000C                cmpi.w     D0, 0xC
000059C8  624E                     bhi        +0x50 /* 00005A18 */
000059CA  43FA 0058                lea.l      A1, [PC + 0x58 /* 00005A24, value 0xFFF4FFB2 */]
000059CE  D040                     add.w      D0, D0
000059D0  D2F1 0000                add.w      A1, [A1 + D0.w]
000059D4  4ED1                     jmp        [A1]
000059D6  4EAD 032A                jsr        [A5 + 0x32A /* export_97, CODE:3 @ 00001CBA */]
000059DA  603C                     bra        +0x3E /* 00005A18 */
000059DC  4EAD 0332                jsr        [A5 + 0x332 /* export_98, CODE:3 @ 00001D18 */]
000059E0  6036                     bra        +0x38 /* 00005A18 */
000059E2  4EAD 033A                jsr        [A5 + 0x33A /* export_99, CODE:3 @ 00001D78 */]
000059E6  6030                     bra        +0x32 /* 00005A18 */
000059E8  4EAD 0342                jsr        [A5 + 0x342 /* export_100, CODE:3 @ 00001DD8 */]
000059EC  602A                     bra        +0x2C /* 00005A18 */
000059EE  4EAD 034A                jsr        [A5 + 0x34A /* export_101, CODE:3 @ 00001E38 */]
000059F2  6024                     bra        +0x26 /* 00005A18 */
000059F4  4EAD 02D2                jsr        [A5 + 0x2D2 /* export_86, CODE:2 @ 00000F1A */]
000059F8  601E                     bra        +0x20 /* 00005A18 */
000059FA  4EAD 02EA                jsr        [A5 + 0x2EA /* export_89, CODE:2 @ 00000FA8 */]
000059FE  6018                     bra        +0x1A /* 00005A18 */
00005A00  4EAD 036A                jsr        [A5 + 0x36A /* export_105, CODE:3 @ 00003028 */]
00005A04  6012                     bra        +0x14 /* 00005A18 */
label00005A06:
00005A06  3F06                     move.w     -[A7], D6
00005A08  4EAD 02DA                jsr        [A5 + 0x2DA /* export_87, CODE:2 @ 00000F40 */]
00005A0C  548F                     addq.l     A7, 2
00005A0E  6008                     bra        +0xA /* 00005A18 */
label00005A10:
00005A10  3F06                     move.w     -[A7], D6
00005A12  4EAD 02E2                jsr        [A5 + 0x2E2 /* export_88, CODE:2 @ 00000F78 */]
00005A16  548F                     addq.l     A7, 2
label00005A18:
00005A18  4267                     clr.w      -[A7]
00005A1A  A938                     syscall    HiliteMenu
00005A1C  4CDF 00C0                movem.l    D6,D7, [A7]+
00005A20  4E5E                     unlink     A6
00005A22  4E75                     rts
00005A24  FFF4                     .invalid   <<F/7/7>>
00005A26  FFB2                     .invalid   <<F/6/7>>
00005A28  FFB8                     .invalid   <<F/6/7>>
00005A2A  FFBE                     .invalid   <<F/6/7>>
00005A2C  FFC4                     .invalid   <<F/7/7>>
00005A2E  FFCA                     .invalid   <<F/7/7>>
00005A30  FFF4                     .invalid   <<F/7/7>>
00005A32  FFD0                     .invalid   <<F/7/7>>
00005A34  FFF4                     .invalid   <<F/7/7>>
00005A36  FFF4                     .invalid   <<F/7/7>>
00005A38  FFD6                     .invalid   <<F/7/7>>
00005A3A  FFF4                     .invalid   <<F/7/7>>
00005A3C  FFDC                     .invalid   <<F/7/7>>
00005A3E  FFDA                     .invalid   <<F/7/7>>
00005A40  FF68                     .extension 0xF68 <<F/4-5/7>> // unimplemented
00005A42  FFDA                     .invalid   <<F/7/7>>
00005A44  FF68                     .extension 0xF68 <<F/4-5/7>> // unimplemented
00005A46  FF68                     .extension 0xF68 <<F/4-5/7>> // unimplemented
00005A48  FF68                     .extension 0xF68 <<F/4-5/7>> // unimplemented
00005A4A  FF68                     .extension 0xF68 <<F/4-5/7>> // unimplemented
00005A4C  FFDA                     .invalid   <<F/7/7>>
00005A4E  FF72                     .extension 0xF72 <<F/4-5/7>> // unimplemented
00005A50  FFDA                     .invalid   <<F/7/7>>
00005A52  FF7E                     .extension 0xF7E <<F/4-5/7>> // unimplemented
00005A54  FF0A                     .extension 0xF0A <<F/4-5/7>> // unimplemented
00005A56  FF06                     .extension 0xF06 <<F/4-5/7>> // unimplemented
00005A58  FF0A                     .extension 0xF0A <<F/4-5/7>> // unimplemented
00005A5A  FEEA FEF0                .extension 0xEEA <<F/2-3/7>> // unimplemented
00005A5E  FEF6 FF00                .extension 0xEF6 <<F/2-3/7>> // unimplemented
00005A62  FEFC FEB8                .extension 0xEFC <<F/2-3/7>> // unimplemented
00005A66  FEFC FEA0                .extension 0xEFC <<F/2-3/7>> // unimplemented
00005A6A  FEA6 FEAC                .extension 0xEA6 <<F/2-3/7>> // unimplemented
00005A6E  FEB2 FEEE                .extension 0xEB2 <<F/2-3/7>> // unimplemented
00005A72  FE4E FEEE                .extension 0xE4E <<F/1/7>>, 0xFEEE // unimplemented
00005A76  FE2E FE36                .unknown   0xFE2E 0xFE36 (W = 7)
00005A7A  FE3E FE46                .unknown   0xFE3E 0xFE46 (W = 7)
00005A7E  FEEE FE56                .extension 0xEEE <<F/2-3/7>> // unimplemented
00005A82  FE5E FE66                .extension 0xE5E <<F/1/7>>, 0xFE66 // unimplemented
00005A86  FE6E FF90                .extension 0xE6E <<F/1/7>>, 0xFF90 // unimplemented
00005A8A  FD8E                     .invalid   <<F/6/6>>
00005A8C  FD96                     .invalid   <<F/6/6>>
00005A8E  FD9E                     .invalid   <<F/6/6>>
00005A90  FDA6                     .invalid   <<F/6/6>>
00005A92  FDAE                     .invalid   <<F/6/6>>
00005A94  FF90                     .invalid   <<F/6/7>>
00005A96  FDB6                     .invalid   <<F/6/6>>
00005A98  FDBE                     .invalid   <<F/6/6>>
00005A9A  FF90                     .invalid   <<F/6/7>>
00005A9C  FDC6                     .invalid   <<F/7/6>>
00005A9E  FF90                     .invalid   <<F/6/7>>
00005AA0  FDCE                     .invalid   <<F/7/6>>
fn00005AA2:
00005AA2  4E56 FFF8                link       A6, -0x0008
00005AA6  3D7C 0004 FFFA           move.w     [A6 - 0x6], 0x4
00005AAC  70FC                     moveq.l    D0, 0xFFFFFFFC
00005AAE  D079 FFFF FA5E           add.w      D0, [0xFFFFFA5E]
00005AB4  3D40 FFFE                move.w     [A6 - 0x2], D0
00005AB8  3D7C 0018 FFF8           move.w     [A6 - 0x8], 0x18
00005ABE  70FC                     moveq.l    D0, 0xFFFFFFFC
00005AC0  D079 FFFF FA5C           add.w      D0, [0xFFFFFA5C]
00005AC6  3D40 FFFC                move.w     [A6 - 0x4], D0
00005ACA  2F2E 0008                move.l     -[A7], [A6 + 0x8]
00005ACE  2F39 FFFF 7D64           move.l     -[A7], [0xFFFF7D64]
00005AD4  486E FFF8                pea.l      [A6 - 0x8]
00005AD8  A925                     syscall    DragWindow
00005ADA  4E5E                     unlink     A6
00005ADC  4E75                     rts
fn00005ADE:
00005ADE  2F39 FFFF 7D3E           move.l     -[A7], [0xFFFF7D3E]
00005AE4  3F3C 0001                move.w     -[A7], 0x1
00005AE8  A93A                     syscall    DisableItem
00005AEA  2F39 FFFF 7D3E           move.l     -[A7], [0xFFFF7D3E]
00005AF0  3F3C 0002                move.w     -[A7], 0x2
00005AF4  A93A                     syscall    DisableItem
00005AF6  2F39 FFFF 7D3E           move.l     -[A7], [0xFFFF7D3E]
00005AFC  3F3C 0003                move.w     -[A7], 0x3
00005B00  A93A                     syscall    DisableItem
00005B02  2F39 FFFF 7D3E           move.l     -[A7], [0xFFFF7D3E]
00005B08  3F3C 0004                move.w     -[A7], 0x4
00005B0C  A93A                     syscall    DisableItem
00005B0E  2F39 FFFF 7D3E           move.l     -[A7], [0xFFFF7D3E]
00005B14  3F3C 0005                move.w     -[A7], 0x5
00005B18  A93A                     syscall    DisableItem
00005B1A  2F39 FFFF 7D46           move.l     -[A7], [0xFFFF7D46]
00005B20  3F3C 0003                move.w     -[A7], 0x3
00005B24  A93A                     syscall    DisableItem
00005B26  2F39 FFFF 7D46           move.l     -[A7], [0xFFFF7D46]
00005B2C  3F3C 0004                move.w     -[A7], 0x4
00005B30  A93A                     syscall    DisableItem
00005B32  2F39 FFFF 7D46           move.l     -[A7], [0xFFFF7D46]
00005B38  3F3C 0005                move.w     -[A7], 0x5
00005B3C  A93A                     syscall    DisableItem
00005B3E  2F39 FFFF 7D46           move.l     -[A7], [0xFFFF7D46]
00005B44  3F3C 0006                move.w     -[A7], 0x6
00005B48  A93A                     syscall    DisableItem
00005B4A  2F39 FFFF 7D46           move.l     -[A7], [0xFFFF7D46]
00005B50  3F3C 0008                move.w     -[A7], 0x8
00005B54  A93A                     syscall    DisableItem
00005B56  2F39 FFFF 7D46           move.l     -[A7], [0xFFFF7D46]
00005B5C  3F3C 000A                move.w     -[A7], 0xA /* '\n' */
00005B60  A93A                     syscall    DisableItem
00005B62  2F39 FFFF 7D4A           move.l     -[A7], [0xFFFF7D4A]
00005B68  3F3C 0001                move.w     -[A7], 0x1
00005B6C  A93A                     syscall    DisableItem
00005B6E  2F39 FFFF 7D4A           move.l     -[A7], [0xFFFF7D4A]
00005B74  3F3C 0002                move.w     -[A7], 0x2
00005B78  A93A                     syscall    DisableItem
00005B7A  2F39 FFFF 7D4A           move.l     -[A7], [0xFFFF7D4A]
00005B80  3F3C 0003                move.w     -[A7], 0x3
00005B84  A93A                     syscall    DisableItem
00005B86  2F39 FFFF 7D4A           move.l     -[A7], [0xFFFF7D4A]
00005B8C  3F3C 0004                move.w     -[A7], 0x4
00005B90  A93A                     syscall    DisableItem
00005B92  2F39 FFFF 7D4A           move.l     -[A7], [0xFFFF7D4A]
00005B98  3F3C 000C                move.w     -[A7], 0xC
00005B9C  A93A                     syscall    DisableItem
00005B9E  3039 FFFF 9228           move.w     D0, [0xFFFF9228]
00005BA4  B079 FFFF 9226           cmp.w      D0, [0xFFFF9226]
00005BAA  6C44                     bge        +0x46 /* 00005BF0 */
00005BAC  4A79 FFFF 922C           tst.w      [0xFFFF922C]
00005BB2  663C                     bne        +0x3E /* 00005BF0 */
00005BB4  2F39 FFFF 7D46           move.l     -[A7], [0xFFFF7D46]
00005BBA  3F3C 0003                move.w     -[A7], 0x3
00005BBE  A939                     syscall    EnableItem
00005BC0  2F39 FFFF 7D46           move.l     -[A7], [0xFFFF7D46]
00005BC6  3F3C 0004                move.w     -[A7], 0x4
00005BCA  A939                     syscall    EnableItem
00005BCC  2F39 FFFF 7D46           move.l     -[A7], [0xFFFF7D46]
00005BD2  3F3C 0005                move.w     -[A7], 0x5
00005BD6  A939                     syscall    EnableItem
00005BD8  2F39 FFFF 7D46           move.l     -[A7], [0xFFFF7D46]
00005BDE  3F3C 0006                move.w     -[A7], 0x6
00005BE2  A939                     syscall    EnableItem
00005BE4  2F39 FFFF 7D46           move.l     -[A7], [0xFFFF7D46]
00005BEA  3F3C 000A                move.w     -[A7], 0xA /* '\n' */
00005BEE  A939                     syscall    EnableItem
label00005BF0:
00005BF0  0C79 0005 FFFF 9224      cmpi.w     [0xFFFF9224], 0x5
00005BF8  6600 00A6                bne        +0xA8 /* 00005CA0 */
00005BFC  4A79 FFFF 922C           tst.w      [0xFFFF922C]
00005C02  6600 009C                bne        +0x9E /* 00005CA0 */
00005C06  2F39 FFFF 7D4A           move.l     -[A7], [0xFFFF7D4A]
00005C0C  3F3C 000C                move.w     -[A7], 0xC
00005C10  A939                     syscall    EnableItem
00005C12  0C79 0006 FFFF 9226      cmpi.w     [0xFFFF9226], 0x6
00005C1A  6C18                     bge        +0x1A /* 00005C34 */
00005C1C  2F39 FFFF 7D3E           move.l     -[A7], [0xFFFF7D3E]
00005C22  3F3C 0001                move.w     -[A7], 0x1
00005C26  A939                     syscall    EnableItem
00005C28  2F39 FFFF 7D3E           move.l     -[A7], [0xFFFF7D3E]
00005C2E  3F3C 0002                move.w     -[A7], 0x2
00005C32  A939                     syscall    EnableItem
label00005C34:
00005C34  3039 FFFF 9228           move.w     D0, [0xFFFF9228]
00005C3A  B079 FFFF 9226           cmp.w      D0, [0xFFFF9226]
00005C40  6C5E                     bge        +0x60 /* 00005CA0 */
00005C42  2F39 FFFF 7D3E           move.l     -[A7], [0xFFFF7D3E]
00005C48  3F3C 0004                move.w     -[A7], 0x4
00005C4C  A939                     syscall    EnableItem
00005C4E  2F39 FFFF 7D3E           move.l     -[A7], [0xFFFF7D3E]
00005C54  3F3C 0005                move.w     -[A7], 0x5
00005C58  A939                     syscall    EnableItem
00005C5A  2F39 FFFF 7D4A           move.l     -[A7], [0xFFFF7D4A]
00005C60  3F3C 0001                move.w     -[A7], 0x1
00005C64  A939                     syscall    EnableItem
00005C66  2F39 FFFF 7D4A           move.l     -[A7], [0xFFFF7D4A]
00005C6C  3F3C 0002                move.w     -[A7], 0x2
00005C70  A939                     syscall    EnableItem
00005C72  2F39 FFFF 7D4A           move.l     -[A7], [0xFFFF7D4A]
00005C78  3F3C 0003                move.w     -[A7], 0x3
00005C7C  A939                     syscall    EnableItem
00005C7E  2F39 FFFF 7D4A           move.l     -[A7], [0xFFFF7D4A]
00005C84  3F3C 0004                move.w     -[A7], 0x4
00005C88  A939                     syscall    EnableItem
00005C8A  0C79 0006 FFFF 9226      cmpi.w     [0xFFFF9226], 0x6
00005C92  6C0C                     bge        +0xE /* 00005CA0 */
00005C94  2F39 FFFF 7D3E           move.l     -[A7], [0xFFFF7D3E]
00005C9A  3F3C 0003                move.w     -[A7], 0x3
00005C9E  A939                     syscall    EnableItem
label00005CA0:
00005CA0  0C79 0001 FFFF 9224      cmpi.w     [0xFFFF9224], 0x1
00005CA8  660C                     bne        +0xE /* 00005CB6 */
00005CAA  2F39 FFFF 7D46           move.l     -[A7], [0xFFFF7D46]
00005CB0  3F3C 0008                move.w     -[A7], 0x8
00005CB4  A939                     syscall    EnableItem
label00005CB6:
00005CB6  4E75                     rts
export_20:
fn00005CB8:
00005CB8  4E56 FFFC                link       A6, -0x0004
00005CBC  4267                     clr.w      -[A7]
00005CBE  2F39 FFFF 7D64           move.l     -[A7], [0xFFFF7D64]
00005CC4  486E FFFC                pea.l      [A6 - 0x4]
00005CC8  A92C                     syscall    FindWindow
00005CCA  301F                     move.w     D0, [A7]+
00005CCC  6772                     beq        +0x74 /* 00005D40 */
00005CCE  6B70                     bmi        +0x72 /* 00005D40 */
00005CD0  5740                     subq.w     D0, 3
00005CD2  6732                     beq        +0x34 /* 00005D06 */
00005CD4  6A06                     bpl        +0x8 /* 00005CDC */
00005CD6  5240                     addq.w     D0, 1
00005CD8  6A1E                     bpl        +0x20 /* 00005CF8 */
00005CDA  6006                     bra        +0x8 /* 00005CE2 */
label00005CDC:
00005CDC  5540                     subq.w     D0, 2
00005CDE  6A60                     bpl        +0x62 /* 00005D40 */
00005CE0  6054                     bra        +0x56 /* 00005D36 */
label00005CE2:
00005CE2  4EBA FDFA                jsr        [PC - 0x206 /* 00005ADE */]
00005CE6  42A7                     clr.l      -[A7]
00005CE8  2F39 FFFF 7D64           move.l     -[A7], [0xFFFF7D64]
00005CEE  A93D                     syscall    MenuSelect
00005CF0  4EBA FA72                jsr        [PC - 0x58E /* 00005764 */]
00005CF4  588F                     addq.l     A7, 4
00005CF6  6048                     bra        +0x4A /* 00005D40 */
label00005CF8:
00005CF8  2F3C FFFF 7D5A           move.l     -[A7], 0xFFFF7D5A
00005CFE  2F2E FFFC                move.l     -[A7], [A6 - 0x4]
00005D02  A9B3                     syscall    SystemClick
00005D04  603A                     bra        +0x3C /* 00005D40 */
label00005D06:
00005D06  42A7                     clr.l      -[A7]
00005D08  A924                     syscall    FrontWindow
00005D0A  202E FFFC                move.l     D0, [A6 - 0x4]
00005D0E  B09F                     cmp.l      D0, [A7]+
00005D10  6708                     beq        +0xA /* 00005D1A */
00005D12  2F2E FFFC                move.l     -[A7], [A6 - 0x4]
00005D16  A91F                     syscall    SelectWindow
00005D18  6026                     bra        +0x28 /* 00005D40 */
label00005D1A:
00005D1A  4EBA F378                jsr        [PC - 0xC88 /* 00005094 */]
00005D1E  3039 FFFF 9224           move.w     D0, [0xFFFF9224]
00005D24  48C0                     ext.l      D0
00005D26  E588                     lsl        D0, 2
00005D28  2040                     movea.l    A0, D0
00005D2A  D1FC FFFF 91B2           add.l      A0, 0xFFFF91B2
00005D30  2050                     movea.l    A0, [A0]
00005D32  4E90                     jsr        [A0]
00005D34  600A                     bra        +0xC /* 00005D40 */
label00005D36:
00005D36  2F2E FFFC                move.l     -[A7], [A6 - 0x4]
00005D3A  4EBA FD66                jsr        [PC - 0x29A /* 00005AA2 */]
00005D3E  588F                     addq.l     A7, 4
label00005D40:
00005D40  4E5E                     unlink     A6
00005D42  4E75                     rts
export_21:
fn00005D44:
00005D44  2F07                     move.l     -[A7], D7
00005D46  7EFF                     moveq.l    D7, 0xFFFFFFFF
00005D48  CE39 FFFF 7D5F           and.b      D7, [0xFFFF7D5F]
00005D4E  0839 0000 FFFF 7D68      btst.b     [0xFFFF7D68], 0x0
00005D56  677C                     beq        +0x7E /* 00005DD4 */
00005D58  1007                     move.b     D0, D7
00005D5A  4880                     ext.w      D0
00005D5C  3F00                     move.w     -[A7], D0
00005D5E  4EAD 04BA                jsr        [A5 + 0x4BA /* export_147, CODE:7 @ 000007BE */]
00005D62  4A40                     tst.w      D0
00005D64  548F                     addq.l     A7, 2
00005D66  670A                     beq        +0xC /* 00005D72 */
00005D68  0C07 0061                cmpi.b     D7, 0x61 /* 'a' */
00005D6C  6C04                     bge        +0x6 /* 00005D72 */
00005D6E  0607 0020                addi.b     D7, 0x20 /* ' ' */
label00005D72:
00005D72  0C07 0062                cmpi.b     D7, 0x62 /* 'b' */
00005D76  6620                     bne        +0x22 /* 00005D98 */
00005D78  0C79 0005 FFFF 9224      cmpi.w     [0xFFFF9224], 0x5
00005D80  6616                     bne        +0x18 /* 00005D98 */
00005D82  4A79 FFFF 922C           tst.w      [0xFFFF922C]
00005D88  660E                     bne        +0x10 /* 00005D98 */
00005D8A  4A79 FFFF 9226           tst.w      [0xFFFF9226]
00005D90  6F06                     ble        +0x8 /* 00005D98 */
00005D92  4EAD 02F2                jsr        [A5 + 0x2F2 /* export_90, CODE:2 @ 00001090 */]
00005D96  6062                     bra        +0x64 /* 00005DFA */
label00005D98:
00005D98  0C07 0068                cmpi.b     D7, 0x68 /* 'h' */
00005D9C  6620                     bne        +0x22 /* 00005DBE */
00005D9E  0C79 0005 FFFF 9224      cmpi.w     [0xFFFF9224], 0x5
00005DA6  6616                     bne        +0x18 /* 00005DBE */
00005DA8  4A79 FFFF 922C           tst.w      [0xFFFF922C]
00005DAE  670E                     beq        +0x10 /* 00005DBE */
00005DB0  4279 FFFF 922C           clr.w      [0xFFFF922C]
00005DB6  4279 FFFF 922E           clr.w      [0xFFFF922E]
00005DBC  603C                     bra        +0x3E /* 00005DFA */
label00005DBE:
00005DBE  4EBA FD1E                jsr        [PC - 0x2E2 /* 00005ADE */]
00005DC2  42A7                     clr.l      -[A7]
00005DC4  1007                     move.b     D0, D7
00005DC6  4880                     ext.w      D0
00005DC8  3F00                     move.w     -[A7], D0
00005DCA  A93E                     syscall    MenuKey
00005DCC  4EBA F996                jsr        [PC - 0x66A /* 00005764 */]
00005DD0  588F                     addq.l     A7, 4
00005DD2  6026                     bra        +0x28 /* 00005DFA */
label00005DD4:
00005DD4  0C79 0001 FFFF 9224      cmpi.w     [0xFFFF9224], 0x1
00005DDC  660A                     bne        +0xC /* 00005DE8 */
00005DDE  1F07                     move.b     -[A7], D7
00005DE0  4EBA B494                jsr        [PC - 0x4B6C /* 00001276 */]
00005DE4  548F                     addq.l     A7, 2
00005DE6  6012                     bra        +0x14 /* 00005DFA */
label00005DE8:
00005DE8  0C79 0005 FFFF 9224      cmpi.w     [0xFFFF9224], 0x5
00005DF0  6608                     bne        +0xA /* 00005DFA */
00005DF2  1F07                     move.b     -[A7], D7
00005DF4  4EAD 0322                jsr        [A5 + 0x322 /* export_96, CODE:3 @ 00001AC6 */]
00005DF8  548F                     addq.l     A7, 2
label00005DFA:
00005DFA  2E1F                     move.l     D7, [A7]+
00005DFC  4E75                     rts
export_22:
fn00005DFE:
00005DFE  0839 0000 FFFF 7D69      btst.b     [0xFFFF7D69], 0x0
00005E06  6700 0194                beq        +0x196 /* 00005F9C */
00005E0A  4EAD 027A                jsr        [A5 + 0x27A /* export_75, CODE:2 @ 0000569E */]
00005E0E  33F9 FFFF 9234 FFFF 9232 move.w     [0xFFFF9232], [0xFFFF9234]
00005E18  0C79 0001 FFFF 9224      cmpi.w     [0xFFFF9224], 0x1
00005E20  6600 0096                bne        +0x98 /* 00005EB8 */
00005E24  2F39 FFFF 7D6A           move.l     -[A7], [0xFFFF7D6A]
00005E2A  A9D8                     syscall    TEActivate
00005E2C  2F39 FFFF 7D42           move.l     -[A7], [0xFFFF7D42]
00005E32  3F3C 0001                move.w     -[A7], 0x1
00005E36  A939                     syscall    EnableItem
00005E38  2F39 FFFF 7D42           move.l     -[A7], [0xFFFF7D42]
00005E3E  3F3C 0003                move.w     -[A7], 0x3
00005E42  A939                     syscall    EnableItem
00005E44  2F39 FFFF 7D42           move.l     -[A7], [0xFFFF7D42]
00005E4A  3F3C 0004                move.w     -[A7], 0x4
00005E4E  A939                     syscall    EnableItem
00005E50  2F39 FFFF 7D42           move.l     -[A7], [0xFFFF7D42]
00005E56  3F3C 0005                move.w     -[A7], 0x5
00005E5A  A939                     syscall    EnableItem
00005E5C  2F39 FFFF 7D42           move.l     -[A7], [0xFFFF7D42]
00005E62  3F3C 0006                move.w     -[A7], 0x6
00005E66  A939                     syscall    EnableItem
00005E68  2F39 FFFF 7D42           move.l     -[A7], [0xFFFF7D42]
00005E6E  3F3C 0008                move.w     -[A7], 0x8
00005E72  A939                     syscall    EnableItem
00005E74  2F39 FFFF 7D42           move.l     -[A7], [0xFFFF7D42]
00005E7A  3F3C 000A                move.w     -[A7], 0xA /* '\n' */
00005E7E  A939                     syscall    EnableItem
00005E80  4A39 FFFF 9242           tst.b      [0xFFFF9242]
00005E86  670C                     beq        +0xE /* 00005E94 */
00005E88  2F39 FFFF 7D42           move.l     -[A7], [0xFFFF7D42]
00005E8E  3F3C 0009                move.w     -[A7], 0x9 /* '\t' */
00005E92  A939                     syscall    EnableItem
label00005E94:
00005E94  4A39 FFFF 9342           tst.b      [0xFFFF9342]
00005E9A  6700 00E6                beq        +0xE8 /* 00005F82 */
00005E9E  4A39 FFFF 9242           tst.b      [0xFFFF9242]
00005EA4  6700 00DC                beq        +0xDE /* 00005F82 */
00005EA8  2F39 FFFF 7D42           move.l     -[A7], [0xFFFF7D42]
00005EAE  3F3C 000B                move.w     -[A7], 0xB
00005EB2  A939                     syscall    EnableItem
00005EB4  6000 00CC                bra        +0xCE /* 00005F82 */
label00005EB8:
00005EB8  0C79 0006 FFFF 9224      cmpi.w     [0xFFFF9224], 0x6
00005EC0  6640                     bne        +0x42 /* 00005F02 */
00005EC2  2F39 FFFF 7D42           move.l     -[A7], [0xFFFF7D42]
00005EC8  3F3C 0001                move.w     -[A7], 0x1
00005ECC  A939                     syscall    EnableItem
00005ECE  2F39 FFFF 7D42           move.l     -[A7], [0xFFFF7D42]
00005ED4  3F3C 0003                move.w     -[A7], 0x3
00005ED8  A939                     syscall    EnableItem
00005EDA  2F39 FFFF 7D42           move.l     -[A7], [0xFFFF7D42]
00005EE0  3F3C 0004                move.w     -[A7], 0x4
00005EE4  A939                     syscall    EnableItem
00005EE6  2F39 FFFF 7D42           move.l     -[A7], [0xFFFF7D42]
00005EEC  3F3C 0005                move.w     -[A7], 0x5
00005EF0  A939                     syscall    EnableItem
00005EF2  2F39 FFFF 7D42           move.l     -[A7], [0xFFFF7D42]
00005EF8  3F3C 0006                move.w     -[A7], 0x6
00005EFC  A939                     syscall    EnableItem
00005EFE  6000 0082                bra        +0x84 /* 00005F82 */
label00005F02:
00005F02  0C79 0004 FFFF 9224      cmpi.w     [0xFFFF9224], 0x4
00005F0A  660A                     bne        +0xC /* 00005F16 */
00005F0C  4EBA 039E                jsr        [PC + 0x39E /* 000062AC */]
00005F10  4EBA 030A                jsr        [PC + 0x30A /* 0000621C */]
00005F14  606C                     bra        +0x6E /* 00005F82 */
label00005F16:
00005F16  2F39 FFFF 7D42           move.l     -[A7], [0xFFFF7D42]
00005F1C  3F3C 0001                move.w     -[A7], 0x1
00005F20  A93A                     syscall    DisableItem
00005F22  2F39 FFFF 7D42           move.l     -[A7], [0xFFFF7D42]
00005F28  3F3C 0003                move.w     -[A7], 0x3
00005F2C  A93A                     syscall    DisableItem
00005F2E  2F39 FFFF 7D42           move.l     -[A7], [0xFFFF7D42]
00005F34  3F3C 0004                move.w     -[A7], 0x4
00005F38  A93A                     syscall    DisableItem
00005F3A  2F39 FFFF 7D42           move.l     -[A7], [0xFFFF7D42]
00005F40  3F3C 0005                move.w     -[A7], 0x5
00005F44  A93A                     syscall    DisableItem
00005F46  2F39 FFFF 7D42           move.l     -[A7], [0xFFFF7D42]
00005F4C  3F3C 0006                move.w     -[A7], 0x6
00005F50  A93A                     syscall    DisableItem
00005F52  2F39 FFFF 7D42           move.l     -[A7], [0xFFFF7D42]
00005F58  3F3C 0008                move.w     -[A7], 0x8
00005F5C  A93A                     syscall    DisableItem
00005F5E  2F39 FFFF 7D42           move.l     -[A7], [0xFFFF7D42]
00005F64  3F3C 000A                move.w     -[A7], 0xA /* '\n' */
00005F68  A93A                     syscall    DisableItem
00005F6A  2F39 FFFF 7D42           move.l     -[A7], [0xFFFF7D42]
00005F70  3F3C 0009                move.w     -[A7], 0x9 /* '\t' */
00005F74  A93A                     syscall    DisableItem
00005F76  2F39 FFFF 7D42           move.l     -[A7], [0xFFFF7D42]
00005F7C  3F3C 000B                move.w     -[A7], 0xB
00005F80  A93A                     syscall    DisableItem
label00005F82:
00005F82  42A7                     clr.l      -[A7]
00005F84  A9FB                     syscall    LoadScrap/LodeScrap
00005F86  4A9F                     tst.l      [A7]+
00005F88  6706                     beq        +0x8 /* 00005F90 */
00005F8A  3F3C 0001                move.w     -[A7], 0x1
00005F8E  A9C8                     syscall    SysBeep
label00005F90:
00005F90  4267                     clr.w      -[A7]
00005F92  4EAD 045A                jsr        [A5 + 0x45A /* export_135, CODE:7 @ 000029C2 */]
00005F96  548F                     addq.l     A7, 2
00005F98  6000 00DC                bra        +0xDE /* 00006076 */
label00005F9C:
00005F9C  4EAD 027A                jsr        [A5 + 0x27A /* export_75, CODE:2 @ 0000569E */]
00005FA0  33F9 FFFF 9232 FFFF 9234 move.w     [0xFFFF9234], [0xFFFF9232]
00005FAA  4279 FFFF 9232           clr.w      [0xFFFF9232]
00005FB0  0C79 0001 FFFF 9224      cmpi.w     [0xFFFF9224], 0x1
00005FB8  6672                     bne        +0x74 /* 0000602C */
00005FBA  2F39 FFFF 7D6A           move.l     -[A7], [0xFFFF7D6A]
00005FC0  A9D9                     syscall    TEDeactivate
00005FC2  2F39 FFFF 7D42           move.l     -[A7], [0xFFFF7D42]
00005FC8  3F3C 0008                move.w     -[A7], 0x8
00005FCC  A93A                     syscall    DisableItem
00005FCE  2F39 FFFF 7D42           move.l     -[A7], [0xFFFF7D42]
00005FD4  3F3C 000A                move.w     -[A7], 0xA /* '\n' */
00005FD8  A93A                     syscall    DisableItem
00005FDA  2F39 FFFF 7D42           move.l     -[A7], [0xFFFF7D42]
00005FE0  3F3C 0009                move.w     -[A7], 0x9 /* '\t' */
00005FE4  A93A                     syscall    DisableItem
00005FE6  2F39 FFFF 7D42           move.l     -[A7], [0xFFFF7D42]
00005FEC  3F3C 000B                move.w     -[A7], 0xB
00005FF0  A93A                     syscall    DisableItem
00005FF2  42A7                     clr.l      -[A7]
00005FF4  A9FC                     syscall    ZeroScrap
00005FF6  4A9F                     tst.l      [A7]+
00005FF8  6714                     beq        +0x16 /* 0000600E */
00005FFA  2F3C FFFF AB4E           move.l     -[A7], 0xFFFFAB4E
00006000  2F3C FFFF AB50           move.l     -[A7], 0xFFFFAB50
00006006  4EAD 0222                jsr        [A5 + 0x222 /* export_64, CODE:2 @ 00004DCE */]
0000600A  508F                     addq.l     A7, 8
0000600C  602C                     bra        +0x2E /* 0000603A */
label0000600E:
0000600E  4267                     clr.w      -[A7]
00006010  4EAD 0462                jsr        [A5 + 0x462 /* export_136, CODE:7 @ 00002A18 */]
00006014  4A5F                     tst.w      [A7]+
00006016  6722                     beq        +0x24 /* 0000603A */
00006018  2F3C FFFF AB66           move.l     -[A7], 0xFFFFAB66
0000601E  2F3C FFFF AB68           move.l     -[A7], 0xFFFFAB68
00006024  4EAD 0222                jsr        [A5 + 0x222 /* export_64, CODE:2 @ 00004DCE */]
00006028  508F                     addq.l     A7, 8
0000602A  600E                     bra        +0x10 /* 0000603A */
label0000602C:
0000602C  0C79 0006 FFFF 9224      cmpi.w     [0xFFFF9224], 0x6
00006034  6604                     bne        +0x6 /* 0000603A */
00006036  4EBA C77E                jsr        [PC - 0x3882 /* 000027B6 */]
label0000603A:
0000603A  2F39 FFFF 7D42           move.l     -[A7], [0xFFFF7D42]
00006040  3F3C 0001                move.w     -[A7], 0x1
00006044  A939                     syscall    EnableItem
00006046  2F39 FFFF 7D42           move.l     -[A7], [0xFFFF7D42]
0000604C  3F3C 0003                move.w     -[A7], 0x3
00006050  A939                     syscall    EnableItem
00006052  2F39 FFFF 7D42           move.l     -[A7], [0xFFFF7D42]
00006058  3F3C 0004                move.w     -[A7], 0x4
0000605C  A939                     syscall    EnableItem
0000605E  2F39 FFFF 7D42           move.l     -[A7], [0xFFFF7D42]
00006064  3F3C 0005                move.w     -[A7], 0x5
00006068  A939                     syscall    EnableItem
0000606A  2F39 FFFF 7D42           move.l     -[A7], [0xFFFF7D42]
00006070  3F3C 0006                move.w     -[A7], 0x6
00006074  A939                     syscall    EnableItem
label00006076:
00006076  4E75                     rts
export_23:
fn00006078:
00006078  2F39 FFFF 7D56           move.l     -[A7], [0xFFFF7D56]
0000607E  A922                     syscall    BeginUpdate
00006080  3039 FFFF 9224           move.w     D0, [0xFFFF9224]
00006086  48C0                     ext.l      D0
00006088  E588                     lsl        D0, 2
0000608A  2040                     movea.l    A0, D0
0000608C  D1FC FFFF 9196           add.l      A0, 0xFFFF9196
00006092  2050                     movea.l    A0, [A0]
00006094  4E90                     jsr        [A0]
00006096  4EBA EEA0                jsr        [PC - 0x1160 /* 00004F38 */]
0000609A  2F39 FFFF 7D56           move.l     -[A7], [0xFFFF7D56]
000060A0  A923                     syscall    EndUpdate
000060A2  4E75                     rts
export_24:
fn000060A4:
000060A4  4E56 FFFC                link       A6, -0x0004
000060A8  2D79 FFFF 7D36 FFFC      move.l     [A6 - 0x4], [0xFFFF7D36]
000060B0  4267                     clr.w      -[A7]
000060B2  2F39 FFFF 7D5C           move.l     -[A7], [0xFFFF7D5C]
000060B8  A86A                     syscall    HiWord
000060BA  4A5F                     tst.w      [A7]+
000060BC  671A                     beq        +0x1C /* 000060D8 */
000060BE  4EAD 043A                jsr        [A5 + 0x43A /* export_131, CODE:7 @ 00002996 */]
000060C2  4267                     clr.w      -[A7]
000060C4  2F2E FFFC                move.l     -[A7], [A6 - 0x4]
000060C8  2F39 FFFF 7D5C           move.l     -[A7], [0xFFFF7D5C]
000060CE  4EAD 044A                jsr        [A5 + 0x44A /* export_133, CODE:7 @ 000029A6 */]
000060D2  4EAD 0442                jsr        [A5 + 0x442 /* export_132, CODE:7 @ 000029A0 */]
000060D6  548F                     addq.l     A7, 2
label000060D8:
000060D8  4E5E                     unlink     A6
000060DA  4E75                     rts
fn000060DC:
000060DC  2F07                     move.l     -[A7], D7
000060DE  4A39 FFFF 9082           tst.b      [0xFFFF9082]
000060E4  671A                     beq        +0x1C /* 00006100 */
000060E6  4227                     clr.b      -[A7]
000060E8  3F3C FFFF                move.w     -[A7], 0xFFFF
000060EC  2F3C FFFF 7D5A           move.l     -[A7], 0xFFFF7D5A
000060F2  4878 0005                push.l     0x5
000060F6  42A7                     clr.l      -[A7]
000060F8  A860                     syscall    WaitNextEvent
000060FA  7E00                     moveq.l    D7, 0x00
000060FC  1E1F                     move.b     D7, [A7]+
000060FE  6014                     bra        +0x16 /* 00006114 */
label00006100:
00006100  A9B4                     syscall    SystemTask
00006102  4227                     clr.b      -[A7]
00006104  3F3C FFFF                move.w     -[A7], 0xFFFF
00006108  2F3C FFFF 7D5A           move.l     -[A7], 0xFFFF7D5A
0000610E  A970                     syscall    GetNextEvent
00006110  7E00                     moveq.l    D7, 0x00
00006112  1E1F                     move.b     D7, [A7]+
label00006114:
00006114  0C79 0001 FFFF 9224      cmpi.w     [0xFFFF9224], 0x1
0000611C  6606                     bne        +0x8 /* 00006124 */
0000611E  4EBA B2DC                jsr        [PC - 0x4D24 /* 000013FC */]
00006122  600E                     bra        +0x10 /* 00006132 */
label00006124:
00006124  0C79 0006 FFFF 9224      cmpi.w     [0xFFFF9224], 0x6
0000612C  6604                     bne        +0x6 /* 00006132 */
0000612E  4EBA E032                jsr        [PC - 0x1FCE /* 00004162 */]
label00006132:
00006132  4A47                     tst.w      D7
00006134  6734                     beq        +0x36 /* 0000616A */
00006136  3039 FFFF 7D5A           move.w     D0, [0xFFFF7D5A]
0000613C  0C40 0008                cmpi.w     D0, 0x8
00006140  6228                     bhi        +0x2A /* 0000616A */
00006142  43FA 002A                lea.l      A1, [PC + 0x2A /* 0000616E, value 0xFFFCFFE0 */]
00006146  D040                     add.w      D0, D0
00006148  D2F1 0000                add.w      A1, [A1 + D0.w]
0000614C  4ED1                     jmp        [A1]
0000614E  4EBA FB68                jsr        [PC - 0x498 /* 00005CB8 */]
00006152  6016                     bra        +0x18 /* 0000616A */
00006154  4EBA FBEE                jsr        [PC - 0x412 /* 00005D44 */]
00006158  6010                     bra        +0x12 /* 0000616A */
0000615A  4EBA FCA2                jsr        [PC - 0x35E /* 00005DFE */]
0000615E  600A                     bra        +0xC /* 0000616A */
00006160  4EBA FF16                jsr        [PC - 0xEA /* 00006078 */]
00006164  6004                     bra        +0x6 /* 0000616A */
00006166  4EBA FF3C                jsr        [PC - 0xC4 /* 000060A4 */]
label0000616A:
0000616A  2E1F                     move.l     D7, [A7]+
0000616C  4E75                     rts
0000616E  FFFC                     .invalid   <<F/7/7>>
00006170  FFE0                     .invalid   <<F/7/7>>
00006172  FFFC                     .invalid   <<F/7/7>>
00006174  FFE6                     .invalid   <<F/7/7>>
00006176  FFFC                     .invalid   <<F/7/7>>
00006178  FFE6                     .invalid   <<F/7/7>>
0000617A  FFF2                     .invalid   <<F/7/7>>
0000617C  FFF8                     .invalid   <<F/7/7>>
0000617E  FFEC                     .invalid   <<F/7/7>>
fn00006180:
00006180  4E56 FFFE                link       A6, -0x0002
00006184  3F3C 03E9                move.w     -[A7], 0x3E9
00006188  A98A                     syscall    FreeAlert
0000618A  4EAD 027A                jsr        [A5 + 0x27A /* export_75, CODE:2 @ 0000569E */]
0000618E  0C79 0001 FFFF 9224      cmpi.w     [0xFFFF9224], 0x1
00006196  6616                     bne        +0x18 /* 000061AE */
00006198  4A79 FFFF 9238           tst.w      [0xFFFF9238]
0000619E  6704                     beq        +0x6 /* 000061A4 */
000061A0  4EBA A0F8                jsr        [PC - 0x5F08 /* 0000029A */]
label000061A4:
000061A4  2F39 FFFF 7D6A           move.l     -[A7], [0xFFFF7D6A]
000061AA  A9CD                     syscall    TEDispose
000061AC  603E                     bra        +0x40 /* 000061EC */
label000061AE:
000061AE  0C79 0002 FFFF 9224      cmpi.w     [0xFFFF9224], 0x2
000061B6  6606                     bne        +0x8 /* 000061BE */
000061B8  4EBA C032                jsr        [PC - 0x3FCE /* 000021EC */]
000061BC  602E                     bra        +0x30 /* 000061EC */
label000061BE:
000061BE  0C79 0005 FFFF 9224      cmpi.w     [0xFFFF9224], 0x5
000061C6  6606                     bne        +0x8 /* 000061CE */
000061C8  4EAD 02BA                jsr        [A5 + 0x2BA /* export_83, CODE:2 @ 00000AE0 */]
000061CC  601E                     bra        +0x20 /* 000061EC */
label000061CE:
000061CE  0C79 0006 FFFF 9224      cmpi.w     [0xFFFF9224], 0x6
000061D6  6606                     bne        +0x8 /* 000061DE */
000061D8  4EBA D9B6                jsr        [PC - 0x264A /* 00003B90 */]
000061DC  600E                     bra        +0x10 /* 000061EC */
label000061DE:
000061DE  0C79 0004 FFFF 9224      cmpi.w     [0xFFFF9224], 0x4
000061E6  6604                     bne        +0x6 /* 000061EC */
000061E8  4EBA 0D0C                jsr        [PC + 0xD0C /* 00006EF6 */]
label000061EC:
000061EC  4EAD 0202                jsr        [A5 + 0x202 /* export_60, CODE:2 @ 00004B1E */]
000061F0  42A7                     clr.l      -[A7]
000061F2  A9FB                     syscall    LoadScrap/LodeScrap
000061F4  4E5E                     unlink     A6
000061F6  4E75                     rts
export_25:
000061F8  4EBA E2E0                jsr        [PC - 0x1D20 /* 000044DA */]
000061FC  4EBA E560                jsr        [PC - 0x1AA0 /* 0000475E */]
00006200  4EAD 0172                jsr        [A5 + 0x172 /* export_42, CODE:2 @ 00002944 */]
00006204  4EBA EC40                jsr        [PC - 0x13C0 /* 00004E46 */]
00006208  6004                     bra        +0x6 /* 0000620E */
label0000620A:
0000620A  4EBA FED0                jsr        [PC - 0x130 /* 000060DC */]
label0000620E:
0000620E  4A79 FFFF 922A           tst.w      [0xFFFF922A]
00006214  67F4                     beq        -0xA /* 0000620A */
00006216  4EBA FF68                jsr        [PC - 0x98 /* 00006180 */]
0000621A  4E75                     rts
fn0000621C:
0000621C  4A79 FFFF AB86           tst.w      [0xFFFFAB86]
00006222  670E                     beq        +0x10 /* 00006232 */
00006224  2F39 FFFF 7D42           move.l     -[A7], [0xFFFF7D42]
0000622A  3F3C 0005                move.w     -[A7], 0x5
0000622E  A939                     syscall    EnableItem
00006230  600C                     bra        +0xE /* 0000623E */
label00006232:
00006232  2F39 FFFF 7D42           move.l     -[A7], [0xFFFF7D42]
00006238  3F3C 0005                move.w     -[A7], 0x5
0000623C  A93A                     syscall    DisableItem
label0000623E:
0000623E  303C 03C2                move.w     D0, 0x3C2
00006242  C1F9 FFFF 9228           muls.w     D0, [0xFFFF9228]
00006248  2040                     movea.l    A0, D0
0000624A  D1FC FFFF 9792           add.l      A0, 0xFFFF9792
00006250  3039 FFFF AB82           move.w     D0, [0xFFFFAB82]
00006256  48C0                     ext.l      D0
00006258  E588                     lsl        D0, 2
0000625A  4AB0 0800                tst.l      [A0 + D0]
0000625E  6726                     beq        +0x28 /* 00006286 */
00006260  2F39 FFFF 7D42           move.l     -[A7], [0xFFFF7D42]
00006266  3F3C 0003                move.w     -[A7], 0x3
0000626A  A939                     syscall    EnableItem
0000626C  2F39 FFFF 7D42           move.l     -[A7], [0xFFFF7D42]
00006272  3F3C 0004                move.w     -[A7], 0x4
00006276  A939                     syscall    EnableItem
00006278  2F39 FFFF 7D42           move.l     -[A7], [0xFFFF7D42]
0000627E  3F3C 0006                move.w     -[A7], 0x6
00006282  A939                     syscall    EnableItem
00006284  6024                     bra        +0x26 /* 000062AA */
label00006286:
00006286  2F39 FFFF 7D42           move.l     -[A7], [0xFFFF7D42]
0000628C  3F3C 0003                move.w     -[A7], 0x3
00006290  A93A                     syscall    DisableItem
00006292  2F39 FFFF 7D42           move.l     -[A7], [0xFFFF7D42]
00006298  3F3C 0004                move.w     -[A7], 0x4
0000629C  A93A                     syscall    DisableItem
0000629E  2F39 FFFF 7D42           move.l     -[A7], [0xFFFF7D42]
000062A4  3F3C 0006                move.w     -[A7], 0x6
000062A8  A93A                     syscall    DisableItem
label000062AA:
000062AA  4E75                     rts
fn000062AC:
000062AC  4E56 FFFC                link       A6, -0x0004
000062B0  42A7                     clr.l      -[A7]
000062B2  42A7                     clr.l      -[A7]
000062B4  2F3C 736E 6420           move.l     -[A7], 0x736E6420 /* 'snd ' */
000062BA  486E FFFC                pea.l      [A6 - 0x4]
000062BE  A9FD                     syscall    GetScrap
000062C0  4A9F                     tst.l      [A7]+
000062C2  5CC0                     sge        D0
000062C4  4400                     neg.b      D0
000062C6  4880                     ext.w      D0
000062C8  33C0 FFFF AB86           move.w     [0xFFFFAB86], D0
000062CE  4EBA FF4C                jsr        [PC - 0xB4 /* 0000621C */]
000062D2  4E5E                     unlink     A6
000062D4  4E75                     rts
export_15:
fn000062D6:
000062D6  4E56 FFF8                link       A6, -0x0008
000062DA  48E7 0338                movem.l    -[A7], D6,D7,A2,A3,A4
000062DE  3E2E 0008                move.w     D7, [A6 + 0x8]
000062E2  3C2E 000A                move.w     D6, [A6 + 0xA]
000062E6  303C 03C2                move.w     D0, 0x3C2
000062EA  C1C7                     muls.w     D0, D7
000062EC  0680 FFFF 9792           addi.l     D0, 0xFFFF9792
000062F2  2206                     move.l     D1, D6
000062F4  48C1                     ext.l      D1
000062F6  E589                     lsl        D1, 2
000062F8  D081                     add.l      D0, D1
000062FA  2040                     movea.l    A0, D0
000062FC  2850                     movea.l    A4, [A0]
000062FE  303C 03C2                move.w     D0, 0x3C2
00006302  C1C7                     muls.w     D0, D7
00006304  2206                     move.l     D1, D6
00006306  48C1                     ext.l      D1
00006308  E589                     lsl        D1, 2
0000630A  0681 FFFF 9792           addi.l     D1, 0xFFFF9792
00006310  D280                     add.l      D1, D0
00006312  2641                     movea.l    A3, D1
00006314  303C 03C2                move.w     D0, 0x3C2
00006318  C1C7                     muls.w     D0, D7
0000631A  0680 FFFF 9442           addi.l     D0, 0xFFFF9442
00006320  2440                     movea.l    A2, D0
00006322  200C                     move.l     D0, A4
00006324  6616                     bne        +0x18 /* 0000633C */
00006326  2F3C FFFF ABB4           move.l     -[A7], 0xFFFFABB4
0000632C  2F3C FFFF ABD0           move.l     -[A7], 0xFFFFABD0
00006332  4EAD 0222                jsr        [A5 + 0x222 /* export_64, CODE:2 @ 00004DCE */]
00006336  508F                     addq.l     A7, 8
00006338  6000 008E                bra        +0x90 /* 000063C8 */
label0000633C:
0000633C  4A94                     tst.l      [A4]
0000633E  6600 0088                bne        +0x8A /* 000063C8 */
00006342  3F2A 0322                move.w     -[A7], [A2 + 0x322]
00006346  4EAD 0262                jsr        [A5 + 0x262 /* export_72, CODE:2 @ 00005522 */]
0000634A  303C 03C2                move.w     D0, 0x3C2
0000634E  C1C7                     muls.w     D0, D7
00006350  0680 FFFF 955E           addi.l     D0, 0xFFFF955E
00006356  2840                     movea.l    A4, D0
00006358  2F0C                     move.l     -[A7], A4
0000635A  A9B1                     syscall    CreateResFile
0000635C  4257                     clr.w      [A7]
0000635E  2F0C                     move.l     -[A7], A4
00006360  A997                     syscall    OpenResFile
00006362  3E1F                     move.w     D7, [A7]+
00006364  0C47 FFFF                cmpi.w     D7, 0xFFFF
00006368  6614                     bne        +0x16 /* 0000637E */
0000636A  2F3C FFFF ABF2           move.l     -[A7], 0xFFFFABF2
00006370  2F3C FFFF ABF4           move.l     -[A7], 0xFFFFABF4
00006376  4EAD 0222                jsr        [A5 + 0x222 /* export_64, CODE:2 @ 00004DCE */]
0000637A  508F                     addq.l     A7, 8
0000637C  6042                     bra        +0x44 /* 000063C0 */
label0000637E:
0000637E  42A7                     clr.l      -[A7]
00006380  2F3C 736E 6420           move.l     -[A7], 0x736E6420 /* 'snd ' */
00006386  3006                     move.w     D0, D6
00006388  0640 07D0                addi.w     D0, 0x7D0
0000638C  3F00                     move.w     -[A7], D0
0000638E  A9A0                     syscall    GetResource
00006390  285F                     movea.l    A4, [A7]+
00006392  4A78 0A60                tst.w      [0x00000A60 /* ResErr */]
00006396  6710                     beq        +0x12 /* 000063A8 */
00006398  0C78 FF40 0A60           cmpi.w     [0x00000A60 /* ResErr */], 0xFF40
0000639E  6708                     beq        +0xA /* 000063A8 */
000063A0  3F3C 0001                move.w     -[A7], 0x1
000063A4  A9C8                     syscall    SysBeep
000063A6  6018                     bra        +0x1A /* 000063C0 */
label000063A8:
000063A8  200C                     move.l     D0, A4
000063AA  6714                     beq        +0x16 /* 000063C0 */
000063AC  268C                     move.l     [A3], A4
000063AE  4267                     clr.w      -[A7]
000063B0  2F0B                     move.l     -[A7], A3
000063B2  4EAD 0452                jsr        [A5 + 0x452 /* export_134, CODE:7 @ 000029AC */]
000063B6  2053                     movea.l    A0, [A3]
000063B8  A049                     syscall    HPurge
000063BA  2F0C                     move.l     -[A7], A4
000063BC  A9A3                     syscall    ReleaseResource
000063BE  548F                     addq.l     A7, 2
label000063C0:
000063C0  3F07                     move.w     -[A7], D7
000063C2  A99A                     syscall    CloseResFile
000063C4  4EAD 026A                jsr        [A5 + 0x26A /* export_73, CODE:2 @ 0000554A */]
label000063C8:
000063C8  4CDF 1CC0                movem.l    D6,D7,A2,A3,A4, [A7]+
000063CC  4E5E                     unlink     A6
000063CE  4E75                     rts
fn000063D0:
000063D0  4AB9 FFFF ABB0           tst.l      [0xFFFFABB0]
000063D6  6708                     beq        +0xA /* 000063E0 */
000063D8  2079 FFFF ABB0           movea.l    A0, [0xFFFFABB0]
000063DE  A023                     syscall    DisposHandle/DisposeHandle
label000063E0:
000063E0  303C 03C2                move.w     D0, 0x3C2
000063E4  C1F9 FFFF 9228           muls.w     D0, [0xFFFF9228]
000063EA  2040                     movea.l    A0, D0
000063EC  D1FC FFFF 9792           add.l      A0, 0xFFFF9792
000063F2  3039 FFFF AB82           move.w     D0, [0xFFFFAB82]
000063F8  48C0                     ext.l      D0
000063FA  E588                     lsl        D0, 2
000063FC  23F0 0800 FFFF ABB0      move.l     [0xFFFFABB0], [A0 + D0]
00006404  4AB9 FFFF ABB0           tst.l      [0xFFFFABB0]
0000640A  6716                     beq        +0x18 /* 00006422 */
0000640C  4267                     clr.w      -[A7]
0000640E  2F3C FFFF ABB0           move.l     -[A7], 0xFFFFABB0
00006414  4EAD 0452                jsr        [A5 + 0x452 /* export_134, CODE:7 @ 000029AC */]
00006418  2079 FFFF ABB0           movea.l    A0, [0xFFFFABB0]
0000641E  A04A                     syscall    HNoPurge
00006420  548F                     addq.l     A7, 2
label00006422:
00006422  4E75                     rts
fn00006424:
00006424  4E56 FFF6                link       A6, -0x000A
00006428  3D7C 0041 FFF8           move.w     [A6 - 0x8], 0x41 /* 'A' */
0000642E  3D7C 0019 FFFA           move.w     [A6 - 0x6], 0x19
00006434  3D7C 0055 FFFC           move.w     [A6 - 0x4], 0x55 /* 'U' */
0000643A  3D7C 0113 FFFE           move.w     [A6 - 0x2], 0x113
00006440  486E FFF8                pea.l      [A6 - 0x8]
00006444  A928                     syscall    InvalRect
00006446  2F3C FFFF AB88           move.l     -[A7], 0xFFFFAB88
0000644C  A928                     syscall    InvalRect
0000644E  3039 FFFF AB82           move.w     D0, [0xFFFFAB82]
00006454  48C0                     ext.l      D0
00006456  81FC 0002                divs.w     D0, 0x2
0000645A  C1FC 002D                muls.w     D0, 0x2D /* '-' */
0000645E  0640 0012                addi.w     D0, 0x12
00006462  3D40 FFF8                move.w     [A6 - 0x8], D0
00006466  7022                     moveq.l    D0, 0x22
00006468  D06E FFF8                add.w      D0, [A6 - 0x8]
0000646C  3D40 FFFC                move.w     [A6 - 0x4], D0
00006470  3039 FFFF AB82           move.w     D0, [0xFFFFAB82]
00006476  48C0                     ext.l      D0
00006478  81FC 0002                divs.w     D0, 0x2
0000647C  4840                     swap.w     D0
0000647E  C1FC 0064                muls.w     D0, 0x64 /* 'd' */
00006482  0640 014D                addi.w     D0, 0x14D
00006486  3D40 FFFA                move.w     [A6 - 0x6], D0
0000648A  7022                     moveq.l    D0, 0x22
0000648C  D06E FFFA                add.w      D0, [A6 - 0x6]
00006490  3D40 FFFE                move.w     [A6 - 0x2], D0
00006494  486E FFF8                pea.l      [A6 - 0x8]
00006498  A928                     syscall    InvalRect
0000649A  4E5E                     unlink     A6
0000649C  4E75                     rts
export_16:
0000649E  4E56 FEEE                link       A6, -0x0112
000064A2  48E7 1F38                movem.l    -[A7], D3,D4,D5,D6,D7,A2,A3,A4
000064A6  2079 FFFF 7D56           movea.l    A0, [0xFFFF7D56]
000064AC  4868 0010                pea.l      [A0 + 0x10]
000064B0  A8A3                     syscall    EraseRect
000064B2  3F3C 0004                move.w     -[A7], 0x4
000064B6  A887                     syscall    TextFont
000064B8  3F3C 0009                move.w     -[A7], 0x9 /* '\t' */
000064BC  A88A                     syscall    TextSize
000064BE  7E00                     moveq.l    D7, 0x00
000064C0  7C00                     moveq.l    D6, 0x00
000064C2  6000 0158                bra        +0x15A /* 0000661C */
label000064C6:
000064C6  7A00                     moveq.l    D5, 0x00
000064C8  3007                     move.w     D0, D7
000064CA  D047                     add.w      D0, D7
000064CC  3D40 FEEE                move.w     [A6 - 0x112], D0
000064D0  7213                     moveq.l    D1, 0x13
000064D2  D246                     add.w      D1, D6
000064D4  3D41 FEF0                move.w     [A6 - 0x110], D1
000064D8  7433                     moveq.l    D2, 0x33
000064DA  D446                     add.w      D2, D6
000064DC  3D42 FEF4                move.w     [A6 - 0x10C], D2
000064E0  703D                     moveq.l    D0, 0x3D
000064E2  D046                     add.w      D0, D6
000064E4  3D40 FEF2                move.w     [A6 - 0x10E], D0
000064E8  7664                     moveq.l    D3, 0x64
000064EA  C7C5                     muls.w     D3, D5
000064EC  6000 0120                bra        +0x122 /* 0000660E */
label000064F0:
000064F0  303C 03C2                move.w     D0, 0x3C2
000064F4  C1F9 FFFF 9228           muls.w     D0, [0xFFFF9228]
000064FA  306E FEEE                movea.w    A0, [A6 - 0x112]
000064FE  D0C5                     add.w      A0, D5
00006500  2208                     move.l     D1, A0
00006502  E589                     lsl        D1, 2
00006504  0681 FFFF 9792           addi.l     D1, 0xFFFF9792
0000650A  D081                     add.l      D0, D1
0000650C  2040                     movea.l    A0, D0
0000650E  4A90                     tst.l      [A0]
00006510  6732                     beq        +0x34 /* 00006544 */
00006512  3D6E FEF0 FFF6           move.w     [A6 - 0xA], [A6 - 0x110]
00006518  3D6E FEF4 FFFA           move.w     [A6 - 0x6], [A6 - 0x10C]
0000651E  3003                     move.w     D0, D3
00006520  0640 014E                addi.w     D0, 0x14E
00006524  3D40 FFF8                move.w     [A6 - 0x8], D0
00006528  3003                     move.w     D0, D3
0000652A  0640 016E                addi.w     D0, 0x16E
0000652E  3D40 FFFC                move.w     [A6 - 0x4], D0
00006532  4878 0111                push.l     0x111
00006536  A862                     syscall    ForeColor
00006538  486E FFF6                pea.l      [A6 - 0xA]
0000653C  2F3C FFFF FAB4           move.l     -[A7], 0xFFFFFAB4
00006542  A8A5                     syscall    FillRect
label00006544:
00006544  4878 0155                push.l     0x155
00006548  A862                     syscall    ForeColor
0000654A  3807                     move.w     D4, D7
0000654C  D847                     add.w      D4, D7
0000654E  D845                     add.w      D4, D5
00006550  0C44 0003                cmpi.w     D4, 0x3
00006554  6F16                     ble        +0x18 /* 0000656C */
00006556  3F04                     move.w     -[A7], D4
00006558  2F3C FFFF AC12           move.l     -[A7], 0xFFFFAC12
0000655E  486E FEF6                pea.l      [A6 - 0x10A]
00006562  4EAD 050A                jsr        [A5 + 0x50A /* export_157, CODE:7 @ 000020CA */]
00006566  4FEF 000A                lea.l      A7, [A7 + 0xA]
0000656A  606E                     bra        +0x70 /* 000065DA */
label0000656C:
0000656C  4A47                     tst.w      D7
0000656E  6616                     bne        +0x18 /* 00006586 */
00006570  4A45                     tst.w      D5
00006572  6612                     bne        +0x14 /* 00006586 */
00006574  2F3C FFFF AC1C           move.l     -[A7], 0xFFFFAC1C
0000657A  486E FEF6                pea.l      [A6 - 0x10A]
0000657E  4EAD 051A                jsr        [A5 + 0x51A /* export_159, CODE:7 @ 000021A6 */]
00006582  508F                     addq.l     A7, 8
00006584  6054                     bra        +0x56 /* 000065DA */
label00006586:
00006586  4A47                     tst.w      D7
00006588  6618                     bne        +0x1A /* 000065A2 */
0000658A  0C45 0001                cmpi.w     D5, 0x1
0000658E  6612                     bne        +0x14 /* 000065A2 */
00006590  2F3C FFFF AC22           move.l     -[A7], 0xFFFFAC22
00006596  486E FEF6                pea.l      [A6 - 0x10A]
0000659A  4EAD 051A                jsr        [A5 + 0x51A /* export_159, CODE:7 @ 000021A6 */]
0000659E  508F                     addq.l     A7, 8
000065A0  6038                     bra        +0x3A /* 000065DA */
label000065A2:
000065A2  0C47 0001                cmpi.w     D7, 0x1
000065A6  6616                     bne        +0x18 /* 000065BE */
000065A8  4A45                     tst.w      D5
000065AA  6612                     bne        +0x14 /* 000065BE */
000065AC  2F3C FFFF AC2C           move.l     -[A7], 0xFFFFAC2C
000065B2  486E FEF6                pea.l      [A6 - 0x10A]
000065B6  4EAD 051A                jsr        [A5 + 0x51A /* export_159, CODE:7 @ 000021A6 */]
000065BA  508F                     addq.l     A7, 8
000065BC  601C                     bra        +0x1E /* 000065DA */
label000065BE:
000065BE  0C47 0001                cmpi.w     D7, 0x1
000065C2  6616                     bne        +0x18 /* 000065DA */
000065C4  0C45 0001                cmpi.w     D5, 0x1
000065C8  6610                     bne        +0x12 /* 000065DA */
000065CA  2F3C FFFF AC38           move.l     -[A7], 0xFFFFAC38
000065D0  486E FEF6                pea.l      [A6 - 0x10A]
000065D4  4EAD 051A                jsr        [A5 + 0x51A /* export_159, CODE:7 @ 000021A6 */]
000065D8  508F                     addq.l     A7, 8
label000065DA:
000065DA  486E FEF6                pea.l      [A6 - 0x10A]
000065DE  4EAD 0482                jsr        [A5 + 0x482 /* export_140, CODE:7 @ 0000237C */]
000065E2  4257                     clr.w      [A7]
000065E4  486E FEF6                pea.l      [A6 - 0x10A]
000065E8  A88C                     syscall    StringWidth
000065EA  301F                     move.w     D0, [A7]+
000065EC  48C0                     ext.l      D0
000065EE  81FC 0002                divs.w     D0, 0x2
000065F2  3203                     move.w     D1, D3
000065F4  0641 015E                addi.w     D1, 0x15E
000065F8  9240                     sub.w      D1, D0
000065FA  3E81                     move.w     [A7], D1
000065FC  3F2E FEF2                move.w     -[A7], [A6 - 0x10E]
00006600  A893                     syscall    MoveTo
00006602  486E FEF6                pea.l      [A6 - 0x10A]
00006606  A884                     syscall    DrawString
00006608  5245                     addq.w     D5, 1
0000660A  0643 0064                addi.w     D3, 0x64 /* 'd' */
label0000660E:
0000660E  0C45 0002                cmpi.w     D5, 0x2
00006612  6D00 FEDC                blt        -0x122 /* 000064F0 */
00006616  5247                     addq.w     D7, 1
00006618  0646 002D                addi.w     D6, 0x2D /* '-' */
label0000661C:
0000661C  0C47 0005                cmpi.w     D7, 0x5
00006620  6D00 FEA4                blt        -0x15A /* 000064C6 */
00006624  4878 0199                push.l     0x199
00006628  A862                     syscall    ForeColor
0000662A  2F3C FFFF FAB4           move.l     -[A7], 0xFFFFFAB4
00006630  A89D                     syscall    PenPat
00006632  7E00                     moveq.l    D7, 0x00
00006634  6046                     bra        +0x48 /* 0000667C */
label00006636:
00006636  2007                     move.l     D0, D7
00006638  48C0                     ext.l      D0
0000663A  81FC 0002                divs.w     D0, 0x2
0000663E  C1FC 002D                muls.w     D0, 0x2D /* '-' */
00006642  0640 0012                addi.w     D0, 0x12
00006646  3D40 FFF6                move.w     [A6 - 0xA], D0
0000664A  7022                     moveq.l    D0, 0x22
0000664C  D06E FFF6                add.w      D0, [A6 - 0xA]
00006650  3D40 FFFA                move.w     [A6 - 0x6], D0
00006654  2007                     move.l     D0, D7
00006656  48C0                     ext.l      D0
00006658  81FC 0002                divs.w     D0, 0x2
0000665C  4840                     swap.w     D0
0000665E  C1FC 0064                muls.w     D0, 0x64 /* 'd' */
00006662  0640 014D                addi.w     D0, 0x14D
00006666  3D40 FFF8                move.w     [A6 - 0x8], D0
0000666A  7022                     moveq.l    D0, 0x22
0000666C  D06E FFF8                add.w      D0, [A6 - 0x8]
00006670  3D40 FFFC                move.w     [A6 - 0x4], D0
00006674  486E FFF6                pea.l      [A6 - 0xA]
00006678  A8A1                     syscall    FrameRect
0000667A  5247                     addq.w     D7, 1
label0000667C:
0000667C  0C47 000A                cmpi.w     D7, 0xA /* '\n' */
00006680  6DB4                     blt        -0x4A /* 00006636 */
00006682  2F3C FFFF FABC           move.l     -[A7], 0xFFFFFABC
00006688  A89D                     syscall    PenPat
0000668A  4878 0021                push.l     0x21 /* '!' */
0000668E  A862                     syscall    ForeColor
00006690  3039 FFFF AB82           move.w     D0, [0xFFFFAB82]
00006696  48C0                     ext.l      D0
00006698  81FC 0002                divs.w     D0, 0x2
0000669C  C1FC 002D                muls.w     D0, 0x2D /* '-' */
000066A0  0640 0012                addi.w     D0, 0x12
000066A4  3D40 FFF6                move.w     [A6 - 0xA], D0
000066A8  7022                     moveq.l    D0, 0x22
000066AA  D06E FFF6                add.w      D0, [A6 - 0xA]
000066AE  3D40 FFFA                move.w     [A6 - 0x6], D0
000066B2  3039 FFFF AB82           move.w     D0, [0xFFFFAB82]
000066B8  48C0                     ext.l      D0
000066BA  81FC 0002                divs.w     D0, 0x2
000066BE  4840                     swap.w     D0
000066C0  C1FC 0064                muls.w     D0, 0x64 /* 'd' */
000066C4  0640 014D                addi.w     D0, 0x14D
000066C8  3D40 FFF8                move.w     [A6 - 0x8], D0
000066CC  7022                     moveq.l    D0, 0x22
000066CE  D06E FFF8                add.w      D0, [A6 - 0x8]
000066D2  3D40 FFFC                move.w     [A6 - 0x4], D0
000066D6  486E FFF6                pea.l      [A6 - 0xA]
000066DA  A8A1                     syscall    FrameRect
000066DC  3D7C 0014 FFF8           move.w     [A6 - 0x8], 0x14
000066E2  3D7C 0118 FFFC           move.w     [A6 - 0x4], 0x118
000066E8  3D7C 0028 FFF6           move.w     [A6 - 0xA], 0x28 /* '(' */
000066EE  3D7C 0064 FFFA           move.w     [A6 - 0x6], 0x64 /* 'd' */
000066F4  486E FFF6                pea.l      [A6 - 0xA]
000066F8  A8A1                     syscall    FrameRect
000066FA  7001                     moveq.l    D0, 0x01
000066FC  D06E FFF8                add.w      D0, [A6 - 0x8]
00006700  3F00                     move.w     -[A7], D0
00006702  3F2E FFFA                move.w     -[A7], [A6 - 0x6]
00006706  A893                     syscall    MoveTo
00006708  3F2E FFFC                move.w     -[A7], [A6 - 0x4]
0000670C  3F2E FFFA                move.w     -[A7], [A6 - 0x6]
00006710  A891                     syscall    LineTo
00006712  3F2E FFFC                move.w     -[A7], [A6 - 0x4]
00006716  7001                     moveq.l    D0, 0x01
00006718  D06E FFF6                add.w      D0, [A6 - 0xA]
0000671C  3F00                     move.w     -[A7], D0
0000671E  A891                     syscall    LineTo
00006720  4267                     clr.w      -[A7]
00006722  A887                     syscall    TextFont
00006724  3F3C 000C                move.w     -[A7], 0xC
00006728  A88A                     syscall    TextSize
0000672A  2F3C FFFF AC42           move.l     -[A7], 0xFFFFAC42
00006730  486E FEF6                pea.l      [A6 - 0x10A]
00006734  4EAD 050A                jsr        [A5 + 0x50A /* export_157, CODE:7 @ 000020CA */]
00006738  486E FEF6                pea.l      [A6 - 0x10A]
0000673C  4EAD 0482                jsr        [A5 + 0x482 /* export_140, CODE:7 @ 0000237C */]
00006740  4257                     clr.w      [A7]
00006742  486E FEF6                pea.l      [A6 - 0x10A]
00006746  A88C                     syscall    StringWidth
00006748  301F                     move.w     D0, [A7]+
0000674A  48C0                     ext.l      D0
0000674C  81FC 0002                divs.w     D0, 0x2
00006750  323C 0096                move.w     D1, 0x96
00006754  9240                     sub.w      D1, D0
00006756  3E81                     move.w     [A7], D1
00006758  3F3C 003C                move.w     -[A7], 0x3C /* '<' */
0000675C  A893                     syscall    MoveTo
0000675E  486E FEF6                pea.l      [A6 - 0x10A]
00006762  A884                     syscall    DrawString
00006764  303C 03C2                move.w     D0, 0x3C2
00006768  C1F9 FFFF 9228           muls.w     D0, [0xFFFF9228]
0000676E  2040                     movea.l    A0, D0
00006770  D1FC FFFF 9792           add.l      A0, 0xFFFF9792
00006776  3039 FFFF AB82           move.w     D0, [0xFFFFAB82]
0000677C  48C0                     ext.l      D0
0000677E  E588                     lsl        D0, 2
00006780  4AB0 0800                tst.l      [A0 + D0]
00006784  508F                     addq.l     A7, 8
00006786  6700 0088                beq        +0x8A /* 00006810 */
0000678A  3F39 FFFF AB82           move.w     -[A7], [0xFFFFAB82]
00006790  3F39 FFFF 9228           move.w     -[A7], [0xFFFF9228]
00006796  4EBA FB3E                jsr        [PC - 0x4C2 /* 000062D6 */]
0000679A  303C 03C2                move.w     D0, 0x3C2
0000679E  C1F9 FFFF 9228           muls.w     D0, [0xFFFF9228]
000067A4  2040                     movea.l    A0, D0
000067A6  D1FC FFFF 9792           add.l      A0, 0xFFFF9792
000067AC  3039 FFFF AB82           move.w     D0, [0xFFFFAB82]
000067B2  48C0                     ext.l      D0
000067B4  E588                     lsl        D0, 2
000067B6  2070 0800                movea.l    A0, [A0 + D0]
000067BA  4A90                     tst.l      [A0]
000067BC  588F                     addq.l     A7, 4
000067BE  6612                     bne        +0x14 /* 000067D2 */
000067C0  2F3C FFFF AC56           move.l     -[A7], 0xFFFFAC56
000067C6  486E FEF6                pea.l      [A6 - 0x10A]
000067CA  4EAD 050A                jsr        [A5 + 0x50A /* export_157, CODE:7 @ 000020CA */]
000067CE  508F                     addq.l     A7, 8
000067D0  604E                     bra        +0x50 /* 00006820 */
label000067D2:
000067D2  42A7                     clr.l      -[A7]
000067D4  303C 03C2                move.w     D0, 0x3C2
000067D8  C1F9 FFFF 9228           muls.w     D0, [0xFFFF9228]
000067DE  2040                     movea.l    A0, D0
000067E0  D1FC FFFF 9792           add.l      A0, 0xFFFF9792
000067E6  3039 FFFF AB82           move.w     D0, [0xFFFFAB82]
000067EC  48C0                     ext.l      D0
000067EE  E588                     lsl        D0, 2
000067F0  2F30 0800                move.l     -[A7], [A0 + D0]
000067F4  4EAD 03BA                jsr        [A5 + 0x3BA /* export_115, CODE:7 @ 0000272A */]
000067F8  2E1F                     move.l     D7, [A7]+
000067FA  2F07                     move.l     -[A7], D7
000067FC  2F3C FFFF AC6C           move.l     -[A7], 0xFFFFAC6C
00006802  486E FEF6                pea.l      [A6 - 0x10A]
00006806  4EAD 050A                jsr        [A5 + 0x50A /* export_157, CODE:7 @ 000020CA */]
0000680A  4FEF 000C                lea.l      A7, [A7 + 0xC]
0000680E  6010                     bra        +0x12 /* 00006820 */
label00006810:
00006810  2F3C FFFF AC78           move.l     -[A7], 0xFFFFAC78
00006816  486E FEF6                pea.l      [A6 - 0x10A]
0000681A  4EAD 050A                jsr        [A5 + 0x50A /* export_157, CODE:7 @ 000020CA */]
0000681E  508F                     addq.l     A7, 8
label00006820:
00006820  486E FEF6                pea.l      [A6 - 0x10A]
00006824  4EAD 0482                jsr        [A5 + 0x482 /* export_140, CODE:7 @ 0000237C */]
00006828  4257                     clr.w      [A7]
0000682A  486E FEF6                pea.l      [A6 - 0x10A]
0000682E  A88C                     syscall    StringWidth
00006830  301F                     move.w     D0, [A7]+
00006832  48C0                     ext.l      D0
00006834  81FC 0002                divs.w     D0, 0x2
00006838  323C 0096                move.w     D1, 0x96
0000683C  9240                     sub.w      D1, D0
0000683E  3E81                     move.w     [A7], D1
00006840  3F3C 0050                move.w     -[A7], 0x50 /* 'P' */
00006844  A893                     syscall    MoveTo
00006846  486E FEF6                pea.l      [A6 - 0x10A]
0000684A  A884                     syscall    DrawString
0000684C  303C 03C2                move.w     D0, 0x3C2
00006850  C1F9 FFFF 9228           muls.w     D0, [0xFFFF9228]
00006856  2040                     movea.l    A0, D0
00006858  D1FC FFFF 9792           add.l      A0, 0xFFFF9792
0000685E  3039 FFFF AB82           move.w     D0, [0xFFFFAB82]
00006864  48C0                     ext.l      D0
00006866  E588                     lsl        D0, 2
00006868  4AB0 0800                tst.l      [A0 + D0]
0000686C  56C0                     sne        D0
0000686E  4400                     neg.b      D0
00006870  4880                     ext.w      D0
00006872  33C0 FFFF ABA0           move.w     [0xFFFFABA0], D0
00006878  4A39 FFFF 9085           tst.b      [0xFFFF9085]
0000687E  6708                     beq        +0xA /* 00006888 */
00006880  4A39 FFFF 9086           tst.b      [0xFFFF9086]
00006886  6604                     bne        +0x6 /* 0000688C */
label00006888:
00006888  7000                     moveq.l    D0, 0x00
0000688A  6002                     bra        +0x4 /* 0000688E */
label0000688C:
0000688C  7001                     moveq.l    D0, 0x01
label0000688E:
0000688E  33C0 FFFF ABA2           move.w     [0xFFFFABA2], D0
00006894  7E00                     moveq.l    D7, 0x00
00006896  287C FFFF AB98           movea.l    A4, 0xFFFFAB98
0000689C  267C FFFF AB88           movea.l    A3, 0xFFFFAB88
000068A2  247C FFFF ABA0           movea.l    A2, 0xFFFFABA0
000068A8  6012                     bra        +0x14 /* 000068BC */
label000068AA:
000068AA  4A52                     tst.w      [A2]
000068AC  6706                     beq        +0x8 /* 000068B4 */
000068AE  2F0B                     move.l     -[A7], A3
000068B0  2F14                     move.l     -[A7], [A4]
000068B2  A94B                     syscall    PlotIcon
label000068B4:
000068B4  5247                     addq.w     D7, 1
000068B6  588C                     addq.l     A4, 4
000068B8  508B                     addq.l     A3, 8
000068BA  548A                     addq.l     A2, 2
label000068BC:
000068BC  0C47 0002                cmpi.w     D7, 0x2
000068C0  6DE8                     blt        -0x16 /* 000068AA */
000068C2  2F3C 00C3 00AA           move.l     -[A7], 0xC300AA
000068C8  A893                     syscall    MoveTo
000068CA  2F3C FFFF AC8A           move.l     -[A7], 0xFFFFAC8A
000068D0  A884                     syscall    DrawString
000068D2  4A79 FFFF 9222           tst.w      [0xFFFF9222]
000068D8  671E                     beq        +0x20 /* 000068F8 */
000068DA  4279 FFFF 9222           clr.w      [0xFFFF9222]
000068E0  7E00                     moveq.l    D7, 0x00
000068E2  287C FFFF ABA4           movea.l    A4, 0xFFFFABA4
000068E8  6008                     bra        +0xA /* 000068F2 */
label000068EA:
000068EA  2F14                     move.l     -[A7], [A4]
000068EC  A957                     syscall    ShowControl
000068EE  5247                     addq.w     D7, 1
000068F0  588C                     addq.l     A4, 4
label000068F2:
000068F2  0C47 0003                cmpi.w     D7, 0x3
000068F6  6DF2                     blt        -0xC /* 000068EA */
label000068F8:
000068F8  4CDF 1CF8                movem.l    D3,D4,D5,D6,D7,A2,A3,A4, [A7]+
000068FC  4E5E                     unlink     A6
000068FE  4E75                     rts
fn00006900:
00006900  4E56 FFEC                link       A6, -0x0014
00006904  48E7 0308                movem.l    -[A7], D6,D7,A4
00006908  2D79 FFFF AB7E FFEC      move.l     [A6 - 0x14], [0xFFFFAB7E]
00006910  4A39 FFFF 9086           tst.b      [0xFFFF9086]
00006916  6700 02AE                beq        +0x2B0 /* 00006BC6 */
0000691A  4A39 FFFF 9085           tst.b      [0xFFFF9085]
00006920  6700 02A4                beq        +0x2A6 /* 00006BC6 */
00006924  43EE FFFC                lea.l      A1, [A6 - 0x4]
00006928  A11D                     syscall    MaxMem, flags=1
0000692A  2288                     move.l     [A1], A0
0000692C  2E00                     move.l     D7, D0
0000692E  303C 03C2                move.w     D0, 0x3C2
00006932  C1F9 FFFF 9228           muls.w     D0, [0xFFFF9228]
00006938  2040                     movea.l    A0, D0
0000693A  D1FC FFFF 9792           add.l      A0, 0xFFFF9792
00006940  3039 FFFF AB82           move.w     D0, [0xFFFFAB82]
00006946  48C0                     ext.l      D0
00006948  E588                     lsl        D0, 2
0000694A  4AB0 0800                tst.l      [A0 + D0]
0000694E  6712                     beq        +0x14 /* 00006962 */
00006950  3F39 FFFF AB82           move.w     -[A7], [0xFFFFAB82]
00006956  3F39 FFFF 9228           move.w     -[A7], [0xFFFF9228]
0000695C  4EBA F978                jsr        [PC - 0x688 /* 000062D6 */]
00006960  588F                     addq.l     A7, 4
label00006962:
00006962  4EBA FA6C                jsr        [PC - 0x594 /* 000063D0 */]
00006966  303C 03C2                move.w     D0, 0x3C2
0000696A  C1F9 FFFF 9228           muls.w     D0, [0xFFFF9228]
00006970  2040                     movea.l    A0, D0
00006972  D1FC FFFF 9764           add.l      A0, 0xFFFF9764
00006978  3F10                     move.w     -[A7], [A0]
0000697A  4EAD 0262                jsr        [A5 + 0x262 /* export_72, CODE:2 @ 00005522 */]
0000697E  303C 03C2                move.w     D0, 0x3C2
00006982  C1F9 FFFF 9228           muls.w     D0, [0xFFFF9228]
00006988  0680 FFFF 955E           addi.l     D0, 0xFFFF955E
0000698E  2F00                     move.l     -[A7], D0
00006990  A9B1                     syscall    CreateResFile
00006992  4257                     clr.w      [A7]
00006994  303C 03C2                move.w     D0, 0x3C2
00006998  C1F9 FFFF 9228           muls.w     D0, [0xFFFF9228]
0000699E  0680 FFFF 955E           addi.l     D0, 0xFFFF955E
000069A4  2F00                     move.l     -[A7], D0
000069A6  A997                     syscall    OpenResFile
000069A8  3C1F                     move.w     D6, [A7]+
000069AA  0C46 FFFF                cmpi.w     D6, 0xFFFF
000069AE  6616                     bne        +0x18 /* 000069C6 */
000069B0  2F3C FFFF AC96           move.l     -[A7], 0xFFFFAC96
000069B6  2F3C FFFF AC98           move.l     -[A7], 0xFFFFAC98
000069BC  4EAD 0222                jsr        [A5 + 0x222 /* export_64, CODE:2 @ 00004DCE */]
000069C0  508F                     addq.l     A7, 8
000069C2  6000 01FA                bra        +0x1FC /* 00006BBE */
label000069C6:
000069C6  0C87 0000 9C40           cmpi.l     D7, 0x9C40
000069CC  6F06                     ble        +0x8 /* 000069D4 */
000069CE  2E3C 0000 9C40           move.l     D7, 0x9C40
label000069D4:
000069D4  2007                     move.l     D0, D7
000069D6  A122                     syscall    NewHandle, flags=1
000069D8  2D48 FFF0                move.l     [A6 - 0x10], A0
000069DC  4A78 0220                tst.w      [0x00000220 /* MemErr */]
000069E0  6706                     beq        +0x8 /* 000069E8 */
000069E2  3F3C 0001                move.w     -[A7], 0x1
000069E6  A9C8                     syscall    SysBeep
label000069E8:
000069E8  4267                     clr.w      -[A7]
000069EA  42A7                     clr.l      -[A7]
000069EC  2F2E FFEC                move.l     -[A7], [A6 - 0x14]
000069F0  4A79 FFFF AB84           tst.w      [0xFFFFAB84]
000069F6  6608                     bne        +0xA /* 00006A00 */
000069F8  203C 6265 7374           move.l     D0, 0x62657374 /* 'best' */
000069FE  6018                     bra        +0x1A /* 00006A18 */
label00006A00:
00006A00  0C79 0001 FFFF AB84      cmpi.w     [0xFFFFAB84], 0x1
00006A08  6608                     bne        +0xA /* 00006A12 */
00006A0A  203C 6265 7472           move.l     D0, 0x62657472 /* 'betr' */
00006A10  6006                     bra        +0x8 /* 00006A18 */
label00006A12:
00006A12  203C 676F 6F64           move.l     D0, 0x676F6F64 /* 'good' */
label00006A18:
00006A18  2F00                     move.l     -[A7], D0
00006A1A  486E FFF0                pea.l      [A6 - 0x10]
00006A1E  203C 0804 0014           move.l     D0, 0x8040014
00006A24  A800                     syscall    SoundDispatch
00006A26  3E1F                     move.w     D7, [A7]+
00006A28  4A47                     tst.w      D7
00006A2A  6738                     beq        +0x3A /* 00006A64 */
00006A2C  0C47 FF80                cmpi.w     D7, 0xFF80
00006A30  6732                     beq        +0x34 /* 00006A64 */
00006A32  0C47 FF1A                cmpi.w     D7, 0xFF1A
00006A36  6616                     bne        +0x18 /* 00006A4E */
00006A38  2F3C FFFF ACB6           move.l     -[A7], 0xFFFFACB6
00006A3E  2F3C FFFF ACD4           move.l     -[A7], 0xFFFFACD4
00006A44  4EAD 0222                jsr        [A5 + 0x222 /* export_64, CODE:2 @ 00004DCE */]
00006A48  508F                     addq.l     A7, 8
00006A4A  6000 0172                bra        +0x174 /* 00006BBE */
label00006A4E:
00006A4E  2F3C FFFF ACEA           move.l     -[A7], 0xFFFFACEA
00006A54  2F3C FFFF ACEC           move.l     -[A7], 0xFFFFACEC
00006A5A  4EAD 0222                jsr        [A5 + 0x222 /* export_64, CODE:2 @ 00004DCE */]
00006A5E  508F                     addq.l     A7, 8
00006A60  6000 015C                bra        +0x15E /* 00006BBE */
label00006A64:
00006A64  0C47 FF80                cmpi.w     D7, 0xFF80
00006A68  6700 0154                beq        +0x156 /* 00006BBE */
00006A6C  303C 03C2                move.w     D0, 0x3C2
00006A70  C1F9 FFFF 9228           muls.w     D0, [0xFFFF9228]
00006A76  2040                     movea.l    A0, D0
00006A78  D1FC FFFF 9792           add.l      A0, 0xFFFF9792
00006A7E  3039 FFFF AB82           move.w     D0, [0xFFFFAB82]
00006A84  48C0                     ext.l      D0
00006A86  E588                     lsl        D0, 2
00006A88  4AB0 0800                tst.l      [A0 + D0]
00006A8C  6772                     beq        +0x74 /* 00006B00 */
00006A8E  42A7                     clr.l      -[A7]
00006A90  2F3C 736E 6420           move.l     -[A7], 0x736E6420 /* 'snd ' */
00006A96  3039 FFFF AB82           move.w     D0, [0xFFFFAB82]
00006A9C  0640 07D0                addi.w     D0, 0x7D0
00006AA0  3F00                     move.w     -[A7], D0
00006AA2  A9A0                     syscall    GetResource
00006AA4  285F                     movea.l    A4, [A7]+
00006AA6  2F0C                     move.l     -[A7], A4
00006AA8  A9AD                     syscall    RemoveResource/RmveResource
00006AAA  4A78 0A60                tst.w      [0x00000A60 /* ResErr */]
00006AAE  6712                     beq        +0x14 /* 00006AC2 */
00006AB0  2F3C FFFF AD02           move.l     -[A7], 0xFFFFAD02
00006AB6  2F3C FFFF AD04           move.l     -[A7], 0xFFFFAD04
00006ABC  4EAD 0222                jsr        [A5 + 0x222 /* export_64, CODE:2 @ 00004DCE */]
00006AC0  508F                     addq.l     A7, 8
label00006AC2:
00006AC2  204C                     movea.l    A0, A4
00006AC4  A023                     syscall    DisposHandle/DisposeHandle
00006AC6  4A78 0220                tst.w      [0x00000220 /* MemErr */]
00006ACA  6706                     beq        +0x8 /* 00006AD2 */
00006ACC  3F3C 0001                move.w     -[A7], 0x1
00006AD0  A9C8                     syscall    SysBeep
label00006AD2:
00006AD2  303C 03C2                move.w     D0, 0x3C2
00006AD6  C1F9 FFFF 9228           muls.w     D0, [0xFFFF9228]
00006ADC  2040                     movea.l    A0, D0
00006ADE  D1FC FFFF 9792           add.l      A0, 0xFFFF9792
00006AE4  3039 FFFF AB82           move.w     D0, [0xFFFFAB82]
00006AEA  48C0                     ext.l      D0
00006AEC  E588                     lsl        D0, 2
00006AEE  2070 0800                movea.l    A0, [A0 + D0]
00006AF2  A023                     syscall    DisposHandle/DisposeHandle
00006AF4  4A78 0220                tst.w      [0x00000220 /* MemErr */]
00006AF8  6706                     beq        +0x8 /* 00006B00 */
00006AFA  3F3C 0001                move.w     -[A7], 0x1
00006AFE  A9C8                     syscall    SysBeep
label00006B00:
00006B00  303C 03C2                move.w     D0, 0x3C2
00006B04  C1F9 FFFF 9228           muls.w     D0, [0xFFFF9228]
00006B0A  2040                     movea.l    A0, D0
00006B0C  D1FC FFFF 9792           add.l      A0, 0xFFFF9792
00006B12  3039 FFFF AB82           move.w     D0, [0xFFFFAB82]
00006B18  48C0                     ext.l      D0
00006B1A  E588                     lsl        D0, 2
00006B1C  21AE FFF0 0800           move.l     [A0 + D0], [A6 - 0x10]
00006B22  4267                     clr.w      -[A7]
00006B24  486E FFF0                pea.l      [A6 - 0x10]
00006B28  4EAD 0452                jsr        [A5 + 0x452 /* export_134, CODE:7 @ 000029AC */]
00006B2C  4A5F                     tst.w      [A7]+
00006B2E  6706                     beq        +0x8 /* 00006B36 */
00006B30  3F3C 0001                move.w     -[A7], 0x1
00006B34  A9C8                     syscall    SysBeep
label00006B36:
00006B36  2F2E FFF0                move.l     -[A7], [A6 - 0x10]
00006B3A  2F3C 736E 6420           move.l     -[A7], 0x736E6420 /* 'snd ' */
00006B40  3039 FFFF AB82           move.w     D0, [0xFFFFAB82]
00006B46  0640 07D0                addi.w     D0, 0x7D0
00006B4A  3F00                     move.w     -[A7], D0
00006B4C  2F3C FFFF 9096           move.l     -[A7], 0xFFFF9096
00006B52  A9AB                     syscall    AddResource
00006B54  4A78 0A60                tst.w      [0x00000A60 /* ResErr */]
00006B58  6712                     beq        +0x14 /* 00006B6C */
00006B5A  2F3C FFFF AD26           move.l     -[A7], 0xFFFFAD26
00006B60  2F3C FFFF AD28           move.l     -[A7], 0xFFFFAD28
00006B66  4EAD 0222                jsr        [A5 + 0x222 /* export_64, CODE:2 @ 00004DCE */]
00006B6A  508F                     addq.l     A7, 8
label00006B6C:
00006B6C  2F2E FFF0                move.l     -[A7], [A6 - 0x10]
00006B70  3F3C 0020                move.w     -[A7], 0x20 /* ' ' */
00006B74  A9A7                     syscall    SetResAttrs
00006B76  2F2E FFF0                move.l     -[A7], [A6 - 0x10]
00006B7A  A9AA                     syscall    ChangedResource
00006B7C  3F06                     move.w     -[A7], D6
00006B7E  A999                     syscall    UpdateResFile
00006B80  303C 03C2                move.w     D0, 0x3C2
00006B84  C1F9 FFFF 9228           muls.w     D0, [0xFFFF9228]
00006B8A  2040                     movea.l    A0, D0
00006B8C  D1FC FFFF 9792           add.l      A0, 0xFFFF9792
00006B92  3039 FFFF AB82           move.w     D0, [0xFFFFAB82]
00006B98  48C0                     ext.l      D0
00006B9A  E588                     lsl        D0, 2
00006B9C  2070 0800                movea.l    A0, [A0 + D0]
00006BA0  A049                     syscall    HPurge
00006BA2  2F39 FFFF 7D42           move.l     -[A7], [0xFFFF7D42]
00006BA8  3F3C 0001                move.w     -[A7], 0x1
00006BAC  A939                     syscall    EnableItem
00006BAE  33FC 0001 FFFF 9238      move.w     [0xFFFF9238], 0x1
00006BB6  4EBA F86C                jsr        [PC - 0x794 /* 00006424 */]
00006BBA  4EBA F660                jsr        [PC - 0x9A0 /* 0000621C */]
label00006BBE:
00006BBE  3F06                     move.w     -[A7], D6
00006BC0  A99A                     syscall    CloseResFile
00006BC2  4EAD 026A                jsr        [A5 + 0x26A /* export_73, CODE:2 @ 0000554A */]
label00006BC6:
00006BC6  4CDF 10C0                movem.l    D6,D7,A4, [A7]+
00006BCA  4E5E                     unlink     A6
00006BCC  4E75                     rts
fn00006BCE:
00006BCE  4E56 FFFE                link       A6, -0x0002
00006BD2  3F39 FFFF 9228           move.w     -[A7], [0xFFFF9228]
00006BD8  3F39 FFFF AB82           move.w     -[A7], [0xFFFFAB82]
00006BDE  4EAD 0282                jsr        [A5 + 0x282 /* export_76, CODE:2 @ 0000573A */]
00006BE2  4E5E                     unlink     A6
00006BE4  4E75                     rts
fn00006BE6:
00006BE6  4E56 0000                link       A6, 0
00006BEA  2F0C                     move.l     -[A7], A4
00006BEC  302E 0008                move.w     D0, [A6 + 0x8]
00006BF0  48C0                     ext.l      D0
00006BF2  E788                     lsl        D0, 3
00006BF4  0680 FFFF AB88           addi.l     D0, 0xFFFFAB88
00006BFA  2840                     movea.l    A4, D0
00006BFC  2F0C                     move.l     -[A7], A4
00006BFE  A8A4                     syscall    InvertRect
00006C00  302E 0008                move.w     D0, [A6 + 0x8]
00006C04  6708                     beq        +0xA /* 00006C0E */
00006C06  6B12                     bmi        +0x14 /* 00006C1A */
00006C08  5540                     subq.w     D0, 2
00006C0A  6A0E                     bpl        +0x10 /* 00006C1A */
00006C0C  6006                     bra        +0x8 /* 00006C14 */
label00006C0E:
00006C0E  4EBA FFBE                jsr        [PC - 0x42 /* 00006BCE */]
00006C12  600C                     bra        +0xE /* 00006C20 */
label00006C14:
00006C14  4EBA FCEA                jsr        [PC - 0x316 /* 00006900 */]
00006C18  6006                     bra        +0x8 /* 00006C20 */
label00006C1A:
00006C1A  3F3C 0001                move.w     -[A7], 0x1
00006C1E  A9C8                     syscall    SysBeep
label00006C20:
00006C20  2F0C                     move.l     -[A7], A4
00006C22  A8A4                     syscall    InvertRect
00006C24  285F                     movea.l    A4, [A7]+
00006C26  4E5E                     unlink     A6
00006C28  4E75                     rts
fn00006C2A:
00006C2A  4E56 FFF6                link       A6, -0x000A
00006C2E  48E7 0108                movem.l    -[A7], D7,A4
00006C32  4267                     clr.w      -[A7]
00006C34  2F2E 0008                move.l     -[A7], [A6 + 0x8]
00006C38  2F39 FFFF 7D64           move.l     -[A7], [0xFFFF7D64]
00006C3E  42A7                     clr.l      -[A7]
00006C40  A968                     syscall    TrackControl
00006C42  4A5F                     tst.w      [A7]+
00006C44  6732                     beq        +0x34 /* 00006C78 */
00006C46  7E00                     moveq.l    D7, 0x00
00006C48  287C FFFF ABA4           movea.l    A4, 0xFFFFABA4
00006C4E  6022                     bra        +0x24 /* 00006C72 */
label00006C50:
00006C50  2014                     move.l     D0, [A4]
00006C52  B0AE 0008                cmp.l      D0, [A6 + 0x8]
00006C56  6610                     bne        +0x12 /* 00006C68 */
00006C58  2F14                     move.l     -[A7], [A4]
00006C5A  3F3C 0001                move.w     -[A7], 0x1
00006C5E  A963                     syscall    SetControlValue/SetCtlValue
00006C60  33C7 FFFF AB84           move.w     [0xFFFFAB84], D7
00006C66  6006                     bra        +0x8 /* 00006C6E */
label00006C68:
00006C68  2F14                     move.l     -[A7], [A4]
00006C6A  4267                     clr.w      -[A7]
00006C6C  A963                     syscall    SetControlValue/SetCtlValue
label00006C6E:
00006C6E  5247                     addq.w     D7, 1
00006C70  588C                     addq.l     A4, 4
label00006C72:
00006C72  0C47 0003                cmpi.w     D7, 0x3
00006C76  6DD8                     blt        -0x26 /* 00006C50 */
label00006C78:
00006C78  4CDF 1080                movem.l    D7,A4, [A7]+
00006C7C  4E5E                     unlink     A6
00006C7E  4E75                     rts
export_17:
00006C80  4E56 FFF8                link       A6, -0x0008
00006C84  48E7 0718                movem.l    -[A7], D5,D6,D7,A3,A4
00006C88  3E39 FFFF AB82           move.w     D7, [0xFFFFAB82]
00006C8E  2F3C FFFF 7D64           move.l     -[A7], 0xFFFF7D64
00006C94  A871                     syscall    GlobalToLocal
00006C96  7C00                     moveq.l    D6, 0x00
00006C98  287C FFFF ABA0           movea.l    A4, 0xFFFFABA0
00006C9E  267C FFFF AB88           movea.l    A3, 0xFFFFAB88
00006CA4  6022                     bra        +0x24 /* 00006CC8 */
label00006CA6:
00006CA6  4227                     clr.b      -[A7]
00006CA8  2F39 FFFF 7D64           move.l     -[A7], [0xFFFF7D64]
00006CAE  2F0B                     move.l     -[A7], A3
00006CB0  A8AD                     syscall    PtInRect
00006CB2  4A1F                     tst.b      [A7]+
00006CB4  670C                     beq        +0xE /* 00006CC2 */
00006CB6  4A54                     tst.w      [A4]
00006CB8  6708                     beq        +0xA /* 00006CC2 */
00006CBA  3F06                     move.w     -[A7], D6
00006CBC  4EBA FF28                jsr        [PC - 0xD8 /* 00006BE6 */]
00006CC0  548F                     addq.l     A7, 2
label00006CC2:
00006CC2  5246                     addq.w     D6, 1
00006CC4  548C                     addq.l     A4, 2
00006CC6  508B                     addq.l     A3, 8
label00006CC8:
00006CC8  0C46 0002                cmpi.w     D6, 0x2
00006CCC  6DD8                     blt        -0x26 /* 00006CA6 */
00006CCE  7C00                     moveq.l    D6, 0x00
00006CD0  7A00                     moveq.l    D5, 0x00
00006CD2  6052                     bra        +0x54 /* 00006D26 */
label00006CD4:
00006CD4  7012                     moveq.l    D0, 0x12
00006CD6  D045                     add.w      D0, D5
00006CD8  B079 FFFF 7D64           cmp.w      D0, [0xFFFF7D64]
00006CDE  6C40                     bge        +0x42 /* 00006D20 */
00006CE0  7034                     moveq.l    D0, 0x34
00006CE2  D045                     add.w      D0, D5
00006CE4  B079 FFFF 7D64           cmp.w      D0, [0xFFFF7D64]
00006CEA  6F34                     ble        +0x36 /* 00006D20 */
00006CEC  0C79 014D FFFF 7D66      cmpi.w     [0xFFFF7D66], 0x14D
00006CF4  6F10                     ble        +0x12 /* 00006D06 */
00006CF6  0C79 016F FFFF 7D66      cmpi.w     [0xFFFF7D66], 0x16F
00006CFE  6C06                     bge        +0x8 /* 00006D06 */
00006D00  3E06                     move.w     D7, D6
00006D02  DE46                     add.w      D7, D6
00006D04  601A                     bra        +0x1C /* 00006D20 */
label00006D06:
00006D06  0C79 01B1 FFFF 7D66      cmpi.w     [0xFFFF7D66], 0x1B1
00006D0E  6F10                     ble        +0x12 /* 00006D20 */
00006D10  0C79 01D3 FFFF 7D66      cmpi.w     [0xFFFF7D66], 0x1D3
00006D18  6C06                     bge        +0x8 /* 00006D20 */
00006D1A  3E06                     move.w     D7, D6
00006D1C  DE46                     add.w      D7, D6
00006D1E  5247                     addq.w     D7, 1
label00006D20:
00006D20  5246                     addq.w     D6, 1
00006D22  0645 002D                addi.w     D5, 0x2D /* '-' */
label00006D26:
00006D26  0C46 0005                cmpi.w     D6, 0x5
00006D2A  6DA8                     blt        -0x56 /* 00006CD4 */
00006D2C  BE79 FFFF AB82           cmp.w      D7, [0xFFFFAB82]
00006D32  6766                     beq        +0x68 /* 00006D9A */
00006D34  3039 FFFF AB82           move.w     D0, [0xFFFFAB82]
00006D3A  48C0                     ext.l      D0
00006D3C  81FC 0002                divs.w     D0, 0x2
00006D40  C1FC 002D                muls.w     D0, 0x2D /* '-' */
00006D44  0640 0012                addi.w     D0, 0x12
00006D48  3D40 FFF8                move.w     [A6 - 0x8], D0
00006D4C  7022                     moveq.l    D0, 0x22
00006D4E  D06E FFF8                add.w      D0, [A6 - 0x8]
00006D52  3D40 FFFC                move.w     [A6 - 0x4], D0
00006D56  3039 FFFF AB82           move.w     D0, [0xFFFFAB82]
00006D5C  48C0                     ext.l      D0
00006D5E  81FC 0002                divs.w     D0, 0x2
00006D62  4840                     swap.w     D0
00006D64  C1FC 0064                muls.w     D0, 0x64 /* 'd' */
00006D68  0640 014D                addi.w     D0, 0x14D
00006D6C  3D40 FFFA                move.w     [A6 - 0x6], D0
00006D70  7022                     moveq.l    D0, 0x22
00006D72  D06E FFFA                add.w      D0, [A6 - 0x6]
00006D76  3D40 FFFE                move.w     [A6 - 0x2], D0
00006D7A  486E FFF8                pea.l      [A6 - 0x8]
00006D7E  A928                     syscall    InvalRect
00006D80  33C7 FFFF AB82           move.w     [0xFFFFAB82], D7
00006D86  4EBA F69C                jsr        [PC - 0x964 /* 00006424 */]
00006D8A  4EBA F490                jsr        [PC - 0xB70 /* 0000621C */]
00006D8E  2F39 FFFF 7D42           move.l     -[A7], [0xFFFF7D42]
00006D94  3F3C 0001                move.w     -[A7], 0x1
00006D98  A93A                     syscall    DisableItem
label00006D9A:
00006D9A  4CDF 18E0                movem.l    D5,D6,D7,A3,A4, [A7]+
00006D9E  4E5E                     unlink     A6
00006DA0  4E75                     rts
fn00006DA2:
00006DA2  4E56 FFF8                link       A6, -0x0008
00006DA6  48E7 0318                movem.l    -[A7], D6,D7,A3,A4
00006DAA  7E00                     moveq.l    D7, 0x00
00006DAC  287C FFFF AB98           movea.l    A4, 0xFFFFAB98
00006DB2  7C00                     moveq.l    D6, 0x00
00006DB4  267C FFFF AB88           movea.l    A3, 0xFFFFAB88
00006DBA  6038                     bra        +0x3A /* 00006DF4 */
label00006DBC:
00006DBC  2F0B                     move.l     -[A7], A3
00006DBE  7032                     moveq.l    D0, 0x32
00006DC0  D046                     add.w      D0, D6
00006DC2  3F00                     move.w     -[A7], D0
00006DC4  3F3C 00C8                move.w     -[A7], 0xC8
00006DC8  7052                     moveq.l    D0, 0x52
00006DCA  D046                     add.w      D0, D6
00006DCC  3F00                     move.w     -[A7], D0
00006DCE  3F3C 00E8                move.w     -[A7], 0xE8
00006DD2  A8A7                     syscall    SetRect
00006DD4  42A7                     clr.l      -[A7]
00006DD6  3007                     move.w     D0, D7
00006DD8  0640 0105                addi.w     D0, 0x105
00006DDC  3F00                     move.w     -[A7], D0
00006DDE  A9BB                     syscall    GetIcon
00006DE0  289F                     move.l     [A4], [A7]+
00006DE2  2054                     movea.l    A0, [A4]
00006DE4  A064                     syscall    MoveHHi
00006DE6  2054                     movea.l    A0, [A4]
00006DE8  A029                     syscall    HLock
00006DEA  5247                     addq.w     D7, 1
00006DEC  588C                     addq.l     A4, 4
00006DEE  0646 003C                addi.w     D6, 0x3C /* '<' */
00006DF2  508B                     addq.l     A3, 8
label00006DF4:
00006DF4  0C47 0002                cmpi.w     D7, 0x2
00006DF8  6DC2                     blt        -0x3C /* 00006DBC */
00006DFA  7E00                     moveq.l    D7, 0x00
00006DFC  287C FFFF ABA4           movea.l    A4, 0xFFFFABA4
00006E02  6072                     bra        +0x74 /* 00006E76 */
label00006E04:
00006E04  3D7C 00AA FFFA           move.w     [A6 - 0x6], 0xAA
00006E0A  3D7C 0122 FFFE           move.w     [A6 - 0x2], 0x122
00006E10  700F                     moveq.l    D0, 0x0F
00006E12  C1C7                     muls.w     D0, D7
00006E14  0640 00C8                addi.w     D0, 0xC8
00006E18  3D40 FFF8                move.w     [A6 - 0x8], D0
00006E1C  700F                     moveq.l    D0, 0x0F
00006E1E  D06E FFF8                add.w      D0, [A6 - 0x8]
00006E22  3D40 FFFC                move.w     [A6 - 0x4], D0
00006E26  42A7                     clr.l      -[A7]
00006E28  2F39 FFFF 7D56           move.l     -[A7], [0xFFFF7D56]
00006E2E  486E FFF8                pea.l      [A6 - 0x8]
00006E32  2F3C FFFF 9096           move.l     -[A7], 0xFFFF9096
00006E38  4227                     clr.b      -[A7]
00006E3A  BE79 FFFF AB84           cmp.w      D7, [0xFFFFAB84]
00006E40  57C0                     seq        D0
00006E42  4400                     neg.b      D0
00006E44  4880                     ext.w      D0
00006E46  3F00                     move.w     -[A7], D0
00006E48  2F3C 0001 0000           move.l     -[A7], 0x10000
00006E4E  3F3C 0002                move.w     -[A7], 0x2
00006E52  2F3C 4242 4242           move.l     -[A7], 0x42424242 /* 'BBBB' */
00006E58  A954                     syscall    NewControl
00006E5A  289F                     move.l     [A4], [A7]+
00006E5C  4A94                     tst.l      [A4]
00006E5E  6612                     bne        +0x14 /* 00006E72 */
00006E60  2F3C FFFF AD46           move.l     -[A7], 0xFFFFAD46
00006E66  2F3C FFFF AD48           move.l     -[A7], 0xFFFFAD48
00006E6C  4EAD 0222                jsr        [A5 + 0x222 /* export_64, CODE:2 @ 00004DCE */]
00006E70  508F                     addq.l     A7, 8
label00006E72:
00006E72  5247                     addq.w     D7, 1
00006E74  588C                     addq.l     A4, 4
label00006E76:
00006E76  0C47 0003                cmpi.w     D7, 0x3
00006E7A  6D88                     blt        -0x76 /* 00006E04 */
00006E7C  2F39 FFFF ABA4           move.l     -[A7], [0xFFFFABA4]
00006E82  2F3C FFFF AD62           move.l     -[A7], 0xFFFFAD62
00006E88  A95F                     syscall    SetControlTitle/SetCTitle
00006E8A  2F39 FFFF ABA8           move.l     -[A7], [0xFFFFABA8]
00006E90  2F3C FFFF AD68           move.l     -[A7], 0xFFFFAD68
00006E96  A95F                     syscall    SetControlTitle/SetCTitle
00006E98  2F39 FFFF ABAC           move.l     -[A7], [0xFFFFABAC]
00006E9E  2F3C FFFF AD6C           move.l     -[A7], 0xFFFFAD6C
00006EA4  A95F                     syscall    SetControlTitle/SetCTitle
00006EA6  4CDF 18C0                movem.l    D6,D7,A3,A4, [A7]+
00006EAA  4E5E                     unlink     A6
00006EAC  4E75                     rts
fn00006EAE:
00006EAE  33FC 0001 FFFF 9222      move.w     [0xFFFF9222], 0x1
00006EB6  2079 FFFF 7D56           movea.l    A0, [0xFFFF7D56]
00006EBC  4868 0010                pea.l      [A0 + 0x10]
00006EC0  A928                     syscall    InvalRect
00006EC2  2F39 FFFF 7D42           move.l     -[A7], [0xFFFF7D42]
00006EC8  3F3C 0001                move.w     -[A7], 0x1
00006ECC  A93A                     syscall    DisableItem
00006ECE  42B9 FFFF ABB0           clr.l      [0xFFFFABB0]
00006ED4  4279 FFFF 9238           clr.w      [0xFFFF9238]
00006EDA  4279 FFFF AB82           clr.w      [0xFFFFAB82]
00006EE0  33FC 0001 FFFF AB84      move.w     [0xFFFFAB84], 0x1
00006EE8  4EBA FEB8                jsr        [PC - 0x148 /* 00006DA2 */]
00006EEC  4EBA F3BE                jsr        [PC - 0xC42 /* 000062AC */]
00006EF0  4EBA F32A                jsr        [PC - 0xCD6 /* 0000621C */]
00006EF4  4E75                     rts
fn00006EF6:
00006EF6  4E56 FFF8                link       A6, -0x0008
00006EFA  48E7 0108                movem.l    -[A7], D7,A4
00006EFE  7E00                     moveq.l    D7, 0x00
00006F00  287C FFFF AB98           movea.l    A4, 0xFFFFAB98
00006F06  600C                     bra        +0xE /* 00006F14 */
label00006F08:
00006F08  2054                     movea.l    A0, [A4]
00006F0A  A02A                     syscall    HUnlock
00006F0C  2054                     movea.l    A0, [A4]
00006F0E  A049                     syscall    HPurge
00006F10  5247                     addq.w     D7, 1
00006F12  588C                     addq.l     A4, 4
label00006F14:
00006F14  0C47 0002                cmpi.w     D7, 0x2
00006F18  6DEE                     blt        -0x10 /* 00006F08 */
00006F1A  7E00                     moveq.l    D7, 0x00
00006F1C  287C FFFF ABA4           movea.l    A4, 0xFFFFABA4
00006F22  6028                     bra        +0x2A /* 00006F4C */
label00006F24:
00006F24  4A94                     tst.l      [A4]
00006F26  6720                     beq        +0x22 /* 00006F48 */
00006F28  2054                     movea.l    A0, [A4]
00006F2A  2050                     movea.l    A0, [A0]
00006F2C  2254                     movea.l    A1, [A4]
00006F2E  2251                     movea.l    A1, [A1]
00006F30  3368 0008 000C           move.w     [A1 + 0xC], [A0 + 0x8]
00006F36  2054                     movea.l    A0, [A4]
00006F38  2050                     movea.l    A0, [A0]
00006F3A  2254                     movea.l    A1, [A4]
00006F3C  2251                     movea.l    A1, [A1]
00006F3E  3368 000A 000E           move.w     [A1 + 0xE], [A0 + 0xA]
00006F44  2F14                     move.l     -[A7], [A4]
00006F46  A955                     syscall    DisposeControl
label00006F48:
00006F48  5247                     addq.w     D7, 1
00006F4A  588C                     addq.l     A4, 4
label00006F4C:
00006F4C  0C47 0003                cmpi.w     D7, 0x3
00006F50  6DD2                     blt        -0x2C /* 00006F24 */
00006F52  4A79 FFFF 9238           tst.w      [0xFFFF9238]
00006F58  6700 00DC                beq        +0xDE /* 00007036 */
00006F5C  41EE FFFC                lea.l      A0, [A6 - 0x4]
00006F60  20B8 020C                move.l     [A0], [0x0000020C /* Time */]
00006F64  303C 03C2                move.w     D0, 0x3C2
00006F68  C1F9 FFFF 9228           muls.w     D0, [0xFFFF9228]
00006F6E  2040                     movea.l    A0, D0
00006F70  D1FC FFFF 9764           add.l      A0, 0xFFFF9764
00006F76  3F10                     move.w     -[A7], [A0]
00006F78  4EAD 0262                jsr        [A5 + 0x262 /* export_72, CODE:2 @ 00005522 */]
00006F7C  303C 03C2                move.w     D0, 0x3C2
00006F80  C1F9 FFFF 9228           muls.w     D0, [0xFFFF9228]
00006F86  0680 FFFF 955E           addi.l     D0, 0xFFFF955E
00006F8C  2F00                     move.l     -[A7], D0
00006F8E  A9B1                     syscall    CreateResFile
00006F90  4257                     clr.w      [A7]
00006F92  303C 03C2                move.w     D0, 0x3C2
00006F96  C1F9 FFFF 9228           muls.w     D0, [0xFFFF9228]
00006F9C  0680 FFFF 955E           addi.l     D0, 0xFFFF955E
00006FA2  2F00                     move.l     -[A7], D0
00006FA4  A997                     syscall    OpenResFile
00006FA6  3E1F                     move.w     D7, [A7]+
00006FA8  0C47 FFFF                cmpi.w     D7, 0xFFFF
00006FAC  6614                     bne        +0x16 /* 00006FC2 */
00006FAE  2F3C FFFF AD70           move.l     -[A7], 0xFFFFAD70
00006FB4  2F3C FFFF AD72           move.l     -[A7], 0xFFFFAD72
00006FBA  4EAD 0222                jsr        [A5 + 0x222 /* export_64, CODE:2 @ 00004DCE */]
00006FBE  508F                     addq.l     A7, 8
00006FC0  6070                     bra        +0x72 /* 00007032 */
label00006FC2:
00006FC2  42A7                     clr.l      -[A7]
00006FC4  2F3C 4441 5445           move.l     -[A7], 0x44415445 /* 'DATE' */
00006FCA  3F3C 03EC                move.w     -[A7], 0x3EC
00006FCE  A9A0                     syscall    GetResource
00006FD0  285F                     movea.l    A4, [A7]+
00006FD2  200C                     move.l     D0, A4
00006FD4  6720                     beq        +0x22 /* 00006FF6 */
00006FD6  2F0C                     move.l     -[A7], A4
00006FD8  A9AD                     syscall    RemoveResource/RmveResource
00006FDA  4A78 0A60                tst.w      [0x00000A60 /* ResErr */]
00006FDE  6712                     beq        +0x14 /* 00006FF2 */
00006FE0  2F3C FFFF AD90           move.l     -[A7], 0xFFFFAD90
00006FE6  2F3C FFFF AD92           move.l     -[A7], 0xFFFFAD92
00006FEC  4EAD 0222                jsr        [A5 + 0x222 /* export_64, CODE:2 @ 00004DCE */]
00006FF0  508F                     addq.l     A7, 8
label00006FF2:
00006FF2  204C                     movea.l    A0, A4
00006FF4  A023                     syscall    DisposHandle/DisposeHandle
label00006FF6:
00006FF6  7004                     moveq.l    D0, 0x04
00006FF8  A122                     syscall    NewHandle, flags=1
00006FFA  2848                     movea.l    A4, A0
00006FFC  2054                     movea.l    A0, [A4]
00006FFE  20AE FFFC                move.l     [A0], [A6 - 0x4]
00007002  2F0C                     move.l     -[A7], A4
00007004  2F3C 4441 5445           move.l     -[A7], 0x44415445 /* 'DATE' */
0000700A  3F3C 03EC                move.w     -[A7], 0x3EC
0000700E  2F3C FFFF ADAA           move.l     -[A7], 0xFFFFADAA
00007014  A9AB                     syscall    AddResource
00007016  4A78 0A60                tst.w      [0x00000A60 /* ResErr */]
0000701A  6712                     beq        +0x14 /* 0000702E */
0000701C  2F3C FFFF ADB4           move.l     -[A7], 0xFFFFADB4
00007022  2F3C FFFF ADB6           move.l     -[A7], 0xFFFFADB6
00007028  4EAD 0222                jsr        [A5 + 0x222 /* export_64, CODE:2 @ 00004DCE */]
0000702C  508F                     addq.l     A7, 8
label0000702E:
0000702E  3F07                     move.w     -[A7], D7
00007030  A99A                     syscall    CloseResFile
label00007032:
00007032  4EAD 026A                jsr        [A5 + 0x26A /* export_73, CODE:2 @ 0000554A */]
label00007036:
00007036  43EE FFF8                lea.l      A1, [A6 - 0x8]
0000703A  A11D                     syscall    MaxMem, flags=1
0000703C  2288                     move.l     [A1], A0
0000703E  4CDF 1080                movem.l    D7,A4, [A7]+
00007042  4E5E                     unlink     A6
00007044  4E75                     rts
fn00007046:
00007046  2F07                     move.l     -[A7], D7
00007048  303C 03C2                move.w     D0, 0x3C2
0000704C  C1F9 FFFF 9228           muls.w     D0, [0xFFFF9228]
00007052  2040                     movea.l    A0, D0
00007054  D1FC FFFF 9792           add.l      A0, 0xFFFF9792
0000705A  3039 FFFF AB82           move.w     D0, [0xFFFFAB82]
00007060  48C0                     ext.l      D0
00007062  E588                     lsl        D0, 2
00007064  4AB0 0800                tst.l      [A0 + D0]
00007068  660A                     bne        +0xC /* 00007074 */
0000706A  3F3C 0001                move.w     -[A7], 0x1
0000706E  A9C8                     syscall    SysBeep
00007070  6000 00E4                bra        +0xE6 /* 00007156 */
label00007074:
00007074  3F39 FFFF AB82           move.w     -[A7], [0xFFFFAB82]
0000707A  3F39 FFFF 9228           move.w     -[A7], [0xFFFF9228]
00007080  4EBA F254                jsr        [PC - 0xDAC /* 000062D6 */]
00007084  303C 03C2                move.w     D0, 0x3C2
00007088  C1F9 FFFF 9228           muls.w     D0, [0xFFFF9228]
0000708E  2040                     movea.l    A0, D0
00007090  D1FC FFFF 9792           add.l      A0, 0xFFFF9792
00007096  3039 FFFF AB82           move.w     D0, [0xFFFFAB82]
0000709C  48C0                     ext.l      D0
0000709E  E588                     lsl        D0, 2
000070A0  2070 0800                movea.l    A0, [A0 + D0]
000070A4  A029                     syscall    HLock
000070A6  4297                     clr.l      [A7]
000070A8  A9FC                     syscall    ZeroScrap
000070AA  4A9F                     tst.l      [A7]+
000070AC  6712                     beq        +0x14 /* 000070C0 */
000070AE  2F3C FFFF ADD2           move.l     -[A7], 0xFFFFADD2
000070B4  2F3C FFFF ADD4           move.l     -[A7], 0xFFFFADD4
000070BA  4EAD 0222                jsr        [A5 + 0x222 /* export_64, CODE:2 @ 00004DCE */]
000070BE  508F                     addq.l     A7, 8
label000070C0:
000070C0  42A7                     clr.l      -[A7]
000070C2  303C 03C2                move.w     D0, 0x3C2
000070C6  C1F9 FFFF 9228           muls.w     D0, [0xFFFF9228]
000070CC  2040                     movea.l    A0, D0
000070CE  D1FC FFFF 9792           add.l      A0, 0xFFFF9792
000070D4  3039 FFFF AB82           move.w     D0, [0xFFFFAB82]
000070DA  48C0                     ext.l      D0
000070DC  E588                     lsl        D0, 2
000070DE  2F30 0800                move.l     -[A7], [A0 + D0]
000070E2  4EAD 03BA                jsr        [A5 + 0x3BA /* export_115, CODE:7 @ 0000272A */]
000070E6  2E1F                     move.l     D7, [A7]+
000070E8  42A7                     clr.l      -[A7]
000070EA  2F07                     move.l     -[A7], D7
000070EC  2F3C 736E 6420           move.l     -[A7], 0x736E6420 /* 'snd ' */
000070F2  303C 03C2                move.w     D0, 0x3C2
000070F6  C1F9 FFFF 9228           muls.w     D0, [0xFFFF9228]
000070FC  2040                     movea.l    A0, D0
000070FE  D1FC FFFF 9792           add.l      A0, 0xFFFF9792
00007104  3039 FFFF AB82           move.w     D0, [0xFFFFAB82]
0000710A  48C0                     ext.l      D0
0000710C  E588                     lsl        D0, 2
0000710E  2070 0800                movea.l    A0, [A0 + D0]
00007112  2F10                     move.l     -[A7], [A0]
00007114  A9FE                     syscall    PutScrap
00007116  4A9F                     tst.l      [A7]+
00007118  6706                     beq        +0x8 /* 00007120 */
0000711A  3F3C 0001                move.w     -[A7], 0x1
0000711E  A9C8                     syscall    SysBeep
label00007120:
00007120  303C 03C2                move.w     D0, 0x3C2
00007124  C1F9 FFFF 9228           muls.w     D0, [0xFFFF9228]
0000712A  2040                     movea.l    A0, D0
0000712C  D1FC FFFF 9792           add.l      A0, 0xFFFF9792
00007132  3039 FFFF AB82           move.w     D0, [0xFFFFAB82]
00007138  48C0                     ext.l      D0
0000713A  E588                     lsl        D0, 2
0000713C  2070 0800                movea.l    A0, [A0 + D0]
00007140  A02A                     syscall    HUnlock
00007142  4A78 0220                tst.w      [0x00000220 /* MemErr */]
00007146  6706                     beq        +0x8 /* 0000714E */
00007148  3F3C 0001                move.w     -[A7], 0x1
0000714C  A9C8                     syscall    SysBeep
label0000714E:
0000714E  33FC 0001 FFFF AB86      move.w     [0xFFFFAB86], 0x1
label00007156:
00007156  4EBA F0C4                jsr        [PC - 0xF3C /* 0000621C */]
0000715A  2E1F                     move.l     D7, [A7]+
0000715C  4E75                     rts
fn0000715E:
0000715E  4E56 FFE6                link       A6, -0x001A
00007162  48E7 0318                movem.l    -[A7], D6,D7,A3,A4
00007166  286E 0008                movea.l    A4, [A6 + 0x8]
0000716A  42A7                     clr.l      -[A7]
0000716C  42A7                     clr.l      -[A7]
0000716E  2F3C 736E 6420           move.l     -[A7], 0x736E6420 /* 'snd ' */
00007174  486E FFFC                pea.l      [A6 - 0x4]
00007178  A9FD                     syscall    GetScrap
0000717A  2E1F                     move.l     D7, [A7]+
0000717C  4A87                     tst.l      D7
0000717E  6C06                     bge        +0x8 /* 00007186 */
00007180  200C                     move.l     D0, A4
00007182  6700 0316                beq        +0x318 /* 0000749A */
label00007186:
00007186  43EE FFFC                lea.l      A1, [A6 - 0x4]
0000718A  A11D                     syscall    MaxMem, flags=1
0000718C  2288                     move.l     [A1], A0
0000718E  2C00                     move.l     D6, D0
00007190  2D7C CCCC CCCD FFF4      move.l     [A6 - 0xC], 0xCCCCCCCD
00007198  2D7C 8CCC CCCC FFF0      move.l     [A6 - 0x10], 0x8CCCCCCC
000071A0  3D7C 4000 FFEE           move.w     [A6 - 0x12], 0x4000 /* '@\0' */
000071A6  2D47 FFEA                move.l     [A6 - 0x16], D7
000071AA  486E FFEA                pea.l      [A6 - 0x16]
000071AE  486E FFEE                pea.l      [A6 - 0x12]
000071B2  3F3C 2804                move.w     -[A7], 0x2804
000071B6  A9EB                     syscall    Pack4/FP68K
000071B8  2D46 FFE6                move.l     [A6 - 0x1A], D6
000071BC  486E FFE6                pea.l      [A6 - 0x1A]
000071C0  486E FFEE                pea.l      [A6 - 0x12]
000071C4  3F3C 2808                move.w     -[A7], 0x2808
000071C8  A9EB                     syscall    Pack4/FP68K
000071CA  6F16                     ble        +0x18 /* 000071E2 */
000071CC  2F3C FFFF ADEA           move.l     -[A7], 0xFFFFADEA
000071D2  2F3C FFFF ADFC           move.l     -[A7], 0xFFFFADFC
000071D8  4EAD 0222                jsr        [A5 + 0x222 /* export_64, CODE:2 @ 00004DCE */]
000071DC  508F                     addq.l     A7, 8
000071DE  6000 02C0                bra        +0x2C2 /* 000074A0 */
label000071E2:
000071E2  303C 03C2                move.w     D0, 0x3C2
000071E6  C1F9 FFFF 9228           muls.w     D0, [0xFFFF9228]
000071EC  2040                     movea.l    A0, D0
000071EE  D1FC FFFF 9792           add.l      A0, 0xFFFF9792
000071F4  3039 FFFF AB82           move.w     D0, [0xFFFFAB82]
000071FA  48C0                     ext.l      D0
000071FC  E588                     lsl        D0, 2
000071FE  4AB0 0800                tst.l      [A0 + D0]
00007202  6712                     beq        +0x14 /* 00007216 */
00007204  3F39 FFFF AB82           move.w     -[A7], [0xFFFFAB82]
0000720A  3F39 FFFF 9228           move.w     -[A7], [0xFFFF9228]
00007210  4EBA F0C4                jsr        [PC - 0xF3C /* 000062D6 */]
00007214  588F                     addq.l     A7, 4
label00007216:
00007216  4EBA F1B8                jsr        [PC - 0xE48 /* 000063D0 */]
0000721A  303C 03C2                move.w     D0, 0x3C2
0000721E  C1F9 FFFF 9228           muls.w     D0, [0xFFFF9228]
00007224  2040                     movea.l    A0, D0
00007226  D1FC FFFF 9764           add.l      A0, 0xFFFF9764
0000722C  3F10                     move.w     -[A7], [A0]
0000722E  4EAD 0262                jsr        [A5 + 0x262 /* export_72, CODE:2 @ 00005522 */]
00007232  303C 03C2                move.w     D0, 0x3C2
00007236  C1F9 FFFF 9228           muls.w     D0, [0xFFFF9228]
0000723C  0680 FFFF 955E           addi.l     D0, 0xFFFF955E
00007242  2F00                     move.l     -[A7], D0
00007244  A9B1                     syscall    CreateResFile
00007246  4257                     clr.w      [A7]
00007248  303C 03C2                move.w     D0, 0x3C2
0000724C  C1F9 FFFF 9228           muls.w     D0, [0xFFFF9228]
00007252  0680 FFFF 955E           addi.l     D0, 0xFFFF955E
00007258  2F00                     move.l     -[A7], D0
0000725A  A997                     syscall    OpenResFile
0000725C  3C1F                     move.w     D6, [A7]+
0000725E  0C46 FFFF                cmpi.w     D6, 0xFFFF
00007262  6616                     bne        +0x18 /* 0000727A */
00007264  2F3C FFFF AE0C           move.l     -[A7], 0xFFFFAE0C
0000726A  2F3C FFFF AE0E           move.l     -[A7], 0xFFFFAE0E
00007270  4EAD 0222                jsr        [A5 + 0x222 /* export_64, CODE:2 @ 00004DCE */]
00007274  508F                     addq.l     A7, 8
00007276  6000 020C                bra        +0x20E /* 00007484 */
label0000727A:
0000727A  303C 03C2                move.w     D0, 0x3C2
0000727E  C1F9 FFFF 9228           muls.w     D0, [0xFFFF9228]
00007284  2640                     movea.l    A3, D0
00007286  D7FC FFFF 9792           add.l      A3, 0xFFFF9792
0000728C  3039 FFFF AB82           move.w     D0, [0xFFFFAB82]
00007292  48C0                     ext.l      D0
00007294  E588                     lsl        D0, 2
00007296  D08B                     add.l      D0, A3
00007298  2640                     movea.l    A3, D0
0000729A  4A93                     tst.l      [A3]
0000729C  6700 0096                beq        +0x98 /* 00007334 */
000072A0  42A7                     clr.l      -[A7]
000072A2  2F3C 736E 6420           move.l     -[A7], 0x736E6420 /* 'snd ' */
000072A8  3039 FFFF AB82           move.w     D0, [0xFFFFAB82]
000072AE  0640 07D0                addi.w     D0, 0x7D0
000072B2  3F00                     move.w     -[A7], D0
000072B4  A9A0                     syscall    GetResource
000072B6  265F                     movea.l    A3, [A7]+
000072B8  2F0B                     move.l     -[A7], A3
000072BA  A9AD                     syscall    RemoveResource/RmveResource
000072BC  4A78 0A60                tst.w      [0x00000A60 /* ResErr */]
000072C0  6712                     beq        +0x14 /* 000072D4 */
000072C2  2F3C FFFF AE2C           move.l     -[A7], 0xFFFFAE2C
000072C8  2F3C FFFF AE2E           move.l     -[A7], 0xFFFFAE2E
000072CE  4EAD 0222                jsr        [A5 + 0x222 /* export_64, CODE:2 @ 00004DCE */]
000072D2  508F                     addq.l     A7, 8
label000072D4:
000072D4  204B                     movea.l    A0, A3
000072D6  A023                     syscall    DisposHandle/DisposeHandle
000072D8  4A78 0220                tst.w      [0x00000220 /* MemErr */]
000072DC  6706                     beq        +0x8 /* 000072E4 */
000072DE  3F3C 0001                move.w     -[A7], 0x1
000072E2  A9C8                     syscall    SysBeep
label000072E4:
000072E4  303C 03C2                move.w     D0, 0x3C2
000072E8  C1F9 FFFF 9228           muls.w     D0, [0xFFFF9228]
000072EE  2040                     movea.l    A0, D0
000072F0  D1FC FFFF 9792           add.l      A0, 0xFFFF9792
000072F6  3039 FFFF AB82           move.w     D0, [0xFFFFAB82]
000072FC  48C0                     ext.l      D0
000072FE  E588                     lsl        D0, 2
00007300  2070 0800                movea.l    A0, [A0 + D0]
00007304  A023                     syscall    DisposHandle/DisposeHandle
00007306  4A78 0220                tst.w      [0x00000220 /* MemErr */]
0000730A  6706                     beq        +0x8 /* 00007312 */
0000730C  3F3C 0001                move.w     -[A7], 0x1
00007310  A9C8                     syscall    SysBeep
label00007312:
00007312  303C 03C2                move.w     D0, 0x3C2
00007316  C1F9 FFFF 9228           muls.w     D0, [0xFFFF9228]
0000731C  2640                     movea.l    A3, D0
0000731E  D7FC FFFF 9792           add.l      A3, 0xFFFF9792
00007324  3039 FFFF AB82           move.w     D0, [0xFFFFAB82]
0000732A  48C0                     ext.l      D0
0000732C  E588                     lsl        D0, 2
0000732E  D08B                     add.l      D0, A3
00007330  2640                     movea.l    A3, D0
00007332  4293                     clr.l      [A3]
label00007334:
00007334  200C                     move.l     D0, A4
00007336  6662                     bne        +0x64 /* 0000739A */
00007338  2007                     move.l     D0, D7
0000733A  A122                     syscall    NewHandle, flags=1
0000733C  303C 03C2                move.w     D0, 0x3C2
00007340  C1F9 FFFF 9228           muls.w     D0, [0xFFFF9228]
00007346  2240                     movea.l    A1, D0
00007348  D3FC FFFF 9792           add.l      A1, 0xFFFF9792
0000734E  3039 FFFF AB82           move.w     D0, [0xFFFFAB82]
00007354  48C0                     ext.l      D0
00007356  E588                     lsl        D0, 2
00007358  2388 0800                move.l     [A1 + D0], A0
0000735C  4A78 0220                tst.w      [0x00000220 /* MemErr */]
00007360  6706                     beq        +0x8 /* 00007368 */
00007362  3F3C 0001                move.w     -[A7], 0x1
00007366  A9C8                     syscall    SysBeep
label00007368:
00007368  42A7                     clr.l      -[A7]
0000736A  303C 03C2                move.w     D0, 0x3C2
0000736E  C1F9 FFFF 9228           muls.w     D0, [0xFFFF9228]
00007374  2040                     movea.l    A0, D0
00007376  D1FC FFFF 9792           add.l      A0, 0xFFFF9792
0000737C  3039 FFFF AB82           move.w     D0, [0xFFFFAB82]
00007382  48C0                     ext.l      D0
00007384  E588                     lsl        D0, 2
00007386  2F30 0800                move.l     -[A7], [A0 + D0]
0000738A  2F3C 736E 6420           move.l     -[A7], 0x736E6420 /* 'snd ' */
00007390  486E FFFC                pea.l      [A6 - 0x4]
00007394  A9FD                     syscall    GetScrap
00007396  2E1F                     move.l     D7, [A7]+
00007398  6034                     bra        +0x36 /* 000073CE */
label0000739A:
0000739A  268C                     move.l     [A3], A4
0000739C  4267                     clr.w      -[A7]
0000739E  303C 03C2                move.w     D0, 0x3C2
000073A2  C1F9 FFFF 9228           muls.w     D0, [0xFFFF9228]
000073A8  2040                     movea.l    A0, D0
000073AA  D1FC FFFF 9792           add.l      A0, 0xFFFF9792
000073B0  3039 FFFF AB82           move.w     D0, [0xFFFFAB82]
000073B6  48C0                     ext.l      D0
000073B8  E588                     lsl        D0, 2
000073BA  4870 0800                pea.l      [A0 + D0]
000073BE  4EAD 0452                jsr        [A5 + 0x452 /* export_134, CODE:7 @ 000029AC */]
000073C2  3E1F                     move.w     D7, [A7]+
000073C4  4A47                     tst.w      D7
000073C6  6706                     beq        +0x8 /* 000073CE */
000073C8  3F3C 0001                move.w     -[A7], 0x1
000073CC  A9C8                     syscall    SysBeep
label000073CE:
000073CE  33FC 0001 FFFF AB86      move.w     [0xFFFFAB86], 0x1
000073D6  303C 03C2                move.w     D0, 0x3C2
000073DA  C1F9 FFFF 9228           muls.w     D0, [0xFFFF9228]
000073E0  2040                     movea.l    A0, D0
000073E2  D1FC FFFF 9792           add.l      A0, 0xFFFF9792
000073E8  3039 FFFF AB82           move.w     D0, [0xFFFFAB82]
000073EE  48C0                     ext.l      D0
000073F0  E588                     lsl        D0, 2
000073F2  2D70 0800 FFF8           move.l     [A6 - 0x8], [A0 + D0]
000073F8  4267                     clr.w      -[A7]
000073FA  486E FFF8                pea.l      [A6 - 0x8]
000073FE  4EAD 0452                jsr        [A5 + 0x452 /* export_134, CODE:7 @ 000029AC */]
00007402  4A5F                     tst.w      [A7]+
00007404  6706                     beq        +0x8 /* 0000740C */
00007406  3F3C 0001                move.w     -[A7], 0x1
0000740A  A9C8                     syscall    SysBeep
label0000740C:
0000740C  2F2E FFF8                move.l     -[A7], [A6 - 0x8]
00007410  2F3C 736E 6420           move.l     -[A7], 0x736E6420 /* 'snd ' */
00007416  3039 FFFF AB82           move.w     D0, [0xFFFFAB82]
0000741C  0640 07D0                addi.w     D0, 0x7D0
00007420  3F00                     move.w     -[A7], D0
00007422  2F3C FFFF 9096           move.l     -[A7], 0xFFFF9096
00007428  A9AB                     syscall    AddResource
0000742A  4A78 0A60                tst.w      [0x00000A60 /* ResErr */]
0000742E  6712                     beq        +0x14 /* 00007442 */
00007430  2F3C FFFF AE50           move.l     -[A7], 0xFFFFAE50
00007436  2F3C FFFF AE52           move.l     -[A7], 0xFFFFAE52
0000743C  4EAD 0222                jsr        [A5 + 0x222 /* export_64, CODE:2 @ 00004DCE */]
00007440  508F                     addq.l     A7, 8
label00007442:
00007442  2F2E FFF8                move.l     -[A7], [A6 - 0x8]
00007446  3F3C 0020                move.w     -[A7], 0x20 /* ' ' */
0000744A  A9A7                     syscall    SetResAttrs
0000744C  2F2E FFF8                move.l     -[A7], [A6 - 0x8]
00007450  A9AA                     syscall    ChangedResource
00007452  3F06                     move.w     -[A7], D6
00007454  A999                     syscall    UpdateResFile
00007456  303C 03C2                move.w     D0, 0x3C2
0000745A  C1F9 FFFF 9228           muls.w     D0, [0xFFFF9228]
00007460  2040                     movea.l    A0, D0
00007462  D1FC FFFF 9792           add.l      A0, 0xFFFF9792
00007468  3039 FFFF AB82           move.w     D0, [0xFFFFAB82]
0000746E  48C0                     ext.l      D0
00007470  E588                     lsl        D0, 2
00007472  2070 0800                movea.l    A0, [A0 + D0]
00007476  A049                     syscall    HPurge
00007478  2F39 FFFF 7D42           move.l     -[A7], [0xFFFF7D42]
0000747E  3F3C 0001                move.w     -[A7], 0x1
00007482  A939                     syscall    EnableItem
label00007484:
00007484  3F06                     move.w     -[A7], D6
00007486  A99A                     syscall    CloseResFile
00007488  4EAD 026A                jsr        [A5 + 0x26A /* export_73, CODE:2 @ 0000554A */]
0000748C  4EBA EF96                jsr        [PC - 0x106A /* 00006424 */]
00007490  33FC 0001 FFFF 9238      move.w     [0xFFFF9238], 0x1
00007498  6006                     bra        +0x8 /* 000074A0 */
label0000749A:
0000749A  4279 FFFF AB86           clr.w      [0xFFFFAB86]
label000074A0:
000074A0  4EBA ED7A                jsr        [PC - 0x1286 /* 0000621C */]
000074A4  4CDF 18C0                movem.l    D6,D7,A3,A4, [A7]+
000074A8  4E5E                     unlink     A6
000074AA  4E75                     rts
fn000074AC:
000074AC  48E7 0108                movem.l    -[A7], D7,A4
000074B0  303C 03C2                move.w     D0, 0x3C2
000074B4  C1F9 FFFF 9228           muls.w     D0, [0xFFFF9228]
000074BA  2040                     movea.l    A0, D0
000074BC  D1FC FFFF 9792           add.l      A0, 0xFFFF9792
000074C2  3039 FFFF AB82           move.w     D0, [0xFFFFAB82]
000074C8  48C0                     ext.l      D0
000074CA  E588                     lsl        D0, 2
000074CC  4AB0 0800                tst.l      [A0 + D0]
000074D0  660A                     bne        +0xC /* 000074DC */
000074D2  3F3C 0001                move.w     -[A7], 0x1
000074D6  A9C8                     syscall    SysBeep
000074D8  6000 012C                bra        +0x12E /* 00007606 */
label000074DC:
000074DC  3F39 FFFF AB82           move.w     -[A7], [0xFFFFAB82]
000074E2  3F39 FFFF 9228           move.w     -[A7], [0xFFFF9228]
000074E8  4EBA EDEC                jsr        [PC - 0x1214 /* 000062D6 */]
000074EC  4EBA EEE2                jsr        [PC - 0x111E /* 000063D0 */]
000074F0  303C 03C2                move.w     D0, 0x3C2
000074F4  C1F9 FFFF 9228           muls.w     D0, [0xFFFF9228]
000074FA  2040                     movea.l    A0, D0
000074FC  D1FC FFFF 9764           add.l      A0, 0xFFFF9764
00007502  3E90                     move.w     [A7], [A0]
00007504  4EAD 0262                jsr        [A5 + 0x262 /* export_72, CODE:2 @ 00005522 */]
00007508  303C 03C2                move.w     D0, 0x3C2
0000750C  C1F9 FFFF 9228           muls.w     D0, [0xFFFF9228]
00007512  0680 FFFF 955E           addi.l     D0, 0xFFFF955E
00007518  2E80                     move.l     [A7], D0
0000751A  A9B1                     syscall    CreateResFile
0000751C  4267                     clr.w      -[A7]
0000751E  303C 03C2                move.w     D0, 0x3C2
00007522  C1F9 FFFF 9228           muls.w     D0, [0xFFFF9228]
00007528  0680 FFFF 955E           addi.l     D0, 0xFFFF955E
0000752E  2F00                     move.l     -[A7], D0
00007530  A997                     syscall    OpenResFile
00007532  3E1F                     move.w     D7, [A7]+
00007534  0C47 FFFF                cmpi.w     D7, 0xFFFF
00007538  6616                     bne        +0x18 /* 00007550 */
0000753A  2F3C FFFF AE70           move.l     -[A7], 0xFFFFAE70
00007540  2F3C FFFF AE72           move.l     -[A7], 0xFFFFAE72
00007546  4EAD 0222                jsr        [A5 + 0x222 /* export_64, CODE:2 @ 00004DCE */]
0000754A  508F                     addq.l     A7, 8
0000754C  6000 0094                bra        +0x96 /* 000075E2 */
label00007550:
00007550  42A7                     clr.l      -[A7]
00007552  2F3C 736E 6420           move.l     -[A7], 0x736E6420 /* 'snd ' */
00007558  3039 FFFF AB82           move.w     D0, [0xFFFFAB82]
0000755E  0640 07D0                addi.w     D0, 0x7D0
00007562  3F00                     move.w     -[A7], D0
00007564  A9A0                     syscall    GetResource
00007566  285F                     movea.l    A4, [A7]+
00007568  2F0C                     move.l     -[A7], A4
0000756A  A9AD                     syscall    RemoveResource/RmveResource
0000756C  4A78 0A60                tst.w      [0x00000A60 /* ResErr */]
00007570  6712                     beq        +0x14 /* 00007584 */
00007572  2F3C FFFF AE90           move.l     -[A7], 0xFFFFAE90
00007578  2F3C FFFF AE92           move.l     -[A7], 0xFFFFAE92
0000757E  4EAD 0222                jsr        [A5 + 0x222 /* export_64, CODE:2 @ 00004DCE */]
00007582  508F                     addq.l     A7, 8
label00007584:
00007584  204C                     movea.l    A0, A4
00007586  A023                     syscall    DisposHandle/DisposeHandle
00007588  4A78 0220                tst.w      [0x00000220 /* MemErr */]
0000758C  6706                     beq        +0x8 /* 00007594 */
0000758E  3F3C 0001                move.w     -[A7], 0x1
00007592  A9C8                     syscall    SysBeep
label00007594:
00007594  303C 03C2                move.w     D0, 0x3C2
00007598  C1F9 FFFF 9228           muls.w     D0, [0xFFFF9228]
0000759E  2040                     movea.l    A0, D0
000075A0  D1FC FFFF 9792           add.l      A0, 0xFFFF9792
000075A6  3039 FFFF AB82           move.w     D0, [0xFFFFAB82]
000075AC  48C0                     ext.l      D0
000075AE  E588                     lsl        D0, 2
000075B0  2070 0800                movea.l    A0, [A0 + D0]
000075B4  A023                     syscall    DisposHandle/DisposeHandle
000075B6  4A78 0220                tst.w      [0x00000220 /* MemErr */]
000075BA  6706                     beq        +0x8 /* 000075C2 */
000075BC  3F3C 0001                move.w     -[A7], 0x1
000075C0  A9C8                     syscall    SysBeep
label000075C2:
000075C2  303C 03C2                move.w     D0, 0x3C2
000075C6  C1F9 FFFF 9228           muls.w     D0, [0xFFFF9228]
000075CC  2040                     movea.l    A0, D0
000075CE  D1FC FFFF 9792           add.l      A0, 0xFFFF9792
000075D4  3039 FFFF AB82           move.w     D0, [0xFFFFAB82]
000075DA  48C0                     ext.l      D0
000075DC  E588                     lsl        D0, 2
000075DE  42B0 0800                clr.l      [A0 + D0]
label000075E2:
000075E2  4EBA EE40                jsr        [PC - 0x11C0 /* 00006424 */]
000075E6  4EBA B4D6                jsr        [PC - 0x4B2A /* 00002ABE */]
000075EA  33FC 0001 FFFF 9238      move.w     [0xFFFF9238], 0x1
000075F2  3F07                     move.w     -[A7], D7
000075F4  A99A                     syscall    CloseResFile
000075F6  4EAD 026A                jsr        [A5 + 0x26A /* export_73, CODE:2 @ 0000554A */]
000075FA  2F39 FFFF 7D42           move.l     -[A7], [0xFFFF7D42]
00007600  3F3C 0001                move.w     -[A7], 0x1
00007604  A939                     syscall    EnableItem
label00007606:
00007606  4EBA EC14                jsr        [PC - 0x13EC /* 0000621C */]
0000760A  4CDF 1080                movem.l    D7,A4, [A7]+
0000760E  4E75                     rts
fn00007610:
00007610  4EBA FA34                jsr        [PC - 0x5CC /* 00007046 */]
00007614  4EBA FE96                jsr        [PC - 0x16A /* 000074AC */]
00007618  4E75                     rts
fn0000761A:
0000761A  4E56 FFFC                link       A6, -0x0004
0000761E  4AB9 FFFF ABB0           tst.l      [0xFFFFABB0]
00007624  6606                     bne        +0x8 /* 0000762C */
00007626  4EBA FE84                jsr        [PC - 0x17C /* 000074AC */]
0000762A  6022                     bra        +0x24 /* 0000764E */
label0000762C:
0000762C  2D79 FFFF ABB0 FFFC      move.l     [A6 - 0x4], [0xFFFFABB0]
00007634  4267                     clr.w      -[A7]
00007636  486E FFFC                pea.l      [A6 - 0x4]
0000763A  4EAD 0452                jsr        [A5 + 0x452 /* export_134, CODE:7 @ 000029AC */]
0000763E  2F2E FFFC                move.l     -[A7], [A6 - 0x4]
00007642  4EBA FB1A                jsr        [PC - 0x4E6 /* 0000715E */]
00007646  206E FFFC                movea.l    A0, [A6 - 0x4]
0000764A  A023                     syscall    DisposHandle/DisposeHandle
0000764C  5C8F                     addq.l     A7, 6
label0000764E:
0000764E  4E5E                     unlink     A6
00007650  4E75                     rts
