# near model CODE resource
# jump table entries: 32863-65642 (32780 of them)
fn00000000:
00000000  4E56 FFFE                link       A6, -0x0002
00000004  2F0C                     move.l     -[A7], A4
00000006  2F3C FFFF E89E           move.l     -[A7], 0xFFFFE89E
0000000C  4EAD 0482                jsr        [A5 + 0x482 /* export_140, CODE:7 @ 0000237C */]
00000010  4A79 FFFF E88E           tst.w      [0xFFFFE88E]
00000016  588F                     addq.l     A7, 4
00000018  671C                     beq        +0x1E /* 00000036 */
0000001A  2F3C FFFF E99E           move.l     -[A7], 0xFFFFE99E
00000020  2F3C FFFF E89E           move.l     -[A7], 0xFFFFE89E
00000026  2F3C FFFF 9096           move.l     -[A7], 0xFFFF9096
0000002C  2F3C FFFF 9096           move.l     -[A7], 0xFFFF9096
00000032  A98B                     syscall    ParamText
00000034  603E                     bra        +0x40 /* 00000074 */
label00000036:
00000036  4A79 FFFF E892           tst.w      [0xFFFFE892]
0000003C  671C                     beq        +0x1E /* 0000005A */
0000003E  2F3C FFFF E9C2           move.l     -[A7], 0xFFFFE9C2
00000044  2F3C FFFF E9E2           move.l     -[A7], 0xFFFFE9E2
0000004A  2F3C FFFF 9096           move.l     -[A7], 0xFFFF9096
00000050  2F3C FFFF 9096           move.l     -[A7], 0xFFFF9096
00000056  A98B                     syscall    ParamText
00000058  601A                     bra        +0x1C /* 00000074 */
label0000005A:
0000005A  2F3C FFFF EA08           move.l     -[A7], 0xFFFFEA08
00000060  2F3C FFFF E89E           move.l     -[A7], 0xFFFFE89E
00000066  2F3C FFFF 9096           move.l     -[A7], 0xFFFF9096
0000006C  2F3C FFFF 9096           move.l     -[A7], 0xFFFF9096
00000072  A98B                     syscall    ParamText
label00000074:
00000074  42A7                     clr.l      -[A7]
00000076  3F3C 03EB                move.w     -[A7], 0x3EB
0000007A  42A7                     clr.l      -[A7]
0000007C  4878 FFFF                push.l     0xFFFF
00000080  A97C                     syscall    GetNewDialog
00000082  285F                     movea.l    A4, [A7]+
00000084  3F3C 0001                move.w     -[A7], 0x1
00000088  A9C8                     syscall    SysBeep
label0000008A:
0000008A  42A7                     clr.l      -[A7]
0000008C  486E FFFE                pea.l      [A6 - 0x2]
00000090  A991                     syscall    ModalDialog
00000092  4A6E FFFE                tst.w      [A6 - 0x2]
00000096  67F2                     beq        -0xC /* 0000008A */
00000098  2F0C                     move.l     -[A7], A4
0000009A  A983                     syscall    DisposeDialog
0000009C  3079 FFFF E894           movea.w    A0, [0xFFFFE894]
000000A2  2F08                     move.l     -[A7], A0
000000A4  3079 FFFF E896           movea.w    A0, [0xFFFFE896]
000000AA  2F08                     move.l     -[A7], A0
000000AC  2F39 FFFF 7D6A           move.l     -[A7], [0xFFFF7D6A]
000000B2  A9D1                     syscall    TESetSelect
000000B4  4EAD 00F2                jsr        [A5 + 0xF2 /* export_26, CODE:4 @ 00000F2A */]
000000B8  285F                     movea.l    A4, [A7]+
000000BA  4E5E                     unlink     A6
000000BC  4E75                     rts
fn000000BE:
000000BE  48E7 0318                movem.l    -[A7], D6,D7,A3,A4
000000C2  7E00                     moveq.l    D7, 0x00
000000C4  287C FFFF 9442           movea.l    A4, 0xFFFF9442
000000CA  605E                     bra        +0x60 /* 0000012A */
label000000CC:
000000CC  3F07                     move.w     -[A7], D7
000000CE  4EAD 025A                jsr        [A5 + 0x25A /* export_71, CODE:2 @ 00005494 */]
000000D2  4A00                     tst.b      D0
000000D4  548F                     addq.l     A7, 2
000000D6  674C                     beq        +0x4E /* 00000124 */
000000D8  3979 FFFF E882 0304      move.w     [A4 + 0x304], [0xFFFFE882]
000000E0  206C 0232                movea.l    A0, [A4 + 0x232]
000000E4  A01F                     syscall    DisposPtr/DisposePtr
000000E6  3039 FFFF E882           move.w     D0, [0xFFFFE882]
000000EC  48C0                     ext.l      D0
000000EE  D080                     add.l      D0, D0
000000F0  A11E                     syscall    NewPtr, flags=1
000000F2  2948 0232                move.l     [A4 + 0x232], A0
000000F6  4A78 0220                tst.w      [0x00000220 /* MemErr */]
000000FA  6706                     beq        +0x8 /* 00000102 */
000000FC  3F3C 0001                move.w     -[A7], 0x1
00000100  A9C8                     syscall    SysBeep
label00000102:
00000102  7C00                     moveq.l    D6, 0x00
00000104  97CB                     sub.l      A3, A3
00000106  6014                     bra        +0x16 /* 0000011C */
label00000108:
00000108  204B                     movea.l    A0, A3
0000010A  D1F9 FFFF C29A           add.l      A0, [0xFFFFC29A]
00000110  224B                     movea.l    A1, A3
00000112  D3EC 0232                add.l      A1, [A4 + 0x232]
00000116  3290                     move.w     [A1], [A0]
00000118  5246                     addq.w     D6, 1
0000011A  548B                     addq.l     A3, 2
label0000011C:
0000011C  BC79 FFFF E882           cmp.w      D6, [0xFFFFE882]
00000122  6DE4                     blt        -0x1A /* 00000108 */
label00000124:
00000124  5247                     addq.w     D7, 1
00000126  49EC 03C2                lea.l      A4, [A4 + 0x3C2]
label0000012A:
0000012A  BE79 FFFF 9226           cmp.w      D7, [0xFFFF9226]
00000130  6D9A                     blt        -0x64 /* 000000CC */
00000132  4CDF 18C0                movem.l    D6,D7,A3,A4, [A7]+
00000136  4E75                     rts
00000138  4E56 0000                link       A6, 0
0000013C  4E5E                     unlink     A6
0000013E  4E75                     rts
export_106:
00000140  4E56 FFF8                link       A6, -0x0008
00000144  2079 FFFF 7D6A           movea.l    A0, [0xFFFF7D6A]
0000014A  2050                     movea.l    A0, [A0]
0000014C  2068 003E                movea.l    A0, [A0 + 0x3E]
00000150  A064                     syscall    MoveHHi
00000152  2079 FFFF 7D6A           movea.l    A0, [0xFFFF7D6A]
00000158  2050                     movea.l    A0, [A0]
0000015A  2068 003E                movea.l    A0, [A0 + 0x3E]
0000015E  A029                     syscall    HLock
00000160  2079 FFFF 7D6A           movea.l    A0, [0xFFFF7D6A]
00000166  2050                     movea.l    A0, [A0]
00000168  3068 003C                movea.w    A0, [A0 + 0x3C]
0000016C  23C8 FFFF 74EE           move.l     [0xFFFF74EE], A0
00000172  2079 FFFF 7D6A           movea.l    A0, [0xFFFF7D6A]
00000178  2050                     movea.l    A0, [A0]
0000017A  2068 003E                movea.l    A0, [A0 + 0x3E]
0000017E  23D0 FFFF E898           move.l     [0xFFFFE898], [A0]
00000184  203C 0000 2710           move.l     D0, 0x2710
0000018A  A11E                     syscall    NewPtr, flags=1
0000018C  23C8 FFFF C29A           move.l     [0xFFFFC29A], A0
00000192  4A78 0220                tst.w      [0x00000220 /* MemErr */]
00000196  671C                     beq        +0x1E /* 000001B4 */
00000198  2F3C FFFF EA12           move.l     -[A7], 0xFFFFEA12
0000019E  2F3C FFFF EA14           move.l     -[A7], 0xFFFFEA14
000001A4  4EAD 0222                jsr        [A5 + 0x222 /* export_64, CODE:2 @ 00004DCE */]
000001A8  42B9 FFFF C29A           clr.l      [0xFFFFC29A]
000001AE  508F                     addq.l     A7, 8
000001B0  6000 0112                bra        +0x114 /* 000002C4 */
label000001B4:
000001B4  2079 FFFF 7D76           movea.l    A0, [0xFFFF7D76]
000001BA  2F10                     move.l     -[A7], [A0]
000001BC  A851                     syscall    SetCursor
000001BE  4279 FFFF E884           clr.w      [0xFFFFE884]
000001C4  4279 FFFF E888           clr.w      [0xFFFFE888]
000001CA  4279 FFFF E89C           clr.w      [0xFFFFE89C]
000001D0  4279 FFFF E88C           clr.w      [0xFFFFE88C]
000001D6  4279 FFFF E88E           clr.w      [0xFFFFE88E]
000001DC  4279 FFFF E890           clr.w      [0xFFFFE890]
000001E2  4279 FFFF E892           clr.w      [0xFFFFE892]
000001E8  33FC 0001 FFFF E88A      move.w     [0xFFFFE88A], 0x1
000001F0  4EBA 03D0                jsr        [PC + 0x3D0 /* 000005C2 */]
000001F4  4279 FFFF E89C           clr.w      [0xFFFFE89C]
000001FA  4279 FFFF E882           clr.w      [0xFFFFE882]
00000200  4279 FFFF E888           clr.w      [0xFFFFE888]
00000206  33FC 0001 FFFF E88A      move.w     [0xFFFFE88A], 0x1
0000020E  4279 FFFF E886           clr.w      [0xFFFFE886]
00000214  3F2E 0008                move.w     -[A7], [A6 + 0x8]
00000218  4EBA 12E6                jsr        [PC + 0x12E6 /* 00001500 */]
0000021C  4EBA 0490                jsr        [PC + 0x490 /* 000006AE */]
00000220  0C6E FFFF 0008           cmpi.w     [A6 + 0x8], 0xFFFF
00000226  548F                     addq.l     A7, 2
00000228  6712                     beq        +0x14 /* 0000023C */
0000022A  4A79 FFFF E88C           tst.w      [0xFFFFE88C]
00000230  660A                     bne        +0xC /* 0000023C */
00000232  3F3C 0001                move.w     -[A7], 0x1
00000236  4EBA 011C                jsr        [PC + 0x11C /* 00000354 */]
0000023A  548F                     addq.l     A7, 2
label0000023C:
0000023C  0C79 1387 FFFF E882      cmpi.w     [0xFFFFE882], 0x1387
00000244  6F1C                     ble        +0x1E /* 00000262 */
00000246  2F3C FFFF EA2A           move.l     -[A7], 0xFFFFEA2A
0000024C  2F3C FFFF E89E           move.l     -[A7], 0xFFFFE89E
00000252  4EAD 050A                jsr        [A5 + 0x50A /* export_157, CODE:7 @ 000020CA */]
00000256  33FC 0001 FFFF E88E      move.w     [0xFFFFE88E], 0x1
0000025E  508F                     addq.l     A7, 8
00000260  603E                     bra        +0x40 /* 000002A0 */
label00000262:
00000262  0C79 0064 FFFF E882      cmpi.w     [0xFFFFE882], 0x64 /* 'd' */
0000026A  6D12                     blt        +0x14 /* 0000027E */
0000026C  4A39 FFFF 91CE           tst.b      [0xFFFF91CE]
00000272  660A                     bne        +0xC /* 0000027E */
00000274  33FC 0001 FFFF E892      move.w     [0xFFFFE892], 0x1
0000027C  6022                     bra        +0x24 /* 000002A0 */
label0000027E:
0000027E  4A79 FFFF E88E           tst.w      [0xFFFFE88E]
00000284  661A                     bne        +0x1C /* 000002A0 */
00000286  4A79 FFFF E88C           tst.w      [0xFFFFE88C]
0000028C  6612                     bne        +0x14 /* 000002A0 */
0000028E  4EBA 1398                jsr        [PC + 0x1398 /* 00001628 */]
00000292  4EBA FE2A                jsr        [PC - 0x1D6 /* 000000BE */]
00000296  33F9 FFFF E882 FFFF 74F2 move.w     [0xFFFF74F2], [0xFFFFE882]
label000002A0:
000002A0  2F3C FFFF FA60           move.l     -[A7], 0xFFFFFA60
000002A6  A851                     syscall    SetCursor
000002A8  4A79 FFFF E88E           tst.w      [0xFFFFE88E]
000002AE  6610                     bne        +0x12 /* 000002C0 */
000002B0  4A79 FFFF E890           tst.w      [0xFFFFE890]
000002B6  6608                     bne        +0xA /* 000002C0 */
000002B8  4A79 FFFF E892           tst.w      [0xFFFFE892]
000002BE  6704                     beq        +0x6 /* 000002C4 */
label000002C0:
000002C0  4EBA FD3E                jsr        [PC - 0x2C2 /* 00000000 */]
label000002C4:
000002C4  2079 FFFF 7D6A           movea.l    A0, [0xFFFF7D6A]
000002CA  2050                     movea.l    A0, [A0]
000002CC  4AA8 003E                tst.l      [A0 + 0x3E]
000002D0  671A                     beq        +0x1C /* 000002EC */
000002D2  2079 FFFF 7D6A           movea.l    A0, [0xFFFF7D6A]
000002D8  2050                     movea.l    A0, [A0]
000002DA  2068 003E                movea.l    A0, [A0 + 0x3E]
000002DE  A02A                     syscall    HUnlock
000002E0  4A78 0220                tst.w      [0x00000220 /* MemErr */]
000002E4  6706                     beq        +0x8 /* 000002EC */
000002E6  3F3C 0001                move.w     -[A7], 0x1
000002EA  A9C8                     syscall    SysBeep
label000002EC:
000002EC  4AB9 FFFF C29A           tst.l      [0xFFFFC29A]
000002F2  6708                     beq        +0xA /* 000002FC */
000002F4  2079 FFFF C29A           movea.l    A0, [0xFFFFC29A]
000002FA  A01F                     syscall    DisposPtr/DisposePtr
label000002FC:
000002FC  4A78 0220                tst.w      [0x00000220 /* MemErr */]
00000300  6712                     beq        +0x14 /* 00000314 */
00000302  2F3C FFFF EA46           move.l     -[A7], 0xFFFFEA46
00000308  2F3C FFFF EA60           move.l     -[A7], 0xFFFFEA60
0000030E  4EAD 0222                jsr        [A5 + 0x222 /* export_64, CODE:2 @ 00004DCE */]
00000312  508F                     addq.l     A7, 8
label00000314:
00000314  3D7C 0037 FFF8           move.w     [A6 - 0x8], 0x37 /* '7' */
0000031A  3D7C 01A4 FFFA           move.w     [A6 - 0x6], 0x1A4
00000320  3D7C 01EA FFFE           move.w     [A6 - 0x2], 0x1EA
00000326  3D7C 0043 FFFC           move.w     [A6 - 0x4], 0x43 /* 'C' */
0000032C  486E FFF8                pea.l      [A6 - 0x8]
00000330  A928                     syscall    InvalRect
00000332  3D7C 009B FFF8           move.w     [A6 - 0x8], 0x9B
00000338  3D7C 0172 FFFA           move.w     [A6 - 0x6], 0x172
0000033E  3D7C 01EA FFFE           move.w     [A6 - 0x2], 0x1EA
00000344  3D7C 00A7 FFFC           move.w     [A6 - 0x4], 0xA7
0000034A  486E FFF8                pea.l      [A6 - 0x8]
0000034E  A928                     syscall    InvalRect
00000350  4E5E                     unlink     A6
00000352  4E75                     rts
fn00000354:
00000354  4E56 FFFE                link       A6, -0x0002
00000358  4A79 FFFF E88C           tst.w      [0xFFFFE88C]
0000035E  6600 0088                bne        +0x8A /* 000003E8 */
00000362  33FC 0001 FFFF E88C      move.w     [0xFFFFE88C], 0x1
0000036A  0C6E 0001 0008           cmpi.w     [A6 + 0x8], 0x1
00000370  6610                     bne        +0x12 /* 00000382 */
00000372  1F39 FFFF E81E           move.b     -[A7], [0xFFFFE81E]
00000378  4EBA 037A                jsr        [PC + 0x37A /* 000006F4 */]
0000037C  4A40                     tst.w      D0
0000037E  548F                     addq.l     A7, 2
00000380  660E                     bne        +0x10 /* 00000390 */
label00000382:
00000382  3079 FFFF E89C           movea.w    A0, [0xFFFFE89C]
00000388  B1F9 FFFF 74EE           cmpa.l     A0, [0xFFFF74EE]
0000038E  661C                     bne        +0x1E /* 000003AC */
label00000390:
00000390  3039 FFFF E89C           move.w     D0, [0xFFFFE89C]
00000396  906E 0008                sub.w      D0, [A6 + 0x8]
0000039A  33C0 FFFF E894           move.w     [0xFFFFE894], D0
000003A0  33F9 FFFF E89C FFFF E896 move.w     [0xFFFFE896], [0xFFFFE89C]
000003AA  6020                     bra        +0x22 /* 000003CC */
label000003AC:
000003AC  3039 FFFF E89C           move.w     D0, [0xFFFFE89C]
000003B2  906E 0008                sub.w      D0, [A6 + 0x8]
000003B6  5340                     subq.w     D0, 1
000003B8  33C0 FFFF E894           move.w     [0xFFFFE894], D0
000003BE  72FF                     moveq.l    D1, 0xFFFFFFFF
000003C0  D279 FFFF E89C           add.w      D1, [0xFFFFE89C]
000003C6  33C1 FFFF E896           move.w     [0xFFFFE896], D1
label000003CC:
000003CC  3079 FFFF E894           movea.w    A0, [0xFFFFE894]
000003D2  2F08                     move.l     -[A7], A0
000003D4  3079 FFFF E896           movea.w    A0, [0xFFFFE896]
000003DA  2F08                     move.l     -[A7], A0
000003DC  2F39 FFFF 7D6A           move.l     -[A7], [0xFFFF7D6A]
000003E2  A9D1                     syscall    TESetSelect
000003E4  4EAD 00F2                jsr        [A5 + 0xF2 /* export_26, CODE:4 @ 00000F2A */]
label000003E8:
000003E8  4E5E                     unlink     A6
000003EA  4E75                     rts
fn000003EC:
000003EC  4E56 0000                link       A6, 0
000003F0  4A79 FFFF E88E           tst.w      [0xFFFFE88E]
000003F6  6640                     bne        +0x42 /* 00000438 */
000003F8  4A79 FFFF E88C           tst.w      [0xFFFFE88C]
000003FE  6638                     bne        +0x3A /* 00000438 */
00000400  2F2E 0008                move.l     -[A7], [A6 + 0x8]
00000404  2F3C FFFF E89E           move.l     -[A7], 0xFFFFE89E
0000040A  4EAD 051A                jsr        [A5 + 0x51A /* export_159, CODE:7 @ 000021A6 */]
0000040E  3039 FFFF E89C           move.w     D0, [0xFFFFE89C]
00000414  906E 000C                sub.w      D0, [A6 + 0xC]
00000418  5340                     subq.w     D0, 1
0000041A  33C0 FFFF E894           move.w     [0xFFFFE894], D0
00000420  72FF                     moveq.l    D1, 0xFFFFFFFF
00000422  D279 FFFF E89C           add.w      D1, [0xFFFFE89C]
00000428  33C1 FFFF E896           move.w     [0xFFFFE896], D1
0000042E  33FC 0001 FFFF E88E      move.w     [0xFFFFE88E], 0x1
00000436  508F                     addq.l     A7, 8
label00000438:
00000438  4E5E                     unlink     A6
0000043A  4E75                     rts
fn0000043C:
0000043C  4E56 0000                link       A6, 0
00000440  4A79 FFFF E890           tst.w      [0xFFFFE890]
00000446  6648                     bne        +0x4A /* 00000490 */
00000448  4A79 FFFF E88E           tst.w      [0xFFFFE88E]
0000044E  6640                     bne        +0x42 /* 00000490 */
00000450  4A79 FFFF E88C           tst.w      [0xFFFFE88C]
00000456  6638                     bne        +0x3A /* 00000490 */
00000458  2F2E 0008                move.l     -[A7], [A6 + 0x8]
0000045C  2F3C FFFF E89E           move.l     -[A7], 0xFFFFE89E
00000462  4EAD 051A                jsr        [A5 + 0x51A /* export_159, CODE:7 @ 000021A6 */]
00000466  3039 FFFF E89C           move.w     D0, [0xFFFFE89C]
0000046C  906E 000C                sub.w      D0, [A6 + 0xC]
00000470  5340                     subq.w     D0, 1
00000472  33C0 FFFF E894           move.w     [0xFFFFE894], D0
00000478  72FF                     moveq.l    D1, 0xFFFFFFFF
0000047A  D279 FFFF E89C           add.w      D1, [0xFFFFE89C]
00000480  33C1 FFFF E896           move.w     [0xFFFFE896], D1
00000486  33FC 0001 FFFF E890      move.w     [0xFFFFE890], 0x1
0000048E  508F                     addq.l     A7, 8
label00000490:
00000490  4E5E                     unlink     A6
00000492  4E75                     rts
fn00000494:
00000494  4E56 0000                link       A6, 0
00000498  2F3C FFFF EA6E           move.l     -[A7], 0xFFFFEA6E
0000049E  2F3C FFFF E89E           move.l     -[A7], 0xFFFFE89E
000004A4  4EAD 050A                jsr        [A5 + 0x50A /* export_157, CODE:7 @ 000020CA */]
000004A8  33FC 0001 FFFF E88E      move.w     [0xFFFFE88E], 0x1
000004B0  33EE 000A FFFF E894      move.w     [0xFFFFE894], [A6 + 0xA]
000004B8  33EE 000A FFFF E896      move.w     [0xFFFFE896], [A6 + 0xA]
000004C0  4E5E                     unlink     A6
000004C2  4E75                     rts
fn000004C4:
000004C4  48E7 0308                movem.l    -[A7], D6,D7,A4
000004C8  5379 FFFF E888           subq.w     [0xFFFFE888], 1
000004CE  0C79 0013 FFFF E888      cmpi.w     [0xFFFFE888], 0x13
000004D6  6F08                     ble        +0xA /* 000004E0 */
000004D8  33FC 0013 FFFF E888      move.w     [0xFFFFE888], 0x13
label000004E0:
000004E0  3079 FFFF E888           movea.w    A0, [0xFFFFE888]
000004E6  D1FC FFFF E81E           add.l      A0, 0xFFFFE81E
000004EC  4210                     clr.b      [A0]
000004EE  7E00                     moveq.l    D7, 0x00
000004F0  6018                     bra        +0x1A /* 0000050A */
label000004F2:
000004F2  3847                     movea.w    A4, D7
000004F4  D9FC FFFF E81E           add.l      A4, 0xFFFFE81E
000004FA  1014                     move.b     D0, [A4]
000004FC  4880                     ext.w      D0
000004FE  3F00                     move.w     -[A7], D0
00000500  4EAD 04CA                jsr        [A5 + 0x4CA /* export_149, CODE:7 @ 000008D6 */]
00000504  1880                     move.b     [A4], D0
00000506  548F                     addq.l     A7, 2
00000508  5247                     addq.w     D7, 1
label0000050A:
0000050A  BE79 FFFF E888           cmp.w      D7, [0xFFFFE888]
00000510  6DE0                     blt        -0x1E /* 000004F2 */
00000512  0C79 0190 FFFF E884      cmpi.w     [0xFFFFE884], 0x190
0000051A  6618                     bne        +0x1A /* 00000534 */
0000051C  7001                     moveq.l    D0, 0x01
0000051E  D079 FFFF E888           add.w      D0, [0xFFFFE888]
00000524  3F00                     move.w     -[A7], D0
00000526  2F3C FFFF EA82           move.l     -[A7], 0xFFFFEA82
0000052C  4EBA FEBE                jsr        [PC - 0x142 /* 000003EC */]
00000530  5C8F                     addq.l     A7, 6
00000532  602E                     bra        +0x30 /* 00000562 */
label00000534:
00000534  7C00                     moveq.l    D6, 0x00
00000536  7E00                     moveq.l    D7, 0x00
00000538  287C FFFF C29E           movea.l    A4, 0xFFFFC29E
0000053E  601A                     bra        +0x1C /* 0000055A */
label00000540:
00000540  2F3C FFFF E81E           move.l     -[A7], 0xFFFFE81E
00000546  2F0C                     move.l     -[A7], A4
00000548  4EAD 0522                jsr        [A5 + 0x522 /* export_160, CODE:7 @ 000021CC */]
0000054C  4A40                     tst.w      D0
0000054E  508F                     addq.l     A7, 8
00000550  6602                     bne        +0x4 /* 00000554 */
00000552  7C01                     moveq.l    D6, 0x01
label00000554:
00000554  5247                     addq.w     D7, 1
00000556  49EC 0018                lea.l      A4, [A4 + 0x18]
label0000055A:
0000055A  BE79 FFFF E884           cmp.w      D7, [0xFFFFE884]
00000560  6DDE                     blt        -0x20 /* 00000540 */
label00000562:
00000562  4A46                     tst.w      D6
00000564  6718                     beq        +0x1A /* 0000057E */
00000566  7001                     moveq.l    D0, 0x01
00000568  D079 FFFF E888           add.w      D0, [0xFFFFE888]
0000056E  3F00                     move.w     -[A7], D0
00000570  2F3C FFFF EA92           move.l     -[A7], 0xFFFFEA92
00000576  4EBA FE74                jsr        [PC - 0x18C /* 000003EC */]
0000057A  5C8F                     addq.l     A7, 6
0000057C  603E                     bra        +0x40 /* 000005BC */
label0000057E:
0000057E  7E00                     moveq.l    D7, 0x00
00000580  7018                     moveq.l    D0, 0x18
00000582  C1F9 FFFF E884           muls.w     D0, [0xFFFFE884]
00000588  0680 FFFF C29E           addi.l     D0, 0xFFFFC29E
0000058E  2840                     movea.l    A4, D0
00000590  600E                     bra        +0x10 /* 000005A0 */
label00000592:
00000592  3047                     movea.w    A0, D7
00000594  D1FC FFFF E81E           add.l      A0, 0xFFFFE81E
0000059A  1990 7000                move.b     [A4 + D7.w], [A0]
0000059E  5247                     addq.w     D7, 1
label000005A0:
000005A0  BE79 FFFF E888           cmp.w      D7, [0xFFFFE888]
000005A6  6FEA                     ble        -0x14 /* 00000592 */
000005A8  3039 FFFF E884           move.w     D0, [0xFFFFE884]
000005AE  0640 7530                addi.w     D0, 0x7530 /* 'u0' */
000005B2  3940 0014                move.w     [A4 + 0x14], D0
000005B6  5279 FFFF E884           addq.w     [0xFFFFE884], 1
label000005BC:
000005BC  4CDF 10C0                movem.l    D6,D7,A4, [A7]+
000005C0  4E75                     rts
fn000005C2:
000005C2  2F07                     move.l     -[A7], D7
000005C4  6000 00C4                bra        +0xC6 /* 0000068A */
label000005C8:
000005C8  3039 FFFF E89C           move.w     D0, [0xFFFFE89C]
000005CE  5279 FFFF E89C           addq.w     [0xFFFFE89C], 1
000005D4  2079 FFFF E898           movea.l    A0, [0xFFFFE898]
000005DA  1E30 0000                move.b     D7, [A0 + D0.w]
000005DE  0C07 007B                cmpi.b     D7, 0x7B /* '{' */
000005E2  6706                     beq        +0x8 /* 000005EA */
000005E4  0C07 0023                cmpi.b     D7, 0x23 /* '#' */
000005E8  661A                     bne        +0x1C /* 00000604 */
label000005EA:
000005EA  13C7 FFFF E81E           move.b     [0xFFFFE81E], D7
000005F0  4239 FFFF E81F           clr.b      [0xFFFFE81F]
000005F6  4EBA 0690                jsr        [PC + 0x690 /* 00000C88 */]
000005FA  4279 FFFF E888           clr.w      [0xFFFFE888]
00000600  6000 0088                bra        +0x8A /* 0000068A */
label00000604:
00000604  1F07                     move.b     -[A7], D7
00000606  4EBA 00EC                jsr        [PC + 0xEC /* 000006F4 */]
0000060A  4A40                     tst.w      D0
0000060C  548F                     addq.l     A7, 2
0000060E  660E                     bne        +0x10 /* 0000061E */
00000610  3079 FFFF E89C           movea.w    A0, [0xFFFFE89C]
00000616  B1F9 FFFF 74EE           cmpa.l     A0, [0xFFFF74EE]
0000061C  6656                     bne        +0x58 /* 00000674 */
label0000061E:
0000061E  0C07 003A                cmpi.b     D7, 0x3A /* ':' */
00000622  6618                     bne        +0x1A /* 0000063C */
00000624  3039 FFFF E888           move.w     D0, [0xFFFFE888]
0000062A  5279 FFFF E888           addq.w     [0xFFFFE888], 1
00000630  3040                     movea.w    A0, D0
00000632  D1FC FFFF E81E           add.l      A0, 0xFFFFE81E
00000638  10BC 003A                move.b     [A0], 0x3A /* ':' */
label0000063C:
0000063C  3079 FFFF E888           movea.w    A0, [0xFFFFE888]
00000642  D1FC FFFF E81E           add.l      A0, 0xFFFFE81E
00000648  4210                     clr.b      [A0]
0000064A  3079 FFFF E888           movea.w    A0, [0xFFFFE888]
00000650  D1FC FFFF E81D           add.l      A0, 0xFFFFE81D
00000656  0C10 003A                cmpi.b     [A0], 0x3A /* ':' */
0000065A  6604                     bne        +0x6 /* 00000660 */
0000065C  4EBA FE66                jsr        [PC - 0x19A /* 000004C4 */]
label00000660:
00000660  4279 FFFF E888           clr.w      [0xFFFFE888]
00000666  0C07 000D                cmpi.b     D7, 0xD /* '\r' */
0000066A  661E                     bne        +0x20 /* 0000068A */
0000066C  5279 FFFF E88A           addq.w     [0xFFFFE88A], 1
00000672  6016                     bra        +0x18 /* 0000068A */
label00000674:
00000674  3039 FFFF E888           move.w     D0, [0xFFFFE888]
0000067A  5279 FFFF E888           addq.w     [0xFFFFE888], 1
00000680  3040                     movea.w    A0, D0
00000682  D1FC FFFF E81E           add.l      A0, 0xFFFFE81E
00000688  1087                     move.b     [A0], D7
label0000068A:
0000068A  3079 FFFF E89C           movea.w    A0, [0xFFFFE89C]
00000690  B1F9 FFFF 74EE           cmpa.l     A0, [0xFFFF74EE]
00000696  6C12                     bge        +0x14 /* 000006AA */
00000698  4A79 FFFF E88E           tst.w      [0xFFFFE88E]
0000069E  660A                     bne        +0xC /* 000006AA */
000006A0  4A79 FFFF E88C           tst.w      [0xFFFFE88C]
000006A6  6700 FF20                beq        -0xDE /* 000005C8 */
label000006AA:
000006AA  2E1F                     move.l     D7, [A7]+
000006AC  4E75                     rts
fn000006AE:
000006AE  48E7 0318                movem.l    -[A7], D6,D7,A3,A4
000006B2  7E00                     moveq.l    D7, 0x00
000006B4  99CC                     sub.l      A4, A4
000006B6  602E                     bra        +0x30 /* 000006E6 */
label000006B8:
000006B8  264C                     movea.l    A3, A4
000006BA  D7F9 FFFF C29A           add.l      A3, [0xFFFFC29A]
000006C0  3C13                     move.w     D6, [A3]
000006C2  0C46 7530                cmpi.w     D6, 0x7530 /* 'u0' */
000006C6  6D1A                     blt        +0x1C /* 000006E2 */
000006C8  0C46 76C0                cmpi.w     D6, 0x76C0
000006CC  6C14                     bge        +0x16 /* 000006E2 */
000006CE  3013                     move.w     D0, [A3]
000006D0  0640 8AD0                addi.w     D0, 0x8AD0
000006D4  C1FC 0018                muls.w     D0, 0x18
000006D8  2040                     movea.l    A0, D0
000006DA  D1FC FFFF C2B4           add.l      A0, 0xFFFFC2B4
000006E0  3690                     move.w     [A3], [A0]
label000006E2:
000006E2  5247                     addq.w     D7, 1
000006E4  548C                     addq.l     A4, 2
label000006E6:
000006E6  BE79 FFFF E882           cmp.w      D7, [0xFFFFE882]
000006EC  6FCA                     ble        -0x34 /* 000006B8 */
000006EE  4CDF 18C0                movem.l    D6,D7,A3,A4, [A7]+
000006F2  4E75                     rts
fn000006F4:
000006F4  4E56 0000                link       A6, 0
000006F8  48E7 0300                movem.l    -[A7], D6,D7
000006FC  1C2E 0008                move.b     D6, [A6 + 0x8]
00000700  7E00                     moveq.l    D7, 0x00
00000702  7000                     moveq.l    D0, 0x00
00000704  1006                     move.b     D0, D6
00000706  2040                     movea.l    A0, D0
00000708  D1FC FFFF FC40           add.l      A0, 0xFFFFFC40
0000070E  7006                     moveq.l    D0, 0x06
00000710  C010                     and.b      D0, [A0]
00000712  661E                     bne        +0x20 /* 00000732 */
00000714  0C06 003B                cmpi.b     D6, 0x3B /* ';' */
00000718  6718                     beq        +0x1A /* 00000732 */
0000071A  0C06 002C                cmpi.b     D6, 0x2C /* ',' */
0000071E  6712                     beq        +0x14 /* 00000732 */
00000720  0C06 00FF                cmpi.b     D6, 0xFF
00000724  670C                     beq        +0xE /* 00000732 */
00000726  1F06                     move.b     -[A7], D6
00000728  4EBA 0014                jsr        [PC + 0x14 /* 0000073E */]
0000072C  4A40                     tst.w      D0
0000072E  548F                     addq.l     A7, 2
00000730  6702                     beq        +0x4 /* 00000734 */
label00000732:
00000732  7E01                     moveq.l    D7, 0x01
label00000734:
00000734  3007                     move.w     D0, D7
00000736  4CDF 00C0                movem.l    D6,D7, [A7]+
0000073A  4E5E                     unlink     A6
0000073C  4E75                     rts
fn0000073E:
0000073E  4E56 0000                link       A6, 0
00000742  48E7 0300                movem.l    -[A7], D6,D7
00000746  1C2E 0008                move.b     D6, [A6 + 0x8]
0000074A  7E00                     moveq.l    D7, 0x00
0000074C  0C06 002A                cmpi.b     D6, 0x2A /* '*' */
00000750  672A                     beq        +0x2C /* 0000077C */
00000752  0C06 002F                cmpi.b     D6, 0x2F /* '/' */
00000756  6724                     beq        +0x26 /* 0000077C */
00000758  0C06 003E                cmpi.b     D6, 0x3E /* '>' */
0000075C  671E                     beq        +0x20 /* 0000077C */
0000075E  0C06 003C                cmpi.b     D6, 0x3C /* '<' */
00000762  6718                     beq        +0x1A /* 0000077C */
00000764  0C06 003D                cmpi.b     D6, 0x3D /* '=' */
00000768  6712                     beq        +0x14 /* 0000077C */
0000076A  0C06 0021                cmpi.b     D6, 0x21 /* '!' */
0000076E  670C                     beq        +0xE /* 0000077C */
00000770  0C06 007B                cmpi.b     D6, 0x7B /* '{' */
00000774  6706                     beq        +0x8 /* 0000077C */
00000776  0C06 0023                cmpi.b     D6, 0x23 /* '#' */
0000077A  6602                     bne        +0x4 /* 0000077E */
label0000077C:
0000077C  7E01                     moveq.l    D7, 0x01
label0000077E:
0000077E  3007                     move.w     D0, D7
00000780  4CDF 00C0                movem.l    D6,D7, [A7]+
00000784  4E5E                     unlink     A6
00000786  4E75                     rts
fn00000788:
00000788  4E56 0000                link       A6, 0
0000078C  2F2E 0008                move.l     -[A7], [A6 + 0x8]
00000790  2F3C FFFF E81E           move.l     -[A7], 0xFFFFE81E
00000796  4EAD 0522                jsr        [A5 + 0x522 /* export_160, CODE:7 @ 000021CC */]
0000079A  4A40                     tst.w      D0
0000079C  57C0                     seq        D0
0000079E  4400                     neg.b      D0
000007A0  4880                     ext.w      D0
000007A2  4E5E                     unlink     A6
000007A4  4E75                     rts
fn000007A6:
000007A6  48E7 0700                movem.l    -[A7], D5,D6,D7
000007AA  7E01                     moveq.l    D7, 0x01
000007AC  7C00                     moveq.l    D6, 0x00
000007AE  603A                     bra        +0x3C /* 000007EA */
label000007B0:
000007B0  3046                     movea.w    A0, D6
000007B2  D1FC FFFF E81E           add.l      A0, 0xFFFFE81E
000007B8  1A10                     move.b     D5, [A0]
000007BA  7000                     moveq.l    D0, 0x00
000007BC  1005                     move.b     D0, D5
000007BE  2040                     movea.l    A0, D0
000007C0  D1FC FFFF FC40           add.l      A0, 0xFFFFFC40
000007C6  0810 0004                btst.b     [A0], 0x4
000007CA  6614                     bne        +0x16 /* 000007E0 */
000007CC  0C05 002D                cmpi.b     D5, 0x2D /* '-' */
000007D0  6706                     beq        +0x8 /* 000007D8 */
000007D2  0C05 002B                cmpi.b     D5, 0x2B /* '+' */
000007D6  6604                     bne        +0x6 /* 000007DC */
label000007D8:
000007D8  4A46                     tst.w      D6
000007DA  6704                     beq        +0x6 /* 000007E0 */
label000007DC:
000007DC  7000                     moveq.l    D0, 0x00
000007DE  6002                     bra        +0x4 /* 000007E2 */
label000007E0:
000007E0  7001                     moveq.l    D0, 0x01
label000007E2:
000007E2  4A40                     tst.w      D0
000007E4  6602                     bne        +0x4 /* 000007E8 */
000007E6  7E00                     moveq.l    D7, 0x00
label000007E8:
000007E8  5246                     addq.w     D6, 1
label000007EA:
000007EA  BC79 FFFF E888           cmp.w      D6, [0xFFFFE888]
000007F0  6DBE                     blt        -0x40 /* 000007B0 */
000007F2  3007                     move.w     D0, D7
000007F4  4CDF 00E0                movem.l    D5,D6,D7, [A7]+
000007F8  4E75                     rts
fn000007FA:
000007FA  48E7 0700                movem.l    -[A7], D5,D6,D7
000007FE  7E00                     moveq.l    D7, 0x00
00000800  3C39 FFFF E888           move.w     D6, [0xFFFFE888]
00000806  3046                     movea.w    A0, D6
00000808  D1FC FFFF E81D           add.l      A0, 0xFFFFE81D
0000080E  0C10 0027                cmpi.b     [A0], 0x27 /* '\'' */
00000812  6610                     bne        +0x12 /* 00000824 */
00000814  7A01                     moveq.l    D5, 0x01
00000816  5346                     subq.w     D6, 1
00000818  3046                     movea.w    A0, D6
0000081A  D1FC FFFF E81E           add.l      A0, 0xFFFFE81E
00000820  4210                     clr.b      [A0]
00000822  6002                     bra        +0x4 /* 00000826 */
label00000824:
00000824  7A00                     moveq.l    D5, 0x00
label00000826:
00000826  0C46 0001                cmpi.w     D6, 0x1
0000082A  6628                     bne        +0x2A /* 00000854 */
0000082C  7000                     moveq.l    D0, 0x00
0000082E  1039 FFFF E81E           move.b     D0, [0xFFFFE81E]
00000834  2040                     movea.l    A0, D0
00000836  D1FC FFFF FC40           add.l      A0, 0xFFFFFC40
0000083C  0810 0006                btst.b     [A0], 0x6
00000840  6700 037C                beq        +0x37E /* 00000BBE */
00000844  1E39 FFFF E81E           move.b     D7, [0xFFFFE81E]
0000084A  4887                     ext.w      D7
0000084C  0647 4F0B                addi.w     D7, 0x4F0B
00000850  6000 036C                bra        +0x36E /* 00000BBE */
label00000854:
00000854  2F3C FFFF EAA2           move.l     -[A7], 0xFFFFEAA2
0000085A  4EBA FF2C                jsr        [PC - 0xD4 /* 00000788 */]
0000085E  4A40                     tst.w      D0
00000860  588F                     addq.l     A7, 4
00000862  6706                     beq        +0x8 /* 0000086A */
00000864  7E1A                     moveq.l    D7, 0x1A
00000866  6000 0356                bra        +0x358 /* 00000BBE */
label0000086A:
0000086A  2F3C FFFF EAA8           move.l     -[A7], 0xFFFFEAA8
00000870  4EBA FF16                jsr        [PC - 0xEA /* 00000788 */]
00000874  4A40                     tst.w      D0
00000876  588F                     addq.l     A7, 4
00000878  6706                     beq        +0x8 /* 00000880 */
0000087A  7E1B                     moveq.l    D7, 0x1B
0000087C  6000 0340                bra        +0x342 /* 00000BBE */
label00000880:
00000880  2F3C FFFF EAB0           move.l     -[A7], 0xFFFFEAB0
00000886  4EBA FF00                jsr        [PC - 0x100 /* 00000788 */]
0000088A  4A40                     tst.w      D0
0000088C  588F                     addq.l     A7, 4
0000088E  6706                     beq        +0x8 /* 00000896 */
00000890  7E1C                     moveq.l    D7, 0x1C
00000892  6000 032A                bra        +0x32C /* 00000BBE */
label00000896:
00000896  2F3C FFFF EAB8           move.l     -[A7], 0xFFFFEAB8
0000089C  4EBA FEEA                jsr        [PC - 0x116 /* 00000788 */]
000008A0  4A40                     tst.w      D0
000008A2  588F                     addq.l     A7, 4
000008A4  6706                     beq        +0x8 /* 000008AC */
000008A6  7E1D                     moveq.l    D7, 0x1D
000008A8  6000 0314                bra        +0x316 /* 00000BBE */
label000008AC:
000008AC  2F3C FFFF EABE           move.l     -[A7], 0xFFFFEABE
000008B2  4EBA FED4                jsr        [PC - 0x12C /* 00000788 */]
000008B6  4A40                     tst.w      D0
000008B8  588F                     addq.l     A7, 4
000008BA  6706                     beq        +0x8 /* 000008C2 */
000008BC  7E1E                     moveq.l    D7, 0x1E
000008BE  6000 02FE                bra        +0x300 /* 00000BBE */
label000008C2:
000008C2  2F3C FFFF EAC2           move.l     -[A7], 0xFFFFEAC2
000008C8  4EBA FEBE                jsr        [PC - 0x142 /* 00000788 */]
000008CC  4A40                     tst.w      D0
000008CE  588F                     addq.l     A7, 4
000008D0  6706                     beq        +0x8 /* 000008D8 */
000008D2  7E1F                     moveq.l    D7, 0x1F
000008D4  6000 02E8                bra        +0x2EA /* 00000BBE */
label000008D8:
000008D8  2F3C FFFF EACA           move.l     -[A7], 0xFFFFEACA
000008DE  4EBA FEA8                jsr        [PC - 0x158 /* 00000788 */]
000008E2  4A40                     tst.w      D0
000008E4  588F                     addq.l     A7, 4
000008E6  6706                     beq        +0x8 /* 000008EE */
000008E8  7E20                     moveq.l    D7, 0x20
000008EA  6000 02D2                bra        +0x2D4 /* 00000BBE */
label000008EE:
000008EE  2F3C FFFF EAD2           move.l     -[A7], 0xFFFFEAD2
000008F4  4EBA FE92                jsr        [PC - 0x16E /* 00000788 */]
000008F8  4A40                     tst.w      D0
000008FA  588F                     addq.l     A7, 4
000008FC  6706                     beq        +0x8 /* 00000904 */
000008FE  7E21                     moveq.l    D7, 0x21
00000900  6000 02BC                bra        +0x2BE /* 00000BBE */
label00000904:
00000904  2F3C FFFF EADA           move.l     -[A7], 0xFFFFEADA
0000090A  4EBA FE7C                jsr        [PC - 0x184 /* 00000788 */]
0000090E  4A40                     tst.w      D0
00000910  588F                     addq.l     A7, 4
00000912  6706                     beq        +0x8 /* 0000091A */
00000914  7E22                     moveq.l    D7, 0x22
00000916  6000 02A6                bra        +0x2A8 /* 00000BBE */
label0000091A:
0000091A  2F3C FFFF EAE2           move.l     -[A7], 0xFFFFEAE2
00000920  4EBA FE66                jsr        [PC - 0x19A /* 00000788 */]
00000924  4A40                     tst.w      D0
00000926  588F                     addq.l     A7, 4
00000928  6706                     beq        +0x8 /* 00000930 */
0000092A  7E23                     moveq.l    D7, 0x23
0000092C  6000 0290                bra        +0x292 /* 00000BBE */
label00000930:
00000930  2F3C FFFF EAEA           move.l     -[A7], 0xFFFFEAEA
00000936  4EBA FE50                jsr        [PC - 0x1B0 /* 00000788 */]
0000093A  4A40                     tst.w      D0
0000093C  588F                     addq.l     A7, 4
0000093E  6706                     beq        +0x8 /* 00000946 */
00000940  7E24                     moveq.l    D7, 0x24
00000942  6000 027A                bra        +0x27C /* 00000BBE */
label00000946:
00000946  2F3C FFFF EAF0           move.l     -[A7], 0xFFFFEAF0
0000094C  4EBA FE3A                jsr        [PC - 0x1C6 /* 00000788 */]
00000950  4A40                     tst.w      D0
00000952  588F                     addq.l     A7, 4
00000954  6706                     beq        +0x8 /* 0000095C */
00000956  7E25                     moveq.l    D7, 0x25
00000958  6000 0264                bra        +0x266 /* 00000BBE */
label0000095C:
0000095C  2F3C FFFF EAFA           move.l     -[A7], 0xFFFFEAFA
00000962  4EBA FE24                jsr        [PC - 0x1DC /* 00000788 */]
00000966  4A40                     tst.w      D0
00000968  588F                     addq.l     A7, 4
0000096A  6706                     beq        +0x8 /* 00000972 */
0000096C  7E26                     moveq.l    D7, 0x26
0000096E  6000 024E                bra        +0x250 /* 00000BBE */
label00000972:
00000972  2F3C FFFF EB02           move.l     -[A7], 0xFFFFEB02
00000978  4EBA FE0E                jsr        [PC - 0x1F2 /* 00000788 */]
0000097C  4A40                     tst.w      D0
0000097E  588F                     addq.l     A7, 4
00000980  6706                     beq        +0x8 /* 00000988 */
00000982  7E27                     moveq.l    D7, 0x27
00000984  6000 0238                bra        +0x23A /* 00000BBE */
label00000988:
00000988  2F3C FFFF EB0A           move.l     -[A7], 0xFFFFEB0A
0000098E  4EBA FDF8                jsr        [PC - 0x208 /* 00000788 */]
00000992  4A40                     tst.w      D0
00000994  588F                     addq.l     A7, 4
00000996  6706                     beq        +0x8 /* 0000099E */
00000998  7E28                     moveq.l    D7, 0x28
0000099A  6000 0222                bra        +0x224 /* 00000BBE */
label0000099E:
0000099E  2F3C FFFF EB10           move.l     -[A7], 0xFFFFEB10
000009A4  4EBA FDE2                jsr        [PC - 0x21E /* 00000788 */]
000009A8  4A40                     tst.w      D0
000009AA  588F                     addq.l     A7, 4
000009AC  6706                     beq        +0x8 /* 000009B4 */
000009AE  7E29                     moveq.l    D7, 0x29
000009B0  6000 020C                bra        +0x20E /* 00000BBE */
label000009B4:
000009B4  2F3C FFFF EB16           move.l     -[A7], 0xFFFFEB16
000009BA  4EBA FDCC                jsr        [PC - 0x234 /* 00000788 */]
000009BE  4A40                     tst.w      D0
000009C0  588F                     addq.l     A7, 4
000009C2  6706                     beq        +0x8 /* 000009CA */
000009C4  7E2A                     moveq.l    D7, 0x2A
000009C6  6000 01F6                bra        +0x1F8 /* 00000BBE */
label000009CA:
000009CA  2F3C FFFF EB1C           move.l     -[A7], 0xFFFFEB1C
000009D0  4EBA FDB6                jsr        [PC - 0x24A /* 00000788 */]
000009D4  4A40                     tst.w      D0
000009D6  588F                     addq.l     A7, 4
000009D8  6706                     beq        +0x8 /* 000009E0 */
000009DA  7E2B                     moveq.l    D7, 0x2B
000009DC  6000 01E0                bra        +0x1E2 /* 00000BBE */
label000009E0:
000009E0  2F3C FFFF EB22           move.l     -[A7], 0xFFFFEB22
000009E6  4EBA FDA0                jsr        [PC - 0x260 /* 00000788 */]
000009EA  4A40                     tst.w      D0
000009EC  588F                     addq.l     A7, 4
000009EE  6706                     beq        +0x8 /* 000009F6 */
000009F0  7E2C                     moveq.l    D7, 0x2C
000009F2  6000 01CA                bra        +0x1CC /* 00000BBE */
label000009F6:
000009F6  2F3C FFFF EB28           move.l     -[A7], 0xFFFFEB28
000009FC  4EBA FD8A                jsr        [PC - 0x276 /* 00000788 */]
00000A00  4A40                     tst.w      D0
00000A02  588F                     addq.l     A7, 4
00000A04  6706                     beq        +0x8 /* 00000A0C */
00000A06  7E2D                     moveq.l    D7, 0x2D
00000A08  6000 01B4                bra        +0x1B6 /* 00000BBE */
label00000A0C:
00000A0C  2F3C FFFF EB2E           move.l     -[A7], 0xFFFFEB2E
00000A12  4EBA FD74                jsr        [PC - 0x28C /* 00000788 */]
00000A16  4A40                     tst.w      D0
00000A18  588F                     addq.l     A7, 4
00000A1A  6706                     beq        +0x8 /* 00000A22 */
00000A1C  7E2E                     moveq.l    D7, 0x2E
00000A1E  6000 019E                bra        +0x1A0 /* 00000BBE */
label00000A22:
00000A22  2F3C FFFF EB36           move.l     -[A7], 0xFFFFEB36
00000A28  4EBA FD5E                jsr        [PC - 0x2A2 /* 00000788 */]
00000A2C  4A40                     tst.w      D0
00000A2E  588F                     addq.l     A7, 4
00000A30  6610                     bne        +0x12 /* 00000A42 */
00000A32  2F3C FFFF EB3C           move.l     -[A7], 0xFFFFEB3C
00000A38  4EBA FD4E                jsr        [PC - 0x2B2 /* 00000788 */]
00000A3C  4A40                     tst.w      D0
00000A3E  588F                     addq.l     A7, 4
00000A40  6706                     beq        +0x8 /* 00000A48 */
label00000A42:
00000A42  7E2F                     moveq.l    D7, 0x2F
00000A44  6000 0178                bra        +0x17A /* 00000BBE */
label00000A48:
00000A48  2F3C FFFF EB46           move.l     -[A7], 0xFFFFEB46
00000A4E  4EBA FD38                jsr        [PC - 0x2C8 /* 00000788 */]
00000A52  4A40                     tst.w      D0
00000A54  588F                     addq.l     A7, 4
00000A56  6706                     beq        +0x8 /* 00000A5E */
00000A58  7E30                     moveq.l    D7, 0x30
00000A5A  6000 0162                bra        +0x164 /* 00000BBE */
label00000A5E:
00000A5E  2F3C FFFF EB4C           move.l     -[A7], 0xFFFFEB4C
00000A64  4EBA FD22                jsr        [PC - 0x2DE /* 00000788 */]
00000A68  4A40                     tst.w      D0
00000A6A  588F                     addq.l     A7, 4
00000A6C  6706                     beq        +0x8 /* 00000A74 */
00000A6E  7E31                     moveq.l    D7, 0x31
00000A70  6000 014C                bra        +0x14E /* 00000BBE */
label00000A74:
00000A74  2F3C FFFF EB52           move.l     -[A7], 0xFFFFEB52
00000A7A  4EBA FD0C                jsr        [PC - 0x2F4 /* 00000788 */]
00000A7E  4A40                     tst.w      D0
00000A80  588F                     addq.l     A7, 4
00000A82  6706                     beq        +0x8 /* 00000A8A */
00000A84  7E32                     moveq.l    D7, 0x32
00000A86  6000 0136                bra        +0x138 /* 00000BBE */
label00000A8A:
00000A8A  2F3C FFFF EB58           move.l     -[A7], 0xFFFFEB58
00000A90  4EBA FCF6                jsr        [PC - 0x30A /* 00000788 */]
00000A94  4A40                     tst.w      D0
00000A96  588F                     addq.l     A7, 4
00000A98  6706                     beq        +0x8 /* 00000AA0 */
00000A9A  7E33                     moveq.l    D7, 0x33
00000A9C  6000 0120                bra        +0x122 /* 00000BBE */
label00000AA0:
00000AA0  2F3C FFFF EB5E           move.l     -[A7], 0xFFFFEB5E
00000AA6  4EBA FCE0                jsr        [PC - 0x320 /* 00000788 */]
00000AAA  4A40                     tst.w      D0
00000AAC  588F                     addq.l     A7, 4
00000AAE  6706                     beq        +0x8 /* 00000AB6 */
00000AB0  7E34                     moveq.l    D7, 0x34
00000AB2  6000 010A                bra        +0x10C /* 00000BBE */
label00000AB6:
00000AB6  2F3C FFFF EB66           move.l     -[A7], 0xFFFFEB66
00000ABC  4EBA FCCA                jsr        [PC - 0x336 /* 00000788 */]
00000AC0  4A40                     tst.w      D0
00000AC2  588F                     addq.l     A7, 4
00000AC4  6706                     beq        +0x8 /* 00000ACC */
00000AC6  7E35                     moveq.l    D7, 0x35
00000AC8  6000 00F4                bra        +0xF6 /* 00000BBE */
label00000ACC:
00000ACC  2F3C FFFF EB6E           move.l     -[A7], 0xFFFFEB6E
00000AD2  4EBA FCB4                jsr        [PC - 0x34C /* 00000788 */]
00000AD6  4A40                     tst.w      D0
00000AD8  588F                     addq.l     A7, 4
00000ADA  6706                     beq        +0x8 /* 00000AE2 */
00000ADC  7E36                     moveq.l    D7, 0x36
00000ADE  6000 00DE                bra        +0xE0 /* 00000BBE */
label00000AE2:
00000AE2  2F3C FFFF EB76           move.l     -[A7], 0xFFFFEB76
00000AE8  4EBA FC9E                jsr        [PC - 0x362 /* 00000788 */]
00000AEC  4A40                     tst.w      D0
00000AEE  588F                     addq.l     A7, 4
00000AF0  6708                     beq        +0xA /* 00000AFA */
00000AF2  3E3C 4EAB                move.w     D7, 0x4EAB
00000AF6  6000 00C6                bra        +0xC8 /* 00000BBE */
label00000AFA:
00000AFA  2F3C FFFF EB7C           move.l     -[A7], 0xFFFFEB7C
00000B00  4EBA FC86                jsr        [PC - 0x37A /* 00000788 */]
00000B04  4A40                     tst.w      D0
00000B06  588F                     addq.l     A7, 4
00000B08  6706                     beq        +0x8 /* 00000B10 */
00000B0A  7E37                     moveq.l    D7, 0x37
00000B0C  6000 00B0                bra        +0xB2 /* 00000BBE */
label00000B10:
00000B10  2F3C FFFF EB84           move.l     -[A7], 0xFFFFEB84
00000B16  4EBA FC70                jsr        [PC - 0x390 /* 00000788 */]
00000B1A  4A40                     tst.w      D0
00000B1C  588F                     addq.l     A7, 4
00000B1E  6610                     bne        +0x12 /* 00000B30 */
00000B20  2F3C FFFF EB8E           move.l     -[A7], 0xFFFFEB8E
00000B26  4EBA FC60                jsr        [PC - 0x3A0 /* 00000788 */]
00000B2A  4A40                     tst.w      D0
00000B2C  588F                     addq.l     A7, 4
00000B2E  6708                     beq        +0xA /* 00000B38 */
label00000B30:
00000B30  3E3C 4EAE                move.w     D7, 0x4EAE
00000B34  6000 0088                bra        +0x8A /* 00000BBE */
label00000B38:
00000B38  2F3C FFFF EB94           move.l     -[A7], 0xFFFFEB94
00000B3E  4EBA FC48                jsr        [PC - 0x3B8 /* 00000788 */]
00000B42  4A40                     tst.w      D0
00000B44  588F                     addq.l     A7, 4
00000B46  6704                     beq        +0x6 /* 00000B4C */
00000B48  7E38                     moveq.l    D7, 0x38
00000B4A  6072                     bra        +0x74 /* 00000BBE */
label00000B4C:
00000B4C  2F3C FFFF EB9C           move.l     -[A7], 0xFFFFEB9C
00000B52  4EBA FC34                jsr        [PC - 0x3CC /* 00000788 */]
00000B56  4A40                     tst.w      D0
00000B58  588F                     addq.l     A7, 4
00000B5A  6704                     beq        +0x6 /* 00000B60 */
00000B5C  7E39                     moveq.l    D7, 0x39
00000B5E  605E                     bra        +0x60 /* 00000BBE */
label00000B60:
00000B60  2F3C FFFF EBA0           move.l     -[A7], 0xFFFFEBA0
00000B66  4EBA FC20                jsr        [PC - 0x3E0 /* 00000788 */]
00000B6A  4A40                     tst.w      D0
00000B6C  588F                     addq.l     A7, 4
00000B6E  6610                     bne        +0x12 /* 00000B80 */
00000B70  2F3C FFFF EBA4           move.l     -[A7], 0xFFFFEBA4
00000B76  4EBA FC10                jsr        [PC - 0x3F0 /* 00000788 */]
00000B7A  4A40                     tst.w      D0
00000B7C  588F                     addq.l     A7, 4
00000B7E  6704                     beq        +0x6 /* 00000B84 */
label00000B80:
00000B80  7E3A                     moveq.l    D7, 0x3A
00000B82  603A                     bra        +0x3C /* 00000BBE */
label00000B84:
00000B84  2F3C FFFF EBAC           move.l     -[A7], 0xFFFFEBAC
00000B8A  4EBA FBFC                jsr        [PC - 0x404 /* 00000788 */]
00000B8E  4A40                     tst.w      D0
00000B90  588F                     addq.l     A7, 4
00000B92  6704                     beq        +0x6 /* 00000B98 */
00000B94  7E3B                     moveq.l    D7, 0x3B
00000B96  6026                     bra        +0x28 /* 00000BBE */
label00000B98:
00000B98  2F3C FFFF EBB2           move.l     -[A7], 0xFFFFEBB2
00000B9E  4EBA FBE8                jsr        [PC - 0x418 /* 00000788 */]
00000BA2  4A40                     tst.w      D0
00000BA4  588F                     addq.l     A7, 4
00000BA6  6704                     beq        +0x6 /* 00000BAC */
00000BA8  7E3C                     moveq.l    D7, 0x3C
00000BAA  6012                     bra        +0x14 /* 00000BBE */
label00000BAC:
00000BAC  2F3C FFFF EBB8           move.l     -[A7], 0xFFFFEBB8
00000BB2  4EBA FBD4                jsr        [PC - 0x42C /* 00000788 */]
00000BB6  4A40                     tst.w      D0
00000BB8  588F                     addq.l     A7, 4
00000BBA  6702                     beq        +0x4 /* 00000BBE */
00000BBC  7E3D                     moveq.l    D7, 0x3D
label00000BBE:
00000BBE  4A47                     tst.w      D7
00000BC0  670A                     beq        +0xC /* 00000BCC */
00000BC2  0C47 4E20                cmpi.w     D7, 0x4E20 /* 'N ' */
00000BC6  6C04                     bge        +0x6 /* 00000BCC */
00000BC8  0647 4F4C                addi.w     D7, 0x4F4C /* 'OL' */
label00000BCC:
00000BCC  4A45                     tst.w      D5
00000BCE  6708                     beq        +0xA /* 00000BD8 */
00000BD0  4A47                     tst.w      D7
00000BD2  6704                     beq        +0x6 /* 00000BD8 */
00000BD4  0647 0064                addi.w     D7, 0x64 /* 'd' */
label00000BD8:
00000BD8  3007                     move.w     D0, D7
00000BDA  4CDF 00E0                movem.l    D5,D6,D7, [A7]+
00000BDE  4E75                     rts
fn00000BE0:
00000BE0  4E56 FFFC                link       A6, -0x0004
00000BE4  2F06                     move.l     -[A7], D6
00000BE6  0C6E 4FB0 0008           cmpi.w     [A6 + 0x8], 0x4FB0
00000BEC  6D0A                     blt        +0xC /* 00000BF8 */
00000BEE  046E 0064 0008           subi.w     [A6 + 0x8], 0x64 /* 'd' */
00000BF4  7C01                     moveq.l    D6, 0x01
00000BF6  6002                     bra        +0x4 /* 00000BFA */
label00000BF8:
00000BF8  7C00                     moveq.l    D6, 0x00
label00000BFA:
00000BFA  3039 FFFF E882           move.w     D0, [0xFFFFE882]
00000C00  5279 FFFF E882           addq.w     [0xFFFFE882], 1
00000C06  2079 FFFF C29A           movea.l    A0, [0xFFFFC29A]
00000C0C  D0C0                     add.w      A0, D0
00000C0E  31AE 0008 0000           move.w     [A0 + D0.w], [A6 + 0x8]
00000C14  4A46                     tst.w      D6
00000C16  661A                     bne        +0x1C /* 00000C32 */
00000C18  3039 FFFF E882           move.w     D0, [0xFFFFE882]
00000C1E  5279 FFFF E882           addq.w     [0xFFFFE882], 1
00000C24  2079 FFFF C29A           movea.l    A0, [0xFFFFC29A]
00000C2A  D0C0                     add.w      A0, D0
00000C2C  31BC 4E8D 0000           move.w     [A0 + D0.w], 0x4E8D
label00000C32:
00000C32  2C1F                     move.l     D6, [A7]+
00000C34  4E5E                     unlink     A6
00000C36  4E75                     rts
fn00000C38:
00000C38  4E56 FFFE                link       A6, -0x0002
00000C3C  48E7 0308                movem.l    -[A7], D6,D7,A4
00000C40  7E00                     moveq.l    D7, 0x00
00000C42  0C79 0013 FFFF E888      cmpi.w     [0xFFFFE888], 0x13
00000C4A  6F06                     ble        +0x8 /* 00000C52 */
00000C4C  4239 FFFF E831           clr.b      [0xFFFFE831]
label00000C52:
00000C52  7C00                     moveq.l    D6, 0x00
00000C54  287C FFFF C29E           movea.l    A4, 0xFFFFC29E
00000C5A  6016                     bra        +0x18 /* 00000C72 */
label00000C5C:
00000C5C  2F0C                     move.l     -[A7], A4
00000C5E  4EBA FB28                jsr        [PC - 0x4D8 /* 00000788 */]
00000C62  4A40                     tst.w      D0
00000C64  588F                     addq.l     A7, 4
00000C66  6704                     beq        +0x6 /* 00000C6C */
00000C68  3E2C 0014                move.w     D7, [A4 + 0x14]
label00000C6C:
00000C6C  5246                     addq.w     D6, 1
00000C6E  49EC 0018                lea.l      A4, [A4 + 0x18]
label00000C72:
00000C72  BC79 FFFF E884           cmp.w      D6, [0xFFFFE884]
00000C78  6C04                     bge        +0x6 /* 00000C7E */
00000C7A  4A47                     tst.w      D7
00000C7C  67DE                     beq        -0x20 /* 00000C5C */
label00000C7E:
00000C7E  3007                     move.w     D0, D7
00000C80  4CDF 10C0                movem.l    D6,D7,A4, [A7]+
00000C84  4E5E                     unlink     A6
00000C86  4E75                     rts
fn00000C88:
00000C88  48E7 0F00                movem.l    -[A7], D4,D5,D6,D7
00000C8C  7E01                     moveq.l    D7, 0x01
00000C8E  0C39 007B FFFF E81E      cmpi.b     [0xFFFFE81E], 0x7B /* '{' */
00000C96  6660                     bne        +0x62 /* 00000CF8 */
00000C98  3C39 FFFF E88A           move.w     D6, [0xFFFFE88A]
00000C9E  3A39 FFFF E89C           move.w     D5, [0xFFFFE89C]
label00000CA4:
00000CA4  3039 FFFF E89C           move.w     D0, [0xFFFFE89C]
00000CAA  5279 FFFF E89C           addq.w     [0xFFFFE89C], 1
00000CB0  2079 FFFF E898           movea.l    A0, [0xFFFFE898]
00000CB6  1830 0000                move.b     D4, [A0 + D0.w]
00000CBA  0C04 007B                cmpi.b     D4, 0x7B /* '{' */
00000CBE  6602                     bne        +0x4 /* 00000CC2 */
00000CC0  5247                     addq.w     D7, 1
label00000CC2:
00000CC2  0C04 007D                cmpi.b     D4, 0x7D /* '}' */
00000CC6  6602                     bne        +0x4 /* 00000CCA */
00000CC8  5347                     subq.w     D7, 1
label00000CCA:
00000CCA  0C04 000D                cmpi.b     D4, 0xD /* '\r' */
00000CCE  6606                     bne        +0x8 /* 00000CD6 */
00000CD0  5279 FFFF E88A           addq.w     [0xFFFFE88A], 1
label00000CD6:
00000CD6  4A47                     tst.w      D7
00000CD8  670E                     beq        +0x10 /* 00000CE8 */
00000CDA  3079 FFFF E89C           movea.w    A0, [0xFFFFE89C]
00000CE0  B1F9 FFFF 74EE           cmpa.l     A0, [0xFFFF74EE]
00000CE6  6DBC                     blt        -0x42 /* 00000CA4 */
label00000CE8:
00000CE8  4A47                     tst.w      D7
00000CEA  6742                     beq        +0x44 /* 00000D2E */
00000CEC  3F05                     move.w     -[A7], D5
00000CEE  3F06                     move.w     -[A7], D6
00000CF0  4EBA F7A2                jsr        [PC - 0x85E /* 00000494 */]
00000CF4  588F                     addq.l     A7, 4
00000CF6  6036                     bra        +0x38 /* 00000D2E */
label00000CF8:
00000CF8  3039 FFFF E89C           move.w     D0, [0xFFFFE89C]
00000CFE  5279 FFFF E89C           addq.w     [0xFFFFE89C], 1
00000D04  2079 FFFF E898           movea.l    A0, [0xFFFFE898]
00000D0A  1830 0000                move.b     D4, [A0 + D0.w]
00000D0E  0C04 000D                cmpi.b     D4, 0xD /* '\r' */
00000D12  6606                     bne        +0x8 /* 00000D1A */
00000D14  5279 FFFF E88A           addq.w     [0xFFFFE88A], 1
label00000D1A:
00000D1A  0C04 000D                cmpi.b     D4, 0xD /* '\r' */
00000D1E  670E                     beq        +0x10 /* 00000D2E */
00000D20  3079 FFFF E89C           movea.w    A0, [0xFFFFE89C]
00000D26  B1F9 FFFF 74EE           cmpa.l     A0, [0xFFFF74EE]
00000D2C  6DCA                     blt        -0x34 /* 00000CF8 */
label00000D2E:
00000D2E  4CDF 00F0                movem.l    D4,D5,D6,D7, [A7]+
00000D32  4E75                     rts
fn00000D34:
00000D34  3039 FFFF E886           move.w     D0, [0xFFFFE886]
00000D3A  5279 FFFF E886           addq.w     [0xFFFFE886], 1
00000D40  C1FC 0018                muls.w     D0, 0x18
00000D44  2040                     movea.l    A0, D0
00000D46  D1FC FFFF C2B4           add.l      A0, 0xFFFFC2B4
00000D4C  30B9 FFFF E882           move.w     [A0], [0xFFFFE882]
00000D52  4E75                     rts
fn00000D54:
00000D54  4E56 0000                link       A6, 0
00000D58  48E7 0308                movem.l    -[A7], D6,D7,A4
00000D5C  3E3C B1E0                move.w     D7, 0xB1E0
00000D60  4A79 FFFF E888           tst.w      [0xFFFFE888]
00000D66  6608                     bne        +0xA /* 00000D70 */
00000D68  3E3C B1DF                move.w     D7, 0xB1DF
00000D6C  6000 078A                bra        +0x78C /* 000014F8 */
label00000D70:
00000D70  0C39 007B FFFF E81E      cmpi.b     [0xFFFFE81E], 0x7B /* '{' */
00000D78  670A                     beq        +0xC /* 00000D84 */
00000D7A  0C39 0023 FFFF E81E      cmpi.b     [0xFFFFE81E], 0x23 /* '#' */
00000D82  6608                     bne        +0xA /* 00000D8C */
label00000D84:
00000D84  4EBA FF02                jsr        [PC - 0xFE /* 00000C88 */]
00000D88  6000 076E                bra        +0x770 /* 000014F8 */
label00000D8C:
00000D8C  3079 FFFF E888           movea.w    A0, [0xFFFFE888]
00000D92  D1FC FFFF E81D           add.l      A0, 0xFFFFE81D
00000D98  0C10 003A                cmpi.b     [A0], 0x3A /* ':' */
00000D9C  6608                     bne        +0xA /* 00000DA6 */
00000D9E  4EBA FF94                jsr        [PC - 0x6C /* 00000D34 */]
00000DA2  6000 0754                bra        +0x756 /* 000014F8 */
label00000DA6:
00000DA6  7C00                     moveq.l    D6, 0x00
00000DA8  6018                     bra        +0x1A /* 00000DC2 */
label00000DAA:
00000DAA  3846                     movea.w    A4, D6
00000DAC  D9FC FFFF E81E           add.l      A4, 0xFFFFE81E
00000DB2  1014                     move.b     D0, [A4]
00000DB4  4880                     ext.w      D0
00000DB6  3F00                     move.w     -[A7], D0
00000DB8  4EAD 04CA                jsr        [A5 + 0x4CA /* export_149, CODE:7 @ 000008D6 */]
00000DBC  1880                     move.b     [A4], D0
00000DBE  548F                     addq.l     A7, 2
00000DC0  5246                     addq.w     D6, 1
label00000DC2:
00000DC2  BC79 FFFF E888           cmp.w      D6, [0xFFFFE888]
00000DC8  6DE0                     blt        -0x1E /* 00000DAA */
00000DCA  2F3C FFFF EBBE           move.l     -[A7], 0xFFFFEBBE
00000DD0  4EBA F9B6                jsr        [PC - 0x64A /* 00000788 */]
00000DD4  4A40                     tst.w      D0
00000DD6  588F                     addq.l     A7, 4
00000DD8  6708                     beq        +0xA /* 00000DE2 */
00000DDA  3E3C 4E20                move.w     D7, 0x4E20 /* 'N ' */
00000DDE  6000 06B0                bra        +0x6B2 /* 00001490 */
label00000DE2:
00000DE2  2F3C FFFF EBC0           move.l     -[A7], 0xFFFFEBC0
00000DE8  4EBA F99E                jsr        [PC - 0x662 /* 00000788 */]
00000DEC  4A40                     tst.w      D0
00000DEE  588F                     addq.l     A7, 4
00000DF0  6708                     beq        +0xA /* 00000DFA */
00000DF2  3E3C 4E21                move.w     D7, 0x4E21 /* 'N!' */
00000DF6  6000 0698                bra        +0x69A /* 00001490 */
label00000DFA:
00000DFA  2F3C FFFF EBC2           move.l     -[A7], 0xFFFFEBC2
00000E00  4EBA F986                jsr        [PC - 0x67A /* 00000788 */]
00000E04  4A40                     tst.w      D0
00000E06  588F                     addq.l     A7, 4
00000E08  6708                     beq        +0xA /* 00000E12 */
00000E0A  3E3C 4E22                move.w     D7, 0x4E22 /* 'N\"' */
00000E0E  6000 0680                bra        +0x682 /* 00001490 */
label00000E12:
00000E12  2F3C FFFF EBC4           move.l     -[A7], 0xFFFFEBC4
00000E18  4EBA F96E                jsr        [PC - 0x692 /* 00000788 */]
00000E1C  4A40                     tst.w      D0
00000E1E  588F                     addq.l     A7, 4
00000E20  6708                     beq        +0xA /* 00000E2A */
00000E22  3E3C 4E23                move.w     D7, 0x4E23 /* 'N#' */
00000E26  6000 0668                bra        +0x66A /* 00001490 */
label00000E2A:
00000E2A  2F3C FFFF EBC6           move.l     -[A7], 0xFFFFEBC6
00000E30  4EBA F956                jsr        [PC - 0x6AA /* 00000788 */]
00000E34  4A40                     tst.w      D0
00000E36  588F                     addq.l     A7, 4
00000E38  6708                     beq        +0xA /* 00000E42 */
00000E3A  3E3C 4E25                move.w     D7, 0x4E25 /* 'N%' */
00000E3E  6000 0650                bra        +0x652 /* 00001490 */
label00000E42:
00000E42  2F3C FFFF EBC8           move.l     -[A7], 0xFFFFEBC8
00000E48  4EBA F93E                jsr        [PC - 0x6C2 /* 00000788 */]
00000E4C  4A40                     tst.w      D0
00000E4E  588F                     addq.l     A7, 4
00000E50  6708                     beq        +0xA /* 00000E5A */
00000E52  3E3C 4E24                move.w     D7, 0x4E24 /* 'N$' */
00000E56  6000 0638                bra        +0x63A /* 00001490 */
label00000E5A:
00000E5A  2F3C FFFF EBCA           move.l     -[A7], 0xFFFFEBCA
00000E60  4EBA F926                jsr        [PC - 0x6DA /* 00000788 */]
00000E64  4A40                     tst.w      D0
00000E66  588F                     addq.l     A7, 4
00000E68  6708                     beq        +0xA /* 00000E72 */
00000E6A  3E3C 4E26                move.w     D7, 0x4E26 /* 'N&' */
00000E6E  6000 0620                bra        +0x622 /* 00001490 */
label00000E72:
00000E72  2F3C FFFF EBCC           move.l     -[A7], 0xFFFFEBCC
00000E78  4EBA F90E                jsr        [PC - 0x6F2 /* 00000788 */]
00000E7C  4A40                     tst.w      D0
00000E7E  588F                     addq.l     A7, 4
00000E80  6708                     beq        +0xA /* 00000E8A */
00000E82  3E3C 4E27                move.w     D7, 0x4E27 /* 'N\'' */
00000E86  6000 0608                bra        +0x60A /* 00001490 */
label00000E8A:
00000E8A  2F3C FFFF EBCE           move.l     -[A7], 0xFFFFEBCE
00000E90  4EBA F8F6                jsr        [PC - 0x70A /* 00000788 */]
00000E94  4A40                     tst.w      D0
00000E96  588F                     addq.l     A7, 4
00000E98  6610                     bne        +0x12 /* 00000EAA */
00000E9A  2F3C FFFF EBD2           move.l     -[A7], 0xFFFFEBD2
00000EA0  4EBA F8E6                jsr        [PC - 0x71A /* 00000788 */]
00000EA4  4A40                     tst.w      D0
00000EA6  588F                     addq.l     A7, 4
00000EA8  6738                     beq        +0x3A /* 00000EE2 */
label00000EAA:
00000EAA  3E3C 4E84                move.w     D7, 0x4E84
00000EAE  3079 FFFF E882           movea.w    A0, [0xFFFFE882]
00000EB4  D1C8                     add.l      A0, A0
00000EB6  D1F9 FFFF C29A           add.l      A0, [0xFFFFC29A]
00000EBC  3C20                     move.w     D6, -[A0]
00000EBE  0C46 4F4C                cmpi.w     D6, 0x4F4C /* 'OL' */
00000EC2  6D08                     blt        +0xA /* 00000ECC */
00000EC4  0C46 4FAF                cmpi.w     D6, 0x4FAF
00000EC8  6F00 05C6                ble        +0x5C8 /* 00001490 */
label00000ECC:
00000ECC  3F39 FFFF E888           move.w     -[A7], [0xFFFFE888]
00000ED2  2F3C FFFF EBD8           move.l     -[A7], 0xFFFFEBD8
00000ED8  4EBA F562                jsr        [PC - 0xA9E /* 0000043C */]
00000EDC  5C8F                     addq.l     A7, 6
00000EDE  6000 05B0                bra        +0x5B2 /* 00001490 */
label00000EE2:
00000EE2  2F3C FFFF EBF6           move.l     -[A7], 0xFFFFEBF6
00000EE8  4EBA F89E                jsr        [PC - 0x762 /* 00000788 */]
00000EEC  4A40                     tst.w      D0
00000EEE  588F                     addq.l     A7, 4
00000EF0  6708                     beq        +0xA /* 00000EFA */
00000EF2  3E3C 4E85                move.w     D7, 0x4E85
00000EF6  6000 0598                bra        +0x59A /* 00001490 */
label00000EFA:
00000EFA  2F3C FFFF EBFC           move.l     -[A7], 0xFFFFEBFC
00000F00  4EBA F886                jsr        [PC - 0x77A /* 00000788 */]
00000F04  4A40                     tst.w      D0
00000F06  588F                     addq.l     A7, 4
00000F08  6708                     beq        +0xA /* 00000F12 */
00000F0A  3E3C 4E86                move.w     D7, 0x4E86
00000F0E  6000 0580                bra        +0x582 /* 00001490 */
label00000F12:
00000F12  2F3C FFFF EC02           move.l     -[A7], 0xFFFFEC02
00000F18  4EBA F86E                jsr        [PC - 0x792 /* 00000788 */]
00000F1C  4A40                     tst.w      D0
00000F1E  588F                     addq.l     A7, 4
00000F20  6708                     beq        +0xA /* 00000F2A */
00000F22  3E3C 4E87                move.w     D7, 0x4E87
00000F26  6000 0568                bra        +0x56A /* 00001490 */
label00000F2A:
00000F2A  2F3C FFFF EC08           move.l     -[A7], 0xFFFFEC08
00000F30  4EBA F856                jsr        [PC - 0x7AA /* 00000788 */]
00000F34  4A40                     tst.w      D0
00000F36  588F                     addq.l     A7, 4
00000F38  6610                     bne        +0x12 /* 00000F4A */
00000F3A  2F3C FFFF EC0E           move.l     -[A7], 0xFFFFEC0E
00000F40  4EBA F846                jsr        [PC - 0x7BA /* 00000788 */]
00000F44  4A40                     tst.w      D0
00000F46  588F                     addq.l     A7, 4
00000F48  6708                     beq        +0xA /* 00000F52 */
label00000F4A:
00000F4A  3E3C 4E88                move.w     D7, 0x4E88
00000F4E  6000 0540                bra        +0x542 /* 00001490 */
label00000F52:
00000F52  2F3C FFFF EC16           move.l     -[A7], 0xFFFFEC16
00000F58  4EBA F82E                jsr        [PC - 0x7D2 /* 00000788 */]
00000F5C  4A40                     tst.w      D0
00000F5E  588F                     addq.l     A7, 4
00000F60  6708                     beq        +0xA /* 00000F6A */
00000F62  3E3C 4E89                move.w     D7, 0x4E89
00000F66  6000 0528                bra        +0x52A /* 00001490 */
label00000F6A:
00000F6A  2F3C FFFF EC1C           move.l     -[A7], 0xFFFFEC1C
00000F70  4EBA F816                jsr        [PC - 0x7EA /* 00000788 */]
00000F74  4A40                     tst.w      D0
00000F76  588F                     addq.l     A7, 4
00000F78  6610                     bne        +0x12 /* 00000F8A */
00000F7A  2F3C FFFF EC20           move.l     -[A7], 0xFFFFEC20
00000F80  4EBA F806                jsr        [PC - 0x7FA /* 00000788 */]
00000F84  4A40                     tst.w      D0
00000F86  588F                     addq.l     A7, 4
00000F88  6708                     beq        +0xA /* 00000F92 */
label00000F8A:
00000F8A  3E3C 4E8A                move.w     D7, 0x4E8A
00000F8E  6000 0500                bra        +0x502 /* 00001490 */
label00000F92:
00000F92  2F3C FFFF EC2A           move.l     -[A7], 0xFFFFEC2A
00000F98  4EBA F7EE                jsr        [PC - 0x812 /* 00000788 */]
00000F9C  4A40                     tst.w      D0
00000F9E  588F                     addq.l     A7, 4
00000FA0  6708                     beq        +0xA /* 00000FAA */
00000FA2  3E3C 4E8B                move.w     D7, 0x4E8B
00000FA6  6000 04E8                bra        +0x4EA /* 00001490 */
label00000FAA:
00000FAA  2F3C FFFF EC2E           move.l     -[A7], 0xFFFFEC2E
00000FB0  4EBA F7D6                jsr        [PC - 0x82A /* 00000788 */]
00000FB4  4A40                     tst.w      D0
00000FB6  588F                     addq.l     A7, 4
00000FB8  6708                     beq        +0xA /* 00000FC2 */
00000FBA  3E3C 4E8C                move.w     D7, 0x4E8C
00000FBE  6000 04D0                bra        +0x4D2 /* 00001490 */
label00000FC2:
00000FC2  2F3C FFFF EC32           move.l     -[A7], 0xFFFFEC32
00000FC8  4EBA F7BE                jsr        [PC - 0x842 /* 00000788 */]
00000FCC  4A40                     tst.w      D0
00000FCE  588F                     addq.l     A7, 4
00000FD0  6708                     beq        +0xA /* 00000FDA */
00000FD2  3E3C 4E8F                move.w     D7, 0x4E8F
00000FD6  6000 04B8                bra        +0x4BA /* 00001490 */
label00000FDA:
00000FDA  2F3C FFFF EC36           move.l     -[A7], 0xFFFFEC36
00000FE0  4EBA F7A6                jsr        [PC - 0x85A /* 00000788 */]
00000FE4  4A40                     tst.w      D0
00000FE6  588F                     addq.l     A7, 4
00000FE8  6708                     beq        +0xA /* 00000FF2 */
00000FEA  3E3C 4E91                move.w     D7, 0x4E91
00000FEE  6000 04A0                bra        +0x4A2 /* 00001490 */
label00000FF2:
00000FF2  2F3C FFFF EC3A           move.l     -[A7], 0xFFFFEC3A
00000FF8  4EBA F78E                jsr        [PC - 0x872 /* 00000788 */]
00000FFC  4A40                     tst.w      D0
00000FFE  588F                     addq.l     A7, 4
00001000  6708                     beq        +0xA /* 0000100A */
00001002  3E3C 4E90                move.w     D7, 0x4E90
00001006  6000 0488                bra        +0x48A /* 00001490 */
label0000100A:
0000100A  2F3C FFFF EC3E           move.l     -[A7], 0xFFFFEC3E
00001010  4EBA F776                jsr        [PC - 0x88A /* 00000788 */]
00001014  4A40                     tst.w      D0
00001016  588F                     addq.l     A7, 4
00001018  6610                     bne        +0x12 /* 0000102A */
0000101A  2F3C FFFF EC42           move.l     -[A7], 0xFFFFEC42
00001020  4EBA F766                jsr        [PC - 0x89A /* 00000788 */]
00001024  4A40                     tst.w      D0
00001026  588F                     addq.l     A7, 4
00001028  6708                     beq        +0xA /* 00001032 */
label0000102A:
0000102A  3E3C 4E92                move.w     D7, 0x4E92
0000102E  6000 0460                bra        +0x462 /* 00001490 */
label00001032:
00001032  2F3C FFFF EC46           move.l     -[A7], 0xFFFFEC46
00001038  4EBA F74E                jsr        [PC - 0x8B2 /* 00000788 */]
0000103C  4A40                     tst.w      D0
0000103E  588F                     addq.l     A7, 4
00001040  6708                     beq        +0xA /* 0000104A */
00001042  3E3C 4E93                move.w     D7, 0x4E93
00001046  6000 0448                bra        +0x44A /* 00001490 */
label0000104A:
0000104A  2F3C FFFF EC4A           move.l     -[A7], 0xFFFFEC4A
00001050  4EBA F736                jsr        [PC - 0x8CA /* 00000788 */]
00001054  4A40                     tst.w      D0
00001056  588F                     addq.l     A7, 4
00001058  6708                     beq        +0xA /* 00001062 */
0000105A  3E3C 4E94                move.w     D7, 0x4E94
0000105E  6000 0430                bra        +0x432 /* 00001490 */
label00001062:
00001062  2F3C FFFF EC50           move.l     -[A7], 0xFFFFEC50
00001068  4EBA F71E                jsr        [PC - 0x8E2 /* 00000788 */]
0000106C  4A40                     tst.w      D0
0000106E  588F                     addq.l     A7, 4
00001070  6708                     beq        +0xA /* 0000107A */
00001072  3E3C 4E95                move.w     D7, 0x4E95
00001076  6000 0418                bra        +0x41A /* 00001490 */
label0000107A:
0000107A  2F3C FFFF EC54           move.l     -[A7], 0xFFFFEC54
00001080  4EBA F706                jsr        [PC - 0x8FA /* 00000788 */]
00001084  4A40                     tst.w      D0
00001086  588F                     addq.l     A7, 4
00001088  6708                     beq        +0xA /* 00001092 */
0000108A  3E3C 4E96                move.w     D7, 0x4E96
0000108E  6000 0400                bra        +0x402 /* 00001490 */
label00001092:
00001092  2F3C FFFF EC58           move.l     -[A7], 0xFFFFEC58
00001098  4EBA F6EE                jsr        [PC - 0x912 /* 00000788 */]
0000109C  4A40                     tst.w      D0
0000109E  588F                     addq.l     A7, 4
000010A0  6708                     beq        +0xA /* 000010AA */
000010A2  3E3C 4E97                move.w     D7, 0x4E97
000010A6  6000 03E8                bra        +0x3EA /* 00001490 */
label000010AA:
000010AA  2F3C FFFF EC60           move.l     -[A7], 0xFFFFEC60
000010B0  4EBA F6D6                jsr        [PC - 0x92A /* 00000788 */]
000010B4  4A40                     tst.w      D0
000010B6  588F                     addq.l     A7, 4
000010B8  6708                     beq        +0xA /* 000010C2 */
000010BA  3E3C 4E98                move.w     D7, 0x4E98
000010BE  6000 03D0                bra        +0x3D2 /* 00001490 */
label000010C2:
000010C2  2F3C FFFF EC64           move.l     -[A7], 0xFFFFEC64
000010C8  4EBA F6BE                jsr        [PC - 0x942 /* 00000788 */]
000010CC  4A40                     tst.w      D0
000010CE  588F                     addq.l     A7, 4
000010D0  6610                     bne        +0x12 /* 000010E2 */
000010D2  2F3C FFFF EC68           move.l     -[A7], 0xFFFFEC68
000010D8  4EBA F6AE                jsr        [PC - 0x952 /* 00000788 */]
000010DC  4A40                     tst.w      D0
000010DE  588F                     addq.l     A7, 4
000010E0  6708                     beq        +0xA /* 000010EA */
label000010E2:
000010E2  3E3C 4E99                move.w     D7, 0x4E99
000010E6  6000 03A8                bra        +0x3AA /* 00001490 */
label000010EA:
000010EA  2F3C FFFF EC6E           move.l     -[A7], 0xFFFFEC6E
000010F0  4EBA F696                jsr        [PC - 0x96A /* 00000788 */]
000010F4  4A40                     tst.w      D0
000010F6  588F                     addq.l     A7, 4
000010F8  6610                     bne        +0x12 /* 0000110A */
000010FA  2F3C FFFF EC72           move.l     -[A7], 0xFFFFEC72
00001100  4EBA F686                jsr        [PC - 0x97A /* 00000788 */]
00001104  4A40                     tst.w      D0
00001106  588F                     addq.l     A7, 4
00001108  6708                     beq        +0xA /* 00001112 */
label0000110A:
0000110A  3E3C 4E9A                move.w     D7, 0x4E9A
0000110E  6000 0380                bra        +0x382 /* 00001490 */
label00001112:
00001112  2F3C FFFF EC7A           move.l     -[A7], 0xFFFFEC7A
00001118  4EBA F66E                jsr        [PC - 0x992 /* 00000788 */]
0000111C  4A40                     tst.w      D0
0000111E  588F                     addq.l     A7, 4
00001120  6610                     bne        +0x12 /* 00001132 */
00001122  2F3C FFFF EC7E           move.l     -[A7], 0xFFFFEC7E
00001128  4EBA F65E                jsr        [PC - 0x9A2 /* 00000788 */]
0000112C  4A40                     tst.w      D0
0000112E  588F                     addq.l     A7, 4
00001130  6708                     beq        +0xA /* 0000113A */
label00001132:
00001132  3E3C 4E9B                move.w     D7, 0x4E9B
00001136  6000 0358                bra        +0x35A /* 00001490 */
label0000113A:
0000113A  2F3C FFFF EC86           move.l     -[A7], 0xFFFFEC86
00001140  4EBA F646                jsr        [PC - 0x9BA /* 00000788 */]
00001144  4A40                     tst.w      D0
00001146  588F                     addq.l     A7, 4
00001148  6708                     beq        +0xA /* 00001152 */
0000114A  3E3C 4E9C                move.w     D7, 0x4E9C
0000114E  6000 0340                bra        +0x342 /* 00001490 */
label00001152:
00001152  2F3C FFFF EC8C           move.l     -[A7], 0xFFFFEC8C
00001158  4EBA F62E                jsr        [PC - 0x9D2 /* 00000788 */]
0000115C  4A40                     tst.w      D0
0000115E  588F                     addq.l     A7, 4
00001160  6708                     beq        +0xA /* 0000116A */
00001162  3E3C 4E9D                move.w     D7, 0x4E9D
00001166  6000 0328                bra        +0x32A /* 00001490 */
label0000116A:
0000116A  2F3C FFFF EC92           move.l     -[A7], 0xFFFFEC92
00001170  4EBA F616                jsr        [PC - 0x9EA /* 00000788 */]
00001174  4A40                     tst.w      D0
00001176  588F                     addq.l     A7, 4
00001178  6708                     beq        +0xA /* 00001182 */
0000117A  3E3C 4E9E                move.w     D7, 0x4E9E
0000117E  6000 0310                bra        +0x312 /* 00001490 */
label00001182:
00001182  2F3C FFFF EC98           move.l     -[A7], 0xFFFFEC98
00001188  4EBA F5FE                jsr        [PC - 0xA02 /* 00000788 */]
0000118C  4A40                     tst.w      D0
0000118E  588F                     addq.l     A7, 4
00001190  6708                     beq        +0xA /* 0000119A */
00001192  3E3C 4E9F                move.w     D7, 0x4E9F
00001196  6000 02F8                bra        +0x2FA /* 00001490 */
label0000119A:
0000119A  2F3C FFFF EC9E           move.l     -[A7], 0xFFFFEC9E
000011A0  4EBA F5E6                jsr        [PC - 0xA1A /* 00000788 */]
000011A4  4A40                     tst.w      D0
000011A6  588F                     addq.l     A7, 4
000011A8  6708                     beq        +0xA /* 000011B2 */
000011AA  3E3C 4EA0                move.w     D7, 0x4EA0
000011AE  6000 02E0                bra        +0x2E2 /* 00001490 */
label000011B2:
000011B2  2F3C FFFF ECA4           move.l     -[A7], 0xFFFFECA4
000011B8  4EBA F5CE                jsr        [PC - 0xA32 /* 00000788 */]
000011BC  4A40                     tst.w      D0
000011BE  588F                     addq.l     A7, 4
000011C0  6708                     beq        +0xA /* 000011CA */
000011C2  3E3C 4EA1                move.w     D7, 0x4EA1
000011C6  6000 02C8                bra        +0x2CA /* 00001490 */
label000011CA:
000011CA  2F3C FFFF ECAA           move.l     -[A7], 0xFFFFECAA
000011D0  4EBA F5B6                jsr        [PC - 0xA4A /* 00000788 */]
000011D4  4A40                     tst.w      D0
000011D6  588F                     addq.l     A7, 4
000011D8  6708                     beq        +0xA /* 000011E2 */
000011DA  3E3C 4EA2                move.w     D7, 0x4EA2
000011DE  6000 02B0                bra        +0x2B2 /* 00001490 */
label000011E2:
000011E2  2F3C FFFF ECB0           move.l     -[A7], 0xFFFFECB0
000011E8  4EBA F59E                jsr        [PC - 0xA62 /* 00000788 */]
000011EC  4A40                     tst.w      D0
000011EE  588F                     addq.l     A7, 4
000011F0  6708                     beq        +0xA /* 000011FA */
000011F2  3E3C 4EA3                move.w     D7, 0x4EA3
000011F6  6000 0298                bra        +0x29A /* 00001490 */
label000011FA:
000011FA  2F3C FFFF ECB6           move.l     -[A7], 0xFFFFECB6
00001200  4EBA F586                jsr        [PC - 0xA7A /* 00000788 */]
00001204  4A40                     tst.w      D0
00001206  588F                     addq.l     A7, 4
00001208  6708                     beq        +0xA /* 00001212 */
0000120A  3E3C 4EA4                move.w     D7, 0x4EA4
0000120E  6000 0280                bra        +0x282 /* 00001490 */
label00001212:
00001212  2F3C FFFF ECBC           move.l     -[A7], 0xFFFFECBC
00001218  4EBA F56E                jsr        [PC - 0xA92 /* 00000788 */]
0000121C  4A40                     tst.w      D0
0000121E  588F                     addq.l     A7, 4
00001220  6708                     beq        +0xA /* 0000122A */
00001222  3E3C 4EA5                move.w     D7, 0x4EA5
00001226  6000 0268                bra        +0x26A /* 00001490 */
label0000122A:
0000122A  2F3C FFFF ECC2           move.l     -[A7], 0xFFFFECC2
00001230  4EBA F556                jsr        [PC - 0xAAA /* 00000788 */]
00001234  4A40                     tst.w      D0
00001236  588F                     addq.l     A7, 4
00001238  6708                     beq        +0xA /* 00001242 */
0000123A  3E3C 4EA6                move.w     D7, 0x4EA6
0000123E  6000 0250                bra        +0x252 /* 00001490 */
label00001242:
00001242  2F3C FFFF ECC8           move.l     -[A7], 0xFFFFECC8
00001248  4EBA F53E                jsr        [PC - 0xAC2 /* 00000788 */]
0000124C  4A40                     tst.w      D0
0000124E  588F                     addq.l     A7, 4
00001250  6708                     beq        +0xA /* 0000125A */
00001252  3E3C 4EA7                move.w     D7, 0x4EA7
00001256  6000 0238                bra        +0x23A /* 00001490 */
label0000125A:
0000125A  2F3C FFFF ECCE           move.l     -[A7], 0xFFFFECCE
00001260  4EBA F526                jsr        [PC - 0xADA /* 00000788 */]
00001264  4A40                     tst.w      D0
00001266  588F                     addq.l     A7, 4
00001268  6708                     beq        +0xA /* 00001272 */
0000126A  3E3C 4EA8                move.w     D7, 0x4EA8
0000126E  6000 0220                bra        +0x222 /* 00001490 */
label00001272:
00001272  2F3C FFFF ECD4           move.l     -[A7], 0xFFFFECD4
00001278  4EBA F50E                jsr        [PC - 0xAF2 /* 00000788 */]
0000127C  4A40                     tst.w      D0
0000127E  588F                     addq.l     A7, 4
00001280  6708                     beq        +0xA /* 0000128A */
00001282  3E3C 4EA9                move.w     D7, 0x4EA9
00001286  6000 0208                bra        +0x20A /* 00001490 */
label0000128A:
0000128A  2F3C FFFF ECDC           move.l     -[A7], 0xFFFFECDC
00001290  4EBA F4F6                jsr        [PC - 0xB0A /* 00000788 */]
00001294  4A40                     tst.w      D0
00001296  588F                     addq.l     A7, 4
00001298  6708                     beq        +0xA /* 000012A2 */
0000129A  3E3C 4EAA                move.w     D7, 0x4EAA
0000129E  6000 01F0                bra        +0x1F2 /* 00001490 */
label000012A2:
000012A2  2F3C FFFF ECE4           move.l     -[A7], 0xFFFFECE4
000012A8  4EBA F4DE                jsr        [PC - 0xB22 /* 00000788 */]
000012AC  4A40                     tst.w      D0
000012AE  588F                     addq.l     A7, 4
000012B0  6708                     beq        +0xA /* 000012BA */
000012B2  3E3C 4EAC                move.w     D7, 0x4EAC
000012B6  6000 01D8                bra        +0x1DA /* 00001490 */
label000012BA:
000012BA  2F3C FFFF ECE8           move.l     -[A7], 0xFFFFECE8
000012C0  4EBA F4C6                jsr        [PC - 0xB3A /* 00000788 */]
000012C4  4A40                     tst.w      D0
000012C6  588F                     addq.l     A7, 4
000012C8  6708                     beq        +0xA /* 000012D2 */
000012CA  3E3C 4EAD                move.w     D7, 0x4EAD
000012CE  6000 01C0                bra        +0x1C2 /* 00001490 */
label000012D2:
000012D2  2F3C FFFF ECEE           move.l     -[A7], 0xFFFFECEE
000012D8  4EBA F4AE                jsr        [PC - 0xB52 /* 00000788 */]
000012DC  4A40                     tst.w      D0
000012DE  588F                     addq.l     A7, 4
000012E0  6708                     beq        +0xA /* 000012EA */
000012E2  3E3C 4EAF                move.w     D7, 0x4EAF
000012E6  6000 01A8                bra        +0x1AA /* 00001490 */
label000012EA:
000012EA  2F3C FFFF ECF4           move.l     -[A7], 0xFFFFECF4
000012F0  4EBA F496                jsr        [PC - 0xB6A /* 00000788 */]
000012F4  4A40                     tst.w      D0
000012F6  588F                     addq.l     A7, 4
000012F8  6708                     beq        +0xA /* 00001302 */
000012FA  3E3C 4EB0                move.w     D7, 0x4EB0
000012FE  6000 0190                bra        +0x192 /* 00001490 */
label00001302:
00001302  2F3C FFFF ECFA           move.l     -[A7], 0xFFFFECFA
00001308  4EBA F47E                jsr        [PC - 0xB82 /* 00000788 */]
0000130C  4A40                     tst.w      D0
0000130E  588F                     addq.l     A7, 4
00001310  6708                     beq        +0xA /* 0000131A */
00001312  3E3C 4EB1                move.w     D7, 0x4EB1
00001316  6000 0178                bra        +0x17A /* 00001490 */
label0000131A:
0000131A  2F3C FFFF ED00           move.l     -[A7], 0xFFFFED00
00001320  4EBA F466                jsr        [PC - 0xB9A /* 00000788 */]
00001324  4A40                     tst.w      D0
00001326  588F                     addq.l     A7, 4
00001328  6708                     beq        +0xA /* 00001332 */
0000132A  3E3C 4EB2                move.w     D7, 0x4EB2
0000132E  6000 0160                bra        +0x162 /* 00001490 */
label00001332:
00001332  2F3C FFFF ED06           move.l     -[A7], 0xFFFFED06
00001338  4EBA F44E                jsr        [PC - 0xBB2 /* 00000788 */]
0000133C  4A40                     tst.w      D0
0000133E  588F                     addq.l     A7, 4
00001340  6708                     beq        +0xA /* 0000134A */
00001342  3E3C 4EB3                move.w     D7, 0x4EB3
00001346  6000 0148                bra        +0x14A /* 00001490 */
label0000134A:
0000134A  2F3C FFFF ED0C           move.l     -[A7], 0xFFFFED0C
00001350  4EBA F436                jsr        [PC - 0xBCA /* 00000788 */]
00001354  4A40                     tst.w      D0
00001356  588F                     addq.l     A7, 4
00001358  6708                     beq        +0xA /* 00001362 */
0000135A  3E3C 4EB4                move.w     D7, 0x4EB4
0000135E  6000 0130                bra        +0x132 /* 00001490 */
label00001362:
00001362  2F3C FFFF ED12           move.l     -[A7], 0xFFFFED12
00001368  4EBA F41E                jsr        [PC - 0xBE2 /* 00000788 */]
0000136C  4A40                     tst.w      D0
0000136E  588F                     addq.l     A7, 4
00001370  6708                     beq        +0xA /* 0000137A */
00001372  3E3C 4EB5                move.w     D7, 0x4EB5
00001376  6000 0118                bra        +0x11A /* 00001490 */
label0000137A:
0000137A  2F3C FFFF ED18           move.l     -[A7], 0xFFFFED18
00001380  4EBA F406                jsr        [PC - 0xBFA /* 00000788 */]
00001384  4A40                     tst.w      D0
00001386  588F                     addq.l     A7, 4
00001388  6708                     beq        +0xA /* 00001392 */
0000138A  3E3C 4EB6                move.w     D7, 0x4EB6
0000138E  6000 0100                bra        +0x102 /* 00001490 */
label00001392:
00001392  2F3C FFFF ED1E           move.l     -[A7], 0xFFFFED1E
00001398  4EBA F3EE                jsr        [PC - 0xC12 /* 00000788 */]
0000139C  4A40                     tst.w      D0
0000139E  588F                     addq.l     A7, 4
000013A0  6708                     beq        +0xA /* 000013AA */
000013A2  3E3C 4EB7                move.w     D7, 0x4EB7
000013A6  6000 00E8                bra        +0xEA /* 00001490 */
label000013AA:
000013AA  2F3C FFFF ED24           move.l     -[A7], 0xFFFFED24
000013B0  4EBA F3D6                jsr        [PC - 0xC2A /* 00000788 */]
000013B4  4A40                     tst.w      D0
000013B6  588F                     addq.l     A7, 4
000013B8  6708                     beq        +0xA /* 000013C2 */
000013BA  3E3C 4EB8                move.w     D7, 0x4EB8
000013BE  6000 00D0                bra        +0xD2 /* 00001490 */
label000013C2:
000013C2  2F3C FFFF ED2A           move.l     -[A7], 0xFFFFED2A
000013C8  4EBA F3BE                jsr        [PC - 0xC42 /* 00000788 */]
000013CC  4A40                     tst.w      D0
000013CE  588F                     addq.l     A7, 4
000013D0  6708                     beq        +0xA /* 000013DA */
000013D2  3E3C 4EB9                move.w     D7, 0x4EB9
000013D6  6000 00B8                bra        +0xBA /* 00001490 */
label000013DA:
000013DA  2F3C FFFF ED30           move.l     -[A7], 0xFFFFED30
000013E0  4EBA F3A6                jsr        [PC - 0xC5A /* 00000788 */]
000013E4  4A40                     tst.w      D0
000013E6  588F                     addq.l     A7, 4
000013E8  6708                     beq        +0xA /* 000013F2 */
000013EA  3E3C 4EBA                move.w     D7, 0x4EBA
000013EE  6000 00A0                bra        +0xA2 /* 00001490 */
label000013F2:
000013F2  2F3C FFFF ED38           move.l     -[A7], 0xFFFFED38
000013F8  4EBA F38E                jsr        [PC - 0xC72 /* 00000788 */]
000013FC  4A40                     tst.w      D0
000013FE  588F                     addq.l     A7, 4
00001400  6708                     beq        +0xA /* 0000140A */
00001402  3E3C 4EBB                move.w     D7, 0x4EBB
00001406  6000 0088                bra        +0x8A /* 00001490 */
label0000140A:
0000140A  2F3C FFFF ED3C           move.l     -[A7], 0xFFFFED3C
00001410  4EBA F376                jsr        [PC - 0xC8A /* 00000788 */]
00001414  4A40                     tst.w      D0
00001416  588F                     addq.l     A7, 4
00001418  6706                     beq        +0x8 /* 00001420 */
0000141A  3E3C 4EBC                move.w     D7, 0x4EBC
0000141E  6070                     bra        +0x72 /* 00001490 */
label00001420:
00001420  2F3C FFFF ED44           move.l     -[A7], 0xFFFFED44
00001426  4EBA F360                jsr        [PC - 0xCA0 /* 00000788 */]
0000142A  4A40                     tst.w      D0
0000142C  588F                     addq.l     A7, 4
0000142E  6706                     beq        +0x8 /* 00001436 */
00001430  3E3C 4EBD                move.w     D7, 0x4EBD
00001434  605A                     bra        +0x5C /* 00001490 */
label00001436:
00001436  2F3C FFFF ED4E           move.l     -[A7], 0xFFFFED4E
0000143C  4EBA F34A                jsr        [PC - 0xCB6 /* 00000788 */]
00001440  4A40                     tst.w      D0
00001442  588F                     addq.l     A7, 4
00001444  6706                     beq        +0x8 /* 0000144C */
00001446  3E3C 4EBE                move.w     D7, 0x4EBE
0000144A  6044                     bra        +0x46 /* 00001490 */
label0000144C:
0000144C  2F3C FFFF ED52           move.l     -[A7], 0xFFFFED52
00001452  4EBA F334                jsr        [PC - 0xCCC /* 00000788 */]
00001456  4A40                     tst.w      D0
00001458  588F                     addq.l     A7, 4
0000145A  6706                     beq        +0x8 /* 00001462 */
0000145C  3E3C 4EBF                move.w     D7, 0x4EBF
00001460  602E                     bra        +0x30 /* 00001490 */
label00001462:
00001462  4EBA F342                jsr        [PC - 0xCBE /* 000007A6 */]
00001466  4A40                     tst.w      D0
00001468  6710                     beq        +0x12 /* 0000147A */
0000146A  2F3C FFFF E81E           move.l     -[A7], 0xFFFFE81E
00001470  4EAD 04B2                jsr        [A5 + 0x4B2 /* export_146, CODE:7 @ 00000518 */]
00001474  3E00                     move.w     D7, D0
00001476  588F                     addq.l     A7, 4
00001478  6016                     bra        +0x18 /* 00001490 */
label0000147A:
0000147A  4EBA F7BC                jsr        [PC - 0x844 /* 00000C38 */]
0000147E  3C00                     move.w     D6, D0
00001480  6704                     beq        +0x6 /* 00001486 */
00001482  3E06                     move.w     D7, D6
00001484  600A                     bra        +0xC /* 00001490 */
label00001486:
00001486  4EBA F372                jsr        [PC - 0xC8E /* 000007FA */]
0000148A  3C00                     move.w     D6, D0
0000148C  6702                     beq        +0x4 /* 00001490 */
0000148E  3E06                     move.w     D7, D6
label00001490:
00001490  0C47 B1E0                cmpi.w     D7, 0xB1E0
00001494  6614                     bne        +0x16 /* 000014AA */
00001496  3F39 FFFF E888           move.w     -[A7], [0xFFFFE888]
0000149C  2F3C FFFF ED5A           move.l     -[A7], 0xFFFFED5A
000014A2  4EBA EF48                jsr        [PC - 0x10B8 /* 000003EC */]
000014A6  5C8F                     addq.l     A7, 6
000014A8  604E                     bra        +0x50 /* 000014F8 */
label000014AA:
000014AA  0C47 4F4C                cmpi.w     D7, 0x4F4C /* 'OL' */
000014AE  6D10                     blt        +0x12 /* 000014C0 */
000014B0  0C47 5014                cmpi.w     D7, 0x5014
000014B4  6C0A                     bge        +0xC /* 000014C0 */
000014B6  3F07                     move.w     -[A7], D7
000014B8  4EBA F726                jsr        [PC - 0x8DA /* 00000BE0 */]
000014BC  548F                     addq.l     A7, 2
000014BE  6038                     bra        +0x3A /* 000014F8 */
label000014C0:
000014C0  0C47 B1DF                cmpi.w     D7, 0xB1DF
000014C4  6732                     beq        +0x34 /* 000014F8 */
000014C6  3039 FFFF E882           move.w     D0, [0xFFFFE882]
000014CC  B06E 0008                cmp.w      D0, [A6 + 0x8]
000014D0  660E                     bne        +0x10 /* 000014E0 */
000014D2  3F39 FFFF E888           move.w     -[A7], [0xFFFFE888]
000014D8  4EBA EE7A                jsr        [PC - 0x1186 /* 00000354 */]
000014DC  548F                     addq.l     A7, 2
000014DE  6018                     bra        +0x1A /* 000014F8 */
label000014E0:
000014E0  3039 FFFF E882           move.w     D0, [0xFFFFE882]
000014E6  5279 FFFF E882           addq.w     [0xFFFFE882], 1
000014EC  2079 FFFF C29A           movea.l    A0, [0xFFFFC29A]
000014F2  D0C0                     add.w      A0, D0
000014F4  3187 0000                move.w     [A0 + D0.w], D7
label000014F8:
000014F8  4CDF 10C0                movem.l    D6,D7,A4, [A7]+
000014FC  4E5E                     unlink     A6
000014FE  4E75                     rts
fn00001500:
00001500  4E56 FFFE                link       A6, -0x0002
00001504  2F07                     move.l     -[A7], D7
00001506  6000 00C8                bra        +0xCA /* 000015D0 */
label0000150A:
0000150A  3039 FFFF E89C           move.w     D0, [0xFFFFE89C]
00001510  5279 FFFF E89C           addq.w     [0xFFFFE89C], 1
00001516  2079 FFFF E898           movea.l    A0, [0xFFFFE898]
0000151C  1E30 0000                move.b     D7, [A0 + D0.w]
00001520  1F07                     move.b     -[A7], D7
00001522  4EBA F1D0                jsr        [PC - 0xE30 /* 000006F4 */]
00001526  4A40                     tst.w      D0
00001528  548F                     addq.l     A7, 2
0000152A  676A                     beq        +0x6C /* 00001596 */
0000152C  3079 FFFF E888           movea.w    A0, [0xFFFFE888]
00001532  D1FC FFFF E81E           add.l      A0, 0xFFFFE81E
00001538  4210                     clr.b      [A0]
0000153A  3F2E 0008                move.w     -[A7], [A6 + 0x8]
0000153E  4EBA F814                jsr        [PC - 0x7EC /* 00000D54 */]
00001542  1E87                     move.b     [A7], D7
00001544  4EBA F1F8                jsr        [PC - 0xE08 /* 0000073E */]
00001548  4A40                     tst.w      D0
0000154A  548F                     addq.l     A7, 2
0000154C  6734                     beq        +0x36 /* 00001582 */
0000154E  4279 FFFF E888           clr.w      [0xFFFFE888]
00001554  3039 FFFF E888           move.w     D0, [0xFFFFE888]
0000155A  5279 FFFF E888           addq.w     [0xFFFFE888], 1
00001560  3040                     movea.w    A0, D0
00001562  D1FC FFFF E81E           add.l      A0, 0xFFFFE81E
00001568  1087                     move.b     [A0], D7
0000156A  3079 FFFF E888           movea.w    A0, [0xFFFFE888]
00001570  D1FC FFFF E81E           add.l      A0, 0xFFFFE81E
00001576  4210                     clr.b      [A0]
00001578  3F2E 0008                move.w     -[A7], [A6 + 0x8]
0000157C  4EBA F7D6                jsr        [PC - 0x82A /* 00000D54 */]
00001580  548F                     addq.l     A7, 2
label00001582:
00001582  0C07 000D                cmpi.b     D7, 0xD /* '\r' */
00001586  6606                     bne        +0x8 /* 0000158E */
00001588  5279 FFFF E88A           addq.w     [0xFFFFE88A], 1
label0000158E:
0000158E  4279 FFFF E888           clr.w      [0xFFFFE888]
00001594  602A                     bra        +0x2C /* 000015C0 */
label00001596:
00001596  7000                     moveq.l    D0, 0x00
00001598  1007                     move.b     D0, D7
0000159A  2040                     movea.l    A0, D0
0000159C  D1FC FFFF FC40           add.l      A0, 0xFFFFFC40
000015A2  1010                     move.b     D0, [A0]
000015A4  0200 00DC                andi.b     D0, 0xDC
000015A8  6716                     beq        +0x18 /* 000015C0 */
000015AA  3039 FFFF E888           move.w     D0, [0xFFFFE888]
000015B0  5279 FFFF E888           addq.w     [0xFFFFE888], 1
000015B6  3040                     movea.w    A0, D0
000015B8  D1FC FFFF E81E           add.l      A0, 0xFFFFE81E
000015BE  1087                     move.b     [A0], D7
label000015C0:
000015C0  0C79 1387 FFFF E882      cmpi.w     [0xFFFFE882], 0x1387
000015C8  6D06                     blt        +0x8 /* 000015D0 */
000015CA  5279 FFFF E882           addq.w     [0xFFFFE882], 1
label000015D0:
000015D0  3079 FFFF E89C           movea.w    A0, [0xFFFFE89C]
000015D6  B1F9 FFFF 74EE           cmpa.l     A0, [0xFFFF74EE]
000015DC  6C1C                     bge        +0x1E /* 000015FA */
000015DE  4A79 FFFF E88E           tst.w      [0xFFFFE88E]
000015E4  6614                     bne        +0x16 /* 000015FA */
000015E6  4A79 FFFF E88C           tst.w      [0xFFFFE88C]
000015EC  660C                     bne        +0xE /* 000015FA */
000015EE  0C79 1387 FFFF E882      cmpi.w     [0xFFFFE882], 0x1387
000015F6  6D00 FF12                blt        -0xEC /* 0000150A */
label000015FA:
000015FA  3079 FFFF E888           movea.w    A0, [0xFFFFE888]
00001600  D1FC FFFF E81E           add.l      A0, 0xFFFFE81E
00001606  4210                     clr.b      [A0]
00001608  1F39 FFFF E81E           move.b     -[A7], [0xFFFFE81E]
0000160E  4EBA F0E4                jsr        [PC - 0xF1C /* 000006F4 */]
00001612  4A40                     tst.w      D0
00001614  548F                     addq.l     A7, 2
00001616  660A                     bne        +0xC /* 00001622 */
00001618  3F2E 0008                move.w     -[A7], [A6 + 0x8]
0000161C  4EBA F736                jsr        [PC - 0x8CA /* 00000D54 */]
00001620  548F                     addq.l     A7, 2
label00001622:
00001622  2E1F                     move.l     D7, [A7]+
00001624  4E5E                     unlink     A6
00001626  4E75                     rts
fn00001628:
00001628  4E56 FEFA                link       A6, -0x0106
0000162C  48E7 0318                movem.l    -[A7], D6,D7,A3,A4
00001630  41EE FFFC                lea.l      A0, [A6 - 0x4]
00001634  20B8 020C                move.l     [A0], [0x0000020C /* Time */]
00001638  3039 FFFF E882           move.w     D0, [0xFFFFE882]
0000163E  5279 FFFF E882           addq.w     [0xFFFFE882], 1
00001644  2079 FFFF C29A           movea.l    A0, [0xFFFFC29A]
0000164A  D0C0                     add.w      A0, D0
0000164C  31BC 4E8E 0000           move.w     [A0 + D0.w], 0x4E8E
00001652  303C 03C2                move.w     D0, 0x3C2
00001656  C1F9 FFFF 9228           muls.w     D0, [0xFFFF9228]
0000165C  2040                     movea.l    A0, D0
0000165E  D1FC FFFF 9764           add.l      A0, 0xFFFF9764
00001664  3F10                     move.w     -[A7], [A0]
00001666  4EAD 0262                jsr        [A5 + 0x262 /* export_72, CODE:2 @ 00005522 */]
0000166A  303C 03C2                move.w     D0, 0x3C2
0000166E  C1F9 FFFF 9228           muls.w     D0, [0xFFFF9228]
00001674  0680 FFFF 955E           addi.l     D0, 0xFFFF955E
0000167A  2F00                     move.l     -[A7], D0
0000167C  A9B1                     syscall    CreateResFile
0000167E  4257                     clr.w      [A7]
00001680  303C 03C2                move.w     D0, 0x3C2
00001684  C1F9 FFFF 9228           muls.w     D0, [0xFFFF9228]
0000168A  0680 FFFF 955E           addi.l     D0, 0xFFFF955E
00001690  2F00                     move.l     -[A7], D0
00001692  A997                     syscall    OpenResFile
00001694  3E1F                     move.w     D7, [A7]+
00001696  0C47 FFFF                cmpi.w     D7, 0xFFFF
0000169A  6616                     bne        +0x18 /* 000016B2 */
0000169C  2F3C FFFF ED68           move.l     -[A7], 0xFFFFED68
000016A2  2F3C FFFF ED6A           move.l     -[A7], 0xFFFFED6A
000016A8  4EAD 0222                jsr        [A5 + 0x222 /* export_64, CODE:2 @ 00004DCE */]
000016AC  508F                     addq.l     A7, 8
000016AE  6000 0192                bra        +0x194 /* 00001842 */
label000016B2:
000016B2  42A7                     clr.l      -[A7]
000016B4  2F3C 4441 5445           move.l     -[A7], 0x44415445 /* 'DATE' */
000016BA  3F3C 03EA                move.w     -[A7], 0x3EA
000016BE  A9A0                     syscall    GetResource
000016C0  285F                     movea.l    A4, [A7]+
000016C2  200C                     move.l     D0, A4
000016C4  6720                     beq        +0x22 /* 000016E6 */
000016C6  2F0C                     move.l     -[A7], A4
000016C8  A9AD                     syscall    RemoveResource/RmveResource
000016CA  4A78 0A60                tst.w      [0x00000A60 /* ResErr */]
000016CE  6712                     beq        +0x14 /* 000016E2 */
000016D0  2F3C FFFF ED88           move.l     -[A7], 0xFFFFED88
000016D6  2F3C FFFF ED8A           move.l     -[A7], 0xFFFFED8A
000016DC  4EAD 0222                jsr        [A5 + 0x222 /* export_64, CODE:2 @ 00004DCE */]
000016E0  508F                     addq.l     A7, 8
label000016E2:
000016E2  204C                     movea.l    A0, A4
000016E4  A023                     syscall    DisposHandle/DisposeHandle
label000016E6:
000016E6  42A7                     clr.l      -[A7]
000016E8  2F3C 5243 4F44           move.l     -[A7], 0x52434F44 /* 'RCOD' */
000016EE  3F3C 03E8                move.w     -[A7], 0x3E8
000016F2  A9A0                     syscall    GetResource
000016F4  285F                     movea.l    A4, [A7]+
000016F6  200C                     move.l     D0, A4
000016F8  6720                     beq        +0x22 /* 0000171A */
000016FA  2F0C                     move.l     -[A7], A4
000016FC  A9AD                     syscall    RemoveResource/RmveResource
000016FE  4A78 0A60                tst.w      [0x00000A60 /* ResErr */]
00001702  6712                     beq        +0x14 /* 00001716 */
00001704  2F3C FFFF EDA2           move.l     -[A7], 0xFFFFEDA2
0000170A  2F3C FFFF EDA4           move.l     -[A7], 0xFFFFEDA4
00001710  4EAD 0222                jsr        [A5 + 0x222 /* export_64, CODE:2 @ 00004DCE */]
00001714  508F                     addq.l     A7, 8
label00001716:
00001716  204C                     movea.l    A0, A4
00001718  A023                     syscall    DisposHandle/DisposeHandle
label0000171A:
0000171A  42A7                     clr.l      -[A7]
0000171C  2F3C 524C 454E           move.l     -[A7], 0x524C454E /* 'RLEN' */
00001722  3F3C 03E8                move.w     -[A7], 0x3E8
00001726  A9A0                     syscall    GetResource
00001728  285F                     movea.l    A4, [A7]+
0000172A  200C                     move.l     D0, A4
0000172C  6720                     beq        +0x22 /* 0000174E */
0000172E  2F0C                     move.l     -[A7], A4
00001730  A9AD                     syscall    RemoveResource/RmveResource
00001732  4A78 0A60                tst.w      [0x00000A60 /* ResErr */]
00001736  6712                     beq        +0x14 /* 0000174A */
00001738  2F3C FFFF EDBC           move.l     -[A7], 0xFFFFEDBC
0000173E  2F3C FFFF EDBE           move.l     -[A7], 0xFFFFEDBE
00001744  4EAD 0222                jsr        [A5 + 0x222 /* export_64, CODE:2 @ 00004DCE */]
00001748  508F                     addq.l     A7, 8
label0000174A:
0000174A  204C                     movea.l    A0, A4
0000174C  A023                     syscall    DisposHandle/DisposeHandle
label0000174E:
0000174E  7004                     moveq.l    D0, 0x04
00001750  A122                     syscall    NewHandle, flags=1
00001752  2848                     movea.l    A4, A0
00001754  4A78 0220                tst.w      [0x00000220 /* MemErr */]
00001758  6706                     beq        +0x8 /* 00001760 */
0000175A  3F3C 0001                move.w     -[A7], 0x1
0000175E  A9C8                     syscall    SysBeep
label00001760:
00001760  2054                     movea.l    A0, [A4]
00001762  20AE FFFC                move.l     [A0], [A6 - 0x4]
00001766  2F0C                     move.l     -[A7], A4
00001768  2F3C 4441 5445           move.l     -[A7], 0x44415445 /* 'DATE' */
0000176E  3F3C 03EA                move.w     -[A7], 0x3EA
00001772  2F3C FFFF EDD6           move.l     -[A7], 0xFFFFEDD6
00001778  A9AB                     syscall    AddResource
0000177A  4A78 0A60                tst.w      [0x00000A60 /* ResErr */]
0000177E  6712                     beq        +0x14 /* 00001792 */
00001780  2F3C FFFF EDE0           move.l     -[A7], 0xFFFFEDE0
00001786  2F3C FFFF EDE2           move.l     -[A7], 0xFFFFEDE2
0000178C  4EAD 0222                jsr        [A5 + 0x222 /* export_64, CODE:2 @ 00004DCE */]
00001790  508F                     addq.l     A7, 8
label00001792:
00001792  7002                     moveq.l    D0, 0x02
00001794  A122                     syscall    NewHandle, flags=1
00001796  2848                     movea.l    A4, A0
00001798  4A78 0220                tst.w      [0x00000220 /* MemErr */]
0000179C  6706                     beq        +0x8 /* 000017A4 */
0000179E  3F3C 0001                move.w     -[A7], 0x1
000017A2  A9C8                     syscall    SysBeep
label000017A4:
000017A4  2054                     movea.l    A0, [A4]
000017A6  30B9 FFFF E882           move.w     [A0], [0xFFFFE882]
000017AC  2F0C                     move.l     -[A7], A4
000017AE  2F3C 524C 454E           move.l     -[A7], 0x524C454E /* 'RLEN' */
000017B4  3F3C 03E8                move.w     -[A7], 0x3E8
000017B8  2F3C FFFF EDFE           move.l     -[A7], 0xFFFFEDFE
000017BE  A9AB                     syscall    AddResource
000017C0  4A78 0A60                tst.w      [0x00000A60 /* ResErr */]
000017C4  6712                     beq        +0x14 /* 000017D8 */
000017C6  2F3C FFFF EE0A           move.l     -[A7], 0xFFFFEE0A
000017CC  2F3C FFFF EE0C           move.l     -[A7], 0xFFFFEE0C
000017D2  4EAD 0222                jsr        [A5 + 0x222 /* export_64, CODE:2 @ 00004DCE */]
000017D6  508F                     addq.l     A7, 8
label000017D8:
000017D8  3039 FFFF E882           move.w     D0, [0xFFFFE882]
000017DE  D040                     add.w      D0, D0
000017E0  48C0                     ext.l      D0
000017E2  A122                     syscall    NewHandle, flags=1
000017E4  2848                     movea.l    A4, A0
000017E6  4A78 0220                tst.w      [0x00000220 /* MemErr */]
000017EA  6706                     beq        +0x8 /* 000017F2 */
000017EC  3F3C 0001                move.w     -[A7], 0x1
000017F0  A9C8                     syscall    SysBeep
label000017F2:
000017F2  7C00                     moveq.l    D6, 0x00
000017F4  97CB                     sub.l      A3, A3
000017F6  6012                     bra        +0x14 /* 0000180A */
label000017F8:
000017F8  204B                     movea.l    A0, A3
000017FA  D1F9 FFFF C29A           add.l      A0, [0xFFFFC29A]
00001800  224B                     movea.l    A1, A3
00001802  D3D4                     add.l      A1, [A4]
00001804  3290                     move.w     [A1], [A0]
00001806  5246                     addq.w     D6, 1
00001808  548B                     addq.l     A3, 2
label0000180A:
0000180A  BC79 FFFF E882           cmp.w      D6, [0xFFFFE882]
00001810  6DE6                     blt        -0x18 /* 000017F8 */
00001812  2F0C                     move.l     -[A7], A4
00001814  2F3C 5243 4F44           move.l     -[A7], 0x52434F44 /* 'RCOD' */
0000181A  3F3C 03E8                move.w     -[A7], 0x3E8
0000181E  2F3C FFFF EE28           move.l     -[A7], 0xFFFFEE28
00001824  A9AB                     syscall    AddResource
00001826  4A78 0A60                tst.w      [0x00000A60 /* ResErr */]
0000182A  6712                     beq        +0x14 /* 0000183E */
0000182C  2F3C FFFF EE34           move.l     -[A7], 0xFFFFEE34
00001832  2F3C FFFF EE36           move.l     -[A7], 0xFFFFEE36
00001838  4EAD 0222                jsr        [A5 + 0x222 /* export_64, CODE:2 @ 00004DCE */]
0000183C  508F                     addq.l     A7, 8
label0000183E:
0000183E  3F07                     move.w     -[A7], D7
00001840  A99A                     syscall    CloseResFile
label00001842:
00001842  4EAD 026A                jsr        [A5 + 0x26A /* export_73, CODE:2 @ 0000554A */]
00001846  23EE FFFC FFFF 7500      move.l     [0xFFFF7500], [A6 - 0x4]
0000184E  33F9 FFFF E882 FFFF 74F2 move.w     [0xFFFF74F2], [0xFFFFE882]
00001858  4CDF 18C0                movem.l    D6,D7,A3,A4, [A7]+
0000185C  4E5E                     unlink     A6
0000185E  4E75                     rts
export_95:
00001860  4E56 FFE8                link       A6, -0x0018
00001864  48E7 0738                movem.l    -[A7], D5,D6,D7,A2,A3,A4
00001868  2F3C FFFF 7D64           move.l     -[A7], 0xFFFF7D64
0000186E  A871                     syscall    GlobalToLocal
00001870  0C79 012E FFFF 7D66      cmpi.w     [0xFFFF7D66], 0x12E
00001878  6F00 0108                ble        +0x10A /* 00001982 */
0000187C  0C79 01F3 FFFF 7D66      cmpi.w     [0xFFFF7D66], 0x1F3
00001884  6C00 00FC                bge        +0xFE /* 00001982 */
00001888  4A79 FFFF 7D64           tst.w      [0xFFFF7D64]
0000188E  6F00 00F2                ble        +0xF4 /* 00001982 */
00001892  0C79 00CC FFFF 7D64      cmpi.w     [0xFFFF7D64], 0xCC
0000189A  6C00 00E6                bge        +0xE8 /* 00001982 */
0000189E  4A79 FFFF 922C           tst.w      [0xFFFF922C]
000018A4  6600 00DC                bne        +0xDE /* 00001982 */
000018A8  3E39 FFFF 9228           move.w     D7, [0xFFFF9228]
000018AE  3039 FFFF 7D64           move.w     D0, [0xFFFF7D64]
000018B4  48C0                     ext.l      D0
000018B6  81FC 0022                divs.w     D0, 0x22 /* '\"' */
000018BA  33C0 FFFF 9228           move.w     [0xFFFF9228], D0
000018C0  B079 FFFF 9226           cmp.w      D0, [0xFFFF9226]
000018C6  6D08                     blt        +0xA /* 000018D0 */
000018C8  33FC 0006 FFFF 9228      move.w     [0xFFFF9228], 0x6
label000018D0:
000018D0  0C79 0006 FFFF 9228      cmpi.w     [0xFFFF9228], 0x6
000018D8  6766                     beq        +0x68 /* 00001940 */
000018DA  BE79 FFFF 9228           cmp.w      D7, [0xFFFF9228]
000018E0  6700 01DC                beq        +0x1DE /* 00001ABE */
000018E4  7022                     moveq.l    D0, 0x22
000018E6  C1C7                     muls.w     D0, D7
000018E8  3D40 FFF8                move.w     [A6 - 0x8], D0
000018EC  7022                     moveq.l    D0, 0x22
000018EE  D06E FFF8                add.w      D0, [A6 - 0x8]
000018F2  3D40 FFFC                move.w     [A6 - 0x4], D0
000018F6  3D7C 012E FFFA           move.w     [A6 - 0x6], 0x12E
000018FC  3D7C 01F4 FFFE           move.w     [A6 - 0x2], 0x1F4
00001902  0C47 0006                cmpi.w     D7, 0x6
00001906  6706                     beq        +0x8 /* 0000190E */
00001908  486E FFF8                pea.l      [A6 - 0x8]
0000190C  A928                     syscall    InvalRect
label0000190E:
0000190E  7022                     moveq.l    D0, 0x22
00001910  C1F9 FFFF 9228           muls.w     D0, [0xFFFF9228]
00001916  3D40 FFF8                move.w     [A6 - 0x8], D0
0000191A  7022                     moveq.l    D0, 0x22
0000191C  D06E FFF8                add.w      D0, [A6 - 0x8]
00001920  3D40 FFFC                move.w     [A6 - 0x4], D0
00001924  486E FFF8                pea.l      [A6 - 0x8]
00001928  A928                     syscall    InvalRect
0000192A  3D7C 00FC FFF8           move.w     [A6 - 0x8], 0xFC
00001930  3D7C 012C FFFC           move.w     [A6 - 0x4], 0x12C
00001936  486E FFF8                pea.l      [A6 - 0x8]
0000193A  A928                     syscall    InvalRect
0000193C  6000 0180                bra        +0x182 /* 00001ABE */
label00001940:
00001940  0C47 0006                cmpi.w     D7, 0x6
00001944  6700 0178                beq        +0x17A /* 00001ABE */
00001948  7022                     moveq.l    D0, 0x22
0000194A  C1C7                     muls.w     D0, D7
0000194C  3D40 FFF8                move.w     [A6 - 0x8], D0
00001950  7022                     moveq.l    D0, 0x22
00001952  D06E FFF8                add.w      D0, [A6 - 0x8]
00001956  3D40 FFFC                move.w     [A6 - 0x4], D0
0000195A  3D7C 012E FFFA           move.w     [A6 - 0x6], 0x12E
00001960  3D7C 01F4 FFFE           move.w     [A6 - 0x2], 0x1F4
00001966  486E FFF8                pea.l      [A6 - 0x8]
0000196A  A928                     syscall    InvalRect
0000196C  3D7C 00FC FFF8           move.w     [A6 - 0x8], 0xFC
00001972  3D7C 012C FFFC           move.w     [A6 - 0x4], 0x12C
00001978  486E FFF8                pea.l      [A6 - 0x8]
0000197C  A928                     syscall    InvalRect
0000197E  6000 013E                bra        +0x140 /* 00001ABE */
label00001982:
00001982  0C79 012C FFFF 7D66      cmpi.w     [0xFFFF7D66], 0x12C
0000198A  6C00 0132                bge        +0x134 /* 00001ABE */
0000198E  4A79 FFFF 7D66           tst.w      [0xFFFF7D66]
00001994  6F00 0128                ble        +0x12A /* 00001ABE */
00001998  4A79 FFFF 7D64           tst.w      [0xFFFF7D64]
0000199E  6F00 011E                ble        +0x120 /* 00001ABE */
000019A2  0C79 012C FFFF 7D64      cmpi.w     [0xFFFF7D64], 0x12C
000019AA  6C00 0112                bge        +0x114 /* 00001ABE */
000019AE  4A79 FFFF 922C           tst.w      [0xFFFF922C]
000019B4  6700 0108                beq        +0x10A /* 00001ABE */
000019B8  7E00                     moveq.l    D7, 0x00
000019BA  6000 00F8                bra        +0xFA /* 00001AB4 */
label000019BE:
000019BE  303C 03C2                move.w     D0, 0x3C2
000019C2  C1C7                     muls.w     D0, D7
000019C4  0680 FFFF 9472           addi.l     D0, 0xFFFF9472
000019CA  2840                     movea.l    A4, D0
000019CC  3C39 FFFF 7D66           move.w     D6, [0xFFFF7D66]
000019D2  9C54                     sub.w      D6, [A4]
000019D4  48C6                     ext.l      D6
000019D6  303C 03C2                move.w     D0, 0x3C2
000019DA  C1C7                     muls.w     D0, D7
000019DC  0680 FFFF 9474           addi.l     D0, 0xFFFF9474
000019E2  2640                     movea.l    A3, D0
000019E4  3A39 FFFF 7D64           move.w     D5, [0xFFFF7D64]
000019EA  9A53                     sub.w      D5, [A3]
000019EC  48C5                     ext.l      D5
000019EE  2F06                     move.l     -[A7], D6
000019F0  2F06                     move.l     -[A7], D6
000019F2  4EAD 0042                jsr        [A5 + 0x42 /* export_4, CODE:1 @ 000002E8 */]
000019F6  2F05                     move.l     -[A7], D5
000019F8  2F05                     move.l     -[A7], D5
000019FA  2200                     move.l     D1, D0
000019FC  4EAD 0042                jsr        [A5 + 0x42 /* export_4, CODE:1 @ 000002E8 */]
00001A00  C141                     exg        D0, D1
00001A02  D081                     add.l      D0, D1
00001A04  7264                     moveq.l    D1, 0x64
00001A06  B280                     cmp.l      D1, D0
00001A08  6F00 00A8                ble        +0xAA /* 00001AB2 */
00001A0C  426E FFF0                clr.w      [A6 - 0x10]
00001A10  426E FFE8                clr.w      [A6 - 0x18]
00001A14  426E FFF2                clr.w      [A6 - 0xE]
00001A18  426E FFEA                clr.w      [A6 - 0x16]
00001A1C  303C 012C                move.w     D0, 0x12C
00001A20  3D40 FFF6                move.w     [A6 - 0xA], D0
00001A24  3D40 FFEE                move.w     [A6 - 0x12], D0
00001A28  303C 012C                move.w     D0, 0x12C
00001A2C  3D40 FFF4                move.w     [A6 - 0xC], D0
00001A30  3D40 FFEC                move.w     [A6 - 0x14], D0
00001A34  42A7                     clr.l      -[A7]
00001A36  A8D8                     syscall    NewRgn
00001A38  245F                     movea.l    A2, [A7]+
00001A3A  A8DA                     syscall    OpenRgn
00001A3C  70F6                     moveq.l    D0, 0xFFFFFFF6
00001A3E  D053                     add.w      D0, [A3]
00001A40  3D40 FFF8                move.w     [A6 - 0x8], D0
00001A44  70F6                     moveq.l    D0, 0xFFFFFFF6
00001A46  D054                     add.w      D0, [A4]
00001A48  3D40 FFFA                move.w     [A6 - 0x6], D0
00001A4C  700A                     moveq.l    D0, 0x0A
00001A4E  D053                     add.w      D0, [A3]
00001A50  3D40 FFFC                move.w     [A6 - 0x4], D0
00001A54  700A                     moveq.l    D0, 0x0A
00001A56  D054                     add.w      D0, [A4]
00001A58  3D40 FFFE                move.w     [A6 - 0x2], D0
00001A5C  486E FFF8                pea.l      [A6 - 0x8]
00001A60  A8B7                     syscall    FrameOval
00001A62  2F0A                     move.l     -[A7], A2
00001A64  A8DB                     syscall    CloseRgn
00001A66  42A7                     clr.l      -[A7]
00001A68  2F0A                     move.l     -[A7], A2
00001A6A  2F39 FFFF 7D64           move.l     -[A7], [0xFFFF7D64]
00001A70  486E FFF0                pea.l      [A6 - 0x10]
00001A74  486E FFE8                pea.l      [A6 - 0x18]
00001A78  4267                     clr.w      -[A7]
00001A7A  42A7                     clr.l      -[A7]
00001A7C  A905                     syscall    DragGrayRgn
00001A7E  2E1F                     move.l     D7, [A7]+
00001A80  2F0A                     move.l     -[A7], A2
00001A82  A8D9                     syscall    DisposRgn/DisposeRgn
00001A84  4267                     clr.w      -[A7]
00001A86  2F07                     move.l     -[A7], D7
00001A88  A86A                     syscall    HiWord
00001A8A  0C5F 8000                cmpi.w     [A7]+, 0x8000
00001A8E  6714                     beq        +0x16 /* 00001AA4 */
00001A90  4267                     clr.w      -[A7]
00001A92  2F07                     move.l     -[A7], D7
00001A94  A86B                     syscall    LoWord
00001A96  301F                     move.w     D0, [A7]+
00001A98  D154                     add.w      [A4], D0
00001A9A  4267                     clr.w      -[A7]
00001A9C  2F07                     move.l     -[A7], D7
00001A9E  A86A                     syscall    HiWord
00001AA0  301F                     move.w     D0, [A7]+
00001AA2  D153                     add.w      [A3], D0
label00001AA4:
00001AA4  3E39 FFFF 9226           move.w     D7, [0xFFFF9226]
00001AAA  4EAD 029A                jsr        [A5 + 0x29A /* export_79, CODE:2 @ 00001BD0 */]
00001AAE  4EAD 0302                jsr        [A5 + 0x302 /* export_92, CODE:2 @ 000024D6 */]
label00001AB2:
00001AB2  5247                     addq.w     D7, 1
label00001AB4:
00001AB4  BE79 FFFF 9226           cmp.w      D7, [0xFFFF9226]
00001ABA  6D00 FF02                blt        -0xFC /* 000019BE */
label00001ABE:
00001ABE  4CDF 1CE0                movem.l    D5,D6,D7,A2,A3,A4, [A7]+
00001AC2  4E5E                     unlink     A6
00001AC4  4E75                     rts
export_96:
00001AC6  4E56 FFF8                link       A6, -0x0008
00001ACA  48E7 0300                movem.l    -[A7], D6,D7
00001ACE  1C2E 0008                move.b     D6, [A6 + 0x8]
00001AD2  3E39 FFFF 9228           move.w     D7, [0xFFFF9228]
00001AD8  0C06 001F                cmpi.b     D6, 0x1F
00001ADC  6706                     beq        +0x8 /* 00001AE4 */
00001ADE  0C06 001D                cmpi.b     D6, 0x1D
00001AE2  663A                     bne        +0x3C /* 00001B1E */
label00001AE4:
00001AE4  0C79 0006 FFFF 9228      cmpi.w     [0xFFFF9228], 0x6
00001AEC  660A                     bne        +0xC /* 00001AF8 */
00001AEE  4279 FFFF 9228           clr.w      [0xFFFF9228]
00001AF4  6000 0152                bra        +0x154 /* 00001C48 */
label00001AF8:
00001AF8  70FF                     moveq.l    D0, 0xFFFFFFFF
00001AFA  D079 FFFF 9226           add.w      D0, [0xFFFF9226]
00001B00  B079 FFFF 9228           cmp.w      D0, [0xFFFF9228]
00001B06  660C                     bne        +0xE /* 00001B14 */
00001B08  33FC 0006 FFFF 9228      move.w     [0xFFFF9228], 0x6
00001B10  6000 0136                bra        +0x138 /* 00001C48 */
label00001B14:
00001B14  5279 FFFF 9228           addq.w     [0xFFFF9228], 1
00001B1A  6000 012C                bra        +0x12E /* 00001C48 */
label00001B1E:
00001B1E  0C06 001E                cmpi.b     D6, 0x1E
00001B22  6706                     beq        +0x8 /* 00001B2A */
00001B24  0C06 001C                cmpi.b     D6, 0x1C
00001B28  663A                     bne        +0x3C /* 00001B64 */
label00001B2A:
00001B2A  0C79 0006 FFFF 9228      cmpi.w     [0xFFFF9228], 0x6
00001B32  6612                     bne        +0x14 /* 00001B46 */
00001B34  70FF                     moveq.l    D0, 0xFFFFFFFF
00001B36  D079 FFFF 9226           add.w      D0, [0xFFFF9226]
00001B3C  33C0 FFFF 9228           move.w     [0xFFFF9228], D0
00001B42  6000 0104                bra        +0x106 /* 00001C48 */
label00001B46:
00001B46  4A79 FFFF 9228           tst.w      [0xFFFF9228]
00001B4C  660C                     bne        +0xE /* 00001B5A */
00001B4E  33FC 0006 FFFF 9228      move.w     [0xFFFF9228], 0x6
00001B56  6000 00F0                bra        +0xF2 /* 00001C48 */
label00001B5A:
00001B5A  5379 FFFF 9228           subq.w     [0xFFFF9228], 1
00001B60  6000 00E6                bra        +0xE8 /* 00001C48 */
label00001B64:
00001B64  0C79 0006 FFFF 923A      cmpi.w     [0xFFFF923A], 0x6
00001B6C  6700 00DA                beq        +0xDC /* 00001C48 */
00001B70  4A79 FFFF 922C           tst.w      [0xFFFF922C]
00001B76  6700 00D0                beq        +0xD2 /* 00001C48 */
00001B7A  0C06 0067                cmpi.b     D6, 0x67 /* 'g' */
00001B7E  6706                     beq        +0x8 /* 00001B86 */
00001B80  0C06 0047                cmpi.b     D6, 0x47 /* 'G' */
00001B84  6640                     bne        +0x42 /* 00001BC6 */
label00001B86:
00001B86  4A79 FFFF 923C           tst.w      [0xFFFF923C]
00001B8C  6738                     beq        +0x3A /* 00001BC6 */
00001B8E  4279 FFFF 923C           clr.w      [0xFFFF923C]
00001B94  2F39 FFFF 9068           move.l     -[A7], [0xFFFF9068]
00001B9A  3F3C 00FF                move.w     -[A7], 0xFF
00001B9E  A95D                     syscall    HiliteControl
00001BA0  2F39 FFFF 906C           move.l     -[A7], [0xFFFF906C]
00001BA6  4267                     clr.w      -[A7]
00001BA8  A95D                     syscall    HiliteControl
00001BAA  2F39 FFFF 9070           move.l     -[A7], [0xFFFF9070]
00001BB0  3F3C 00FF                move.w     -[A7], 0xFF
00001BB4  A95D                     syscall    HiliteControl
00001BB6  2F39 FFFF 9074           move.l     -[A7], [0xFFFF9074]
00001BBC  3F3C 00FF                move.w     -[A7], 0xFF
00001BC0  A95D                     syscall    HiliteControl
00001BC2  6000 0084                bra        +0x86 /* 00001C48 */
label00001BC6:
00001BC6  0C06 0070                cmpi.b     D6, 0x70 /* 'p' */
00001BCA  6706                     beq        +0x8 /* 00001BD2 */
00001BCC  0C06 0050                cmpi.b     D6, 0x50 /* 'P' */
00001BD0  663C                     bne        +0x3E /* 00001C0E */
label00001BD2:
00001BD2  4A79 FFFF 923C           tst.w      [0xFFFF923C]
00001BD8  6634                     bne        +0x36 /* 00001C0E */
00001BDA  33FC 0001 FFFF 923C      move.w     [0xFFFF923C], 0x1
00001BE2  2F39 FFFF 9068           move.l     -[A7], [0xFFFF9068]
00001BE8  4267                     clr.w      -[A7]
00001BEA  A95D                     syscall    HiliteControl
00001BEC  2F39 FFFF 906C           move.l     -[A7], [0xFFFF906C]
00001BF2  3F3C 00FF                move.w     -[A7], 0xFF
00001BF6  A95D                     syscall    HiliteControl
00001BF8  2F39 FFFF 9070           move.l     -[A7], [0xFFFF9070]
00001BFE  4267                     clr.w      -[A7]
00001C00  A95D                     syscall    HiliteControl
00001C02  2F39 FFFF 9074           move.l     -[A7], [0xFFFF9074]
00001C08  4267                     clr.w      -[A7]
00001C0A  A95D                     syscall    HiliteControl
00001C0C  603A                     bra        +0x3C /* 00001C48 */
label00001C0E:
00001C0E  0C06 0063                cmpi.b     D6, 0x63 /* 'c' */
00001C12  6706                     beq        +0x8 /* 00001C1A */
00001C14  0C06 0043                cmpi.b     D6, 0x43 /* 'C' */
00001C18  6612                     bne        +0x14 /* 00001C2C */
label00001C1A:
00001C1A  4A79 FFFF 923C           tst.w      [0xFFFF923C]
00001C20  670A                     beq        +0xC /* 00001C2C */
00001C22  33FC 0001 FFFF 9240      move.w     [0xFFFF9240], 0x1
00001C2A  601C                     bra        +0x1E /* 00001C48 */
label00001C2C:
00001C2C  0C06 0073                cmpi.b     D6, 0x73 /* 's' */
00001C30  6706                     beq        +0x8 /* 00001C38 */
00001C32  0C06 0053                cmpi.b     D6, 0x53 /* 'S' */
00001C36  6610                     bne        +0x12 /* 00001C48 */
label00001C38:
00001C38  4A79 FFFF 923C           tst.w      [0xFFFF923C]
00001C3E  6708                     beq        +0xA /* 00001C48 */
00001C40  33FC 0001 FFFF 923E      move.w     [0xFFFF923E], 0x1
label00001C48:
00001C48  BE79 FFFF 9228           cmp.w      D7, [0xFFFF9228]
00001C4E  6762                     beq        +0x64 /* 00001CB2 */
00001C50  3D7C 012E FFFA           move.w     [A6 - 0x6], 0x12E
00001C56  3D7C 01F4 FFFE           move.w     [A6 - 0x2], 0x1F4
00001C5C  0C47 0006                cmpi.w     D7, 0x6
00001C60  6718                     beq        +0x1A /* 00001C7A */
00001C62  7022                     moveq.l    D0, 0x22
00001C64  C1C7                     muls.w     D0, D7
00001C66  3D40 FFF8                move.w     [A6 - 0x8], D0
00001C6A  7022                     moveq.l    D0, 0x22
00001C6C  D06E FFF8                add.w      D0, [A6 - 0x8]
00001C70  3D40 FFFC                move.w     [A6 - 0x4], D0
00001C74  486E FFF8                pea.l      [A6 - 0x8]
00001C78  A928                     syscall    InvalRect
label00001C7A:
00001C7A  0C79 0006 FFFF 9228      cmpi.w     [0xFFFF9228], 0x6
00001C82  671C                     beq        +0x1E /* 00001CA0 */
00001C84  7022                     moveq.l    D0, 0x22
00001C86  C1F9 FFFF 9228           muls.w     D0, [0xFFFF9228]
00001C8C  3D40 FFF8                move.w     [A6 - 0x8], D0
00001C90  7022                     moveq.l    D0, 0x22
00001C92  D06E FFF8                add.w      D0, [A6 - 0x8]
00001C96  3D40 FFFC                move.w     [A6 - 0x4], D0
00001C9A  486E FFF8                pea.l      [A6 - 0x8]
00001C9E  A928                     syscall    InvalRect
label00001CA0:
00001CA0  3D7C 00FC FFF8           move.w     [A6 - 0x8], 0xFC
00001CA6  3D7C 012C FFFC           move.w     [A6 - 0x4], 0x12C
00001CAC  486E FFF8                pea.l      [A6 - 0x8]
00001CB0  A928                     syscall    InvalRect
label00001CB2:
00001CB2  4CDF 00C0                movem.l    D6,D7, [A7]+
00001CB6  4E5E                     unlink     A6
00001CB8  4E75                     rts
export_97:
00001CBA  4E56 FFF8                link       A6, -0x0008
00001CBE  0C79 0006 FFFF 9228      cmpi.w     [0xFFFF9228], 0x6
00001CC6  674C                     beq        +0x4E /* 00001D14 */
00001CC8  303C 03C2                move.w     D0, 0x3C2
00001CCC  C1F9 FFFF 9228           muls.w     D0, [0xFFFF9228]
00001CD2  2040                     movea.l    A0, D0
00001CD4  D1FC FFFF 978E           add.l      A0, 0xFFFF978E
00001CDA  4250                     clr.w      [A0]
00001CDC  426E FFF8                clr.w      [A6 - 0x8]
00001CE0  3D7C 012E FFFA           move.w     [A6 - 0x6], 0x12E
00001CE6  3D7C 01F4 FFFE           move.w     [A6 - 0x2], 0x1F4
00001CEC  3D7C 00CD FFFC           move.w     [A6 - 0x4], 0xCD
00001CF2  486E FFF8                pea.l      [A6 - 0x8]
00001CF6  A928                     syscall    InvalRect
00001CF8  426E FFF8                clr.w      [A6 - 0x8]
00001CFC  3D7C 012C FFFA           move.w     [A6 - 0x6], 0x12C
00001D02  3D7C 012C FFFE           move.w     [A6 - 0x2], 0x12C
00001D08  3D7C 012C FFFC           move.w     [A6 - 0x4], 0x12C
00001D0E  486E FFF8                pea.l      [A6 - 0x8]
00001D12  A928                     syscall    InvalRect
label00001D14:
00001D14  4E5E                     unlink     A6
00001D16  4E75                     rts
export_98:
00001D18  4E56 FFF8                link       A6, -0x0008
00001D1C  0C79 0006 FFFF 9228      cmpi.w     [0xFFFF9228], 0x6
00001D24  674E                     beq        +0x50 /* 00001D74 */
00001D26  303C 03C2                move.w     D0, 0x3C2
00001D2A  C1F9 FFFF 9228           muls.w     D0, [0xFFFF9228]
00001D30  2040                     movea.l    A0, D0
00001D32  D1FC FFFF 978E           add.l      A0, 0xFFFF978E
00001D38  30BC 0001                move.w     [A0], 0x1
00001D3C  426E FFF8                clr.w      [A6 - 0x8]
00001D40  3D7C 012E FFFA           move.w     [A6 - 0x6], 0x12E
00001D46  3D7C 01F4 FFFE           move.w     [A6 - 0x2], 0x1F4
00001D4C  3D7C 00CD FFFC           move.w     [A6 - 0x4], 0xCD
00001D52  486E FFF8                pea.l      [A6 - 0x8]
00001D56  A928                     syscall    InvalRect
00001D58  426E FFF8                clr.w      [A6 - 0x8]
00001D5C  3D7C 012C FFFA           move.w     [A6 - 0x6], 0x12C
00001D62  3D7C 012C FFFE           move.w     [A6 - 0x2], 0x12C
00001D68  3D7C 012C FFFC           move.w     [A6 - 0x4], 0x12C
00001D6E  486E FFF8                pea.l      [A6 - 0x8]
00001D72  A928                     syscall    InvalRect
label00001D74:
00001D74  4E5E                     unlink     A6
00001D76  4E75                     rts
export_99:
00001D78  4E56 FFF8                link       A6, -0x0008
00001D7C  0C79 0006 FFFF 9228      cmpi.w     [0xFFFF9228], 0x6
00001D84  674E                     beq        +0x50 /* 00001DD4 */
00001D86  303C 03C2                move.w     D0, 0x3C2
00001D8A  C1F9 FFFF 9228           muls.w     D0, [0xFFFF9228]
00001D90  2040                     movea.l    A0, D0
00001D92  D1FC FFFF 978E           add.l      A0, 0xFFFF978E
00001D98  30BC 0002                move.w     [A0], 0x2
00001D9C  426E FFF8                clr.w      [A6 - 0x8]
00001DA0  3D7C 012E FFFA           move.w     [A6 - 0x6], 0x12E
00001DA6  3D7C 01F4 FFFE           move.w     [A6 - 0x2], 0x1F4
00001DAC  3D7C 00CD FFFC           move.w     [A6 - 0x4], 0xCD
00001DB2  486E FFF8                pea.l      [A6 - 0x8]
00001DB6  A928                     syscall    InvalRect
00001DB8  426E FFF8                clr.w      [A6 - 0x8]
00001DBC  3D7C 012C FFFA           move.w     [A6 - 0x6], 0x12C
00001DC2  3D7C 012C FFFE           move.w     [A6 - 0x2], 0x12C
00001DC8  3D7C 012C FFFC           move.w     [A6 - 0x4], 0x12C
00001DCE  486E FFF8                pea.l      [A6 - 0x8]
00001DD2  A928                     syscall    InvalRect
label00001DD4:
00001DD4  4E5E                     unlink     A6
00001DD6  4E75                     rts
export_100:
00001DD8  4E56 FFF8                link       A6, -0x0008
00001DDC  0C79 0006 FFFF 9228      cmpi.w     [0xFFFF9228], 0x6
00001DE4  674E                     beq        +0x50 /* 00001E34 */
00001DE6  303C 03C2                move.w     D0, 0x3C2
00001DEA  C1F9 FFFF 9228           muls.w     D0, [0xFFFF9228]
00001DF0  2040                     movea.l    A0, D0
00001DF2  D1FC FFFF 978E           add.l      A0, 0xFFFF978E
00001DF8  30BC 0003                move.w     [A0], 0x3
00001DFC  426E FFF8                clr.w      [A6 - 0x8]
00001E00  3D7C 012E FFFA           move.w     [A6 - 0x6], 0x12E
00001E06  3D7C 01F4 FFFE           move.w     [A6 - 0x2], 0x1F4
00001E0C  3D7C 00CD FFFC           move.w     [A6 - 0x4], 0xCD
00001E12  486E FFF8                pea.l      [A6 - 0x8]
00001E16  A928                     syscall    InvalRect
00001E18  426E FFF8                clr.w      [A6 - 0x8]
00001E1C  3D7C 012C FFFA           move.w     [A6 - 0x6], 0x12C
00001E22  3D7C 012C FFFE           move.w     [A6 - 0x2], 0x12C
00001E28  3D7C 012C FFFC           move.w     [A6 - 0x4], 0x12C
00001E2E  486E FFF8                pea.l      [A6 - 0x8]
00001E32  A928                     syscall    InvalRect
label00001E34:
00001E34  4E5E                     unlink     A6
00001E36  4E75                     rts
export_101:
00001E38  4E56 FFF8                link       A6, -0x0008
00001E3C  3039 FFFF 9228           move.w     D0, [0xFFFF9228]
00001E42  B079 FFFF 923A           cmp.w      D0, [0xFFFF923A]
00001E48  6616                     bne        +0x18 /* 00001E60 */
00001E4A  33FC 0006 FFFF 923A      move.w     [0xFFFF923A], 0x6
00001E52  2F39 FFFF 7D4A           move.l     -[A7], [0xFFFF7D4A]
00001E58  4878 0005                push.l     0x5
00001E5C  A945                     syscall    CheckItem
00001E5E  6018                     bra        +0x1A /* 00001E78 */
label00001E60:
00001E60  33F9 FFFF 9228 FFFF 923A move.w     [0xFFFF923A], [0xFFFF9228]
00001E6A  2F39 FFFF 7D4A           move.l     -[A7], [0xFFFF7D4A]
00001E70  2F3C 0100 0005           move.l     -[A7], 0x1000005
00001E76  A945                     syscall    CheckItem
label00001E78:
00001E78  426E FFF8                clr.w      [A6 - 0x8]
00001E7C  3D7C 012E FFFA           move.w     [A6 - 0x6], 0x12E
00001E82  3D7C 00CC FFFC           move.w     [A6 - 0x4], 0xCC
00001E88  3D7C 01F4 FFFE           move.w     [A6 - 0x2], 0x1F4
00001E8E  486E FFF8                pea.l      [A6 - 0x8]
00001E92  A928                     syscall    InvalRect
00001E94  4E5E                     unlink     A6
00001E96  4E75                     rts
export_104:
fn00001E98:
00001E98  2F39 FFFF 9068           move.l     -[A7], [0xFFFF9068]
00001E9E  4267                     clr.w      -[A7]
00001EA0  A95D                     syscall    HiliteControl
00001EA2  2F39 FFFF 906C           move.l     -[A7], [0xFFFF906C]
00001EA8  3F3C 00FF                move.w     -[A7], 0xFF
00001EAC  A95D                     syscall    HiliteControl
00001EAE  2F39 FFFF 9070           move.l     -[A7], [0xFFFF9070]
00001EB4  4267                     clr.w      -[A7]
00001EB6  A95D                     syscall    HiliteControl
00001EB8  2F39 FFFF 9074           move.l     -[A7], [0xFFFF9074]
00001EBE  4267                     clr.w      -[A7]
00001EC0  A95D                     syscall    HiliteControl
00001EC2  4E75                     rts
fn00001EC4:
00001EC4  4E56 0000                link       A6, 0
00001EC8  48E7 0108                movem.l    -[A7], D7,A4
00001ECC  286E 000A                movea.l    A4, [A6 + 0xA]
00001ED0  3E2E 0008                move.w     D7, [A6 + 0x8]
00001ED4  0647 B0B4                addi.w     D7, 0xB0B4
00001ED8  3007                     move.w     D0, D7
00001EDA  0440 001A                subi.w     D0, 0x1A
00001EDE  0C40 0022                cmpi.w     D0, 0x22 /* '\"' */
00001EE2  6200 027A                bhi        +0x27C /* 0000215E */
00001EE6  43FA 02B0                lea.l      A1, [PC + 0x2B0 /* 00002198, value 0xFD5AFD6C */]
00001EEA  D040                     add.w      D0, D0
00001EEC  D2F1 0000                add.w      A1, [A1 + D0.w]
00001EF0  4ED1                     jmp        [A1]
00001EF2  2F3C FFFF EE52           move.l     -[A7], 0xFFFFEE52
00001EF8  2F0C                     move.l     -[A7], A4
00001EFA  4EAD 051A                jsr        [A5 + 0x51A /* export_159, CODE:7 @ 000021A6 */]
00001EFE  508F                     addq.l     A7, 8
00001F00  6000 028E                bra        +0x290 /* 00002190 */
00001F04  2F3C FFFF EE58           move.l     -[A7], 0xFFFFEE58
00001F0A  2F0C                     move.l     -[A7], A4
00001F0C  4EAD 051A                jsr        [A5 + 0x51A /* export_159, CODE:7 @ 000021A6 */]
00001F10  508F                     addq.l     A7, 8
00001F12  6000 027C                bra        +0x27E /* 00002190 */
00001F16  2F3C FFFF EE60           move.l     -[A7], 0xFFFFEE60
00001F1C  2F0C                     move.l     -[A7], A4
00001F1E  4EAD 051A                jsr        [A5 + 0x51A /* export_159, CODE:7 @ 000021A6 */]
00001F22  508F                     addq.l     A7, 8
00001F24  6000 026A                bra        +0x26C /* 00002190 */
00001F28  2F3C FFFF EE68           move.l     -[A7], 0xFFFFEE68
00001F2E  2F0C                     move.l     -[A7], A4
00001F30  4EAD 051A                jsr        [A5 + 0x51A /* export_159, CODE:7 @ 000021A6 */]
00001F34  508F                     addq.l     A7, 8
00001F36  6000 0258                bra        +0x25A /* 00002190 */
00001F3A  2F3C FFFF EE6E           move.l     -[A7], 0xFFFFEE6E
00001F40  2F0C                     move.l     -[A7], A4
00001F42  4EAD 051A                jsr        [A5 + 0x51A /* export_159, CODE:7 @ 000021A6 */]
00001F46  508F                     addq.l     A7, 8
00001F48  6000 0246                bra        +0x248 /* 00002190 */
00001F4C  2F3C FFFF EE72           move.l     -[A7], 0xFFFFEE72
00001F52  2F0C                     move.l     -[A7], A4
00001F54  4EAD 051A                jsr        [A5 + 0x51A /* export_159, CODE:7 @ 000021A6 */]
00001F58  508F                     addq.l     A7, 8
00001F5A  6000 0234                bra        +0x236 /* 00002190 */
00001F5E  2F3C FFFF EE7A           move.l     -[A7], 0xFFFFEE7A
00001F64  2F0C                     move.l     -[A7], A4
00001F66  4EAD 051A                jsr        [A5 + 0x51A /* export_159, CODE:7 @ 000021A6 */]
00001F6A  508F                     addq.l     A7, 8
00001F6C  6000 0222                bra        +0x224 /* 00002190 */
00001F70  2F3C FFFF EE82           move.l     -[A7], 0xFFFFEE82
00001F76  2F0C                     move.l     -[A7], A4
00001F78  4EAD 051A                jsr        [A5 + 0x51A /* export_159, CODE:7 @ 000021A6 */]
00001F7C  508F                     addq.l     A7, 8
00001F7E  6000 0210                bra        +0x212 /* 00002190 */
00001F82  2F3C FFFF EE8A           move.l     -[A7], 0xFFFFEE8A
00001F88  2F0C                     move.l     -[A7], A4
00001F8A  4EAD 051A                jsr        [A5 + 0x51A /* export_159, CODE:7 @ 000021A6 */]
00001F8E  508F                     addq.l     A7, 8
00001F90  6000 01FE                bra        +0x200 /* 00002190 */
00001F94  2F3C FFFF EE92           move.l     -[A7], 0xFFFFEE92
00001F9A  2F0C                     move.l     -[A7], A4
00001F9C  4EAD 051A                jsr        [A5 + 0x51A /* export_159, CODE:7 @ 000021A6 */]
00001FA0  508F                     addq.l     A7, 8
00001FA2  6000 01EC                bra        +0x1EE /* 00002190 */
00001FA6  2F3C FFFF EE9A           move.l     -[A7], 0xFFFFEE9A
00001FAC  2F0C                     move.l     -[A7], A4
00001FAE  4EAD 051A                jsr        [A5 + 0x51A /* export_159, CODE:7 @ 000021A6 */]
00001FB2  508F                     addq.l     A7, 8
00001FB4  6000 01DA                bra        +0x1DC /* 00002190 */
00001FB8  2F3C FFFF EEA0           move.l     -[A7], 0xFFFFEEA0
00001FBE  2F0C                     move.l     -[A7], A4
00001FC0  4EAD 051A                jsr        [A5 + 0x51A /* export_159, CODE:7 @ 000021A6 */]
00001FC4  508F                     addq.l     A7, 8
00001FC6  6000 01C8                bra        +0x1CA /* 00002190 */
00001FCA  2F3C FFFF EEA8           move.l     -[A7], 0xFFFFEEA8
00001FD0  2F0C                     move.l     -[A7], A4
00001FD2  4EAD 051A                jsr        [A5 + 0x51A /* export_159, CODE:7 @ 000021A6 */]
00001FD6  508F                     addq.l     A7, 8
00001FD8  6000 01B6                bra        +0x1B8 /* 00002190 */
00001FDC  2F3C FFFF EEB0           move.l     -[A7], 0xFFFFEEB0
00001FE2  2F0C                     move.l     -[A7], A4
00001FE4  4EAD 051A                jsr        [A5 + 0x51A /* export_159, CODE:7 @ 000021A6 */]
00001FE8  508F                     addq.l     A7, 8
00001FEA  6000 01A4                bra        +0x1A6 /* 00002190 */
00001FEE  2F3C FFFF EEB8           move.l     -[A7], 0xFFFFEEB8
00001FF4  2F0C                     move.l     -[A7], A4
00001FF6  4EAD 051A                jsr        [A5 + 0x51A /* export_159, CODE:7 @ 000021A6 */]
00001FFA  508F                     addq.l     A7, 8
00001FFC  6000 0192                bra        +0x194 /* 00002190 */
00002000  2F3C FFFF EEBE           move.l     -[A7], 0xFFFFEEBE
00002006  2F0C                     move.l     -[A7], A4
00002008  4EAD 051A                jsr        [A5 + 0x51A /* export_159, CODE:7 @ 000021A6 */]
0000200C  508F                     addq.l     A7, 8
0000200E  6000 0180                bra        +0x182 /* 00002190 */
00002012  2F3C FFFF EEC4           move.l     -[A7], 0xFFFFEEC4
00002018  2F0C                     move.l     -[A7], A4
0000201A  4EAD 051A                jsr        [A5 + 0x51A /* export_159, CODE:7 @ 000021A6 */]
0000201E  508F                     addq.l     A7, 8
00002020  6000 016E                bra        +0x170 /* 00002190 */
00002024  2F3C FFFF EECA           move.l     -[A7], 0xFFFFEECA
0000202A  2F0C                     move.l     -[A7], A4
0000202C  4EAD 051A                jsr        [A5 + 0x51A /* export_159, CODE:7 @ 000021A6 */]
00002030  508F                     addq.l     A7, 8
00002032  6000 015C                bra        +0x15E /* 00002190 */
00002036  2F3C FFFF EED0           move.l     -[A7], 0xFFFFEED0
0000203C  2F0C                     move.l     -[A7], A4
0000203E  4EAD 051A                jsr        [A5 + 0x51A /* export_159, CODE:7 @ 000021A6 */]
00002042  508F                     addq.l     A7, 8
00002044  6000 014A                bra        +0x14C /* 00002190 */
00002048  2F3C FFFF EED6           move.l     -[A7], 0xFFFFEED6
0000204E  2F0C                     move.l     -[A7], A4
00002050  4EAD 051A                jsr        [A5 + 0x51A /* export_159, CODE:7 @ 000021A6 */]
00002054  508F                     addq.l     A7, 8
00002056  6000 0138                bra        +0x13A /* 00002190 */
0000205A  2F3C FFFF EEDC           move.l     -[A7], 0xFFFFEEDC
00002060  2F0C                     move.l     -[A7], A4
00002062  4EAD 051A                jsr        [A5 + 0x51A /* export_159, CODE:7 @ 000021A6 */]
00002066  508F                     addq.l     A7, 8
00002068  6000 0126                bra        +0x128 /* 00002190 */
0000206C  2F3C FFFF EEE4           move.l     -[A7], 0xFFFFEEE4
00002072  2F0C                     move.l     -[A7], A4
00002074  4EAD 051A                jsr        [A5 + 0x51A /* export_159, CODE:7 @ 000021A6 */]
00002078  508F                     addq.l     A7, 8
0000207A  6000 0114                bra        +0x116 /* 00002190 */
0000207E  2F3C FFFF EEEA           move.l     -[A7], 0xFFFFEEEA
00002084  2F0C                     move.l     -[A7], A4
00002086  4EAD 051A                jsr        [A5 + 0x51A /* export_159, CODE:7 @ 000021A6 */]
0000208A  508F                     addq.l     A7, 8
0000208C  6000 0102                bra        +0x104 /* 00002190 */
00002090  2F3C FFFF EEF0           move.l     -[A7], 0xFFFFEEF0
00002096  2F0C                     move.l     -[A7], A4
00002098  4EAD 051A                jsr        [A5 + 0x51A /* export_159, CODE:7 @ 000021A6 */]
0000209C  508F                     addq.l     A7, 8
0000209E  6000 00F0                bra        +0xF2 /* 00002190 */
000020A2  2F3C FFFF EEF6           move.l     -[A7], 0xFFFFEEF6
000020A8  2F0C                     move.l     -[A7], A4
000020AA  4EAD 051A                jsr        [A5 + 0x51A /* export_159, CODE:7 @ 000021A6 */]
000020AE  508F                     addq.l     A7, 8
000020B0  6000 00DE                bra        +0xE0 /* 00002190 */
000020B4  2F3C FFFF EEFC           move.l     -[A7], 0xFFFFEEFC
000020BA  2F0C                     move.l     -[A7], A4
000020BC  4EAD 051A                jsr        [A5 + 0x51A /* export_159, CODE:7 @ 000021A6 */]
000020C0  508F                     addq.l     A7, 8
000020C2  6000 00CC                bra        +0xCE /* 00002190 */
000020C6  2F3C FFFF EF02           move.l     -[A7], 0xFFFFEF02
000020CC  2F0C                     move.l     -[A7], A4
000020CE  4EAD 051A                jsr        [A5 + 0x51A /* export_159, CODE:7 @ 000021A6 */]
000020D2  508F                     addq.l     A7, 8
000020D4  6000 00BA                bra        +0xBC /* 00002190 */
000020D8  2F3C FFFF EF08           move.l     -[A7], 0xFFFFEF08
000020DE  2F0C                     move.l     -[A7], A4
000020E0  4EAD 051A                jsr        [A5 + 0x51A /* export_159, CODE:7 @ 000021A6 */]
000020E4  508F                     addq.l     A7, 8
000020E6  6000 00A8                bra        +0xAA /* 00002190 */
000020EA  2F3C FFFF EF10           move.l     -[A7], 0xFFFFEF10
000020F0  2F0C                     move.l     -[A7], A4
000020F2  4EAD 051A                jsr        [A5 + 0x51A /* export_159, CODE:7 @ 000021A6 */]
000020F6  508F                     addq.l     A7, 8
000020F8  6000 0096                bra        +0x98 /* 00002190 */
000020FC  2F3C FFFF EF18           move.l     -[A7], 0xFFFFEF18
00002102  2F0C                     move.l     -[A7], A4
00002104  4EAD 051A                jsr        [A5 + 0x51A /* export_159, CODE:7 @ 000021A6 */]
00002108  508F                     addq.l     A7, 8
0000210A  6000 0084                bra        +0x86 /* 00002190 */
0000210E  2F3C FFFF EF20           move.l     -[A7], 0xFFFFEF20
00002114  2F0C                     move.l     -[A7], A4
00002116  4EAD 051A                jsr        [A5 + 0x51A /* export_159, CODE:7 @ 000021A6 */]
0000211A  508F                     addq.l     A7, 8
0000211C  6072                     bra        +0x74 /* 00002190 */
0000211E  2F3C FFFF EF28           move.l     -[A7], 0xFFFFEF28
00002124  2F0C                     move.l     -[A7], A4
00002126  4EAD 051A                jsr        [A5 + 0x51A /* export_159, CODE:7 @ 000021A6 */]
0000212A  508F                     addq.l     A7, 8
0000212C  6062                     bra        +0x64 /* 00002190 */
0000212E  2F3C FFFF EF2C           move.l     -[A7], 0xFFFFEF2C
00002134  2F0C                     move.l     -[A7], A4
00002136  4EAD 051A                jsr        [A5 + 0x51A /* export_159, CODE:7 @ 000021A6 */]
0000213A  508F                     addq.l     A7, 8
0000213C  6052                     bra        +0x54 /* 00002190 */
0000213E  2F3C FFFF EF34           move.l     -[A7], 0xFFFFEF34
00002144  2F0C                     move.l     -[A7], A4
00002146  4EAD 051A                jsr        [A5 + 0x51A /* export_159, CODE:7 @ 000021A6 */]
0000214A  508F                     addq.l     A7, 8
0000214C  6042                     bra        +0x44 /* 00002190 */
0000214E  2F3C FFFF EF3A           move.l     -[A7], 0xFFFFEF3A
00002154  2F0C                     move.l     -[A7], A4
00002156  4EAD 051A                jsr        [A5 + 0x51A /* export_159, CODE:7 @ 000021A6 */]
0000215A  508F                     addq.l     A7, 8
0000215C  6032                     bra        +0x34 /* 00002190 */
label0000215E:
0000215E  0C47 001A                cmpi.w     D7, 0x1A
00002162  6C18                     bge        +0x1A /* 0000217C */
00002164  7041                     moveq.l    D0, 0x41
00002166  D047                     add.w      D0, D7
00002168  3F00                     move.w     -[A7], D0
0000216A  2F3C FFFF EF40           move.l     -[A7], 0xFFFFEF40
00002170  2F0C                     move.l     -[A7], A4
00002172  4EAD 050A                jsr        [A5 + 0x50A /* export_157, CODE:7 @ 000020CA */]
00002176  4FEF 000A                lea.l      A7, [A7 + 0xA]
0000217A  6014                     bra        +0x16 /* 00002190 */
label0000217C:
0000217C  3F2E 0008                move.w     -[A7], [A6 + 0x8]
00002180  2F3C FFFF EF44           move.l     -[A7], 0xFFFFEF44
00002186  2F0C                     move.l     -[A7], A4
00002188  4EAD 050A                jsr        [A5 + 0x50A /* export_157, CODE:7 @ 000020CA */]
0000218C  4FEF 000A                lea.l      A7, [A7 + 0xA]
label00002190:
00002190  4CDF 1080                movem.l    D7,A4, [A7]+
00002194  4E5E                     unlink     A6
00002196  4E75                     rts
00002198  FD5A                     .extension 0xD5A <<F/4-5/6>> // unimplemented
0000219A  FD6C                     .extension 0xD6C <<F/4-5/6>> // unimplemented
0000219C  FD7E                     .extension 0xD7E <<F/4-5/6>> // unimplemented
0000219E  FD90                     .invalid   <<F/6/6>>
000021A0  FDA2                     .invalid   <<F/6/6>>
000021A2  FDB4                     .invalid   <<F/6/6>>
000021A4  FDC6                     .invalid   <<F/7/6>>
000021A6  FDD8                     .invalid   <<F/7/6>>
000021A8  FDEA                     .invalid   <<F/7/6>>
000021AA  FDFC                     .invalid   <<F/7/6>>
000021AC  FE0E FE20                .unknown   0xFE0E 0xFE20 (W = 7)
000021B0  FE32 FE44                .unknown   0xFE32 0xFE44 (W = 7)
000021B4  FE56 FE68                .extension 0xE56 <<F/1/7>>, 0xFE68 // unimplemented
000021B8  FE7A FE8C                .extension 0xE7A <<F/1/7>>, 0xFE8C // unimplemented
000021BC  FE9E FEB0                .extension 0xE9E <<F/2-3/7>> // unimplemented
000021C0  FEC2 FED4                .extension 0xEC2 <<F/2-3/7>> // unimplemented
000021C4  FEE6 FEF8                .extension 0xEE6 <<F/2-3/7>> // unimplemented
000021C8  FF0A                     .extension 0xF0A <<F/4-5/7>> // unimplemented
000021CA  FF1C                     .extension 0xF1C <<F/4-5/7>> // unimplemented
000021CC  FF2E                     .extension 0xF2E <<F/4-5/7>> // unimplemented
000021CE  FF40                     .extension 0xF40 <<F/4-5/7>> // unimplemented
000021D0  FF52                     .extension 0xF52 <<F/4-5/7>> // unimplemented
000021D2  FF64                     .extension 0xF64 <<F/4-5/7>> // unimplemented
000021D4  FF76                     .extension 0xF76 <<F/4-5/7>> // unimplemented
000021D6  FF86                     .invalid   <<F/6/7>>
000021D8  FF96                     .invalid   <<F/6/7>>
000021DA  FFA6                     .invalid   <<F/6/7>>
000021DC  FFB6                     .invalid   <<F/6/7>>
fn000021DE:
000021DE  4E56 0000                link       A6, 0
000021E2  2F0C                     move.l     -[A7], A4
000021E4  286E 000A                movea.l    A4, [A6 + 0xA]
000021E8  302E 0008                move.w     D0, [A6 + 0x8]
000021EC  0440 4E20                subi.w     D0, 0x4E20 /* 'N ' */
000021F0  0C40 009E                cmpi.w     D0, 0x9E
000021F4  6200 04B6                bhi        +0x4B8 /* 000026AC */
000021F8  43FA 04CC                lea.l      A1, [PC + 0x4CC /* 000026C6, value 0xFB3EFB50 */]
000021FC  D040                     add.w      D0, D0
000021FE  D2F1 0000                add.w      A1, [A1 + D0.w]
00002202  4ED1                     jmp        [A1]
00002204  2F3C FFFF EF48           move.l     -[A7], 0xFFFFEF48
0000220A  2F0C                     move.l     -[A7], A4
0000220C  4EAD 051A                jsr        [A5 + 0x51A /* export_159, CODE:7 @ 000021A6 */]
00002210  508F                     addq.l     A7, 8
00002212  6000 04AC                bra        +0x4AE /* 000026C0 */
00002216  2F3C FFFF EF4A           move.l     -[A7], 0xFFFFEF4A
0000221C  2F0C                     move.l     -[A7], A4
0000221E  4EAD 051A                jsr        [A5 + 0x51A /* export_159, CODE:7 @ 000021A6 */]
00002222  508F                     addq.l     A7, 8
00002224  6000 049A                bra        +0x49C /* 000026C0 */
00002228  2F3C FFFF EF4C           move.l     -[A7], 0xFFFFEF4C
0000222E  2F0C                     move.l     -[A7], A4
00002230  4EAD 051A                jsr        [A5 + 0x51A /* export_159, CODE:7 @ 000021A6 */]
00002234  508F                     addq.l     A7, 8
00002236  6000 0488                bra        +0x48A /* 000026C0 */
0000223A  2F3C FFFF EF4E           move.l     -[A7], 0xFFFFEF4E
00002240  2F0C                     move.l     -[A7], A4
00002242  4EAD 051A                jsr        [A5 + 0x51A /* export_159, CODE:7 @ 000021A6 */]
00002246  508F                     addq.l     A7, 8
00002248  6000 0476                bra        +0x478 /* 000026C0 */
0000224C  2F3C FFFF EF50           move.l     -[A7], 0xFFFFEF50
00002252  2F0C                     move.l     -[A7], A4
00002254  4EAD 051A                jsr        [A5 + 0x51A /* export_159, CODE:7 @ 000021A6 */]
00002258  508F                     addq.l     A7, 8
0000225A  6000 0464                bra        +0x466 /* 000026C0 */
0000225E  2F3C FFFF EF52           move.l     -[A7], 0xFFFFEF52
00002264  2F0C                     move.l     -[A7], A4
00002266  4EAD 051A                jsr        [A5 + 0x51A /* export_159, CODE:7 @ 000021A6 */]
0000226A  508F                     addq.l     A7, 8
0000226C  6000 0452                bra        +0x454 /* 000026C0 */
00002270  2F3C FFFF EF54           move.l     -[A7], 0xFFFFEF54
00002276  2F0C                     move.l     -[A7], A4
00002278  4EAD 051A                jsr        [A5 + 0x51A /* export_159, CODE:7 @ 000021A6 */]
0000227C  508F                     addq.l     A7, 8
0000227E  6000 0440                bra        +0x442 /* 000026C0 */
00002282  2F3C FFFF EF56           move.l     -[A7], 0xFFFFEF56
00002288  2F0C                     move.l     -[A7], A4
0000228A  4EAD 051A                jsr        [A5 + 0x51A /* export_159, CODE:7 @ 000021A6 */]
0000228E  508F                     addq.l     A7, 8
00002290  6000 042E                bra        +0x430 /* 000026C0 */
00002294  2F3C FFFF EF5A           move.l     -[A7], 0xFFFFEF5A
0000229A  2F0C                     move.l     -[A7], A4
0000229C  4EAD 051A                jsr        [A5 + 0x51A /* export_159, CODE:7 @ 000021A6 */]
000022A0  508F                     addq.l     A7, 8
000022A2  6000 041C                bra        +0x41E /* 000026C0 */
000022A6  2F3C FFFF EF60           move.l     -[A7], 0xFFFFEF60
000022AC  2F0C                     move.l     -[A7], A4
000022AE  4EAD 051A                jsr        [A5 + 0x51A /* export_159, CODE:7 @ 000021A6 */]
000022B2  508F                     addq.l     A7, 8
000022B4  6000 040A                bra        +0x40C /* 000026C0 */
000022B8  2F3C FFFF EF66           move.l     -[A7], 0xFFFFEF66
000022BE  2F0C                     move.l     -[A7], A4
000022C0  4EAD 051A                jsr        [A5 + 0x51A /* export_159, CODE:7 @ 000021A6 */]
000022C4  508F                     addq.l     A7, 8
000022C6  6000 03F8                bra        +0x3FA /* 000026C0 */
000022CA  2F3C FFFF EF6C           move.l     -[A7], 0xFFFFEF6C
000022D0  2F0C                     move.l     -[A7], A4
000022D2  4EAD 051A                jsr        [A5 + 0x51A /* export_159, CODE:7 @ 000021A6 */]
000022D6  508F                     addq.l     A7, 8
000022D8  6000 03E6                bra        +0x3E8 /* 000026C0 */
000022DC  2F3C FFFF EF72           move.l     -[A7], 0xFFFFEF72
000022E2  2F0C                     move.l     -[A7], A4
000022E4  4EAD 051A                jsr        [A5 + 0x51A /* export_159, CODE:7 @ 000021A6 */]
000022E8  508F                     addq.l     A7, 8
000022EA  6000 03D4                bra        +0x3D6 /* 000026C0 */
000022EE  2F3C FFFF EF78           move.l     -[A7], 0xFFFFEF78
000022F4  2F0C                     move.l     -[A7], A4
000022F6  4EAD 051A                jsr        [A5 + 0x51A /* export_159, CODE:7 @ 000021A6 */]
000022FA  508F                     addq.l     A7, 8
000022FC  6000 03C2                bra        +0x3C4 /* 000026C0 */
00002300  2F3C FFFF EF7E           move.l     -[A7], 0xFFFFEF7E
00002306  2F0C                     move.l     -[A7], A4
00002308  4EAD 051A                jsr        [A5 + 0x51A /* export_159, CODE:7 @ 000021A6 */]
0000230C  508F                     addq.l     A7, 8
0000230E  6000 03B0                bra        +0x3B2 /* 000026C0 */
00002312  2F3C FFFF EF82           move.l     -[A7], 0xFFFFEF82
00002318  2F0C                     move.l     -[A7], A4
0000231A  4EAD 051A                jsr        [A5 + 0x51A /* export_159, CODE:7 @ 000021A6 */]
0000231E  508F                     addq.l     A7, 8
00002320  6000 039E                bra        +0x3A0 /* 000026C0 */
00002324  2F3C FFFF EF86           move.l     -[A7], 0xFFFFEF86
0000232A  2F0C                     move.l     -[A7], A4
0000232C  4EAD 051A                jsr        [A5 + 0x51A /* export_159, CODE:7 @ 000021A6 */]
00002330  508F                     addq.l     A7, 8
00002332  6000 038C                bra        +0x38E /* 000026C0 */
00002336  2F3C FFFF EF8A           move.l     -[A7], 0xFFFFEF8A
0000233C  2F0C                     move.l     -[A7], A4
0000233E  4EAD 051A                jsr        [A5 + 0x51A /* export_159, CODE:7 @ 000021A6 */]
00002342  508F                     addq.l     A7, 8
00002344  6000 037A                bra        +0x37C /* 000026C0 */
00002348  2F3C FFFF EF92           move.l     -[A7], 0xFFFFEF92
0000234E  2F0C                     move.l     -[A7], A4
00002350  4EAD 051A                jsr        [A5 + 0x51A /* export_159, CODE:7 @ 000021A6 */]
00002354  508F                     addq.l     A7, 8
00002356  6000 0368                bra        +0x36A /* 000026C0 */
0000235A  2F3C FFFF EF96           move.l     -[A7], 0xFFFFEF96
00002360  2F0C                     move.l     -[A7], A4
00002362  4EAD 051A                jsr        [A5 + 0x51A /* export_159, CODE:7 @ 000021A6 */]
00002366  508F                     addq.l     A7, 8
00002368  6000 0356                bra        +0x358 /* 000026C0 */
0000236C  2F3C FFFF EF9A           move.l     -[A7], 0xFFFFEF9A
00002372  2F0C                     move.l     -[A7], A4
00002374  4EAD 051A                jsr        [A5 + 0x51A /* export_159, CODE:7 @ 000021A6 */]
00002378  508F                     addq.l     A7, 8
0000237A  6000 0344                bra        +0x346 /* 000026C0 */
0000237E  2F3C FFFF EF9E           move.l     -[A7], 0xFFFFEF9E
00002384  2F0C                     move.l     -[A7], A4
00002386  4EAD 051A                jsr        [A5 + 0x51A /* export_159, CODE:7 @ 000021A6 */]
0000238A  508F                     addq.l     A7, 8
0000238C  6000 0332                bra        +0x334 /* 000026C0 */
00002390  2F3C FFFF EFA2           move.l     -[A7], 0xFFFFEFA2
00002396  2F0C                     move.l     -[A7], A4
00002398  4EAD 051A                jsr        [A5 + 0x51A /* export_159, CODE:7 @ 000021A6 */]
0000239C  508F                     addq.l     A7, 8
0000239E  6000 0320                bra        +0x322 /* 000026C0 */
000023A2  2F3C FFFF EFA6           move.l     -[A7], 0xFFFFEFA6
000023A8  2F0C                     move.l     -[A7], A4
000023AA  4EAD 051A                jsr        [A5 + 0x51A /* export_159, CODE:7 @ 000021A6 */]
000023AE  508F                     addq.l     A7, 8
000023B0  6000 030E                bra        +0x310 /* 000026C0 */
000023B4  2F3C FFFF EFAA           move.l     -[A7], 0xFFFFEFAA
000023BA  2F0C                     move.l     -[A7], A4
000023BC  4EAD 051A                jsr        [A5 + 0x51A /* export_159, CODE:7 @ 000021A6 */]
000023C0  508F                     addq.l     A7, 8
000023C2  6000 02FC                bra        +0x2FE /* 000026C0 */
000023C6  2F3C FFFF EFB0           move.l     -[A7], 0xFFFFEFB0
000023CC  2F0C                     move.l     -[A7], A4
000023CE  4EAD 051A                jsr        [A5 + 0x51A /* export_159, CODE:7 @ 000021A6 */]
000023D2  508F                     addq.l     A7, 8
000023D4  6000 02EA                bra        +0x2EC /* 000026C0 */
000023D8  2F3C FFFF EFB4           move.l     -[A7], 0xFFFFEFB4
000023DE  2F0C                     move.l     -[A7], A4
000023E0  4EAD 051A                jsr        [A5 + 0x51A /* export_159, CODE:7 @ 000021A6 */]
000023E4  508F                     addq.l     A7, 8
000023E6  6000 02D8                bra        +0x2DA /* 000026C0 */
000023EA  2F3C FFFF EFB8           move.l     -[A7], 0xFFFFEFB8
000023F0  2F0C                     move.l     -[A7], A4
000023F2  4EAD 051A                jsr        [A5 + 0x51A /* export_159, CODE:7 @ 000021A6 */]
000023F6  508F                     addq.l     A7, 8
000023F8  6000 02C6                bra        +0x2C8 /* 000026C0 */
000023FC  2F3C FFFF EFC0           move.l     -[A7], 0xFFFFEFC0
00002402  2F0C                     move.l     -[A7], A4
00002404  4EAD 051A                jsr        [A5 + 0x51A /* export_159, CODE:7 @ 000021A6 */]
00002408  508F                     addq.l     A7, 8
0000240A  6000 02B4                bra        +0x2B6 /* 000026C0 */
0000240E  2F3C FFFF EFC4           move.l     -[A7], 0xFFFFEFC4
00002414  2F0C                     move.l     -[A7], A4
00002416  4EAD 051A                jsr        [A5 + 0x51A /* export_159, CODE:7 @ 000021A6 */]
0000241A  508F                     addq.l     A7, 8
0000241C  6000 02A2                bra        +0x2A4 /* 000026C0 */
00002420  2F3C FFFF EFC8           move.l     -[A7], 0xFFFFEFC8
00002426  2F0C                     move.l     -[A7], A4
00002428  4EAD 051A                jsr        [A5 + 0x51A /* export_159, CODE:7 @ 000021A6 */]
0000242C  508F                     addq.l     A7, 8
0000242E  6000 0290                bra        +0x292 /* 000026C0 */
00002432  2F3C FFFF EFCC           move.l     -[A7], 0xFFFFEFCC
00002438  2F0C                     move.l     -[A7], A4
0000243A  4EAD 051A                jsr        [A5 + 0x51A /* export_159, CODE:7 @ 000021A6 */]
0000243E  508F                     addq.l     A7, 8
00002440  6000 027E                bra        +0x280 /* 000026C0 */
00002444  2F3C FFFF EFD0           move.l     -[A7], 0xFFFFEFD0
0000244A  2F0C                     move.l     -[A7], A4
0000244C  4EAD 051A                jsr        [A5 + 0x51A /* export_159, CODE:7 @ 000021A6 */]
00002450  508F                     addq.l     A7, 8
00002452  6000 026C                bra        +0x26E /* 000026C0 */
00002456  2F3C FFFF EFD6           move.l     -[A7], 0xFFFFEFD6
0000245C  2F0C                     move.l     -[A7], A4
0000245E  4EAD 051A                jsr        [A5 + 0x51A /* export_159, CODE:7 @ 000021A6 */]
00002462  508F                     addq.l     A7, 8
00002464  6000 025A                bra        +0x25C /* 000026C0 */
00002468  2F3C FFFF EFDC           move.l     -[A7], 0xFFFFEFDC
0000246E  2F0C                     move.l     -[A7], A4
00002470  4EAD 051A                jsr        [A5 + 0x51A /* export_159, CODE:7 @ 000021A6 */]
00002474  508F                     addq.l     A7, 8
00002476  6000 0248                bra        +0x24A /* 000026C0 */
0000247A  2F3C FFFF EFE2           move.l     -[A7], 0xFFFFEFE2
00002480  2F0C                     move.l     -[A7], A4
00002482  4EAD 051A                jsr        [A5 + 0x51A /* export_159, CODE:7 @ 000021A6 */]
00002486  508F                     addq.l     A7, 8
00002488  6000 0236                bra        +0x238 /* 000026C0 */
0000248C  2F3C FFFF EFE8           move.l     -[A7], 0xFFFFEFE8
00002492  2F0C                     move.l     -[A7], A4
00002494  4EAD 051A                jsr        [A5 + 0x51A /* export_159, CODE:7 @ 000021A6 */]
00002498  508F                     addq.l     A7, 8
0000249A  6000 0224                bra        +0x226 /* 000026C0 */
0000249E  2F3C FFFF EFEE           move.l     -[A7], 0xFFFFEFEE
000024A4  2F0C                     move.l     -[A7], A4
000024A6  4EAD 051A                jsr        [A5 + 0x51A /* export_159, CODE:7 @ 000021A6 */]
000024AA  508F                     addq.l     A7, 8
000024AC  6000 0212                bra        +0x214 /* 000026C0 */
000024B0  2F3C FFFF EFF4           move.l     -[A7], 0xFFFFEFF4
000024B6  2F0C                     move.l     -[A7], A4
000024B8  4EAD 051A                jsr        [A5 + 0x51A /* export_159, CODE:7 @ 000021A6 */]
000024BC  508F                     addq.l     A7, 8
000024BE  6000 0200                bra        +0x202 /* 000026C0 */
000024C2  2F3C FFFF EFFA           move.l     -[A7], 0xFFFFEFFA
000024C8  2F0C                     move.l     -[A7], A4
000024CA  4EAD 051A                jsr        [A5 + 0x51A /* export_159, CODE:7 @ 000021A6 */]
000024CE  508F                     addq.l     A7, 8
000024D0  6000 01EE                bra        +0x1F0 /* 000026C0 */
000024D4  2F3C FFFF F000           move.l     -[A7], 0xFFFFF000
000024DA  2F0C                     move.l     -[A7], A4
000024DC  4EAD 051A                jsr        [A5 + 0x51A /* export_159, CODE:7 @ 000021A6 */]
000024E0  508F                     addq.l     A7, 8
000024E2  6000 01DC                bra        +0x1DE /* 000026C0 */
000024E6  2F3C FFFF F006           move.l     -[A7], 0xFFFFF006
000024EC  2F0C                     move.l     -[A7], A4
000024EE  4EAD 051A                jsr        [A5 + 0x51A /* export_159, CODE:7 @ 000021A6 */]
000024F2  508F                     addq.l     A7, 8
000024F4  6000 01CA                bra        +0x1CC /* 000026C0 */
000024F8  2F3C FFFF F00C           move.l     -[A7], 0xFFFFF00C
000024FE  2F0C                     move.l     -[A7], A4
00002500  4EAD 051A                jsr        [A5 + 0x51A /* export_159, CODE:7 @ 000021A6 */]
00002504  508F                     addq.l     A7, 8
00002506  6000 01B8                bra        +0x1BA /* 000026C0 */
0000250A  2F3C FFFF F012           move.l     -[A7], 0xFFFFF012
00002510  2F0C                     move.l     -[A7], A4
00002512  4EAD 051A                jsr        [A5 + 0x51A /* export_159, CODE:7 @ 000021A6 */]
00002516  508F                     addq.l     A7, 8
00002518  6000 01A6                bra        +0x1A8 /* 000026C0 */
0000251C  2F3C FFFF F018           move.l     -[A7], 0xFFFFF018
00002522  2F0C                     move.l     -[A7], A4
00002524  4EAD 051A                jsr        [A5 + 0x51A /* export_159, CODE:7 @ 000021A6 */]
00002528  508F                     addq.l     A7, 8
0000252A  6000 0194                bra        +0x196 /* 000026C0 */
0000252E  2F3C FFFF F01E           move.l     -[A7], 0xFFFFF01E
00002534  2F0C                     move.l     -[A7], A4
00002536  4EAD 051A                jsr        [A5 + 0x51A /* export_159, CODE:7 @ 000021A6 */]
0000253A  508F                     addq.l     A7, 8
0000253C  6000 0182                bra        +0x184 /* 000026C0 */
00002540  2F3C FFFF F026           move.l     -[A7], 0xFFFFF026
00002546  2F0C                     move.l     -[A7], A4
00002548  4EAD 051A                jsr        [A5 + 0x51A /* export_159, CODE:7 @ 000021A6 */]
0000254C  508F                     addq.l     A7, 8
0000254E  6000 0170                bra        +0x172 /* 000026C0 */
00002552  2F3C FFFF F02E           move.l     -[A7], 0xFFFFF02E
00002558  2F0C                     move.l     -[A7], A4
0000255A  4EAD 051A                jsr        [A5 + 0x51A /* export_159, CODE:7 @ 000021A6 */]
0000255E  508F                     addq.l     A7, 8
00002560  6000 015E                bra        +0x160 /* 000026C0 */
00002564  2F3C FFFF F034           move.l     -[A7], 0xFFFFF034
0000256A  2F0C                     move.l     -[A7], A4
0000256C  4EAD 051A                jsr        [A5 + 0x51A /* export_159, CODE:7 @ 000021A6 */]
00002570  508F                     addq.l     A7, 8
00002572  6000 014C                bra        +0x14E /* 000026C0 */
00002576  2F3C FFFF F038           move.l     -[A7], 0xFFFFF038
0000257C  2F0C                     move.l     -[A7], A4
0000257E  4EAD 051A                jsr        [A5 + 0x51A /* export_159, CODE:7 @ 000021A6 */]
00002582  508F                     addq.l     A7, 8
00002584  6000 013A                bra        +0x13C /* 000026C0 */
00002588  2F3C FFFF F03E           move.l     -[A7], 0xFFFFF03E
0000258E  2F0C                     move.l     -[A7], A4
00002590  4EAD 051A                jsr        [A5 + 0x51A /* export_159, CODE:7 @ 000021A6 */]
00002594  508F                     addq.l     A7, 8
00002596  6000 0128                bra        +0x12A /* 000026C0 */
0000259A  2F3C FFFF F044           move.l     -[A7], 0xFFFFF044
000025A0  2F0C                     move.l     -[A7], A4
000025A2  4EAD 051A                jsr        [A5 + 0x51A /* export_159, CODE:7 @ 000021A6 */]
000025A6  508F                     addq.l     A7, 8
000025A8  6000 0116                bra        +0x118 /* 000026C0 */
000025AC  2F3C FFFF F04A           move.l     -[A7], 0xFFFFF04A
000025B2  2F0C                     move.l     -[A7], A4
000025B4  4EAD 051A                jsr        [A5 + 0x51A /* export_159, CODE:7 @ 000021A6 */]
000025B8  508F                     addq.l     A7, 8
000025BA  6000 0104                bra        +0x106 /* 000026C0 */
000025BE  2F3C FFFF F050           move.l     -[A7], 0xFFFFF050
000025C4  2F0C                     move.l     -[A7], A4
000025C6  4EAD 051A                jsr        [A5 + 0x51A /* export_159, CODE:7 @ 000021A6 */]
000025CA  508F                     addq.l     A7, 8
000025CC  6000 00F2                bra        +0xF4 /* 000026C0 */
000025D0  2F3C FFFF F056           move.l     -[A7], 0xFFFFF056
000025D6  2F0C                     move.l     -[A7], A4
000025D8  4EAD 051A                jsr        [A5 + 0x51A /* export_159, CODE:7 @ 000021A6 */]
000025DC  508F                     addq.l     A7, 8
000025DE  6000 00E0                bra        +0xE2 /* 000026C0 */
000025E2  2F3C FFFF F05C           move.l     -[A7], 0xFFFFF05C
000025E8  2F0C                     move.l     -[A7], A4
000025EA  4EAD 051A                jsr        [A5 + 0x51A /* export_159, CODE:7 @ 000021A6 */]
000025EE  508F                     addq.l     A7, 8
000025F0  6000 00CE                bra        +0xD0 /* 000026C0 */
000025F4  2F3C FFFF F062           move.l     -[A7], 0xFFFFF062
000025FA  2F0C                     move.l     -[A7], A4
000025FC  4EAD 051A                jsr        [A5 + 0x51A /* export_159, CODE:7 @ 000021A6 */]
00002600  508F                     addq.l     A7, 8
00002602  6000 00BC                bra        +0xBE /* 000026C0 */
00002606  2F3C FFFF F068           move.l     -[A7], 0xFFFFF068
0000260C  2F0C                     move.l     -[A7], A4
0000260E  4EAD 051A                jsr        [A5 + 0x51A /* export_159, CODE:7 @ 000021A6 */]
00002612  508F                     addq.l     A7, 8
00002614  6000 00AA                bra        +0xAC /* 000026C0 */
00002618  2F3C FFFF F06E           move.l     -[A7], 0xFFFFF06E
0000261E  2F0C                     move.l     -[A7], A4
00002620  4EAD 051A                jsr        [A5 + 0x51A /* export_159, CODE:7 @ 000021A6 */]
00002624  508F                     addq.l     A7, 8
00002626  6000 0098                bra        +0x9A /* 000026C0 */
0000262A  2F3C FFFF F074           move.l     -[A7], 0xFFFFF074
00002630  2F0C                     move.l     -[A7], A4
00002632  4EAD 051A                jsr        [A5 + 0x51A /* export_159, CODE:7 @ 000021A6 */]
00002636  508F                     addq.l     A7, 8
00002638  6000 0086                bra        +0x88 /* 000026C0 */
0000263C  2F3C FFFF F07A           move.l     -[A7], 0xFFFFF07A
00002642  2F0C                     move.l     -[A7], A4
00002644  4EAD 051A                jsr        [A5 + 0x51A /* export_159, CODE:7 @ 000021A6 */]
00002648  508F                     addq.l     A7, 8
0000264A  6074                     bra        +0x76 /* 000026C0 */
0000264C  2F3C FFFF F080           move.l     -[A7], 0xFFFFF080
00002652  2F0C                     move.l     -[A7], A4
00002654  4EAD 051A                jsr        [A5 + 0x51A /* export_159, CODE:7 @ 000021A6 */]
00002658  508F                     addq.l     A7, 8
0000265A  6064                     bra        +0x66 /* 000026C0 */
0000265C  2F3C FFFF F086           move.l     -[A7], 0xFFFFF086
00002662  2F0C                     move.l     -[A7], A4
00002664  4EAD 051A                jsr        [A5 + 0x51A /* export_159, CODE:7 @ 000021A6 */]
00002668  508F                     addq.l     A7, 8
0000266A  6054                     bra        +0x56 /* 000026C0 */
0000266C  2F3C FFFF F08E           move.l     -[A7], 0xFFFFF08E
00002672  2F0C                     move.l     -[A7], A4
00002674  4EAD 051A                jsr        [A5 + 0x51A /* export_159, CODE:7 @ 000021A6 */]
00002678  508F                     addq.l     A7, 8
0000267A  6044                     bra        +0x46 /* 000026C0 */
0000267C  2F3C FFFF F092           move.l     -[A7], 0xFFFFF092
00002682  2F0C                     move.l     -[A7], A4
00002684  4EAD 051A                jsr        [A5 + 0x51A /* export_159, CODE:7 @ 000021A6 */]
00002688  508F                     addq.l     A7, 8
0000268A  6034                     bra        +0x36 /* 000026C0 */
0000268C  2F3C FFFF F09A           move.l     -[A7], 0xFFFFF09A
00002692  2F0C                     move.l     -[A7], A4
00002694  4EAD 051A                jsr        [A5 + 0x51A /* export_159, CODE:7 @ 000021A6 */]
00002698  508F                     addq.l     A7, 8
0000269A  6024                     bra        +0x26 /* 000026C0 */
0000269C  2F3C FFFF F0A4           move.l     -[A7], 0xFFFFF0A4
000026A2  2F0C                     move.l     -[A7], A4
000026A4  4EAD 051A                jsr        [A5 + 0x51A /* export_159, CODE:7 @ 000021A6 */]
000026A8  508F                     addq.l     A7, 8
000026AA  6014                     bra        +0x16 /* 000026C0 */
label000026AC:
000026AC  3F2E 0008                move.w     -[A7], [A6 + 0x8]
000026B0  2F3C FFFF F0AA           move.l     -[A7], 0xFFFFF0AA
000026B6  2F0C                     move.l     -[A7], A4
000026B8  4EAD 050A                jsr        [A5 + 0x50A /* export_157, CODE:7 @ 000020CA */]
000026BC  4FEF 000A                lea.l      A7, [A7 + 0xA]
label000026C0:
000026C0  285F                     movea.l    A4, [A7]+
000026C2  4E5E                     unlink     A6
000026C4  4E75                     rts
000026C6  FB3E                     .extension 0xB3E <<F/4-5/5>> // unimplemented
000026C8  FB50                     .extension 0xB50 <<F/4-5/5>> // unimplemented
000026CA  FB62                     .extension 0xB62 <<F/4-5/5>> // unimplemented
000026CC  FB74                     .extension 0xB74 <<F/4-5/5>> // unimplemented
000026CE  FB86                     .invalid   <<F/6/5>>
000026D0  FB98                     .invalid   <<F/6/5>>
000026D2  FBAA                     .invalid   <<F/6/5>>
000026D4  FBBC                     .invalid   <<F/6/5>>
000026D6  FFE6                     .invalid   <<F/7/7>>
000026D8  FFE6                     .invalid   <<F/7/7>>
000026DA  FFE6                     .invalid   <<F/7/7>>
000026DC  FFE6                     .invalid   <<F/7/7>>
000026DE  FFE6                     .invalid   <<F/7/7>>
000026E0  FFE6                     .invalid   <<F/7/7>>
000026E2  FFE6                     .invalid   <<F/7/7>>
000026E4  FFE6                     .invalid   <<F/7/7>>
000026E6  FFE6                     .invalid   <<F/7/7>>
000026E8  FFE6                     .invalid   <<F/7/7>>
000026EA  FFE6                     .invalid   <<F/7/7>>
000026EC  FFE6                     .invalid   <<F/7/7>>
000026EE  FFE6                     .invalid   <<F/7/7>>
000026F0  FFE6                     .invalid   <<F/7/7>>
000026F2  FFE6                     .invalid   <<F/7/7>>
000026F4  FFE6                     .invalid   <<F/7/7>>
000026F6  FFE6                     .invalid   <<F/7/7>>
000026F8  FFE6                     .invalid   <<F/7/7>>
000026FA  FFE6                     .invalid   <<F/7/7>>
000026FC  FFE6                     .invalid   <<F/7/7>>
000026FE  FFE6                     .invalid   <<F/7/7>>
00002700  FFE6                     .invalid   <<F/7/7>>
00002702  FFE6                     .invalid   <<F/7/7>>
00002704  FFE6                     .invalid   <<F/7/7>>
00002706  FFE6                     .invalid   <<F/7/7>>
00002708  FFE6                     .invalid   <<F/7/7>>
0000270A  FFE6                     .invalid   <<F/7/7>>
0000270C  FFE6                     .invalid   <<F/7/7>>
0000270E  FFE6                     .invalid   <<F/7/7>>
00002710  FFE6                     .invalid   <<F/7/7>>
00002712  FFE6                     .invalid   <<F/7/7>>
00002714  FFE6                     .invalid   <<F/7/7>>
00002716  FFE6                     .invalid   <<F/7/7>>
00002718  FFE6                     .invalid   <<F/7/7>>
0000271A  FFE6                     .invalid   <<F/7/7>>
0000271C  FFE6                     .invalid   <<F/7/7>>
0000271E  FFE6                     .invalid   <<F/7/7>>
00002720  FFE6                     .invalid   <<F/7/7>>
00002722  FFE6                     .invalid   <<F/7/7>>
00002724  FFE6                     .invalid   <<F/7/7>>
00002726  FFE6                     .invalid   <<F/7/7>>
00002728  FFE6                     .invalid   <<F/7/7>>
0000272A  FFE6                     .invalid   <<F/7/7>>
0000272C  FFE6                     .invalid   <<F/7/7>>
0000272E  FFE6                     .invalid   <<F/7/7>>
00002730  FFE6                     .invalid   <<F/7/7>>
00002732  FFE6                     .invalid   <<F/7/7>>
00002734  FFE6                     .invalid   <<F/7/7>>
00002736  FFE6                     .invalid   <<F/7/7>>
00002738  FFE6                     .invalid   <<F/7/7>>
0000273A  FFE6                     .invalid   <<F/7/7>>
0000273C  FFE6                     .invalid   <<F/7/7>>
0000273E  FFE6                     .invalid   <<F/7/7>>
00002740  FFE6                     .invalid   <<F/7/7>>
00002742  FFE6                     .invalid   <<F/7/7>>
00002744  FFE6                     .invalid   <<F/7/7>>
00002746  FFE6                     .invalid   <<F/7/7>>
00002748  FFE6                     .invalid   <<F/7/7>>
0000274A  FFE6                     .invalid   <<F/7/7>>
0000274C  FFE6                     .invalid   <<F/7/7>>
0000274E  FFE6                     .invalid   <<F/7/7>>
00002750  FFE6                     .invalid   <<F/7/7>>
00002752  FFE6                     .invalid   <<F/7/7>>
00002754  FFE6                     .invalid   <<F/7/7>>
00002756  FFE6                     .invalid   <<F/7/7>>
00002758  FFE6                     .invalid   <<F/7/7>>
0000275A  FFE6                     .invalid   <<F/7/7>>
0000275C  FFE6                     .invalid   <<F/7/7>>
0000275E  FFE6                     .invalid   <<F/7/7>>
00002760  FFE6                     .invalid   <<F/7/7>>
00002762  FFE6                     .invalid   <<F/7/7>>
00002764  FFE6                     .invalid   <<F/7/7>>
00002766  FFE6                     .invalid   <<F/7/7>>
00002768  FFE6                     .invalid   <<F/7/7>>
0000276A  FFE6                     .invalid   <<F/7/7>>
0000276C  FFE6                     .invalid   <<F/7/7>>
0000276E  FFE6                     .invalid   <<F/7/7>>
00002770  FFE6                     .invalid   <<F/7/7>>
00002772  FFE6                     .invalid   <<F/7/7>>
00002774  FFE6                     .invalid   <<F/7/7>>
00002776  FFE6                     .invalid   <<F/7/7>>
00002778  FFE6                     .invalid   <<F/7/7>>
0000277A  FFE6                     .invalid   <<F/7/7>>
0000277C  FFE6                     .invalid   <<F/7/7>>
0000277E  FFE6                     .invalid   <<F/7/7>>
00002780  FFE6                     .invalid   <<F/7/7>>
00002782  FFE6                     .invalid   <<F/7/7>>
00002784  FFE6                     .invalid   <<F/7/7>>
00002786  FFE6                     .invalid   <<F/7/7>>
00002788  FFE6                     .invalid   <<F/7/7>>
0000278A  FFE6                     .invalid   <<F/7/7>>
0000278C  FFE6                     .invalid   <<F/7/7>>
0000278E  FBCE                     .invalid   <<F/7/5>>
00002790  FBE0                     .invalid   <<F/7/5>>
00002792  FBF2                     .invalid   <<F/7/5>>
00002794  FC04 FC16                .unknown   0xFC04 0xFC16 (W = 6)
00002798  FC28 FC3A                .unknown   0xFC28 0xFC3A (W = 6)
0000279C  FC4C FC5E                .extension 0xC4C <<F/1/6>>, 0xFC5E // unimplemented
000027A0  FC70 FC82                .extension 0xC70 <<F/1/6>>, 0xFC82 // unimplemented
000027A4  FC94 FCA6                .extension 0xC94 <<F/2-3/6>> // unimplemented
000027A8  FCB8 FCCA                .extension 0xCB8 <<F/2-3/6>> // unimplemented
000027AC  FCDC FCEE                .extension 0xCDC <<F/2-3/6>> // unimplemented
000027B0  FD00                     .extension 0xD00 <<F/4-5/6>> // unimplemented
000027B2  FD12                     .extension 0xD12 <<F/4-5/6>> // unimplemented
000027B4  FD24                     .extension 0xD24 <<F/4-5/6>> // unimplemented
000027B6  FD36                     .extension 0xD36 <<F/4-5/6>> // unimplemented
000027B8  FD48                     .extension 0xD48 <<F/4-5/6>> // unimplemented
000027BA  FD5A                     .extension 0xD5A <<F/4-5/6>> // unimplemented
000027BC  FD6C                     .extension 0xD6C <<F/4-5/6>> // unimplemented
000027BE  FD7E                     .extension 0xD7E <<F/4-5/6>> // unimplemented
000027C0  FD90                     .invalid   <<F/6/6>>
000027C2  FDA2                     .invalid   <<F/6/6>>
000027C4  FDB4                     .invalid   <<F/6/6>>
000027C6  FDC6                     .invalid   <<F/7/6>>
000027C8  FDD8                     .invalid   <<F/7/6>>
000027CA  FDEA                     .invalid   <<F/7/6>>
000027CC  FDFC                     .invalid   <<F/7/6>>
000027CE  FE0E FE20                .unknown   0xFE0E 0xFE20 (W = 7)
000027D2  FE32 FE44                .unknown   0xFE32 0xFE44 (W = 7)
000027D6  FE56 FE68                .extension 0xE56 <<F/1/7>>, 0xFE68 // unimplemented
000027DA  FE7A FE8C                .extension 0xE7A <<F/1/7>>, 0xFE8C // unimplemented
000027DE  FE9E FEB0                .extension 0xE9E <<F/2-3/7>> // unimplemented
000027E2  FEC2 FED4                .extension 0xEC2 <<F/2-3/7>> // unimplemented
000027E6  FEE6 FEF8                .extension 0xEE6 <<F/2-3/7>> // unimplemented
000027EA  FF0A                     .extension 0xF0A <<F/4-5/7>> // unimplemented
000027EC  FF1C                     .extension 0xF1C <<F/4-5/7>> // unimplemented
000027EE  FF2E                     .extension 0xF2E <<F/4-5/7>> // unimplemented
000027F0  FF40                     .extension 0xF40 <<F/4-5/7>> // unimplemented
000027F2  FF52                     .extension 0xF52 <<F/4-5/7>> // unimplemented
000027F4  FF64                     .extension 0xF64 <<F/4-5/7>> // unimplemented
000027F6  FF76                     .extension 0xF76 <<F/4-5/7>> // unimplemented
000027F8  FF86                     .invalid   <<F/6/7>>
000027FA  FF96                     .invalid   <<F/6/7>>
000027FC  FFA6                     .invalid   <<F/6/7>>
000027FE  FFB6                     .invalid   <<F/6/7>>
00002800  FFC6                     .invalid   <<F/7/7>>
00002802  FFD6                     .invalid   <<F/7/7>>
export_102:
00002804  4E56 FDB8                link       A6, -0x0248
00002808  48E7 0718                movem.l    -[A7], D5,D6,D7,A3,A4
0000280C  303C 03C2                move.w     D0, 0x3C2
00002810  C1F9 FFFF 923A           muls.w     D0, [0xFFFF923A]
00002816  0680 FFFF 9442           addi.l     D0, 0xFFFF9442
0000281C  23C0 FFFF AEB4           move.l     [0xFFFFAEB4], D0
00002822  2040                     movea.l    A0, D0
00002824  4A28 0116                tst.b      [A0 + 0x116]
00002828  6700 027C                beq        +0x27E /* 00002AA6 */
0000282C  2079 FFFF AEB4           movea.l    A0, [0xFFFFAEB4]
00002832  3E28 034C                move.w     D7, [A0 + 0x34C]
00002836  4A47                     tst.w      D7
00002838  6722                     beq        +0x24 /* 0000285C */
0000283A  70FF                     moveq.l    D0, 0xFFFFFFFF
0000283C  D047                     add.w      D0, D7
0000283E  C1FC 0014                muls.w     D0, 0x14
00002842  2079 FFFF AEB4           movea.l    A0, [0xFFFFAEB4]
00002848  2240                     movea.l    A1, D0
0000284A  D3FC FFFF B786           add.l      A1, 0xFFFFB786
00002850  3028 010A                move.w     D0, [A0 + 0x10A]
00002854  D2C0                     add.w      A1, D0
00002856  3C31 0000                move.w     D6, [A1 + D0.w]
0000285A  6002                     bra        +0x4 /* 0000285E */
label0000285C:
0000285C  7C00                     moveq.l    D6, 0x00
label0000285E:
0000285E  2079 FFFF AEB4           movea.l    A0, [0xFFFFAEB4]
00002864  4A68 0110                tst.w      [A0 + 0x110]
00002868  670C                     beq        +0xE /* 00002876 */
0000286A  2079 FFFF AEB4           movea.l    A0, [0xFFFFAEB4]
00002870  3E28 0114                move.w     D7, [A0 + 0x114]
00002874  6002                     bra        +0x4 /* 00002878 */
label00002876:
00002876  7E00                     moveq.l    D7, 0x00
label00002878:
00002878  2079 FFFF AEB4           movea.l    A0, [0xFFFFAEB4]
0000287E  3F28 0108                move.w     -[A7], [A0 + 0x108]
00002882  2F3C FFFF F0AE           move.l     -[A7], 0xFFFFF0AE
00002888  486E FEB8                pea.l      [A6 - 0x148]
0000288C  4EAD 050A                jsr        [A5 + 0x50A /* export_157, CODE:7 @ 000020CA */]
00002890  2079 FFFF AEB4           movea.l    A0, [0xFFFFAEB4]
00002896  3EA8 00FE                move.w     [A7], [A0 + 0xFE]
0000289A  2F3C FFFF F0B2           move.l     -[A7], 0xFFFFF0B2
000028A0  486E FECC                pea.l      [A6 - 0x134]
000028A4  4EAD 050A                jsr        [A5 + 0x50A /* export_157, CODE:7 @ 000020CA */]
000028A8  2079 FFFF AEB4           movea.l    A0, [0xFFFFAEB4]
000028AE  3EA8 0100                move.w     [A7], [A0 + 0x100]
000028B2  2F3C FFFF F0B6           move.l     -[A7], 0xFFFFF0B6
000028B8  486E FEE0                pea.l      [A6 - 0x120]
000028BC  4EAD 050A                jsr        [A5 + 0x50A /* export_157, CODE:7 @ 000020CA */]
000028C0  2079 FFFF AEB4           movea.l    A0, [0xFFFFAEB4]
000028C6  3EA8 0102                move.w     [A7], [A0 + 0x102]
000028CA  2F3C FFFF F0BA           move.l     -[A7], 0xFFFFF0BA
000028D0  486E FEF4                pea.l      [A6 - 0x10C]
000028D4  4EAD 050A                jsr        [A5 + 0x50A /* export_157, CODE:7 @ 000020CA */]
000028D8  2079 FFFF AEB4           movea.l    A0, [0xFFFFAEB4]
000028DE  3EA8 010C                move.w     [A7], [A0 + 0x10C]
000028E2  2F3C FFFF F0BE           move.l     -[A7], 0xFFFFF0BE
000028E8  486E FF08                pea.l      [A6 - 0xF8]
000028EC  4EAD 050A                jsr        [A5 + 0x50A /* export_157, CODE:7 @ 000020CA */]
000028F0  2079 FFFF AEB4           movea.l    A0, [0xFFFFAEB4]
000028F6  3EA8 010E                move.w     [A7], [A0 + 0x10E]
000028FA  2F3C FFFF F0C2           move.l     -[A7], 0xFFFFF0C2
00002900  486E FF1C                pea.l      [A6 - 0xE4]
00002904  4EAD 050A                jsr        [A5 + 0x50A /* export_157, CODE:7 @ 000020CA */]
00002908  2EB9 FFFF AEB4           move.l     [A7], [0xFFFFAEB4]
0000290E  2079 FFFF AEBE           movea.l    A0, [0xFFFFAEBE]
00002914  4E90                     jsr        [A0]
00002916  3E80                     move.w     [A7], D0
00002918  2F3C FFFF F0C6           move.l     -[A7], 0xFFFFF0C6
0000291E  486E FF30                pea.l      [A6 - 0xD0]
00002922  4EAD 050A                jsr        [A5 + 0x50A /* export_157, CODE:7 @ 000020CA */]
00002926  2EB9 FFFF AEB4           move.l     [A7], [0xFFFFAEB4]
0000292C  2079 FFFF AEC2           movea.l    A0, [0xFFFFAEC2]
00002932  4E90                     jsr        [A0]
00002934  3E80                     move.w     [A7], D0
00002936  2F3C FFFF F0CA           move.l     -[A7], 0xFFFFF0CA
0000293C  486E FF44                pea.l      [A6 - 0xBC]
00002940  4EAD 050A                jsr        [A5 + 0x50A /* export_157, CODE:7 @ 000020CA */]
00002944  2079 FFFF AEB4           movea.l    A0, [0xFFFFAEB4]
0000294A  3EA8 0030                move.w     [A7], [A0 + 0x30]
0000294E  2F3C FFFF F0CE           move.l     -[A7], 0xFFFFF0CE
00002954  486E FF58                pea.l      [A6 - 0xA8]
00002958  4EAD 050A                jsr        [A5 + 0x50A /* export_157, CODE:7 @ 000020CA */]
0000295C  2079 FFFF AEB4           movea.l    A0, [0xFFFFAEB4]
00002962  3EA8 0032                move.w     [A7], [A0 + 0x32]
00002966  2F3C FFFF F0D2           move.l     -[A7], 0xFFFFF0D2
0000296C  486E FF6C                pea.l      [A6 - 0x94]
00002970  4EAD 050A                jsr        [A5 + 0x50A /* export_157, CODE:7 @ 000020CA */]
00002974  2079 FFFF AEB4           movea.l    A0, [0xFFFFAEB4]
0000297A  3EA8 0104                move.w     [A7], [A0 + 0x104]
0000297E  2F3C FFFF F0D6           move.l     -[A7], 0xFFFFF0D6
00002984  486E FF80                pea.l      [A6 - 0x80]
00002988  4EAD 050A                jsr        [A5 + 0x50A /* export_157, CODE:7 @ 000020CA */]
0000298C  2079 FFFF AEB4           movea.l    A0, [0xFFFFAEB4]
00002992  3EA8 0106                move.w     [A7], [A0 + 0x106]
00002996  2F3C FFFF F0DA           move.l     -[A7], 0xFFFFF0DA
0000299C  486E FF94                pea.l      [A6 - 0x6C]
000029A0  4EAD 050A                jsr        [A5 + 0x50A /* export_157, CODE:7 @ 000020CA */]
000029A4  2079 FFFF AEB4           movea.l    A0, [0xFFFFAEB4]
000029AA  3EA8 0110                move.w     [A7], [A0 + 0x110]
000029AE  2F3C FFFF F0DE           move.l     -[A7], 0xFFFFF0DE
000029B4  486E FFA8                pea.l      [A6 - 0x58]
000029B8  4EAD 050A                jsr        [A5 + 0x50A /* export_157, CODE:7 @ 000020CA */]
000029BC  4FEF 006A                lea.l      A7, [A7 + 0x6A]
000029C0  3F07                     move.w     -[A7], D7
000029C2  2F3C FFFF F0E2           move.l     -[A7], 0xFFFFF0E2
000029C8  486E FFBC                pea.l      [A6 - 0x44]
000029CC  4EAD 050A                jsr        [A5 + 0x50A /* export_157, CODE:7 @ 000020CA */]
000029D0  2079 FFFF AEB4           movea.l    A0, [0xFFFFAEB4]
000029D6  3EA8 010A                move.w     [A7], [A0 + 0x10A]
000029DA  2F3C FFFF F0E6           move.l     -[A7], 0xFFFFF0E6
000029E0  486E FFD0                pea.l      [A6 - 0x30]
000029E4  4EAD 050A                jsr        [A5 + 0x50A /* export_157, CODE:7 @ 000020CA */]
000029E8  3E86                     move.w     [A7], D6
000029EA  2F3C FFFF F0EA           move.l     -[A7], 0xFFFFF0EA
000029F0  486E FFE4                pea.l      [A6 - 0x1C]
000029F4  4EAD 050A                jsr        [A5 + 0x50A /* export_157, CODE:7 @ 000020CA */]
000029F8  7E00                     moveq.l    D7, 0x00
000029FA  49EE FEB8                lea.l      A4, [A6 - 0x148]
000029FE  4FEF 001A                lea.l      A7, [A7 + 0x1A]
00002A02  600E                     bra        +0x10 /* 00002A12 */
label00002A04:
00002A04  2F0C                     move.l     -[A7], A4
00002A06  4EAD 0482                jsr        [A5 + 0x482 /* export_140, CODE:7 @ 0000237C */]
00002A0A  588F                     addq.l     A7, 4
00002A0C  5247                     addq.w     D7, 1
00002A0E  49EC 0014                lea.l      A4, [A4 + 0x14]
label00002A12:
00002A12  0C47 0010                cmpi.w     D7, 0x10
00002A16  6DEC                     blt        -0x12 /* 00002A04 */
00002A18  3D7C 0062 FFF8           move.w     [A6 - 0x8], 0x62 /* 'b' */
00002A1E  3D7C 0172 FFFA           move.w     [A6 - 0x6], 0x172
00002A24  3D7C 00B4 FFFC           move.w     [A6 - 0x4], 0xB4
00002A2A  3D7C 018F FFFE           move.w     [A6 - 0x2], 0x18F
00002A30  486E FFF8                pea.l      [A6 - 0x8]
00002A34  A8A3                     syscall    EraseRect
00002A36  7E00                     moveq.l    D7, 0x00
00002A38  49EE FEB8                lea.l      A4, [A6 - 0x148]
00002A3C  7C00                     moveq.l    D6, 0x00
00002A3E  601A                     bra        +0x1C /* 00002A5A */
label00002A40:
00002A40  3F3C 0172                move.w     -[A7], 0x172
00002A44  706A                     moveq.l    D0, 0x6A
00002A46  D046                     add.w      D0, D6
00002A48  3F00                     move.w     -[A7], D0
00002A4A  A893                     syscall    MoveTo
00002A4C  2F0C                     move.l     -[A7], A4
00002A4E  A884                     syscall    DrawString
00002A50  5247                     addq.w     D7, 1
00002A52  49EC 0014                lea.l      A4, [A4 + 0x14]
00002A56  0646 000A                addi.w     D6, 0xA /* '\n' */
label00002A5A:
00002A5A  0C47 0008                cmpi.w     D7, 0x8
00002A5E  6DE0                     blt        -0x1E /* 00002A40 */
00002A60  3D7C 01D1 FFFA           move.w     [A6 - 0x6], 0x1D1
00002A66  3D7C 01F3 FFFE           move.w     [A6 - 0x2], 0x1F3
00002A6C  486E FFF8                pea.l      [A6 - 0x8]
00002A70  A8A3                     syscall    EraseRect
00002A72  7E00                     moveq.l    D7, 0x00
00002A74  7C00                     moveq.l    D6, 0x00
00002A76  6024                     bra        +0x26 /* 00002A9C */
label00002A78:
00002A78  3F3C 01D1                move.w     -[A7], 0x1D1
00002A7C  706A                     moveq.l    D0, 0x6A
00002A7E  D046                     add.w      D0, D6
00002A80  3F00                     move.w     -[A7], D0
00002A82  A893                     syscall    MoveTo
00002A84  7008                     moveq.l    D0, 0x08
00002A86  D047                     add.w      D0, D7
00002A88  C1FC 0014                muls.w     D0, 0x14
00002A8C  204E                     movea.l    A0, A6
00002A8E  D1C0                     add.l      A0, D0
00002A90  4868 FEB8                pea.l      [A0 - 0x148]
00002A94  A884                     syscall    DrawString
00002A96  5247                     addq.w     D7, 1
00002A98  0646 000A                addi.w     D6, 0xA /* '\n' */
label00002A9C:
00002A9C  0C47 0008                cmpi.w     D7, 0x8
00002AA0  6DD6                     blt        -0x28 /* 00002A78 */
00002AA2  6000 00CC                bra        +0xCE /* 00002B70 */
label00002AA6:
00002AA6  3D7C 0062 FFF8           move.w     [A6 - 0x8], 0x62 /* 'b' */
00002AAC  3D7C 0172 FFFA           move.w     [A6 - 0x6], 0x172
00002AB2  3D7C 00B4 FFFC           move.w     [A6 - 0x4], 0xB4
00002AB8  3D7C 018F FFFE           move.w     [A6 - 0x2], 0x18F
00002ABE  486E FFF8                pea.l      [A6 - 0x8]
00002AC2  A8A3                     syscall    EraseRect
00002AC4  2F3C 006A 0172           move.l     -[A7], 0x6A0172
00002ACA  A893                     syscall    MoveTo
00002ACC  2F3C FFFF F0EE           move.l     -[A7], 0xFFFFF0EE
00002AD2  A884                     syscall    DrawString
00002AD4  3D7C 01D1 FFFA           move.w     [A6 - 0x6], 0x1D1
00002ADA  3D7C 01F3 FFFE           move.w     [A6 - 0x2], 0x1F3
00002AE0  486E FFF8                pea.l      [A6 - 0x8]
00002AE4  A8A3                     syscall    EraseRect
00002AE6  3D7C 01AE FFFA           move.w     [A6 - 0x6], 0x1AE
00002AEC  3D7C 01F4 FFFE           move.w     [A6 - 0x2], 0x1F4
00002AF2  426E FFF8                clr.w      [A6 - 0x8]
00002AF6  3D7C 0019 FFFC           move.w     [A6 - 0x4], 0x19
00002AFC  486E FFF8                pea.l      [A6 - 0x8]
00002B00  A8A3                     syscall    EraseRect
00002B02  2F3C 000A 01AE           move.l     -[A7], 0xA01AE
00002B08  A893                     syscall    MoveTo
00002B0A  2079 FFFF AEB4           movea.l    A0, [0xFFFFAEB4]
00002B10  3028 010E                move.w     D0, [A0 + 0x10E]
00002B14  6B20                     bmi        +0x22 /* 00002B36 */
00002B16  0440 7D01                subi.w     D0, 0x7D01
00002B1A  6710                     beq        +0x12 /* 00002B2C */
00002B1C  6A18                     bpl        +0x1A /* 00002B36 */
00002B1E  5240                     addq.w     D0, 1
00002B20  6B14                     bmi        +0x16 /* 00002B36 */
00002B22  2F3C FFFF F0F0           move.l     -[A7], 0xFFFFF0F0
00002B28  A884                     syscall    DrawString
00002B2A  6012                     bra        +0x14 /* 00002B3E */
label00002B2C:
00002B2C  2F3C FFFF F0F6           move.l     -[A7], 0xFFFFF0F6
00002B32  A884                     syscall    DrawString
00002B34  6008                     bra        +0xA /* 00002B3E */
label00002B36:
00002B36  2F3C FFFF F102           move.l     -[A7], 0xFFFFF102
00002B3C  A884                     syscall    DrawString
label00002B3E:
00002B3E  2079 FFFF AEB4           movea.l    A0, [0xFFFFAEB4]
00002B44  2F28 0118                move.l     -[A7], [A0 + 0x118]
00002B48  2F3C FFFF F10C           move.l     -[A7], 0xFFFFF10C
00002B4E  486E FDB8                pea.l      [A6 - 0x248]
00002B52  4EAD 050A                jsr        [A5 + 0x50A /* export_157, CODE:7 @ 000020CA */]
00002B56  486E FDB8                pea.l      [A6 - 0x248]
00002B5A  4EAD 0482                jsr        [A5 + 0x482 /* export_140, CODE:7 @ 0000237C */]
00002B5E  2EBC 0013 01AE           move.l     [A7], 0x1301AE
00002B64  A893                     syscall    MoveTo
00002B66  486E FDB8                pea.l      [A6 - 0x248]
00002B6A  A884                     syscall    DrawString
00002B6C  4FEF 000C                lea.l      A7, [A7 + 0xC]
label00002B70:
00002B70  7E00                     moveq.l    D7, 0x00
00002B72  49EE FEB8                lea.l      A4, [A6 - 0x148]
00002B76  6000 0080                bra        +0x82 /* 00002BF8 */
label00002B7A:
00002B7A  2079 FFFF AEB4           movea.l    A0, [0xFFFFAEB4]
00002B80  3C28 0302                move.w     D6, [A0 + 0x302]
00002B84  9C47                     sub.w      D6, D7
00002B86  5346                     subq.w     D6, 1
00002B88  3646                     movea.w    A3, D6
00002B8A  D7CB                     add.l      A3, A3
00002B8C  41E8 0236                lea.l      A0, [A0 + 0x236]
00002B90  D1CB                     add.l      A0, A3
00002B92  3A10                     move.w     D5, [A0]
00002B94  0C45 4F4C                cmpi.w     D5, 0x4F4C /* 'OL' */
00002B98  6D1E                     blt        +0x20 /* 00002BB8 */
00002B9A  0C45 4FB0                cmpi.w     D5, 0x4FB0
00002B9E  6C18                     bge        +0x1A /* 00002BB8 */
00002BA0  486E FDB8                pea.l      [A6 - 0x248]
00002BA4  204B                     movea.l    A0, A3
00002BA6  D1F9 FFFF AEB4           add.l      A0, [0xFFFFAEB4]
00002BAC  3F28 0236                move.w     -[A7], [A0 + 0x236]
00002BB0  4EBA F312                jsr        [PC - 0xCEE /* 00001EC4 */]
00002BB4  5C8F                     addq.l     A7, 6
00002BB6  601E                     bra        +0x20 /* 00002BD6 */
label00002BB8:
00002BB8  204B                     movea.l    A0, A3
00002BBA  D1F9 FFFF AEB4           add.l      A0, [0xFFFFAEB4]
00002BC0  3F28 0236                move.w     -[A7], [A0 + 0x236]
00002BC4  2F3C FFFF F116           move.l     -[A7], 0xFFFFF116
00002BCA  486E FDB8                pea.l      [A6 - 0x248]
00002BCE  4EAD 050A                jsr        [A5 + 0x50A /* export_157, CODE:7 @ 000020CA */]
00002BD2  4FEF 000A                lea.l      A7, [A7 + 0xA]
label00002BD6:
00002BD6  486E FDB8                pea.l      [A6 - 0x248]
00002BDA  3F06                     move.w     -[A7], D6
00002BDC  2F3C FFFF F11A           move.l     -[A7], 0xFFFFF11A
00002BE2  2F0C                     move.l     -[A7], A4
00002BE4  4EAD 050A                jsr        [A5 + 0x50A /* export_157, CODE:7 @ 000020CA */]
00002BE8  2E8C                     move.l     [A7], A4
00002BEA  4EAD 0482                jsr        [A5 + 0x482 /* export_140, CODE:7 @ 0000237C */]
00002BEE  4FEF 000E                lea.l      A7, [A7 + 0xE]
00002BF2  5247                     addq.w     D7, 1
00002BF4  49EC 0014                lea.l      A4, [A4 + 0x14]
label00002BF8:
00002BF8  0C47 0005                cmpi.w     D7, 0x5
00002BFC  6C0E                     bge        +0x10 /* 00002C0C */
00002BFE  2079 FFFF AEB4           movea.l    A0, [0xFFFFAEB4]
00002C04  BE68 0302                cmp.w      D7, [A0 + 0x302]
00002C08  6D00 FF70                blt        -0x8E /* 00002B7A */
label00002C0C:
00002C0C  3D7C 0026 FFF8           move.w     [A6 - 0x8], 0x26 /* '&' */
00002C12  3D7C 005C FFFC           move.w     [A6 - 0x4], 0x5C /* '\\' */
00002C18  3D7C 0196 FFFA           move.w     [A6 - 0x6], 0x196
00002C1E  3D7C 01EE FFFE           move.w     [A6 - 0x2], 0x1EE
00002C24  486E FFF8                pea.l      [A6 - 0x8]
00002C28  A8A3                     syscall    EraseRect
00002C2A  7E00                     moveq.l    D7, 0x00
00002C2C  49EE FEB8                lea.l      A4, [A6 - 0x148]
00002C30  7C00                     moveq.l    D6, 0x00
00002C32  601A                     bra        +0x1C /* 00002C4E */
label00002C34:
00002C34  3F3C 0198                move.w     -[A7], 0x198
00002C38  7030                     moveq.l    D0, 0x30
00002C3A  D046                     add.w      D0, D6
00002C3C  3F00                     move.w     -[A7], D0
00002C3E  A893                     syscall    MoveTo
00002C40  2F0C                     move.l     -[A7], A4
00002C42  A884                     syscall    DrawString
00002C44  5247                     addq.w     D7, 1
00002C46  49EC 0014                lea.l      A4, [A4 + 0x14]
00002C4A  0646 000A                addi.w     D6, 0xA /* '\n' */
label00002C4E:
00002C4E  0C47 0005                cmpi.w     D7, 0x5
00002C52  6C0C                     bge        +0xE /* 00002C60 */
00002C54  2079 FFFF AEB4           movea.l    A0, [0xFFFFAEB4]
00002C5A  BE68 0302                cmp.w      D7, [A0 + 0x302]
00002C5E  6DD4                     blt        -0x2A /* 00002C34 */
label00002C60:
00002C60  2079 FFFF AEB4           movea.l    A0, [0xFFFFAEB4]
00002C66  4A68 0302                tst.w      [A0 + 0x302]
00002C6A  6610                     bne        +0x12 /* 00002C7C */
00002C6C  2F3C 0030 0198           move.l     -[A7], 0x300198
00002C72  A893                     syscall    MoveTo
00002C74  2F3C FFFF F124           move.l     -[A7], 0xFFFFF124
00002C7A  A884                     syscall    DrawString
label00002C7C:
00002C7C  7E00                     moveq.l    D7, 0x00
00002C7E  49EE FEB8                lea.l      A4, [A6 - 0x148]
00002C82  6000 00C8                bra        +0xCA /* 00002D4C */
label00002C86:
00002C86  2079 FFFF AEB4           movea.l    A0, [0xFFFFAEB4]
00002C8C  3C28 0300                move.w     D6, [A0 + 0x300]
00002C90  DC47                     add.w      D6, D7
00002C92  BC68 0304                cmp.w      D6, [A0 + 0x304]
00002C96  6D12                     blt        +0x14 /* 00002CAA */
00002C98  2F3C FFFF F132           move.l     -[A7], 0xFFFFF132
00002C9E  2F0C                     move.l     -[A7], A4
00002CA0  4EAD 051A                jsr        [A5 + 0x51A /* export_159, CODE:7 @ 000021A6 */]
00002CA4  508F                     addq.l     A7, 8
00002CA6  6000 009E                bra        +0xA0 /* 00002D46 */
label00002CAA:
00002CAA  2079 FFFF AEB4           movea.l    A0, [0xFFFFAEB4]
00002CB0  2068 0232                movea.l    A0, [A0 + 0x232]
00002CB4  D0C6                     add.w      A0, D6
00002CB6  3A30 6000                move.w     D5, [A0 + D6.w]
00002CBA  3646                     movea.w    A3, D6
00002CBC  D7CB                     add.l      A3, A3
00002CBE  0C45 4F4C                cmpi.w     D5, 0x4F4C /* 'OL' */
00002CC2  6D20                     blt        +0x22 /* 00002CE4 */
00002CC4  0C45 4FB0                cmpi.w     D5, 0x4FB0
00002CC8  6C1A                     bge        +0x1C /* 00002CE4 */
00002CCA  486E FDB8                pea.l      [A6 - 0x248]
00002CCE  2079 FFFF AEB4           movea.l    A0, [0xFFFFAEB4]
00002CD4  224B                     movea.l    A1, A3
00002CD6  D3E8 0232                add.l      A1, [A0 + 0x232]
00002CDA  3F11                     move.w     -[A7], [A1]
00002CDC  4EBA F1E6                jsr        [PC - 0xE1A /* 00001EC4 */]
00002CE0  5C8F                     addq.l     A7, 6
00002CE2  6046                     bra        +0x48 /* 00002D2A */
label00002CE4:
00002CE4  0C45 4E20                cmpi.w     D5, 0x4E20 /* 'N ' */
00002CE8  6D20                     blt        +0x22 /* 00002D0A */
00002CEA  0C45 4EE8                cmpi.w     D5, 0x4EE8
00002CEE  6C1A                     bge        +0x1C /* 00002D0A */
00002CF0  486E FDB8                pea.l      [A6 - 0x248]
00002CF4  2079 FFFF AEB4           movea.l    A0, [0xFFFFAEB4]
00002CFA  224B                     movea.l    A1, A3
00002CFC  D3E8 0232                add.l      A1, [A0 + 0x232]
00002D00  3F11                     move.w     -[A7], [A1]
00002D02  4EBA F4DA                jsr        [PC - 0xB26 /* 000021DE */]
00002D06  5C8F                     addq.l     A7, 6
00002D08  6020                     bra        +0x22 /* 00002D2A */
label00002D0A:
00002D0A  2079 FFFF AEB4           movea.l    A0, [0xFFFFAEB4]
00002D10  224B                     movea.l    A1, A3
00002D12  D3E8 0232                add.l      A1, [A0 + 0x232]
00002D16  3F11                     move.w     -[A7], [A1]
00002D18  2F3C FFFF F134           move.l     -[A7], 0xFFFFF134
00002D1E  486E FDB8                pea.l      [A6 - 0x248]
00002D22  4EAD 050A                jsr        [A5 + 0x50A /* export_157, CODE:7 @ 000020CA */]
00002D26  4FEF 000A                lea.l      A7, [A7 + 0xA]
label00002D2A:
00002D2A  486E FDB8                pea.l      [A6 - 0x248]
00002D2E  3F06                     move.w     -[A7], D6
00002D30  2F3C FFFF F138           move.l     -[A7], 0xFFFFF138
00002D36  2F0C                     move.l     -[A7], A4
00002D38  4EAD 050A                jsr        [A5 + 0x50A /* export_157, CODE:7 @ 000020CA */]
00002D3C  2E8C                     move.l     [A7], A4
00002D3E  4EAD 0482                jsr        [A5 + 0x482 /* export_140, CODE:7 @ 0000237C */]
00002D42  4FEF 000E                lea.l      A7, [A7 + 0xE]
label00002D46:
00002D46  5247                     addq.w     D7, 1
00002D48  49EC 0014                lea.l      A4, [A4 + 0x14]
label00002D4C:
00002D4C  0C47 0005                cmpi.w     D7, 0x5
00002D50  6D00 FF34                blt        -0xCA /* 00002C86 */
00002D54  3D7C 0026 FFF8           move.w     [A6 - 0x8], 0x26 /* '&' */
00002D5A  3D7C 005C FFFC           move.w     [A6 - 0x4], 0x5C /* '\\' */
00002D60  3D7C 0132 FFFA           move.w     [A6 - 0x6], 0x132
00002D66  3D7C 018A FFFE           move.w     [A6 - 0x2], 0x18A
00002D6C  486E FFF8                pea.l      [A6 - 0x8]
00002D70  A8A3                     syscall    EraseRect
00002D72  7E00                     moveq.l    D7, 0x00
00002D74  49EE FEB8                lea.l      A4, [A6 - 0x148]
00002D78  7C00                     moveq.l    D6, 0x00
00002D7A  601A                     bra        +0x1C /* 00002D96 */
label00002D7C:
00002D7C  3F3C 0134                move.w     -[A7], 0x134
00002D80  7030                     moveq.l    D0, 0x30
00002D82  D046                     add.w      D0, D6
00002D84  3F00                     move.w     -[A7], D0
00002D86  A893                     syscall    MoveTo
00002D88  2F0C                     move.l     -[A7], A4
00002D8A  A884                     syscall    DrawString
00002D8C  5247                     addq.w     D7, 1
00002D8E  49EC 0014                lea.l      A4, [A4 + 0x14]
00002D92  0646 000A                addi.w     D6, 0xA /* '\n' */
label00002D96:
00002D96  0C47 0005                cmpi.w     D7, 0x5
00002D9A  6DE0                     blt        -0x1E /* 00002D7C */
00002D9C  4CDF 18E0                movem.l    D5,D6,D7,A3,A4, [A7]+
00002DA0  4E5E                     unlink     A6
00002DA2  4E75                     rts
export_103:
00002DA4  4E56 FFF8                link       A6, -0x0008
00002DA8  2F0C                     move.l     -[A7], A4
00002DAA  426E FFF8                clr.w      [A6 - 0x8]
00002DAE  3D7C 00B3 FFFC           move.w     [A6 - 0x4], 0xB3
00002DB4  4A79 FFFF 9222           tst.w      [0xFFFF9222]
00002DBA  6706                     beq        +0x8 /* 00002DC2 */
00002DBC  3D7C 00CD FFFC           move.w     [A6 - 0x4], 0xCD
label00002DC2:
00002DC2  3D7C 012C FFFA           move.w     [A6 - 0x6], 0x12C
00002DC8  3D7C 01F4 FFFE           move.w     [A6 - 0x2], 0x1F4
00002DCE  486E FFF8                pea.l      [A6 - 0x8]
00002DD2  A8A3                     syscall    EraseRect
00002DD4  2F3C 00CD 012C           move.l     -[A7], 0xCD012C
00002DDA  A893                     syscall    MoveTo
00002DDC  2F3C 00CD 01F4           move.l     -[A7], 0xCD01F4
00002DE2  A891                     syscall    LineTo
00002DE4  303C 03C2                move.w     D0, 0x3C2
00002DE8  C1F9 FFFF 923A           muls.w     D0, [0xFFFF923A]
00002DEE  2040                     movea.l    A0, D0
00002DF0  D1FC FFFF 9790           add.l      A0, 0xFFFF9790
00002DF6  3F10                     move.w     -[A7], [A0]
00002DF8  42A7                     clr.l      -[A7]
00002DFA  2F3C 005A 0000           move.l     -[A7], 0x5A0000 /* 'Z\0\0' */
00002E00  2F3C 013F 0012           move.l     -[A7], 0x13F0012
00002E06  3F39 FFFF 923A           move.w     -[A7], [0xFFFF923A]
00002E0C  4EAD 0252                jsr        [A5 + 0x252 /* export_70, CODE:2 @ 0000506A */]
00002E10  4297                     clr.l      [A7]
00002E12  A8D8                     syscall    NewRgn
00002E14  285F                     movea.l    A4, [A7]+
00002E16  2E8C                     move.l     [A7], A4
00002E18  A87A                     syscall    GetClip
00002E1A  426E FFF8                clr.w      [A6 - 0x8]
00002E1E  3D7C 0023 FFFC           move.w     [A6 - 0x4], 0x23 /* '#' */
00002E24  3D7C 0150 FFFA           move.w     [A6 - 0x6], 0x150
00002E2A  3D7C 01AC FFFE           move.w     [A6 - 0x2], 0x1AC
00002E30  486E FFF8                pea.l      [A6 - 0x8]
00002E34  A87B                     syscall    ClipRect
00002E36  4257                     clr.w      [A7]
00002E38  A887                     syscall    TextFont
00002E3A  3EBC 000C                move.w     [A7], 0xC
00002E3E  A88A                     syscall    TextSize
00002E40  2EBC 0012 0150           move.l     [A7], 0x120150
00002E46  A893                     syscall    MoveTo
00002E48  303C 03C2                move.w     D0, 0x3C2
00002E4C  C1F9 FFFF 923A           muls.w     D0, [0xFFFF923A]
00002E52  0680 FFFF 955E           addi.l     D0, 0xFFFF955E
00002E58  2F00                     move.l     -[A7], D0
00002E5A  A884                     syscall    DrawString
00002E5C  2F0C                     move.l     -[A7], A4
00002E5E  A879                     syscall    SetClip
00002E60  2F0C                     move.l     -[A7], A4
00002E62  A8D9                     syscall    DisposRgn/DisposeRgn
00002E64  2F3C 005D 0132           move.l     -[A7], 0x5D0132
00002E6A  A893                     syscall    MoveTo
00002E6C  2F3C 005D 018B           move.l     -[A7], 0x5D018B
00002E72  A891                     syscall    LineTo
00002E74  2F3C 0026 018B           move.l     -[A7], 0x26018B
00002E7A  A891                     syscall    LineTo
00002E7C  3D7C 0025 FFF8           move.w     [A6 - 0x8], 0x25 /* '%' */
00002E82  3D7C 0131 FFFA           move.w     [A6 - 0x6], 0x131
00002E88  3D7C 005D FFFC           move.w     [A6 - 0x4], 0x5D /* ']' */
00002E8E  3D7C 018B FFFE           move.w     [A6 - 0x2], 0x18B
00002E94  486E FFF8                pea.l      [A6 - 0x8]
00002E98  A8A1                     syscall    FrameRect
00002E9A  3D7C 0195 FFFA           move.w     [A6 - 0x6], 0x195
00002EA0  3D7C 01EF FFFE           move.w     [A6 - 0x2], 0x1EF
00002EA6  486E FFF8                pea.l      [A6 - 0x8]
00002EAA  A8A1                     syscall    FrameRect
00002EAC  2F3C 005D 0196           move.l     -[A7], 0x5D0196
00002EB2  A893                     syscall    MoveTo
00002EB4  2F3C 005D 01EF           move.l     -[A7], 0x5D01EF
00002EBA  A891                     syscall    LineTo
00002EBC  2F3C 0026 01EF           move.l     -[A7], 0x2601EF
00002EC2  A891                     syscall    LineTo
00002EC4  3F3C 0004                move.w     -[A7], 0x4
00002EC8  A887                     syscall    TextFont
00002ECA  3F3C 0009                move.w     -[A7], 0x9 /* '\t' */
00002ECE  A88A                     syscall    TextSize
00002ED0  2F3C 0022 015C           move.l     -[A7], 0x22015C
00002ED6  A893                     syscall    MoveTo
00002ED8  2F3C FFFF F142           move.l     -[A7], 0xFFFFF142
00002EDE  A884                     syscall    DrawString
00002EE0  2F3C 0022 019A           move.l     -[A7], 0x22019A
00002EE6  A893                     syscall    MoveTo
00002EE8  2F3C FFFF F14A           move.l     -[A7], 0xFFFFF14A
00002EEE  A884                     syscall    DrawString
00002EF0  2F3C 006A 0140           move.l     -[A7], 0x6A0140
00002EF6  A893                     syscall    MoveTo
00002EF8  2F3C FFFF F150           move.l     -[A7], 0xFFFFF150
00002EFE  A884                     syscall    DrawString
00002F00  2F3C 0074 0140           move.l     -[A7], 0x740140
00002F06  A893                     syscall    MoveTo
00002F08  2F3C FFFF F158           move.l     -[A7], 0xFFFFF158
00002F0E  A884                     syscall    DrawString
00002F10  2F3C 007E 0140           move.l     -[A7], 0x7E0140
00002F16  A893                     syscall    MoveTo
00002F18  2F3C FFFF F160           move.l     -[A7], 0xFFFFF160
00002F1E  A884                     syscall    DrawString
00002F20  2F3C 0088 0140           move.l     -[A7], 0x880140
00002F26  A893                     syscall    MoveTo
00002F28  2F3C FFFF F168           move.l     -[A7], 0xFFFFF168
00002F2E  A884                     syscall    DrawString
00002F30  2F3C 0092 0140           move.l     -[A7], 0x920140
00002F36  A893                     syscall    MoveTo
00002F38  2F3C FFFF F16E           move.l     -[A7], 0xFFFFF16E
00002F3E  A884                     syscall    DrawString
00002F40  2F3C 009C 0140           move.l     -[A7], 0x9C0140
00002F46  A893                     syscall    MoveTo
00002F48  2F3C FFFF F174           move.l     -[A7], 0xFFFFF174
00002F4E  A884                     syscall    DrawString
00002F50  2F3C 00A6 0140           move.l     -[A7], 0xA60140
00002F56  A893                     syscall    MoveTo
00002F58  2F3C FFFF F17A           move.l     -[A7], 0xFFFFF17A
00002F5E  A884                     syscall    DrawString
00002F60  2F3C 00B0 0140           move.l     -[A7], 0xB00140
00002F66  A893                     syscall    MoveTo
00002F68  2F3C FFFF F182           move.l     -[A7], 0xFFFFF182
00002F6E  A884                     syscall    DrawString
00002F70  2F3C 006A 0190           move.l     -[A7], 0x6A0190
00002F76  A893                     syscall    MoveTo
00002F78  2F3C FFFF F18A           move.l     -[A7], 0xFFFFF18A
00002F7E  A884                     syscall    DrawString
00002F80  2F3C 0074 0190           move.l     -[A7], 0x740190
00002F86  A893                     syscall    MoveTo
00002F88  2F3C FFFF F18E           move.l     -[A7], 0xFFFFF18E
00002F8E  A884                     syscall    DrawString
00002F90  2F3C 007E 0190           move.l     -[A7], 0x7E0190
00002F96  A893                     syscall    MoveTo
00002F98  2F3C FFFF F192           move.l     -[A7], 0xFFFFF192
00002F9E  A884                     syscall    DrawString
00002FA0  2F3C 0088 0190           move.l     -[A7], 0x880190
00002FA6  A893                     syscall    MoveTo
00002FA8  2F3C FFFF F19A           move.l     -[A7], 0xFFFFF19A
00002FAE  A884                     syscall    DrawString
00002FB0  2F3C 0092 0190           move.l     -[A7], 0x920190
00002FB6  A893                     syscall    MoveTo
00002FB8  2F3C FFFF F1A2           move.l     -[A7], 0xFFFFF1A2
00002FBE  A884                     syscall    DrawString
00002FC0  2F3C 009C 0190           move.l     -[A7], 0x9C0190
00002FC6  A893                     syscall    MoveTo
00002FC8  2F3C FFFF F1AE           move.l     -[A7], 0xFFFFF1AE
00002FCE  A884                     syscall    DrawString
00002FD0  2F3C 00A6 0190           move.l     -[A7], 0xA60190
00002FD6  A893                     syscall    MoveTo
00002FD8  2F3C FFFF F1B6           move.l     -[A7], 0xFFFFF1B6
00002FDE  A884                     syscall    DrawString
00002FE0  2F3C 00B0 0190           move.l     -[A7], 0xB00190
00002FE6  A893                     syscall    MoveTo
00002FE8  2F3C FFFF F1C0           move.l     -[A7], 0xFFFFF1C0
00002FEE  A884                     syscall    DrawString
00002FF0  4A79 FFFF 9222           tst.w      [0xFFFF9222]
00002FF6  672A                     beq        +0x2C /* 00003022 */
00002FF8  4279 FFFF 9222           clr.w      [0xFFFF9222]
00002FFE  4EBA EE98                jsr        [PC - 0x1168 /* 00001E98 */]
00003002  2F39 FFFF 9068           move.l     -[A7], [0xFFFF9068]
00003008  A957                     syscall    ShowControl
0000300A  2F39 FFFF 906C           move.l     -[A7], [0xFFFF906C]
00003010  A957                     syscall    ShowControl
00003012  2F39 FFFF 9070           move.l     -[A7], [0xFFFF9070]
00003018  A957                     syscall    ShowControl
0000301A  2F39 FFFF 9074           move.l     -[A7], [0xFFFF9074]
00003020  A957                     syscall    ShowControl
label00003022:
00003022  285F                     movea.l    A4, [A7]+
00003024  4E5E                     unlink     A6
00003026  4E75                     rts
export_105:
00003028  4E56 FEF0                link       A6, -0x0110
0000302C  48E7 0108                movem.l    -[A7], D7,A4
00003030  42A7                     clr.l      -[A7]
00003032  3F3C 03EF                move.w     -[A7], 0x3EF
00003036  42A7                     clr.l      -[A7]
00003038  4878 FFFF                push.l     0xFFFF
0000303C  A97C                     syscall    GetNewDialog
0000303E  285F                     movea.l    A4, [A7]+
00003040  3F3C 0003                move.w     -[A7], 0x3
00003044  2F0C                     move.l     -[A7], A4
00003046  4EAD 0242                jsr        [A5 + 0x242 /* export_68, CODE:2 @ 00004F96 */]
0000304A  2E8C                     move.l     [A7], A4
0000304C  4267                     clr.w      -[A7]
0000304E  2F3C FFFF F5EC           move.l     -[A7], 0xFFFFF5EC
00003054  4EBA 0142                jsr        [PC + 0x142 /* 00003198 */]
00003058  2E8C                     move.l     [A7], A4
0000305A  3F3C 0001                move.w     -[A7], 0x1
0000305E  2F3C FFFF F5F8           move.l     -[A7], 0xFFFFF5F8
00003064  4EBA 0132                jsr        [PC + 0x132 /* 00003198 */]
00003068  2E8C                     move.l     [A7], A4
0000306A  3F3C 0002                move.w     -[A7], 0x2
0000306E  2F3C FFFF F600           move.l     -[A7], 0xFFFFF600
00003074  4EBA 0122                jsr        [PC + 0x122 /* 00003198 */]
00003078  2E8C                     move.l     [A7], A4
0000307A  3F3C 0003                move.w     -[A7], 0x3
0000307E  2F3C FFFF F606           move.l     -[A7], 0xFFFFF606
00003084  4EBA 0112                jsr        [PC + 0x112 /* 00003198 */]
00003088  7E00                     moveq.l    D7, 0x00
0000308A  2E8C                     move.l     [A7], A4
0000308C  3F3C 0004                move.w     -[A7], 0x4
00003090  486E FFFC                pea.l      [A6 - 0x4]
00003094  486E FFF8                pea.l      [A6 - 0x8]
00003098  486E FFF0                pea.l      [A6 - 0x10]
0000309C  A98D                     syscall    GetDialogItem/GetDItem
0000309E  2EAE FFF8                move.l     [A7], [A6 - 0x8]
000030A2  2007                     move.l     D0, D7
000030A4  48C0                     ext.l      D0
000030A6  E188                     lsl        D0, 8
000030A8  0680 FFFF F1DC           addi.l     D0, 0xFFFFF1DC
000030AE  2F00                     move.l     -[A7], D0
000030B0  A98F                     syscall    SetDialogItemText/SetIText
000030B2  2E8C                     move.l     [A7], A4
000030B4  4878 0006                push.l     0x6
000030B8  3F3C 7FFF                move.w     -[A7], 0x7FFF
000030BC  A97E                     syscall    SelectDialogItemText/SelIText
000030BE  2007                     move.l     D0, D7
000030C0  48C0                     ext.l      D0
000030C2  E588                     lsl        D0, 2
000030C4  2040                     movea.l    A0, D0
000030C6  D1FC FFFF F5DC           add.l      A0, 0xFFFFF5DC
000030CC  2E90                     move.l     [A7], [A0]
000030CE  3F3C 0001                move.w     -[A7], 0x1
000030D2  A963                     syscall    SetControlValue/SetCtlValue
000030D4  4FEF 000E                lea.l      A7, [A7 + 0xE]
label000030D8:
000030D8  42A7                     clr.l      -[A7]
000030DA  486E FFFE                pea.l      [A6 - 0x2]
000030DE  A991                     syscall    ModalDialog
000030E0  0C6E 0006 FFFE           cmpi.w     [A6 - 0x2], 0x6
000030E6  6F44                     ble        +0x46 /* 0000312C */
000030E8  2007                     move.l     D0, D7
000030EA  48C0                     ext.l      D0
000030EC  E588                     lsl        D0, 2
000030EE  2040                     movea.l    A0, D0
000030F0  D1FC FFFF F5DC           add.l      A0, 0xFFFFF5DC
000030F6  2F10                     move.l     -[A7], [A0]
000030F8  4267                     clr.w      -[A7]
000030FA  A963                     syscall    SetControlValue/SetCtlValue
000030FC  7EF9                     moveq.l    D7, 0xFFFFFFF9
000030FE  DE6E FFFE                add.w      D7, [A6 - 0x2]
00003102  2007                     move.l     D0, D7
00003104  48C0                     ext.l      D0
00003106  E588                     lsl        D0, 2
00003108  2040                     movea.l    A0, D0
0000310A  D1FC FFFF F5DC           add.l      A0, 0xFFFFF5DC
00003110  2F10                     move.l     -[A7], [A0]
00003112  3F3C 0001                move.w     -[A7], 0x1
00003116  A963                     syscall    SetControlValue/SetCtlValue
00003118  2F2E FFF8                move.l     -[A7], [A6 - 0x8]
0000311C  2007                     move.l     D0, D7
0000311E  48C0                     ext.l      D0
00003120  E188                     lsl        D0, 8
00003122  0680 FFFF F1DC           addi.l     D0, 0xFFFFF1DC
00003128  2F00                     move.l     -[A7], D0
0000312A  A98F                     syscall    SetDialogItemText/SetIText
label0000312C:
0000312C  0C6E 0001 FFFE           cmpi.w     [A6 - 0x2], 0x1
00003132  66A4                     bne        -0x5A /* 000030D8 */
00003134  2F0C                     move.l     -[A7], A4
00003136  3F3C 0006                move.w     -[A7], 0x6
0000313A  486E FFFC                pea.l      [A6 - 0x4]
0000313E  486E FFF8                pea.l      [A6 - 0x8]
00003142  486E FFF0                pea.l      [A6 - 0x10]
00003146  A98D                     syscall    GetDialogItem/GetDItem
00003148  2F2E FFF8                move.l     -[A7], [A6 - 0x8]
0000314C  486E FEF0                pea.l      [A6 - 0x110]
00003150  A990                     syscall    GetDialogItemText/GetIText
00003152  2F0C                     move.l     -[A7], A4
00003154  A983                     syscall    DisposeDialog
00003156  3007                     move.w     D0, D7
00003158  670E                     beq        +0x10 /* 00003168 */
0000315A  6B34                     bmi        +0x36 /* 00003190 */
0000315C  5740                     subq.w     D0, 3
0000315E  672C                     beq        +0x2E /* 0000318C */
00003160  6A2E                     bpl        +0x30 /* 00003190 */
00003162  5240                     addq.w     D0, 1
00003164  6A1A                     bpl        +0x1C /* 00003180 */
00003166  600C                     bra        +0xE /* 00003174 */
label00003168:
00003168  486E FEF0                pea.l      [A6 - 0x110]
0000316C  4EBA 064E                jsr        [PC + 0x64E /* 000037BC */]
00003170  588F                     addq.l     A7, 4
00003172  601C                     bra        +0x1E /* 00003190 */
label00003174:
00003174  486E FEF0                pea.l      [A6 - 0x110]
00003178  4EBA 0B0C                jsr        [PC + 0xB0C /* 00003C86 */]
0000317C  588F                     addq.l     A7, 4
0000317E  6010                     bra        +0x12 /* 00003190 */
label00003180:
00003180  486E FEF0                pea.l      [A6 - 0x110]
00003184  4EBA 0EF6                jsr        [PC + 0xEF6 /* 0000407C */]
00003188  588F                     addq.l     A7, 4
0000318A  6004                     bra        +0x6 /* 00003190 */
label0000318C:
0000318C  4EBA 129E                jsr        [PC + 0x129E /* 0000442C */]
label00003190:
00003190  4CDF 1080                movem.l    D7,A4, [A7]+
00003194  4E5E                     unlink     A6
00003196  4E75                     rts
fn00003198:
00003198  4E56 FFF8                link       A6, -0x0008
0000319C  48E7 0108                movem.l    -[A7], D7,A4
000031A0  3E2E 000C                move.w     D7, [A6 + 0xC]
000031A4  2007                     move.l     D0, D7
000031A6  48C0                     ext.l      D0
000031A8  E188                     lsl        D0, 8
000031AA  0680 FFFF F1DC           addi.l     D0, 0xFFFFF1DC
000031B0  2F00                     move.l     -[A7], D0
000031B2  3F3C 03E8                move.w     -[A7], 0x3E8
000031B6  7001                     moveq.l    D0, 0x01
000031B8  D047                     add.w      D0, D7
000031BA  3F00                     move.w     -[A7], D0
000031BC  4EAD 046A                jsr        [A5 + 0x46A /* export_137, CODE:7 @ 00002A3E */]
000031C0  7014                     moveq.l    D0, 0x14
000031C2  C1C7                     muls.w     D0, D7
000031C4  0640 001E                addi.w     D0, 0x1E
000031C8  3D40 FFF8                move.w     [A6 - 0x8], D0
000031CC  3D7C 000F FFFA           move.w     [A6 - 0x6], 0xF
000031D2  7010                     moveq.l    D0, 0x10
000031D4  D06E FFF8                add.w      D0, [A6 - 0x8]
000031D8  3D40 FFFC                move.w     [A6 - 0x4], D0
000031DC  3D7C 0064 FFFE           move.w     [A6 - 0x2], 0x64 /* 'd' */
000031E2  2007                     move.l     D0, D7
000031E4  48C0                     ext.l      D0
000031E6  E588                     lsl        D0, 2
000031E8  0680 FFFF F5DC           addi.l     D0, 0xFFFFF5DC
000031EE  2840                     movea.l    A4, D0
000031F0  42A7                     clr.l      -[A7]
000031F2  2F2E 000E                move.l     -[A7], [A6 + 0xE]
000031F6  486E FFF8                pea.l      [A6 - 0x8]
000031FA  2F2E 0008                move.l     -[A7], [A6 + 0x8]
000031FE  4878 0100                push.l     0x100
00003202  2F3C 0001 0000           move.l     -[A7], 0x10000
00003208  3F3C 0002                move.w     -[A7], 0x2
0000320C  42A7                     clr.l      -[A7]
0000320E  A954                     syscall    NewControl
00003210  289F                     move.l     [A4], [A7]+
00003212  2F2E 000E                move.l     -[A7], [A6 + 0xE]
00003216  7007                     moveq.l    D0, 0x07
00003218  D047                     add.w      D0, D7
0000321A  3F00                     move.w     -[A7], D0
0000321C  3F3C 0006                move.w     -[A7], 0x6
00003220  2F14                     move.l     -[A7], [A4]
00003222  486E FFF8                pea.l      [A6 - 0x8]
00003226  A98E                     syscall    SetDialogItem/SetDItem
00003228  4CDF 1080                movem.l    D7,A4, [A7]+
0000322C  4E5E                     unlink     A6
0000322E  4E75                     rts
fn00003230:
00003230  48E7 0338                movem.l    -[A7], D6,D7,A2,A3,A4
00003234  7E00                     moveq.l    D7, 0x00
00003236  287C FFFF 9442           movea.l    A4, 0xFFFF9442
0000323C  604E                     bra        +0x50 /* 0000328C */
label0000323E:
0000323E  7C00                     moveq.l    D6, 0x00
00003240  47EC 0324                lea.l      A3, [A4 + 0x324]
00003244  2006                     move.l     D0, D6
00003246  48C0                     ext.l      D0
00003248  E588                     lsl        D0, 2
0000324A  2440                     movea.l    A2, D0
0000324C  6020                     bra        +0x22 /* 0000326E */
label0000324E:
0000324E  204B                     movea.l    A0, A3
00003250  D1CA                     add.l      A0, A2
00003252  4A90                     tst.l      [A0]
00003254  6714                     beq        +0x16 /* 0000326A */
00003256  204B                     movea.l    A0, A3
00003258  D1CA                     add.l      A0, A2
0000325A  2050                     movea.l    A0, [A0]
0000325C  A01F                     syscall    DisposPtr/DisposePtr
0000325E  4A78 0220                tst.w      [0x00000220 /* MemErr */]
00003262  6706                     beq        +0x8 /* 0000326A */
00003264  3F3C 0001                move.w     -[A7], 0x1
00003268  A9C8                     syscall    SysBeep
label0000326A:
0000326A  5246                     addq.w     D6, 1
0000326C  588A                     addq.l     A2, 4
label0000326E:
0000326E  0C46 000A                cmpi.w     D6, 0xA /* '\n' */
00003272  6DDA                     blt        -0x24 /* 0000324E */
00003274  206C 0232                movea.l    A0, [A4 + 0x232]
00003278  A01F                     syscall    DisposPtr/DisposePtr
0000327A  4A78 0220                tst.w      [0x00000220 /* MemErr */]
0000327E  6706                     beq        +0x8 /* 00003286 */
00003280  3F3C 0001                move.w     -[A7], 0x1
00003284  A9C8                     syscall    SysBeep
label00003286:
00003286  5247                     addq.w     D7, 1
00003288  49EC 03C2                lea.l      A4, [A4 + 0x3C2]
label0000328C:
0000328C  BE79 FFFF 9226           cmp.w      D7, [0xFFFF9226]
00003292  6DAA                     blt        -0x54 /* 0000323E */
00003294  4279 FFFF 9226           clr.w      [0xFFFF9226]
0000329A  4CDF 1CC0                movem.l    D6,D7,A2,A3,A4, [A7]+
0000329E  4E75                     rts
fn000032A0:
000032A0  4E56 0000                link       A6, 0
000032A4  48E7 0108                movem.l    -[A7], D7,A4
000032A8  3F39 FFFF F1CE           move.w     -[A7], [0xFFFFF1CE]
000032AE  2F3C FFFF F60E           move.l     -[A7], 0xFFFFF60E
000032B4  2F2E 0008                move.l     -[A7], [A6 + 0x8]
000032B8  4EAD 04FA                jsr        [A5 + 0x4FA /* export_155, CODE:7 @ 00000F42 */]
000032BC  7E00                     moveq.l    D7, 0x00
000032BE  287C FFFF F1D0           movea.l    A4, 0xFFFFF1D0
000032C4  4FEF 000A                lea.l      A7, [A7 + 0xA]
000032C8  6006                     bra        +0x8 /* 000032D0 */
label000032CA:
000032CA  4254                     clr.w      [A4]
000032CC  5247                     addq.w     D7, 1
000032CE  548C                     addq.l     A4, 2
label000032D0:
000032D0  BE79 FFFF 9226           cmp.w      D7, [0xFFFF9226]
000032D6  6DF2                     blt        -0xC /* 000032CA */
000032D8  4CDF 1080                movem.l    D7,A4, [A7]+
000032DC  4E5E                     unlink     A6
000032DE  4E75                     rts
fn000032E0:
000032E0  4E56 0000                link       A6, 0
000032E4  48E7 1F38                movem.l    -[A7], D3,D4,D5,D6,D7,A2,A3,A4
000032E8  286E 0008                movea.l    A4, [A6 + 0x8]
000032EC  70FF                     moveq.l    D0, 0xFFFFFFFF
000032EE  D079 FFFF F1CC           add.w      D0, [0xFFFFF1CC]
000032F4  3F00                     move.w     -[A7], D0
000032F6  2F3C FFFF F624           move.l     -[A7], 0xFFFFF624
000032FC  2F0C                     move.l     -[A7], A4
000032FE  4EAD 04FA                jsr        [A5 + 0x4FA /* export_155, CODE:7 @ 00000F42 */]
00003302  7E00                     moveq.l    D7, 0x00
00003304  4FEF 000A                lea.l      A7, [A7 + 0xA]
00003308  6000 00AC                bra        +0xAE /* 000033B6 */
label0000330C:
0000330C  7C00                     moveq.l    D6, 0x00
0000330E  7A00                     moveq.l    D5, 0x00
00003310  267C FFFF 9442           movea.l    A3, 0xFFFF9442
00003316  6030                     bra        +0x32 /* 00003348 */
label00003318:
00003318  282B 0118                move.l     D4, [A3 + 0x118]
0000331C  70FF                     moveq.l    D0, 0xFFFFFFFF
0000331E  B084                     cmp.l      D0, D4
00003320  6604                     bne        +0x6 /* 00003326 */
00003322  3C05                     move.w     D6, D5
00003324  601C                     bra        +0x1E /* 00003342 */
label00003326:
00003326  303C 03C2                move.w     D0, 0x3C2
0000332A  C1C6                     muls.w     D0, D6
0000332C  2040                     movea.l    A0, D0
0000332E  D1FC FFFF 955A           add.l      A0, 0xFFFF955A
00003334  2610                     move.l     D3, [A0]
00003336  B684                     cmp.l      D3, D4
00003338  6C08                     bge        +0xA /* 00003342 */
0000333A  70FF                     moveq.l    D0, 0xFFFFFFFF
0000333C  B083                     cmp.l      D0, D3
0000333E  6702                     beq        +0x4 /* 00003342 */
00003340  3C05                     move.w     D6, D5
label00003342:
00003342  5245                     addq.w     D5, 1
00003344  47EB 03C2                lea.l      A3, [A3 + 0x3C2]
label00003348:
00003348  BA79 FFFF 9226           cmp.w      D5, [0xFFFF9226]
0000334E  6DC8                     blt        -0x36 /* 00003318 */
00003350  303C 03C2                move.w     D0, 0x3C2
00003354  C1C6                     muls.w     D0, D6
00003356  0680 FFFF 955F           addi.l     D0, 0xFFFF955F
0000335C  2F00                     move.l     -[A7], D0
0000335E  2F3C FFFF F636           move.l     -[A7], 0xFFFFF636
00003364  2F0C                     move.l     -[A7], A4
00003366  4EAD 04FA                jsr        [A5 + 0x4FA /* export_155, CODE:7 @ 00000F42 */]
0000336A  303C 03C2                move.w     D0, 0x3C2
0000336E  C1C6                     muls.w     D0, D6
00003370  0680 FFFF 955A           addi.l     D0, 0xFFFF955A
00003376  2440                     movea.l    A2, D0
00003378  70FF                     moveq.l    D0, 0xFFFFFFFF
0000337A  B092                     cmp.l      D0, [A2]
0000337C  4FEF 000C                lea.l      A7, [A7 + 0xC]
00003380  661C                     bne        +0x1E /* 0000339E */
00003382  2F3C FFFF F642           move.l     -[A7], 0xFFFFF642
00003388  2F0C                     move.l     -[A7], A4
0000338A  4EAD 04FA                jsr        [A5 + 0x4FA /* export_155, CODE:7 @ 00000F42 */]
0000338E  3046                     movea.w    A0, D6
00003390  D0C6                     add.w      A0, D6
00003392  D1FC FFFF F1D0           add.l      A0, 0xFFFFF1D0
00003398  5250                     addq.w     [A0], 1
0000339A  508F                     addq.l     A7, 8
0000339C  6012                     bra        +0x14 /* 000033B0 */
label0000339E:
0000339E  2F12                     move.l     -[A7], [A2]
000033A0  2F3C FFFF F64A           move.l     -[A7], 0xFFFFF64A
000033A6  2F0C                     move.l     -[A7], A4
000033A8  4EAD 04FA                jsr        [A5 + 0x4FA /* export_155, CODE:7 @ 00000F42 */]
000033AC  4FEF 000C                lea.l      A7, [A7 + 0xC]
label000033B0:
000033B0  70FE                     moveq.l    D0, 0xFFFFFFFE
000033B2  2480                     move.l     [A2], D0
000033B4  5247                     addq.w     D7, 1
label000033B6:
000033B6  BE79 FFFF 9226           cmp.w      D7, [0xFFFF9226]
000033BC  6D00 FF4E                blt        -0xB0 /* 0000330C */
000033C0  2F0C                     move.l     -[A7], A4
000033C2  4EAD 04F2                jsr        [A5 + 0x4F2 /* export_154, CODE:7 @ 00001076 */]
000033C6  4CEE 1CF8 FFE0           movem.l    D3,D4,D5,D6,D7,A2,A3,A4, [A6 - 0x20]
000033CC  4E5E                     unlink     A6
000033CE  4E75                     rts
fn000033D0:
000033D0  4E56 0000                link       A6, 0
000033D4  48E7 0138                movem.l    -[A7], D7,A2,A3,A4
000033D8  286E 0008                movea.l    A4, [A6 + 0x8]
000033DC  3F39 FFFF F1CE           move.w     -[A7], [0xFFFFF1CE]
000033E2  2F3C FFFF F658           move.l     -[A7], 0xFFFFF658
000033E8  2F0C                     move.l     -[A7], A4
000033EA  4EAD 04FA                jsr        [A5 + 0x4FA /* export_155, CODE:7 @ 00000F42 */]
000033EE  2EBC FFFF F66C           move.l     [A7], 0xFFFFF66C
000033F4  2F3C FFFF F672           move.l     -[A7], 0xFFFFF672
000033FA  2F3C FFFF F678           move.l     -[A7], 0xFFFFF678
00003400  2F0C                     move.l     -[A7], A4
00003402  4EAD 04FA                jsr        [A5 + 0x4FA /* export_155, CODE:7 @ 00000F42 */]
00003406  7E00                     moveq.l    D7, 0x00
00003408  267C FFFF 9442           movea.l    A3, 0xFFFF9442
0000340E  247C FFFF F1D0           movea.l    A2, 0xFFFFF1D0
00003414  4FEF 0016                lea.l      A7, [A7 + 0x16]
00003418  601E                     bra        +0x20 /* 00003438 */
label0000341A:
0000341A  3F12                     move.w     -[A7], [A2]
0000341C  486B 011D                pea.l      [A3 + 0x11D]
00003420  2F3C FFFF F684           move.l     -[A7], 0xFFFFF684
00003426  2F0C                     move.l     -[A7], A4
00003428  4EAD 04FA                jsr        [A5 + 0x4FA /* export_155, CODE:7 @ 00000F42 */]
0000342C  4FEF 000E                lea.l      A7, [A7 + 0xE]
00003430  5247                     addq.w     D7, 1
00003432  47EB 03C2                lea.l      A3, [A3 + 0x3C2]
00003436  548A                     addq.l     A2, 2
label00003438:
00003438  BE79 FFFF 9226           cmp.w      D7, [0xFFFF9226]
0000343E  6DDA                     blt        -0x24 /* 0000341A */
00003440  2F3C FFFF F68E           move.l     -[A7], 0xFFFFF68E
00003446  2F0C                     move.l     -[A7], A4
00003448  4EAD 04FA                jsr        [A5 + 0x4FA /* export_155, CODE:7 @ 00000F42 */]
0000344C  2E8C                     move.l     [A7], A4
0000344E  4EAD 04F2                jsr        [A5 + 0x4F2 /* export_154, CODE:7 @ 00001076 */]
00003452  4CEE 1C80 FFF0           movem.l    D7,A2,A3,A4, [A6 - 0x10]
00003458  4E5E                     unlink     A6
0000345A  4E75                     rts
fn0000345C:
0000345C  4E56 FFF8                link       A6, -0x0008
00003460  2F2E 0008                move.l     -[A7], [A6 + 0x8]
00003464  4EAD 0482                jsr        [A5 + 0x482 /* export_140, CODE:7 @ 0000237C */]
00003468  2EB9 FFFF 7D56           move.l     [A7], [0xFFFF7D56]
0000346E  2F2E 0008                move.l     -[A7], [A6 + 0x8]
00003472  A91A                     syscall    SetWTitle
00003474  4EAD 02A2                jsr        [A5 + 0x2A2 /* export_80, CODE:2 @ 00001832 */]
00003478  4EAD 02AA                jsr        [A5 + 0x2AA /* export_81, CODE:2 @ 000018D8 */]
0000347C  426E FFF8                clr.w      [A6 - 0x8]
00003480  3D7C 00DC FFFC           move.w     [A6 - 0x4], 0xDC
00003486  3D7C 012E FFFA           move.w     [A6 - 0x6], 0x12E
0000348C  3D7C 01F4 FFFE           move.w     [A6 - 0x2], 0x1F4
00003492  486E FFF8                pea.l      [A6 - 0x8]
00003496  A928                     syscall    InvalRect
00003498  4EAD 0162                jsr        [A5 + 0x162 /* export_40, CODE:5 @ 00003B68 */]
0000349C  4279 FFFF 922C           clr.w      [0xFFFF922C]
000034A2  4E5E                     unlink     A6
000034A4  4E75                     rts
fn000034A6:
000034A6  4E56 FDB0                link       A6, -0x0250
000034AA  48E7 0738                movem.l    -[A7], D5,D6,D7,A2,A3,A4
000034AE  286E 0008                movea.l    A4, [A6 + 0x8]
000034B2  33FC 0001 FFFF 922E      move.w     [0xFFFF922E], 0x1
000034BA  4279 FFFF F1CE           clr.w      [0xFFFFF1CE]
000034C0  4267                     clr.w      -[A7]
000034C2  A938                     syscall    HiliteMenu
000034C4  1014                     move.b     D0, [A4]
000034C6  4880                     ext.w      D0
000034C8  3F00                     move.w     -[A7], D0
000034CA  4EAD 04CA                jsr        [A5 + 0x4CA /* export_149, CODE:7 @ 000008D6 */]
000034CE  0C40 0053                cmpi.w     D0, 0x53 /* 'S' */
000034D2  548F                     addq.l     A7, 2
000034D4  6668                     bne        +0x6A /* 0000353E */
000034D6  102C 0001                move.b     D0, [A4 + 0x1]
000034DA  4880                     ext.w      D0
000034DC  3F00                     move.w     -[A7], D0
000034DE  4EAD 04CA                jsr        [A5 + 0x4CA /* export_149, CODE:7 @ 000008D6 */]
000034E2  0C40 0041                cmpi.w     D0, 0x41 /* 'A' */
000034E6  548F                     addq.l     A7, 2
000034E8  6654                     bne        +0x56 /* 0000353E */
000034EA  102C 0002                move.b     D0, [A4 + 0x2]
000034EE  4880                     ext.w      D0
000034F0  3F00                     move.w     -[A7], D0
000034F2  4EAD 04CA                jsr        [A5 + 0x4CA /* export_149, CODE:7 @ 000008D6 */]
000034F6  0C40 0056                cmpi.w     D0, 0x56 /* 'V' */
000034FA  548F                     addq.l     A7, 2
000034FC  6640                     bne        +0x42 /* 0000353E */
000034FE  102C 0003                move.b     D0, [A4 + 0x3]
00003502  4880                     ext.w      D0
00003504  3F00                     move.w     -[A7], D0
00003506  4EAD 04CA                jsr        [A5 + 0x4CA /* export_149, CODE:7 @ 000008D6 */]
0000350A  0C40 0045                cmpi.w     D0, 0x45 /* 'E' */
0000350E  548F                     addq.l     A7, 2
00003510  662C                     bne        +0x2E /* 0000353E */
00003512  588C                     addq.l     A4, 4
00003514  6002                     bra        +0x4 /* 00003518 */
label00003516:
00003516  528C                     addq.l     A4, 1
label00003518:
00003518  0C14 0020                cmpi.b     [A4], 0x20 /* ' ' */
0000351C  67F8                     beq        -0x6 /* 00003516 */
0000351E  7C00                     moveq.l    D6, 0x00
00003520  600C                     bra        +0xE /* 0000352E */
label00003522:
00003522  3006                     move.w     D0, D6
00003524  5246                     addq.w     D6, 1
00003526  204E                     movea.l    A0, A6
00003528  D0C0                     add.w      A0, D0
0000352A  115C FF00                move.b     [A0 - 0x100], [A4]+
label0000352E:
0000352E  0C14 000D                cmpi.b     [A4], 0xD /* '\r' */
00003532  66EE                     bne        -0x10 /* 00003522 */
00003534  204E                     movea.l    A0, A6
00003536  D0C6                     add.w      A0, D6
00003538  4228 FF00                clr.b      [A0 - 0x100]
0000353C  6008                     bra        +0xA /* 00003546 */
label0000353E:
0000353E  422E FF00                clr.b      [A6 - 0x100]
00003542  6002                     bra        +0x4 /* 00003546 */
label00003544:
00003544  528C                     addq.l     A4, 1
label00003546:
00003546  0C14 000D                cmpi.b     [A4], 0xD /* '\r' */
0000354A  67F8                     beq        -0x6 /* 00003544 */
0000354C  4A2E FF00                tst.b      [A6 - 0x100]
00003550  673A                     beq        +0x3C /* 0000358C */
00003552  4267                     clr.w      -[A7]
00003554  42A7                     clr.l      -[A7]
00003556  3F2E 000C                move.w     -[A7], [A6 + 0xC]
0000355A  4EAD 03F2                jsr        [A5 + 0x3F2 /* export_122, CODE:7 @ 00002810 */]
0000355E  2F3C FFFF F692           move.l     -[A7], 0xFFFFF692
00003564  486E FF00                pea.l      [A6 - 0x100]
00003568  4EAD 04E2                jsr        [A5 + 0x4E2 /* export_152, CODE:7 @ 00000924 */]
0000356C  2640                     movea.l    A3, D0
0000356E  200B                     move.l     D0, A3
00003570  4FEF 000A                lea.l      A7, [A7 + 0xA]
00003574  6600 0200                bne        +0x202 /* 00003776 */
00003578  486E FF00                pea.l      [A6 - 0x100]
0000357C  2F3C FFFF F694           move.l     -[A7], 0xFFFFF694
00003582  4EAD 0222                jsr        [A5 + 0x222 /* export_64, CODE:2 @ 00004DCE */]
00003586  508F                     addq.l     A7, 8
00003588  6000 01EC                bra        +0x1EE /* 00003776 */
label0000358C:
0000358C  97CB                     sub.l      A3, A3
0000358E  6000 01E6                bra        +0x1E8 /* 00003776 */
label00003592:
00003592  7C00                     moveq.l    D6, 0x00
00003594  600C                     bra        +0xE /* 000035A2 */
label00003596:
00003596  3006                     move.w     D0, D6
00003598  5246                     addq.w     D6, 1
0000359A  204E                     movea.l    A0, A6
0000359C  D0C0                     add.w      A0, D0
0000359E  115C FE00                move.b     [A0 - 0x200], [A4]+
label000035A2:
000035A2  0C14 000D                cmpi.b     [A4], 0xD /* '\r' */
000035A6  66EE                     bne        -0x10 /* 00003596 */
000035A8  204E                     movea.l    A0, A6
000035AA  D0C6                     add.w      A0, D6
000035AC  4228 FE00                clr.b      [A0 - 0x200]
000035B0  528C                     addq.l     A4, 1
000035B2  7000                     moveq.l    D0, 0x00
000035B4  102E FE00                move.b     D0, [A6 - 0x200]
000035B8  2040                     movea.l    A0, D0
000035BA  D1FC FFFF FC40           add.l      A0, 0xFFFFFC40
000035C0  0810 0004                btst.b     [A0], 0x4
000035C4  672E                     beq        +0x30 /* 000035F4 */
000035C6  486E FE00                pea.l      [A6 - 0x200]
000035CA  4EAD 04B2                jsr        [A5 + 0x4B2 /* export_146, CODE:7 @ 00000518 */]
000035CE  3A00                     move.w     D5, D0
000035D0  7C00                     moveq.l    D6, 0x00
000035D2  588F                     addq.l     A7, 4
000035D4  600C                     bra        +0xE /* 000035E2 */
label000035D6:
000035D6  3006                     move.w     D0, D6
000035D8  5246                     addq.w     D6, 1
000035DA  204E                     movea.l    A0, A6
000035DC  D0C0                     add.w      A0, D0
000035DE  115C FE00                move.b     [A0 - 0x200], [A4]+
label000035E2:
000035E2  0C14 000D                cmpi.b     [A4], 0xD /* '\r' */
000035E6  66EE                     bne        -0x10 /* 000035D6 */
000035E8  204E                     movea.l    A0, A6
000035EA  D0C6                     add.w      A0, D6
000035EC  4228 FE00                clr.b      [A0 - 0x200]
000035F0  528C                     addq.l     A4, 1
000035F2  6002                     bra        +0x4 /* 000035F6 */
label000035F4:
000035F4  7A01                     moveq.l    D5, 0x01
label000035F6:
000035F6  5279 FFFF F1CE           addq.w     [0xFFFFF1CE], 1
000035FC  33FC 0001 FFFF F1CC      move.w     [0xFFFFF1CC], 0x1
00003604  4EBA FC2A                jsr        [PC - 0x3D6 /* 00003230 */]
00003608  6000 00AC                bra        +0xAE /* 000036B6 */
label0000360C:
0000360C  486E FE00                pea.l      [A6 - 0x200]
00003610  303C 03C2                move.w     D0, 0x3C2
00003614  C1F9 FFFF 9226           muls.w     D0, [0xFFFF9226]
0000361A  0680 FFFF 955E           addi.l     D0, 0xFFFF955E
00003620  2F00                     move.l     -[A7], D0
00003622  4EAD 051A                jsr        [A5 + 0x51A /* export_159, CODE:7 @ 000021A6 */]
00003626  303C 03C2                move.w     D0, 0x3C2
0000362A  C1F9 FFFF 9226           muls.w     D0, [0xFFFF9226]
00003630  0680 FFFF 955E           addi.l     D0, 0xFFFF955E
00003636  2E80                     move.l     [A7], D0
00003638  4EAD 0482                jsr        [A5 + 0x482 /* export_140, CODE:7 @ 0000237C */]
0000363C  303C 03C2                move.w     D0, 0x3C2
00003640  C1F9 FFFF 9226           muls.w     D0, [0xFFFF9226]
00003646  2040                     movea.l    A0, D0
00003648  D1FC FFFF 9764           add.l      A0, 0xFFFF9764
0000364E  30AE 000C                move.w     [A0], [A6 + 0xC]
00003652  4EAD 016A                jsr        [A5 + 0x16A /* export_41, CODE:2 @ 000027BA */]
00003656  70FF                     moveq.l    D0, 0xFFFFFFFF
00003658  D079 FFFF 9226           add.w      D0, [0xFFFF9226]
0000365E  C1FC 03C2                muls.w     D0, 0x3C2
00003662  0680 FFFF 955E           addi.l     D0, 0xFFFF955E
00003668  2440                     movea.l    A2, D0
0000366A  7EFF                     moveq.l    D7, 0xFFFFFFFF
0000366C  DE79 FFFF 9226           add.w      D7, [0xFFFF9226]
00003672  CFFC 03C2                muls.w     D7, 0x3C2
00003676  0687 FFFF 955E           addi.l     D7, 0xFFFF955E
0000367C  0C12 001C                cmpi.b     [A2], 0x1C
00003680  508F                     addq.l     A7, 8
00003682  6304                     bls        +0x6 /* 00003688 */
00003684  14BC 001C                move.b     [A2], 0x1C
label00003688:
00003688  7000                     moveq.l    D0, 0x00
0000368A  1012                     move.b     D0, [A2]
0000368C  2207                     move.l     D1, D7
0000368E  5281                     addq.l     D1, 1
00003690  3040                     movea.w    A0, D0
00003692  4230 1800                clr.b      [A0 + D1]
00003696  7C00                     moveq.l    D6, 0x00
00003698  600C                     bra        +0xE /* 000036A6 */
label0000369A:
0000369A  3006                     move.w     D0, D6
0000369C  5246                     addq.w     D6, 1
0000369E  204E                     movea.l    A0, A6
000036A0  D0C0                     add.w      A0, D0
000036A2  115C FE00                move.b     [A0 - 0x200], [A4]+
label000036A6:
000036A6  0C14 000D                cmpi.b     [A4], 0xD /* '\r' */
000036AA  66EE                     bne        -0x10 /* 0000369A */
000036AC  204E                     movea.l    A0, A6
000036AE  D0C6                     add.w      A0, D6
000036B0  4228 FE00                clr.b      [A0 - 0x200]
000036B4  528C                     addq.l     A4, 1
label000036B6:
000036B6  0C79 0006 FFFF 9226      cmpi.w     [0xFFFF9226], 0x6
000036BE  6C08                     bge        +0xA /* 000036C8 */
000036C0  4A2E FE00                tst.b      [A6 - 0x200]
000036C4  6600 FF46                bne        -0xB8 /* 0000360C */
label000036C8:
000036C8  0C79 0002 FFFF 9226      cmpi.w     [0xFFFF9226], 0x2
000036D0  6C1C                     bge        +0x1E /* 000036EE */
000036D2  4279 FFFF 922E           clr.w      [0xFFFF922E]
000036D8  2F3C FFFF F6B0           move.l     -[A7], 0xFFFFF6B0
000036DE  2F3C FFFF F6B2           move.l     -[A7], 0xFFFFF6B2
000036E4  4EAD 0222                jsr        [A5 + 0x222 /* export_64, CODE:2 @ 00004DCE */]
000036E8  508F                     addq.l     A7, 8
000036EA  6000 0084                bra        +0x86 /* 00003770 */
label000036EE:
000036EE  4A2E FE00                tst.b      [A6 - 0x200]
000036F2  671A                     beq        +0x1C /* 0000370E */
000036F4  4279 FFFF 922E           clr.w      [0xFFFF922E]
000036FA  2F3C FFFF F6D0           move.l     -[A7], 0xFFFFF6D0
00003700  2F3C FFFF F6D2           move.l     -[A7], 0xFFFFF6D2
00003706  4EAD 0222                jsr        [A5 + 0x222 /* export_64, CODE:2 @ 00004DCE */]
0000370A  508F                     addq.l     A7, 8
0000370C  6062                     bra        +0x64 /* 00003770 */
label0000370E:
0000370E  200B                     move.l     D0, A3
00003710  6708                     beq        +0xA /* 0000371A */
00003712  2F0B                     move.l     -[A7], A3
00003714  4EBA FB8A                jsr        [PC - 0x476 /* 000032A0 */]
00003718  588F                     addq.l     A7, 4
label0000371A:
0000371A  7C00                     moveq.l    D6, 0x00
0000371C  6036                     bra        +0x38 /* 00003754 */
label0000371E:
0000371E  3039 FFFF F1CC           move.w     D0, [0xFFFFF1CC]
00003724  5279 FFFF F1CC           addq.w     [0xFFFFF1CC], 1
0000372A  3F00                     move.w     -[A7], D0
0000372C  3F39 FFFF F1CE           move.w     -[A7], [0xFFFFF1CE]
00003732  2F3C FFFF F6F0           move.l     -[A7], 0xFFFFF6F0
00003738  486E FDB0                pea.l      [A6 - 0x250]
0000373C  4EAD 050A                jsr        [A5 + 0x50A /* export_157, CODE:7 @ 000020CA */]
00003740  486E FDB0                pea.l      [A6 - 0x250]
00003744  4EBA FD16                jsr        [PC - 0x2EA /* 0000345C */]
00003748  2E8B                     move.l     [A7], A3
0000374A  4EBA FB94                jsr        [PC - 0x46C /* 000032E0 */]
0000374E  4FEF 0010                lea.l      A7, [A7 + 0x10]
00003752  5246                     addq.w     D6, 1
label00003754:
00003754  BA46                     cmp.w      D5, D6
00003756  6F08                     ble        +0xA /* 00003760 */
00003758  4A79 FFFF 922E           tst.w      [0xFFFF922E]
0000375E  66BE                     bne        -0x40 /* 0000371E */
label00003760:
00003760  200B                     move.l     D0, A3
00003762  670C                     beq        +0xE /* 00003770 */
00003764  2F0B                     move.l     -[A7], A3
00003766  4EBA FC68                jsr        [PC - 0x398 /* 000033D0 */]
0000376A  588F                     addq.l     A7, 4
0000376C  6002                     bra        +0x4 /* 00003770 */
label0000376E:
0000376E  528C                     addq.l     A4, 1
label00003770:
00003770  0C14 000D                cmpi.b     [A4], 0xD /* '\r' */
00003774  67F8                     beq        -0x6 /* 0000376E */
label00003776:
00003776  4A14                     tst.b      [A4]
00003778  670A                     beq        +0xC /* 00003784 */
0000377A  4A79 FFFF 922E           tst.w      [0xFFFF922E]
00003780  6600 FE10                bne        -0x1EE /* 00003592 */
label00003784:
00003784  200B                     move.l     D0, A3
00003786  6708                     beq        +0xA /* 00003790 */
00003788  2F0B                     move.l     -[A7], A3
0000378A  4EAD 04EA                jsr        [A5 + 0x4EA /* export_153, CODE:7 @ 000010CA */]
0000378E  588F                     addq.l     A7, 4
label00003790:
00003790  2F39 FFFF 7D56           move.l     -[A7], [0xFFFF7D56]
00003796  2F3C FFFF F716           move.l     -[A7], 0xFFFFF716
0000379C  A91A                     syscall    SetWTitle
0000379E  2F39 FFFF 9078           move.l     -[A7], [0xFFFF9078]
000037A4  2F3C FFFF F71E           move.l     -[A7], 0xFFFFF71E
000037AA  A95F                     syscall    SetControlTitle/SetCTitle
000037AC  33FC 0006 FFFF 9228      move.w     [0xFFFF9228], 0x6
000037B4  4CDF 1CE0                movem.l    D5,D6,D7,A2,A3,A4, [A7]+
000037B8  4E5E                     unlink     A6
000037BA  4E75                     rts
fn000037BC:
000037BC  4E56 FF2E                link       A6, -0x00D2
000037C0  48E7 1F38                movem.l    -[A7], D3,D4,D5,D6,D7,A2,A3,A4
000037C4  203C 0000 2260           move.l     D0, 0x2260 /* '\"`' */
000037CA  A11E                     syscall    NewPtr, flags=1
000037CC  2848                     movea.l    A4, A0
000037CE  7600                     moveq.l    D3, 0x00
000037D0  3D7C 0064 FFFE           move.w     [A6 - 0x2], 0x64 /* 'd' */
000037D6  3D7C 0064 FFFC           move.w     [A6 - 0x4], 0x64 /* 'd' */
000037DC  2D7C 526F 6257 FFEC      move.l     [A6 - 0x14], 0x526F6257 /* 'RobW' */
label000037E4:
000037E4  2F2E FFFC                move.l     -[A7], [A6 - 0x4]
000037E8  2F3C FFFF 9096           move.l     -[A7], 0xFFFF9096
000037EE  42A7                     clr.l      -[A7]
000037F0  3F3C 0001                move.w     -[A7], 0x1
000037F4  486E FFEC                pea.l      [A6 - 0x14]
000037F8  42A7                     clr.l      -[A7]
000037FA  486E FFA2                pea.l      [A6 - 0x5E]
000037FE  3F3C 0002                move.w     -[A7], 0x2
00003802  A9EA                     syscall    Pack3
00003804  4A2E FFA2                tst.b      [A6 - 0x5E]
00003808  6738                     beq        +0x3A /* 00003842 */
0000380A  7000                     moveq.l    D0, 0x00
0000380C  102E FFAC                move.b     D0, [A6 - 0x54]
00003810  4236 00AD                clr.b      [A6 + D0.w - 0x53]
00003814  7058                     moveq.l    D0, 0x58
00003816  C1C3                     muls.w     D0, D3
00003818  D08C                     add.l      D0, A4
0000381A  2640                     movea.l    A3, D0
0000381C  486E FFAC                pea.l      [A6 - 0x54]
00003820  2F0B                     move.l     -[A7], A3
00003822  4EAD 051A                jsr        [A5 + 0x51A /* export_159, CODE:7 @ 000021A6 */]
00003826  426B 0052                clr.w      [A3 + 0x52]
0000382A  426B 0054                clr.w      [A3 + 0x54]
0000382E  426B 0056                clr.w      [A3 + 0x56]
00003832  3003                     move.w     D0, D3
00003834  5243                     addq.w     D3, 1
00003836  C1FC 0058                muls.w     D0, 0x58 /* 'X' */
0000383A  39AE FFA8 0850           move.w     [A4 + D0 + 0x50], [A6 - 0x58]
00003840  508F                     addq.l     A7, 8
label00003842:
00003842  4A2E FFA2                tst.b      [A6 - 0x5E]
00003846  6706                     beq        +0x8 /* 0000384E */
00003848  0C43 0064                cmpi.w     D3, 0x64 /* 'd' */
0000384C  6D96                     blt        -0x68 /* 000037E4 */
label0000384E:
0000384E  4267                     clr.w      -[A7]
00003850  A938                     syscall    HiliteMenu
00003852  0C43 0002                cmpi.w     D3, 0x2
00003856  6C16                     bge        +0x18 /* 0000386E */
00003858  2F3C FFFF F728           move.l     -[A7], 0xFFFFF728
0000385E  2F3C FFFF F744           move.l     -[A7], 0xFFFFF744
00003864  4EAD 0222                jsr        [A5 + 0x222 /* export_64, CODE:2 @ 00004DCE */]
00003868  508F                     addq.l     A7, 8
0000386A  6000 040E                bra        +0x410 /* 00003C7A */
label0000386E:
0000386E  2F39 FFFF 7D4A           move.l     -[A7], [0xFFFF7D4A]
00003874  2F3C 0100 000C           move.l     -[A7], 0x100000C
0000387A  A945                     syscall    CheckItem
0000387C  33FC 0001 FFFF 922E      move.w     [0xFFFF922E], 0x1
00003884  33FC 0001 FFFF F1CC      move.w     [0xFFFFF1CC], 0x1
0000388C  7C00                     moveq.l    D6, 0x00
0000388E  70FF                     moveq.l    D0, 0xFFFFFFFF
00003890  D043                     add.w      D0, D3
00003892  C1C3                     muls.w     D0, D3
00003894  48C0                     ext.l      D0
00003896  81FC 0002                divs.w     D0, 0x2
0000389A  3D40 FF3C                move.w     [A6 - 0xC4], D0
0000389E  7258                     moveq.l    D1, 0x58
000038A0  C3C6                     muls.w     D1, D6
000038A2  2641                     movea.l    A3, D1
000038A4  6000 00FE                bra        +0x100 /* 000039A4 */
label000038A8:
000038A8  7A01                     moveq.l    D5, 0x01
000038AA  DA46                     add.w      D5, D6
000038AC  204B                     movea.l    A0, A3
000038AE  D1CC                     add.l      A0, A4
000038B0  2E08                     move.l     D7, A0
000038B2  244B                     movea.l    A2, A3
000038B4  D5CC                     add.l      A2, A4
000038B6  45EA 0050                lea.l      A2, [A2 + 0x50]
000038BA  204C                     movea.l    A0, A4
000038BC  D1CB                     add.l      A0, A3
000038BE  41E8 0052                lea.l      A0, [A0 + 0x52]
000038C2  2D48 FF38                move.l     [A6 - 0xC8], A0
000038C6  7058                     moveq.l    D0, 0x58
000038C8  C1C5                     muls.w     D0, D5
000038CA  2D40 FF42                move.l     [A6 - 0xBE], D0
000038CE  6000 00C0                bra        +0xC2 /* 00003990 */
label000038D2:
000038D2  4EBA F95C                jsr        [PC - 0x6A4 /* 00003230 */]
000038D6  4279 FFFF 9226           clr.w      [0xFFFF9226]
000038DC  2F07                     move.l     -[A7], D7
000038DE  2F3C FFFF 955E           move.l     -[A7], 0xFFFF955E
000038E4  4EAD 051A                jsr        [A5 + 0x51A /* export_159, CODE:7 @ 000021A6 */]
000038E8  33D2 FFFF 9764           move.w     [0xFFFF9764], [A2]
000038EE  4EAD 016A                jsr        [A5 + 0x16A /* export_41, CODE:2 @ 000027BA */]
000038F2  204C                     movea.l    A0, A4
000038F4  D1EE FF42                add.l      A0, [A6 - 0xBE]
000038F8  2D48 FF3E                move.l     [A6 - 0xC2], A0
000038FC  2E88                     move.l     [A7], A0
000038FE  2F3C FFFF 9920           move.l     -[A7], 0xFFFF9920
00003904  4EAD 051A                jsr        [A5 + 0x51A /* export_159, CODE:7 @ 000021A6 */]
00003908  206E FF3E                movea.l    A0, [A6 - 0xC2]
0000390C  33E8 0050 FFFF 9B26      move.w     [0xFFFF9B26], [A0 + 0x50]
00003914  4EAD 016A                jsr        [A5 + 0x16A /* export_41, CODE:2 @ 000027BA */]
00003918  7800                     moveq.l    D4, 0x00
0000391A  41EC 0052                lea.l      A0, [A4 + 0x52]
0000391E  D1EE FF42                add.l      A0, [A6 - 0xBE]
00003922  2D48 FF3E                move.l     [A6 - 0xC2], A0
00003926  4FEF 000C                lea.l      A7, [A7 + 0xC]
0000392A  6048                     bra        +0x4A /* 00003974 */
label0000392C:
0000392C  7001                     moveq.l    D0, 0x01
0000392E  D044                     add.w      D0, D4
00003930  3F00                     move.w     -[A7], D0
00003932  3F2E FF3C                move.w     -[A7], [A6 - 0xC4]
00003936  3F39 FFFF F1CC           move.w     -[A7], [0xFFFFF1CC]
0000393C  2F3C FFFF F758           move.l     -[A7], 0xFFFFF758
00003942  486E FF52                pea.l      [A6 - 0xAE]
00003946  4EAD 050A                jsr        [A5 + 0x50A /* export_157, CODE:7 @ 000020CA */]
0000394A  486E FF52                pea.l      [A6 - 0xAE]
0000394E  4EBA FB0C                jsr        [PC - 0x4F4 /* 0000345C */]
00003952  4A39 FFFF 9558           tst.b      [0xFFFF9558]
00003958  4FEF 0012                lea.l      A7, [A7 + 0x12]
0000395C  6706                     beq        +0x8 /* 00003964 */
0000395E  206E FF38                movea.l    A0, [A6 - 0xC8]
00003962  5250                     addq.w     [A0], 1
label00003964:
00003964  4A39 FFFF 991A           tst.b      [0xFFFF991A]
0000396A  6706                     beq        +0x8 /* 00003972 */
0000396C  206E FF3E                movea.l    A0, [A6 - 0xC2]
00003970  5250                     addq.w     [A0], 1
label00003972:
00003972  5244                     addq.w     D4, 1
label00003974:
00003974  0C44 0003                cmpi.w     D4, 0x3
00003978  6C08                     bge        +0xA /* 00003982 */
0000397A  4A79 FFFF 922E           tst.w      [0xFFFF922E]
00003980  66AA                     bne        -0x54 /* 0000392C */
label00003982:
00003982  5279 FFFF F1CC           addq.w     [0xFFFFF1CC], 1
00003988  5245                     addq.w     D5, 1
0000398A  7058                     moveq.l    D0, 0x58
0000398C  D1AE FF42                add.l      [A6 - 0xBE], D0
label00003990:
00003990  B645                     cmp.w      D3, D5
00003992  6F0A                     ble        +0xC /* 0000399E */
00003994  4A79 FFFF 922E           tst.w      [0xFFFF922E]
0000399A  6600 FF36                bne        -0xC8 /* 000038D2 */
label0000399E:
0000399E  5246                     addq.w     D6, 1
000039A0  47EB 0058                lea.l      A3, [A3 + 0x58]
label000039A4:
000039A4  B646                     cmp.w      D3, D6
000039A6  6E00 FF00                bgt        -0xFE /* 000038A8 */
000039AA  33FC 0001 FFFF F1CC      move.w     [0xFFFFF1CC], 0x1
000039B2  7C00                     moveq.l    D6, 0x00
000039B4  7006                     moveq.l    D0, 0x06
000039B6  C1C3                     muls.w     D0, D3
000039B8  3D40 FF3C                move.w     [A6 - 0xC4], D0
000039BC  6000 0188                bra        +0x18A /* 00003B46 */
label000039C0:
000039C0  4EBA F86E                jsr        [PC - 0x792 /* 00003230 */]
000039C4  4279 FFFF 9226           clr.w      [0xFFFF9226]
000039CA  7A00                     moveq.l    D5, 0x00
000039CC  267C FFFF 9442           movea.l    A3, 0xFFFF9442
000039D2  41EE FF46                lea.l      A0, [A6 - 0xBA]
000039D6  2E08                     move.l     D7, A0
000039D8  607A                     bra        +0x7C /* 00003A54 */
label000039DA:
000039DA  2447                     movea.l    A2, D7
label000039DC:
000039DC  4EAD 03A2                jsr        [A5 + 0x3A2 /* export_112, CODE:7 @ 00003D82 */]
000039E0  48C0                     ext.l      D0
000039E2  81C3                     divs.w     D0, D3
000039E4  4840                     swap.w     D0
000039E6  3480                     move.w     [A2], D0
000039E8  3D7C 0001 FF36           move.w     [A6 - 0xCA], 0x1
000039EE  7800                     moveq.l    D4, 0x00
000039F0  2047                     movea.l    A0, D7
000039F2  3D50 FF34                move.w     [A6 - 0xCC], [A0]
000039F6  41EE FF46                lea.l      A0, [A6 - 0xBA]
000039FA  D0C4                     add.w      A0, D4
000039FC  D0C4                     add.w      A0, D4
000039FE  2D48 FF38                move.l     [A6 - 0xC8], A0
00003A02  6016                     bra        +0x18 /* 00003A1A */
label00003A04:
00003A04  206E FF38                movea.l    A0, [A6 - 0xC8]
00003A08  3010                     move.w     D0, [A0]
00003A0A  B06E FF34                cmp.w      D0, [A6 - 0xCC]
00003A0E  6604                     bne        +0x6 /* 00003A14 */
00003A10  426E FF36                clr.w      [A6 - 0xCA]
label00003A14:
00003A14  5244                     addq.w     D4, 1
00003A16  54AE FF38                addq.l     [A6 - 0xC8], 2
label00003A1A:
00003A1A  BA44                     cmp.w      D5, D4
00003A1C  6EE6                     bgt        -0x18 /* 00003A04 */
00003A1E  4A6E FF36                tst.w      [A6 - 0xCA]
00003A22  67B8                     beq        -0x46 /* 000039DC */
00003A24  7058                     moveq.l    D0, 0x58
00003A26  C1D2                     muls.w     D0, [A2]
00003A28  4874 0800                pea.l      [A4 + D0]
00003A2C  486B 011C                pea.l      [A3 + 0x11C]
00003A30  4EAD 051A                jsr        [A5 + 0x51A /* export_159, CODE:7 @ 000021A6 */]
00003A34  7058                     moveq.l    D0, 0x58
00003A36  C1D2                     muls.w     D0, [A2]
00003A38  3774 0850 0322           move.w     [A3 + 0x322], [A4 + D0 + 0x50]
00003A3E  7058                     moveq.l    D0, 0x58
00003A40  C1D2                     muls.w     D0, [A2]
00003A42  5274 0856                addq.w     [A4 + D0 + 0x56], 1
00003A46  4EAD 016A                jsr        [A5 + 0x16A /* export_41, CODE:2 @ 000027BA */]
00003A4A  508F                     addq.l     A7, 8
00003A4C  5245                     addq.w     D5, 1
00003A4E  47EB 03C2                lea.l      A3, [A3 + 0x3C2]
00003A52  5487                     addq.l     D7, 2
label00003A54:
00003A54  0C45 0006                cmpi.w     D5, 0x6
00003A58  6C06                     bge        +0x8 /* 00003A60 */
00003A5A  B645                     cmp.w      D3, D5
00003A5C  6E00 FF7C                bgt        -0x82 /* 000039DA */
label00003A60:
00003A60  7A00                     moveq.l    D5, 0x00
00003A62  6000 00CA                bra        +0xCC /* 00003B2E */
label00003A66:
00003A66  7001                     moveq.l    D0, 0x01
00003A68  D045                     add.w      D0, D5
00003A6A  3F00                     move.w     -[A7], D0
00003A6C  3F2E FF3C                move.w     -[A7], [A6 - 0xC4]
00003A70  3F39 FFFF F1CC           move.w     -[A7], [0xFFFFF1CC]
00003A76  2F3C FFFF F77C           move.l     -[A7], 0xFFFFF77C
00003A7C  486E FF52                pea.l      [A6 - 0xAE]
00003A80  4EAD 050A                jsr        [A5 + 0x50A /* export_157, CODE:7 @ 000020CA */]
00003A84  486E FF52                pea.l      [A6 - 0xAE]
00003A88  4EBA F9D2                jsr        [PC - 0x62E /* 0000345C */]
00003A8C  426E FF34                clr.w      [A6 - 0xCC]
00003A90  7800                     moveq.l    D4, 0x00
00003A92  267C FFFF 9442           movea.l    A3, 0xFFFF9442
00003A98  4FEF 0012                lea.l      A7, [A7 + 0x12]
00003A9C  6022                     bra        +0x24 /* 00003AC0 */
label00003A9E:
00003A9E  2D6B 0118 FF30           move.l     [A6 - 0xD0], [A3 + 0x118]
00003AA4  306E FF34                movea.w    A0, [A6 - 0xCC]
00003AA8  B1EE FF30                cmpa.l     A0, [A6 - 0xD0]
00003AAC  6C0C                     bge        +0xE /* 00003ABA */
00003AAE  3D6E FF34 FF2E           move.w     [A6 - 0xD2], [A6 - 0xCC]
00003AB4  3D6E FF32 FF34           move.w     [A6 - 0xCC], [A6 - 0xCE]
label00003ABA:
00003ABA  5244                     addq.w     D4, 1
00003ABC  47EB 03C2                lea.l      A3, [A3 + 0x3C2]
label00003AC0:
00003AC0  0C44 0006                cmpi.w     D4, 0x6
00003AC4  6C04                     bge        +0x6 /* 00003ACA */
00003AC6  B644                     cmp.w      D3, D4
00003AC8  6ED4                     bgt        -0x2A /* 00003A9E */
label00003ACA:
00003ACA  7800                     moveq.l    D4, 0x00
00003ACC  47EE FF46                lea.l      A3, [A6 - 0xBA]
00003AD0  2E3C FFFF 9442           move.l     D7, 0xFFFF9442
00003AD6  604A                     bra        +0x4C /* 00003B22 */
label00003AD8:
00003AD8  2047                     movea.l    A0, D7
00003ADA  4A28 0116                tst.b      [A0 + 0x116]
00003ADE  670A                     beq        +0xC /* 00003AEA */
00003AE0  7058                     moveq.l    D0, 0x58
00003AE2  C1D3                     muls.w     D0, [A3]
00003AE4  5674 0854                addq.w     [A4 + D0 + 0x54], 3
00003AE8  602E                     bra        +0x30 /* 00003B18 */
label00003AEA:
00003AEA  2047                     movea.l    A0, D7
00003AEC  2D68 0118 FF30           move.l     [A6 - 0xD0], [A0 + 0x118]
00003AF2  306E FF34                movea.w    A0, [A6 - 0xCC]
00003AF6  B1EE FF30                cmpa.l     A0, [A6 - 0xD0]
00003AFA  660A                     bne        +0xC /* 00003B06 */
00003AFC  7058                     moveq.l    D0, 0x58
00003AFE  C1D3                     muls.w     D0, [A3]
00003B00  5474 0854                addq.w     [A4 + D0 + 0x54], 2
00003B04  6012                     bra        +0x14 /* 00003B18 */
label00003B06:
00003B06  306E FF2E                movea.w    A0, [A6 - 0xD2]
00003B0A  B1EE FF30                cmpa.l     A0, [A6 - 0xD0]
00003B0E  6608                     bne        +0xA /* 00003B18 */
00003B10  7058                     moveq.l    D0, 0x58
00003B12  C1D3                     muls.w     D0, [A3]
00003B14  5274 0854                addq.w     [A4 + D0 + 0x54], 1
label00003B18:
00003B18  5244                     addq.w     D4, 1
00003B1A  548B                     addq.l     A3, 2
00003B1C  0687 0000 03C2           addi.l     D7, 0x3C2
label00003B22:
00003B22  0C44 0006                cmpi.w     D4, 0x6
00003B26  6C04                     bge        +0x6 /* 00003B2C */
00003B28  B644                     cmp.w      D3, D4
00003B2A  6EAC                     bgt        -0x52 /* 00003AD8 */
label00003B2C:
00003B2C  5245                     addq.w     D5, 1
label00003B2E:
00003B2E  0C45 0003                cmpi.w     D5, 0x3
00003B32  6C0A                     bge        +0xC /* 00003B3E */
00003B34  4A79 FFFF 922E           tst.w      [0xFFFF922E]
00003B3A  6600 FF2A                bne        -0xD4 /* 00003A66 */
label00003B3E:
00003B3E  5279 FFFF F1CC           addq.w     [0xFFFFF1CC], 1
00003B44  5246                     addq.w     D6, 1
label00003B46:
00003B46  BC6E FF3C                cmp.w      D6, [A6 - 0xC4]
00003B4A  6C0A                     bge        +0xC /* 00003B56 */
00003B4C  4A79 FFFF 922E           tst.w      [0xFFFF922E]
00003B52  6600 FE6C                bne        -0x192 /* 000039C0 */
label00003B56:
00003B56  2F2E 0008                move.l     -[A7], [A6 + 0x8]
00003B5A  4EAD 047A                jsr        [A5 + 0x47A /* export_139, CODE:7 @ 00002398 */]
00003B5E  2EBC FFFF F79A           move.l     [A7], 0xFFFFF79A
00003B64  2F2E 0008                move.l     -[A7], [A6 + 0x8]
00003B68  4EAD 04E2                jsr        [A5 + 0x4E2 /* export_152, CODE:7 @ 00000924 */]
00003B6C  2640                     movea.l    A3, D0
00003B6E  200B                     move.l     D0, A3
00003B70  508F                     addq.l     A7, 8
00003B72  6616                     bne        +0x18 /* 00003B8A */
00003B74  2F3C FFFF F79C           move.l     -[A7], 0xFFFFF79C
00003B7A  2F3C FFFF F79E           move.l     -[A7], 0xFFFFF79E
00003B80  4EAD 0222                jsr        [A5 + 0x222 /* export_64, CODE:2 @ 00004DCE */]
00003B84  508F                     addq.l     A7, 8
00003B86  6000 00C2                bra        +0xC4 /* 00003C4A */
label00003B8A:
00003B8A  2F3C FFFF F7B2           move.l     -[A7], 0xFFFFF7B2
00003B90  2F3C FFFF F7B8           move.l     -[A7], 0xFFFFF7B8
00003B96  2F3C FFFF F7C4           move.l     -[A7], 0xFFFFF7C4
00003B9C  2F3C FFFF F7D0           move.l     -[A7], 0xFFFFF7D0
00003BA2  2F3C FFFF F7D8           move.l     -[A7], 0xFFFFF7D8
00003BA8  2F3C FFFF F7E4           move.l     -[A7], 0xFFFFF7E4
00003BAE  2F3C FFFF F7F0           move.l     -[A7], 0xFFFFF7F0
00003BB4  2F0B                     move.l     -[A7], A3
00003BB6  4EAD 04FA                jsr        [A5 + 0x4FA /* export_155, CODE:7 @ 00000F42 */]
00003BBA  7C00                     moveq.l    D6, 0x00
00003BBC  7E00                     moveq.l    D7, 0x00
00003BBE  4FEF 0020                lea.l      A7, [A7 + 0x20]
00003BC2  607A                     bra        +0x7C /* 00003C3E */
label00003BC4:
00003BC4  2007                     move.l     D0, D7
00003BC6  D08C                     add.l      D0, A4
00003BC8  2440                     movea.l    A2, D0
00003BCA  2F0A                     move.l     -[A7], A2
00003BCC  4EAD 047A                jsr        [A5 + 0x47A /* export_139, CODE:7 @ 00002398 */]
00003BD0  422A 0013                clr.b      [A2 + 0x13]
00003BD4  41F4 7856                lea.l      A0, [A4 + D7 + 0x56]
00003BD8  2D48 FF38                move.l     [A6 - 0xC8], A0
00003BDC  4A50                     tst.w      [A0]
00003BDE  588F                     addq.l     A7, 4
00003BE0  6608                     bne        +0xA /* 00003BEA */
00003BE2  206E FF38                movea.l    A0, [A6 - 0xC8]
00003BE6  30BC 0001                move.w     [A0], 0x1
label00003BEA:
00003BEA  206E FF38                movea.l    A0, [A6 - 0xC8]
00003BEE  3D50 FF3C                move.w     [A6 - 0xC4], [A0]
00003BF2  7003                     moveq.l    D0, 0x03
00003BF4  C1EE FF3C                muls.w     D0, [A6 - 0xC4]
00003BF8  322A 0054                move.w     D1, [A2 + 0x54]
00003BFC  C3C3                     muls.w     D1, D3
00003BFE  48C1                     ext.l      D1
00003C00  83C0                     divs.w     D1, D0
00003C02  D26A 0052                add.w      D1, [A2 + 0x52]
00003C06  3F01                     move.w     -[A7], D1
00003C08  7003                     moveq.l    D0, 0x03
00003C0A  C1EE FF3C                muls.w     D0, [A6 - 0xC4]
00003C0E  322A 0054                move.w     D1, [A2 + 0x54]
00003C12  C3C3                     muls.w     D1, D3
00003C14  48C1                     ext.l      D1
00003C16  83C0                     divs.w     D1, D0
00003C18  3F01                     move.w     -[A7], D1
00003C1A  3F2E FF3C                move.w     -[A7], [A6 - 0xC4]
00003C1E  3F2A 0054                move.w     -[A7], [A2 + 0x54]
00003C22  3F2A 0052                move.w     -[A7], [A2 + 0x52]
00003C26  2F0A                     move.l     -[A7], A2
00003C28  2F3C FFFF F80A           move.l     -[A7], 0xFFFFF80A
00003C2E  2F0B                     move.l     -[A7], A3
00003C30  4EAD 04FA                jsr        [A5 + 0x4FA /* export_155, CODE:7 @ 00000F42 */]
00003C34  4FEF 0016                lea.l      A7, [A7 + 0x16]
00003C38  5246                     addq.w     D6, 1
00003C3A  7058                     moveq.l    D0, 0x58
00003C3C  DE80                     add.l      D7, D0
label00003C3E:
00003C3E  B646                     cmp.w      D3, D6
00003C40  6E82                     bgt        -0x7C /* 00003BC4 */
00003C42  2F0B                     move.l     -[A7], A3
00003C44  4EAD 04EA                jsr        [A5 + 0x4EA /* export_153, CODE:7 @ 000010CA */]
00003C48  588F                     addq.l     A7, 4
label00003C4A:
00003C4A  2F39 FFFF 7D56           move.l     -[A7], [0xFFFF7D56]
00003C50  2F3C FFFF F824           move.l     -[A7], 0xFFFFF824
00003C56  A91A                     syscall    SetWTitle
00003C58  2F39 FFFF 9078           move.l     -[A7], [0xFFFF9078]
00003C5E  2F3C FFFF F82C           move.l     -[A7], 0xFFFFF82C
00003C64  A95F                     syscall    SetControlTitle/SetCTitle
00003C66  33FC 0006 FFFF 9228      move.w     [0xFFFF9228], 0x6
00003C6E  2F39 FFFF 7D4A           move.l     -[A7], [0xFFFF7D4A]
00003C74  4878 000C                push.l     0xC
00003C78  A945                     syscall    CheckItem
label00003C7A:
00003C7A  204C                     movea.l    A0, A4
00003C7C  A01F                     syscall    DisposPtr/DisposePtr
00003C7E  4CDF 1CF8                movem.l    D3,D4,D5,D6,D7,A2,A3,A4, [A7]+
00003C82  4E5E                     unlink     A6
00003C84  4E75                     rts
fn00003C86:
00003C86  4E56 FF36                link       A6, -0x00CA
00003C8A  48E7 1F38                movem.l    -[A7], D3,D4,D5,D6,D7,A2,A3,A4
00003C8E  203C 0000 0210           move.l     D0, 0x210
00003C94  A11E                     syscall    NewPtr, flags=1
00003C96  2848                     movea.l    A4, A0
00003C98  7600                     moveq.l    D3, 0x00
00003C9A  3D7C 0064 FFFC           move.w     [A6 - 0x4], 0x64 /* 'd' */
00003CA0  3D7C 0064 FFFA           move.w     [A6 - 0x6], 0x64 /* 'd' */
00003CA6  2D7C 526F 6257 FFEA      move.l     [A6 - 0x16], 0x526F6257 /* 'RobW' */
label00003CAE:
00003CAE  2F2E FFFA                move.l     -[A7], [A6 - 0x6]
00003CB2  2F3C FFFF 9096           move.l     -[A7], 0xFFFF9096
00003CB8  42A7                     clr.l      -[A7]
00003CBA  3F3C 0001                move.w     -[A7], 0x1
00003CBE  486E FFEA                pea.l      [A6 - 0x16]
00003CC2  42A7                     clr.l      -[A7]
00003CC4  486E FFA0                pea.l      [A6 - 0x60]
00003CC8  3F3C 0002                move.w     -[A7], 0x2
00003CCC  A9EA                     syscall    Pack3
00003CCE  4A2E FFA0                tst.b      [A6 - 0x60]
00003CD2  6738                     beq        +0x3A /* 00003D0C */
00003CD4  7000                     moveq.l    D0, 0x00
00003CD6  102E FFAA                move.b     D0, [A6 - 0x56]
00003CDA  4236 00AB                clr.b      [A6 + D0.w - 0x55]
00003CDE  7058                     moveq.l    D0, 0x58
00003CE0  C1C3                     muls.w     D0, D3
00003CE2  D08C                     add.l      D0, A4
00003CE4  2640                     movea.l    A3, D0
00003CE6  486E FFAA                pea.l      [A6 - 0x56]
00003CEA  2F0B                     move.l     -[A7], A3
00003CEC  4EAD 051A                jsr        [A5 + 0x51A /* export_159, CODE:7 @ 000021A6 */]
00003CF0  426B 0052                clr.w      [A3 + 0x52]
00003CF4  426B 0054                clr.w      [A3 + 0x54]
00003CF8  426B 0056                clr.w      [A3 + 0x56]
00003CFC  3003                     move.w     D0, D3
00003CFE  5243                     addq.w     D3, 1
00003D00  C1FC 0058                muls.w     D0, 0x58 /* 'X' */
00003D04  39AE FFA6 0850           move.w     [A4 + D0 + 0x50], [A6 - 0x5A]
00003D0A  508F                     addq.l     A7, 8
label00003D0C:
00003D0C  4A2E FFA0                tst.b      [A6 - 0x60]
00003D10  6706                     beq        +0x8 /* 00003D18 */
00003D12  0C43 0006                cmpi.w     D3, 0x6
00003D16  6696                     bne        -0x68 /* 00003CAE */
label00003D18:
00003D18  4267                     clr.w      -[A7]
00003D1A  A938                     syscall    HiliteMenu
00003D1C  0C43 0006                cmpi.w     D3, 0x6
00003D20  6716                     beq        +0x18 /* 00003D38 */
00003D22  2F3C FFFF F836           move.l     -[A7], 0xFFFFF836
00003D28  2F3C FFFF F854           move.l     -[A7], 0xFFFFF854
00003D2E  4EAD 0222                jsr        [A5 + 0x222 /* export_64, CODE:2 @ 00004DCE */]
00003D32  508F                     addq.l     A7, 8
00003D34  6000 033A                bra        +0x33C /* 00004070 */
label00003D38:
00003D38  2F39 FFFF 7D4A           move.l     -[A7], [0xFFFF7D4A]
00003D3E  2F3C 0100 000C           move.l     -[A7], 0x100000C
00003D44  A945                     syscall    CheckItem
00003D46  33FC 0001 FFFF 922E      move.w     [0xFFFF922E], 0x1
00003D4E  33FC 0001 FFFF F1CC      move.w     [0xFFFFF1CC], 0x1
00003D56  7800                     moveq.l    D4, 0x00
00003D58  7CFF                     moveq.l    D6, 0xFFFFFFFF
00003D5A  DC43                     add.w      D6, D3
00003D5C  CDC3                     muls.w     D6, D3
00003D5E  48C6                     ext.l      D6
00003D60  8DFC 0002                divs.w     D6, 0x2
00003D64  7058                     moveq.l    D0, 0x58
00003D66  C1C4                     muls.w     D0, D4
00003D68  2640                     movea.l    A3, D0
00003D6A  6000 00FE                bra        +0x100 /* 00003E6A */
label00003D6E:
00003D6E  7601                     moveq.l    D3, 0x01
00003D70  D644                     add.w      D3, D4
00003D72  244B                     movea.l    A2, A3
00003D74  D5CC                     add.l      A2, A4
00003D76  204B                     movea.l    A0, A3
00003D78  D1CC                     add.l      A0, A4
00003D7A  7E50                     moveq.l    D7, 0x50
00003D7C  DE88                     add.l      D7, A0
00003D7E  204C                     movea.l    A0, A4
00003D80  D1CB                     add.l      A0, A3
00003D82  41E8 0052                lea.l      A0, [A0 + 0x52]
00003D86  2D48 FF38                move.l     [A6 - 0xC8], A0
00003D8A  7058                     moveq.l    D0, 0x58
00003D8C  C1C3                     muls.w     D0, D3
00003D8E  2D40 FF40                move.l     [A6 - 0xC0], D0
00003D92  6000 00C0                bra        +0xC2 /* 00003E54 */
label00003D96:
00003D96  4EBA F498                jsr        [PC - 0xB68 /* 00003230 */]
00003D9A  4279 FFFF 9226           clr.w      [0xFFFF9226]
00003DA0  2F0A                     move.l     -[A7], A2
00003DA2  2F3C FFFF 955E           move.l     -[A7], 0xFFFF955E
00003DA8  4EAD 051A                jsr        [A5 + 0x51A /* export_159, CODE:7 @ 000021A6 */]
00003DAC  2047                     movea.l    A0, D7
00003DAE  33D0 FFFF 9764           move.w     [0xFFFF9764], [A0]
00003DB4  4EAD 016A                jsr        [A5 + 0x16A /* export_41, CODE:2 @ 000027BA */]
00003DB8  204C                     movea.l    A0, A4
00003DBA  D1EE FF40                add.l      A0, [A6 - 0xC0]
00003DBE  2D48 FF3C                move.l     [A6 - 0xC4], A0
00003DC2  2E88                     move.l     [A7], A0
00003DC4  2F3C FFFF 9920           move.l     -[A7], 0xFFFF9920
00003DCA  4EAD 051A                jsr        [A5 + 0x51A /* export_159, CODE:7 @ 000021A6 */]
00003DCE  206E FF3C                movea.l    A0, [A6 - 0xC4]
00003DD2  33E8 0050 FFFF 9B26      move.w     [0xFFFF9B26], [A0 + 0x50]
00003DDA  4EAD 016A                jsr        [A5 + 0x16A /* export_41, CODE:2 @ 000027BA */]
00003DDE  7A00                     moveq.l    D5, 0x00
00003DE0  41EC 0052                lea.l      A0, [A4 + 0x52]
00003DE4  D1EE FF40                add.l      A0, [A6 - 0xC0]
00003DE8  2D48 FF3C                move.l     [A6 - 0xC4], A0
00003DEC  4FEF 000C                lea.l      A7, [A7 + 0xC]
00003DF0  6046                     bra        +0x48 /* 00003E38 */
label00003DF2:
00003DF2  7001                     moveq.l    D0, 0x01
00003DF4  D045                     add.w      D0, D5
00003DF6  3F00                     move.w     -[A7], D0
00003DF8  3F06                     move.w     -[A7], D6
00003DFA  3F39 FFFF F1CC           move.w     -[A7], [0xFFFFF1CC]
00003E00  2F3C FFFF F868           move.l     -[A7], 0xFFFFF868
00003E06  486E FF50                pea.l      [A6 - 0xB0]
00003E0A  4EAD 050A                jsr        [A5 + 0x50A /* export_157, CODE:7 @ 000020CA */]
00003E0E  486E FF50                pea.l      [A6 - 0xB0]
00003E12  4EBA F648                jsr        [PC - 0x9B8 /* 0000345C */]
00003E16  4A39 FFFF 9558           tst.b      [0xFFFF9558]
00003E1C  4FEF 0012                lea.l      A7, [A7 + 0x12]
00003E20  6706                     beq        +0x8 /* 00003E28 */
00003E22  206E FF38                movea.l    A0, [A6 - 0xC8]
00003E26  5250                     addq.w     [A0], 1
label00003E28:
00003E28  4A39 FFFF 991A           tst.b      [0xFFFF991A]
00003E2E  6706                     beq        +0x8 /* 00003E36 */
00003E30  206E FF3C                movea.l    A0, [A6 - 0xC4]
00003E34  5250                     addq.w     [A0], 1
label00003E36:
00003E36  5245                     addq.w     D5, 1
label00003E38:
00003E38  0C45 0008                cmpi.w     D5, 0x8
00003E3C  6C08                     bge        +0xA /* 00003E46 */
00003E3E  4A79 FFFF 922E           tst.w      [0xFFFF922E]
00003E44  66AC                     bne        -0x52 /* 00003DF2 */
label00003E46:
00003E46  5279 FFFF F1CC           addq.w     [0xFFFFF1CC], 1
00003E4C  5243                     addq.w     D3, 1
00003E4E  7058                     moveq.l    D0, 0x58
00003E50  D1AE FF40                add.l      [A6 - 0xC0], D0
label00003E54:
00003E54  0C43 0006                cmpi.w     D3, 0x6
00003E58  6C0A                     bge        +0xC /* 00003E64 */
00003E5A  4A79 FFFF 922E           tst.w      [0xFFFF922E]
00003E60  6600 FF34                bne        -0xCA /* 00003D96 */
label00003E64:
00003E64  5244                     addq.w     D4, 1
00003E66  47EB 0058                lea.l      A3, [A3 + 0x58]
label00003E6A:
00003E6A  0C44 0006                cmpi.w     D4, 0x6
00003E6E  6D00 FEFE                blt        -0x100 /* 00003D6E */
00003E72  33FC 0001 FFFF F1CC      move.w     [0xFFFFF1CC], 0x1
00003E7A  4EBA F3B4                jsr        [PC - 0xC4C /* 00003230 */]
00003E7E  4279 FFFF 9226           clr.w      [0xFFFF9226]
00003E84  7600                     moveq.l    D3, 0x00
00003E86  267C FFFF 9442           movea.l    A3, 0xFFFF9442
00003E8C  95CA                     sub.l      A2, A2
00003E8E  6028                     bra        +0x2A /* 00003EB8 */
label00003E90:
00003E90  204A                     movea.l    A0, A2
00003E92  D1CC                     add.l      A0, A4
00003E94  2E08                     move.l     D7, A0
00003E96  2F07                     move.l     -[A7], D7
00003E98  486B 011C                pea.l      [A3 + 0x11C]
00003E9C  4EAD 051A                jsr        [A5 + 0x51A /* export_159, CODE:7 @ 000021A6 */]
00003EA0  2047                     movea.l    A0, D7
00003EA2  3768 0050 0322           move.w     [A3 + 0x322], [A0 + 0x50]
00003EA8  4EAD 016A                jsr        [A5 + 0x16A /* export_41, CODE:2 @ 000027BA */]
00003EAC  508F                     addq.l     A7, 8
00003EAE  5243                     addq.w     D3, 1
00003EB0  47EB 03C2                lea.l      A3, [A3 + 0x3C2]
00003EB4  45EA 0058                lea.l      A2, [A2 + 0x58]
label00003EB8:
00003EB8  0C43 0006                cmpi.w     D3, 0x6
00003EBC  6DD2                     blt        -0x2C /* 00003E90 */
00003EBE  7600                     moveq.l    D3, 0x00
00003EC0  6000 00A0                bra        +0xA2 /* 00003F62 */
label00003EC4:
00003EC4  3F3C 0010                move.w     -[A7], 0x10
00003EC8  7001                     moveq.l    D0, 0x01
00003ECA  D043                     add.w      D0, D3
00003ECC  3F00                     move.w     -[A7], D0
00003ECE  2F3C FFFF F88C           move.l     -[A7], 0xFFFFF88C
00003ED4  486E FF50                pea.l      [A6 - 0xB0]
00003ED8  4EAD 050A                jsr        [A5 + 0x50A /* export_157, CODE:7 @ 000020CA */]
00003EDC  486E FF50                pea.l      [A6 - 0xB0]
00003EE0  4EBA F57A                jsr        [PC - 0xA86 /* 0000345C */]
00003EE4  7800                     moveq.l    D4, 0x00
00003EE6  7A00                     moveq.l    D5, 0x00
00003EE8  267C FFFF 9442           movea.l    A3, 0xFFFF9442
00003EEE  4FEF 0010                lea.l      A7, [A7 + 0x10]
00003EF2  6016                     bra        +0x18 /* 00003F0A */
label00003EF4:
00003EF4  2C2B 0118                move.l     D6, [A3 + 0x118]
00003EF8  3044                     movea.w    A0, D4
00003EFA  B1C6                     cmpa.l     A0, D6
00003EFC  6C06                     bge        +0x8 /* 00003F04 */
00003EFE  3D44 FF36                move.w     [A6 - 0xCA], D4
00003F02  3806                     move.w     D4, D6
label00003F04:
00003F04  5245                     addq.w     D5, 1
00003F06  47EB 03C2                lea.l      A3, [A3 + 0x3C2]
label00003F0A:
00003F0A  0C45 0006                cmpi.w     D5, 0x6
00003F0E  6DE4                     blt        -0x1A /* 00003EF4 */
00003F10  7A00                     moveq.l    D5, 0x00
00003F12  97CB                     sub.l      A3, A3
00003F14  247C FFFF 9442           movea.l    A2, 0xFFFF9442
00003F1A  603E                     bra        +0x40 /* 00003F5A */
label00003F1C:
00003F1C  4A2A 0116                tst.b      [A2 + 0x116]
00003F20  670A                     beq        +0xC /* 00003F2C */
00003F22  204C                     movea.l    A0, A4
00003F24  D1CB                     add.l      A0, A3
00003F26  5668 0054                addq.w     [A0 + 0x54], 3
00003F2A  6024                     bra        +0x26 /* 00003F50 */
label00003F2C:
00003F2C  2C2A 0118                move.l     D6, [A2 + 0x118]
00003F30  3044                     movea.w    A0, D4
00003F32  B1C6                     cmpa.l     A0, D6
00003F34  660A                     bne        +0xC /* 00003F40 */
00003F36  204C                     movea.l    A0, A4
00003F38  D1CB                     add.l      A0, A3
00003F3A  5468 0054                addq.w     [A0 + 0x54], 2
00003F3E  6010                     bra        +0x12 /* 00003F50 */
label00003F40:
00003F40  306E FF36                movea.w    A0, [A6 - 0xCA]
00003F44  B1C6                     cmpa.l     A0, D6
00003F46  6608                     bne        +0xA /* 00003F50 */
00003F48  204C                     movea.l    A0, A4
00003F4A  D1CB                     add.l      A0, A3
00003F4C  5268 0054                addq.w     [A0 + 0x54], 1
label00003F50:
00003F50  5245                     addq.w     D5, 1
00003F52  47EB 0058                lea.l      A3, [A3 + 0x58]
00003F56  45EA 03C2                lea.l      A2, [A2 + 0x3C2]
label00003F5A:
00003F5A  0C45 0006                cmpi.w     D5, 0x6
00003F5E  6DBC                     blt        -0x42 /* 00003F1C */
00003F60  5243                     addq.w     D3, 1
label00003F62:
00003F62  0C43 0010                cmpi.w     D3, 0x10
00003F66  6C0A                     bge        +0xC /* 00003F72 */
00003F68  4A79 FFFF 922E           tst.w      [0xFFFF922E]
00003F6E  6600 FF54                bne        -0xAA /* 00003EC4 */
label00003F72:
00003F72  2F2E 0008                move.l     -[A7], [A6 + 0x8]
00003F76  4EAD 047A                jsr        [A5 + 0x47A /* export_139, CODE:7 @ 00002398 */]
00003F7A  2EBC FFFF F8A0           move.l     [A7], 0xFFFFF8A0
00003F80  2F2E 0008                move.l     -[A7], [A6 + 0x8]
00003F84  4EAD 04E2                jsr        [A5 + 0x4E2 /* export_152, CODE:7 @ 00000924 */]
00003F88  2640                     movea.l    A3, D0
00003F8A  200B                     move.l     D0, A3
00003F8C  508F                     addq.l     A7, 8
00003F8E  6616                     bne        +0x18 /* 00003FA6 */
00003F90  2F3C FFFF F8A2           move.l     -[A7], 0xFFFFF8A2
00003F96  2F3C FFFF F8A4           move.l     -[A7], 0xFFFFF8A4
00003F9C  4EAD 0222                jsr        [A5 + 0x222 /* export_64, CODE:2 @ 00004DCE */]
00003FA0  508F                     addq.l     A7, 8
00003FA2  6000 009C                bra        +0x9E /* 00004040 */
label00003FA6:
00003FA6  2F3C FFFF F8B8           move.l     -[A7], 0xFFFFF8B8
00003FAC  2F3C FFFF F8BE           move.l     -[A7], 0xFFFFF8BE
00003FB2  2F3C FFFF F8CA           move.l     -[A7], 0xFFFFF8CA
00003FB8  2F3C FFFF F8D6           move.l     -[A7], 0xFFFFF8D6
00003FBE  2F3C FFFF F8E2           move.l     -[A7], 0xFFFFF8E2
00003FC4  2F0B                     move.l     -[A7], A3
00003FC6  4EAD 04FA                jsr        [A5 + 0x4FA /* export_155, CODE:7 @ 00000F42 */]
00003FCA  7800                     moveq.l    D4, 0x00
00003FCC  95CA                     sub.l      A2, A2
00003FCE  4FEF 0018                lea.l      A7, [A7 + 0x18]
00003FD2  605E                     bra        +0x60 /* 00004032 */
label00003FD4:
00003FD4  204A                     movea.l    A0, A2
00003FD6  D1CC                     add.l      A0, A4
00003FD8  2E08                     move.l     D7, A0
00003FDA  2F07                     move.l     -[A7], D7
00003FDC  4EAD 047A                jsr        [A5 + 0x47A /* export_139, CODE:7 @ 00002398 */]
00003FE0  2047                     movea.l    A0, D7
00003FE2  4228 0013                clr.b      [A0 + 0x13]
00003FE6  204C                     movea.l    A0, A4
00003FE8  D1CA                     add.l      A0, A2
00003FEA  41E8 0056                lea.l      A0, [A0 + 0x56]
00003FEE  2D48 FF38                move.l     [A6 - 0xC8], A0
00003FF2  4A50                     tst.w      [A0]
00003FF4  588F                     addq.l     A7, 4
00003FF6  6608                     bne        +0xA /* 00004000 */
00003FF8  206E FF38                movea.l    A0, [A6 - 0xC8]
00003FFC  30BC 0001                move.w     [A0], 0x1
label00004000:
00004000  2047                     movea.l    A0, D7
00004002  2247                     movea.l    A1, D7
00004004  3028 0052                move.w     D0, [A0 + 0x52]
00004008  D069 0054                add.w      D0, [A1 + 0x54]
0000400C  3F00                     move.w     -[A7], D0
0000400E  2047                     movea.l    A0, D7
00004010  3F28 0054                move.w     -[A7], [A0 + 0x54]
00004014  2047                     movea.l    A0, D7
00004016  3F28 0052                move.w     -[A7], [A0 + 0x52]
0000401A  2F07                     move.l     -[A7], D7
0000401C  2F3C FFFF F8F4           move.l     -[A7], 0xFFFFF8F4
00004022  2F0B                     move.l     -[A7], A3
00004024  4EAD 04FA                jsr        [A5 + 0x4FA /* export_155, CODE:7 @ 00000F42 */]
00004028  4FEF 0012                lea.l      A7, [A7 + 0x12]
0000402C  5244                     addq.w     D4, 1
0000402E  45EA 0058                lea.l      A2, [A2 + 0x58]
label00004032:
00004032  0C44 0006                cmpi.w     D4, 0x6
00004036  6D9C                     blt        -0x62 /* 00003FD4 */
00004038  2F0B                     move.l     -[A7], A3
0000403A  4EAD 04EA                jsr        [A5 + 0x4EA /* export_153, CODE:7 @ 000010CA */]
0000403E  588F                     addq.l     A7, 4
label00004040:
00004040  2F39 FFFF 7D56           move.l     -[A7], [0xFFFF7D56]
00004046  2F3C FFFF F906           move.l     -[A7], 0xFFFFF906
0000404C  A91A                     syscall    SetWTitle
0000404E  2F39 FFFF 9078           move.l     -[A7], [0xFFFF9078]
00004054  2F3C FFFF F90E           move.l     -[A7], 0xFFFFF90E
0000405A  A95F                     syscall    SetControlTitle/SetCTitle
0000405C  33FC 0006 FFFF 9228      move.w     [0xFFFF9228], 0x6
00004064  2F39 FFFF 7D4A           move.l     -[A7], [0xFFFF7D4A]
0000406A  4878 000C                push.l     0xC
0000406E  A945                     syscall    CheckItem
label00004070:
00004070  204C                     movea.l    A0, A4
00004072  A01F                     syscall    DisposPtr/DisposePtr
00004074  4CDF 1CF8                movem.l    D3,D4,D5,D6,D7,A2,A3,A4, [A7]+
00004078  4E5E                     unlink     A6
0000407A  4E75                     rts
fn0000407C:
0000407C  4E56 FF3A                link       A6, -0x00C6
00004080  48E7 1F38                movem.l    -[A7], D3,D4,D5,D6,D7,A2,A3,A4
00004084  203C 0000 40D8           move.l     D0, 0x40D8
0000408A  A11E                     syscall    NewPtr, flags=1
0000408C  2848                     movea.l    A4, A0
0000408E  7600                     moveq.l    D3, 0x00
00004090  3D7C 0064 FFF8           move.w     [A6 - 0x8], 0x64 /* 'd' */
00004096  3D7C 0064 FFF6           move.w     [A6 - 0xA], 0x64 /* 'd' */
0000409C  2D7C 526F 6257 FFE6      move.l     [A6 - 0x1A], 0x526F6257 /* 'RobW' */
label000040A4:
000040A4  2F2E FFF6                move.l     -[A7], [A6 - 0xA]
000040A8  2F3C FFFF 9096           move.l     -[A7], 0xFFFF9096
000040AE  42A7                     clr.l      -[A7]
000040B0  3F3C 0001                move.w     -[A7], 0x1
000040B4  486E FFE6                pea.l      [A6 - 0x1A]
000040B8  42A7                     clr.l      -[A7]
000040BA  486E FF9C                pea.l      [A6 - 0x64]
000040BE  3F3C 0002                move.w     -[A7], 0x2
000040C2  A9EA                     syscall    Pack3
000040C4  4A2E FF9C                tst.b      [A6 - 0x64]
000040C8  6700 0080                beq        +0x82 /* 0000414A */
000040CC  7000                     moveq.l    D0, 0x00
000040CE  102E FFA6                move.b     D0, [A6 - 0x5A]
000040D2  4236 00A7                clr.b      [A6 + D0.w - 0x59]
000040D6  303C 00A6                move.w     D0, 0xA6
000040DA  C1C3                     muls.w     D0, D3
000040DC  D08C                     add.l      D0, A4
000040DE  2640                     movea.l    A3, D0
000040E0  486E FFA6                pea.l      [A6 - 0x5A]
000040E4  2F0B                     move.l     -[A7], A3
000040E6  4EAD 051A                jsr        [A5 + 0x51A /* export_159, CODE:7 @ 000021A6 */]
000040EA  376E FFA2 00A0           move.w     [A3 + 0xA0], [A6 - 0x5E]
000040F0  2EAE FFF6                move.l     [A7], [A6 - 0xA]
000040F4  2F3C FFFF 9096           move.l     -[A7], 0xFFFF9096
000040FA  42A7                     clr.l      -[A7]
000040FC  3F3C 0001                move.w     -[A7], 0x1
00004100  486E FFE6                pea.l      [A6 - 0x1A]
00004104  42A7                     clr.l      -[A7]
00004106  486E FF9C                pea.l      [A6 - 0x64]
0000410A  3F3C 0002                move.w     -[A7], 0x2
0000410E  A9EA                     syscall    Pack3
00004110  4A2E FF9C                tst.b      [A6 - 0x64]
00004114  588F                     addq.l     A7, 4
00004116  6730                     beq        +0x32 /* 00004148 */
00004118  7000                     moveq.l    D0, 0x00
0000411A  102E FFA6                move.b     D0, [A6 - 0x5A]
0000411E  4236 00A7                clr.b      [A6 + D0.w - 0x59]
00004122  486E FFA6                pea.l      [A6 - 0x5A]
00004126  486B 0050                pea.l      [A3 + 0x50]
0000412A  4EAD 051A                jsr        [A5 + 0x51A /* export_159, CODE:7 @ 000021A6 */]
0000412E  376E FFA2 00A2           move.w     [A3 + 0xA2], [A6 - 0x5E]
00004134  3003                     move.w     D0, D3
00004136  5243                     addq.w     D3, 1
00004138  C1FC 00A6                muls.w     D0, 0xA6
0000413C  204C                     movea.l    A0, A4
0000413E  D1C0                     add.l      A0, D0
00004140  4268 00A4                clr.w      [A0 + 0xA4]
00004144  508F                     addq.l     A7, 8
00004146  6002                     bra        +0x4 /* 0000414A */
label00004148:
00004148  76FF                     moveq.l    D3, 0xFFFFFFFF
label0000414A:
0000414A  4A2E FF9C                tst.b      [A6 - 0x64]
0000414E  6708                     beq        +0xA /* 00004158 */
00004150  0C43 0064                cmpi.w     D3, 0x64 /* 'd' */
00004154  6D00 FF4E                blt        -0xB0 /* 000040A4 */
label00004158:
00004158  4267                     clr.w      -[A7]
0000415A  A938                     syscall    HiliteMenu
0000415C  0C43 0002                cmpi.w     D3, 0x2
00004160  6C16                     bge        +0x18 /* 00004178 */
00004162  2F3C FFFF F918           move.l     -[A7], 0xFFFFF918
00004168  2F3C FFFF F932           move.l     -[A7], 0xFFFFF932
0000416E  4EAD 0222                jsr        [A5 + 0x222 /* export_64, CODE:2 @ 00004DCE */]
00004172  508F                     addq.l     A7, 8
00004174  6000 02AA                bra        +0x2AC /* 00004420 */
label00004178:
00004178  2F39 FFFF 7D4A           move.l     -[A7], [0xFFFF7D4A]
0000417E  2F3C 0100 000C           move.l     -[A7], 0x100000C
00004184  A945                     syscall    CheckItem
00004186  33FC 0001 FFFF 922E      move.w     [0xFFFF922E], 0x1
0000418E  33FC 0001 FFFF F1CC      move.w     [0xFFFFF1CC], 0x1
00004196  7800                     moveq.l    D4, 0x00
00004198  70FF                     moveq.l    D0, 0xFFFFFFFF
0000419A  D043                     add.w      D0, D3
0000419C  C1C3                     muls.w     D0, D3
0000419E  48C0                     ext.l      D0
000041A0  81FC 0002                divs.w     D0, 0x2
000041A4  3D40 FF3E                move.w     [A6 - 0xC2], D0
000041A8  323C 00A6                move.w     D1, 0xA6
000041AC  C3C4                     muls.w     D1, D4
000041AE  2641                     movea.l    A3, D1
000041B0  6000 0182                bra        +0x184 /* 00004334 */
label000041B4:
000041B4  7001                     moveq.l    D0, 0x01
000041B6  D044                     add.w      D0, D4
000041B8  3D40 FF3C                move.w     [A6 - 0xC4], D0
000041BC  204B                     movea.l    A0, A3
000041BE  D1CC                     add.l      A0, A4
000041C0  2E08                     move.l     D7, A0
000041C2  244B                     movea.l    A2, A3
000041C4  D5CC                     add.l      A2, A4
000041C6  45EA 00A0                lea.l      A2, [A2 + 0xA0]
000041CA  204B                     movea.l    A0, A3
000041CC  D1CC                     add.l      A0, A4
000041CE  7C50                     moveq.l    D6, 0x50
000041D0  DC88                     add.l      D6, A0
000041D2  204C                     movea.l    A0, A4
000041D4  D1CB                     add.l      A0, A3
000041D6  41E8 00A2                lea.l      A0, [A0 + 0xA2]
000041DA  2D48 FF44                move.l     [A6 - 0xBC], A0
000041DE  224C                     movea.l    A1, A4
000041E0  D3CB                     add.l      A1, A3
000041E2  43E9 00A4                lea.l      A1, [A1 + 0xA4]
000041E6  2D49 FF48                move.l     [A6 - 0xB8], A1
000041EA  C1FC 00A6                muls.w     D0, 0xA6
000041EE  2D40 FF40                move.l     [A6 - 0xC0], D0
000041F2  6000 012A                bra        +0x12C /* 0000431E */
label000041F6:
000041F6  4EBA F038                jsr        [PC - 0xFC8 /* 00003230 */]
000041FA  4279 FFFF 9226           clr.w      [0xFFFF9226]
00004200  2F07                     move.l     -[A7], D7
00004202  2F3C FFFF 955E           move.l     -[A7], 0xFFFF955E
00004208  4EAD 051A                jsr        [A5 + 0x51A /* export_159, CODE:7 @ 000021A6 */]
0000420C  33D2 FFFF 9764           move.w     [0xFFFF9764], [A2]
00004212  4EAD 016A                jsr        [A5 + 0x16A /* export_41, CODE:2 @ 000027BA */]
00004216  33FC 0001 FFFF 978E      move.w     [0xFFFF978E], 0x1
0000421E  2E86                     move.l     [A7], D6
00004220  2F3C FFFF 9920           move.l     -[A7], 0xFFFF9920
00004226  4EAD 051A                jsr        [A5 + 0x51A /* export_159, CODE:7 @ 000021A6 */]
0000422A  206E FF44                movea.l    A0, [A6 - 0xBC]
0000422E  33D0 FFFF 9B26           move.w     [0xFFFF9B26], [A0]
00004234  4EAD 016A                jsr        [A5 + 0x16A /* export_41, CODE:2 @ 000027BA */]
00004238  33FC 0001 FFFF 9B50      move.w     [0xFFFF9B50], 0x1
00004240  2A2E FF40                move.l     D5, [A6 - 0xC0]
00004244  DA8C                     add.l      D5, A4
00004246  2E85                     move.l     [A7], D5
00004248  2F3C FFFF 9CE2           move.l     -[A7], 0xFFFF9CE2
0000424E  4EAD 051A                jsr        [A5 + 0x51A /* export_159, CODE:7 @ 000021A6 */]
00004252  2045                     movea.l    A0, D5
00004254  33E8 00A0 FFFF 9EE8      move.w     [0xFFFF9EE8], [A0 + 0xA0]
0000425C  4EAD 016A                jsr        [A5 + 0x16A /* export_41, CODE:2 @ 000027BA */]
00004260  33FC 0002 FFFF 9F12      move.w     [0xFFFF9F12], 0x2
00004268  2045                     movea.l    A0, D5
0000426A  4868 0050                pea.l      [A0 + 0x50]
0000426E  2F3C FFFF A0A4           move.l     -[A7], 0xFFFFA0A4
00004274  4EAD 051A                jsr        [A5 + 0x51A /* export_159, CODE:7 @ 000021A6 */]
00004278  2045                     movea.l    A0, D5
0000427A  33E8 00A2 FFFF A2AA      move.w     [0xFFFFA2AA], [A0 + 0xA2]
00004282  4EAD 016A                jsr        [A5 + 0x16A /* export_41, CODE:2 @ 000027BA */]
00004286  33FC 0002 FFFF A2D4      move.w     [0xFFFFA2D4], 0x2
0000428E  426E FF3A                clr.w      [A6 - 0xC6]
00004292  41EC 00A4                lea.l      A0, [A4 + 0xA4]
00004296  D1EE FF40                add.l      A0, [A6 - 0xC0]
0000429A  2A08                     move.l     D5, A0
0000429C  4FEF 0018                lea.l      A7, [A7 + 0x18]
000042A0  605A                     bra        +0x5C /* 000042FC */
label000042A2:
000042A2  7001                     moveq.l    D0, 0x01
000042A4  D06E FF3A                add.w      D0, [A6 - 0xC6]
000042A8  3F00                     move.w     -[A7], D0
000042AA  3F2E FF3E                move.w     -[A7], [A6 - 0xC2]
000042AE  3F39 FFFF F1CC           move.w     -[A7], [0xFFFFF1CC]
000042B4  2F3C FFFF F946           move.l     -[A7], 0xFFFFF946
000042BA  486E FF4C                pea.l      [A6 - 0xB4]
000042BE  4EAD 050A                jsr        [A5 + 0x50A /* export_157, CODE:7 @ 000020CA */]
000042C2  486E FF4C                pea.l      [A6 - 0xB4]
000042C6  4EBA F194                jsr        [PC - 0xE6C /* 0000345C */]
000042CA  4A39 FFFF 9558           tst.b      [0xFFFF9558]
000042D0  4FEF 0012                lea.l      A7, [A7 + 0x12]
000042D4  6608                     bne        +0xA /* 000042DE */
000042D6  4A39 FFFF 991A           tst.b      [0xFFFF991A]
000042DC  6706                     beq        +0x8 /* 000042E4 */
label000042DE:
000042DE  206E FF48                movea.l    A0, [A6 - 0xB8]
000042E2  5250                     addq.w     [A0], 1
label000042E4:
000042E4  4A39 FFFF 9CDC           tst.b      [0xFFFF9CDC]
000042EA  6608                     bne        +0xA /* 000042F4 */
000042EC  4A39 FFFF A09E           tst.b      [0xFFFFA09E]
000042F2  6704                     beq        +0x6 /* 000042F8 */
label000042F4:
000042F4  2045                     movea.l    A0, D5
000042F6  5250                     addq.w     [A0], 1
label000042F8:
000042F8  526E FF3A                addq.w     [A6 - 0xC6], 1
label000042FC:
000042FC  0C6E 0005 FF3A           cmpi.w     [A6 - 0xC6], 0x5
00004302  6C08                     bge        +0xA /* 0000430C */
00004304  4A79 FFFF 922E           tst.w      [0xFFFF922E]
0000430A  6696                     bne        -0x68 /* 000042A2 */
label0000430C:
0000430C  5279 FFFF F1CC           addq.w     [0xFFFFF1CC], 1
00004312  526E FF3C                addq.w     [A6 - 0xC4], 1
00004316  06AE 0000 00A6 FF40      addi.l     [A6 - 0xC0], 0xA6
label0000431E:
0000431E  B66E FF3C                cmp.w      D3, [A6 - 0xC4]
00004322  6F0A                     ble        +0xC /* 0000432E */
00004324  4A79 FFFF 922E           tst.w      [0xFFFF922E]
0000432A  6600 FECA                bne        -0x134 /* 000041F6 */
label0000432E:
0000432E  5244                     addq.w     D4, 1
00004330  47EB 00A6                lea.l      A3, [A3 + 0xA6]
label00004334:
00004334  B644                     cmp.w      D3, D4
00004336  6E00 FE7C                bgt        -0x182 /* 000041B4 */
0000433A  2F2E 0008                move.l     -[A7], [A6 + 0x8]
0000433E  4EAD 047A                jsr        [A5 + 0x47A /* export_139, CODE:7 @ 00002398 */]
00004342  2EBC FFFF F95E           move.l     [A7], 0xFFFFF95E
00004348  2F2E 0008                move.l     -[A7], [A6 + 0x8]
0000434C  4EAD 04E2                jsr        [A5 + 0x4E2 /* export_152, CODE:7 @ 00000924 */]
00004350  2640                     movea.l    A3, D0
00004352  200B                     move.l     D0, A3
00004354  508F                     addq.l     A7, 8
00004356  6616                     bne        +0x18 /* 0000436E */
00004358  2F3C FFFF F960           move.l     -[A7], 0xFFFFF960
0000435E  2F3C FFFF F962           move.l     -[A7], 0xFFFFF962
00004364  4EAD 0222                jsr        [A5 + 0x222 /* export_64, CODE:2 @ 00004DCE */]
00004368  508F                     addq.l     A7, 8
0000436A  6000 0084                bra        +0x86 /* 000043F0 */
label0000436E:
0000436E  2F3C FFFF F976           move.l     -[A7], 0xFFFFF976
00004374  2F3C FFFF F97C           move.l     -[A7], 0xFFFFF97C
0000437A  2F3C FFFF F984           move.l     -[A7], 0xFFFFF984
00004380  2F3C FFFF F98C           move.l     -[A7], 0xFFFFF98C
00004386  2F3C FFFF F992           move.l     -[A7], 0xFFFFF992
0000438C  2F0B                     move.l     -[A7], A3
0000438E  4EAD 04FA                jsr        [A5 + 0x4FA /* export_155, CODE:7 @ 00000F42 */]
00004392  7800                     moveq.l    D4, 0x00
00004394  7E00                     moveq.l    D7, 0x00
00004396  4FEF 0018                lea.l      A7, [A7 + 0x18]
0000439A  6048                     bra        +0x4A /* 000043E4 */
label0000439C:
0000439C  2007                     move.l     D0, D7
0000439E  D08C                     add.l      D0, A4
000043A0  2440                     movea.l    A2, D0
000043A2  2F0A                     move.l     -[A7], A2
000043A4  4EAD 047A                jsr        [A5 + 0x47A /* export_139, CODE:7 @ 00002398 */]
000043A8  41F4 7850                lea.l      A0, [A4 + D7 + 0x50]
000043AC  2C08                     move.l     D6, A0
000043AE  2E86                     move.l     [A7], D6
000043B0  4EAD 047A                jsr        [A5 + 0x47A /* export_139, CODE:7 @ 00002398 */]
000043B4  422A 0013                clr.b      [A2 + 0x13]
000043B8  2046                     movea.l    A0, D6
000043BA  4228 0013                clr.b      [A0 + 0x13]
000043BE  3EAA 00A4                move.w     [A7], [A2 + 0xA4]
000043C2  2F06                     move.l     -[A7], D6
000043C4  2F0A                     move.l     -[A7], A2
000043C6  7001                     moveq.l    D0, 0x01
000043C8  D044                     add.w      D0, D4
000043CA  3F00                     move.w     -[A7], D0
000043CC  2F3C FFFF F9A4           move.l     -[A7], 0xFFFFF9A4
000043D2  2F0B                     move.l     -[A7], A3
000043D4  4EAD 04FA                jsr        [A5 + 0x4FA /* export_155, CODE:7 @ 00000F42 */]
000043D8  4FEF 0016                lea.l      A7, [A7 + 0x16]
000043DC  5244                     addq.w     D4, 1
000043DE  0687 0000 00A6           addi.l     D7, 0xA6
label000043E4:
000043E4  B644                     cmp.w      D3, D4
000043E6  6EB4                     bgt        -0x4A /* 0000439C */
000043E8  2F0B                     move.l     -[A7], A3
000043EA  4EAD 04EA                jsr        [A5 + 0x4EA /* export_153, CODE:7 @ 000010CA */]
000043EE  588F                     addq.l     A7, 4
label000043F0:
000043F0  2F39 FFFF 7D56           move.l     -[A7], [0xFFFF7D56]
000043F6  2F3C FFFF F9B6           move.l     -[A7], 0xFFFFF9B6
000043FC  A91A                     syscall    SetWTitle
000043FE  2F39 FFFF 9078           move.l     -[A7], [0xFFFF9078]
00004404  2F3C FFFF F9BE           move.l     -[A7], 0xFFFFF9BE
0000440A  A95F                     syscall    SetControlTitle/SetCTitle
0000440C  33FC 0006 FFFF 9228      move.w     [0xFFFF9228], 0x6
00004414  2F39 FFFF 7D4A           move.l     -[A7], [0xFFFF7D4A]
0000441A  4878 000C                push.l     0xC
0000441E  A945                     syscall    CheckItem
label00004420:
00004420  204C                     movea.l    A0, A4
00004422  A01F                     syscall    DisposPtr/DisposePtr
00004424  4CDF 1CF8                movem.l    D3,D4,D5,D6,D7,A2,A3,A4, [A7]+
00004428  4E5E                     unlink     A6
0000442A  4E75                     rts
fn0000442C:
0000442C  4E56 FF9C                link       A6, -0x0064
00004430  2F0C                     move.l     -[A7], A4
00004432  2D79 FFFF F1C8 FFA2      move.l     [A6 - 0x5E], [0xFFFFF1C8]
0000443A  3D7C 0064 FFA4           move.w     [A6 - 0x5C], 0x64 /* 'd' */
00004440  3D7C 0064 FFA2           move.w     [A6 - 0x5E], 0x64 /* 'd' */
00004446  2D7C 5445 5854 FFF0      move.l     [A6 - 0x10], 0x54455854 /* 'TEXT' */
0000444E  2F2E FFA2                move.l     -[A7], [A6 - 0x5E]
00004452  2F3C FFFF F9C8           move.l     -[A7], 0xFFFFF9C8
00004458  42A7                     clr.l      -[A7]
0000445A  3F3C 0001                move.w     -[A7], 0x1
0000445E  486E FFF0                pea.l      [A6 - 0x10]
00004462  42A7                     clr.l      -[A7]
00004464  486E FFA6                pea.l      [A6 - 0x5A]
00004468  3F3C 0002                move.w     -[A7], 0x2
0000446C  A9EA                     syscall    Pack3
0000446E  4A2E FFA6                tst.b      [A6 - 0x5A]
00004472  6700 00D4                beq        +0xD6 /* 00004548 */
00004476  4267                     clr.w      -[A7]
00004478  486E FFB0                pea.l      [A6 - 0x50]
0000447C  3F2E FFAC                move.w     -[A7], [A6 - 0x54]
00004480  486E FF9C                pea.l      [A6 - 0x64]
00004484  4EAD 03CA                jsr        [A5 + 0x3CA /* export_117, CODE:7 @ 0000274C */]
00004488  4A5F                     tst.w      [A7]+
0000448A  6712                     beq        +0x14 /* 0000449E */
0000448C  2F3C FFFF F9DA           move.l     -[A7], 0xFFFFF9DA
00004492  2F3C FFFF F9DC           move.l     -[A7], 0xFFFFF9DC
00004498  4EAD 0222                jsr        [A5 + 0x222 /* export_64, CODE:2 @ 00004DCE */]
0000449C  508F                     addq.l     A7, 8
label0000449E:
0000449E  4267                     clr.w      -[A7]
000044A0  3F2E FF9C                move.w     -[A7], [A6 - 0x64]
000044A4  486E FF9E                pea.l      [A6 - 0x62]
000044A8  4EAD 0412                jsr        [A5 + 0x412 /* export_126, CODE:7 @ 000028B2 */]
000044AC  4A5F                     tst.w      [A7]+
000044AE  6706                     beq        +0x8 /* 000044B6 */
000044B0  3F3C 0001                move.w     -[A7], 0x1
000044B4  A9C8                     syscall    SysBeep
label000044B6:
000044B6  7003                     moveq.l    D0, 0x03
000044B8  D0AE FF9E                add.l      D0, [A6 - 0x62]
000044BC  A11E                     syscall    NewPtr, flags=1
000044BE  2848                     movea.l    A4, A0
000044C0  4A78 0220                tst.w      [0x00000220 /* MemErr */]
000044C4  6712                     beq        +0x14 /* 000044D8 */
000044C6  2F3C FFFF F9F2           move.l     -[A7], 0xFFFFF9F2
000044CC  2F3C FFFF F9F4           move.l     -[A7], 0xFFFFF9F4
000044D2  4EAD 0222                jsr        [A5 + 0x222 /* export_64, CODE:2 @ 00004DCE */]
000044D6  508F                     addq.l     A7, 8
label000044D8:
000044D8  4267                     clr.w      -[A7]
000044DA  3F2E FF9C                move.w     -[A7], [A6 - 0x64]
000044DE  486E FF9E                pea.l      [A6 - 0x62]
000044E2  2F0C                     move.l     -[A7], A4
000044E4  4EAD 03DA                jsr        [A5 + 0x3DA /* export_119, CODE:7 @ 000027A6 */]
000044E8  4A5F                     tst.w      [A7]+
000044EA  6706                     beq        +0x8 /* 000044F2 */
000044EC  3F3C 0001                move.w     -[A7], 0x1
000044F0  A9C8                     syscall    SysBeep
label000044F2:
000044F2  4267                     clr.w      -[A7]
000044F4  3F2E FF9C                move.w     -[A7], [A6 - 0x64]
000044F8  4EAD 03D2                jsr        [A5 + 0x3D2 /* export_118, CODE:7 @ 0000278C */]
000044FC  4A5F                     tst.w      [A7]+
000044FE  6706                     beq        +0x8 /* 00004506 */
00004500  3F3C 0001                move.w     -[A7], 0x1
00004504  A9C8                     syscall    SysBeep
label00004506:
00004506  204C                     movea.l    A0, A4
00004508  D1EE FF9E                add.l      A0, [A6 - 0x62]
0000450C  10BC 000D                move.b     [A0], 0xD /* '\r' */
00004510  202E FF9E                move.l     D0, [A6 - 0x62]
00004514  19BC 000D 0801           move.b     [A4 + D0 + 0x1], 0xD /* '\r' */
0000451A  202E FF9E                move.l     D0, [A6 - 0x62]
0000451E  4234 0802                clr.b      [A4 + D0 + 0x2]
00004522  2F39 FFFF 7D4A           move.l     -[A7], [0xFFFF7D4A]
00004528  2F3C 0100 000C           move.l     -[A7], 0x100000C
0000452E  A945                     syscall    CheckItem
00004530  3F2E FFAC                move.w     -[A7], [A6 - 0x54]
00004534  2F0C                     move.l     -[A7], A4
00004536  4EBA EF6E                jsr        [PC - 0x1092 /* 000034A6 */]
0000453A  2EB9 FFFF 7D4A           move.l     [A7], [0xFFFF7D4A]
00004540  4878 000C                push.l     0xC
00004544  A945                     syscall    CheckItem
00004546  548F                     addq.l     A7, 2
label00004548:
00004548  285F                     movea.l    A4, [A7]+
0000454A  4E5E                     unlink     A6
0000454C  4E75                     rts
