# near model CODE resource
# jump table entries: 728-822 (95 of them)
export_131:
fn00000000:
00000000  7000                     moveq.l    D0, 0x00
00000002  6012                     bra        +0x14 /* 00000016 */
fn00000004:
00000004  7002                     moveq.l    D0, 0x02
00000006  600E                     bra        +0x10 /* 00000016 */
00000008  7004                     moveq.l    D0, 0x04
0000000A  600A                     bra        +0xC /* 00000016 */
0000000C  7006                     moveq.l    D0, 0x06
0000000E  6006                     bra        +0x8 /* 00000016 */
00000010  7008                     moveq.l    D0, 0x08
00000012  6002                     bra        +0x4 /* 00000016 */
export_130:
00000014  700A                     moveq.l    D0, 0x0A
label00000016:
00000016  205F                     movea.l    A0, [A7]+
00000018  3F00                     move.w     -[A7], D0
0000001A  2F08                     move.l     -[A7], A0
0000001C  ADED                     syscall    Pack6, auto_pop
export_157:
0000001E  4A6F EFD8                tst.w      [A7 - 0x1028]
00000022  4E56 FFD8                link       A6, -0x0028
00000026  48E7 0118                movem.l    -[A7], D7,A3,A4
0000002A  206E 0008                movea.l    A0, [A6 + 0x8]
0000002E  43EE FFF0                lea.l      A1, [A6 - 0x10]
00000032  4A10                     tst.b      [A0]
00000034  22D8                     move.l     [A1]+, [A0]+
00000036  22D8                     move.l     [A1]+, [A0]+
00000038  22D8                     move.l     [A1]+, [A0]+
0000003A  22D8                     move.l     [A1]+, [A0]+
0000003C  302E 000C                move.w     D0, [A6 + 0xC]
00000040  5240                     addq.w     D0, 1
00000042  6706                     beq        +0x8 /* 0000004A */
00000044  5340                     subq.w     D0, 1
00000046  6718                     beq        +0x1A /* 00000060 */
00000048  6040                     bra        +0x42 /* 0000008A */
label0000004A:
0000004A  2F2D FF14                move.l     -[A7], [A5 - 0xEC]
0000004E  4EBA 31D8                jsr        [PC + 0x31D8 /* 00003228 */]
00000052  486E FFF0                pea.l      [A6 - 0x10]
00000056  2F2D FE6C                move.l     -[A7], [A5 - 0x194]
0000005A  4EBA 192E                jsr        [PC + 0x192E /* 0000198A */]
0000005E  602A                     bra        +0x2C /* 0000008A */
label00000060:
00000060  266D FF14                movea.l    A3, [A5 - 0xEC]
00000064  286B 007A                movea.l    A4, [A3 + 0x7A]
00000068  206D FFFC                movea.l    A0, [A5 - 0x4]
0000006C  2E28 001C                move.l     D7, [A0 + 0x1C]
00000070  2F07                     move.l     -[A7], D7
00000072  2F0C                     move.l     -[A7], A4
00000074  2F0C                     move.l     -[A7], A4
00000076  4EBA 3286                jsr        [PC + 0x3286 /* 000032FE */]
0000007A  206D FFFC                movea.l    A0, [A5 - 0x4]
0000007E  4868 0010                pea.l      [A0 + 0x10]
00000082  4EBA 2598                jsr        [PC + 0x2598 /* 0000261C */]
00000086  4EBA 0848                jsr        [PC + 0x848 /* 000008D0 */]
label0000008A:
0000008A  4CDF 1880                movem.l    D7,A3,A4, [A7]+
0000008E  4E5E                     unlink     A6
00000090  205F                     movea.l    A0, [A7]+
00000092  5C4F                     addq.w     A7, 6
00000094  4ED0                     jmp        [A0]
export_158:
00000096  4A6F EFFA                tst.w      [A7 - 0x1006]
0000009A  4E56 FFFA                link       A6, -0x0006
0000009E  48E7 0108                movem.l    -[A7], D7,A4
000000A2  0C6E 0001 0008           cmpi.w     [A6 + 0x8], 0x1
000000A8  664C                     bne        +0x4E /* 000000F6 */
000000AA  4267                     clr.w      -[A7]
000000AC  3F2E 000A                move.w     -[A7], [A6 + 0xA]
000000B0  4EBA 2CAE                jsr        [PC + 0x2CAE /* 00002D60 */]
000000B4  3E1F                     move.w     D7, [A7]+
000000B6  42A7                     clr.l      -[A7]
000000B8  3F07                     move.w     -[A7], D7
000000BA  4EAD 0262                jsr        [A5 + 0x262 /* export_72, CODE:2 @ 000017F4 */]
000000BE  285F                     movea.l    A4, [A7]+
000000C0  200C                     move.l     D0, A4
000000C2  672A                     beq        +0x2C /* 000000EE */
000000C4  102D FE26                move.b     D0, [A5 - 0x1DA]
000000C8  6714                     beq        +0x16 /* 000000DE */
000000CA  4267                     clr.w      -[A7]
000000CC  2F0C                     move.l     -[A7], A4
000000CE  2F2D FE28                move.l     -[A7], [A5 - 0x1D8]
000000D2  4EAD 01E2                jsr        [A5 + 0x1E2 /* export_56, CODE:2 @ 00002692 */]
000000D6  101F                     move.b     D0, [A7]+
000000D8  6704                     beq        +0x6 /* 000000DE */
000000DA  4EAD 0292                jsr        [A5 + 0x292 /* export_78, CODE:2 @ 00000B74 */]
label000000DE:
000000DE  42A7                     clr.l      -[A7]
000000E0  4267                     clr.w      -[A7]
000000E2  2F0C                     move.l     -[A7], A4
000000E4  4EBA 1246                jsr        [PC + 0x1246 /* 0000132C */]
000000E8  422E 000C                clr.b      [A6 + 0xC]
000000EC  6006                     bra        +0x8 /* 000000F4 */
label000000EE:
000000EE  1D7C 0001 000C           move.b     [A6 + 0xC], 0x1
label000000F4:
000000F4  6006                     bra        +0x8 /* 000000FC */
label000000F6:
000000F6  1D7C 0001 000C           move.b     [A6 + 0xC], 0x1
label000000FC:
000000FC  4CDF 1080                movem.l    D7,A4, [A7]+
00000100  4E5E                     unlink     A6
00000102  2E9F                     move.l     [A7], [A7]+
00000104  4E75                     rts
fn00000106:
00000106  4A6F EDEA                tst.w      [A7 - 0x1216]
0000010A  4E56 FDEA                link       A6, -0x0216
0000010E  48E7 0708                movem.l    -[A7], D5,D6,D7,A4
00000112  4267                     clr.w      -[A7]
00000114  2F2E 0008                move.l     -[A7], [A6 + 0x8]
00000118  4EBA 30FC                jsr        [PC + 0x30FC /* 00003216 */]
0000011C  3A1F                     move.w     D5, [A7]+
0000011E  4267                     clr.w      -[A7]
00000120  2F2E 0008                move.l     -[A7], [A6 + 0x8]
00000124  4EBA 30F2                jsr        [PC + 0x30F2 /* 00003218 */]
00000128  3E1F                     move.w     D7, [A7]+
0000012A  42A7                     clr.l      -[A7]
0000012C  4EBA 04A2                jsr        [PC + 0x4A2 /* 000005D0 */]
00000130  285F                     movea.l    A4, [A7]+
00000132  4A47                     tst.w      D7
00000134  6F00 017A                ble        +0x17C /* 000002B0 */
00000138  3005                     move.w     D0, D5
0000013A  5340                     subq.w     D0, 1
0000013C  6B00 0172                bmi        +0x174 /* 000002B0 */
00000140  0C40 0005                cmpi.w     D0, 0x5
00000144  6E00 016A                bgt        +0x16C /* 000002B0 */
00000148  E348                     lsl        D0.w, 1
0000014A  303B 0006                move.w     D0, [PC + D0.w + 0x6]
0000014E  4EFB 0000                jmp        [PC + D0.w]
00000152  000E 0034                ori.b      A6, 0x34 /* '4' */
00000156  0090 010E 0122           ori.l      [A0], 0x10E0122
0000015C  0156                     bchg       [A6], D0
0000015E  0C47 0001                cmpi.w     D7, 0x1
00000162  6606                     bne        +0x8 /* 0000016A */
00000164  4EBA 2E9C                jsr        [PC + 0x2E9C /* 00003002 */]
00000168  6016                     bra        +0x18 /* 00000180 */
label0000016A:
0000016A  2F2D FE32                move.l     -[A7], [A5 - 0x1CE]
0000016E  3F07                     move.w     -[A7], D7
00000170  486E FEF2                pea.l      [A6 - 0x10E]
00000174  4EBA 3246                jsr        [PC + 0x3246 /* 000033BC */]
00000178  486E FEF2                pea.l      [A6 - 0x10E]
0000017C  4EBA 16AE                jsr        [PC + 0x16AE /* 0000182C */]
label00000180:
00000180  6000 012E                bra        +0x130 /* 000002B0 */
00000184  3007                     move.w     D0, D7
00000186  5340                     subq.w     D0, 1
00000188  6B52                     bmi        +0x54 /* 000001DC */
0000018A  0C40 0009                cmpi.w     D0, 0x9 /* '\t' */
0000018E  6E4C                     bgt        +0x4E /* 000001DC */
00000190  E348                     lsl        D0.w, 1
00000192  303B 0006                move.w     D0, [PC + D0.w + 0x6]
00000196  4EFB 0000                jmp        [PC + D0.w]
0000019A  0016 0022                ori.b      [A6], 0x22 /* '\"' */
0000019E  001C 0028                ori.b      [A4]+, 0x28 /* '(' */
000001A2  0044 002E                ori.w      D4, 0x2E /* '.' */
000001A6  0034 003A 0044           ori.b      [A4 + D0.w + 0x44], 0x3A /* ':' */
000001AC  0040 4EBA                ori.w      D0, 0x4EBA
000001B0  0F00                     btst       D0, D7
000001B2  6028                     bra        +0x2A /* 000001DC */
000001B4  4EBA 0EEA                jsr        [PC + 0xEEA /* 000010A0 */]
000001B8  6022                     bra        +0x24 /* 000001DC */
000001BA  4EBA 0ED4                jsr        [PC + 0xED4 /* 00001090 */]
000001BE  601C                     bra        +0x1E /* 000001DC */
000001C0  4EBA 0EFE                jsr        [PC + 0xEFE /* 000010C0 */]
000001C4  6016                     bra        +0x18 /* 000001DC */
000001C6  4EBA 0DBC                jsr        [PC + 0xDBC /* 00000F84 */]
000001CA  6010                     bra        +0x12 /* 000001DC */
000001CC  4EBA 0DC0                jsr        [PC + 0xDC0 /* 00000F8E */]
000001D0  600A                     bra        +0xC /* 000001DC */
000001D2  4EBA 0EE4                jsr        [PC + 0xEE4 /* 000010B8 */]
000001D6  6004                     bra        +0x6 /* 000001DC */
000001D8  4EBA 0EBE                jsr        [PC + 0xEBE /* 00001098 */]
label000001DC:
000001DC  6000 00D2                bra        +0xD4 /* 000002B0 */
000001E0  0C47 0007                cmpi.w     D7, 0x7
000001E4  6C10                     bge        +0x12 /* 000001F6 */
000001E6  4267                     clr.w      -[A7]
000001E8  2007                     move.l     D0, D7
000001EA  5340                     subq.w     D0, 1
000001EC  3F00                     move.w     -[A7], D0
000001EE  4EBA 32B0                jsr        [PC + 0x32B0 /* 000034A0 */]
000001F2  1C1F                     move.b     D6, [A7]+
000001F4  6002                     bra        +0x4 /* 000001F8 */
label000001F6:
000001F6  4206                     clr.b      D6
label000001F8:
000001F8  2006                     move.l     D0, D6
000001FA  0A00 0001                xori.b     D0, 0x1
000001FE  675C                     beq        +0x5E /* 0000025C */
00000200  3007                     move.w     D0, D7
00000202  5340                     subq.w     D0, 1
00000204  6B56                     bmi        +0x58 /* 0000025C */
00000206  0C40 0008                cmpi.w     D0, 0x8
0000020A  6E50                     bgt        +0x52 /* 0000025C */
0000020C  E348                     lsl        D0.w, 1
0000020E  303B 0006                move.w     D0, [PC + D0.w + 0x6]
00000212  4EFB 0000                jmp        [PC + D0.w]
00000216  0014 0048                ori.b      [A4], 0x48 /* 'H' */
0000021A  001C 0024                ori.b      [A4]+, 0x24 /* '$' */
0000021E  002C 0034 003C           ori.b      [A4 + 0x3C], 0x34 /* '4' */
00000224  0048 0044                ori.w      A0, 0x44 /* 'D' */
00000228  2F0C                     move.l     -[A7], A4
0000022A  4EBA 0D96                jsr        [PC + 0xD96 /* 00000FC2 */]
0000022E  602C                     bra        +0x2E /* 0000025C */
00000230  2F0C                     move.l     -[A7], A4
00000232  4EBA 0D86                jsr        [PC + 0xD86 /* 00000FBA */]
00000236  6024                     bra        +0x26 /* 0000025C */
00000238  2F0C                     move.l     -[A7], A4
0000023A  4EBA 0D7A                jsr        [PC + 0xD7A /* 00000FB6 */]
0000023E  601C                     bra        +0x1E /* 0000025C */
00000240  2F0C                     move.l     -[A7], A4
00000242  4EBA 0D7A                jsr        [PC + 0xD7A /* 00000FBE */]
00000246  6014                     bra        +0x16 /* 0000025C */
00000248  2F0C                     move.l     -[A7], A4
0000024A  4EBA 0D66                jsr        [PC + 0xD66 /* 00000FB2 */]
0000024E  600C                     bra        +0xE /* 0000025C */
00000250  2F0C                     move.l     -[A7], A4
00000252  4EBA 0E9A                jsr        [PC + 0xE9A /* 000010EE */]
00000256  6004                     bra        +0x6 /* 0000025C */
00000258  4EBA 1724                jsr        [PC + 0x1724 /* 0000197E */]
label0000025C:
0000025C  6052                     bra        +0x54 /* 000002B0 */
0000025E  3F07                     move.w     -[A7], D7
00000260  42A7                     clr.l      -[A7]
00000262  42A7                     clr.l      -[A7]
00000264  4EBA 036A                jsr        [PC + 0x36A /* 000005D0 */]
00000268  4EBA 1AC0                jsr        [PC + 0x1AC0 /* 00001D2A */]
0000026C  4EAD 00EA                jsr        [A5 + 0xEA /* export_25, CODE:2 @ 000047EC */]
00000270  603E                     bra        +0x40 /* 000002B0 */
00000272  3007                     move.w     D0, D7
00000274  5340                     subq.w     D0, 1
00000276  670E                     beq        +0x10 /* 00000286 */
00000278  5340                     subq.w     D0, 1
0000027A  6712                     beq        +0x14 /* 0000028E */
0000027C  5340                     subq.w     D0, 1
0000027E  671A                     beq        +0x1C /* 0000029A */
00000280  5340                     subq.w     D0, 1
00000282  671C                     beq        +0x1E /* 000002A0 */
00000284  601E                     bra        +0x20 /* 000002A4 */
label00000286:
00000286  2F0C                     move.l     -[A7], A4
00000288  4EBA 0CE2                jsr        [PC + 0xCE2 /* 00000F6C */]
0000028C  6016                     bra        +0x18 /* 000002A4 */
label0000028E:
0000028E  4267                     clr.w      -[A7]
00000290  4EAD 027A                jsr        [A5 + 0x27A /* export_75, CODE:2 @ 00001812 */]
00000294  4EBA 24AA                jsr        [PC + 0x24AA /* 00002740 */]
00000298  600A                     bra        +0xC /* 000002A4 */
label0000029A:
0000029A  4EBA 0E0C                jsr        [PC + 0xE0C /* 000010A8 */]
0000029E  6004                     bra        +0x6 /* 000002A4 */
label000002A0:
000002A0  4EBA 0E26                jsr        [PC + 0xE26 /* 000010C8 */]
label000002A4:
000002A4  600A                     bra        +0xC /* 000002B0 */
000002A6  0C47 0001                cmpi.w     D7, 0x1
000002AA  6604                     bne        +0x6 /* 000002B0 */
000002AC  4EBA 324A                jsr        [PC + 0x324A /* 000034F8 */]
label000002B0:
000002B0  4267                     clr.w      -[A7]
000002B2  4EBA 30EC                jsr        [PC + 0x30EC /* 000033A0 */]
000002B6  4CDF 10E0                movem.l    D5,D6,D7,A4, [A7]+
000002BA  4E5E                     unlink     A6
000002BC  2E9F                     move.l     [A7], [A7]+
000002BE  4E75                     rts
export_161:
000002C0  4A6F EED0                tst.w      [A7 - 0x1130]
000002C4  4E56 FED0                link       A6, -0x0130
000002C8  48E7 0F00                movem.l    -[A7], D4,D5,D6,D7
000002CC  4EBA 0F8E                jsr        [PC + 0xF8E /* 0000125C */]
000002D0  206D FE5E                movea.l    A0, [A5 - 0x1A2]
000002D4  2050                     movea.l    A0, [A0]
000002D6  2F28 0028                move.l     -[A7], [A0 + 0x28]
000002DA  4EBA 2F4C                jsr        [PC + 0x2F4C /* 00003228 */]
000002DE  4EBA 31A4                jsr        [PC + 0x31A4 /* 00003484 */]
000002E2  2F2D FE6C                move.l     -[A7], [A5 - 0x194]
000002E6  4EAD 0112                jsr        [A5 + 0x112 /* export_30, CODE:2 @ 0000447A */]
000002EA  4EBA 068A                jsr        [PC + 0x68A /* 00000976 */]
000002EE  4EBA 05E0                jsr        [PC + 0x5E0 /* 000008D0 */]
000002F2  2F2D FE6C                move.l     -[A7], [A5 - 0x194]
000002F6  4EBA 0B0A                jsr        [PC + 0xB0A /* 00000E02 */]
000002FA  102D FE26                move.b     D0, [A5 - 0x1DA]
000002FE  6708                     beq        +0xA /* 00000308 */
00000300  2F2D FE2C                move.l     -[A7], [A5 - 0x1D4]
00000304  4EBA 31C8                jsr        [PC + 0x31C8 /* 000034CE */]
label00000308:
00000308  4267                     clr.w      -[A7]
0000030A  3F3C FFFF                move.w     -[A7], 0xFFFF
0000030E  486E FFF0                pea.l      [A6 - 0x10]
00000312  4EBA 30F2                jsr        [PC + 0x30F2 /* 00003406 */]
00000316  1E1F                     move.b     D7, [A7]+
00000318  2F2E FFFA                move.l     -[A7], [A6 - 0x6]
0000031C  4EBA 0476                jsr        [PC + 0x476 /* 00000794 */]
00000320  4267                     clr.w      -[A7]
00000322  486E FFF0                pea.l      [A6 - 0x10]
00000326  4EBA 0244                jsr        [PC + 0x244 /* 0000056C */]
0000032A  101F                     move.b     D0, [A7]+
0000032C  670C                     beq        +0xE /* 0000033A */
0000032E  486E FFF0                pea.l      [A6 - 0x10]
00000332  4EBA 0B78                jsr        [PC + 0xB78 /* 00000EAC */]
00000336  6000 022C                bra        +0x22E /* 00000564 */
label0000033A:
0000033A  1007                     move.b     D0, D7
0000033C  6700 0226                beq        +0x228 /* 00000564 */
00000340  302E FFF0                move.w     D0, [A6 - 0x10]
00000344  5340                     subq.w     D0, 1
00000346  6722                     beq        +0x24 /* 0000036A */
00000348  5540                     subq.w     D0, 2
0000034A  6700 01AE                beq        +0x1B0 /* 000004FA */
0000034E  5540                     subq.w     D0, 2
00000350  6700 01A8                beq        +0x1AA /* 000004FA */
00000354  5340                     subq.w     D0, 1
00000356  6700 01BE                beq        +0x1C0 /* 00000516 */
0000035A  5340                     subq.w     D0, 1
0000035C  6700 01C8                beq        +0x1CA /* 00000526 */
00000360  5340                     subq.w     D0, 1
00000362  6700 01CC                beq        +0x1CE /* 00000530 */
00000366  6000 01FC                bra        +0x1FE /* 00000564 */
label0000036A:
0000036A  302D FF2C                move.w     D0, [A5 - 0xD4]
0000036E  48C0                     ext.l      D0
00000370  D0AD FF2E                add.l      D0, [A5 - 0xD2]
00000374  B0AE FFF6                cmp.l      D0, [A6 - 0xA]
00000378  5EC0                     sgt        D0
0000037A  2F00                     move.l     -[A7], D0
0000037C  4267                     clr.w      -[A7]
0000037E  2F2D FF26                move.l     -[A7], [A5 - 0xDA]
00000382  2F2E FFFA                move.l     -[A7], [A6 - 0x6]
00000386  4EBA 1BC0                jsr        [PC + 0x1BC0 /* 00001F48 */]
0000038A  321F                     move.w     D1, [A7]+
0000038C  201F                     move.l     D0, [A7]+
0000038E  0C41 0004                cmpi.w     D1, 0x4
00000392  5DC1                     slt        D1
00000394  C001                     and.b      D0, D1
00000396  6706                     beq        +0x8 /* 0000039E */
00000398  526D FF2A                addq.w     [A5 - 0xD6], 1
0000039C  6006                     bra        +0x8 /* 000003A4 */
label0000039E:
0000039E  3B7C 0001 FF2A           move.w     [A5 - 0xD6], 0x1
label000003A4:
000003A4  2B6E FFF6 FF2E           move.l     [A5 - 0xD2], [A6 - 0xA]
000003AA  2B6E FFFA FF26           move.l     [A5 - 0xDA], [A6 - 0x6]
000003B0  4267                     clr.w      -[A7]
000003B2  2F2E FFFA                move.l     -[A7], [A6 - 0x6]
000003B6  486E FEE8                pea.l      [A6 - 0x118]
000003BA  4EBA 2FCC                jsr        [PC + 0x2FCC /* 00003388 */]
000003BE  3C1F                     move.w     D6, [A7]+
000003C0  3006                     move.w     D0, D6
000003C2  5340                     subq.w     D0, 1
000003C4  6B00 0132                bmi        +0x134 /* 000004F8 */
000003C8  0C40 0005                cmpi.w     D0, 0x5
000003CC  6E00 012A                bgt        +0x12C /* 000004F8 */
000003D0  E348                     lsl        D0.w, 1
000003D2  303B 0006                move.w     D0, [PC + D0.w + 0x6]
000003D6  4EFB 0000                jmp        [PC + D0.w]
000003DA  000E 006C                ori.b      A6, 0x6C /* 'l' */
000003DE  007C 0024                ori.w      sr, 36
000003E2  00C4                     .incomplete
000003E4  00AC 42A7 2F2E FFFA      ori.l      [A4 - 0x6], 0x42A72F2E
000003EC  4EBA 2FBC                jsr        [PC + 0x2FBC /* 000033AA */]
000003F0  2A1F                     move.l     D5, [A7]+
000003F2  2F05                     move.l     -[A7], D5
000003F4  4EBA FD10                jsr        [PC - 0x2F0 /* 00000106 */]
000003F8  6000 00FE                bra        +0x100 /* 000004F8 */
000003FC  4267                     clr.w      -[A7]
000003FE  4EBA 16F0                jsr        [PC + 0x16F0 /* 00001AF0 */]
00000402  101F                     move.b     D0, [A7]+
00000404  0A00 0001                xori.b     D0, 0x1
00000408  6708                     beq        +0xA /* 00000412 */
0000040A  2F2E FEE8                move.l     -[A7], [A6 - 0x118]
0000040E  4EBA 2F5E                jsr        [PC + 0x2F5E /* 0000336E */]
label00000412:
00000412  2F2E FEE8                move.l     -[A7], [A6 - 0x118]
00000416  2F2E FFFA                move.l     -[A7], [A6 - 0x6]
0000041A  486D FE70                pea.l      [A5 - 0x190]
0000041E  4EBA 2F5A                jsr        [PC + 0x2F5A /* 0000337A */]
00000422  4267                     clr.w      -[A7]
00000424  2F2E FEE8                move.l     -[A7], [A6 - 0x118]
00000428  4EBA 18E2                jsr        [PC + 0x18E2 /* 00001D0C */]
0000042C  0C5F 0010                cmpi.w     [A7]+, 0x10
00000430  660E                     bne        +0x10 /* 00000440 */
00000432  42A7                     clr.l      -[A7]
00000434  2F2E FEE8                move.l     -[A7], [A6 - 0x118]
00000438  4EBA 18F0                jsr        [PC + 0x18F0 /* 00001D2A */]
0000043C  4EAD 0142                jsr        [A5 + 0x142 /* export_36, CODE:2 @ 000041C8 */]
label00000440:
00000440  6000 00B6                bra        +0xB8 /* 000004F8 */
00000444  486E FFF0                pea.l      [A6 - 0x10]
00000448  2F2E FEE8                move.l     -[A7], [A6 - 0x118]
0000044C  4EBA 3034                jsr        [PC + 0x3034 /* 00003482 */]
00000450  6000 00A6                bra        +0xA8 /* 000004F8 */
00000454  2F2E FEE8                move.l     -[A7], [A6 - 0x118]
00000458  4EBA 2F14                jsr        [PC + 0x2F14 /* 0000336E */]
0000045C  4EAD 00FA                jsr        [A5 + 0xFA /* export_27, CODE:2 @ 0000472A */]
00000460  4267                     clr.w      -[A7]
00000462  2F2E FEE8                move.l     -[A7], [A6 - 0x118]
00000466  4EBA 18A4                jsr        [PC + 0x18A4 /* 00001D0C */]
0000046A  0C5F 0010                cmpi.w     [A7]+, 0x10
0000046E  6612                     bne        +0x14 /* 00000482 */
00000470  486E FFF0                pea.l      [A6 - 0x10]
00000474  42A7                     clr.l      -[A7]
00000476  2F2E FEE8                move.l     -[A7], [A6 - 0x118]
0000047A  4EBA 18AE                jsr        [PC + 0x18AE /* 00001D2A */]
0000047E  4EBA 150A                jsr        [PC + 0x150A /* 0000198A */]
label00000482:
00000482  6074                     bra        +0x76 /* 000004F8 */
00000484  4267                     clr.w      -[A7]
00000486  2F2E FEE8                move.l     -[A7], [A6 - 0x118]
0000048A  2F2E FFFA                move.l     -[A7], [A6 - 0x6]
0000048E  4EBA 2EDC                jsr        [PC + 0x2EDC /* 0000336C */]
00000492  101F                     move.b     D0, [A7]+
00000494  6704                     beq        +0x6 /* 0000049A */
00000496  4EBA 0AEC                jsr        [PC + 0xAEC /* 00000F84 */]
label0000049A:
0000049A  605C                     bra        +0x5E /* 000004F8 */
0000049C  2F2E FEE8                move.l     -[A7], [A6 - 0x118]
000004A0  4EBA 2ECC                jsr        [PC + 0x2ECC /* 0000336E */]
000004A4  4267                     clr.w      -[A7]
000004A6  2F2E FEE8                move.l     -[A7], [A6 - 0x118]
000004AA  4EBA 1860                jsr        [PC + 0x1860 /* 00001D0C */]
000004AE  0C5F 0010                cmpi.w     [A7]+, 0x10
000004B2  57C0                     seq        D0
000004B4  2F00                     move.l     -[A7], D0
000004B6  4267                     clr.w      -[A7]
000004B8  2F2E FEE8                move.l     -[A7], [A6 - 0x118]
000004BC  4EBA 184E                jsr        [PC + 0x184E /* 00001D0C */]
000004C0  321F                     move.w     D1, [A7]+
000004C2  201F                     move.l     D0, [A7]+
000004C4  0C41 0011                cmpi.w     D1, 0x11
000004C8  57C1                     seq        D1
000004CA  8001                     or.b       D0, D1
000004CC  670C                     beq        +0xE /* 000004DA */
000004CE  2F2E FEE8                move.l     -[A7], [A6 - 0x118]
000004D2  2F2E FFFA                move.l     -[A7], [A6 - 0x6]
000004D6  4EBA 24E6                jsr        [PC + 0x24E6 /* 000029BE */]
label000004DA:
000004DA  4267                     clr.w      -[A7]
000004DC  2F2E FEE8                move.l     -[A7], [A6 - 0x118]
000004E0  4EBA 182A                jsr        [PC + 0x182A /* 00001D0C */]
000004E4  0C5F 0010                cmpi.w     [A7]+, 0x10
000004E8  660E                     bne        +0x10 /* 000004F8 */
000004EA  42A7                     clr.l      -[A7]
000004EC  2F2E FEE8                move.l     -[A7], [A6 - 0x118]
000004F0  4EBA 1838                jsr        [PC + 0x1838 /* 00001D2A */]
000004F4  4EAD 0142                jsr        [A5 + 0x142 /* export_36, CODE:2 @ 000041C8 */]
label000004F8:
000004F8  606A                     bra        +0x6C /* 00000564 */
label000004FA:
000004FA  2F2E FFF2                move.l     -[A7], [A6 - 0xE]
000004FE  2F3C 0000 0100           move.l     -[A7], 0x100
00000504  4EAD 00BA                jsr        [A5 + 0xBA /* export_19, CODE:1 @ 00000E80 */]
00000508  201F                     move.l     D0, [A7]+
0000050A  3F00                     move.w     -[A7], D0
0000050C  3F2E FFFE                move.w     -[A7], [A6 - 0x2]
00000510  4EBA 00F4                jsr        [PC + 0xF4 /* 00000606 */]
00000514  604E                     bra        +0x50 /* 00000564 */
label00000516:
00000516  2D6E FFF2 FEE8           move.l     [A6 - 0x118], [A6 - 0xE]
0000051C  2F2E FEE8                move.l     -[A7], [A6 - 0x118]
00000520  4EAD 00F2                jsr        [A5 + 0xF2 /* export_26, CODE:2 @ 0000038A */]
00000524  603E                     bra        +0x40 /* 00000564 */
label00000526:
00000526  2F2E FFF2                move.l     -[A7], [A6 - 0xE]
0000052A  4EBA 0A12                jsr        [PC + 0xA12 /* 00000F3E */]
0000052E  6034                     bra        +0x36 /* 00000564 */
label00000530:
00000530  302E FFFE                move.w     D0, [A6 - 0x2]
00000534  48C0                     ext.l      D0
00000536  2800                     move.l     D4, D0
00000538  2D6E FFF2 FEE8           move.l     [A6 - 0x118], [A6 - 0xE]
0000053E  42A7                     clr.l      -[A7]
00000540  2F04                     move.l     -[A7], D4
00000542  7001                     moveq.l    D0, 0x01
00000544  2F00                     move.l     -[A7], D0
00000546  4EBA 2CAC                jsr        [PC + 0x2CAC /* 000031F4 */]
0000054A  0C9F 0000 0001           cmpi.l     [A7]+, 0x1
00000550  660A                     bne        +0xC /* 0000055C */
00000552  2F2E FEE8                move.l     -[A7], [A6 - 0x118]
00000556  4EAD 02F2                jsr        [A5 + 0x2F2 /* export_90, CODE:2 @ 000007DA */]
0000055A  6008                     bra        +0xA /* 00000564 */
label0000055C:
0000055C  2F2E FEE8                move.l     -[A7], [A6 - 0x118]
00000560  4EAD 020A                jsr        [A5 + 0x20A /* export_61, CODE:2 @ 0000240C */]
label00000564:
00000564  4CDF 00F0                movem.l    D4,D5,D6,D7, [A7]+
00000568  4E5E                     unlink     A6
0000056A  4E75                     rts
fn0000056C:
0000056C  4A6F EFF0                tst.w      [A7 - 0x1010]
00000570  4E56 FFF0                link       A6, -0x0010
00000574  206E 0008                movea.l    A0, [A6 + 0x8]
00000578  43EE FFF0                lea.l      A1, [A6 - 0x10]
0000057C  4A10                     tst.b      [A0]
0000057E  22D8                     move.l     [A1]+, [A0]+
00000580  22D8                     move.l     [A1]+, [A0]+
00000582  22D8                     move.l     [A1]+, [A0]+
00000584  22D8                     move.l     [A1]+, [A0]+
00000586  4267                     clr.w      -[A7]
00000588  486E FFF0                pea.l      [A6 - 0x10]
0000058C  4EBA 2E90                jsr        [PC + 0x2E90 /* 0000341E */]
00000590  0C6E 0003 FFF0           cmpi.w     [A6 - 0x10], 0x3
00000596  57C0                     seq        D0
00000598  0C6E 0005 FFF0           cmpi.w     [A6 - 0x10], 0x5
0000059E  57C1                     seq        D1
000005A0  8001                     or.b       D0, D1
000005A2  2F00                     move.l     -[A7], D0
000005A4  42A7                     clr.l      -[A7]
000005A6  322E FFFE                move.w     D1, [A6 - 0x2]
000005AA  48C1                     ext.l      D1
000005AC  2F01                     move.l     -[A7], D1
000005AE  2F3C 0000 0100           move.l     -[A7], 0x100
000005B4  4EBA 2C3E                jsr        [PC + 0x2C3E /* 000031F4 */]
000005B8  221F                     move.l     D1, [A7]+
000005BA  201F                     move.l     D0, [A7]+
000005BC  4A81                     tst.l      D1
000005BE  56C1                     sne        D1
000005C0  C001                     and.b      D0, D1
000005C2  5200                     addq.b     D0, 1
000005C4  C01F                     and.b      D0, [A7]+
000005C6  1D40 000C                move.b     [A6 + 0xC], D0
000005CA  4E5E                     unlink     A6
000005CC  2E9F                     move.l     [A7], [A7]+
000005CE  4E75                     rts
fn000005D0:
000005D0  4A6F EFFC                tst.w      [A7 - 0x1004]
000005D4  4E56 FFFC                link       A6, -0x0004
000005D8  2F0C                     move.l     -[A7], A4
000005DA  42A7                     clr.l      -[A7]
000005DC  4EBA 2D9A                jsr        [PC + 0x2D9A /* 00003378 */]
000005E0  285F                     movea.l    A4, [A7]+
000005E2  200C                     move.l     D0, A4
000005E4  6604                     bne        +0x6 /* 000005EA */
000005E6  286D FF14                movea.l    A4, [A5 - 0xEC]
label000005EA:
000005EA  2D4C 0008                move.l     [A6 + 0x8], A4
000005EE  285F                     movea.l    A4, [A7]+
000005F0  4E5E                     unlink     A6
000005F2  4E75                     rts
export_137:
000005F4  4A6F F000                tst.w      [A7 - 0x1000]
000005F8  4E56 0000                link       A6, 0
000005FC  42AE 000C                clr.l      [A6 + 0xC]
00000600  4E5E                     unlink     A6
00000602  2E9F                     move.l     [A7], [A7]+
00000604  4E75                     rts
fn00000606:
00000606  4A6F EFF6                tst.w      [A7 - 0x100A]
0000060A  4E56 FFF6                link       A6, -0x000A
0000060E  48E7 0308                movem.l    -[A7], D6,D7,A4
00000612  42A7                     clr.l      -[A7]
00000614  302E 0008                move.w     D0, [A6 + 0x8]
00000618  48C0                     ext.l      D0
0000061A  2F00                     move.l     -[A7], D0
0000061C  2F3C 0000 0100           move.l     -[A7], 0x100
00000622  4EBA 2BD0                jsr        [PC + 0x2BD0 /* 000031F4 */]
00000626  4A9F                     tst.l      [A7]+
00000628  56C0                     sne        D0
0000062A  4400                     neg.b      D0
0000062C  1E00                     move.b     D7, D0
0000062E  1007                     move.b     D0, D7
00000630  6714                     beq        +0x16 /* 00000646 */
00000632  42A7                     clr.l      -[A7]
00000634  3F2E 000A                move.w     -[A7], [A6 + 0xA]
00000638  4EBA 2D72                jsr        [PC + 0x2D72 /* 000033AC */]
0000063C  2C1F                     move.l     D6, [A7]+
0000063E  2F06                     move.l     -[A7], D6
00000640  4EBA FAC4                jsr        [PC - 0x53C /* 00000106 */]
00000644  605A                     bra        +0x5C /* 000006A0 */
label00000646:
00000646  0C6E 000D 000A           cmpi.w     [A6 + 0xA], 0xD /* '\r' */
0000064C  57C0                     seq        D0
0000064E  0C6E 0003 000A           cmpi.w     [A6 + 0xA], 0x3
00000654  57C1                     seq        D1
00000656  8001                     or.b       D0, D1
00000658  C02D FE26                and.b      D0, [A5 - 0x1DA]
0000065C  6714                     beq        +0x16 /* 00000672 */
0000065E  286D FE28                movea.l    A4, [A5 - 0x1D8]
00000662  4EAD 0292                jsr        [A5 + 0x292 /* export_78, CODE:2 @ 00000B74 */]
00000666  2054                     movea.l    A0, [A4]
00000668  2F28 000E                move.l     -[A7], [A0 + 0xE]
0000066C  4EAD 01AA                jsr        [A5 + 0x1AA /* export_49, CODE:2 @ 00000E04 */]
00000670  602E                     bra        +0x30 /* 000006A0 */
label00000672:
00000672  4267                     clr.w      -[A7]
00000674  41EE 000A                lea.l      A0, [A6 + 0xA]
00000678  2008                     move.l     D0, A0
0000067A  5280                     addq.l     D0, 1
0000067C  2F00                     move.l     -[A7], D0
0000067E  3F3C 0001                move.w     -[A7], 0x1
00000682  4EAD 0192                jsr        [A5 + 0x192 /* export_46, CODE:2 @ 00000BBA */]
00000686  101F                     move.b     D0, [A7]+
00000688  6716                     beq        +0x18 /* 000006A0 */
0000068A  3F2E 000A                move.w     -[A7], [A6 + 0xA]
0000068E  2F2D FE2C                move.l     -[A7], [A5 - 0x1D4]
00000692  4EBA 2E3E                jsr        [PC + 0x2E3E /* 000034D2 */]
00000696  4EAD 018A                jsr        [A5 + 0x18A /* export_45, CODE:2 @ 00000CDA */]
0000069A  1B7C 0001 FE27           move.b     [A5 - 0x1D9], 0x1
label000006A0:
000006A0  4CDF 10C0                movem.l    D6,D7,A4, [A7]+
000006A4  4E5E                     unlink     A6
000006A6  2E9F                     move.l     [A7], [A7]+
000006A8  4E75                     rts
export_106:
000006AA  4A6F F000                tst.w      [A7 - 0x1000]
000006AE  4E56 0000                link       A6, 0
000006B2  422D FF21                clr.b      [A5 - 0xDF]
000006B6  4267                     clr.w      -[A7]
000006B8  4EBA 2D8C                jsr        [PC + 0x2D8C /* 00003446 */]
000006BC  3B5F FE5A                move.w     [A5 - 0x1A6], [A7]+
000006C0  3B6D FE5A FE5C           move.w     [A5 - 0x1A4], [A5 - 0x1A6]
000006C6  3F3C 0007                move.w     -[A7], 0x7
000006CA  1F3C 0001                move.b     -[A7], 0x1
000006CE  3F2D FE5A                move.w     -[A7], [A5 - 0x1A6]
000006D2  4EBA 27F0                jsr        [PC + 0x27F0 /* 00002EC4 */]
000006D6  4EAD 0602                jsr        [A5 + 0x602 /* export_188, CODE:4 @ 00000018 */]
000006DA  42A7                     clr.l      -[A7]
000006DC  4EBA 2D32                jsr        [PC + 0x2D32 /* 00003410 */]
000006E0  2B5F FF2E                move.l     [A5 - 0xD2], [A7]+
000006E4  4EBA 29F4                jsr        [PC + 0x29F4 /* 000030DA */]
000006E8  4E5E                     unlink     A6
000006EA  4E75                     rts
fn000006EC:
000006EC  4A6F F000                tst.w      [A7 - 0x1000]
000006F0  4E56 0000                link       A6, 0
000006F4  2F0C                     move.l     -[A7], A4
000006F6  286E 0008                movea.l    A4, [A6 + 0x8]
000006FA  4267                     clr.w      -[A7]
000006FC  2F2C FFF8                move.l     -[A7], [A4 - 0x8]
00000700  486C FFF4                pea.l      [A4 - 0xC]
00000704  486C FFED                pea.l      [A4 - 0x13]
00000708  2F2E 000C                move.l     -[A7], [A6 + 0xC]
0000070C  4EAD 023A                jsr        [A5 + 0x23A /* export_67, CODE:2 @ 00002062 */]
00000710  101F                     move.b     D0, [A7]+
00000712  6776                     beq        +0x78 /* 0000078A */
00000714  4267                     clr.w      -[A7]
00000716  206C FFF4                movea.l    A0, [A4 - 0xC]
0000071A  2050                     movea.l    A0, [A0]
0000071C  3F28 000A                move.w     -[A7], [A0 + 0xA]
00000720  3F3C 0004                move.w     -[A7], 0x4
00000724  4EBA 15A6                jsr        [PC + 0x15A6 /* 00001CCC */]
00000728  4A5F                     tst.w      [A7]+
0000072A  57C0                     seq        D0
0000072C  C02C FFED                and.b      D0, [A4 - 0x13]
00000730  206C FFF4                movea.l    A0, [A4 - 0xC]
00000734  2050                     movea.l    A0, [A0]
00000736  3228 0024                move.w     D1, [A0 + 0x24]
0000073A  B26D FE5A                cmp.w      D1, [A5 - 0x1A6]
0000073E  56C1                     sne        D1
00000740  C001                     and.b      D0, D1
00000742  2F00                     move.l     -[A7], D0
00000744  4267                     clr.w      -[A7]
00000746  4EBA 121C                jsr        [PC + 0x121C /* 00001964 */]
0000074A  321F                     move.w     D1, [A7]+
0000074C  201F                     move.l     D0, [A7]+
0000074E  0C41 0001                cmpi.w     D1, 0x1
00000752  5FC1                     sle        D1
00000754  C001                     and.b      D0, D1
00000756  2F00                     move.l     -[A7], D0
00000758  4267                     clr.w      -[A7]
0000075A  2F00                     move.l     -[A7], D0
0000075C  4267                     clr.w      -[A7]
0000075E  1F3C 0001                move.b     -[A7], 0x1
00000762  2F2C FFF4                move.l     -[A7], [A4 - 0xC]
00000766  4EAD 0222                jsr        [A5 + 0x222 /* export_64, CODE:2 @ 0000225C */]
0000076A  321F                     move.w     D1, [A7]+
0000076C  201F                     move.l     D0, [A7]+
0000076E  3F01                     move.w     -[A7], D1
00000770  3F3C 0080                move.w     -[A7], 0x80
00000774  4EBA 1556                jsr        [PC + 0x1556 /* 00001CCC */]
00000778  321F                     move.w     D1, [A7]+
0000077A  201F                     move.l     D0, [A7]+
0000077C  4A41                     tst.w      D1
0000077E  57C1                     seq        D1
00000780  C001                     and.b      D0, D1
00000782  6706                     beq        +0x8 /* 0000078A */
00000784  397C 0001 FFD4           move.w     [A4 - 0x2C], 0x1
label0000078A:
0000078A  285F                     movea.l    A4, [A7]+
0000078C  4E5E                     unlink     A6
0000078E  205F                     movea.l    A0, [A7]+
00000790  504F                     addq.w     A7, 8
00000792  4ED0                     jmp        [A0]
fn00000794:
00000794  4A6F EFD4                tst.w      [A7 - 0x102C]
00000798  4E56 FFD4                link       A6, -0x002C
0000079C  48E7 0118                movem.l    -[A7], D7,A3,A4
000007A0  4267                     clr.w      -[A7]
000007A2  42A7                     clr.l      -[A7]
000007A4  4EBA FE2A                jsr        [PC - 0x1D6 /* 000005D0 */]
000007A8  4EBA 1562                jsr        [PC + 0x1562 /* 00001D0C */]
000007AC  4A5F                     tst.w      [A7]+
000007AE  6C04                     bge        +0x6 /* 000007B4 */
000007B0  6000 0114                bra        +0x116 /* 000008C6 */
label000007B4:
000007B4  426E FFD4                clr.w      [A6 - 0x2C]
000007B8  486E FFFC                pea.l      [A6 - 0x4]
000007BC  4EBA 2A6C                jsr        [PC + 0x2A6C /* 0000322A */]
000007C0  2D6E 0008 FFF8           move.l     [A6 - 0x8], [A6 + 0x8]
000007C6  4267                     clr.w      -[A7]
000007C8  2F2E 0008                move.l     -[A7], [A6 + 0x8]
000007CC  486E FFE8                pea.l      [A6 - 0x18]
000007D0  4EBA 2BB6                jsr        [PC + 0x2BB6 /* 00003388 */]
000007D4  3E1F                     move.w     D7, [A7]+
000007D6  3007                     move.w     D0, D7
000007D8  5540                     subq.w     D0, 2
000007DA  6700 00CA                beq        +0xCC /* 000008A6 */
000007DE  5340                     subq.w     D0, 1
000007E0  6704                     beq        +0x6 /* 000007E6 */
000007E2  6000 00D2                bra        +0xD4 /* 000008B6 */
label000007E6:
000007E6  2F2E FFE8                move.l     -[A7], [A6 - 0x18]
000007EA  4EBA 2A3C                jsr        [PC + 0x2A3C /* 00003228 */]
000007EE  486E FFF8                pea.l      [A6 - 0x8]
000007F2  4EBA 2A30                jsr        [PC + 0x2A30 /* 00003224 */]
000007F6  4267                     clr.w      -[A7]
000007F8  2F2E FFE8                move.l     -[A7], [A6 - 0x18]
000007FC  4EBA 150E                jsr        [PC + 0x150E /* 00001D0C */]
00000800  301F                     move.w     D0, [A7]+
00000802  5540                     subq.w     D0, 2
00000804  676C                     beq        +0x6E /* 00000872 */
00000806  0440 000E                subi.w     D0, 0xE
0000080A  6704                     beq        +0x6 /* 00000810 */
0000080C  6000 0096                bra        +0x98 /* 000008A4 */
label00000810:
00000810  42A7                     clr.l      -[A7]
00000812  2F2E FFE8                move.l     -[A7], [A6 - 0x18]
00000816  4EBA 1512                jsr        [PC + 0x1512 /* 00001D2A */]
0000081A  285F                     movea.l    A4, [A7]+
0000081C  2054                     movea.l    A0, [A4]
0000081E  3028 000A                move.w     D0, [A0 + 0xA]
00000822  48C0                     ext.l      D0
00000824  81FC 0100                divs.w     D0, 0x100
00000828  0C40 0001                cmpi.w     D0, 0x1
0000082C  6642                     bne        +0x44 /* 00000870 */
0000082E  206D FFFC                movea.l    A0, [A5 - 0x4]
00000832  43EE FFD6                lea.l      A1, [A6 - 0x2A]
00000836  41E8 0010                lea.l      A0, [A0 + 0x10]
0000083A  22D8                     move.l     [A1]+, [A0]+
0000083C  22D8                     move.l     [A1]+, [A0]+
0000083E  302E FFDC                move.w     D0, [A6 - 0x24]
00000842  907C 0010                sub.w      D0, 0x10
00000846  3D40 FFDC                move.w     [A6 - 0x24], D0
0000084A  302E FFDA                move.w     D0, [A6 - 0x26]
0000084E  907C 0010                sub.w      D0, 0x10
00000852  3D40 FFDA                move.w     [A6 - 0x26], D0
00000856  4267                     clr.w      -[A7]
00000858  2F2E FFF8                move.l     -[A7], [A6 - 0x8]
0000085C  486E FFD6                pea.l      [A6 - 0x2A]
00000860  4EBA 2A34                jsr        [PC + 0x2A34 /* 00003296 */]
00000864  101F                     move.b     D0, [A7]+
00000866  6708                     beq        +0xA /* 00000870 */
00000868  2F0C                     move.l     -[A7], A4
0000086A  2F0E                     move.l     -[A7], A6
0000086C  4EBA FE7E                jsr        [PC - 0x182 /* 000006EC */]
label00000870:
00000870  6032                     bra        +0x34 /* 000008A4 */
label00000872:
00000872  266E FFE8                movea.l    A3, [A6 - 0x18]
00000876  2F0B                     move.l     -[A7], A3
00000878  3F3C 000F                move.w     -[A7], 0xF
0000087C  486E FFE2                pea.l      [A6 - 0x1E]
00000880  486E FFDE                pea.l      [A6 - 0x22]
00000884  486E FFD6                pea.l      [A6 - 0x2A]
00000888  4EBA 2BAE                jsr        [PC + 0x2BAE /* 00003438 */]
0000088C  4267                     clr.w      -[A7]
0000088E  2F2E FFF8                move.l     -[A7], [A6 - 0x8]
00000892  486E FFD6                pea.l      [A6 - 0x2A]
00000896  4EBA 29FE                jsr        [PC + 0x29FE /* 00003296 */]
0000089A  101F                     move.b     D0, [A7]+
0000089C  6706                     beq        +0x8 /* 000008A4 */
0000089E  3D7C 0001 FFD4           move.w     [A6 - 0x2C], 0x1
label000008A4:
000008A4  6010                     bra        +0x12 /* 000008B6 */
label000008A6:
000008A6  4AAE FFE8                tst.l      [A6 - 0x18]
000008AA  660A                     bne        +0xC /* 000008B6 */
000008AC  2F2D FE6C                move.l     -[A7], [A5 - 0x194]
000008B0  2F0E                     move.l     -[A7], A6
000008B2  4EBA FE38                jsr        [PC - 0x1C8 /* 000006EC */]
label000008B6:
000008B6  2F2E FFFC                move.l     -[A7], [A6 - 0x4]
000008BA  4EBA 296C                jsr        [PC + 0x296C /* 00003228 */]
000008BE  3F2E FFD4                move.w     -[A7], [A6 - 0x2C]
000008C2  4EBA 280C                jsr        [PC + 0x280C /* 000030D0 */]
label000008C6:
000008C6  4CDF 1880                movem.l    D7,A3,A4, [A7]+
000008CA  4E5E                     unlink     A6
000008CC  2E9F                     move.l     [A7], [A7]+
000008CE  4E75                     rts
export_99:
fn000008D0:
000008D0  4A6F EFF0                tst.w      [A7 - 0x1010]
000008D4  4E56 FFF0                link       A6, -0x0010
000008D8  486E FFF8                pea.l      [A6 - 0x8]
000008DC  4EBA 294C                jsr        [PC + 0x294C /* 0000322A */]
000008E0  2F2D FF1C                move.l     -[A7], [A5 - 0xE4]
000008E4  4EBA 2942                jsr        [PC + 0x2942 /* 00003228 */]
000008E8  206D FF1C                movea.l    A0, [A5 - 0xE4]
000008EC  4868 0010                pea.l      [A0 + 0x10]
000008F0  4EBA 2946                jsr        [PC + 0x2946 /* 00003238 */]
000008F4  42A7                     clr.l      -[A7]
000008F6  4EBA 2A4E                jsr        [PC + 0x2A4E /* 00003346 */]
000008FA  206D FF1C                movea.l    A0, [A5 - 0xE4]
000008FE  2F28 001C                move.l     -[A7], [A0 + 0x1C]
00000902  206D FF14                movea.l    A0, [A5 - 0xEC]
00000906  2F28 0018                move.l     -[A7], [A0 + 0x18]
0000090A  4EBA 29E0                jsr        [PC + 0x29E0 /* 000032EC */]
0000090E  2D6D FF14 FFFC           move.l     [A6 - 0x4], [A5 - 0xEC]
00000914  4267                     clr.w      -[A7]
00000916  206E FFFC                movea.l    A0, [A6 - 0x4]
0000091A  2F28 007A                move.l     -[A7], [A0 + 0x7A]
0000091E  4EBA 29D8                jsr        [PC + 0x29D8 /* 000032F8 */]
00000922  101F                     move.b     D0, [A7]+
00000924  0A00 0001                xori.b     D0, 0x1
00000928  6740                     beq        +0x42 /* 0000096A */
0000092A  2F2D FF14                move.l     -[A7], [A5 - 0xEC]
0000092E  4EBA 2A44                jsr        [PC + 0x2A44 /* 00003374 */]
00000932  2F2D FF14                move.l     -[A7], [A5 - 0xEC]
00000936  4EBA 28F0                jsr        [PC + 0x28F0 /* 00003228 */]
0000093A  206D FF14                movea.l    A0, [A5 - 0xEC]
0000093E  2068 0018                movea.l    A0, [A0 + 0x18]
00000942  2050                     movea.l    A0, [A0]
00000944  43EE FFF0                lea.l      A1, [A6 - 0x10]
00000948  5488                     addq.l     A0, 2
0000094A  22D8                     move.l     [A1]+, [A0]+
0000094C  22D8                     move.l     [A1]+, [A0]+
0000094E  486E FFF0                pea.l      [A6 - 0x10]
00000952  4EBA 1CC8                jsr        [PC + 0x1CC8 /* 0000261C */]
00000956  486E FFF0                pea.l      [A6 - 0x10]
0000095A  2F2D FE6C                move.l     -[A7], [A5 - 0x194]
0000095E  4EAD 026A                jsr        [A5 + 0x26A /* export_73, CODE:2 @ 00001D18 */]
00000962  2F2D FF14                move.l     -[A7], [A5 - 0xEC]
00000966  4EBA 2A0E                jsr        [PC + 0x2A0E /* 00003376 */]
label0000096A:
0000096A  2F2E FFF8                move.l     -[A7], [A6 - 0x8]
0000096E  4EBA 28B8                jsr        [PC + 0x28B8 /* 00003228 */]
00000972  4E5E                     unlink     A6
00000974  4E75                     rts
fn00000976:
00000976  4A6F EFEE                tst.w      [A7 - 0x1012]
0000097A  4E56 FFEE                link       A6, -0x0012
0000097E  48E7 0F18                movem.l    -[A7], D4,D5,D6,D7,A3,A4
00000982  4267                     clr.w      -[A7]
00000984  4EBA 15F4                jsr        [PC + 0x15F4 /* 00001F7A */]
00000988  101F                     move.b     D0, [A7]+
0000098A  670C                     beq        +0xE /* 00000998 */
0000098C  2F2D FE32                move.l     -[A7], [A5 - 0x1CE]
00000990  4267                     clr.w      -[A7]
00000992  4EBA 2A10                jsr        [PC + 0x2A10 /* 000033A4 */]
00000996  600A                     bra        +0xC /* 000009A2 */
label00000998:
00000998  2F2D FE32                move.l     -[A7], [A5 - 0x1CE]
0000099C  4267                     clr.w      -[A7]
0000099E  4EBA 2A02                jsr        [PC + 0x2A02 /* 000033A2 */]
label000009A2:
000009A2  7E01                     moveq.l    D7, 0x01
000009A4  600C                     bra        +0xE /* 000009B2 */
label000009A6:
000009A6  2F2D FE36                move.l     -[A7], [A5 - 0x1CA]
000009AA  3F07                     move.w     -[A7], D7
000009AC  4EBA 29F6                jsr        [PC + 0x29F6 /* 000033A4 */]
000009B0  5247                     addq.w     D7, 1
label000009B2:
000009B2  0C47 000A                cmpi.w     D7, 0xA /* '\n' */
000009B6  6FEE                     ble        -0x10 /* 000009A6 */
000009B8  7E01                     moveq.l    D7, 0x01
000009BA  600C                     bra        +0xE /* 000009C8 */
label000009BC:
000009BC  2F2D FE3A                move.l     -[A7], [A5 - 0x1C6]
000009C0  3F07                     move.w     -[A7], D7
000009C2  4EBA 29E0                jsr        [PC + 0x29E0 /* 000033A4 */]
000009C6  5247                     addq.w     D7, 1
label000009C8:
000009C8  0C47 0008                cmpi.w     D7, 0x8
000009CC  6FEE                     ble        -0x10 /* 000009BC */
000009CE  7E01                     moveq.l    D7, 0x01
000009D0  600C                     bra        +0xE /* 000009DE */
label000009D2:
000009D2  2F2D FE3E                move.l     -[A7], [A5 - 0x1C2]
000009D6  3F07                     move.w     -[A7], D7
000009D8  4EBA 29CA                jsr        [PC + 0x29CA /* 000033A4 */]
000009DC  5247                     addq.w     D7, 1
label000009DE:
000009DE  0C47 0005                cmpi.w     D7, 0x5
000009E2  6FEE                     ble        -0x10 /* 000009D2 */
000009E4  7E01                     moveq.l    D7, 0x01
000009E6  600C                     bra        +0xE /* 000009F4 */
label000009E8:
000009E8  2F2D FE42                move.l     -[A7], [A5 - 0x1BE]
000009EC  3F07                     move.w     -[A7], D7
000009EE  4EBA 29B4                jsr        [PC + 0x29B4 /* 000033A4 */]
000009F2  5247                     addq.w     D7, 1
label000009F4:
000009F4  0C47 0004                cmpi.w     D7, 0x4
000009F8  6FEE                     ble        -0x10 /* 000009E8 */
000009FA  206D FE68                movea.l    A0, [A5 - 0x198]
000009FE  2050                     movea.l    A0, [A0]
00000A00  4A68 0038                tst.w      [A0 + 0x38]
00000A04  670C                     beq        +0xE /* 00000A12 */
00000A06  2F2D FE42                move.l     -[A7], [A5 - 0x1BE]
00000A0A  3F3C 0002                move.w     -[A7], 0x2
00000A0E  4EBA 2992                jsr        [PC + 0x2992 /* 000033A2 */]
label00000A12:
00000A12  102D FE26                move.b     D0, [A5 - 0x1DA]
00000A16  6716                     beq        +0x18 /* 00000A2E */
00000A18  7E03                     moveq.l    D7, 0x03
00000A1A  600C                     bra        +0xE /* 00000A28 */
label00000A1C:
00000A1C  2F2D FE3A                move.l     -[A7], [A5 - 0x1C6]
00000A20  3F07                     move.w     -[A7], D7
00000A22  4EBA 297E                jsr        [PC + 0x297E /* 000033A2 */]
00000A26  5247                     addq.w     D7, 1
label00000A28:
00000A28  0C47 0006                cmpi.w     D7, 0x6
00000A2C  6FEE                     ble        -0x10 /* 00000A1C */
label00000A2E:
00000A2E  42A7                     clr.l      -[A7]
00000A30  4EBA FB9E                jsr        [PC - 0x462 /* 000005D0 */]
00000A34  285F                     movea.l    A4, [A7]+
00000A36  200C                     move.l     D0, A4
00000A38  6700 00F8                beq        +0xFA /* 00000B32 */
00000A3C  B9ED FF14                cmpa.l     A4, [A5 - 0xEC]
00000A40  6718                     beq        +0x1A /* 00000A5A */
00000A42  2F2D FE36                move.l     -[A7], [A5 - 0x1CA]
00000A46  3F3C 0006                move.w     -[A7], 0x6
00000A4A  4EBA 2956                jsr        [PC + 0x2956 /* 000033A2 */]
00000A4E  2F2D FE36                move.l     -[A7], [A5 - 0x1CA]
00000A52  3F3C 0007                move.w     -[A7], 0x7
00000A56  4EBA 294A                jsr        [PC + 0x294A /* 000033A2 */]
label00000A5A:
00000A5A  382C 006C                move.w     D4, [A4 + 0x6C]
00000A5E  3004                     move.w     D0, D4
00000A60  5540                     subq.w     D0, 2
00000A62  6710                     beq        +0x12 /* 00000A74 */
00000A64  0440 000E                subi.w     D0, 0xE
00000A68  6724                     beq        +0x26 /* 00000A8E */
00000A6A  5340                     subq.w     D0, 1
00000A6C  6700 00A6                beq        +0xA8 /* 00000B14 */
00000A70  6000 00A4                bra        +0xA6 /* 00000B16 */
label00000A74:
00000A74  7E03                     moveq.l    D7, 0x03
00000A76  600C                     bra        +0xE /* 00000A84 */
label00000A78:
00000A78  2F2D FE3A                move.l     -[A7], [A5 - 0x1C6]
00000A7C  3F07                     move.w     -[A7], D7
00000A7E  4EBA 2922                jsr        [PC + 0x2922 /* 000033A2 */]
00000A82  5247                     addq.w     D7, 1
label00000A84:
00000A84  0C47 0006                cmpi.w     D7, 0x6
00000A88  6FEE                     ble        -0x10 /* 00000A78 */
00000A8A  6000 00A6                bra        +0xA8 /* 00000B32 */
label00000A8E:
00000A8E  2F2D FE3A                move.l     -[A7], [A5 - 0x1C6]
00000A92  3F3C 0007                move.w     -[A7], 0x7
00000A96  4EBA 290A                jsr        [PC + 0x290A /* 000033A2 */]
00000A9A  2F2D FE3A                move.l     -[A7], [A5 - 0x1C6]
00000A9E  3F3C 0009                move.w     -[A7], 0x9 /* '\t' */
00000AA2  4EBA 28FE                jsr        [PC + 0x28FE /* 000033A2 */]
00000AA6  B9ED FF14                cmpa.l     A4, [A5 - 0xEC]
00000AAA  6716                     beq        +0x18 /* 00000AC2 */
00000AAC  7E01                     moveq.l    D7, 0x01
00000AAE  600C                     bra        +0xE /* 00000ABC */
label00000AB0:
00000AB0  2F2D FE3E                move.l     -[A7], [A5 - 0x1C2]
00000AB4  3F07                     move.w     -[A7], D7
00000AB6  4EBA 28EA                jsr        [PC + 0x28EA /* 000033A2 */]
00000ABA  5247                     addq.w     D7, 1
label00000ABC:
00000ABC  0C47 0005                cmpi.w     D7, 0x5
00000AC0  6FEE                     ble        -0x10 /* 00000AB0 */
label00000AC2:
00000AC2  7E01                     moveq.l    D7, 0x01
00000AC4  600E                     bra        +0x10 /* 00000AD4 */
label00000AC6:
00000AC6  2F2D FE3E                move.l     -[A7], [A5 - 0x1C2]
00000ACA  3F07                     move.w     -[A7], D7
00000ACC  4267                     clr.w      -[A7]
00000ACE  4EBA 28EA                jsr        [PC + 0x28EA /* 000033BA */]
00000AD2  5247                     addq.w     D7, 1
label00000AD4:
00000AD4  0C47 0005                cmpi.w     D7, 0x5
00000AD8  6FEC                     ble        -0x12 /* 00000AC6 */
00000ADA  42A7                     clr.l      -[A7]
00000ADC  2F0C                     move.l     -[A7], A4
00000ADE  4EBA 124A                jsr        [PC + 0x124A /* 00001D2A */]
00000AE2  265F                     movea.l    A3, [A7]+
00000AE4  2053                     movea.l    A0, [A3]
00000AE6  3028 000A                move.w     D0, [A0 + 0xA]
00000AEA  48C0                     ext.l      D0
00000AEC  81FC 0100                divs.w     D0, 0x100
00000AF0  3C00                     move.w     D6, D0
00000AF2  2F2D FE3E                move.l     -[A7], [A5 - 0x1C2]
00000AF6  3F06                     move.w     -[A7], D6
00000AF8  1F3C 0001                move.b     -[A7], 0x1
00000AFC  4EBA 28BC                jsr        [PC + 0x28BC /* 000033BA */]
00000B00  0C46 0001                cmpi.w     D6, 0x1
00000B04  660C                     bne        +0xE /* 00000B12 */
00000B06  2F2D FE42                move.l     -[A7], [A5 - 0x1BE]
00000B0A  3F3C 0001                move.w     -[A7], 0x1
00000B0E  4EBA 2892                jsr        [PC + 0x2892 /* 000033A2 */]
label00000B12:
00000B12  601E                     bra        +0x20 /* 00000B32 */
label00000B14:
00000B14  601C                     bra        +0x1E /* 00000B32 */
label00000B16:
00000B16  7E01                     moveq.l    D7, 0x01
00000B18  6012                     bra        +0x14 /* 00000B2C */
label00000B1A:
00000B1A  0C47 0002                cmpi.w     D7, 0x2
00000B1E  670A                     beq        +0xC /* 00000B2A */
00000B20  2F2D FE3A                move.l     -[A7], [A5 - 0x1C6]
00000B24  3F07                     move.w     -[A7], D7
00000B26  4EBA 287A                jsr        [PC + 0x287A /* 000033A2 */]
label00000B2A:
00000B2A  5247                     addq.w     D7, 1
label00000B2C:
00000B2C  0C47 0006                cmpi.w     D7, 0x6
00000B30  6FE8                     ble        -0x16 /* 00000B1A */
label00000B32:
00000B32  206D FE5E                movea.l    A0, [A5 - 0x1A2]
00000B36  2050                     movea.l    A0, [A0]
00000B38  3A28 0038                move.w     D5, [A0 + 0x38]
label00000B3C:
00000B3C  4A45                     tst.w      D5
00000B3E  6F00 00EC                ble        +0xEE /* 00000C2C */
00000B42  42A7                     clr.l      -[A7]
00000B44  3F05                     move.w     -[A7], D5
00000B46  2F2D FE5E                move.l     -[A7], [A5 - 0x1A2]
00000B4A  4EAD 0122                jsr        [A5 + 0x122 /* export_32, CODE:2 @ 00004614 */]
00000B4E  265F                     movea.l    A3, [A7]+
00000B50  2053                     movea.l    A0, [A3]
00000B52  3C28 000A                move.w     D6, [A0 + 0xA]
00000B56  4267                     clr.w      -[A7]
00000B58  3F06                     move.w     -[A7], D6
00000B5A  3F3C 0002                move.w     -[A7], 0x2
00000B5E  4EBA 116C                jsr        [PC + 0x116C /* 00001CCC */]
00000B62  4A5F                     tst.w      [A7]+
00000B64  6700 00C0                beq        +0xC2 /* 00000C26 */
00000B68  2053                     movea.l    A0, [A3]
00000B6A  3010                     move.w     D0, [A0]
00000B6C  6716                     beq        +0x18 /* 00000B84 */
00000B6E  5940                     subq.w     D0, 4
00000B70  675A                     beq        +0x5C /* 00000BCC */
00000B72  5940                     subq.w     D0, 4
00000B74  673E                     beq        +0x40 /* 00000BB4 */
00000B76  5940                     subq.w     D0, 4
00000B78  6700 0094                beq        +0x96 /* 00000C0E */
00000B7C  5940                     subq.w     D0, 4
00000B7E  674C                     beq        +0x4E /* 00000BCC */
00000B80  6000 00A4                bra        +0xA6 /* 00000C26 */
label00000B84:
00000B84  7E01                     moveq.l    D7, 0x01
00000B86  600C                     bra        +0xE /* 00000B94 */
label00000B88:
00000B88  2F2D FE36                move.l     -[A7], [A5 - 0x1CA]
00000B8C  3F07                     move.w     -[A7], D7
00000B8E  4EBA 2812                jsr        [PC + 0x2812 /* 000033A2 */]
00000B92  5247                     addq.w     D7, 1
label00000B94:
00000B94  0C47 0004                cmpi.w     D7, 0x4
00000B98  6FEE                     ble        -0x10 /* 00000B88 */
00000B9A  2F2D FE36                move.l     -[A7], [A5 - 0x1CA]
00000B9E  3F3C 0008                move.w     -[A7], 0x8
00000BA2  4EBA 27FE                jsr        [PC + 0x27FE /* 000033A2 */]
00000BA6  2F2D FE42                move.l     -[A7], [A5 - 0x1BE]
00000BAA  3F3C 0004                move.w     -[A7], 0x4
00000BAE  4EBA 27F2                jsr        [PC + 0x27F2 /* 000033A2 */]
00000BB2  6072                     bra        +0x74 /* 00000C26 */
label00000BB4:
00000BB4  7E01                     moveq.l    D7, 0x01
00000BB6  600C                     bra        +0xE /* 00000BC4 */
label00000BB8:
00000BB8  2F2D FE36                move.l     -[A7], [A5 - 0x1CA]
00000BBC  3F07                     move.w     -[A7], D7
00000BBE  4EBA 27E2                jsr        [PC + 0x27E2 /* 000033A2 */]
00000BC2  5247                     addq.w     D7, 1
label00000BC4:
00000BC4  0C47 0004                cmpi.w     D7, 0x4
00000BC8  6FEE                     ble        -0x10 /* 00000BB8 */
00000BCA  605A                     bra        +0x5C /* 00000C26 */
label00000BCC:
00000BCC  2F2D FE36                move.l     -[A7], [A5 - 0x1CA]
00000BD0  3F3C 0001                move.w     -[A7], 0x1
00000BD4  4EBA 27CC                jsr        [PC + 0x27CC /* 000033A2 */]
00000BD8  2F2D FE36                move.l     -[A7], [A5 - 0x1CA]
00000BDC  3F3C 0003                move.w     -[A7], 0x3
00000BE0  4EBA 27C0                jsr        [PC + 0x27C0 /* 000033A2 */]
00000BE4  4267                     clr.w      -[A7]
00000BE6  3F06                     move.w     -[A7], D6
00000BE8  3F3C 0004                move.w     -[A7], 0x4
00000BEC  4EBA 10DE                jsr        [PC + 0x10DE /* 00001CCC */]
00000BF0  4A5F                     tst.w      [A7]+
00000BF2  6618                     bne        +0x1A /* 00000C0C */
00000BF4  2F2D FE36                move.l     -[A7], [A5 - 0x1CA]
00000BF8  3F3C 000A                move.w     -[A7], 0xA /* '\n' */
00000BFC  4EBA 27A4                jsr        [PC + 0x27A4 /* 000033A2 */]
00000C00  2F2D FE42                move.l     -[A7], [A5 - 0x1BE]
00000C04  3F3C 0003                move.w     -[A7], 0x3
00000C08  4EBA 2798                jsr        [PC + 0x2798 /* 000033A2 */]
label00000C0C:
00000C0C  6018                     bra        +0x1A /* 00000C26 */
label00000C0E:
00000C0E  2F2D FE36                move.l     -[A7], [A5 - 0x1CA]
00000C12  3F3C 0001                move.w     -[A7], 0x1
00000C16  4EBA 278A                jsr        [PC + 0x278A /* 000033A2 */]
00000C1A  2F2D FE36                move.l     -[A7], [A5 - 0x1CA]
00000C1E  3F3C 0003                move.w     -[A7], 0x3
00000C22  4EBA 277E                jsr        [PC + 0x277E /* 000033A2 */]
label00000C26:
00000C26  5345                     subq.w     D5, 1
00000C28  6000 FF12                bra        -0xEC /* 00000B3C */
label00000C2C:
00000C2C  4CDF 18F0                movem.l    D4,D5,D6,D7,A3,A4, [A7]+
00000C30  4E5E                     unlink     A6
00000C32  4E75                     rts
export_151:
00000C34  4A6F EFE6                tst.w      [A7 - 0x101A]
00000C38  4E56 FFE6                link       A6, -0x001A
00000C3C  48E7 0318                movem.l    -[A7], D6,D7,A3,A4
00000C40  486E FFE6                pea.l      [A6 - 0x1A]
00000C44  4EBA 25E4                jsr        [PC + 0x25E4 /* 0000322A */]
00000C48  4EBA 19B0                jsr        [PC + 0x19B0 /* 000025FA */]
label00000C4C:
00000C4C  42A7                     clr.l      -[A7]
00000C4E  4EBA 2728                jsr        [PC + 0x2728 /* 00003378 */]
00000C52  4A9F                     tst.l      [A7]+
00000C54  6774                     beq        +0x76 /* 00000CCA */
00000C56  42A7                     clr.l      -[A7]
00000C58  4EBA 271E                jsr        [PC + 0x271E /* 00003378 */]
00000C5C  285F                     movea.l    A4, [A7]+
00000C5E  264C                     movea.l    A3, A4
00000C60  3E2B 006C                move.w     D7, [A3 + 0x6C]
00000C64  422B 006E                clr.b      [A3 + 0x6E]
00000C68  2F2C 0018                move.l     -[A7], [A4 + 0x18]
00000C6C  4EBA 2680                jsr        [PC + 0x2680 /* 000032EE */]
00000C70  4A47                     tst.w      D7
00000C72  6C08                     bge        +0xA /* 00000C7C */
00000C74  2F0C                     move.l     -[A7], A4
00000C76  4EBA 1628                jsr        [PC + 0x1628 /* 000022A0 */]
00000C7A  604C                     bra        +0x4E /* 00000CC8 */
label00000C7C:
00000C7C  3007                     move.w     D0, D7
00000C7E  5540                     subq.w     D0, 2
00000C80  672C                     beq        +0x2E /* 00000CAE */
00000C82  0440 000E                subi.w     D0, 0xE
00000C86  6706                     beq        +0x8 /* 00000C8E */
00000C88  5340                     subq.w     D0, 1
00000C8A  672C                     beq        +0x2E /* 00000CB8 */
00000C8C  603A                     bra        +0x3C /* 00000CC8 */
label00000C8E:
00000C8E  42A7                     clr.l      -[A7]
00000C90  2F0C                     move.l     -[A7], A4
00000C92  4EBA 1096                jsr        [PC + 0x1096 /* 00001D2A */]
00000C96  2C1F                     move.l     D6, [A7]+
00000C98  2046                     movea.l    A0, D6
00000C9A  2050                     movea.l    A0, [A0]
00000C9C  42A8 0028                clr.l      [A0 + 0x28]
00000CA0  2F0C                     move.l     -[A7], A4
00000CA2  4EBA 26E6                jsr        [PC + 0x26E6 /* 0000338A */]
00000CA6  2F0C                     move.l     -[A7], A4
00000CA8  4EBA 2488                jsr        [PC + 0x2488 /* 00003132 */]
00000CAC  601A                     bra        +0x1C /* 00000CC8 */
label00000CAE:
00000CAE  2F0C                     move.l     -[A7], A4
00000CB0  4267                     clr.w      -[A7]
00000CB2  4EAD 02B2                jsr        [A5 + 0x2B2 /* export_82, CODE:2 @ 0000132A */]
00000CB6  6010                     bra        +0x12 /* 00000CC8 */
label00000CB8:
00000CB8  2F0C                     move.l     -[A7], A4
00000CBA  4EBA 26CE                jsr        [PC + 0x26CE /* 0000338A */]
00000CBE  42AD FF18                clr.l      [A5 - 0xE8]
00000CC2  2F0C                     move.l     -[A7], A4
00000CC4  4EBA 246C                jsr        [PC + 0x246C /* 00003132 */]
label00000CC8:
00000CC8  6082                     bra        -0x7C /* 00000C4C */
label00000CCA:
00000CCA  2F2E FFE6                move.l     -[A7], [A6 - 0x1A]
00000CCE  4EBA 2558                jsr        [PC + 0x2558 /* 00003228 */]
00000CD2  4CDF 18C0                movem.l    D6,D7,A3,A4, [A7]+
00000CD6  4E5E                     unlink     A6
00000CD8  4E75                     rts
00000CDA  4A6F EFDE                tst.w      [A7 - 0x1022]
00000CDE  4E56 FFDE                link       A6, -0x0022
00000CE2  48E7 0318                movem.l    -[A7], D6,D7,A3,A4
00000CE6  266E 0008                movea.l    A3, [A6 + 0x8]
00000CEA  2853                     movea.l    A4, [A3]
00000CEC  4A54                     tst.w      [A4]
00000CEE  56C0                     sne        D0
00000CF0  0C54 0008                cmpi.w     [A4], 0x8
00000CF4  56C1                     sne        D1
00000CF6  C001                     and.b      D0, D1
00000CF8  6704                     beq        +0x6 /* 00000CFE */
00000CFA  6000 00F8                bra        +0xFA /* 00000DF4 */
label00000CFE:
00000CFE  2053                     movea.l    A0, [A3]
00000D00  2E28 0012                move.l     D7, [A0 + 0x12]
00000D04  2053                     movea.l    A0, [A3]
00000D06  BEA8 000E                cmp.l      D7, [A0 + 0xE]
00000D0A  6604                     bne        +0x6 /* 00000D10 */
00000D0C  6000 00E6                bra        +0xE8 /* 00000DF4 */
label00000D10:
00000D10  4267                     clr.w      -[A7]
00000D12  2F07                     move.l     -[A7], D7
00000D14  4EAD 0252                jsr        [A5 + 0x252 /* export_70, CODE:2 @ 00001E8C */]
00000D18  101F                     move.b     D0, [A7]+
00000D1A  0A00 0001                xori.b     D0, 0x1
00000D1E  6710                     beq        +0x12 /* 00000D30 */
00000D20  42A7                     clr.l      -[A7]
00000D22  2F0B                     move.l     -[A7], A3
00000D24  4EAD 0282                jsr        [A5 + 0x282 /* export_76, CODE:2 @ 000017B0 */]
00000D28  2E1F                     move.l     D7, [A7]+
00000D2A  2053                     movea.l    A0, [A3]
00000D2C  2147 0012                move.l     [A0 + 0x12], D7
label00000D30:
00000D30  4EAD 0292                jsr        [A5 + 0x292 /* export_78, CODE:2 @ 00000B74 */]
00000D34  2053                     movea.l    A0, [A3]
00000D36  4AA8 0028                tst.l      [A0 + 0x28]
00000D3A  6706                     beq        +0x8 /* 00000D42 */
00000D3C  2F0B                     move.l     -[A7], A3
00000D3E  4EAD 02BA                jsr        [A5 + 0x2BA /* export_83, CODE:2 @ 00001480 */]
label00000D42:
00000D42  2053                     movea.l    A0, [A3]
00000D44  4868 000A                pea.l      [A0 + 0xA]
00000D48  3F3C 0002                move.w     -[A7], 0x2
00000D4C  4EBA 0D4C                jsr        [PC + 0xD4C /* 00001A9A */]
00000D50  2F0B                     move.l     -[A7], A3
00000D52  4EAD 0152                jsr        [A5 + 0x152 /* export_38, CODE:2 @ 00003F1C */]
00000D56  2F0B                     move.l     -[A7], A3
00000D58  4EAD 025A                jsr        [A5 + 0x25A /* export_71, CODE:2 @ 00001E4A */]
00000D5C  2F0B                     move.l     -[A7], A3
00000D5E  4EAD 01F2                jsr        [A5 + 0x1F2 /* export_58, CODE:2 @ 00002548 */]
00000D62  486E FFE0                pea.l      [A6 - 0x20]
00000D66  486E FFF0                pea.l      [A6 - 0x10]
00000D6A  2F0B                     move.l     -[A7], A3
00000D6C  4EAD 01B2                jsr        [A5 + 0x1B2 /* export_50, CODE:2 @ 00003BC6 */]
00000D70  486E FFE0                pea.l      [A6 - 0x20]
00000D74  4EBA 1C36                jsr        [PC + 0x1C36 /* 000029AC */]
00000D78  3F2D FE5C                move.w     -[A7], [A5 - 0x1A4]
00000D7C  4EBA 26D0                jsr        [PC + 0x26D0 /* 0000344E */]
00000D80  2F0B                     move.l     -[A7], A3
00000D82  4EAD 0172                jsr        [A5 + 0x172 /* export_42, CODE:2 @ 00003DB2 */]
00000D86  4267                     clr.w      -[A7]
00000D88  2053                     movea.l    A0, [A3]
00000D8A  2F28 000E                move.l     -[A7], [A0 + 0xE]
00000D8E  4EAD 0102                jsr        [A5 + 0x102 /* export_28, CODE:2 @ 0000462C */]
00000D92  2053                     movea.l    A0, [A3]
00000D94  4868 0002                pea.l      [A0 + 0x2]
00000D98  3F3C FFFF                move.w     -[A7], 0xFFFF
00000D9C  3F3C FFFF                move.w     -[A7], 0xFFFF
00000DA0  4EBA 24A0                jsr        [PC + 0x24A0 /* 00003242 */]
00000DA4  2F0B                     move.l     -[A7], A3
00000DA6  2F07                     move.l     -[A7], D7
00000DA8  4EAD 02DA                jsr        [A5 + 0x2DA /* export_87, CODE:2 @ 00000864 */]
00000DAC  4267                     clr.w      -[A7]
00000DAE  2F07                     move.l     -[A7], D7
00000DB0  4EAD 0102                jsr        [A5 + 0x102 /* export_28, CODE:2 @ 0000462C */]
00000DB4  4267                     clr.w      -[A7]
00000DB6  486E FFE0                pea.l      [A6 - 0x20]
00000DBA  2F0B                     move.l     -[A7], A3
00000DBC  4EAD 00E2                jsr        [A5 + 0xE2 /* export_24, CODE:2 @ 00004874 */]
00000DC0  42A7                     clr.l      -[A7]
00000DC2  2F0B                     move.l     -[A7], A3
00000DC4  4EAD 0242                jsr        [A5 + 0x242 /* export_68, CODE:2 @ 0000212A */]
00000DC8  2C1F                     move.l     D6, [A7]+
00000DCA  2F06                     move.l     -[A7], D6
00000DCC  4EAD 0272                jsr        [A5 + 0x272 /* export_74, CODE:2 @ 00001B80 */]
00000DD0  BC8B                     cmp.l      D6, A3
00000DD2  661A                     bne        +0x1C /* 00000DEE */
00000DD4  2047                     movea.l    A0, D7
00000DD6  2050                     movea.l    A0, [A0]
00000DD8  3028 000A                move.w     D0, [A0 + 0xA]
00000DDC  48C0                     ext.l      D0
00000DDE  81FC 0100                divs.w     D0, 0x100
00000DE2  0C40 0001                cmpi.w     D0, 0x1
00000DE6  6706                     beq        +0x8 /* 00000DEE */
00000DE8  2F07                     move.l     -[A7], D7
00000DEA  4EAD 01F2                jsr        [A5 + 0x1F2 /* export_58, CODE:2 @ 00002548 */]
label00000DEE:
00000DEE  2F0B                     move.l     -[A7], A3
00000DF0  4EAD 02E2                jsr        [A5 + 0x2E2 /* export_88, CODE:2 @ 00000F3A */]
label00000DF4:
00000DF4  4CDF 18C0                movem.l    D6,D7,A3,A4, [A7]+
00000DF8  4E5E                     unlink     A6
00000DFA  205F                     movea.l    A0, [A7]+
00000DFC  DEFC 000A                add.w      A7, 0xA /* '\n' */
00000E00  4ED0                     jmp        [A0]
fn00000E02:
00000E02  4A6F EFF8                tst.w      [A7 - 0x1008]
00000E06  4E56 FFF8                link       A6, -0x0008
00000E0A  48E7 0108                movem.l    -[A7], D7,A4
00000E0E  206E 0008                movea.l    A0, [A6 + 0x8]
00000E12  2050                     movea.l    A0, [A0]
00000E14  3E28 0038                move.w     D7, [A0 + 0x38]
label00000E18:
00000E18  4A47                     tst.w      D7
00000E1A  6F00 0086                ble        +0x88 /* 00000EA2 */
00000E1E  42A7                     clr.l      -[A7]
00000E20  3F07                     move.w     -[A7], D7
00000E22  2F2E 0008                move.l     -[A7], [A6 + 0x8]
00000E26  4EAD 0122                jsr        [A5 + 0x122 /* export_32, CODE:2 @ 00004614 */]
00000E2A  285F                     movea.l    A4, [A7]+
00000E2C  2054                     movea.l    A0, [A4]
00000E2E  4A50                     tst.w      [A0]
00000E30  676A                     beq        +0x6C /* 00000E9C */
00000E32  4267                     clr.w      -[A7]
00000E34  2054                     movea.l    A0, [A4]
00000E36  3F28 000A                move.w     -[A7], [A0 + 0xA]
00000E3A  3F3C 0080                move.w     -[A7], 0x80
00000E3E  4EBA 0E8C                jsr        [PC + 0xE8C /* 00001CCC */]
00000E42  4A5F                     tst.w      [A7]+
00000E44  56C0                     sne        D0
00000E46  2F00                     move.l     -[A7], D0
00000E48  42A7                     clr.l      -[A7]
00000E4A  3F3C 0010                move.w     -[A7], 0x10
00000E4E  2F0C                     move.l     -[A7], A4
00000E50  4EBA 20AA                jsr        [PC + 0x20AA /* 00002EFC */]
00000E54  221F                     move.l     D1, [A7]+
00000E56  201F                     move.l     D0, [A7]+
00000E58  4A81                     tst.l      D1
00000E5A  57C1                     seq        D1
00000E5C  C001                     and.b      D0, D1
00000E5E  6736                     beq        +0x38 /* 00000E96 */
00000E60  4A2D FF20                tst.b      [A5 - 0xE0]
00000E64  660A                     bne        +0xC /* 00000E70 */
00000E66  1F3C 0001                move.b     -[A7], 0x1
00000E6A  2F0C                     move.l     -[A7], A4
00000E6C  4EAD 01C2                jsr        [A5 + 0x1C2 /* export_52, CODE:2 @ 00003AE4 */]
label00000E70:
00000E70  4A2D FF20                tst.b      [A5 - 0xE0]
00000E74  6720                     beq        +0x22 /* 00000E96 */
00000E76  2054                     movea.l    A0, [A4]
00000E78  4868 000A                pea.l      [A0 + 0xA]
00000E7C  3F3C 0080                move.w     -[A7], 0x80
00000E80  4EBA 0C18                jsr        [PC + 0xC18 /* 00001A9A */]
00000E84  2054                     movea.l    A0, [A4]
00000E86  42A8 0028                clr.l      [A0 + 0x28]
00000E8A  2F0C                     move.l     -[A7], A4
00000E8C  4EAD 02E2                jsr        [A5 + 0x2E2 /* export_88, CODE:2 @ 00000F3A */]
00000E90  2F0C                     move.l     -[A7], A4
00000E92  4EAD 01FA                jsr        [A5 + 0x1FA /* export_59, CODE:2 @ 00002666 */]
label00000E96:
00000E96  2F0C                     move.l     -[A7], A4
00000E98  4EBA FF68                jsr        [PC - 0x98 /* 00000E02 */]
label00000E9C:
00000E9C  5347                     subq.w     D7, 1
00000E9E  6000 FF78                bra        -0x86 /* 00000E18 */
label00000EA2:
00000EA2  4CDF 1080                movem.l    D7,A4, [A7]+
00000EA6  4E5E                     unlink     A6
00000EA8  2E9F                     move.l     [A7], [A7]+
00000EAA  4E75                     rts
fn00000EAC:
00000EAC  4E56 FF6A                link       A6, -0x0096
00000EB0  48E7 1F38                movem.l    -[A7], D3,D4,D5,D6,D7,A2,A3,A4
00000EB4  554F                     subq.w     A7, 2
00000EB6  2F2E 0008                move.l     -[A7], [A6 + 0x8]
00000EBA  486E FFFC                pea.l      [A6 - 0x4]
00000EBE  486E FFFA                pea.l      [A6 - 0x6]
00000EC2  A980                     syscall    DialogSelect
00000EC4  4A1F                     tst.b      [A7]+
00000EC6  6700 006C                beq        +0x6E /* 00000F34 */
00000ECA  302E FFFA                move.w     D0, [A6 - 0x6]
00000ECE  0C40 000E                cmpi.w     D0, 0xE
00000ED2  6600 0060                bne        +0x62 /* 00000F34 */
00000ED6  286E FFFC                movea.l    A4, [A6 - 0x4]
00000EDA  266C 0098                movea.l    A3, [A4 + 0x98]
00000EDE  2453                     movea.l    A2, [A3]
00000EE0  0C52 0000                cmpi.w     [A2], 0x0
00000EE4  6708                     beq        +0xA /* 00000EEE */
00000EE6  0C52 0008                cmpi.w     [A2], 0x8
00000EEA  6600 0048                bne        +0x4A /* 00000F34 */
label00000EEE:
00000EEE  202A 000E                move.l     D0, [A2 + 0xE]
00000EF2  B0AD FE68                cmp.l      D0, [A5 - 0x198]
00000EF6  6700 003C                beq        +0x3E /* 00000F34 */
00000EFA  594F                     subq.w     A7, 4
00000EFC  2F0C                     move.l     -[A7], A4
00000EFE  3F3C 000E                move.w     -[A7], 0xE
00000F02  4EBA 19E6                jsr        [PC + 0x19E6 /* 000028EA */]
00000F06  261F                     move.l     D3, [A7]+
00000F08  554F                     subq.w     A7, 2
00000F0A  2F03                     move.l     -[A7], D3
00000F0C  A960                     syscall    GetControlValue/GetCtlValue
00000F0E  381F                     move.w     D4, [A7]+
00000F10  4444                     neg.w      D4
00000F12  5244                     addq.w     D4, 1
00000F14  2453                     movea.l    A2, [A3]
00000F16  4A44                     tst.w      D4
00000F18  6708                     beq        +0xA /* 00000F22 */
00000F1A  08EA 0007 0026           bset.b     [A2 + 0x26], 0x7
00000F20  6006                     bra        +0x8 /* 00000F28 */
label00000F22:
00000F22  08AA 0007 0026           bclr.b     [A2 + 0x26], 0x7
label00000F28:
00000F28  2F0B                     move.l     -[A7], A3
00000F2A  4EAD 02E2                jsr        [A5 + 0x2E2 /* export_88, CODE:2 @ 00000F3A */]
00000F2E  2F03                     move.l     -[A7], D3
00000F30  3F04                     move.w     -[A7], D4
00000F32  A963                     syscall    SetControlValue/SetCtlValue
label00000F34:
00000F34  4CDF 1CF8                movem.l    D3,D4,D5,D6,D7,A2,A3,A4, [A7]+
00000F38  4E5E                     unlink     A6
00000F3A  2E9F                     move.l     [A7], [A7]+
00000F3C  4E75                     rts
fn00000F3E:
00000F3E  4E56 FFB0                link       A6, -0x0050
00000F42  48E7 0138                movem.l    -[A7], D7,A2,A3,A4
00000F46  202E 0008                move.l     D0, [A6 + 0x8]
00000F4A  3E00                     move.w     D7, D0
00000F4C  4A6E 0008                tst.w      [A6 + 0x8]
00000F50  6710                     beq        +0x12 /* 00000F62 */
00000F52  554F                     subq.w     A7, 2
00000F54  2F3C 0040 0040           move.l     -[A7], 0x400040 /* '@\0@' */
00000F5A  2F00                     move.l     -[A7], D0
00000F5C  4267                     clr.w      -[A7]
00000F5E  A9E9                     syscall    Pack2
00000F60  301F                     move.w     D0, [A7]+
label00000F62:
00000F62  4CDF 1C80                movem.l    D7,A2,A3,A4, [A7]+
00000F66  4E5E                     unlink     A6
00000F68  2E9F                     move.l     [A7], [A7]+
00000F6A  4E75                     rts
fn00000F6C:
00000F6C  206F 0004                movea.l    A0, [A7 + 0x4]
00000F70  0C68 0010 006C           cmpi.w     [A0 + 0x6C], 0x10
00000F76  6608                     bne        +0xA /* 00000F80 */
00000F78  2F28 0098                move.l     -[A7], [A0 + 0x98]
00000F7C  4EAD 02EA                jsr        [A5 + 0x2EA /* export_89, CODE:2 @ 000008EC */]
label00000F80:
00000F80  2E9F                     move.l     [A7], [A7]+
00000F82  4E75                     rts
fn00000F84:
00000F84  594F                     subq.w     A7, 4
00000F86  A924                     syscall    FrontWindow
00000F88  6100 026A                bsr        +0x26C /* 000011F4 */
00000F8C  4E75                     rts
fn00000F8E:
00000F8E  4E56 FFF0                link       A6, -0x0010
00000F92  48E7 0038                movem.l    -[A7], A2,A3,A4
label00000F96:
00000F96  594F                     subq.w     A7, 4
00000F98  A924                     syscall    FrontWindow
00000F9A  4A9F                     tst.l      [A7]+
00000F9C  670C                     beq        +0xE /* 00000FAA */
00000F9E  61E4                     bsr        -0x1A /* 00000F84 */
00000FA0  42B8 0A64                clr.l      [0x00000A64 /* CurActivate */]
00000FA4  42B8 0A68                clr.l      [0x00000A68 /* CurDeactive */]
00000FA8  60EC                     bra        -0x12 /* 00000F96 */
label00000FAA:
00000FAA  4CDF 1C00                movem.l    A2,A3,A4, [A7]+
00000FAE  4E5E                     unlink     A6
00000FB0  4E75                     rts
fn00000FB2:
00000FB2  7006                     moveq.l    D0, 0x06
00000FB4  600E                     bra        +0x10 /* 00000FC4 */
fn00000FB6:
00000FB6  7004                     moveq.l    D0, 0x04
00000FB8  600A                     bra        +0xC /* 00000FC4 */
fn00000FBA:
00000FBA  7003                     moveq.l    D0, 0x03
00000FBC  6006                     bra        +0x8 /* 00000FC4 */
fn00000FBE:
00000FBE  7005                     moveq.l    D0, 0x05
00000FC0  6002                     bra        +0x4 /* 00000FC4 */
fn00000FC2:
00000FC2  7001                     moveq.l    D0, 0x01
label00000FC4:
00000FC4  4E56 0000                link       A6, 0
00000FC8  48E7 0038                movem.l    -[A7], A2,A3,A4
00000FCC  3E00                     move.w     D7, D0
00000FCE  286E 0008                movea.l    A4, [A6 + 0x8]
00000FD2  0C6C 0002 006C           cmpi.w     [A4 + 0x6C], 0x2
00000FD8  6770                     beq        +0x72 /* 0000104A */
00000FDA  4A2D FE26                tst.b      [A5 - 0x1DA]
00000FDE  6768                     beq        +0x6A /* 00001048 */
00000FE0  4EAD 019A                jsr        [A5 + 0x19A /* export_47, CODE:2 @ 00000D4C */]
00000FE4  2F2D FE2C                move.l     -[A7], [A5 - 0x1D4]
00000FE8  0C47 0004                cmpi.w     D7, 0x4
00000FEC  6608                     bne        +0xA /* 00000FF6 */
00000FEE  A9D5                     syscall    TECopy
00000FF0  6100 08A2                bsr        +0x8A4 /* 00001894 */
00000FF4  6052                     bra        +0x54 /* 00001048 */
label00000FF6:
00000FF6  0C47 0003                cmpi.w     D7, 0x3
00000FFA  6706                     beq        +0x8 /* 00001002 */
00000FFC  0C47 0006                cmpi.w     D7, 0x6
00001000  661C                     bne        +0x1E /* 0000101E */
label00001002:
00001002  554F                     subq.w     A7, 2
00001004  42A7                     clr.l      -[A7]
00001006  4267                     clr.w      -[A7]
00001008  4EAD 0192                jsr        [A5 + 0x192 /* export_46, CODE:2 @ 00000BBA */]
0000100C  4A1F                     tst.b      [A7]+
0000100E  6738                     beq        +0x3A /* 00001048 */
00001010  A9D6                     syscall    TECut
00001012  0C47 0006                cmpi.w     D7, 0x6
00001016  6728                     beq        +0x2A /* 00001040 */
00001018  6100 087A                bsr        +0x87C /* 00001894 */
0000101C  6022                     bra        +0x24 /* 00001040 */
label0000101E:
0000101E  0C47 0005                cmpi.w     D7, 0x5
00001022  6662                     bne        +0x64 /* 00001086 */
00001024  6100 0184                bsr        +0x186 /* 000011AA */
00001028  6B16                     bmi        +0x18 /* 00001040 */
0000102A  554F                     subq.w     A7, 2
0000102C  2078 0AB4                movea.l    A0, [0x00000AB4 /* TEScrpHandle */]
00001030  2F10                     move.l     -[A7], [A0]
00001032  3F38 0AB0                move.w     -[A7], [0x00000AB0 /* TEScrpLength */]
00001036  4EAD 0192                jsr        [A5 + 0x192 /* export_46, CODE:2 @ 00000BBA */]
0000103A  4A1F                     tst.b      [A7]+
0000103C  670A                     beq        +0xC /* 00001048 */
0000103E  A9DB                     syscall    TEPaste
label00001040:
00001040  50ED FE27                st         [A5 - 0x1D9]
00001044  4EAD 018A                jsr        [A5 + 0x18A /* export_45, CODE:2 @ 00000CDA */]
label00001048:
00001048  603C                     bra        +0x3E /* 00001086 */
label0000104A:
0000104A  2F0C                     move.l     -[A7], A4
0000104C  0C47 0004                cmpi.w     D7, 0x4
00001050  6606                     bne        +0x8 /* 00001058 */
00001052  4EBA 2164                jsr        [PC + 0x2164 /* 000031B8 */]
00001056  6016                     bra        +0x18 /* 0000106E */
label00001058:
00001058  0C47 0003                cmpi.w     D7, 0x3
0000105C  6706                     beq        +0x8 /* 00001064 */
0000105E  0C47 0006                cmpi.w     D7, 0x6
00001062  6610                     bne        +0x12 /* 00001074 */
label00001064:
00001064  4EBA 214A                jsr        [PC + 0x214A /* 000031B0 */]
00001068  0C47 0006                cmpi.w     D7, 0x6
0000106C  6718                     beq        +0x1A /* 00001086 */
label0000106E:
0000106E  6100 0824                bsr        +0x826 /* 00001894 */
00001072  6012                     bra        +0x14 /* 00001086 */
label00001074:
00001074  0C47 0005                cmpi.w     D7, 0x5
00001078  660C                     bne        +0xE /* 00001086 */
0000107A  6100 012E                bsr        +0x130 /* 000011AA */
0000107E  6B06                     bmi        +0x8 /* 00001086 */
00001080  4EBA 2124                jsr        [PC + 0x2124 /* 000031A6 */]
00001084  4E71                     nop
label00001086:
00001086  4CDF 1C00                movem.l    A2,A3,A4, [A7]+
0000108A  4E5E                     unlink     A6
0000108C  2E9F                     move.l     [A7], [A7]+
0000108E  4E75                     rts
fn00001090:
00001090  7001                     moveq.l    D0, 0x01
00001092  41ED 02C2                lea.l      A0, [A5 + 0x2C2 /* export_84, CODE:2 @ 00001234 */]
00001096  6036                     bra        +0x38 /* 000010CE */
fn00001098:
00001098  7000                     moveq.l    D0, 0x00
0000109A  41FA 0290                lea.l      A0, [PC + 0x290 /* 0000132C, value 0x61D82654 */]
0000109E  602E                     bra        +0x30 /* 000010CE */
fn000010A0:
000010A0  7000                     moveq.l    D0, 0x00
000010A2  41FA 02AC                lea.l      A0, [PC + 0x2AC /* 00001350, value 0x61B44EAD */]
000010A6  6026                     bra        +0x28 /* 000010CE */
fn000010A8:
000010A8  7001                     moveq.l    D0, 0x01
000010AA  41ED 0202                lea.l      A0, [A5 + 0x202 /* export_60, CODE:2 @ 0000259E */]
000010AE  601E                     bra        +0x20 /* 000010CE */
000010B0  7001                     moveq.l    D0, 0x01
000010B2  41ED 01BA                lea.l      A0, [A5 + 0x1BA /* export_51, CODE:2 @ 00003A2C */]
000010B6  6016                     bra        +0x18 /* 000010CE */
fn000010B8:
000010B8  7001                     moveq.l    D0, 0x01
000010BA  41ED 01A2                lea.l      A0, [A5 + 0x1A2 /* export_48, CODE:2 @ 00003CA4 */]
000010BE  600E                     bra        +0x10 /* 000010CE */
fn000010C0:
000010C0  7000                     moveq.l    D0, 0x00
000010C2  41FA FC16                lea.l      A0, [PC - 0x3EA /* 00000CDA, value 0x4A6FEFDE */]
000010C6  6006                     bra        +0x8 /* 000010CE */
fn000010C8:
000010C8  7001                     moveq.l    D0, 0x01
000010CA  41ED 014A                lea.l      A0, [A5 + 0x14A /* export_37, CODE:2 @ 00004114 */]
label000010CE:
000010CE  4A40                     tst.w      D0
000010D0  6708                     beq        +0xA /* 000010DA */
000010D2  2F2D FE5E                move.l     -[A7], [A5 - 0x1A2]
000010D6  4E90                     jsr        [A0]
000010D8  4E75                     rts
label000010DA:
000010DA  4267                     clr.w      -[A7]
000010DC  486D 0162                pea.l      [A5 + 0x162 /* export_40, CODE:2 @ 00003F3A */]
000010E0  2F08                     move.l     -[A7], A0
000010E2  42A7                     clr.l      -[A7]
000010E4  2F2D FE5E                move.l     -[A7], [A5 - 0x1A2]
000010E8  4EAD 0232                jsr        [A5 + 0x232 /* export_66, CODE:2 @ 00002164 */]
000010EC  4E75                     rts
fn000010EE:
000010EE  4E56 0000                link       A6, 0
000010F2  48E7 0038                movem.l    -[A7], A2,A3,A4
000010F6  286E 0008                movea.l    A4, [A6 + 0x8]
000010FA  302C 006C                move.w     D0, [A4 + 0x6C]
000010FE  0C40 0010                cmpi.w     D0, 0x10
00001102  6620                     bne        +0x22 /* 00001124 */
00001104  51E7                     sf         -[A7]
00001106  50E7                     st         -[A7]
00001108  4EAD 012A                jsr        [A5 + 0x12A /* export_33, CODE:2 @ 0000118C */]
0000110C  2F0C                     move.l     -[A7], A4
0000110E  A873                     syscall    SetPort
00001110  2B6C 0098 FE5E           move.l     [A5 - 0x1A2], [A4 + 0x98]
00001116  2055                     movea.l    A0, [A5]
00001118  4868 FF72                pea.l      [A0 - 0x8E]
0000111C  2F2D FE5E                move.l     -[A7], [A5 - 0x1A2]
00001120  4EAD 016A                jsr        [A5 + 0x16A /* export_41, CODE:2 @ 00003F52 */]
label00001124:
00001124  4CDF 1C00                movem.l    A2,A3,A4, [A7]+
00001128  4E5E                     unlink     A6
0000112A  2E9F                     move.l     [A7], [A7]+
0000112C  4E75                     rts
fn0000112E:
0000112E  4E56 FFF8                link       A6, -0x0008
00001132  48E7 0038                movem.l    -[A7], A2,A3,A4
00001136  286E 000C                movea.l    A4, [A6 + 0xC]
0000113A  2F0C                     move.l     -[A7], A4
0000113C  A873                     syscall    SetPort
0000113E  4EBA 1182                jsr        [PC + 0x1182 /* 000022C2 */]
00001142  594F                     subq.w     A7, 4
00001144  A8D8                     syscall    NewRgn
00001146  265F                     movea.l    A3, [A7]+
00001148  7008                     moveq.l    D0, 0x08
0000114A  41EC 0010                lea.l      A0, [A4 + 0x10]
0000114E  43EE FFF8                lea.l      A1, [A6 - 0x8]
00001152  A02E                     syscall    BlockMove/BlockMoveData
00001154  04A9 000F 000F 0004      subi.l     [A1 + 0x4], 0xF000F
0000115C  2F09                     move.l     -[A7], A1
0000115E  302E 000A                move.w     D0, [A6 + 0xA]
00001162  4440                     neg.w      D0
00001164  3F00                     move.w     -[A7], D0
00001166  302E 0008                move.w     D0, [A6 + 0x8]
0000116A  4440                     neg.w      D0
0000116C  3F00                     move.w     -[A7], D0
0000116E  2F0B                     move.l     -[A7], A3
00001170  A8EF                     syscall    ScrollRect
00001172  2F0B                     move.l     -[A7], A3
00001174  A879                     syscall    SetClip
00001176  2053                     movea.l    A0, [A3]
00001178  7008                     moveq.l    D0, 0x08
0000117A  41E8 0002                lea.l      A0, [A0 + 0x2]
0000117E  43EE FFF8                lea.l      A1, [A6 - 0x8]
00001182  A02E                     syscall    BlockMove/BlockMoveData
00001184  2F09                     move.l     -[A7], A1
00001186  2F2C 0098                move.l     -[A7], [A4 + 0x98]
0000118A  4EAD 026A                jsr        [A5 + 0x26A /* export_73, CODE:2 @ 00001D18 */]
0000118E  2F2C 0098                move.l     -[A7], [A4 + 0x98]
00001192  4EAD 0142                jsr        [A5 + 0x142 /* export_36, CODE:2 @ 000041C8 */]
00001196  2F0B                     move.l     -[A7], A3
00001198  A8D9                     syscall    DisposRgn/DisposeRgn
0000119A  4EBA 112A                jsr        [PC + 0x112A /* 000022C6 */]
0000119E  4CDF 1C00                movem.l    A2,A3,A4, [A7]+
000011A2  4E5E                     unlink     A6
000011A4  205F                     movea.l    A0, [A7]+
000011A6  504F                     addq.w     A7, 8
000011A8  4ED0                     jmp        [A0]
fn000011AA:
000011AA  594F                     subq.w     A7, 4
000011AC  42A7                     clr.l      -[A7]
000011AE  2F3C 5445 5854           move.l     -[A7], 0x54455854 /* 'TEXT' */
000011B4  4878 09FA                push.l     0x9FA
000011B8  A9FD                     syscall    GetScrap
000011BA  201F                     move.l     D0, [A7]+
000011BC  6B28                     bmi        +0x2A /* 000011E6 */
000011BE  554F                     subq.w     A7, 2
000011C0  2F00                     move.l     -[A7], D0
000011C2  4EBA 0E64                jsr        [PC + 0xE64 /* 00002028 */]
000011C6  4A1F                     tst.b      [A7]+
000011C8  6604                     bne        +0x6 /* 000011CE */
000011CA  7094                     moveq.l    D0, 0xFFFFFF94
000011CC  6018                     bra        +0x1A /* 000011E6 */
label000011CE:
000011CE  594F                     subq.w     A7, 4
000011D0  2F38 0AB4                move.l     -[A7], [0x00000AB4 /* TEScrpHandle */]
000011D4  2F3C 5445 5854           move.l     -[A7], 0x54455854 /* 'TEXT' */
000011DA  4878 09FA                push.l     0x9FA
000011DE  A9FD                     syscall    GetScrap
000011E0  201F                     move.l     D0, [A7]+
000011E2  31C0 0AB0                move.w     [0x00000AB0 /* TEScrpLength */], D0
label000011E6:
000011E6  4E75                     rts
000011E8  2F2D FF18                move.l     -[A7], [A5 - 0xE8]
000011EC  2F17                     move.l     -[A7], [A7]
000011EE  A915                     syscall    ShowWindow
000011F0  A91F                     syscall    SelectWindow
000011F2  4E75                     rts
fn000011F4:
000011F4  4E56 0000                link       A6, 0
000011F8  48E7 0038                movem.l    -[A7], A2,A3,A4
000011FC  286E 0008                movea.l    A4, [A6 + 0x8]
00001200  246C 0098                movea.l    A2, [A4 + 0x98]
00001204  302C 006C                move.w     D0, [A4 + 0x6C]
00001208  6A08                     bpl        +0xA /* 00001212 */
0000120A  2F0C                     move.l     -[A7], A4
0000120C  4EBA 1092                jsr        [PC + 0x1092 /* 000022A0 */]
00001210  6040                     bra        +0x42 /* 00001252 */
label00001212:
00001212  0C40 0010                cmpi.w     D0, 0x10
00001216  6620                     bne        +0x22 /* 00001238 */
00001218  2F0A                     move.l     -[A7], A2
0000121A  4EAD 02BA                jsr        [A5 + 0x2BA /* export_83, CODE:2 @ 00001480 */]
0000121E  42A7                     clr.l      -[A7]
00001220  594F                     subq.w     A7, 4
00001222  2F0A                     move.l     -[A7], A2
00001224  4EAD 0242                jsr        [A5 + 0x242 /* export_68, CODE:2 @ 0000212A */]
00001228  2057                     movea.l    A0, [A7]
0000122A  4227                     clr.b      -[A7]
0000122C  2F08                     move.l     -[A7], A0
0000122E  4EAD 015A                jsr        [A5 + 0x15A /* export_39, CODE:2 @ 00003FBE */]
00001232  4EAD 0132                jsr        [A5 + 0x132 /* export_34, CODE:2 @ 000011C2 */]
00001236  601A                     bra        +0x1C /* 00001252 */
label00001238:
00001238  0C40 0002                cmpi.w     D0, 0x2
0000123C  660A                     bne        +0xC /* 00001248 */
0000123E  2F0C                     move.l     -[A7], A4
00001240  50E7                     st         -[A7]
00001242  4EAD 02B2                jsr        [A5 + 0x2B2 /* export_82, CODE:2 @ 0000132A */]
00001246  600A                     bra        +0xC /* 00001252 */
label00001248:
00001248  0C40 0011                cmpi.w     D0, 0x11
0000124C  6604                     bne        +0x6 /* 00001252 */
0000124E  2F0C                     move.l     -[A7], A4
00001250  A916                     syscall    HideWindow
label00001252:
00001252  4CDF 1C00                movem.l    A2,A3,A4, [A7]+
00001256  4E5E                     unlink     A6
00001258  2E9F                     move.l     [A7], [A7]+
0000125A  4E75                     rts
fn0000125C:
0000125C  48E7 0038                movem.l    -[A7], A2,A3,A4
00001260  422D FF24                clr.b      [A5 - 0xDC]
00001264  422D FF20                clr.b      [A5 - 0xE0]
00001268  422D FE62                clr.b      [A5 - 0x19E]
0000126C  4A2D FE30                tst.b      [A5 - 0x1D0]
00001270  670C                     beq        +0xE /* 0000127E */
00001272  3F3C 006B                move.w     -[A7], 0x6B /* 'k' */
00001276  4EBA 13C8                jsr        [PC + 0x13C8 /* 00002640 */]
0000127A  426D FE30                clr.w      [A5 - 0x1D0]
label0000127E:
0000127E  594F                     subq.w     A7, 4
00001280  A9F9                     syscall    InfoScrap
00001282  245F                     movea.l    A2, [A7]+
00001284  594F                     subq.w     A7, 4
00001286  3F3C 0004                move.w     -[A7], 0x4
0000128A  4EAD 0062                jsr        [A5 + 0x62 /* export_8, CODE:1 @ 000001FC */]
0000128E  201F                     move.l     D0, [A7]+
00001290  B092                     cmp.l      D0, [A2]
00001292  6E0E                     bgt        +0x10 /* 000012A2 */
00001294  4A6A 000A                tst.w      [A2 + 0xA]
00001298  6F3A                     ble        +0x3C /* 000012D4 */
0000129A  594F                     subq.w     A7, 4
0000129C  A9FA                     syscall    UnloadScrap/UnlodeScrap
0000129E  584F                     addq.w     A7, 4
000012A0  6032                     bra        +0x34 /* 000012D4 */
label000012A2:
000012A2  4A6A 000A                tst.w      [A2 + 0xA]
000012A6  662C                     bne        +0x2E /* 000012D4 */
000012A8  594F                     subq.w     A7, 4
000012AA  A9FB                     syscall    LoadScrap/LodeScrap
000012AC  584F                     addq.w     A7, 4
000012AE  9EFC 0050                sub.w      A7, 0x50 /* 'P' */
000012B2  204F                     movea.l    A0, A7
000012B4  4268 0016                clr.w      [A0 + 0x16]
000012B8  216A 000C 0012           move.l     [A0 + 0x12], [A2 + 0xC]
000012BE  4268 001A                clr.w      [A0 + 0x1A]
000012C2  42A8 001C                clr.l      [A0 + 0x1C]
000012C6  A000                     syscall    Open/PBHOpen/HOpen
000012C8  42A8 0024                clr.l      [A0 + 0x24]
000012CC  A012                     syscall    SetEOF
000012CE  A001                     syscall    Close
000012D0  DEFC 0050                add.w      A7, 0x50 /* 'P' */
label000012D4:
000012D4  3038 02F2                move.w     D0, [0x000002F2]
000012D8  D040                     add.w      D0, D0
000012DA  3B40 FF2C                move.w     [A5 - 0xD4], D0
000012DE  594F                     subq.w     A7, 4
000012E0  A9F9                     syscall    InfoScrap
000012E2  285F                     movea.l    A4, [A7]+
000012E4  266D FF18                movea.l    A3, [A5 - 0xE8]
000012E8  200B                     move.l     D0, A3
000012EA  6714                     beq        +0x16 /* 00001300 */
000012EC  7000                     moveq.l    D0, 0x00
000012EE  302C 0008                move.w     D0, [A4 + 0x8]
000012F2  B0AB 0098                cmp.l      D0, [A3 + 0x98]
000012F6  6708                     beq        +0xA /* 00001300 */
000012F8  2740 0098                move.l     [A3 + 0x98], D0
000012FC  4EBA 1950                jsr        [PC + 0x1950 /* 00002C4E */]
label00001300:
00001300  4CDF 1C00                movem.l    A2,A3,A4, [A7]+
00001304  4E75                     rts
fn00001306:
00001306  205F                     movea.l    A0, [A7]+
00001308  4E56 FC00                link       A6, -0x0400
0000130C  48E7 1F38                movem.l    -[A7], D3,D4,D5,D6,D7,A2,A3,A4
00001310  286E 0008                movea.l    A4, [A6 + 0x8]
00001314  3E2E 000C                move.w     D7, [A6 + 0xC]
00001318  246E 000E                movea.l    A2, [A6 + 0xE]
0000131C  4ED0                     jmp        [A0]
label0000131E:
0000131E  4CDF 1CF8                movem.l    D3,D4,D5,D6,D7,A2,A3,A4, [A7]+
00001322  4E5E                     unlink     A6
00001324  205F                     movea.l    A0, [A7]+
00001326  DEFC 000A                add.w      A7, 0xA /* '\n' */
0000132A  4ED0                     jmp        [A0]
fn0000132C:
0000132C  61D8                     bsr        -0x26 /* 00001306 */
0000132E  2654                     movea.l    A3, [A4]
00001330  3C2B 0022                move.w     D6, [A3 + 0x22]
00001334  6716                     beq        +0x18 /* 0000134C */
00001336  0C53 0004                cmpi.w     [A3], 0x4
0000133A  6610                     bne        +0x12 /* 0000134C */
0000133C  4EAD 0292                jsr        [A5 + 0x292 /* export_78, CODE:2 @ 00000B74 */]
00001340  554F                     subq.w     A7, 2
00001342  50E7                     st         -[A7]
00001344  2F0C                     move.l     -[A7], A4
00001346  4EAD 01CA                jsr        [A5 + 0x1CA /* export_53, CODE:2 @ 00003576 */]
0000134A  544F                     addq.w     A7, 2
label0000134C:
0000134C  60D0                     bra        -0x2E /* 0000131E */
0000134E  0120                     btst       -[A0], D0
00001350  61B4                     bsr        -0x4A /* 00001306 */
00001352  4EAD 02AA                jsr        [A5 + 0x2AA /* export_81, CODE:2 @ 00000AAA */]
00001356  594F                     subq.w     A7, 4
00001358  3F3C 0002                move.w     -[A7], 0x2
0000135C  2F0C                     move.l     -[A7], A4
0000135E  4EBA 1B9C                jsr        [PC + 0x1B9C /* 00002EFC */]
00001362  201F                     move.l     D0, [A7]+
00001364  6708                     beq        +0xA /* 0000136E */
00001366  2F00                     move.l     -[A7], D0
00001368  A91F                     syscall    SelectWindow
0000136A  6000 0460                bra        +0x462 /* 000017CC */
label0000136E:
0000136E  5D4F                     subq.w     A7, 6
00001370  3F3C 0003                move.w     -[A7], 0x3
00001374  4EAD 0062                jsr        [A5 + 0x62 /* export_8, CODE:1 @ 000001FC */]
00001378  4EBA 0CAE                jsr        [PC + 0xCAE /* 00002028 */]
0000137C  4A1F                     tst.b      [A7]+
0000137E  6610                     bne        +0x12 /* 00001390 */
00001380  3F3C 0039                move.w     -[A7], 0x39 /* '9' */
00001384  4EBA 12BA                jsr        [PC + 0x12BA /* 00002640 */]
label00001388:
00001388  50ED FF20                st         [A5 - 0xE0]
0000138C  6000 043E                bra        +0x440 /* 000017CC */
label00001390:
00001390  594F                     subq.w     A7, 4
00001392  4EBA 1D76                jsr        [PC + 0x1D76 /* 0000310A */]
00001396  2C1F                     move.l     D6, [A7]+
00001398  67EE                     beq        -0x10 /* 00001388 */
0000139A  486E FFFC                pea.l      [A6 - 0x4]
0000139E  A874                     syscall    GetPort
000013A0  594F                     subq.w     A7, 4
000013A2  3F3C 00C0                move.w     -[A7], 0xC0
000013A6  2F06                     move.l     -[A7], D6
000013A8  2F38 0A06                move.l     -[A7], [0x00000A06 /* MinusOne */]
000013AC  A97C                     syscall    GetNewDialog
000013AE  265F                     movea.l    A3, [A7]+
000013B0  274C 0098                move.l     [A3 + 0x98], A4
000013B4  2054                     movea.l    A0, [A4]
000013B6  2F0B                     move.l     -[A7], A3
000013B8  3F3C 0001                move.w     -[A7], 0x1
000013BC  594F                     subq.w     A7, 4
000013BE  2F3C 4943 4E23           move.l     -[A7], 0x49434E23 /* 'ICN#' */
000013C4  3F28 0008                move.w     -[A7], [A0 + 0x8]
000013C8  A9A0                     syscall    GetResource
000013CA  4EBA 1B8E                jsr        [PC + 0x1B8E /* 00002F5A */]
000013CE  2F0B                     move.l     -[A7], A3
000013D0  3F3C 0002                move.w     -[A7], 0x2
000013D4  487A 03FA                pea.l      [PC + 0x3FA /* 000017D0, value 0x4E56FEF2 */]
000013D8  4EBA 1B80                jsr        [PC + 0x1B80 /* 00002F5A */]
000013DC  486E FE9C                pea.l      [A6 - 0x164]
000013E0  2F0C                     move.l     -[A7], A4
000013E2  4EAD 021A                jsr        [A5 + 0x21A /* export_63, CODE:2 @ 000022F4 */]
000013E6  7403                     moveq.l    D2, 0x03
000013E8  6100 010E                bsr        +0x110 /* 000014F8 */
000013EC  486E FE9C                pea.l      [A6 - 0x164]
000013F0  2F0C                     move.l     -[A7], A4
000013F2  4EAD 01D2                jsr        [A5 + 0x1D2 /* export_54, CODE:2 @ 000034C2 */]
000013F6  7405                     moveq.l    D2, 0x05
000013F8  6100 00FE                bsr        +0x100 /* 000014F8 */
000013FC  594F                     subq.w     A7, 4
000013FE  2F0B                     move.l     -[A7], A3
00001400  3F3C 000E                move.w     -[A7], 0xE
00001404  4EBA 14E4                jsr        [PC + 0x14E4 /* 000028EA */]
00001408  261F                     move.l     D3, [A7]+
0000140A  554F                     subq.w     A7, 2
0000140C  2F2D FE68                move.l     -[A7], [A5 - 0x198]
00001410  2F0C                     move.l     -[A7], A4
00001412  4EAD 01E2                jsr        [A5 + 0x1E2 /* export_56, CODE:2 @ 00002692 */]
00001416  4A1F                     tst.b      [A7]+
00001418  6708                     beq        +0xA /* 00001422 */
0000141A  2F03                     move.l     -[A7], D3
0000141C  3F3C 00FF                move.w     -[A7], 0xFF
00001420  A95D                     syscall    HiliteControl
label00001422:
00001422  2254                     movea.l    A1, [A4]
00001424  3011                     move.w     D0, [A1]
00001426  0C40 0004                cmpi.w     D0, 0x4
0000142A  6600 0152                bne        +0x154 /* 0000157E */
0000142E  41EE FFAC                lea.l      A0, [A6 - 0x54]
00001432  3169 0022 0016           move.w     [A0 + 0x16], [A1 + 0x22]
00001438  4268 001C                clr.w      [A0 + 0x1C]
0000143C  43EE FE9C                lea.l      A1, [A6 - 0x164]
00001440  2149 0012                move.l     [A0 + 0x12], A1
00001444  A007                     syscall    GetVolInfo/PBHGetVInfo/HGetVInfo
00001446  0828 0007 0027           btst.b     [A0 + 0x27], 0x7
0000144C  6708                     beq        +0xA /* 00001456 */
0000144E  2F03                     move.l     -[A7], D3
00001450  3F3C 0001                move.w     -[A7], 0x1
00001454  A963                     syscall    SetControlValue/SetCtlValue
label00001456:
00001456  2F03                     move.l     -[A7], D3
00001458  3F3C 00FF                move.w     -[A7], 0xFF
0000145C  A95D                     syscall    HiliteControl
0000145E  41EE FFAC                lea.l      A0, [A6 - 0x54]
00001462  2628 0030                move.l     D3, [A0 + 0x30]
00001466  3828 002E                move.w     D4, [A0 + 0x2E]
0000146A  3A28 003E                move.w     D5, [A0 + 0x3E]
0000146E  7421                     moveq.l    D2, 0x21
00001470  6142                     bsr        +0x44 /* 000014B4 */
00001472  2003                     move.l     D0, D3
00001474  C1C5                     muls.w     D0, D5
00001476  41EE FE9C                lea.l      A0, [A6 - 0x164]
0000147A  4EBA 0AEC                jsr        [PC + 0xAEC /* 00001F68 */]
0000147E  7000                     moveq.l    D0, 0x00
00001480  614A                     bsr        +0x4C /* 000014CC */
00001482  9885                     sub.l      D4, D5
00001484  2003                     move.l     D0, D3
00001486  C1C4                     muls.w     D0, D4
00001488  41EE FE9C                lea.l      A0, [A6 - 0x164]
0000148C  4EBA 0ADA                jsr        [PC + 0xADA /* 00001F68 */]
00001490  7001                     moveq.l    D0, 0x01
00001492  6138                     bsr        +0x3A /* 000014CC */
00001494  7407                     moveq.l    D2, 0x07
00001496  613E                     bsr        +0x40 /* 000014D6 */
00001498  6100 00D8                bsr        +0xDA /* 00001572 */
0000149C  7409                     moveq.l    D2, 0x09
0000149E  6100 0058                bsr        +0x5A /* 000014F8 */
000014A2  41EE FFAC                lea.l      A0, [A6 - 0x54]
000014A6  2628 0022                move.l     D3, [A0 + 0x22]
000014AA  2828 001E                move.l     D4, [A0 + 0x1E]
000014AE  615A                     bsr        +0x5C /* 0000150A */
000014B0  6000 0264                bra        +0x266 /* 00001716 */
fn000014B4:
000014B4  486E FE9C                pea.l      [A6 - 0x164]
000014B8  3F02                     move.w     -[A7], D2
000014BA  4EBA 14AC                jsr        [PC + 0x14AC /* 00002968 */]
000014BE  41EE FE9C                lea.l      A0, [A6 - 0x164]
000014C2  1010                     move.b     D0, [A0]
000014C4  5240                     addq.w     D0, 1
000014C6  A9E3                     syscall    PtrToHand
000014C8  2448                     movea.l    A2, A0
000014CA  4E75                     rts
fn000014CC:
000014CC  43EE FE9C                lea.l      A1, [A6 - 0x164]
000014D0  4EBA 0BB8                jsr        [PC + 0xBB8 /* 0000208A */]
000014D4  4E75                     rts
fn000014D6:
000014D6  204A                     movea.l    A0, A2
000014D8  A025                     syscall    GetHandleSize
000014DA  5340                     subq.w     D0, 1
000014DC  2252                     movea.l    A1, [A2]
000014DE  1280                     move.b     [A1], D0
000014E0  08D2 0007                bset.b     [A2], 0x7
000014E4  594F                     subq.w     A7, 4
000014E6  2F0B                     move.l     -[A7], A3
000014E8  3F02                     move.w     -[A7], D2
000014EA  4EBA 13FE                jsr        [PC + 0x13FE /* 000028EA */]
000014EE  2F12                     move.l     -[A7], [A2]
000014F0  A98F                     syscall    SetDialogItemText/SetIText
000014F2  204A                     movea.l    A0, A2
000014F4  A023                     syscall    DisposHandle/DisposeHandle
000014F6  4E75                     rts
fn000014F8:
000014F8  594F                     subq.w     A7, 4
000014FA  2F0B                     move.l     -[A7], A3
000014FC  3F02                     move.w     -[A7], D2
000014FE  4EBA 13EA                jsr        [PC + 0x13EA /* 000028EA */]
00001502  486E FE9C                pea.l      [A6 - 0x164]
00001506  A98F                     syscall    SetDialogItemText/SetIText
00001508  4E75                     rts
fn0000150A:
0000150A  2C04                     move.l     D6, D4
0000150C  6112                     bsr        +0x14 /* 00001520 */
0000150E  343C 000B                move.w     D2, 0xB
00001512  61C2                     bsr        -0x3C /* 000014D6 */
00001514  2C03                     move.l     D6, D3
00001516  6108                     bsr        +0xA /* 00001520 */
00001518  343C 000D                move.w     D2, 0xD /* '\r' */
0000151C  61B8                     bsr        -0x46 /* 000014D6 */
0000151E  4E75                     rts
fn00001520:
00001520  7425                     moveq.l    D2, 0x25
00001522  6190                     bsr        -0x6E /* 000014B4 */
00001524  2F06                     move.l     -[A7], D6
00001526  1F3C 0001                move.b     -[A7], 0x1
0000152A  486E FE9C                pea.l      [A6 - 0x164]
0000152E  4EBA EAD0                jsr        [PC - 0x1530 /* 00000000 */]
00001532  7000                     moveq.l    D0, 0x00
00001534  6196                     bsr        -0x68 /* 000014CC */
00001536  2F06                     move.l     -[A7], D6
00001538  4227                     clr.b      -[A7]
0000153A  486E FE9C                pea.l      [A6 - 0x164]
0000153E  4EBA EAC4                jsr        [PC - 0x153C /* 00000004 */]
00001542  7001                     moveq.l    D0, 0x01
00001544  6186                     bsr        -0x78 /* 000014CC */
00001546  4E75                     rts
fn00001548:
00001548  3C38 0A5A                move.w     D6, [0x00000A5A /* CurMap */]
0000154C  2054                     movea.l    A0, [A4]
0000154E  31E8 0024 0A5A           move.w     [0x00000A5A /* CurMap */], [A0 + 0x24]
00001554  594F                     subq.w     A7, 4
00001556  2F3C 464F 424A           move.l     -[A7], 0x464F424A /* 'FOBJ' */
0000155C  4267                     clr.w      -[A7]
0000155E  A9A0                     syscall    GetResource
00001560  205F                     movea.l    A0, [A7]+
00001562  31C6 0A5A                move.w     [0x00000A5A /* CurMap */], D6
00001566  486E FE9C                pea.l      [A6 - 0x164]
0000156A  2F08                     move.l     -[A7], A0
0000156C  4EAD 021A                jsr        [A5 + 0x21A /* export_63, CODE:2 @ 000022F4 */]
00001570  4E75                     rts
fn00001572:
00001572  486E FE9C                pea.l      [A6 - 0x164]
00001576  2F0C                     move.l     -[A7], A4
00001578  4EAD 028A                jsr        [A5 + 0x28A /* export_77, CODE:2 @ 000016D8 */]
0000157C  4E75                     rts
label0000157E:
0000157E  0C40 0000                cmpi.w     D0, 0x0
00001582  6600 005C                bne        +0x5E /* 000015E0 */
00001586  2054                     movea.l    A0, [A4]
00001588  0828 0007 0026           btst.b     [A0 + 0x26], 0x7
0000158E  6708                     beq        +0xA /* 00001598 */
00001590  2F03                     move.l     -[A7], D3
00001592  3F3C 0001                move.w     -[A7], 0x1
00001596  A963                     syscall    SetControlValue/SetCtlValue
label00001598:
00001598  7420                     moveq.l    D2, 0x20
0000159A  6100 FF18                bsr        -0xE6 /* 000014B4 */
0000159E  2054                     movea.l    A0, [A4]
000015A0  2028 0034                move.l     D0, [A0 + 0x34]
000015A4  41EE FE9C                lea.l      A0, [A6 - 0x164]
000015A8  4EBA 09BE                jsr        [PC + 0x9BE /* 00001F68 */]
000015AC  7000                     moveq.l    D0, 0x00
000015AE  6100 FF1C                bsr        -0xE2 /* 000014CC */
000015B2  2054                     movea.l    A0, [A4]
000015B4  2028 0030                move.l     D0, [A0 + 0x30]
000015B8  80FC 03E8                divu.w     D0, 0x3E8
000015BC  48C0                     ext.l      D0
000015BE  41EE FE9C                lea.l      A0, [A6 - 0x164]
000015C2  4EBA 09A4                jsr        [PC + 0x9A4 /* 00001F68 */]
000015C6  7000                     moveq.l    D0, 0x00
000015C8  5210                     addq.b     [A0], 1
000015CA  1010                     move.b     D0, [A0]
000015CC  11BC 004B 0000           move.b     [A0 + D0.w], 0x4B /* 'K' */
000015D2  7001                     moveq.l    D0, 0x01
000015D4  6100 FEF6                bsr        -0x108 /* 000014CC */
000015D8  7407                     moveq.l    D2, 0x07
000015DA  6100 FEFA                bsr        -0x104 /* 000014D6 */
000015DE  603A                     bra        +0x3C /* 0000161A */
label000015E0:
000015E0  0C40 0008                cmpi.w     D0, 0x8
000015E4  6666                     bne        +0x68 /* 0000164C */
000015E6  0829 0007 0026           btst.b     [A1 + 0x26], 0x7
000015EC  6708                     beq        +0xA /* 000015F6 */
000015EE  2F03                     move.l     -[A7], D3
000015F0  3F3C 0001                move.w     -[A7], 0x1
000015F4  A963                     syscall    SetControlValue/SetCtlValue
label000015F6:
000015F6  7422                     moveq.l    D2, 0x22
000015F8  6100 FEBA                bsr        -0x144 /* 000014B4 */
000015FC  594F                     subq.w     A7, 4
000015FE  2F0C                     move.l     -[A7], A4
00001600  4EAD 013A                jsr        [A5 + 0x13A /* export_35, CODE:2 @ 000042AA */]
00001604  201F                     move.l     D0, [A7]+
00001606  41EE FE9C                lea.l      A0, [A6 - 0x164]
0000160A  4EBA 095C                jsr        [PC + 0x95C /* 00001F68 */]
0000160E  7000                     moveq.l    D0, 0x00
00001610  6100 FEBA                bsr        -0x144 /* 000014CC */
00001614  7407                     moveq.l    D2, 0x07
00001616  6100 FEBE                bsr        -0x140 /* 000014D6 */
label0000161A:
0000161A  7424                     moveq.l    D2, 0x24
0000161C  6100 FE96                bsr        -0x168 /* 000014B4 */
00001620  6100 FF26                bsr        -0xD8 /* 00001548 */
00001624  7000                     moveq.l    D0, 0x00
00001626  6100 FEA4                bsr        -0x15A /* 000014CC */
0000162A  6100 FF46                bsr        -0xB8 /* 00001572 */
0000162E  7001                     moveq.l    D0, 0x01
00001630  6100 FE9A                bsr        -0x164 /* 000014CC */
00001634  7409                     moveq.l    D2, 0x09
00001636  6100 FE9E                bsr        -0x160 /* 000014D6 */
0000163A  2054                     movea.l    A0, [A4]
0000163C  2628 001E                move.l     D3, [A0 + 0x1E]
00001640  2828 001A                move.l     D4, [A0 + 0x1A]
00001644  6100 FEC4                bsr        -0x13A /* 0000150A */
00001648  6000 00CC                bra        +0xCE /* 00001716 */
label0000164C:
0000164C  0C40 000C                cmpi.w     D0, 0xC
00001650  663A                     bne        +0x3C /* 0000168C */
00001652  7469                     moveq.l    D2, 0x69
00001654  6100 003A                bsr        +0x3C /* 00001690 */
00001658  7423                     moveq.l    D2, 0x23
0000165A  6100 FE58                bsr        -0x1A6 /* 000014B4 */
0000165E  594F                     subq.w     A7, 4
00001660  2F0C                     move.l     -[A7], A4
00001662  4EAD 013A                jsr        [A5 + 0x13A /* export_35, CODE:2 @ 000042AA */]
00001666  201F                     move.l     D0, [A7]+
00001668  41EE FE9C                lea.l      A0, [A6 - 0x164]
0000166C  4EBA 08FA                jsr        [PC + 0x8FA /* 00001F68 */]
00001670  7000                     moveq.l    D0, 0x00
00001672  6100 FE58                bsr        -0x1A6 /* 000014CC */
00001676  7407                     moveq.l    D2, 0x07
00001678  6100 FE5C                bsr        -0x1A2 /* 000014D6 */
0000167C  742D                     moveq.l    D2, 0x2D
0000167E  6100 FE34                bsr        -0x1CA /* 000014B4 */
00001682  7409                     moveq.l    D2, 0x09
00001684  6100 FE50                bsr        -0x1AE /* 000014D6 */
00001688  6000 008C                bra        +0x8E /* 00001716 */
label0000168C:
0000168C  6000 0088                bra        +0x8A /* 00001716 */
fn00001690:
00001690  486E FE9C                pea.l      [A6 - 0x164]
00001694  3F02                     move.w     -[A7], D2
00001696  4EBA 12D0                jsr        [PC + 0x12D0 /* 00002968 */]
0000169A  7410                     moveq.l    D2, 0x10
0000169C  6100 FE5A                bsr        -0x1A4 /* 000014F8 */
000016A0  2F03                     move.l     -[A7], D3
000016A2  A958                     syscall    HideControl
000016A4  700F                     moveq.l    D0, 0x0F
000016A6  323C 0190                move.w     D1, 0x190
000016AA  612E                     bsr        +0x30 /* 000016DA */
000016AC  7010                     moveq.l    D0, 0x10
000016AE  323C FE50                move.w     D1, 0xFE50
000016B2  6126                     bsr        +0x28 /* 000016DA */
000016B4  3778 0A06 00A4           move.w     [A3 + 0xA4], [0x00000A06 /* MinusOne */]
000016BA  41EE FE9C                lea.l      A0, [A6 - 0x164]
000016BE  4210                     clr.b      [A0]
000016C0  740A                     moveq.l    D2, 0x0A
000016C2  6100 FE34                bsr        -0x1CA /* 000014F8 */
000016C6  740B                     moveq.l    D2, 0x0B
000016C8  6100 FE2E                bsr        -0x1D0 /* 000014F8 */
000016CC  740C                     moveq.l    D2, 0x0C
000016CE  6100 FE28                bsr        -0x1D6 /* 000014F8 */
000016D2  740D                     moveq.l    D2, 0x0D
000016D4  6100 FE22                bsr        -0x1DC /* 000014F8 */
000016D8  4E75                     rts
fn000016DA:
000016DA  48A7 C000                movem.w    -[A7], D0,D1
000016DE  2F0B                     move.l     -[A7], A3
000016E0  3F00                     move.w     -[A7], D0
000016E2  486E FFAC                pea.l      [A6 - 0x54]
000016E6  486E FFAE                pea.l      [A6 - 0x52]
000016EA  486E FF9C                pea.l      [A6 - 0x64]
000016EE  A98D                     syscall    GetDialogItem/GetDItem
000016F0  302F 0002                move.w     D0, [A7 + 0x2]
000016F4  486E FF9C                pea.l      [A6 - 0x64]
000016F8  4267                     clr.w      -[A7]
000016FA  3F00                     move.w     -[A7], D0
000016FC  A8A8                     syscall    OffsetRect
000016FE  3017                     move.w     D0, [A7]
00001700  2F0B                     move.l     -[A7], A3
00001702  3F00                     move.w     -[A7], D0
00001704  3F2E FFAC                move.w     -[A7], [A6 - 0x54]
00001708  2F2E FFAE                move.l     -[A7], [A6 - 0x52]
0000170C  486E FF9C                pea.l      [A6 - 0x64]
00001710  A98E                     syscall    SetDialogItem/SetDItem
00001712  584F                     addq.w     A7, 4
00001714  4E75                     rts
label00001716:
00001716  594F                     subq.w     A7, 4
00001718  486E FE9C                pea.l      [A6 - 0x164]
0000171C  2F0C                     move.l     -[A7], A4
0000171E  4EAD 022A                jsr        [A5 + 0x22A /* export_65, CODE:2 @ 000021D4 */]
00001722  584F                     addq.w     A7, 4
00001724  740F                     moveq.l    D2, 0x0F
00001726  6100 FDD0                bsr        -0x22E /* 000014F8 */
0000172A  741F                     moveq.l    D2, 0x1F
0000172C  6100 FD86                bsr        -0x278 /* 000014B4 */
00001730  486E FE9C                pea.l      [A6 - 0x164]
00001734  2F0C                     move.l     -[A7], A4
00001736  4EAD 021A                jsr        [A5 + 0x21A /* export_63, CODE:2 @ 000022F4 */]
0000173A  7000                     moveq.l    D0, 0x00
0000173C  6100 FD8E                bsr        -0x270 /* 000014CC */
00001740  08D2 0007                bset.b     [A2], 0x7
00001744  204A                     movea.l    A0, A2
00001746  A025                     syscall    GetHandleSize
00001748  5340                     subq.w     D0, 1
0000174A  2252                     movea.l    A1, [A2]
0000174C  1280                     move.b     [A1], D0
0000174E  2F0B                     move.l     -[A7], A3
00001750  2F12                     move.l     -[A7], [A2]
00001752  A91A                     syscall    SetWTitle
00001754  204A                     movea.l    A0, A2
00001756  A023                     syscall    DisposHandle/DisposeHandle
00001758  2F0B                     move.l     -[A7], A3
0000175A  3207                     move.w     D1, D7
0000175C  3407                     move.w     D2, D7
0000175E  0241 0007                andi.w     D1, 0x7
00001762  9441                     sub.w      D2, D1
00001764  E742                     asl        D2.w, 3
00001766  0642 000A                addi.w     D2, 0xA /* '\n' */
0000176A  700A                     moveq.l    D0, 0x0A
0000176C  C1C1                     muls.w     D0, D1
0000176E  D042                     add.w      D0, D2
00001770  3F00                     move.w     -[A7], D0
00001772  7014                     moveq.l    D0, 0x14
00001774  C1C1                     muls.w     D0, D1
00001776  0640 0032                addi.w     D0, 0x32 /* '2' */
0000177A  3F00                     move.w     -[A7], D0
0000177C  50E7                     st         -[A7]
0000177E  A91B                     syscall    MoveWindow
00001780  2F0C                     move.l     -[A7], A4
00001782  4EAD 0152                jsr        [A5 + 0x152 /* export_38, CODE:2 @ 00003F1C */]
00001786  486E FFA4                pea.l      [A6 - 0x5C]
0000178A  486E FF9C                pea.l      [A6 - 0x64]
0000178E  2F0C                     move.l     -[A7], A4
00001790  4EAD 01B2                jsr        [A5 + 0x1B2 /* export_50, CODE:2 @ 00003BC6 */]
00001794  486E FFA4                pea.l      [A6 - 0x5C]
00001798  4EBA 1212                jsr        [PC + 0x1212 /* 000029AC */]
0000179C  2F0B                     move.l     -[A7], A3
0000179E  A873                     syscall    SetPort
000017A0  41EB 0018                lea.l      A0, [A3 + 0x18]
000017A4  43EE FFA4                lea.l      A1, [A6 - 0x5C]
000017A8  2320                     move.l     -[A1], -[A0]
000017AA  2320                     move.l     -[A1], -[A0]
000017AC  2F09                     move.l     -[A7], A1
000017AE  4EBA 11FC                jsr        [PC + 0x11FC /* 000029AC */]
000017B2  486E FFA4                pea.l      [A6 - 0x5C]
000017B6  486E FF9C                pea.l      [A6 - 0x64]
000017BA  1F3C 0001                move.b     -[A7], 0x1
000017BE  4EBA 03B0                jsr        [PC + 0x3B0 /* 00001B70 */]
000017C2  2F0B                     move.l     -[A7], A3
000017C4  A915                     syscall    ShowWindow
000017C6  2F2E FFFC                move.l     -[A7], [A6 - 0x4]
000017CA  A873                     syscall    SetPort
label000017CC:
000017CC  6000 FB50                bra        -0x4AE /* 0000131E */
000017D0  4E56 FEF2                link       A6, -0x010E
000017D4  48E7 0038                movem.l    -[A7], A2,A3,A4
000017D8  286E 000A                movea.l    A4, [A6 + 0xA]
000017DC  594F                     subq.w     A7, 4
000017DE  2F0C                     move.l     -[A7], A4
000017E0  3F3C 0003                move.w     -[A7], 0x3
000017E4  4EBA 1104                jsr        [PC + 0x1104 /* 000028EA */]
000017E8  486E FEF2                pea.l      [A6 - 0x10E]
000017EC  A990                     syscall    GetDialogItemText/GetIText
000017EE  2F0C                     move.l     -[A7], A4
000017F0  3F3C 0002                move.w     -[A7], 0x2
000017F4  486E FFFE                pea.l      [A6 - 0x2]
000017F8  486E FFFA                pea.l      [A6 - 0x6]
000017FC  486E FFF2                pea.l      [A6 - 0xE]
00001800  A98D                     syscall    GetDialogItem/GetDItem
00001802  7000                     moveq.l    D0, 0x00
00001804  41EE FEF2                lea.l      A0, [A6 - 0x10E]
00001808  1018                     move.b     D0, [A0]+
0000180A  2F08                     move.l     -[A7], A0
0000180C  2F00                     move.l     -[A7], D0
0000180E  486E FFF2                pea.l      [A6 - 0xE]
00001812  3F38 0A06                move.w     -[A7], [0x00000A06 /* MinusOne */]
00001816  A9CE                     syscall    TETextBox/TextBox
00001818  4EBA 177A                jsr        [PC + 0x177A /* 00002F94 */]
0000181C  4267                     clr.w      -[A7]
0000181E  A888                     syscall    TextFace
00001820  4CDF 1C00                movem.l    A2,A3,A4, [A7]+
00001824  4E5E                     unlink     A6
00001826  205F                     movea.l    A0, [A7]+
00001828  5C4F                     addq.w     A7, 6
0000182A  4ED0                     jmp        [A0]
fn0000182C:
0000182C  4E56 0000                link       A6, 0
00001830  48E7 1038                movem.l    -[A7], D3,A2,A3,A4
00001834  4EAD 0292                jsr        [A5 + 0x292 /* export_78, CODE:2 @ 00000B74 */]
00001838  3F38 0210                move.w     -[A7], [0x00000210 /* BootDrive */]
0000183C  4EBA 0F50                jsr        [PC + 0xF50 /* 0000278E */]
00001840  3F38 0A5E                move.w     -[A7], [0x00000A5E /* ResLoad */]
00001844  4278 0A5E                clr.w      [0x00000A5E /* ResLoad */]
00001848  514F                     subq.w     A7, 8
0000184A  2F3C 4452 5652           move.l     -[A7], 0x44525652 /* 'DRVR' */
00001850  2F2E 0008                move.l     -[A7], [A6 + 0x8]
00001854  A9A1                     syscall    GetNamedResource
00001856  A9A5                     syscall    GetResourceSizeOnDisk/SizeResource/SizeRsrc
00001858  261F                     move.l     D3, [A7]+
0000185A  31DF 0A5E                move.w     [0x00000A5E /* ResLoad */], [A7]+
0000185E  594F                     subq.w     A7, 4
00001860  3F3C 0005                move.w     -[A7], 0x5
00001864  4EAD 0062                jsr        [A5 + 0x62 /* export_8, CODE:1 @ 000001FC */]
00001868  D69F                     add.l      D3, [A7]+
0000186A  554F                     subq.w     A7, 2
0000186C  2F03                     move.l     -[A7], D3
0000186E  4EBA 07B8                jsr        [PC + 0x7B8 /* 00002028 */]
00001872  4A1F                     tst.b      [A7]+
00001874  660A                     bne        +0xC /* 00001880 */
00001876  3F3C 003A                move.w     -[A7], 0x3A /* ':' */
0000187A  4EBA 0DC4                jsr        [PC + 0xDC4 /* 00002640 */]
0000187E  600A                     bra        +0xC /* 0000188A */
label00001880:
00001880  554F                     subq.w     A7, 2
00001882  2F2E 0008                move.l     -[A7], [A6 + 0x8]
00001886  A9B6                     syscall    OpenDeskAcc
00001888  544F                     addq.w     A7, 2
label0000188A:
0000188A  4CDF 1C08                movem.l    D3,A2,A3,A4, [A7]+
0000188E  4E5E                     unlink     A6
00001890  2E9F                     move.l     [A7], [A7]+
00001892  4E75                     rts
fn00001894:
00001894  594F                     subq.w     A7, 4
00001896  A9FC                     syscall    ZeroScrap
00001898  201F                     move.l     D0, [A7]+
0000189A  4EBA 0772                jsr        [PC + 0x772 /* 0000200E */]
0000189E  2078 0AB4                movea.l    A0, [0x00000AB4 /* TEScrpHandle */]
000018A2  08D0 0007                bset.b     [A0], 0x7
000018A6  A025                     syscall    GetHandleSize
000018A8  594F                     subq.w     A7, 4
000018AA  2F00                     move.l     -[A7], D0
000018AC  2F3C 5445 5854           move.l     -[A7], 0x54455854 /* 'TEXT' */
000018B2  2F10                     move.l     -[A7], [A0]
000018B4  A9FE                     syscall    PutScrap
000018B6  201F                     move.l     D0, [A7]+
000018B8  4EBA 0754                jsr        [PC + 0x754 /* 0000200E */]
000018BC  2078 0AB4                movea.l    A0, [0x00000AB4 /* TEScrpHandle */]
000018C0  4210                     clr.b      [A0]
000018C2  4E75                     rts
export_119:
000018C4  4E56 0000                link       A6, 0
000018C8  48E7 1F38                movem.l    -[A7], D3,D4,D5,D6,D7,A2,A3,A4
000018CC  594F                     subq.w     A7, 4
000018CE  A924                     syscall    FrontWindow
000018D0  285F                     movea.l    A4, [A7]+
000018D2  266E 000A                movea.l    A3, [A6 + 0xA]
000018D6  322E 0008                move.w     D1, [A6 + 0x8]
000018DA  B26D FF22                cmp.w      D1, [A5 - 0xDE]
000018DE  6678                     bne        +0x7A /* 00001958 */
000018E0  7017                     moveq.l    D0, 0x17
000018E2  7600                     moveq.l    D3, 0x00
000018E4  B240                     cmp.w      D1, D0
000018E6  6604                     bne        +0x6 /* 000018EC */
000018E8  7640                     moveq.l    D3, 0x40
000018EA  601C                     bra        +0x1E /* 00001908 */
label000018EC:
000018EC  5340                     subq.w     D0, 1
000018EE  B240                     cmp.w      D1, D0
000018F0  6604                     bne        +0x6 /* 000018F6 */
000018F2  76C0                     moveq.l    D3, 0xFFFFFFC0
000018F4  6012                     bra        +0x14 /* 00001908 */
label000018F6:
000018F6  5340                     subq.w     D0, 1
000018F8  B240                     cmp.w      D1, D0
000018FA  6604                     bne        +0x6 /* 00001900 */
000018FC  7610                     moveq.l    D3, 0x10
000018FE  6008                     bra        +0xA /* 00001908 */
label00001900:
00001900  5340                     subq.w     D0, 1
00001902  B240                     cmp.w      D1, D0
00001904  6602                     bne        +0x4 /* 00001908 */
00001906  76F0                     moveq.l    D3, 0xFFFFFFF0
label00001908:
00001908  7A00                     moveq.l    D5, 0x00
0000190A  7C00                     moveq.l    D6, 0x00
0000190C  554F                     subq.w     A7, 2
0000190E  2F0B                     move.l     -[A7], A3
00001910  A960                     syscall    GetControlValue/GetCtlValue
00001912  381F                     move.w     D4, [A7]+
00001914  554F                     subq.w     A7, 2
00001916  2F0B                     move.l     -[A7], A3
00001918  A961                     syscall    GetControlMinimum/GetMinCtl
0000191A  341F                     move.w     D2, [A7]+
0000191C  9444                     sub.w      D2, D4
0000191E  B642                     cmp.w      D3, D2
00001920  6C02                     bge        +0x4 /* 00001924 */
00001922  3602                     move.w     D3, D2
label00001924:
00001924  554F                     subq.w     A7, 2
00001926  2F0B                     move.l     -[A7], A3
00001928  A962                     syscall    GetControlMaximum/GetMaxCtl
0000192A  341F                     move.w     D2, [A7]+
0000192C  9444                     sub.w      D2, D4
0000192E  B642                     cmp.w      D3, D2
00001930  6F02                     ble        +0x4 /* 00001934 */
00001932  3602                     move.w     D3, D2
label00001934:
00001934  594F                     subq.w     A7, 4
00001936  2F0C                     move.l     -[A7], A4
00001938  4EBA 1170                jsr        [PC + 0x1170 /* 00002AAA */]
0000193C  B7DF                     cmpa.l     A3, [A7]+
0000193E  6604                     bne        +0x6 /* 00001944 */
00001940  3A03                     move.w     D5, D3
00001942  6002                     bra        +0x4 /* 00001946 */
label00001944:
00001944  3C03                     move.w     D6, D3
label00001946:
00001946  2F0B                     move.l     -[A7], A3
00001948  D644                     add.w      D3, D4
0000194A  3F03                     move.w     -[A7], D3
0000194C  A963                     syscall    SetControlValue/SetCtlValue
0000194E  2F0C                     move.l     -[A7], A4
00001950  3F05                     move.w     -[A7], D5
00001952  3F06                     move.w     -[A7], D6
00001954  6100 F7D8                bsr        -0x826 /* 0000112E */
label00001958:
00001958  4CDF 1CF8                movem.l    D3,D4,D5,D6,D7,A2,A3,A4, [A7]+
0000195C  4E5E                     unlink     A6
0000195E  205F                     movea.l    A0, [A7]+
00001960  5C4F                     addq.w     A7, 6
00001962  4ED0                     jmp        [A0]
export_117:
fn00001964:
00001964  4E56 0000                link       A6, 0
00001968  554F                     subq.w     A7, 2
0000196A  3F3C FFFF                move.w     -[A7], 0xFFFF
0000196E  2F2D FE5E                move.l     -[A7], [A5 - 0x1A2]
00001972  4EAD 02A2                jsr        [A5 + 0x2A2 /* export_80, CODE:2 @ 0000151C */]
00001976  3D5F 0008                move.w     [A6 + 0x8], [A7]+
0000197A  4E5E                     unlink     A6
0000197C  4E75                     rts
fn0000197E:
0000197E  2F2D FF18                move.l     -[A7], [A5 - 0xE8]
00001982  2F17                     move.l     -[A7], [A7]
00001984  A915                     syscall    ShowWindow
00001986  A91F                     syscall    SelectWindow
00001988  4E75                     rts
fn0000198A:
0000198A  4E56 FFF4                link       A6, -0x000C
0000198E  48E7 1F38                movem.l    -[A7], D3,D4,D5,D6,D7,A2,A3,A4
00001992  286E 0008                movea.l    A4, [A6 + 0x8]
00001996  B9ED FE5E                cmpa.l     A4, [A5 - 0x1A2]
0000199A  670E                     beq        +0x10 /* 000019AA */
0000199C  2F2D FE5E                move.l     -[A7], [A5 - 0x1A2]
000019A0  4EAD 0212                jsr        [A5 + 0x212 /* export_62, CODE:2 @ 00002404 */]
000019A4  2F0C                     move.l     -[A7], A4
000019A6  4EAD 024A                jsr        [A5 + 0x24A /* export_69, CODE:2 @ 000007B0 */]
label000019AA:
000019AA  266E 000C                movea.l    A3, [A6 + 0xC]
000019AE  2D6B 000A FFFC           move.l     [A6 - 0x4], [A3 + 0xA]
000019B4  2D6E FFFC FFF8           move.l     [A6 - 0x8], [A6 - 0x4]
000019BA  2054                     movea.l    A0, [A4]
000019BC  2468 0028                movea.l    A2, [A0 + 0x28]
000019C0  B9ED FE6C                cmpa.l     A4, [A5 - 0x194]
000019C4  6700 008E                beq        +0x90 /* 00001A54 */
000019C8  4EBA 08FC                jsr        [PC + 0x8FC /* 000022C6 */]
000019CC  486E FFF8                pea.l      [A6 - 0x8]
000019D0  A871                     syscall    GlobalToLocal
000019D2  2E2E FFF8                move.l     D7, [A6 - 0x8]
000019D6  554F                     subq.w     A7, 2
000019D8  2F07                     move.l     -[A7], D7
000019DA  2F0A                     move.l     -[A7], A2
000019DC  486E FFF4                pea.l      [A6 - 0xC]
000019E0  A96C                     syscall    FindControl
000019E2  3C1F                     move.w     D6, [A7]+
000019E4  6700 006E                beq        +0x70 /* 00001A54 */
000019E8  2A2E FFF4                move.l     D5, [A6 - 0xC]
000019EC  0C46 0017                cmpi.w     D6, 0x17
000019F0  6E18                     bgt        +0x1A /* 00001A0A */
000019F2  0C46 0014                cmpi.w     D6, 0x14
000019F6  6D12                     blt        +0x14 /* 00001A0A */
000019F8  3B46 FF22                move.w     [A5 - 0xDE], D6
000019FC  554F                     subq.w     A7, 2
000019FE  2F05                     move.l     -[A7], D5
00001A00  2F07                     move.l     -[A7], D7
00001A02  487A FEC0                pea.l      [PC - 0x140 /* 000018C4, value 0x4E560000 'NV\0\0', cstring "NV" */]
00001A06  A968                     syscall    TrackControl
00001A08  544F                     addq.w     A7, 2
label00001A0A:
00001A0A  0C46 0081                cmpi.w     D6, 0x81
00001A0E  6638                     bne        +0x3A /* 00001A48 */
00001A10  554F                     subq.w     A7, 2
00001A12  2F05                     move.l     -[A7], D5
00001A14  A960                     syscall    GetControlValue/GetCtlValue
00001A16  381F                     move.w     D4, [A7]+
00001A18  554F                     subq.w     A7, 2
00001A1A  2F05                     move.l     -[A7], D5
00001A1C  2F07                     move.l     -[A7], D7
00001A1E  42A7                     clr.l      -[A7]
00001A20  A968                     syscall    TrackControl
00001A22  2F05                     move.l     -[A7], D5
00001A24  A960                     syscall    GetControlValue/GetCtlValue
00001A26  301F                     move.w     D0, [A7]+
00001A28  9044                     sub.w      D0, D4
00001A2A  3800                     move.w     D4, D0
00001A2C  2F0A                     move.l     -[A7], A2
00001A2E  594F                     subq.w     A7, 4
00001A30  2F0A                     move.l     -[A7], A2
00001A32  4EBA 1076                jsr        [PC + 0x1076 /* 00002AAA */]
00001A36  BA9F                     cmp.l      D5, [A7]+
00001A38  6606                     bne        +0x8 /* 00001A40 */
00001A3A  3F04                     move.w     -[A7], D4
00001A3C  4267                     clr.w      -[A7]
00001A3E  6004                     bra        +0x6 /* 00001A44 */
label00001A40:
00001A40  4267                     clr.w      -[A7]
00001A42  3F04                     move.w     -[A7], D4
label00001A44:
00001A44  4EBA F6E8                jsr        [PC - 0x918 /* 0000112E */]
label00001A48:
00001A48  4EBA 0878                jsr        [PC + 0x878 /* 000022C2 */]
00001A4C  2F0C                     move.l     -[A7], A4
00001A4E  4EAD 02E2                jsr        [A5 + 0x2E2 /* export_88, CODE:2 @ 00000F3A */]
00001A52  603A                     bra        +0x3C /* 00001A8E */
label00001A54:
00001A54  B9ED FE5E                cmpa.l     A4, [A5 - 0x1A2]
00001A58  670C                     beq        +0xE /* 00001A66 */
00001A5A  51E7                     sf         -[A7]
00001A5C  50E7                     st         -[A7]
00001A5E  4EAD 012A                jsr        [A5 + 0x12A /* export_33, CODE:2 @ 0000118C */]
00001A62  2B4C FE5E                move.l     [A5 - 0x1A2], A4
label00001A66:
00001A66  4EBA 085A                jsr        [PC + 0x85A /* 000022C2 */]
00001A6A  486E FFFC                pea.l      [A6 - 0x4]
00001A6E  A871                     syscall    GlobalToLocal
00001A70  082B 0001 000E           btst.b     [A3 + 0xE], 0x1
00001A76  56E7                     sne        -[A7]
00001A78  302D FF2A                move.w     D0, [A5 - 0xD6]
00001A7C  0C40 0001                cmpi.w     D0, 0x1
00001A80  5EE7                     sgt        -[A7]
00001A82  2F2E FFFC                move.l     -[A7], [A6 - 0x4]
00001A86  2F2D FE5E                move.l     -[A7], [A5 - 0x1A2]
00001A8A  4EAD 02CA                jsr        [A5 + 0x2CA /* export_85, CODE:2 @ 00000FBE */]
label00001A8E:
00001A8E  4CDF 1CF8                movem.l    D3,D4,D5,D6,D7,A2,A3,A4, [A7]+
00001A92  4E5E                     unlink     A6
00001A94  205F                     movea.l    A0, [A7]+
00001A96  504F                     addq.w     A7, 8
00001A98  4ED0                     jmp        [A0]
fn00001A9A:
00001A9A  4A6F EFF8                tst.w      [A7 - 0x1008]
00001A9E  4E56 FFF8                link       A6, -0x0008
00001AA2  48E7 0300                movem.l    -[A7], D6,D7
00001AA6  206E 000A                movea.l    A0, [A6 + 0xA]
00001AAA  3010                     move.w     D0, [A0]
00001AAC  48C0                     ext.l      D0
00001AAE  2E00                     move.l     D7, D0
00001AB0  302E 0008                move.w     D0, [A6 + 0x8]
00001AB4  48C0                     ext.l      D0
00001AB6  2C00                     move.l     D6, D0
00001AB8  42A7                     clr.l      -[A7]
00001ABA  2F06                     move.l     -[A7], D6
00001ABC  4EBA 173A                jsr        [PC + 0x173A /* 000031F8 */]
00001AC0  2C1F                     move.l     D6, [A7]+
00001AC2  42A7                     clr.l      -[A7]
00001AC4  2F07                     move.l     -[A7], D7
00001AC6  2F06                     move.l     -[A7], D6
00001AC8  4EBA 172A                jsr        [PC + 0x172A /* 000031F4 */]
00001ACC  2E1F                     move.l     D7, [A7]+
00001ACE  206E 000A                movea.l    A0, [A6 + 0xA]
00001AD2  3087                     move.w     [A0], D7
00001AD4  4CDF 00C0                movem.l    D6,D7, [A7]+
00001AD8  4E5E                     unlink     A6
00001ADA  205F                     movea.l    A0, [A7]+
00001ADC  5C4F                     addq.w     A7, 6
00001ADE  4ED0                     jmp        [A0]
export_159:
fn00001AE0:
00001AE0  4A6F EDFA                tst.w      [A7 - 0x1206]
00001AE4  4E56 FDFA                link       A6, -0x0206
00001AE8  4E5E                     unlink     A6
00001AEA  205F                     movea.l    A0, [A7]+
00001AEC  544F                     addq.w     A7, 2
00001AEE  4ED0                     jmp        [A0]
fn00001AF0:
00001AF0  4A6F EFEE                tst.w      [A7 - 0x1012]
00001AF4  4E56 FFEE                link       A6, -0x0012
00001AF8  4267                     clr.w      -[A7]
00001AFA  3F3C FFFF                move.w     -[A7], 0xFFFF
00001AFE  486E FFF0                pea.l      [A6 - 0x10]
00001B02  4EBA 1904                jsr        [PC + 0x1904 /* 00003408 */]
00001B06  1D5F FFEF                move.b     [A6 - 0x11], [A7]+
00001B0A  42A7                     clr.l      -[A7]
00001B0C  302E FFFE                move.w     D0, [A6 - 0x2]
00001B10  48C0                     ext.l      D0
00001B12  2F00                     move.l     -[A7], D0
00001B14  2F3C 0000 0100           move.l     -[A7], 0x100
00001B1A  4EBA 16D8                jsr        [PC + 0x16D8 /* 000031F4 */]
00001B1E  0C9F 0000 0100           cmpi.l     [A7]+, 0x100
00001B24  57C0                     seq        D0
00001B26  4400                     neg.b      D0
00001B28  1D40 0008                move.b     [A6 + 0x8], D0
00001B2C  4E5E                     unlink     A6
00001B2E  4E75                     rts
export_138:
00001B30  4A6F EFEE                tst.w      [A7 - 0x1012]
00001B34  4E56 FFEE                link       A6, -0x0012
00001B38  4267                     clr.w      -[A7]
00001B3A  3F3C FFFF                move.w     -[A7], 0xFFFF
00001B3E  486E FFF0                pea.l      [A6 - 0x10]
00001B42  4EBA 18C4                jsr        [PC + 0x18C4 /* 00003408 */]
00001B46  1D5F FFEF                move.b     [A6 - 0x11], [A7]+
00001B4A  42A7                     clr.l      -[A7]
00001B4C  302E FFFE                move.w     D0, [A6 - 0x2]
00001B50  48C0                     ext.l      D0
00001B52  2F00                     move.l     -[A7], D0
00001B54  2F3C 0000 0900           move.l     -[A7], 0x900 /* '\t\0' */
00001B5A  4EBA 1698                jsr        [PC + 0x1698 /* 000031F4 */]
00001B5E  0C9F 0000 0900           cmpi.l     [A7]+, 0x900 /* '\t\0' */
00001B64  57C0                     seq        D0
00001B66  4400                     neg.b      D0
00001B68  1D40 0008                move.b     [A6 + 0x8], D0
00001B6C  4E5E                     unlink     A6
00001B6E  4E75                     rts
export_154:
fn00001B70:
00001B70  4A6F EFF4                tst.w      [A7 - 0x100C]
00001B74  4E56 FFF4                link       A6, -0x000C
00001B78  486E FFF4                pea.l      [A6 - 0xC]
00001B7C  206E 000A                movea.l    A0, [A6 + 0xA]
00001B80  226E 000A                movea.l    A1, [A6 + 0xA]
00001B84  3029 0006                move.w     D0, [A1 + 0x6]
00001B88  D068 0002                add.w      D0, [A0 + 0x2]
00001B8C  48C0                     ext.l      D0
00001B8E  81FC 0002                divs.w     D0, 0x2
00001B92  3F00                     move.w     -[A7], D0
00001B94  206E 000A                movea.l    A0, [A6 + 0xA]
00001B98  226E 000A                movea.l    A1, [A6 + 0xA]
00001B9C  3029 0004                move.w     D0, [A1 + 0x4]
00001BA0  D050                     add.w      D0, [A0]
00001BA2  48C0                     ext.l      D0
00001BA4  81FC 0002                divs.w     D0, 0x2
00001BA8  3F00                     move.w     -[A7], D0
00001BAA  4EBA 1696                jsr        [PC + 0x1696 /* 00003242 */]
00001BAE  2D6E FFF4 FFF8           move.l     [A6 - 0x8], [A6 - 0xC]
00001BB4  2D6E FFF4 FFFC           move.l     [A6 - 0x4], [A6 - 0xC]
00001BBA  102E 0008                move.b     D0, [A6 + 0x8]
00001BBE  6722                     beq        +0x24 /* 00001BE2 */
00001BC0  2F2E 000E                move.l     -[A7], [A6 + 0xE]
00001BC4  486E FFF8                pea.l      [A6 - 0x8]
00001BC8  1F3C 0001                move.b     -[A7], 0x1
00001BCC  4EBA 01EA                jsr        [PC + 0x1EA /* 00001DB8 */]
00001BD0  486E FFF8                pea.l      [A6 - 0x8]
00001BD4  2F2E 000A                move.l     -[A7], [A6 + 0xA]
00001BD8  1F3C 0001                move.b     -[A7], 0x1
00001BDC  4EBA 01DA                jsr        [PC + 0x1DA /* 00001DB8 */]
00001BE0  601C                     bra        +0x1E /* 00001BFE */
label00001BE2:
00001BE2  486E FFF8                pea.l      [A6 - 0x8]
00001BE6  2F2E 000A                move.l     -[A7], [A6 + 0xA]
00001BEA  4267                     clr.w      -[A7]
00001BEC  4EBA 01CA                jsr        [PC + 0x1CA /* 00001DB8 */]
00001BF0  2F2E 000E                move.l     -[A7], [A6 + 0xE]
00001BF4  486E FFF8                pea.l      [A6 - 0x8]
00001BF8  4267                     clr.w      -[A7]
00001BFA  4EBA 01BC                jsr        [PC + 0x1BC /* 00001DB8 */]
label00001BFE:
00001BFE  4E5E                     unlink     A6
00001C00  205F                     movea.l    A0, [A7]+
00001C02  DEFC 000A                add.w      A7, 0xA /* '\n' */
00001C06  4ED0                     jmp        [A0]
export_116:
00001C08  4A6F EFF8                tst.w      [A7 - 0x1008]
00001C0C  4E56 FFF8                link       A6, -0x0008
00001C10  48E7 0300                movem.l    -[A7], D6,D7
00001C14  206E 000A                movea.l    A0, [A6 + 0xA]
00001C18  3010                     move.w     D0, [A0]
00001C1A  48C0                     ext.l      D0
00001C1C  2E00                     move.l     D7, D0
00001C1E  302E 0008                move.w     D0, [A6 + 0x8]
00001C22  48C0                     ext.l      D0
00001C24  2C00                     move.l     D6, D0
00001C26  42A7                     clr.l      -[A7]
00001C28  2F07                     move.l     -[A7], D7
00001C2A  2F06                     move.l     -[A7], D6
00001C2C  4EBA 15CC                jsr        [PC + 0x15CC /* 000031FA */]
00001C30  2E1F                     move.l     D7, [A7]+
00001C32  206E 000A                movea.l    A0, [A6 + 0xA]
00001C36  3087                     move.w     [A0], D7
00001C38  4CDF 00C0                movem.l    D6,D7, [A7]+
00001C3C  4E5E                     unlink     A6
00001C3E  205F                     movea.l    A0, [A7]+
00001C40  5C4F                     addq.w     A7, 6
00001C42  4ED0                     jmp        [A0]
fn00001C44:
00001C44  4A6F EFF8                tst.w      [A7 - 0x1008]
00001C48  4E56 FFF8                link       A6, -0x0008
00001C4C  48E7 0F00                movem.l    -[A7], D4,D5,D6,D7
00001C50  2A2E 000C                move.l     D5, [A6 + 0xC]
00001C54  206E 0008                movea.l    A0, [A6 + 0x8]
00001C58  4210                     clr.b      [A0]
00001C5A  4244                     clr.w      D4
00001C5C  7E01                     moveq.l    D7, 0x01
00001C5E  4A85                     tst.l      D5
00001C60  6E0A                     bgt        +0xC /* 00001C6C */
00001C62  206E 0008                movea.l    A0, [A6 + 0x8]
00001C66  30BC 0130                move.w     [A0], 0x130
00001C6A  6052                     bra        +0x54 /* 00001CBE */
label00001C6C:
00001C6C  BA87                     cmp.l      D5, D7
00001C6E  6D1C                     blt        +0x1E /* 00001C8C */
00001C70  2F07                     move.l     -[A7], D7
00001C72  700A                     moveq.l    D0, 0x0A
00001C74  2F00                     move.l     -[A7], D0
00001C76  4EAD 00D2                jsr        [A5 + 0xD2 /* export_22, CODE:1 @ 00000E2C */]
00001C7A  2E1F                     move.l     D7, [A7]+
00001C7C  5244                     addq.w     D4, 1
00001C7E  2F2E 0008                move.l     -[A7], [A6 + 0x8]
00001C82  487A 0046                pea.l      [PC + 0x46 /* 00001CCA, value 0x1204A6F */]
00001C86  4EBA 05FC                jsr        [PC + 0x5FC /* 00002284 */]
00001C8A  60E0                     bra        -0x1E /* 00001C6C */
label00001C8C:
00001C8C  3C04                     move.w     D6, D4
00001C8E  6028                     bra        +0x2A /* 00001CB8 */
label00001C90:
00001C90  206E 0008                movea.l    A0, [A6 + 0x8]
00001C94  2006                     move.l     D0, D6
00001C96  2F05                     move.l     -[A7], D5
00001C98  720A                     moveq.l    D1, 0x0A
00001C9A  2F01                     move.l     -[A7], D1
00001C9C  4EAD 00BA                jsr        [A5 + 0xBA /* export_19, CODE:1 @ 00000E80 */]
00001CA0  221F                     move.l     D1, [A7]+
00001CA2  7430                     moveq.l    D2, 0x30
00001CA4  D282                     add.l      D1, D2
00001CA6  1181 0000                move.b     [A0 + D0.w], D1
00001CAA  2F05                     move.l     -[A7], D5
00001CAC  700A                     moveq.l    D0, 0x0A
00001CAE  2F00                     move.l     -[A7], D0
00001CB0  4EAD 00DA                jsr        [A5 + 0xDA /* export_23, CODE:1 @ 00000E60 */]
00001CB4  2A1F                     move.l     D5, [A7]+
00001CB6  5346                     subq.w     D6, 1
label00001CB8:
00001CB8  0C46 0001                cmpi.w     D6, 0x1
00001CBC  6CD2                     bge        -0x2C /* 00001C90 */
label00001CBE:
00001CBE  4CDF 00F0                movem.l    D4,D5,D6,D7, [A7]+
00001CC2  4E5E                     unlink     A6
00001CC4  205F                     movea.l    A0, [A7]+
00001CC6  504F                     addq.w     A7, 8
00001CC8  4ED0                     jmp        [A0]
00001CCA  0120                     btst       -[A0], D0
fn00001CCC:
00001CCC  4A6F EFF8                tst.w      [A7 - 0x1008]
00001CD0  4E56 FFF8                link       A6, -0x0008
00001CD4  302E 000A                move.w     D0, [A6 + 0xA]
00001CD8  48C0                     ext.l      D0
00001CDA  2D40 FFF8                move.l     [A6 - 0x8], D0
00001CDE  302E 0008                move.w     D0, [A6 + 0x8]
00001CE2  48C0                     ext.l      D0
00001CE4  2D40 FFFC                move.l     [A6 - 0x4], D0
00001CE8  42A7                     clr.l      -[A7]
00001CEA  2F2E FFF8                move.l     -[A7], [A6 - 0x8]
00001CEE  2F2E FFFC                move.l     -[A7], [A6 - 0x4]
00001CF2  4EBA 1500                jsr        [PC + 0x1500 /* 000031F4 */]
00001CF6  4A9F                     tst.l      [A7]+
00001CF8  6708                     beq        +0xA /* 00001D02 */
00001CFA  3D7C 0001 000C           move.w     [A6 + 0xC], 0x1
00001D00  6004                     bra        +0x6 /* 00001D06 */
label00001D02:
00001D02  426E 000C                clr.w      [A6 + 0xC]
label00001D06:
00001D06  4E5E                     unlink     A6
00001D08  2E9F                     move.l     [A7], [A7]+
00001D0A  4E75                     rts
export_95:
fn00001D0C:
00001D0C  4A6F EFFC                tst.w      [A7 - 0x1004]
00001D10  4E56 FFFC                link       A6, -0x0004
00001D14  2D6E 0008 FFFC           move.l     [A6 - 0x4], [A6 + 0x8]
00001D1A  206E FFFC                movea.l    A0, [A6 - 0x4]
00001D1E  3D68 006C 000C           move.w     [A6 + 0xC], [A0 + 0x6C]
00001D24  4E5E                     unlink     A6
00001D26  2E9F                     move.l     [A7], [A7]+
00001D28  4E75                     rts
export_92:
fn00001D2A:
00001D2A  4A6F EFFC                tst.w      [A7 - 0x1004]
00001D2E  4E56 FFFC                link       A6, -0x0004
00001D32  2D6E 0008 FFFC           move.l     [A6 - 0x4], [A6 + 0x8]
00001D38  206E FFFC                movea.l    A0, [A6 - 0x4]
00001D3C  2D68 0098 000C           move.l     [A6 + 0xC], [A0 + 0x98]
00001D42  4E5E                     unlink     A6
00001D44  2E9F                     move.l     [A7], [A7]+
00001D46  4E75                     rts
fn00001D48:
00001D48  4A6F EFF4                tst.w      [A7 - 0x100C]
00001D4C  4E56 FFF4                link       A6, -0x000C
00001D50  48E7 0708                movem.l    -[A7], D5,D6,D7,A4
00001D54  286E 0008                movea.l    A4, [A6 + 0x8]
00001D58  302E 000E                move.w     D0, [A6 + 0xE]
00001D5C  48C0                     ext.l      D0
00001D5E  2F2C FFD4                move.l     -[A7], [A4 - 0x2C]
00001D62  2F00                     move.l     -[A7], D0
00001D64  4EAD 00D2                jsr        [A5 + 0xD2 /* export_22, CODE:1 @ 00000E2C */]
00001D68  2E1F                     move.l     D7, [A7]+
00001D6A  302E 000C                move.w     D0, [A6 + 0xC]
00001D6E  48C0                     ext.l      D0
00001D70  2F2C FFD4                move.l     -[A7], [A4 - 0x2C]
00001D74  2F00                     move.l     -[A7], D0
00001D76  4EAD 00D2                jsr        [A5 + 0xD2 /* export_22, CODE:1 @ 00000E2C */]
00001D7A  2C1F                     move.l     D6, [A7]+
00001D7C  42A7                     clr.l      -[A7]
00001D7E  2F2C FFCC                move.l     -[A7], [A4 - 0x34]
00001D82  2F06                     move.l     -[A7], D6
00001D84  4EBA 148C                jsr        [PC + 0x148C /* 00003212 */]
00001D88  42A7                     clr.l      -[A7]
00001D8A  202C FFD4                move.l     D0, [A4 - 0x2C]
00001D8E  90AC FFCC                sub.l      D0, [A4 - 0x34]
00001D92  2F00                     move.l     -[A7], D0
00001D94  2F07                     move.l     -[A7], D7
00001D96  4EBA 147A                jsr        [PC + 0x147A /* 00003212 */]
00001D9A  201F                     move.l     D0, [A7]+
00001D9C  D09F                     add.l      D0, [A7]+
00001D9E  2A00                     move.l     D5, D0
00001DA0  4267                     clr.w      -[A7]
00001DA2  2F05                     move.l     -[A7], D5
00001DA4  4EBA 1474                jsr        [PC + 0x1474 /* 0000321A */]
00001DA8  3D5F 0010                move.w     [A6 + 0x10], [A7]+
00001DAC  4CDF 10E0                movem.l    D5,D6,D7,A4, [A7]+
00001DB0  4E5E                     unlink     A6
00001DB2  205F                     movea.l    A0, [A7]+
00001DB4  504F                     addq.w     A7, 8
00001DB6  4ED0                     jmp        [A0]
export_93:
fn00001DB8:
00001DB8  4A6F EFCC                tst.w      [A7 - 0x1034]
00001DBC  4E56 FFCC                link       A6, -0x0034
00001DC0  48E7 0318                movem.l    -[A7], D6,D7,A3,A4
00001DC4  286E 000E                movea.l    A4, [A6 + 0xE]
00001DC8  266E 000A                movea.l    A3, [A6 + 0xA]
00001DCC  486E FFD8                pea.l      [A6 - 0x28]
00001DD0  4EBA 1458                jsr        [PC + 0x1458 /* 0000322A */]
00001DD4  2F2D FF1C                move.l     -[A7], [A5 - 0xE4]
00001DD8  4EBA 144E                jsr        [PC + 0x144E /* 00003228 */]
00001DDC  206D FFFC                movea.l    A0, [A5 - 0x4]
00001DE0  4868 0010                pea.l      [A0 + 0x10]
00001DE4  4EBA 1452                jsr        [PC + 0x1452 /* 00003238 */]
00001DE8  486D FFE4                pea.l      [A5 - 0x1C]
00001DEC  4EBA 148A                jsr        [PC + 0x148A /* 00003278 */]
00001DF0  3F3C 000E                move.w     -[A7], 0xE
00001DF4  4EBA 1480                jsr        [PC + 0x1480 /* 00003276 */]
00001DF8  2D7C 0001 0000 FFD4      move.l     [A6 - 0x2C], 0x10000
00001E00  102E 0008                move.b     D0, [A6 + 0x8]
00001E04  672E                     beq        +0x30 /* 00001E34 */
00001E06  41EE FFE0                lea.l      A0, [A6 - 0x20]
00001E0A  224C                     movea.l    A1, A4
00001E0C  20D9                     move.l     [A0]+, [A1]+
00001E0E  20D9                     move.l     [A0]+, [A1]+
00001E10  42A7                     clr.l      -[A7]
00001E12  3F3C 0006                move.w     -[A7], 0x6
00001E16  3F3C 0005                move.w     -[A7], 0x5
00001E1A  4EBA 13F8                jsr        [PC + 0x13F8 /* 00003214 */]
00001E1E  2E1F                     move.l     D7, [A7]+
00001E20  42A7                     clr.l      -[A7]
00001E22  3F3C 021D                move.w     -[A7], 0x21D
00001E26  3F3C 2710                move.w     -[A7], 0x2710
00001E2A  4EBA 13E8                jsr        [PC + 0x13E8 /* 00003214 */]
00001E2E  2D5F FFCC                move.l     [A6 - 0x34], [A7]+
00001E32  6020                     bra        +0x22 /* 00001E54 */
label00001E34:
00001E34  41EE FFE0                lea.l      A0, [A6 - 0x20]
00001E38  224B                     movea.l    A1, A3
00001E3A  20D9                     move.l     [A0]+, [A1]+
00001E3C  20D9                     move.l     [A0]+, [A1]+
00001E3E  42A7                     clr.l      -[A7]
00001E40  3F3C 0005                move.w     -[A7], 0x5
00001E44  3F3C 0006                move.w     -[A7], 0x6
00001E48  4EBA 13CA                jsr        [PC + 0x13CA /* 00003214 */]
00001E4C  2E1F                     move.l     D7, [A7]+
00001E4E  2D6E FFD4 FFCC           move.l     [A6 - 0x34], [A6 - 0x2C]
label00001E54:
00001E54  41EE FFE8                lea.l      A0, [A6 - 0x18]
00001E58  43EE FFE0                lea.l      A1, [A6 - 0x20]
00001E5C  20D9                     move.l     [A0]+, [A1]+
00001E5E  20D9                     move.l     [A0]+, [A1]+
00001E60  41EE FFF0                lea.l      A0, [A6 - 0x10]
00001E64  43EE FFE0                lea.l      A1, [A6 - 0x20]
00001E68  20D9                     move.l     [A0]+, [A1]+
00001E6A  20D9                     move.l     [A0]+, [A1]+
00001E6C  486E FFE0                pea.l      [A6 - 0x20]
00001E70  4EBA 140C                jsr        [PC + 0x140C /* 0000327E */]
00001E74  7C01                     moveq.l    D6, 0x01
00001E76  6000 0094                bra        +0x96 /* 00001F0C */
label00001E7A:
00001E7A  4267                     clr.w      -[A7]
00001E7C  3F2C 0002                move.w     -[A7], [A4 + 0x2]
00001E80  3F2B 0002                move.w     -[A7], [A3 + 0x2]
00001E84  2F0E                     move.l     -[A7], A6
00001E86  4EBA FEC0                jsr        [PC - 0x140 /* 00001D48 */]
00001E8A  3D5F FFFA                move.w     [A6 - 0x6], [A7]+
00001E8E  4267                     clr.w      -[A7]
00001E90  3F2C 0006                move.w     -[A7], [A4 + 0x6]
00001E94  3F2B 0006                move.w     -[A7], [A3 + 0x6]
00001E98  2F0E                     move.l     -[A7], A6
00001E9A  4EBA FEAC                jsr        [PC - 0x154 /* 00001D48 */]
00001E9E  3D5F FFFE                move.w     [A6 - 0x2], [A7]+
00001EA2  4267                     clr.w      -[A7]
00001EA4  3F14                     move.w     -[A7], [A4]
00001EA6  3F13                     move.w     -[A7], [A3]
00001EA8  2F0E                     move.l     -[A7], A6
00001EAA  4EBA FE9C                jsr        [PC - 0x164 /* 00001D48 */]
00001EAE  3D5F FFF8                move.w     [A6 - 0x8], [A7]+
00001EB2  4267                     clr.w      -[A7]
00001EB4  3F2C 0004                move.w     -[A7], [A4 + 0x4]
00001EB8  3F2B 0004                move.w     -[A7], [A3 + 0x4]
00001EBC  2F0E                     move.l     -[A7], A6
00001EBE  4EBA FE88                jsr        [PC - 0x178 /* 00001D48 */]
00001EC2  3D5F FFFC                move.w     [A6 - 0x4], [A7]+
00001EC6  486E FFF8                pea.l      [A6 - 0x8]
00001ECA  4EBA 13B2                jsr        [PC + 0x13B2 /* 0000327E */]
00001ECE  486E FFE0                pea.l      [A6 - 0x20]
00001ED2  4EBA 13AA                jsr        [PC + 0x13AA /* 0000327E */]
00001ED6  41EE FFE0                lea.l      A0, [A6 - 0x20]
00001EDA  43EE FFE8                lea.l      A1, [A6 - 0x18]
00001EDE  20D9                     move.l     [A0]+, [A1]+
00001EE0  20D9                     move.l     [A0]+, [A1]+
00001EE2  41EE FFE8                lea.l      A0, [A6 - 0x18]
00001EE6  43EE FFF0                lea.l      A1, [A6 - 0x10]
00001EEA  20D9                     move.l     [A0]+, [A1]+
00001EEC  20D9                     move.l     [A0]+, [A1]+
00001EEE  41EE FFF0                lea.l      A0, [A6 - 0x10]
00001EF2  43EE FFF8                lea.l      A1, [A6 - 0x8]
00001EF6  20D9                     move.l     [A0]+, [A1]+
00001EF8  20D9                     move.l     [A0]+, [A1]+
00001EFA  42A7                     clr.l      -[A7]
00001EFC  2F2E FFCC                move.l     -[A7], [A6 - 0x34]
00001F00  2F07                     move.l     -[A7], D7
00001F02  4EBA 130E                jsr        [PC + 0x130E /* 00003212 */]
00001F06  2D5F FFCC                move.l     [A6 - 0x34], [A7]+
00001F0A  5246                     addq.w     D6, 1
label00001F0C:
00001F0C  0C46 0010                cmpi.w     D6, 0x10
00001F10  6F00 FF68                ble        -0x96 /* 00001E7A */
00001F14  486E FFE0                pea.l      [A6 - 0x20]
00001F18  4EBA 1364                jsr        [PC + 0x1364 /* 0000327E */]
00001F1C  486E FFE8                pea.l      [A6 - 0x18]
00001F20  4EBA 135C                jsr        [PC + 0x135C /* 0000327E */]
00001F24  486E FFF0                pea.l      [A6 - 0x10]
00001F28  4EBA 1354                jsr        [PC + 0x1354 /* 0000327E */]
00001F2C  4EBA 134C                jsr        [PC + 0x134C /* 0000327A */]
00001F30  2F2E FFD8                move.l     -[A7], [A6 - 0x28]
00001F34  4EBA 12F2                jsr        [PC + 0x12F2 /* 00003228 */]
00001F38  4CDF 18C0                movem.l    D6,D7,A3,A4, [A7]+
00001F3C  4E5E                     unlink     A6
00001F3E  205F                     movea.l    A0, [A7]+
00001F40  DEFC 000A                add.w      A7, 0xA /* '\n' */
00001F44  4ED0                     jmp        [A0]
00001F46  0000 205F                ori.b      D0, 0x5F /* '_' */
// begin alternate branch 00001F48-00001F4A
export_185:
fn00001F48:
00001F48  205F                     movea.l    A0, [A7]+
// end alternate branch 00001F48-00001F4A
export_185: // at 00001F48 (misaligned)
fn00001F48: // (misaligned)
00001F4A  4C9F 0003                movem.w    D0,D1, [A7]+
00001F4E  905F                     sub.w      D0, [A7]+
00001F50  6A02                     bpl        +0x4 /* 00001F54 */
00001F52  4440                     neg.w      D0
label00001F54:
00001F54  925F                     sub.w      D1, [A7]+
00001F56  6A02                     bpl        +0x4 /* 00001F5A */
00001F58  4441                     neg.w      D1
label00001F5A:
00001F5A  B041                     cmp.w      D0, D1
00001F5C  6E02                     bgt        +0x4 /* 00001F60 */
00001F5E  C340                     exg        D1, D0
label00001F60:
00001F60  E241                     asr        D1.w, 1
00001F62  D041                     add.w      D0, D1
00001F64  3E80                     move.w     [A7], D0
00001F66  4ED0                     jmp        [A0]
export_184:
fn00001F68:
00001F68  48E7 E0C0                movem.l    -[A7], D0,D1,D2,A0,A1
00001F6C  2F00                     move.l     -[A7], D0
00001F6E  2F08                     move.l     -[A7], A0
00001F70  4EBA FCD2                jsr        [PC - 0x32E /* 00001C44 */]
00001F74  4CDF 0307                movem.l    D0,D1,D2,A0,A1, [A7]+
00001F78  4E75                     rts
fn00001F7A:
00001F7A  554F                     subq.w     A7, 2
00001F7C  3F38 0210                move.w     -[A7], [0x00000210 /* BootDrive */]
00001F80  486F 0008                pea.l      [A7 + 0x8]
00001F84  6100 0620                bsr        +0x622 /* 000025A6 */
00001F88  544F                     addq.w     A7, 2
00001F8A  4E75                     rts
export_182:
00001F8C  3F3C 0002                move.w     -[A7], 0x2
00001F90  A9E9                     syscall    Pack2
00001F92  4267                     clr.w      -[A7]
00001F94  A999                     syscall    UpdateResFile
00001F96  7001                     moveq.l    D0, 0x01
00001F98  6008                     bra        +0xA /* 00001FA2 */
export_126:
00001F9A  3F3C 0004                move.w     -[A7], 0x4
00001F9E  A9E9                     syscall    Pack2
00001FA0  7000                     moveq.l    D0, 0x00
label00001FA2:
00001FA2  48E7 1F00                movem.l    -[A7], D3,D4,D5,D6,D7
00001FA6  3600                     move.w     D3, D0
00001FA8  594F                     subq.w     A7, 4
00001FAA  2F3C 5245 5323           move.l     -[A7], 0x52455323 /* 'RES#' */
00001FB0  3F3C 0080                move.w     -[A7], 0x80
00001FB4  A9A0                     syscall    GetResource
00001FB6  4A03                     tst.b      D3
00001FB8  670A                     beq        +0xC /* 00001FC4 */
00001FBA  4EAD 00AA                jsr        [A5 + 0xAA /* export_17, CODE:1 @ 0000018E */]
00001FBE  50ED FF21                st         [A5 - 0xDF]
00001FC2  600C                     bra        +0xE /* 00001FD0 */
label00001FC4:
00001FC4  4EAD 004A                jsr        [A5 + 0x4A /* export_5, CODE:1 @ 0000021E */]
00001FC8  51ED FF21                sf         [A5 - 0xDF]
00001FCC  6100 0C80                bsr        +0xC82 /* 00002C4E */
label00001FD0:
00001FD0  4CDF 00F8                movem.l    D3,D4,D5,D6,D7, [A7]+
00001FD4  4E75                     rts
00001FD6  4E56 FF90                link       A6, -0x0070
00001FDA  41EE FFB0                lea.l      A0, [A6 - 0x50]
00001FDE  316E 000C 0016           move.w     [A0 + 0x16], [A6 + 0xC]
00001FE4  4268 001C                clr.w      [A0 + 0x1C]
00001FE8  43EE FF90                lea.l      A1, [A6 - 0x70]
00001FEC  2149 0012                move.l     [A0 + 0x12], A1
00001FF0  A007                     syscall    GetVolInfo/PBHGetVInfo/HGetVInfo
00001FF2  6100 001A                bsr        +0x1C /* 0000200E */
00001FF6  2628 0030                move.l     D3, [A0 + 0x30]
00001FFA  C7E8 003E                muls.w     D3, [A0 + 0x3E]
00001FFE  B6AE 0008                cmp.l      D3, [A6 + 0x8]
00002002  5CEE 000E                sge        [A6 + 0xE]
00002006  4E5E                     unlink     A6
00002008  205F                     movea.l    A0, [A7]+
0000200A  5C4F                     addq.w     A7, 6
0000200C  4ED0                     jmp        [A0]
export_178:
fn0000200E:
0000200E  48E7 FFF8                movem.l    -[A7], D0,D1,D2,D3,D4,D5,D6,D7,A0,A1,A2,A3,A4
00002012  4A40                     tst.w      D0
00002014  6B06                     bmi        +0x8 /* 0000201C */
00002016  3038 0A60                move.w     D0, [0x00000A60 /* ResErr */]
0000201A  6A06                     bpl        +0x8 /* 00002022 */
label0000201C:
0000201C  3F00                     move.w     -[A7], D0
0000201E  4EBA FAC0                jsr        [PC - 0x540 /* 00001AE0 */]
label00002022:
00002022  4CDF 1FFF                movem.l    D0,D1,D2,D3,D4,D5,D6,D7,A0,A1,A2,A3,A4, [A7]+
00002026  4E75                     rts
export_181:
fn00002028:
00002028  4E56 FF80                link       A6, -0x0080
0000202C  48E7 0038                movem.l    -[A7], A2,A3,A4
00002030  7400                     moveq.l    D2, 0x00
00002032  4A2D FF24                tst.b      [A5 - 0xDC]
00002036  660A                     bne        +0xC /* 00002042 */
00002038  594F                     subq.w     A7, 4
0000203A  4267                     clr.w      -[A7]
0000203C  4EAD 0062                jsr        [A5 + 0x62 /* export_8, CODE:1 @ 000001FC */]
00002040  241F                     move.l     D2, [A7]+
label00002042:
00002042  4A2D FF21                tst.b      [A5 - 0xDF]
00002046  6616                     bne        +0x18 /* 0000205E */
00002048  514F                     subq.w     A7, 8
0000204A  2F3C 5245 5323           move.l     -[A7], 0x52455323 /* 'RES#' */
00002050  3F3C 0081                move.w     -[A7], 0x81
00002054  A9A0                     syscall    GetResource
00002056  2857                     movea.l    A4, [A7]
00002058  4EAD 00C2                jsr        [A5 + 0xC2 /* export_20, CODE:1 @ 00000186 */]
0000205C  D49F                     add.l      D2, [A7]+
label0000205E:
0000205E  202E 0008                move.l     D0, [A6 + 0x8]
00002062  D082                     add.l      D0, D2
00002064  A122                     syscall    NewHandle, flags=1
00002066  6608                     bne        +0xA /* 00002070 */
00002068  A023                     syscall    DisposHandle/DisposeHandle
0000206A  50EE 000C                st         [A6 + 0xC]
0000206E  6004                     bra        +0x6 /* 00002074 */
label00002070:
00002070  51EE 000C                sf         [A6 + 0xC]
label00002074:
00002074  4A2D FF21                tst.b      [A5 - 0xDF]
00002078  6606                     bne        +0x8 /* 00002080 */
0000207A  2F0C                     move.l     -[A7], A4
0000207C  4EAD 004A                jsr        [A5 + 0x4A /* export_5, CODE:1 @ 0000021E */]
label00002080:
00002080  4CDF 1C00                movem.l    A2,A3,A4, [A7]+
00002084  4E5E                     unlink     A6
00002086  2E9F                     move.l     [A7], [A7]+
00002088  4E75                     rts
export_179:
fn0000208A:
0000208A  41FA 0022                lea.l      A0, [PC + 0x22 /* 000020AE, value 0x5E30225F '^0\"_' */]
0000208E  7230                     moveq.l    D1, 0x30
00002090  D200                     add.b      D1, D0
00002092  1141 0001                move.b     [A0 + 0x1], D1
00002096  7002                     moveq.l    D0, 0x02
00002098  594F                     subq.w     A7, 4
0000209A  2F0A                     move.l     -[A7], A2
0000209C  42A7                     clr.l      -[A7]
0000209E  2F08                     move.l     -[A7], A0
000020A0  2F00                     move.l     -[A7], D0
000020A2  1019                     move.b     D0, [A1]+
000020A4  2F09                     move.l     -[A7], A1
000020A6  2F00                     move.l     -[A7], D0
000020A8  A9E0                     syscall    Munger
000020AA  584F                     addq.w     A7, 4
000020AC  4E75                     rts
000020AE  5E30 225F                addq.b     [A0 + D2.w * 2 + 0x5F], 7
// begin alternate branch 000020B0-000020B2
export_180:
000020B0  225F                     movea.l    A1, [A7]+
// end alternate branch 000020B0-000020B2
export_180: // at 000020B0 (misaligned)
000020B2  321F                     move.w     D1, [A7]+
000020B4  205F                     movea.l    A0, [A7]+
label000020B6:
000020B6  671E                     beq        +0x20 /* 000020D6 */
000020B8  1018                     move.b     D0, [A0]+
000020BA  0C00 0020                cmpi.b     D0, 0x20 /* ' ' */
000020BE  630C                     bls        +0xE /* 000020CC */
000020C0  0C00 0009                cmpi.b     D0, 0x9 /* '\t' */
000020C4  6706                     beq        +0x8 /* 000020CC */
000020C6  0C00 003A                cmpi.b     D0, 0x3A /* ':' */
000020CA  6606                     bne        +0x8 /* 000020D2 */
label000020CC:
000020CC  117C 0020 FFFF           move.b     [A0 - 0x1], 0x20 /* ' ' */
label000020D2:
000020D2  5341                     subq.w     D1, 1
000020D4  60E0                     bra        -0x1E /* 000020B6 */
label000020D6:
000020D6  4ED1                     jmp        [A1]
export_156:
000020D8  4E56 FFB0                link       A6, -0x0050
000020DC  48E7 0038                movem.l    -[A7], A2,A3,A4
000020E0  142E 0008                move.b     D2, [A6 + 0x8]
label000020E4:
000020E4  2878 0358                movea.l    A4, [0x00000358]
000020E8  41EE FFB0                lea.l      A0, [A6 - 0x50]
000020EC  42A8 0012                clr.l      [A0 + 0x12]
label000020F0:
000020F0  316C 004E 0016           move.w     [A0 + 0x16], [A4 + 0x4E]
000020F6  4A6C 0048                tst.w      [A4 + 0x48]
000020FA  660E                     bne        +0x10 /* 0000210A */
000020FC  4A6C 004A                tst.w      [A4 + 0x4A]
00002100  6B08                     bmi        +0xA /* 0000210A */
00002102  4A02                     tst.b      D2
00002104  6706                     beq        +0x8 /* 0000210C */
00002106  A00E                     syscall    UnmountVol/HUnmountVol
00002108  60DA                     bra        -0x24 /* 000020E4 */
label0000210A:
0000210A  A013                     syscall    FlushVol
label0000210C:
0000210C  2854                     movea.l    A4, [A4]
0000210E  200C                     move.l     D0, A4
00002110  66DE                     bne        -0x20 /* 000020F0 */
00002112  4CDF 1C00                movem.l    A2,A3,A4, [A7]+
00002116  4E5E                     unlink     A6
00002118  205F                     movea.l    A0, [A7]+
0000211A  544F                     addq.w     A7, 2
0000211C  4ED0                     jmp        [A0]
export_177:
0000211E  4E56 FF08                link       A6, -0x00F8
00002122  48E7 3F38                movem.l    -[A7], D2,D3,D4,D5,D6,D7,A2,A3,A4
00002126  6100 0FBA                bsr        +0xFBC /* 000030E2 */
0000212A  7064                     moveq.l    D0, 0x64
0000212C  4840                     swap.w     D0
0000212E  A04C                     syscall    CompactMem
00002130  0280 FFFF FC00           andi.l     D0, 0xFFFFFC00
00002136  6700 00AC                beq        +0xAE /* 000021E4 */
0000213A  2D40 FFFC                move.l     [A6 - 0x4], D0
0000213E  A11E                     syscall    NewPtr, flags=1
00002140  2D48 FFF8                move.l     [A6 - 0x8], A0
00002144  286E 0008                movea.l    A4, [A6 + 0x8]
00002148  2654                     movea.l    A3, [A4]
0000214A  41EE FFA8                lea.l      A0, [A6 - 0x58]
0000214E  216E 000C 0012           move.l     [A0 + 0x12], [A6 + 0xC]
00002154  316B 0022 0016           move.w     [A0 + 0x16], [A3 + 0x22]
0000215A  4268 001A                clr.w      [A0 + 0x1A]
0000215E  4268 001C                clr.w      [A0 + 0x1C]
00002162  A00C                     syscall    GetFileInfo/PBHGetFInfo/HGetFileInfo
00002164  6642                     bne        +0x44 /* 000021A8 */
00002166  42A8 001C                clr.l      [A0 + 0x1C]
0000216A  43EE FF58                lea.l      A1, [A6 - 0xA8]
0000216E  7050                     moveq.l    D0, 0x50
00002170  A02E                     syscall    BlockMove/BlockMoveData
00002172  5228 001B                addq.b     [A0 + 0x1B], 1
00002176  41EE FF58                lea.l      A0, [A6 - 0xA8]
0000217A  43EB 003E                lea.l      A1, [A3 + 0x3E]
0000217E  2149 0012                move.l     [A0 + 0x12], A1
00002182  43EE FF08                lea.l      A1, [A6 - 0xF8]
00002186  7050                     moveq.l    D0, 0x50
00002188  A02E                     syscall    BlockMove/BlockMoveData
0000218A  7800                     moveq.l    D4, 0x00
0000218C  222E FFDE                move.l     D1, [A6 - 0x22]
00002190  670A                     beq        +0xC /* 0000219C */
00002192  76FF                     moveq.l    D3, 0xFFFFFFFF
00002194  45FA 0064                lea.l      A2, [PC + 0x64 /* 000021FA, value 0x61EC6602 */]
00002198  6170                     bsr        +0x72 /* 0000220A */
0000219A  660C                     bne        +0xE /* 000021A8 */
label0000219C:
0000219C  222E FFE8                move.l     D1, [A6 - 0x18]
000021A0  76FF                     moveq.l    D3, 0xFFFFFFFF
000021A2  45FA 005E                lea.l      A2, [PC + 0x5E /* 00002202, value 0x61E46602 */]
000021A6  6162                     bsr        +0x64 /* 0000220A */
label000021A8:
000021A8  3D40 0010                move.w     [A6 + 0x10], D0
000021AC  6A16                     bpl        +0x18 /* 000021C4 */
000021AE  41EE FF58                lea.l      A0, [A6 - 0xA8]
000021B2  A001                     syscall    Close
000021B4  0C6E FFD0 0010           cmpi.w     [A6 + 0x10], 0xFFD0
000021BA  6702                     beq        +0x4 /* 000021BE */
000021BC  A009                     syscall    Delete/PBHDelete/HDelete
label000021BE:
000021BE  41EE FFA8                lea.l      A0, [A6 - 0x58]
000021C2  A001                     syscall    Close
label000021C4:
000021C4  41EE FF58                lea.l      A0, [A6 - 0xA8]
000021C8  42A8 0012                clr.l      [A0 + 0x12]
000021CC  A013                     syscall    FlushVol
000021CE  6100 0F0A                bsr        +0xF0C /* 000030DA */
000021D2  206E FFF8                movea.l    A0, [A6 - 0x8]
000021D6  A01F                     syscall    DisposPtr/DisposePtr
000021D8  4CDF 1CFC                movem.l    D2,D3,D4,D5,D6,D7,A2,A3,A4, [A7]+
000021DC  4E5E                     unlink     A6
000021DE  205F                     movea.l    A0, [A7]+
000021E0  504F                     addq.w     A7, 8
000021E2  4ED0                     jmp        [A0]
label000021E4:
000021E4  7094                     moveq.l    D0, 0xFFFFFF94
000021E6  60C0                     bra        -0x3E /* 000021A8 */
fn000021E8:
000021E8  4A43                     tst.w      D3
000021EA  6B0A                     bmi        +0xC /* 000021F6 */
000021EC  4A44                     tst.w      D4
000021EE  6606                     bne        +0x8 /* 000021F6 */
000021F0  5244                     addq.w     D4, 1
000021F2  A008                     syscall    Create/PBHCreate/HCreate
000021F4  4E75                     rts
label000021F6:
000021F6  7000                     moveq.l    D0, 0x00
000021F8  4E75                     rts
000021FA  61EC                     bsr        -0x12 /* 000021E8 */
000021FC  6602                     bne        +0x4 /* 00002200 */
000021FE  A000                     syscall    Open/PBHOpen/HOpen
label00002200:
00002200  4E75                     rts
00002202  61E4                     bsr        -0x1A /* 000021E8 */
00002204  6602                     bne        +0x4 /* 00002208 */
00002206  A00A                     syscall    OpenRF/PBHOpenRF/HOpenRF
label00002208:
00002208  4E75                     rts
fn0000220A:
0000220A  41EE FFA8                lea.l      A0, [A6 - 0x58]
0000220E  216E FFF8 0020           move.l     [A0 + 0x20], [A6 - 0x8]
00002214  4A43                     tst.w      D3
00002216  6A06                     bpl        +0x8 /* 0000221E */
00002218  4E92                     jsr        [A2]
0000221A  6666                     bne        +0x68 /* 00002282 */
0000221C  5243                     addq.w     D3, 1
label0000221E:
0000221E  2001                     move.l     D0, D1
00002220  B0AE FFFC                cmp.l      D0, [A6 - 0x4]
00002224  6F04                     ble        +0x6 /* 0000222A */
00002226  202E FFFC                move.l     D0, [A6 - 0x4]
label0000222A:
0000222A  2140 0024                move.l     [A0 + 0x24], D0
0000222E  2400                     move.l     D2, D0
00002230  4268 002C                clr.w      [A0 + 0x2C]
00002234  A002                     syscall    Read
00002236  664A                     bne        +0x4C /* 00002282 */
00002238  92AE FFFC                sub.l      D1, [A6 - 0x4]
0000223C  6E04                     bgt        +0x6 /* 00002242 */
0000223E  A001                     syscall    Close
00002240  6640                     bne        +0x42 /* 00002282 */
label00002242:
00002242  41EE FF58                lea.l      A0, [A6 - 0xA8]
00002246  4A43                     tst.w      D3
00002248  6E06                     bgt        +0x8 /* 00002250 */
0000224A  4E92                     jsr        [A2]
0000224C  6634                     bne        +0x36 /* 00002282 */
0000224E  5243                     addq.w     D3, 1
label00002250:
00002250  216E FFF8 0020           move.l     [A0 + 0x20], [A6 - 0x8]
00002256  2142 0024                move.l     [A0 + 0x24], D2
0000225A  4268 002C                clr.w      [A0 + 0x2C]
0000225E  A003                     syscall    Write
00002260  6620                     bne        +0x22 /* 00002282 */
00002262  4A81                     tst.l      D1
00002264  6EA4                     bgt        -0x5A /* 0000220A */
00002266  A001                     syscall    Close
00002268  41EE FF08                lea.l      A0, [A6 - 0xF8]
0000226C  0228 0079 0028           andi.b     [A0 + 0x28], 0x79 /* 'y' */
00002272  A00D                     syscall    SetFileInfo/PBHSetFInfo/HSetFileInfo
00002274  660C                     bne        +0xE /* 00002282 */
00002276  A00C                     syscall    GetFileInfo/PBHGetFInfo/HGetFileInfo
00002278  6608                     bne        +0xA /* 00002282 */
0000227A  224C                     movea.l    A1, A4
0000227C  4EAD 003A                jsr        [A5 + 0x3A /* export_3, CODE:1 @ 000008C0 */]
00002280  7000                     moveq.l    D0, 0x00
label00002282:
00002282  4E75                     rts
export_174:
fn00002284:
00002284  226F 0008                movea.l    A1, [A7 + 0x8]
00002288  206F 0004                movea.l    A0, [A7 + 0x4]
0000228C  7000                     moveq.l    D0, 0x00
0000228E  7200                     moveq.l    D1, 0x00
00002290  1018                     move.b     D0, [A0]+
00002292  1211                     move.b     D1, [A1]
00002294  D119                     add.b      [A1]+, D0
00002296  D2C1                     add.w      A1, D1
00002298  A02E                     syscall    BlockMove/BlockMoveData
0000229A  205F                     movea.l    A0, [A7]+
0000229C  504F                     addq.w     A7, 8
0000229E  4ED0                     jmp        [A0]
fn000022A0:
000022A0  206F 0004                movea.l    A0, [A7 + 0x4]
000022A4  3028 006C                move.w     D0, [A0 + 0x6C]
000022A8  6A14                     bpl        +0x16 /* 000022BE */
000022AA  4640                     not.w      D0
000022AC  E540                     asl        D0.w, 2
000022AE  2078 011C                movea.l    A0, [0x0000011C /* UTableBase */]
000022B2  2070 0000                movea.l    A0, [A0 + D0.w]
000022B6  2250                     movea.l    A1, [A0]
000022B8  3F29 0018                move.w     -[A7], [A1 + 0x18]
000022BC  A9B7                     syscall    CloseDeskAcc
label000022BE:
000022BE  2E9F                     move.l     [A7], [A7]+
000022C0  4E75                     rts
export_173:
fn000022C2:
000022C2  7000                     moveq.l    D0, 0x00
000022C4  6002                     bra        +0x4 /* 000022C8 */
export_172:
fn000022C6:
000022C6  7001                     moveq.l    D0, 0x01
label000022C8:
000022C8  4E56 FFF8                link       A6, -0x0008
000022CC  48E7 0138                movem.l    -[A7], D7,A2,A3,A4
000022D0  2855                     movea.l    A4, [A5]
000022D2  2654                     movea.l    A3, [A4]
000022D4  B7ED FF14                cmpa.l     A3, [A5 - 0xEC]
000022D8  674E                     beq        +0x50 /* 00002328 */
000022DA  342B 006C                move.w     D2, [A3 + 0x6C]
000022DE  4A40                     tst.w      D0
000022E0  670C                     beq        +0xE /* 000022EE */
000022E2  42A7                     clr.l      -[A7]
000022E4  A878                     syscall    SetOrigin
000022E6  486B 0010                pea.l      [A3 + 0x10]
000022EA  A87B                     syscall    ClipRect
000022EC  603A                     bra        +0x3C /* 00002328 */
label000022EE:
000022EE  0C42 0010                cmpi.w     D2, 0x10
000022F2  670E                     beq        +0x10 /* 00002302 */
000022F4  42A7                     clr.l      -[A7]
000022F6  A878                     syscall    SetOrigin
000022F8  6136                     bsr        +0x38 /* 00002330 */
000022FA  486E FFF8                pea.l      [A6 - 0x8]
000022FE  A87B                     syscall    ClipRect
00002300  6026                     bra        +0x28 /* 00002328 */
label00002302:
00002302  7E14                     moveq.l    D7, 0x14
00002304  5D4F                     subq.w     A7, 6
00002306  2F0B                     move.l     -[A7], A3
00002308  6100 07A0                bsr        +0x7A2 /* 00002AAA */
0000230C  A960                     syscall    GetControlValue/GetCtlValue
0000230E  5D4F                     subq.w     A7, 6
00002310  2F0B                     move.l     -[A7], A3
00002312  6100 0DDE                bsr        +0xDE0 /* 000030F2 */
00002316  A960                     syscall    GetControlValue/GetCtlValue
00002318  9F57                     sub.w      [A7], D7
0000231A  A878                     syscall    SetOrigin
0000231C  6112                     bsr        +0x14 /* 00002330 */
0000231E  43EE FFF8                lea.l      A1, [A6 - 0x8]
00002322  DF51                     add.w      [A1], D7
00002324  2F09                     move.l     -[A7], A1
00002326  A87B                     syscall    ClipRect
label00002328:
00002328  4CDF 1C80                movem.l    D7,A2,A3,A4, [A7]+
0000232C  4E5E                     unlink     A6
0000232E  4E75                     rts
fn00002330:
00002330  41EB 0010                lea.l      A0, [A3 + 0x10]
00002334  43EE FFF8                lea.l      A1, [A6 - 0x8]
00002338  22D8                     move.l     [A1]+, [A0]+
0000233A  22D8                     move.l     [A1]+, [A0]+
0000233C  720F                     moveq.l    D1, 0x0F
0000233E  9361                     sub.w      -[A1], D1
00002340  9361                     sub.w      -[A1], D1
00002342  4E75                     rts
export_175:
00002344  4E56 FF00                link       A6, -0x0100
00002348  48E7 3F38                movem.l    -[A7], D2,D3,D4,D5,D6,D7,A2,A3,A4
0000234C  6100 0D8C                bsr        +0xD8E /* 000030DA */
00002350  426E 000E                clr.w      [A6 + 0xE]
00002354  486E FF00                pea.l      [A6 - 0x100]
00002358  3F2E 0008                move.w     -[A7], [A6 + 0x8]
0000235C  6100 060A                bsr        +0x60C /* 00002968 */
00002360  41EE FF00                lea.l      A0, [A6 - 0x100]
00002364  7000                     moveq.l    D0, 0x00
00002366  1010                     move.b     D0, [A0]
00002368  5240                     addq.w     D0, 1
0000236A  A9E3                     syscall    PtrToHand
0000236C  2448                     movea.l    A2, A0
0000236E  7000                     moveq.l    D0, 0x00
00002370  226E 000A                movea.l    A1, [A6 + 0xA]
00002374  6100 FD14                bsr        -0x2EA /* 0000208A */
00002378  204A                     movea.l    A0, A2
0000237A  A029                     syscall    HLock
0000237C  A025                     syscall    GetHandleSize
0000237E  2052                     movea.l    A0, [A2]
00002380  5340                     subq.w     D0, 1
00002382  1080                     move.b     [A0], D0
00002384  2F08                     move.l     -[A7], A0
00002386  487A FBBE                pea.l      [PC - 0x442 /* 00001F46, value 0x205F ' _', cstring "" */]
0000238A  2F17                     move.l     -[A7], [A7]
0000238C  2F17                     move.l     -[A7], [A7]
0000238E  A98B                     syscall    ParamText
00002390  204A                     movea.l    A0, A2
00002392  A023                     syscall    DisposHandle/DisposeHandle
00002394  554F                     subq.w     A7, 2
00002396  3F3C 0086                move.w     -[A7], 0x86
0000239A  42A7                     clr.l      -[A7]
0000239C  A985                     syscall    Alert
0000239E  4EAD 00FA                jsr        [A5 + 0xFA /* export_27, CODE:2 @ 0000472A */]
000023A2  555F                     subq.w     [A7]+, 2
000023A4  6704                     beq        +0x6 /* 000023AA */
000023A6  522E 000E                addq.b     [A6 + 0xE], 1
label000023AA:
000023AA  4CDF 1CFC                movem.l    D2,D3,D4,D5,D6,D7,A2,A3,A4, [A7]+
000023AE  4E5E                     unlink     A6
000023B0  205F                     movea.l    A0, [A7]+
000023B2  5C4F                     addq.w     A7, 6
000023B4  4ED0                     jmp        [A0]
000023B6  4E56 0000                link       A6, 0
000023BA  206E 000C                movea.l    A0, [A6 + 0xC]
000023BE  51EE 0014                sf         [A6 + 0x14]
000023C2  0C50 0003                cmpi.w     [A0], 0x3
000023C6  661C                     bne        +0x1E /* 000023E4 */
000023C8  1028 0005                move.b     D0, [A0 + 0x5]
000023CC  0C00 000D                cmpi.b     D0, 0xD /* '\r' */
000023D0  6706                     beq        +0x8 /* 000023D8 */
000023D2  0C00 0003                cmpi.b     D0, 0x3
000023D6  660C                     bne        +0xE /* 000023E4 */
label000023D8:
000023D8  50EE 0014                st         [A6 + 0x14]
000023DC  206E 0008                movea.l    A0, [A6 + 0x8]
000023E0  30BC 0002                move.w     [A0], 0x2
label000023E4:
000023E4  4E5E                     unlink     A6
000023E6  205F                     movea.l    A0, [A7]+
000023E8  DEFC 000C                add.w      A7, 0xC
000023EC  4ED0                     jmp        [A0]
export_170:
000023EE  4E56 FFF0                link       A6, -0x0010
000023F2  594F                     subq.w     A7, 4
000023F4  2F3C 4943 4E23           move.l     -[A7], 0x49434E23 /* 'ICN#' */
000023FA  3F2E 0010                move.w     -[A7], [A6 + 0x10]
000023FE  A9A0                     syscall    GetResource
00002400  2057                     movea.l    A0, [A7]
00002402  4A9F                     tst.l      [A7]+
00002404  673A                     beq        +0x3C /* 00002440 */
00002406  7000                     moveq.l    D0, 0x00
00002408  302E 000E                move.w     D0, [A6 + 0xE]
0000240C  D090                     add.l      D0, [A0]
0000240E  2D40 FFF0                move.l     [A6 - 0x10], D0
00002412  3D7C 0004 FFF4           move.w     [A6 - 0xC], 0x4
00002418  42AE FFF6                clr.l      [A6 - 0xA]
0000241C  2D7C 0020 0020 FFFA      move.l     [A6 - 0x6], 0x200020 /* ' \0 ' */
00002424  6100 039E                bsr        +0x3A0 /* 000027C4 */
00002428  486E FFF0                pea.l      [A6 - 0x10]
0000242C  4869 0002                pea.l      [A1 + 0x2]
00002430  486E FFF6                pea.l      [A6 - 0xA]
00002434  2F2E 000A                move.l     -[A7], [A6 + 0xA]
00002438  3F2E 0008                move.w     -[A7], [A6 + 0x8]
0000243C  42A7                     clr.l      -[A7]
0000243E  A8EC                     syscall    CopyBits
label00002440:
00002440  4E5E                     unlink     A6
00002442  700A                     moveq.l    D0, 0x0A
00002444  205F                     movea.l    A0, [A7]+
00002446  DEC0                     add.w      A7, D0
00002448  4ED0                     jmp        [A0]
export_169:
fn0000244A:
0000244A  4E56 0000                link       A6, 0
0000244E  48E7 1020                movem.l    -[A7], D3,A2
00002452  246E 0008                movea.l    A2, [A6 + 0x8]
00002456  0C6A 0010 006C           cmpi.w     [A2 + 0x6C], 0x10
0000245C  56C3                     sne        D3
0000245E  6606                     bne        +0x8 /* 00002466 */
00002460  066A 0013 0010           addi.w     [A2 + 0x10], 0x13
label00002466:
00002466  2F0A                     move.l     -[A7], A2
00002468  A904                     syscall    DrawGrowIcon
0000246A  4A03                     tst.b      D3
0000246C  6606                     bne        +0x8 /* 00002474 */
0000246E  046A 0013 0010           subi.w     [A2 + 0x10], 0x13
label00002474:
00002474  4CDF 0408                movem.l    D3,A2, [A7]+
00002478  4E5E                     unlink     A6
0000247A  2E9F                     move.l     [A7], [A7]+
0000247C  4E75                     rts
export_167:
0000247E  4E56 FEF4                link       A6, -0x010C
00002482  48E7 1F38                movem.l    -[A7], D3,D4,D5,D6,D7,A2,A3,A4
00002486  700A                     moveq.l    D0, 0x0A
00002488  A122                     syscall    NewHandle, flags=1
0000248A  2848                     movea.l    A4, A0
0000248C  2455                     movea.l    A2, [A5]
0000248E  2452                     movea.l    A2, [A2]
00002490  41EA 0018                lea.l      A0, [A2 + 0x18]
00002494  43EE FFFC                lea.l      A1, [A6 - 0x4]
00002498  2320                     move.l     -[A1], -[A0]
0000249A  2320                     move.l     -[A1], -[A0]
0000249C  0469 000F 0006           subi.w     [A1 + 0x6], 0xF
000024A2  6100 00E4                bsr        +0xE6 /* 00002588 */
000024A6  6700 00D4                beq        +0xD6 /* 0000257C */
000024AA  6A0C                     bpl        +0xE /* 000024B8 */
000024AC  7235                     moveq.l    D1, 0x35
000024AE  0C40 FFCB                cmpi.w     D0, 0xFFCB
000024B2  6762                     beq        +0x64 /* 00002516 */
000024B4  7200                     moveq.l    D1, 0x00
000024B6  605E                     bra        +0x60 /* 00002516 */
label000024B8:
000024B8  2600                     move.l     D3, D0
000024BA  594F                     subq.w     A7, 4
000024BC  3F3C 0006                move.w     -[A7], 0x6
000024C0  4EAD 0062                jsr        [A5 + 0x62 /* export_8, CODE:1 @ 000001FC */]
000024C4  D69F                     add.l      D3, [A7]+
000024C6  7236                     moveq.l    D1, 0x36
000024C8  2003                     move.l     D0, D3
000024CA  204C                     movea.l    A0, A4
000024CC  A024                     syscall    SetHandleSize
000024CE  670A                     beq        +0xC /* 000024DA */
000024D0  0C40 FF94                cmpi.w     D0, 0xFF94
000024D4  6740                     beq        +0x42 /* 00002516 */
000024D6  7200                     moveq.l    D1, 0x00
000024D8  603C                     bra        +0x3E /* 00002516 */
label000024DA:
000024DA  594F                     subq.w     A7, 4
000024DC  2F0C                     move.l     -[A7], A4
000024DE  2F3C 5049 4354           move.l     -[A7], 0x50494354 /* 'PICT' */
000024E4  486E FFFC                pea.l      [A6 - 0x4]
000024E8  A9FD                     syscall    GetScrap
000024EA  201F                     move.l     D0, [A7]+
000024EC  6A0A                     bpl        +0xC /* 000024F8 */
000024EE  0C40 FF9A                cmpi.w     D0, 0xFF9A
000024F2  674A                     beq        +0x4C /* 0000253E */
000024F4  7200                     moveq.l    D1, 0x00
000024F6  601E                     bra        +0x20 /* 00002516 */
label000024F8:
000024F8  2654                     movea.l    A3, [A4]
000024FA  45EE FFF4                lea.l      A2, [A6 - 0xC]
000024FE  429A                     clr.l      [A2]+
00002500  2F2B 0002                move.l     -[A7], [A3 + 0x2]
00002504  24AB 0006                move.l     [A2], [A3 + 0x6]
00002508  2F0A                     move.l     -[A7], A2
0000250A  A87F                     syscall    SubPt
0000250C  594A                     subq.w     A2, 4
0000250E  2F0C                     move.l     -[A7], A4
00002510  2F0A                     move.l     -[A7], A2
00002512  A8F6                     syscall    DrawPicture
00002514  6066                     bra        +0x68 /* 0000257C */
label00002516:
00002516  4A41                     tst.w      D1
00002518  6606                     bne        +0x8 /* 00002520 */
0000251A  6100 FAF2                bsr        -0x50C /* 0000200E */
0000251E  605C                     bra        +0x5E /* 0000257C */
label00002520:
00002520  486E FEF4                pea.l      [A6 - 0x10C]
00002524  3F01                     move.w     -[A7], D1
00002526  6100 0440                bsr        +0x442 /* 00002968 */
0000252A  7000                     moveq.l    D0, 0x00
0000252C  41EE FEF4                lea.l      A0, [A6 - 0x10C]
00002530  224C                     movea.l    A1, A4
00002532  1018                     move.b     D0, [A0]+
00002534  A9E2                     syscall    PtrToXHand
00002536  2455                     movea.l    A2, [A5]
00002538  2F12                     move.l     -[A7], [A2]
0000253A  A909                     syscall    CalcVis
0000253C  6020                     bra        +0x22 /* 0000255E */
label0000253E:
0000253E  594F                     subq.w     A7, 4
00002540  2F0C                     move.l     -[A7], A4
00002542  2F3C 5445 5854           move.l     -[A7], 0x54455854 /* 'TEXT' */
00002548  486E FFFC                pea.l      [A6 - 0x4]
0000254C  A9FD                     syscall    GetScrap
0000254E  201F                     move.l     D0, [A7]+
00002550  6A0C                     bpl        +0xE /* 0000255E */
00002552  7214                     moveq.l    D1, 0x14
00002554  0C40 FF9A                cmpi.w     D0, 0xFF9A
00002558  67BC                     beq        -0x42 /* 00002516 */
0000255A  7200                     moveq.l    D1, 0x00
0000255C  60B8                     bra        -0x46 /* 00002516 */
label0000255E:
0000255E  486E FFF4                pea.l      [A6 - 0xC]
00002562  A8A3                     syscall    EraseRect
00002564  6100 0A2E                bsr        +0xA30 /* 00002F94 */
00002568  2654                     movea.l    A3, [A4]
0000256A  204C                     movea.l    A0, A4
0000256C  A029                     syscall    HLock
0000256E  A025                     syscall    GetHandleSize
00002570  2F0B                     move.l     -[A7], A3
00002572  2F00                     move.l     -[A7], D0
00002574  486E FFF4                pea.l      [A6 - 0xC]
00002578  4267                     clr.w      -[A7]
0000257A  A9CE                     syscall    TETextBox/TextBox
label0000257C:
0000257C  204C                     movea.l    A0, A4
0000257E  A023                     syscall    DisposHandle/DisposeHandle
00002580  4CDF 1CF8                movem.l    D3,D4,D5,D6,D7,A2,A3,A4, [A7]+
00002584  4E5E                     unlink     A6
00002586  4E75                     rts
fn00002588:
00002588  594F                     subq.w     A7, 4
0000258A  A9F9                     syscall    InfoScrap
0000258C  205F                     movea.l    A0, [A7]+
0000258E  2010                     move.l     D0, [A0]
00002590  6700 0010                beq        +0x12 /* 000025A2 */
00002594  4A68 000A                tst.w      [A0 + 0xA]
00002598  6608                     bne        +0xA /* 000025A2 */
0000259A  4A2D FF21                tst.b      [A5 - 0xDF]
0000259E  6702                     beq        +0x4 /* 000025A2 */
000025A0  70CB                     moveq.l    D0, 0xFFFFFFCB
label000025A2:
000025A2  4A80                     tst.l      D0
000025A4  4E75                     rts
export_166:
fn000025A6:
000025A6  241F                     move.l     D2, [A7]+
000025A8  205F                     movea.l    A0, [A7]+
000025AA  321F                     move.w     D1, [A7]+
000025AC  4250                     clr.w      [A0]
000025AE  3001                     move.w     D0, D1
000025B0  6A24                     bpl        +0x26 /* 000025D6 */
000025B2  2278 0358                movea.l    A1, [0x00000358]
label000025B6:
000025B6  B269 004E                cmp.w      D1, [A1 + 0x4E]
000025BA  6708                     beq        +0xA /* 000025C4 */
000025BC  2251                     movea.l    A1, [A1]
000025BE  2009                     move.l     D0, A1
000025C0  66F4                     bne        -0xA /* 000025B6 */
000025C2  6012                     bra        +0x14 /* 000025D6 */
label000025C4:
000025C4  3029 0048                move.w     D0, [A1 + 0x48]
000025C8  660C                     bne        +0xE /* 000025D6 */
000025CA  3029 004A                move.w     D0, [A1 + 0x4A]
000025CE  6B04                     bmi        +0x6 /* 000025D4 */
000025D0  5210                     addq.b     [A0], 1
000025D2  6002                     bra        +0x4 /* 000025D6 */
label000025D4:
000025D4  4440                     neg.w      D0
label000025D6:
000025D6  3E80                     move.w     [A7], D0
000025D8  2042                     movea.l    A0, D2
000025DA  4ED0                     jmp        [A0]
export_165:
000025DC  225F                     movea.l    A1, [A7]+
000025DE  321F                     move.w     D1, [A7]+
000025E0  9EFC 0018                sub.w      A7, 0x18
000025E4  204F                     movea.l    A0, A7
000025E6  42A8 0012                clr.l      [A0 + 0x12]
000025EA  3141 0016                move.w     [A0 + 0x16], D1
000025EE  A017                     syscall    Eject
000025F0  6100 FA1C                bsr        -0x5E2 /* 0000200E */
000025F4  DEFC 0018                add.w      A7, 0x18
000025F8  4ED1                     jmp        [A1]
fn000025FA:
000025FA  594F                     subq.w     A7, 4
000025FC  2F0F                     move.l     -[A7], A7
000025FE  A874                     syscall    GetPort
00002600  2078 09DE                movea.l    A0, [0x000009DE /* WMgrPort */]
00002604  A852                     syscall    HideCursor
00002606  4868 0010                pea.l      [A0 + 0x10]
0000260A  2F08                     move.l     -[A7], A0
0000260C  A873                     syscall    SetPort
0000260E  2F38 09EE                move.l     -[A7], [0x000009EE /* GrayRgn */]
00002612  A879                     syscall    SetClip
00002614  6106                     bsr        +0x8 /* 0000261C */
00002616  A853                     syscall    ShowCursor
00002618  A873                     syscall    SetPort
0000261A  4E75                     rts
export_160:
fn0000261C:
0000261C  4E56 0000                link       A6, 0
00002620  594F                     subq.w     A7, 4
00002622  3F3C 0010                move.w     -[A7], 0x10
00002626  A9B8                     syscall    GetPattern
00002628  205F                     movea.l    A0, [A7]+
0000262A  2F2E 0008                move.l     -[A7], [A6 + 0x8]
0000262E  2F10                     move.l     -[A7], [A0]
00002630  A8A5                     syscall    FillRect
00002632  4E5E                     unlink     A6
00002634  2E9F                     move.l     [A7], [A7]+
00002636  4E75                     rts
00002638  0050 0040                ori.w      [A0], 0x40 /* '@' */
0000263C  00B4 01C0 4E56 FF00      ori.l      [A4 + <<invalid base displacement size>> + A7 * 8], 0x1C04E56
// begin alternate branch 00002640-00002644
export_162:
fn00002640:
00002640  4E56 FF00                link       A6, -0x0100
// end alternate branch 00002640-00002644
export_162: // at 00002640 (misaligned)
fn00002640: // (misaligned)
00002644  3F38 0A5A                move.w     -[A7], [0x00000A5A /* CurMap */]
00002648  31ED FE5A 0A5A           move.w     [0x00000A5A /* CurMap */], [A5 - 0x1A6]
0000264E  6100 0A8A                bsr        +0xA8C /* 000030DA */
00002652  486E FF00                pea.l      [A6 - 0x100]
00002656  3F2E 0008                move.w     -[A7], [A6 + 0x8]
0000265A  6100 030C                bsr        +0x30E /* 00002968 */
0000265E  486E FF00                pea.l      [A6 - 0x100]
00002662  487A F8E2                pea.l      [PC - 0x71E /* 00001F46, value 0x205F ' _', cstring "" */]
00002666  2F17                     move.l     -[A7], [A7]
00002668  2F17                     move.l     -[A7], [A7]
0000266A  A98B                     syscall    ParamText
0000266C  554F                     subq.w     A7, 2
0000266E  3F3C 0081                move.w     -[A7], 0x81
00002672  42A7                     clr.l      -[A7]
00002674  A985                     syscall    Alert
00002676  544F                     addq.w     A7, 2
00002678  4EAD 00FA                jsr        [A5 + 0xFA /* export_27, CODE:2 @ 0000472A */]
0000267C  31DF 0A5A                move.w     [0x00000A5A /* CurMap */], [A7]+
00002680  4E5E                     unlink     A6
00002682  205F                     movea.l    A0, [A7]+
00002684  544F                     addq.w     A7, 2
00002686  4ED0                     jmp        [A0]
00002688  225F                     movea.l    A1, [A7]+
0000268A  2078 034E                movea.l    A0, [0x0000034E /* FCBSPtr */]
0000268E  D0DF                     add.w      A0, [A7]+
00002690  2068 0014                movea.l    A0, [A0 + 0x14]
00002694  3EA8 004E                move.w     [A7], [A0 + 0x4E]
00002698  4ED1                     jmp        [A1]
export_155:
fn0000269A:
0000269A  4E56 0000                link       A6, 0
0000269E  48E7 0138                movem.l    -[A7], D7,A2,A3,A4
000026A2  594F                     subq.w     A7, 4
000026A4  2F0F                     move.l     -[A7], A7
000026A6  A874                     syscall    GetPort
000026A8  286E 0008                movea.l    A4, [A6 + 0x8]
000026AC  2F0C                     move.l     -[A7], A4
000026AE  A873                     syscall    SetPort
000026B0  7E14                     moveq.l    D7, 0x14
000026B2  0C6C 0010 006C           cmpi.w     [A4 + 0x6C], 0x10
000026B8  6702                     beq        +0x4 /* 000026BC */
000026BA  7E00                     moveq.l    D7, 0x00
label000026BC:
000026BC  42A7                     clr.l      -[A7]
000026BE  A878                     syscall    SetOrigin
000026C0  514F                     subq.w     A7, 8
000026C2  2F0C                     move.l     -[A7], A4
000026C4  6100 03E4                bsr        +0x3E6 /* 00002AAA */
000026C8  265F                     movea.l    A3, [A7]+
000026CA  2F0C                     move.l     -[A7], A4
000026CC  6100 0A24                bsr        +0xA26 /* 000030F2 */
000026D0  2457                     movea.l    A2, [A7]
000026D2  2F0B                     move.l     -[A7], A3
000026D4  A958                     syscall    HideControl
000026D6  A958                     syscall    HideControl
000026D8  2F0B                     move.l     -[A7], A3
000026DA  49EC 0010                lea.l      A4, [A4 + 0x10]
000026DE  3F2C 0002                move.w     -[A7], [A4 + 0x2]
000026E2  5357                     subq.w     [A7], 1
000026E4  3F2C 0004                move.w     -[A7], [A4 + 0x4]
000026E8  0457 000F                subi.w     [A7], 0xF
000026EC  A959                     syscall    MoveControl
000026EE  2F0B                     move.l     -[A7], A3
000026F0  3F2C 0006                move.w     -[A7], [A4 + 0x6]
000026F4  302C 0002                move.w     D0, [A4 + 0x2]
000026F8  9157                     sub.w      [A7], D0
000026FA  0457 000D                subi.w     [A7], 0xD /* '\r' */
000026FE  3F3C 0010                move.w     -[A7], 0x10
00002702  A95C                     syscall    SizeControl
00002704  2F0B                     move.l     -[A7], A3
00002706  A957                     syscall    ShowControl
00002708  2F0A                     move.l     -[A7], A2
0000270A  3F2C 0006                move.w     -[A7], [A4 + 0x6]
0000270E  0457 000F                subi.w     [A7], 0xF
00002712  3F14                     move.w     -[A7], [A4]
00002714  5357                     subq.w     [A7], 1
00002716  DF57                     add.w      [A7], D7
00002718  A959                     syscall    MoveControl
0000271A  2F0A                     move.l     -[A7], A2
0000271C  3F3C 0010                move.w     -[A7], 0x10
00002720  3F2C 0004                move.w     -[A7], [A4 + 0x4]
00002724  3014                     move.w     D0, [A4]
00002726  9157                     sub.w      [A7], D0
00002728  0457 000D                subi.w     [A7], 0xD /* '\r' */
0000272C  9F57                     sub.w      [A7], D7
0000272E  A95C                     syscall    SizeControl
00002730  2F0A                     move.l     -[A7], A2
00002732  A957                     syscall    ShowControl
00002734  A873                     syscall    SetPort
00002736  4CDF 1C80                movem.l    D7,A2,A3,A4, [A7]+
0000273A  4E5E                     unlink     A6
0000273C  2E9F                     move.l     [A7], [A7]+
0000273E  4E75                     rts
fn00002740:
00002740  4E56 FFB0                link       A6, -0x0050
00002744  48E7 0038                movem.l    -[A7], A2,A3,A4
00002748  41EE FFB0                lea.l      A0, [A6 - 0x50]
0000274C  42A8 0012                clr.l      [A0 + 0x12]
00002750  2878 0358                movea.l    A4, [0x00000358]
label00002754:
00002754  316C 004E 0016           move.w     [A0 + 0x16], [A4 + 0x4E]
0000275A  4A6C 0048                tst.w      [A4 + 0x48]
0000275E  6702                     beq        +0x4 /* 00002762 */
00002760  A013                     syscall    FlushVol
label00002762:
00002762  2854                     movea.l    A4, [A4]
00002764  200C                     move.l     D0, A4
00002766  66EC                     bne        -0x12 /* 00002754 */
00002768  4CDF 1C00                movem.l    A2,A3,A4, [A7]+
0000276C  4E5E                     unlink     A6
0000276E  4E75                     rts
export_153:
fn00002770:
00002770  225F                     movea.l    A1, [A7]+
00002772  321F                     move.w     D1, [A7]+
00002774  9EFC 003C                sub.w      A7, 0x3C /* '<' */
00002778  204F                     movea.l    A0, A7
0000277A  42A8 0012                clr.l      [A0 + 0x12]
0000277E  3141 0016                move.w     [A0 + 0x16], D1
00002782  A013                     syscall    FlushVol
00002784  6100 F888                bsr        -0x776 /* 0000200E */
00002788  DEFC 003C                add.w      A7, 0x3C /* '<' */
0000278C  4ED1                     jmp        [A1]
export_152:
fn0000278E:
0000278E  4E56 FEB0                link       A6, -0x0150
00002792  41EE FFB0                lea.l      A0, [A6 - 0x50]
00002796  43EE FEB0                lea.l      A1, [A6 - 0x150]
0000279A  316E 0008 0016           move.w     [A0 + 0x16], [A6 + 0x8]
000027A0  2149 0012                move.l     [A0 + 0x12], A1
000027A4  317C 0001 001C           move.w     [A0 + 0x1C], 0x1
000027AA  A00C                     syscall    GetFileInfo/PBHGetFInfo/HGetFileInfo
000027AC  554F                     subq.w     A7, 2
000027AE  3F2E 0008                move.w     -[A7], [A6 + 0x8]
000027B2  42A7                     clr.l      -[A7]
000027B4  6100 FDF0                bsr        -0x20E /* 000025A6 */
000027B8  301F                     move.w     D0, [A7]+
000027BA  4E5E                     unlink     A6
000027BC  205F                     movea.l    A0, [A7]+
000027BE  544F                     addq.w     A7, 2
000027C0  3E80                     move.w     [A7], D0
000027C2  4ED0                     jmp        [A0]
export_143:
fn000027C4:
000027C4  2055                     movea.l    A0, [A5]
000027C6  2250                     movea.l    A1, [A0]
000027C8  4E75                     rts
export_148:
000027CA  4E56 0000                link       A6, 0
000027CE  48E7 1F38                movem.l    -[A7], D3,D4,D5,D6,D7,A2,A3,A4
000027D2  3F38 0A5A                move.w     -[A7], [0x00000A5A /* CurMap */]
000027D6  263C 424E 444C           move.l     D3, 0x424E444C /* 'BNDL' */
000027DC  283C 4652 4546           move.l     D4, 0x46524546 /* 'FREF' */
000027E2  2A2E 0008                move.l     D5, [A6 + 0x8]
000027E6  2C2E 000C                move.l     D6, [A6 + 0xC]
000027EA  0C85 3F3F 3F3F           cmpi.l     D5, 0x3F3F3F3F /* '????' */
000027F0  6770                     beq        +0x72 /* 00002862 */
000027F2  594F                     subq.w     A7, 4
000027F4  2F2E 0008                move.l     -[A7], [A6 + 0x8]
000027F8  4267                     clr.w      -[A7]
000027FA  A9A0                     syscall    GetResource
000027FC  241F                     move.l     D2, [A7]+
000027FE  6762                     beq        +0x64 /* 00002862 */
00002800  554F                     subq.w     A7, 2
00002802  2F02                     move.l     -[A7], D2
00002804  A9A4                     syscall    HomeResFile
00002806  A998                     syscall    UseResFile
00002808  554F                     subq.w     A7, 2
0000280A  2F02                     move.l     -[A7], D2
0000280C  4EAD 00A2                jsr        [A5 + 0xA2 /* export_16, CODE:1 @ 0000097E */]
00002810  341F                     move.w     D2, [A7]+
00002812  6B4E                     bmi        +0x50 /* 00002862 */
00002814  594F                     subq.w     A7, 4
00002816  2F03                     move.l     -[A7], D3
00002818  3F02                     move.w     -[A7], D2
0000281A  A9A0                     syscall    GetResource
0000281C  285F                     movea.l    A4, [A7]+
0000281E  554F                     subq.w     A7, 2
00002820  2F04                     move.l     -[A7], D4
00002822  2F0C                     move.l     -[A7], A4
00002824  4EAD 008A                jsr        [A5 + 0x8A /* export_13, CODE:1 @ 00000AA8 */]
00002828  3E1F                     move.w     D7, [A7]+
0000282A  6736                     beq        +0x38 /* 00002862 */
label0000282C:
0000282C  594F                     subq.w     A7, 4
0000282E  2F04                     move.l     -[A7], D4
00002830  554F                     subq.w     A7, 2
00002832  2F04                     move.l     -[A7], D4
00002834  3F07                     move.w     -[A7], D7
00002836  2F0C                     move.l     -[A7], A4
00002838  4EAD 006A                jsr        [A5 + 0x6A /* export_9, CODE:1 @ 00000B8C */]
0000283C  4EAD 007A                jsr        [A5 + 0x7A /* export_11, CODE:1 @ 00000B14 */]
00002840  205F                     movea.l    A0, [A7]+
00002842  2050                     movea.l    A0, [A0]
00002844  BC98                     cmp.l      D6, [A0]+
00002846  6706                     beq        +0x8 /* 0000284E */
00002848  5347                     subq.w     D7, 1
0000284A  66E0                     bne        -0x1E /* 0000282C */
0000284C  6014                     bra        +0x16 /* 00002862 */
label0000284E:
0000284E  554F                     subq.w     A7, 2
00002850  2F3C 4943 4E23           move.l     -[A7], 0x49434E23 /* 'ICN#' */
00002856  3F10                     move.w     -[A7], [A0]
00002858  2F0C                     move.l     -[A7], A4
0000285A  4EAD 0072                jsr        [A5 + 0x72 /* export_10, CODE:1 @ 00000B68 */]
0000285E  301F                     move.w     D0, [A7]+
00002860  6010                     bra        +0x12 /* 00002872 */
label00002862:
00002862  303C 0085                move.w     D0, 0x85
00002866  0C86 4150 504C           cmpi.l     D6, 0x4150504C /* 'APPL' */
0000286C  6704                     beq        +0x6 /* 00002872 */
0000286E  303C 0084                move.w     D0, 0x84
label00002872:
00002872  3D40 0010                move.w     [A6 + 0x10], D0
00002876  31DF 0A5A                move.w     [0x00000A5A /* CurMap */], [A7]+
0000287A  4CDF 1CF8                movem.l    D3,D4,D5,D6,D7,A2,A3,A4, [A7]+
0000287E  4E5E                     unlink     A6
00002880  205F                     movea.l    A0, [A7]+
00002882  504F                     addq.w     A7, 8
00002884  4ED0                     jmp        [A0]
00002886  223C 4452 5652           move.l     D1, 0x44525652 /* 'DRVR' */
0000288C  610C                     bsr        +0xE /* 0000289A */
0000288E  7064                     moveq.l    D0, 0x64
00002890  4840                     swap.w     D0
00002892  A04C                     syscall    CompactMem
00002894  2F40 0004                move.l     [A7 + 0x4], D0
00002898  4E75                     rts
fn0000289A:
0000289A  3F38 0A5E                move.w     -[A7], [0x00000A5E /* ResLoad */]
0000289E  4278 0A5E                clr.w      [0x00000A5E /* ResLoad */]
000028A2  554F                     subq.w     A7, 2
000028A4  2F01                     move.l     -[A7], D1
000028A6  A99C                     syscall    CountResources
000028A8  341F                     move.w     D2, [A7]+
000028AA  6720                     beq        +0x22 /* 000028CC */
label000028AC:
000028AC  594F                     subq.w     A7, 4
000028AE  2F01                     move.l     -[A7], D1
000028B0  3F02                     move.w     -[A7], D2
000028B2  A99D                     syscall    GetIndResource
000028B4  205F                     movea.l    A0, [A7]+
000028B6  4A90                     tst.l      [A0]
000028B8  6718                     beq        +0x1A /* 000028D2 */
000028BA  2248                     movea.l    A1, A0
000028BC  A126                     syscall    HandleZone, flags=1
000028BE  B1F8 02AA                cmpa.l     A0, [0x000002AA /* ApplZone */]
000028C2  6604                     bne        +0x6 /* 000028C8 */
000028C4  2049                     movea.l    A0, A1
000028C6  A02B                     syscall    EmptyHandle
label000028C8:
000028C8  5342                     subq.w     D2, 1
000028CA  66E0                     bne        -0x1E /* 000028AC */
label000028CC:
000028CC  31DF 0A5E                move.w     [0x00000A5E /* ResLoad */], [A7]+
000028D0  4E75                     rts
label000028D2:
000028D2  2F08                     move.l     -[A7], A0
000028D4  A9A3                     syscall    ReleaseResource
000028D6  60F0                     bra        -0xE /* 000028C8 */
export_141:
000028D8  205F                     movea.l    A0, [A7]+
000028DA  225F                     movea.l    A1, [A7]+
000028DC  7220                     moveq.l    D1, 0x20
000028DE  D359                     add.w      [A1]+, D1
000028E0  D359                     add.w      [A1]+, D1
000028E2  02A1 FFC0 FFC0           andi.l     -[A1], 0xFFC0FFC0
000028E8  4ED0                     jmp        [A0]
export_146:
fn000028EA:
000028EA  4E56 FFF2                link       A6, -0x000E
000028EE  2F2E 000A                move.l     -[A7], [A6 + 0xA]
000028F2  3F2E 0008                move.w     -[A7], [A6 + 0x8]
000028F6  486E FFFE                pea.l      [A6 - 0x2]
000028FA  486E FFFA                pea.l      [A6 - 0x6]
000028FE  486E FFF2                pea.l      [A6 - 0xE]
00002902  A98D                     syscall    GetDialogItem/GetDItem
00002904  2D6E FFFA 000E           move.l     [A6 + 0xE], [A6 - 0x6]
0000290A  4E5E                     unlink     A6
0000290C  205F                     movea.l    A0, [A7]+
0000290E  5C4F                     addq.w     A7, 6
00002910  4ED0                     jmp        [A0]
export_144:
fn00002912:
00002912  4E56 0000                link       A6, 0
00002916  48E7 0038                movem.l    -[A7], A2,A3,A4
0000291A  246E 0008                movea.l    A2, [A6 + 0x8]
0000291E  266E 000C                movea.l    A3, [A6 + 0xC]
00002922  504A                     addq.w     A2, 8
00002924  504B                     addq.w     A3, 8
00002926  2855                     movea.l    A4, [A5]
00002928  2854                     movea.l    A4, [A4]
0000292A  41EC 0018                lea.l      A0, [A4 + 0x18]
0000292E  2520                     move.l     -[A2], -[A0]
00002930  2710                     move.l     -[A3], [A0]
00002932  2520                     move.l     -[A2], -[A0]
00002934  2710                     move.l     -[A3], [A0]
00002936  700F                     moveq.l    D0, 0x0F
00002938  322B 0004                move.w     D1, [A3 + 0x4]
0000293C  9240                     sub.w      D1, D0
0000293E  3681                     move.w     [A3], D1
00002940  916A 0004                sub.w      [A2 + 0x4], D0
00002944  322A 0006                move.w     D1, [A2 + 0x6]
00002948  9240                     sub.w      D1, D0
0000294A  3541 0002                move.w     [A2 + 0x2], D1
0000294E  302C 006C                move.w     D0, [A4 + 0x6C]
00002952  0C40 0010                cmpi.w     D0, 0x10
00002956  6604                     bne        +0x6 /* 0000295C */
00002958  0652 0014                addi.w     [A2], 0x14
label0000295C:
0000295C  4CDF 1C00                movem.l    A2,A3,A4, [A7]+
00002960  4E5E                     unlink     A6
00002962  205F                     movea.l    A0, [A7]+
00002964  504F                     addq.w     A7, 8
00002966  4ED0                     jmp        [A0]
export_136:
fn00002968:
00002968  322F 0004                move.w     D1, [A7 + 0x4]
0000296C  303C 0080                move.w     D0, 0x80
00002970  0C41 003C                cmpi.w     D1, 0x3C /* '<' */
00002974  6D06                     blt        +0x8 /* 0000297C */
00002976  5240                     addq.w     D0, 1
00002978  0441 003B                subi.w     D1, 0x3B /* ';' */
label0000297C:
0000297C  594F                     subq.w     A7, 4
0000297E  2F3C 5354 5223           move.l     -[A7], 0x53545223 /* 'STR#' */
00002984  3F00                     move.w     -[A7], D0
00002986  A9A0                     syscall    GetResource
00002988  205F                     movea.l    A0, [A7]+
0000298A  226F 0006                movea.l    A1, [A7 + 0x6]
0000298E  4211                     clr.b      [A1]
00002990  2050                     movea.l    A0, [A0]
00002992  3018                     move.w     D0, [A0]+
00002994  7000                     moveq.l    D0, 0x00
label00002996:
00002996  5341                     subq.w     D1, 1
00002998  6706                     beq        +0x8 /* 000029A0 */
0000299A  1018                     move.b     D0, [A0]+
0000299C  D0C0                     add.w      A0, D0
0000299E  60F6                     bra        -0x8 /* 00002996 */
label000029A0:
000029A0  1010                     move.b     D0, [A0]
000029A2  5240                     addq.w     D0, 1
000029A4  A02E                     syscall    BlockMove/BlockMoveData
000029A6  205F                     movea.l    A0, [A7]+
000029A8  5C4F                     addq.w     A7, 6
000029AA  4ED0                     jmp        [A0]
export_142:
fn000029AC:
000029AC  205F                     movea.l    A0, [A7]+
000029AE  225F                     movea.l    A1, [A7]+
000029B0  2F08                     move.l     -[A7], A0
000029B2  4851                     pea.l      [A1]
000029B4  4869 0004                pea.l      [A1 + 0x4]
000029B8  A870                     syscall    LocalToGlobal
000029BA  A870                     syscall    LocalToGlobal
000029BC  4E75                     rts
fn000029BE:
000029BE  4E56 FFE4                link       A6, -0x001C
000029C2  48E7 1F38                movem.l    -[A7], D3,D4,D5,D6,D7,A2,A3,A4
000029C6  486E FFFC                pea.l      [A6 - 0x4]
000029CA  A874                     syscall    GetPort
000029CC  286E 000C                movea.l    A4, [A6 + 0xC]
000029D0  2F0C                     move.l     -[A7], A4
000029D2  A873                     syscall    SetPort
000029D4  302C 006C                move.w     D0, [A4 + 0x6C]
000029D8  0C40 0010                cmpi.w     D0, 0x10
000029DC  41ED FE78                lea.l      A0, [A5 - 0x188]
000029E0  43EE FFFC                lea.l      A1, [A6 - 0x4]
000029E4  2320                     move.l     -[A1], -[A0]
000029E6  2320                     move.l     -[A1], -[A0]
000029E8  705A                     moveq.l    D0, 0x5A
000029EA  3340 0002                move.w     [A1 + 0x2], D0
000029EE  3280                     move.w     [A1], D0
000029F0  594F                     subq.w     A7, 4
000029F2  2F0C                     move.l     -[A7], A4
000029F4  2F2E 0008                move.l     -[A7], [A6 + 0x8]
000029F8  486E FFF4                pea.l      [A6 - 0xC]
000029FC  A92B                     syscall    GrowWindow
000029FE  2E1F                     move.l     D7, [A7]+
00002A00  6700 0096                beq        +0x98 /* 00002A98 */
00002A04  6100 F8C0                bsr        -0x73E /* 000022C6 */
00002A08  486E FFEC                pea.l      [A6 - 0x14]
00002A0C  486E FFE4                pea.l      [A6 - 0x1C]
00002A10  6100 FF00                bsr        -0xFE /* 00002912 */
00002A14  43EE FFEC                lea.l      A1, [A6 - 0x14]
00002A18  2F09                     move.l     -[A7], A1
00002A1A  2F09                     move.l     -[A7], A1
00002A1C  A928                     syscall    InvalRect
00002A1E  A8A3                     syscall    EraseRect
00002A20  43EE FFE4                lea.l      A1, [A6 - 0x1C]
00002A24  2F09                     move.l     -[A7], A1
00002A26  2F09                     move.l     -[A7], A1
00002A28  A928                     syscall    InvalRect
00002A2A  A8A3                     syscall    EraseRect
00002A2C  2F0C                     move.l     -[A7], A4
00002A2E  2F07                     move.l     -[A7], D7
00002A30  50E7                     st         -[A7]
00002A32  A91D                     syscall    SizeWindow
00002A34  6100 F890                bsr        -0x76E /* 000022C6 */
00002A38  486E FFEC                pea.l      [A6 - 0x14]
00002A3C  486E FFE4                pea.l      [A6 - 0x1C]
00002A40  6100 FED0                bsr        -0x12E /* 00002912 */
00002A44  302C 006C                move.w     D0, [A4 + 0x6C]
00002A48  0C40 0010                cmpi.w     D0, 0x10
00002A4C  6608                     bne        +0xA /* 00002A56 */
00002A4E  2F0C                     move.l     -[A7], A4
00002A50  6100 FC48                bsr        -0x3B6 /* 0000269A */
00002A54  602A                     bra        +0x2C /* 00002A80 */
label00002A56:
00002A56  486E FFEC                pea.l      [A6 - 0x14]
00002A5A  A8A3                     syscall    EraseRect
00002A5C  486E FFE4                pea.l      [A6 - 0x1C]
00002A60  A8A3                     syscall    EraseRect
00002A62  6100 FB24                bsr        -0x4DA /* 00002588 */
00002A66  6B18                     bmi        +0x1A /* 00002A80 */
00002A68  594F                     subq.w     A7, 4
00002A6A  42A7                     clr.l      -[A7]
00002A6C  2F3C 5049 4354           move.l     -[A7], 0x50494354 /* 'PICT' */
00002A72  42A7                     clr.l      -[A7]
00002A74  A9FD                     syscall    GetScrap
00002A76  4A9F                     tst.l      [A7]+
00002A78  6E06                     bgt        +0x8 /* 00002A80 */
00002A7A  486C 0010                pea.l      [A4 + 0x10]
00002A7E  A928                     syscall    InvalRect
label00002A80:
00002A80  2F0C                     move.l     -[A7], A4
00002A82  6100 F9C6                bsr        -0x638 /* 0000244A */
00002A86  486E FFEC                pea.l      [A6 - 0x14]
00002A8A  A92A                     syscall    ValidRect
00002A8C  486E FFE4                pea.l      [A6 - 0x1C]
00002A90  A92A                     syscall    ValidRect
00002A92  2F0C                     move.l     -[A7], A4
00002A94  6100 0164                bsr        +0x166 /* 00002BFA */
label00002A98:
00002A98  2F2E FFFC                move.l     -[A7], [A6 - 0x4]
00002A9C  A873                     syscall    SetPort
00002A9E  4CDF 1CF8                movem.l    D3,D4,D5,D6,D7,A2,A3,A4, [A7]+
00002AA2  4E5E                     unlink     A6
00002AA4  205F                     movea.l    A0, [A7]+
00002AA6  504F                     addq.w     A7, 8
00002AA8  4ED0                     jmp        [A0]
export_139:
fn00002AAA:
00002AAA  4E56 0000                link       A6, 0
00002AAE  206E 0008                movea.l    A0, [A6 + 0x8]
00002AB2  2D68 008C 000C           move.l     [A6 + 0xC], [A0 + 0x8C]
00002AB8  4E5E                     unlink     A6
00002ABA  2E9F                     move.l     [A7], [A7]+
00002ABC  4E75                     rts
export_135:
00002ABE  4E56 FFAE                link       A6, -0x0052
00002AC2  48E7 1F38                movem.l    -[A7], D3,D4,D5,D6,D7,A2,A3,A4
00002AC6  3D78 0A5A FFAE           move.w     [A6 - 0x52], [0x00000A5A /* CurMap */]
00002ACC  3E2E 0012                move.w     D7, [A6 + 0x12]
00002AD0  3C2E 0010                move.w     D6, [A6 + 0x10]
00002AD4  41EE FFB0                lea.l      A0, [A6 - 0x50]
00002AD8  42A8 0012                clr.l      [A0 + 0x12]
00002ADC  A014                     syscall    GetVol/PBHGetVol/HGetVol
00002ADE  3A28 0016                move.w     D5, [A0 + 0x16]
00002AE2  41EE FFB0                lea.l      A0, [A6 - 0x50]
00002AE6  42A8 0012                clr.l      [A0 + 0x12]
00002AEA  3147 0016                move.w     [A0 + 0x16], D7
00002AEE  A015                     syscall    SetVol/PBHSetVol/HSetVol
00002AF0  3F38 0A5E                move.w     -[A7], [0x00000A5E /* ResLoad */]
00002AF4  4278 0A5E                clr.w      [0x00000A5E /* ResLoad */]
00002AF8  554F                     subq.w     A7, 2
00002AFA  2F2E 0008                move.l     -[A7], [A6 + 0x8]
00002AFE  A997                     syscall    OpenResFile
00002B00  381F                     move.w     D4, [A7]+
00002B02  31DF 0A5E                move.w     [0x00000A5E /* ResLoad */], [A7]+
00002B06  594F                     subq.w     A7, 4
00002B08  2F2E 000C                move.l     -[A7], [A6 + 0xC]
00002B0C  4267                     clr.w      -[A7]
00002B0E  4EAD 007A                jsr        [A5 + 0x7A /* export_11, CODE:1 @ 00000B14 */]
00002B12  2857                     movea.l    A4, [A7]
00002B14  4A9F                     tst.l      [A7]+
00002B16  6700 0098                beq        +0x9A /* 00002BB0 */
00002B1A  6100 00C6                bsr        +0xC8 /* 00002BE2 */
00002B1E  42A7                     clr.l      -[A7]
00002B20  200B                     move.l     D0, A3
00002B22  6706                     beq        +0x8 /* 00002B2A */
00002B24  2F0B                     move.l     -[A7], A3
00002B26  4EAD 0042                jsr        [A5 + 0x42 /* export_4, CODE:1 @ 00000CAA */]
label00002B2A:
00002B2A  261F                     move.l     D3, [A7]+
00002B2C  204C                     movea.l    A0, A4
00002B2E  A025                     syscall    GetHandleSize
00002B30  D680                     add.l      D3, D0
00002B32  31EE FFAE 0A5A           move.w     [0x00000A5A /* CurMap */], [A6 - 0x52]
00002B38  594F                     subq.w     A7, 4
00002B3A  4267                     clr.w      -[A7]
00002B3C  4EAD 0062                jsr        [A5 + 0x62 /* export_8, CODE:1 @ 000001FC */]
00002B40  201F                     move.l     D0, [A7]+
00002B42  D083                     add.l      D0, D3
00002B44  A122                     syscall    NewHandle, flags=1
00002B46  6B68                     bmi        +0x6A /* 00002BB0 */
00002B48  A023                     syscall    DisposHandle/DisposeHandle
00002B4A  31C4 0A5A                move.w     [0x00000A5A /* CurMap */], D4
00002B4E  594F                     subq.w     A7, 4
00002B50  3F06                     move.w     -[A7], D6
00002B52  2F0C                     move.l     -[A7], A4
00002B54  4EAD 009A                jsr        [A5 + 0x9A /* export_15, CODE:1 @ 00000A20 */]
00002B58  31C6 0A5A                move.w     [0x00000A5A /* CurMap */], D6
00002B5C  2857                     movea.l    A4, [A7]
00002B5E  6100 03DE                bsr        +0x3E0 /* 00002F3E */
00002B62  200B                     move.l     D0, A3
00002B64  674A                     beq        +0x4C /* 00002BB0 */
00002B66  6100 007A                bsr        +0x7C /* 00002BE2 */
00002B6A  2F0B                     move.l     -[A7], A3
00002B6C  6100 03D0                bsr        +0x3D2 /* 00002F3E */
00002B70  554F                     subq.w     A7, 2
00002B72  2F0B                     move.l     -[A7], A3
00002B74  4EAD 0092                jsr        [A5 + 0x92 /* export_14, CODE:1 @ 00000A94 */]
00002B78  361F                     move.w     D3, [A7]+
label00002B7A:
00002B7A  5D4F                     subq.w     A7, 6
00002B7C  2F0F                     move.l     -[A7], A7
00002B7E  3F03                     move.w     -[A7], D3
00002B80  2F0B                     move.l     -[A7], A3
00002B82  4EAD 0082                jsr        [A5 + 0x82 /* export_12, CODE:1 @ 00000AC6 */]
00002B86  2417                     move.l     D2, [A7]
00002B88  2F0B                     move.l     -[A7], A3
00002B8A  4EAD 008A                jsr        [A5 + 0x8A /* export_13, CODE:1 @ 00000AA8 */]
00002B8E  321F                     move.w     D1, [A7]+
label00002B90:
00002B90  594F                     subq.w     A7, 4
00002B92  2F02                     move.l     -[A7], D2
00002B94  554F                     subq.w     A7, 2
00002B96  2F02                     move.l     -[A7], D2
00002B98  3F01                     move.w     -[A7], D1
00002B9A  2F0B                     move.l     -[A7], A3
00002B9C  4EAD 006A                jsr        [A5 + 0x6A /* export_9, CODE:1 @ 00000B8C */]
00002BA0  4EAD 007A                jsr        [A5 + 0x7A /* export_11, CODE:1 @ 00000B14 */]
00002BA4  6100 0398                bsr        +0x39A /* 00002F3E */
00002BA8  5341                     subq.w     D1, 1
00002BAA  66E4                     bne        -0x1A /* 00002B90 */
00002BAC  5343                     subq.w     D3, 1
00002BAE  66CA                     bne        -0x34 /* 00002B7A */
label00002BB0:
00002BB0  B878 0A58                cmp.w      D4, [0x00000A58 /* SysMap */]
00002BB4  670A                     beq        +0xC /* 00002BC0 */
00002BB6  B86D FE5A                cmp.w      D4, [A5 - 0x1A6]
00002BBA  6704                     beq        +0x6 /* 00002BC0 */
00002BBC  3F04                     move.w     -[A7], D4
00002BBE  A99A                     syscall    CloseResFile
label00002BC0:
00002BC0  41EE FFB0                lea.l      A0, [A6 - 0x50]
00002BC4  42A8 0012                clr.l      [A0 + 0x12]
00002BC8  3145 0016                move.w     [A0 + 0x16], D5
00002BCC  A015                     syscall    SetVol/PBHSetVol/HSetVol
00002BCE  31EE FFAE 0A5A           move.w     [0x00000A5A /* CurMap */], [A6 - 0x52]
00002BD4  4CDF 1CF8                movem.l    D3,D4,D5,D6,D7,A2,A3,A4, [A7]+
00002BD8  4E5E                     unlink     A6
00002BDA  205F                     movea.l    A0, [A7]+
00002BDC  DEFC 000C                add.w      A7, 0xC
00002BE0  4ED0                     jmp        [A0]
fn00002BE2:
00002BE2  594F                     subq.w     A7, 4
00002BE4  2F3C 424E 444C           move.l     -[A7], 0x424E444C /* 'BNDL' */
00002BEA  554F                     subq.w     A7, 2
00002BEC  2F0C                     move.l     -[A7], A4
00002BEE  4EAD 00A2                jsr        [A5 + 0xA2 /* export_16, CODE:1 @ 0000097E */]
00002BF2  4EAD 007A                jsr        [A5 + 0x7A /* export_11, CODE:1 @ 00000B14 */]
00002BF6  265F                     movea.l    A3, [A7]+
00002BF8  4E75                     rts
export_134:
fn00002BFA:
00002BFA  4E56 FFF4                link       A6, -0x000C
00002BFE  48E7 0038                movem.l    -[A7], A2,A3,A4
00002C02  202E 0008                move.l     D0, [A6 + 0x8]
00002C06  673C                     beq        +0x3E /* 00002C44 */
00002C08  2840                     movea.l    A4, D0
00002C0A  B9ED FF14                cmpa.l     A4, [A5 - 0xEC]
00002C0E  6734                     beq        +0x36 /* 00002C44 */
00002C10  486E FFFC                pea.l      [A6 - 0x4]
00002C14  A874                     syscall    GetPort
00002C16  2F0C                     move.l     -[A7], A4
00002C18  A873                     syscall    SetPort
00002C1A  302C 006C                move.w     D0, [A4 + 0x6C]
00002C1E  0C40 0010                cmpi.w     D0, 0x10
00002C22  6616                     bne        +0x18 /* 00002C3A */
00002C24  6100 F6A0                bsr        -0x95E /* 000022C6 */
00002C28  41EE FFFC                lea.l      A0, [A6 - 0x4]
00002C2C  312C 0016                move.w     -[A0], [A4 + 0x16]
00002C30  313C 0011                move.w     -[A0], 0x11
00002C34  42A0                     clr.l      -[A0]
00002C36  2F08                     move.l     -[A7], A0
00002C38  A928                     syscall    InvalRect
label00002C3A:
00002C3A  6100 F686                bsr        -0x978 /* 000022C2 */
00002C3E  2F2E FFFC                move.l     -[A7], [A6 - 0x4]
00002C42  A873                     syscall    SetPort
label00002C44:
00002C44  4CDF 1C00                movem.l    A2,A3,A4, [A7]+
00002C48  4E5E                     unlink     A6
00002C4A  2E9F                     move.l     [A7], [A7]+
00002C4C  4E75                     rts
fn00002C4E:
00002C4E  48E7 0038                movem.l    -[A7], A2,A3,A4
00002C52  286D FF18                movea.l    A4, [A5 - 0xE8]
00002C56  200C                     move.l     D0, A4
00002C58  6712                     beq        +0x14 /* 00002C6C */
00002C5A  594F                     subq.w     A7, 4
00002C5C  2F0F                     move.l     -[A7], A7
00002C5E  A874                     syscall    GetPort
00002C60  2F0C                     move.l     -[A7], A4
00002C62  A873                     syscall    SetPort
00002C64  486C 0010                pea.l      [A4 + 0x10]
00002C68  A928                     syscall    InvalRect
00002C6A  A873                     syscall    SetPort
label00002C6C:
00002C6C  4CDF 1C00                movem.l    A2,A3,A4, [A7]+
00002C70  4E75                     rts
export_133:
00002C72  4E56 0000                link       A6, 0
00002C76  48E7 1820                movem.l    -[A7], D3,D4,A2
00002C7A  7610                     moveq.l    D3, 0x10
00002C7C  382E 0008                move.w     D4, [A6 + 0x8]
00002C80  2038 09D6                move.l     D0, [0x000009D6 /* WindowList */]
label00002C84:
00002C84  672C                     beq        +0x2E /* 00002CB2 */
00002C86  2440                     movea.l    A2, D0
00002C88  B66A 006C                cmp.w      D3, [A2 + 0x6C]
00002C8C  661E                     bne        +0x20 /* 00002CAC */
00002C8E  206A 0098                movea.l    A0, [A2 + 0x98]
00002C92  2050                     movea.l    A0, [A0]
00002C94  0C28 0001 000A           cmpi.b     [A0 + 0xA], 0x1
00002C9A  6610                     bne        +0x12 /* 00002CAC */
00002C9C  4A44                     tst.w      D4
00002C9E  6706                     beq        +0x8 /* 00002CA6 */
00002CA0  B868 0022                cmp.w      D4, [A0 + 0x22]
00002CA4  6606                     bne        +0x8 /* 00002CAC */
label00002CA6:
00002CA6  2F0A                     move.l     -[A7], A2
00002CA8  4EBA FF50                jsr        [PC - 0xB0 /* 00002BFA */]
label00002CAC:
00002CAC  202A 0090                move.l     D0, [A2 + 0x90]
00002CB0  60D2                     bra        -0x2C /* 00002C84 */
label00002CB2:
00002CB2  4CDF 0418                movem.l    D3,D4,A2, [A7]+
00002CB6  4E5E                     unlink     A6
00002CB8  205F                     movea.l    A0, [A7]+
00002CBA  544F                     addq.w     A7, 2
00002CBC  4ED0                     jmp        [A0]
export_132:
00002CBE  48E7 1820                movem.l    -[A7], D3,D4,A2
00002CC2  2638 09D6                move.l     D3, [0x000009D6 /* WindowList */]
label00002CC6:
00002CC6  4A83                     tst.l      D3
00002CC8  6714                     beq        +0x16 /* 00002CDE */
00002CCA  2443                     movea.l    A2, D3
00002CCC  262A 0090                move.l     D3, [A2 + 0x90]
00002CD0  4A6A 006C                tst.w      [A2 + 0x6C]
00002CD4  6AF0                     bpl        -0xE /* 00002CC6 */
00002CD6  2F0A                     move.l     -[A7], A2
00002CD8  6100 F5C6                bsr        -0xA38 /* 000022A0 */
00002CDC  60E8                     bra        -0x16 /* 00002CC6 */
label00002CDE:
00002CDE  4CDF 0418                movem.l    D3,D4,A2, [A7]+
00002CE2  4E75                     rts
export_127:
00002CE4  4E56 0000                link       A6, 0
00002CE8  48E7 1F38                movem.l    -[A7], D3,D4,D5,D6,D7,A2,A3,A4
00002CEC  2055                     movea.l    A0, [A5]
00002CEE  4868 FFE8                pea.l      [A0 - 0x18]
00002CF2  A89D                     syscall    PenPat
00002CF4  3F3C 000E                move.w     -[A7], 0xE
00002CF8  A89C                     syscall    PenMode
00002CFA  206E 0008                movea.l    A0, [A6 + 0x8]
00002CFE  202E 000C                move.l     D0, [A6 + 0xC]
00002D02  2080                     move.l     [A0], D0
00002D04  2140 0004                move.l     [A0 + 0x4], D0
00002D08  4283                     clr.l      D3
00002D0A  2E38 016A                move.l     D7, [0x0000016A /* Ticks */]
label00002D0E:
00002D0E  554F                     subq.w     A7, 2
00002D10  A973                     syscall    StillDown
00002D12  4A1F                     tst.b      [A7]+
00002D14  6736                     beq        +0x38 /* 00002D4C */
00002D16  2C38 016A                move.l     D6, [0x0000016A /* Ticks */]
00002D1A  9C87                     sub.l      D6, D7
00002D1C  0C46 0002                cmpi.w     D6, 0x2
00002D20  6DEC                     blt        -0x12 /* 00002D0E */
00002D22  DE86                     add.l      D7, D6
00002D24  594F                     subq.w     A7, 4
00002D26  2F0F                     move.l     -[A7], A7
00002D28  A972                     syscall    GetMouse
00002D2A  201F                     move.l     D0, [A7]+
00002D2C  B083                     cmp.l      D0, D3
00002D2E  67DE                     beq        -0x20 /* 00002D0E */
00002D30  2600                     move.l     D3, D0
00002D32  2F2E 0008                move.l     -[A7], [A6 + 0x8]
00002D36  A8A1                     syscall    FrameRect
00002D38  2F2E 000C                move.l     -[A7], [A6 + 0xC]
00002D3C  2F03                     move.l     -[A7], D3
00002D3E  2F2E 0008                move.l     -[A7], [A6 + 0x8]
00002D42  A8AC                     syscall    Pt2Rect
00002D44  2F2E 0008                move.l     -[A7], [A6 + 0x8]
00002D48  A8A1                     syscall    FrameRect
00002D4A  60C2                     bra        -0x3C /* 00002D0E */
label00002D4C:
00002D4C  2F2E 0008                move.l     -[A7], [A6 + 0x8]
00002D50  A8A1                     syscall    FrameRect
00002D52  A89E                     syscall    PenNormal
00002D54  4CDF 1CF8                movem.l    D3,D4,D5,D6,D7,A2,A3,A4, [A7]+
00002D58  4E5E                     unlink     A6
00002D5A  205F                     movea.l    A0, [A7]+
00002D5C  504F                     addq.w     A7, 8
00002D5E  4ED0                     jmp        [A0]
export_122:
fn00002D60:
00002D60  205F                     movea.l    A0, [A7]+
00002D62  321F                     move.w     D1, [A7]+
00002D64  3001                     move.w     D0, D1
00002D66  6B16                     bmi        +0x18 /* 00002D7E */
00002D68  2278 0358                movea.l    A1, [0x00000358]
label00002D6C:
00002D6C  3029 004E                move.w     D0, [A1 + 0x4E]
00002D70  B269 0048                cmp.w      D1, [A1 + 0x48]
00002D74  6700 0008                beq        +0xA /* 00002D7E */
00002D78  2251                     movea.l    A1, [A1]
00002D7A  2009                     move.l     D0, A1
00002D7C  66EE                     bne        -0x10 /* 00002D6C */
label00002D7E:
00002D7E  3E80                     move.w     [A7], D0
00002D80  4ED0                     jmp        [A0]
00002D82  FADE 4E56                .extension 0xADE <<F/2-3/5>> // unimplemented
00002D86  0000 48E7                ori.b      D0, 0xE7
00002D8A  1F38 3D78                move.b     -[A7], [0x00003D78]
00002D8E  0A06 000A                xori.b     D6, 0xA /* '\n' */
00002D92  554F                     subq.w     A7, 2
00002D94  2F3C 464F 424A           move.l     -[A7], 0x464F424A /* 'FOBJ' */
00002D9A  A99C                     syscall    CountResources
00002D9C  3E1F                     move.w     D7, [A7]+
00002D9E  3C2E 0008                move.w     D6, [A6 + 0x8]
label00002DA2:
00002DA2  594F                     subq.w     A7, 4
00002DA4  2F3C 464F 424A           move.l     -[A7], 0x464F424A /* 'FOBJ' */
00002DAA  3F07                     move.w     -[A7], D7
00002DAC  A99D                     syscall    GetIndResource
00002DAE  285F                     movea.l    A4, [A7]+
00002DB0  2054                     movea.l    A0, [A4]
00002DB2  0C50 0004                cmpi.w     [A0], 0x4
00002DB6  6606                     bne        +0x8 /* 00002DBE */
00002DB8  BC68 0022                cmp.w      D6, [A0 + 0x22]
00002DBC  6706                     beq        +0x8 /* 00002DC4 */
label00002DBE:
00002DBE  5347                     subq.w     D7, 1
00002DC0  66E0                     bne        -0x1E /* 00002DA2 */
00002DC2  6006                     bra        +0x8 /* 00002DCA */
label00002DC4:
00002DC4  3D68 0024 000A           move.w     [A6 + 0xA], [A0 + 0x24]
label00002DCA:
00002DCA  4CDF 1CF8                movem.l    D3,D4,D5,D6,D7,A2,A3,A4, [A7]+
00002DCE  4E5E                     unlink     A6
00002DD0  205F                     movea.l    A0, [A7]+
00002DD2  544F                     addq.w     A7, 2
00002DD4  4ED0                     jmp        [A0]
export_123:
00002DD6  4E56 FFB0                link       A6, -0x0050
00002DDA  204F                     movea.l    A0, A7
00002DDC  216E 0008 0012           move.l     [A0 + 0x12], [A6 + 0x8]
00002DE2  316E 000E 0016           move.w     [A0 + 0x16], [A6 + 0xE]
00002DE8  116E 000C 001A           move.b     [A0 + 0x1A], [A6 + 0xC]
00002DEE  A009                     syscall    Delete/PBHDelete/HDelete
00002DF0  3D40 0010                move.w     [A6 + 0x10], D0
00002DF4  4E5E                     unlink     A6
00002DF6  205F                     movea.l    A0, [A7]+
00002DF8  504F                     addq.w     A7, 8
00002DFA  3E80                     move.w     [A7], D0
00002DFC  4ED0                     jmp        [A0]
export_125:
00002DFE  554F                     subq.w     A7, 2
00002E00  3F2F 000A                move.w     -[A7], [A7 + 0xA]
00002E04  6100 F988                bsr        -0x676 /* 0000278E */
00002E08  544F                     addq.w     A7, 2
00002E0A  322F 0008                move.w     D1, [A7 + 0x8]
00002E0E  2038 0358                move.l     D0, [0x00000358]
label00002E12:
00002E12  670C                     beq        +0xE /* 00002E20 */
00002E14  2240                     movea.l    A1, D0
00002E16  B269 004E                cmp.w      D1, [A1 + 0x4E]
00002E1A  6708                     beq        +0xA /* 00002E24 */
00002E1C  2011                     move.l     D0, [A1]
00002E1E  60F2                     bra        -0xC /* 00002E12 */
label00002E20:
00002E20  70DD                     moveq.l    D0, 0xFFFFFFDD
00002E22  601A                     bra        +0x1C /* 00002E3E */
label00002E24:
00002E24  50E9 0006                st         [A1 + 0x6]
00002E28  43E9 002C                lea.l      A1, [A1 + 0x2C]
00002E2C  206F 0004                movea.l    A0, [A7 + 0x4]
00002E30  7001                     moveq.l    D0, 0x01
00002E32  D010                     add.b      D0, [A0]
00002E34  A02E                     syscall    BlockMove/BlockMoveData
00002E36  3F01                     move.w     -[A7], D1
00002E38  6100 F936                bsr        -0x6C8 /* 00002770 */
00002E3C  7000                     moveq.l    D0, 0x00
label00002E3E:
00002E3E  205F                     movea.l    A0, [A7]+
00002E40  5C4F                     addq.w     A7, 6
00002E42  3E80                     move.w     [A7], D0
00002E44  4ED0                     jmp        [A0]
export_124:
00002E46  4E56 FFB0                link       A6, -0x0050
00002E4A  204F                     movea.l    A0, A7
00002E4C  226E 0008                movea.l    A1, [A6 + 0x8]
00002E50  2149 001C                move.l     [A0 + 0x1C], A1
00002E54  216E 000C 0012           move.l     [A0 + 0x12], [A6 + 0xC]
00002E5A  316E 0012 0016           move.w     [A0 + 0x16], [A6 + 0x12]
00002E60  116E 0010 001A           move.b     [A0 + 0x1A], [A6 + 0x10]
00002E66  A00B                     syscall    Rename/PBHRename/HRename
00002E68  3D40 0014                move.w     [A6 + 0x14], D0
00002E6C  3F2E 0012                move.w     -[A7], [A6 + 0x12]
00002E70  6100 F8FE                bsr        -0x700 /* 00002770 */
00002E74  4E5E                     unlink     A6
00002E76  205F                     movea.l    A0, [A7]+
00002E78  DEFC 000C                add.w      A7, 0xC
00002E7C  3E80                     move.w     [A7], D0
00002E7E  4ED0                     jmp        [A0]
export_120:
00002E80  4E56 0000                link       A6, 0
00002E84  48E7 1800                movem.l    -[A7], D3,D4
00002E88  362E 0008                move.w     D3, [A6 + 0x8]
00002E8C  3F3C 0007                move.w     -[A7], 0x7
00002E90  51E7                     sf         -[A7]
00002E92  3F03                     move.w     -[A7], D3
00002E94  612E                     bsr        +0x30 /* 00002EC4 */
00002E96  2F38 0AF2                move.l     -[A7], [0x00000AF2 /* ResErrProc */]
00002E9A  42B8 0AF2                clr.l      [0x00000AF2 /* ResErrProc */]
00002E9E  3F03                     move.w     -[A7], D3
00002EA0  A999                     syscall    UpdateResFile
00002EA2  21DF 0AF2                move.l     [0x00000AF2 /* ResErrProc */], [A7]+
00002EA6  3D78 0A60 000A           move.w     [A6 + 0xA], [0x00000A60 /* ResErr */]
00002EAC  3F3C 0007                move.w     -[A7], 0x7
00002EB0  50E7                     st         -[A7]
00002EB2  3F03                     move.w     -[A7], D3
00002EB4  610E                     bsr        +0x10 /* 00002EC4 */
00002EB6  4CDF 0018                movem.l    D3,D4, [A7]+
00002EBA  4E5E                     unlink     A6
00002EBC  205F                     movea.l    A0, [A7]+
00002EBE  544F                     addq.w     A7, 2
00002EC0  4ED0                     jmp        [A0]
export_102:
00002EC2  4E75                     rts
export_108:
fn00002EC4:
00002EC4  4E56 0000                link       A6, 0
00002EC8  48E7 3800                movem.l    -[A7], D2,D3,D4
00002ECC  41EE 0008                lea.l      A0, [A6 + 0x8]
00002ED0  3418                     move.w     D2, [A0]+
00002ED2  1618                     move.b     D3, [A0]+
00002ED4  5288                     addq.l     A0, 1
00002ED6  3818                     move.w     D4, [A0]+
00002ED8  3F02                     move.w     -[A7], D2
00002EDA  554F                     subq.w     A7, 2
00002EDC  3F02                     move.w     -[A7], D2
00002EDE  A9F6                     syscall    GetResFileAttrs
00002EE0  4A03                     tst.b      D3
00002EE2  6706                     beq        +0x8 /* 00002EEA */
00002EE4  09EF                     .incomplete
00002EE6  0001 6004                ori.b      D1, 0x4
label00002EEA:
00002EEA  09AF 0001                bclr       [A7 + 0x1], D4
00002EEE  A9F7                     syscall    SetResFileAttrs
00002EF0  4CDF 001C                movem.l    D2,D3,D4, [A7]+
00002EF4  4E5E                     unlink     A6
00002EF6  205F                     movea.l    A0, [A7]+
00002EF8  5C4F                     addq.w     A7, 6
00002EFA  4ED0                     jmp        [A0]
export_118:
fn00002EFC:
00002EFC  205F                     movea.l    A0, [A7]+
00002EFE  241F                     move.l     D2, [A7]+
00002F00  321F                     move.w     D1, [A7]+
00002F02  2038 09D6                move.l     D0, [0x000009D6 /* WindowList */]
label00002F06:
00002F06  6714                     beq        +0x16 /* 00002F1C */
00002F08  2240                     movea.l    A1, D0
00002F0A  B269 006C                cmp.w      D1, [A1 + 0x6C]
00002F0E  6606                     bne        +0x8 /* 00002F16 */
00002F10  B4A9 0098                cmp.l      D2, [A1 + 0x98]
00002F14  6706                     beq        +0x8 /* 00002F1C */
label00002F16:
00002F16  2029 0090                move.l     D0, [A1 + 0x90]
00002F1A  60EA                     bra        -0x14 /* 00002F06 */
label00002F1C:
00002F1C  2E80                     move.l     [A7], D0
00002F1E  4ED0                     jmp        [A0]
export_104:
00002F20  594F                     subq.w     A7, 4
00002F22  2F3C 4656 4953           move.l     -[A7], 0x46564953 /* 'FVIS' */
00002F28  3F3C 0080                move.w     -[A7], 0x80
00002F2C  A9A0                     syscall    GetResource
00002F2E  205F                     movea.l    A0, [A7]+
00002F30  2050                     movea.l    A0, [A0]
00002F32  2F10                     move.l     -[A7], [A0]
00002F34  A887                     syscall    TextFont
00002F36  A88A                     syscall    TextSize
00002F38  4E75                     rts
export_112:
00002F3A  7004                     moveq.l    D0, 0x04
00002F3C  6006                     bra        +0x8 /* 00002F44 */
fn00002F3E:
00002F3E  7024                     moveq.l    D0, 0x24
00002F40  6002                     bra        +0x4 /* 00002F44 */
export_111:
00002F42  7020                     moveq.l    D0, 0x20
label00002F44:
00002F44  225F                     movea.l    A1, [A7]+
00002F46  3F00                     move.w     -[A7], D0
00002F48  554F                     subq.w     A7, 2
00002F4A  2F2F 0004                move.l     -[A7], [A7 + 0x4]
00002F4E  A9A6                     syscall    GetResAttrs
00002F50  301F                     move.w     D0, [A7]+
00002F52  805F                     or.w       D0, [A7]+
00002F54  3F00                     move.w     -[A7], D0
00002F56  A9A7                     syscall    SetResAttrs
00002F58  4ED1                     jmp        [A1]
fn00002F5A:
00002F5A  4E56 FFF2                link       A6, -0x000E
00002F5E  2F2E 000E                move.l     -[A7], [A6 + 0xE]
00002F62  3F2E 000C                move.w     -[A7], [A6 + 0xC]
00002F66  486E FFFE                pea.l      [A6 - 0x2]
00002F6A  486E FFFA                pea.l      [A6 - 0x6]
00002F6E  486E FFF2                pea.l      [A6 - 0xE]
00002F72  A98D                     syscall    GetDialogItem/GetDItem
00002F74  2F2E 000E                move.l     -[A7], [A6 + 0xE]
00002F78  3F2E 000C                move.w     -[A7], [A6 + 0xC]
00002F7C  3F2E FFFE                move.w     -[A7], [A6 - 0x2]
00002F80  2F2E 0008                move.l     -[A7], [A6 + 0x8]
00002F84  486E FFF2                pea.l      [A6 - 0xE]
00002F88  A98E                     syscall    SetDialogItem/SetDItem
00002F8A  4E5E                     unlink     A6
00002F8C  205F                     movea.l    A0, [A7]+
00002F8E  DEFC 000A                add.w      A7, 0xA /* '\n' */
00002F92  4ED0                     jmp        [A0]
export_109:
fn00002F94:
00002F94  3F3C 000C                move.w     -[A7], 0xC
00002F98  4267                     clr.w      -[A7]
00002F9A  A887                     syscall    TextFont
00002F9C  A88A                     syscall    TextSize
00002F9E  4E75                     rts
00002FA0  0000 0032                ori.b      D0, 0x32 /* '2' */
00002FA4  004C 00FA                ori.w      A4, 0xFA
00002FA8  01B4 0010                bclr       [A4 + D0.w + 0x10], D0
00002FAC  000A 1454                ori.b      A2, 0x54 /* 'T' */
00002FB0  6865                     bvc        +0x67 /* 00003017 */
00002FB2  204D                     movea.l    A0, A5
00002FB4  6163                     bsr        +0x65 /* 00003019 */
00002FB6  696E                     bvs        +0x70 /* 00003026 */
00002FB8  746F                     moveq.l    D2, 0x6F
00002FBA  7368                     moveq.l    D1, 0x68
00002FBC  2046                     movea.l    A0, D6
00002FBE  696E                     bvs        +0x70 /* 0000302E */
00002FC0  6465                     bcc        +0x67 /* 00003027 */
00002FC2  7220                     moveq.l    D1, 0x20
00002FC4  00C2                     .incomplete
00002FC6  000A 3956                ori.b      A2, 0x56 /* 'V' */
00002FCA  312E 3120                move.w     -[A0], [A6 + 0x3120]
00002FCE  2831 3420                move.l     D4, [A1 + D3.w * 4 + 0x20]
00002FD2  4D61                     chk.w      D6, -[A1]
00002FD4  7220                     moveq.l    D1, 0x20
00002FD6  3834 2920 2020           move.w     D4, [A4 + 0x2020 + D2]
00002FDC  2020                     move.l     D0, -[A0]
00002FDE  2020                     move.l     D0, -[A0]
00002FE0  2020                     move.l     D0, -[A0]
00002FE2  2020                     move.l     D0, -[A0]
00002FE4  2020                     move.l     D0, -[A0]
00002FE6  2020                     move.l     D0, -[A0]
00002FE8  2020                     move.l     D0, -[A0]
00002FEA  2020                     move.l     D0, -[A0]
00002FEC  2020                     move.l     D0, -[A0]
00002FEE  A931                     syscall    NewMenu
00002FF0  3938 3420                move.w     -[A4], [0x00003420]
00002FF4  4170 706C                chk.w      D0, [A0 + D7.w + 0x6C]
00002FF8  6520                     bcs        +0x22 /* 0000301A */
00002FFA  436F 6D70                chk.w      D1, [A7 + 0x6D70]
00002FFE  7574                     moveq.l    D2, 0x74
00003000  6572                     bcs        +0x74 /* 00003074 */
fn00003002:
00003002  4E56 0000                link       A6, 0
00003006  48E7 1838                movem.l    -[A7], D3,D4,A2,A3,A4
0000300A  594F                     subq.w     A7, 4
0000300C  2F0F                     move.l     -[A7], A7
0000300E  A874                     syscall    GetPort
00003010  594F                     subq.w     A7, 4
00003012  42A7                     clr.l      -[A7]
00003014  487A FF8C                pea.l      [PC - 0x74 /* 00002FA2, value 0x32004C '2\0L', cstring "" */]
00003018  487A FF86                pea.l      [PC - 0x7A /* 00002FA0, value 0x32 '2', cstring "" */]
// begin alternate branch 0000301A-0000301C
label0000301A:
0000301A  FF86                     .invalid   <<F/6/7>>
// end alternate branch 0000301A-0000301C
label0000301A: // (misaligned)
0000301C  50E7                     st         -[A7]
0000301E  3F3C 0003                move.w     -[A7], 0x3
00003022  2F38 0A06                move.l     -[A7], [0x00000A06 /* MinusOne */]
label00003026:
00003026  4267                     clr.w      -[A7]
00003028  42A7                     clr.l      -[A7]
0000302A  A913                     syscall    NewWindow
0000302C  2857                     movea.l    A4, [A7]
label0000302E:
0000302E  A873                     syscall    SetPort
00003030  594F                     subq.w     A7, 4
00003032  3F3C 0080                move.w     -[A7], 0x80
00003036  A9BC                     syscall    GetPicture
00003038  245F                     movea.l    A2, [A7]+
0000303A  200A                     move.l     D0, A2
0000303C  6712                     beq        +0x14 /* 00003050 */
0000303E  2F0A                     move.l     -[A7], A2
00003040  486C 0010                pea.l      [A4 + 0x10]
00003044  A8F6                     syscall    DrawPicture
00003046  2F0A                     move.l     -[A7], A2
00003048  A9A3                     syscall    ReleaseResource
0000304A  3F3C 0003                move.w     -[A7], 0x3
0000304E  A889                     syscall    TextMode
label00003050:
00003050  6100 FF42                bsr        -0xBC /* 00002F94 */
00003054  47FA FF54                lea.l      A3, [PC - 0xAC /* 00002FAA, value 0x10000A, cstring "" */]
00003058  611C                     bsr        +0x1E /* 00003076 */
0000305A  47FA FF68                lea.l      A3, [PC - 0x98 /* 00002FC4, value 0xC2000A, cstring "" */]
0000305E  6116                     bsr        +0x18 /* 00003076 */
label00003060:
00003060  554F                     subq.w     A7, 2
00003062  A974                     syscall    Button
00003064  4A1F                     tst.b      [A7]+
00003066  67F8                     beq        -0x6 /* 00003060 */
00003068  A873                     syscall    SetPort
0000306A  2F0C                     move.l     -[A7], A4
0000306C  A914                     syscall    DisposeWindow
0000306E  4CDF 1C18                movem.l    D3,D4,A2,A3,A4, [A7]+
00003072  4E5E                     unlink     A6
label00003074:
00003074  4E75                     rts
fn00003076:
00003076  2F1B                     move.l     -[A7], [A3]+
00003078  A893                     syscall    MoveTo
0000307A  2F0B                     move.l     -[A7], A3
0000307C  A884                     syscall    DrawString
0000307E  4E75                     rts
00003080  FADE 4E75                .extension 0xADE <<F/2-3/5>> // unimplemented
export_103:
00003084  4E56 0000                link       A6, 0
00003088  48E7 3F38                movem.l    -[A7], D2,D3,D4,D5,D6,D7,A2,A3,A4
0000308C  362E 0008                move.w     D3, [A6 + 0x8]
00003090  266E 000A                movea.l    A3, [A6 + 0xA]
00003094  554F                     subq.w     A7, 2
00003096  2F0B                     move.l     -[A7], A3
00003098  A88C                     syscall    StringWidth
0000309A  B65F                     cmp.w      D3, [A7]+
0000309C  6E26                     bgt        +0x28 /* 000030C4 */
0000309E  5313                     subq.b     [A3], 1
000030A0  554F                     subq.w     A7, 2
000030A2  3F3C 00C9                move.w     -[A7], 0xC9
000030A6  A88D                     syscall    CharWidth
000030A8  965F                     sub.w      D3, [A7]+
label000030AA:
000030AA  554F                     subq.w     A7, 2
000030AC  2F0B                     move.l     -[A7], A3
000030AE  A88C                     syscall    StringWidth
000030B0  B65F                     cmp.w      D3, [A7]+
000030B2  6E04                     bgt        +0x6 /* 000030B8 */
000030B4  5313                     subq.b     [A3], 1
000030B6  66F2                     bne        -0xC /* 000030AA */
label000030B8:
000030B8  5213                     addq.b     [A3], 1
000030BA  7000                     moveq.l    D0, 0x00
000030BC  1013                     move.b     D0, [A3]
000030BE  17BC 00C9 0000           move.b     [A3 + D0.w], 0xC9
label000030C4:
000030C4  4CDF 1CFC                movem.l    D2,D3,D4,D5,D6,D7,A2,A3,A4, [A7]+
000030C8  4E5E                     unlink     A6
000030CA  205F                     movea.l    A0, [A7]+
000030CC  5C4F                     addq.w     A7, 6
000030CE  4ED0                     jmp        [A0]
fn000030D0:
000030D0  205F                     movea.l    A0, [A7]+
000030D2  301F                     move.w     D0, [A7]+
000030D4  2F08                     move.l     -[A7], A0
000030D6  4A40                     tst.w      D0
000030D8  660A                     bne        +0xC /* 000030E4 */
export_100:
fn000030DA:
000030DA  2055                     movea.l    A0, [A5]
000030DC  4868 FF94                pea.l      [A0 - 0x6C]
000030E0  600C                     bra        +0xE /* 000030EE */
export_91:
fn000030E2:
000030E2  7004                     moveq.l    D0, 0x04
label000030E4:
000030E4  594F                     subq.w     A7, 4
000030E6  3F00                     move.w     -[A7], D0
000030E8  A9B9                     syscall    GetCursor
000030EA  205F                     movea.l    A0, [A7]+
000030EC  2F10                     move.l     -[A7], [A0]
label000030EE:
000030EE  A851                     syscall    SetCursor
000030F0  4E75                     rts
export_98:
fn000030F2:
000030F2  4E56 0000                link       A6, 0
000030F6  206E 0008                movea.l    A0, [A6 + 0x8]
000030FA  2068 008C                movea.l    A0, [A0 + 0x8C]
000030FE  2050                     movea.l    A0, [A0]
00003100  2D50 000C                move.l     [A6 + 0xC], [A0]
00003104  4E5E                     unlink     A6
00003106  2E9F                     move.l     [A7], [A7]+
00003108  4E75                     rts
export_97:
fn0000310A:
0000310A  7208                     moveq.l    D1, 0x08
0000310C  74FF                     moveq.l    D2, 0xFFFFFFFF
0000310E  41ED F71E                lea.l      A0, [A5 - 0x8E2]
label00003112:
00003112  B490                     cmp.l      D2, [A0]
00003114  6716                     beq        +0x18 /* 0000312C */
00003116  D0FC 00AA                add.w      A0, 0xAA
0000311A  51C9 FFF6                dbf        D1, -0xC /* 00003112 */
0000311E  3F3C 0047                move.w     -[A7], 0x47 /* 'G' */
00003122  6100 F51C                bsr        -0xAE2 /* 00002640 */
00003126  50ED FF20                st         [A5 - 0xE0]
0000312A  91C8                     sub.l      A0, A0
label0000312C:
0000312C  2F48 0004                move.l     [A7 + 0x4], A0
00003130  4E75                     rts
export_96:
fn00003132:
00003132  205F                     movea.l    A0, [A7]+
00003134  225F                     movea.l    A1, [A7]+
00003136  22BC FFFF FFFF           move.l     [A1], 0xFFFFFFFF
0000313C  4ED0                     jmp        [A0]
export_121:
0000313E  7000                     moveq.l    D0, 0x00
00003140  6002                     bra        +0x4 /* 00003144 */
export_94:
00003142  7001                     moveq.l    D0, 0x01
label00003144:
00003144  4E56 FBB0                link       A6, -0x0450
00003148  48E7 1800                movem.l    -[A7], D3,D4
0000314C  3600                     move.w     D3, D0
0000314E  382E 0008                move.w     D4, [A6 + 0x8]
00003152  6A14                     bpl        +0x16 /* 00003168 */
00003154  554F                     subq.w     A7, 2
00003156  204F                     movea.l    A0, A7
00003158  554F                     subq.w     A7, 2
0000315A  3F04                     move.w     -[A7], D4
0000315C  2F08                     move.l     -[A7], A0
0000315E  6100 F446                bsr        -0xBB8 /* 000025A6 */
00003162  381F                     move.w     D4, [A7]+
00003164  4A1F                     tst.b      [A7]+
00003166  6632                     bne        +0x34 /* 0000319A */
label00003168:
00003168  41EE FFB0                lea.l      A0, [A6 - 0x50]
0000316C  226E 000A                movea.l    A1, [A6 + 0xA]
00003170  2151 0020                move.l     [A0 + 0x20], [A1]
00003174  3144 0016                move.w     [A0 + 0x16], D4
00003178  317C FFFB 0018           move.w     [A0 + 0x18], 0xFFFB
0000317E  217C 0000 0400 0024      move.l     [A0 + 0x24], 0x400
00003186  317C 0001 002C           move.w     [A0 + 0x2C], 0x1
0000318C  42A8 002E                clr.l      [A0 + 0x2E]
00003190  4A43                     tst.w      D3
00003192  6604                     bne        +0x6 /* 00003198 */
00003194  A002                     syscall    Read
00003196  6002                     bra        +0x4 /* 0000319A */
label00003198:
00003198  A003                     syscall    Write
label0000319A:
0000319A  4CDF 0018                movem.l    D3,D4, [A7]+
0000319E  4E5E                     unlink     A6
000031A0  205F                     movea.l    A0, [A7]+
000031A2  5C4F                     addq.w     A7, 6
000031A4  4ED0                     jmp        [A0]
fn000031A6:
000031A6  6120                     bsr        +0x22 /* 000031C8 */
000031A8  4EBA 0326                jsr        [PC + 0x326 /* 000034D0 */]
label000031AC:
000031AC  2E9F                     move.l     [A7], [A7]+
000031AE  4E75                     rts
fn000031B0:
000031B0  6116                     bsr        +0x18 /* 000031C8 */
000031B2  4EBA 0312                jsr        [PC + 0x312 /* 000034C6 */]
000031B6  60F4                     bra        -0xA /* 000031AC */
fn000031B8:
000031B8  610E                     bsr        +0x10 /* 000031C8 */
000031BA  4EBA 0308                jsr        [PC + 0x308 /* 000034C4 */]
000031BE  60EC                     bra        -0x12 /* 000031AC */
000031C0  6106                     bsr        +0x8 /* 000031C8 */
000031C2  4EBA 0304                jsr        [PC + 0x304 /* 000034C8 */]
000031C6  60E4                     bra        -0x1A /* 000031AC */
fn000031C8:
000031C8  206F 0008                movea.l    A0, [A7 + 0x8]
000031CC  4A68 00A4                tst.w      [A0 + 0xA4]
000031D0  6B10                     bmi        +0x12 /* 000031E2 */
000031D2  2F08                     move.l     -[A7], A0
000031D4  A873                     syscall    SetPort
000031D6  225F                     movea.l    A1, [A7]+
000031D8  206F 0004                movea.l    A0, [A7 + 0x4]
000031DC  2F28 00A0                move.l     -[A7], [A0 + 0xA0]
000031E0  4ED1                     jmp        [A1]
label000031E2:
000031E2  4CDF 0301                movem.l    D0,A0,A1, [A7]+
000031E6  4ED0                     jmp        [A0]
000031E8  AC50                     syscall    InitCursor, auto_pop
000031EA  AC51                     syscall    SetCursor, auto_pop
000031EC  AC52                     syscall    HideCursor, auto_pop
000031EE  AC53                     syscall    ShowCursor, auto_pop
000031F0  AC55                     syscall    ShieldCursor, auto_pop
000031F2  AC56                     syscall    ObscureCursor, auto_pop
fn000031F4:
000031F4  AC58                     syscall    BitAnd, auto_pop
000031F6  AC59                     syscall    BitXor, auto_pop
fn000031F8:
000031F8  AC5A                     syscall    BitNot, auto_pop
fn000031FA:
000031FA  AC5B                     syscall    BitOr, auto_pop
000031FC  AC5C                     syscall    BitShift, auto_pop
000031FE  AC5D                     syscall    BitTst, auto_pop
00003200  AC5E                     syscall    BitSet, auto_pop
00003202  AC5F                     syscall    BitClr, auto_pop
00003204  AC61                     syscall    Random, auto_pop
00003206  AC62                     syscall    ForeColor, auto_pop
00003208  AC63                     syscall    BackColor, auto_pop
0000320A  AC64                     syscall    ColorBit, auto_pop
0000320C  AC65                     syscall    GetPixel, auto_pop
0000320E  AC66                     syscall    StuffHex, auto_pop
00003210  AC67                     syscall    LongMul, auto_pop
fn00003212:
00003212  AC68                     syscall    FixMul, auto_pop
fn00003214:
00003214  AC69                     syscall    FixRatio, auto_pop
fn00003216:
00003216  AC6A                     syscall    HiWord, auto_pop
fn00003218:
00003218  AC6B                     syscall    LoWord, auto_pop
fn0000321A:
0000321A  AC6C                     syscall    FixRound, auto_pop
0000321C  AC6D                     syscall    InitPort, auto_pop
0000321E  AC6E                     syscall    InitGraf, auto_pop
00003220  AC6F                     syscall    OpenPort, auto_pop
00003222  AC70                     syscall    LocalToGlobal, auto_pop
fn00003224:
00003224  AC71                     syscall    GlobalToLocal, auto_pop
00003226  AC72                     syscall    GrafDevice, auto_pop
export_105:
fn00003228:
00003228  AC73                     syscall    SetPort, auto_pop
export_145:
fn0000322A:
0000322A  AC74                     syscall    GetPort, auto_pop
0000322C  AC75                     syscall    SetPBits/SetPortBits, auto_pop
0000322E  AC76                     syscall    PortSize, auto_pop
00003230  AC77                     syscall    MovePortTo, auto_pop
00003232  AC78                     syscall    SetOrigin, auto_pop
00003234  AC79                     syscall    SetClip, auto_pop
00003236  AC7A                     syscall    GetClip, auto_pop
export_176:
fn00003238:
00003238  AC7B                     syscall    ClipRect, auto_pop
0000323A  AC7C                     syscall    BackPat, auto_pop
0000323C  AC7D                     syscall    ClosePort, auto_pop
0000323E  AC7E                     syscall    AddPt, auto_pop
00003240  AC7F                     syscall    SubPt, auto_pop
fn00003242:
00003242  AC80                     syscall    SetPt, auto_pop
00003244  AC81                     syscall    EqualPt, auto_pop
00003246  AC82                     syscall    StdText, auto_pop
00003248  AC83                     syscall    DrawChar, auto_pop
0000324A  AC84                     syscall    DrawString, auto_pop
0000324C  AC85                     syscall    DrawText, auto_pop
0000324E  AC86                     syscall    TextWidth, auto_pop
00003250  AC87                     syscall    TextFont, auto_pop
00003252  AC88                     syscall    TextFace, auto_pop
00003254  AC89                     syscall    TextMode, auto_pop
00003256  AC8A                     syscall    TextSize, auto_pop
00003258  AC8B                     syscall    GetFontInfo, auto_pop
0000325A  AC8C                     syscall    StringWidth, auto_pop
0000325C  AC8D                     syscall    CharWidth, auto_pop
0000325E  AC8E                     syscall    SpaceExtra, auto_pop
00003260  AC90                     syscall    StdLine, auto_pop
00003262  AC91                     syscall    LineTo, auto_pop
00003264  AC92                     syscall    Line, auto_pop
00003266  AC93                     syscall    MoveTo, auto_pop
00003268  AC94                     syscall    Move, auto_pop
0000326A  AC96                     syscall    HidePen, auto_pop
0000326C  AC97                     syscall    ShowPen, auto_pop
0000326E  AC98                     syscall    GetPenState, auto_pop
00003270  AC99                     syscall    SetPenState, auto_pop
00003272  AC9A                     syscall    GetPen, auto_pop
00003274  AC9B                     syscall    PenSize, auto_pop
fn00003276:
00003276  AC9C                     syscall    PenMode, auto_pop
fn00003278:
00003278  AC9D                     syscall    PenPat, auto_pop
fn0000327A:
0000327A  AC9E                     syscall    PenNormal, auto_pop
0000327C  ACA0                     syscall    StdRect, auto_pop
fn0000327E:
0000327E  ACA1                     syscall    FrameRect, auto_pop
00003280  ACA2                     syscall    PaintRect, auto_pop
export_163:
00003282  ACA3                     syscall    EraseRect, auto_pop
00003284  ACA4                     syscall    InvertRect, auto_pop
00003286  ACA5                     syscall    FillRect, auto_pop
00003288  ACA6                     syscall    EqualRect, auto_pop
export_110:
0000328A  ACA7                     syscall    SetRect, auto_pop
0000328C  ACA8                     syscall    OffsetRect, auto_pop
0000328E  ACA9                     syscall    InsetRect, auto_pop
00003290  ACAA                     syscall    SectRect, auto_pop
00003292  ACAB                     syscall    UnionRect, auto_pop
00003294  ACAC                     syscall    Pt2Rect, auto_pop
fn00003296:
00003296  ACAD                     syscall    PtInRect, auto_pop
00003298  ACAE                     syscall    EmptyRect, auto_pop
0000329A  ACAF                     syscall    StdRRect, auto_pop
0000329C  ACB0                     syscall    FrameRoundRect, auto_pop
0000329E  ACB1                     syscall    PaintRoundRect, auto_pop
000032A0  ACB2                     syscall    EraseRoundRect, auto_pop
000032A2  ACB3                     syscall    InvertRoundRect, auto_pop
000032A4  ACB4                     syscall    FillRoundRect, auto_pop
000032A6  ACB6                     syscall    StdOval, auto_pop
000032A8  ACB7                     syscall    FrameOval, auto_pop
000032AA  ACB8                     syscall    PaintOval, auto_pop
000032AC  ACB9                     syscall    EraseOval, auto_pop
000032AE  ACBA                     syscall    InvertOval, auto_pop
000032B0  ACBB                     syscall    FillOval, auto_pop
000032B2  ACBD                     syscall    StdArc, auto_pop
000032B4  ACBE                     syscall    FrameArc, auto_pop
000032B6  ACBF                     syscall    PaintArc, auto_pop
000032B8  ACC0                     syscall    EraseArc, auto_pop
000032BA  ACC1                     syscall    InvertArc, auto_pop
000032BC  ACC2                     syscall    FillArc, auto_pop
000032BE  ACC3                     syscall    PtToAngle, auto_pop
000032C0  ACC5                     syscall    StdPoly, auto_pop
000032C2  ACC6                     syscall    FramePoly, auto_pop
000032C4  ACC7                     syscall    PaintPoly, auto_pop
000032C6  ACC8                     syscall    ErasePoly, auto_pop
000032C8  ACC9                     syscall    InvertPoly, auto_pop
000032CA  ACCA                     syscall    FillPoly, auto_pop
000032CC  ACCB                     syscall    OpenPoly, auto_pop
000032CE  ACCC                     syscall    ClosePoly/ClosePgon, auto_pop
000032D0  ACCD                     syscall    KillPoly, auto_pop
000032D2  ACCE                     syscall    OffsetPoly, auto_pop
000032D4  ACCF                     syscall    PackBits, auto_pop
000032D6  ACD0                     syscall    UnpackBits, auto_pop
000032D8  ACD1                     syscall    StdRgn, auto_pop
000032DA  ACD2                     syscall    FrameRgn, auto_pop
000032DC  ACD3                     syscall    PaintRgn, auto_pop
000032DE  ACD4                     syscall    EraseRgn, auto_pop
000032E0  ACD5                     syscall    InverRgn/InvertRgn, auto_pop
000032E2  ACD6                     syscall    FillRgn, auto_pop
000032E4  ACD8                     syscall    NewRgn, auto_pop
000032E6  ACD9                     syscall    DisposRgn/DisposeRgn, auto_pop
000032E8  ACDA                     syscall    OpenRgn, auto_pop
000032EA  ACDB                     syscall    CloseRgn, auto_pop
fn000032EC:
000032EC  ACDC                     syscall    CopyRgn, auto_pop
fn000032EE:
000032EE  ACDD                     syscall    SetEmptyRgn, auto_pop
000032F0  ACDE                     syscall    SetRecRgn, auto_pop
000032F2  ACDF                     syscall    RectRgn, auto_pop
000032F4  ACE0                     syscall    OffsetRgn/OfsetRgn, auto_pop
000032F6  ACE1                     syscall    InsetRgn, auto_pop
fn000032F8:
000032F8  ACE2                     syscall    EmptyRgn, auto_pop
000032FA  ACE3                     syscall    EqualRgn, auto_pop
000032FC  ACE4                     syscall    SectRgn, auto_pop
fn000032FE:
000032FE  ACE5                     syscall    UnionRgn, auto_pop
00003300  ACE6                     syscall    DiffRgn, auto_pop
00003302  ACE7                     syscall    XorRgn, auto_pop
00003304  ACE8                     syscall    PtInRgn, auto_pop
00003306  ACE9                     syscall    RectInRgn, auto_pop
00003308  ACEB                     syscall    StdBits, auto_pop
0000330A  ACEC                     syscall    CopyBits, auto_pop
0000330C  ACEF                     syscall    ScrollRect, auto_pop
0000330E  ACEA                     syscall    SetStdProcs, auto_pop
00003310  ACED                     syscall    StdTxMeas, auto_pop
00003312  ACEE                     syscall    StdGetPic, auto_pop
00003314  ACF0                     syscall    StdPutPic, auto_pop
00003316  ACF1                     syscall    StdComment, auto_pop
00003318  ACF2                     syscall    PicComment, auto_pop
0000331A  ACF3                     syscall    OpenPicture, auto_pop
0000331C  ACF4                     syscall    ClosePicture, auto_pop
0000331E  ACF5                     syscall    KillPicture, auto_pop
00003320  ACF6                     syscall    DrawPicture, auto_pop
00003322  ACF8                     syscall    ScalePt, auto_pop
00003324  ACF9                     syscall    MapPt, auto_pop
00003326  ACFA                     syscall    MapRect, auto_pop
00003328  ACFB                     syscall    MapRgn, auto_pop
0000332A  ACFC                     syscall    MapPoly, auto_pop
0000332C  ACFE                     syscall    InitFonts, auto_pop
0000332E  ACFF                     syscall    GetFName/GetFontName, auto_pop
00003330  AD00                     syscall    GetFNum, auto_pop
00003332  AD01                     syscall    FMSwapFont, auto_pop
00003334  AD02                     syscall    RealFont, auto_pop
00003336  AD03                     syscall    SetFontLock, auto_pop
00003338  AD04                     syscall    DrawGrowIcon, auto_pop
0000333A  AD05                     syscall    DragGrayRgn, auto_pop
0000333C  AD06                     syscall    NewString, auto_pop
0000333E  AD07                     syscall    SetString, auto_pop
00003340  AD08                     syscall    ShowHide, auto_pop
00003342  AD09                     syscall    CalcVis, auto_pop
00003344  AD0A                     syscall    CalcVBehind, auto_pop
fn00003346:
00003346  AD0B                     syscall    ClipAbove, auto_pop
00003348  AD0C                     syscall    PaintOne, auto_pop
0000334A  AD0D                     syscall    PaintBehind, auto_pop
0000334C  AD0E                     syscall    SaveOld, auto_pop
0000334E  AD0F                     syscall    DrawNew, auto_pop
00003350  AD10                     syscall    GetWMgrPort, auto_pop
00003352  AD11                     syscall    CheckUpdate, auto_pop
00003354  AD12                     syscall    InitWindows, auto_pop
export_128:
00003356  AD13                     syscall    NewWindow, auto_pop
00003358  AD14                     syscall    DisposeWindow, auto_pop
export_107:
0000335A  AD15                     syscall    ShowWindow, auto_pop
0000335C  AD16                     syscall    HideWindow, auto_pop
0000335E  AD17                     syscall    GetWRefCon, auto_pop
00003360  AD18                     syscall    SetWRefCon, auto_pop
00003362  AD19                     syscall    GetWTitle, auto_pop
00003364  AD1A                     syscall    SetWTitle, auto_pop
00003366  AD1B                     syscall    MoveWindow, auto_pop
00003368  AD1C                     syscall    HiliteWindow, auto_pop
0000336A  AD1D                     syscall    SizeWindow, auto_pop
fn0000336C:
0000336C  AD1E                     syscall    TrackGoAway, auto_pop
fn0000336E:
0000336E  AD1F                     syscall    SelectWindow, auto_pop
00003370  AD20                     syscall    BringToFront, auto_pop
00003372  AD21                     syscall    SendBehind, auto_pop
export_183:
fn00003374:
00003374  AD22                     syscall    BeginUpdate, auto_pop
export_164:
fn00003376:
00003376  AD23                     syscall    EndUpdate, auto_pop
export_147:
fn00003378:
00003378  AD24                     syscall    FrontWindow, auto_pop
fn0000337A:
0000337A  AD25                     syscall    DragWindow, auto_pop
0000337C  AD26                     syscall    DragTheRgn, auto_pop
0000337E  AD27                     syscall    InvalRgn, auto_pop
00003380  AD28                     syscall    InvalRect, auto_pop
00003382  AD29                     syscall    ValidRgn, auto_pop
00003384  AD2A                     syscall    ValidRect, auto_pop
00003386  AD2B                     syscall    GrowWindow, auto_pop
fn00003388:
00003388  AD2C                     syscall    FindWindow, auto_pop
fn0000338A:
0000338A  AD2D                     syscall    CloseWindow, auto_pop
0000338C  AD2E                     syscall    SetWindowPic, auto_pop
0000338E  AD2F                     syscall    GetWindowPic, auto_pop
00003390  AD30                     syscall    InitMenus, auto_pop
00003392  AD31                     syscall    NewMenu, auto_pop
00003394  AD32                     syscall    DisposeMenu, auto_pop
00003396  AD33                     syscall    AppendMenu, auto_pop
00003398  AD34                     syscall    ClearMenuBar, auto_pop
0000339A  AD35                     syscall    InsertMenu, auto_pop
0000339C  AD36                     syscall    DeleteMenu, auto_pop
0000339E  AD37                     syscall    DrawMenuBar, auto_pop
fn000033A0:
000033A0  AD38                     syscall    HiliteMenu, auto_pop
fn000033A2:
000033A2  AD39                     syscall    EnableItem, auto_pop
fn000033A4:
000033A4  AD3A                     syscall    DisableItem, auto_pop
000033A6  AD3B                     syscall    GetMenuBar, auto_pop
000033A8  AD3C                     syscall    SetMenuBar, auto_pop
fn000033AA:
000033AA  AD3D                     syscall    MenuSelect, auto_pop
fn000033AC:
000033AC  AD3E                     syscall    MenuKey, auto_pop
000033AE  AD3F                     syscall    GetItmIcon, auto_pop
000033B0  AD40                     syscall    SetItmIcon, auto_pop
000033B2  AD41                     syscall    GetItmStyle, auto_pop
000033B4  AD42                     syscall    SetItmStyle, auto_pop
000033B6  AD43                     syscall    GetItmMark, auto_pop
000033B8  AD44                     syscall    SetItmMark, auto_pop
fn000033BA:
000033BA  AD45                     syscall    CheckItem, auto_pop
fn000033BC:
000033BC  AD46                     syscall    GetMenuItemText/GetItem, auto_pop
000033BE  AD47                     syscall    SetMenuItemText/SetItem, auto_pop
000033C0  AD48                     syscall    CalcMenuSize, auto_pop
000033C2  AD49                     syscall    GetMenuHandle, auto_pop
000033C4  AD4A                     syscall    SetMFlash, auto_pop
000033C6  AD4B                     syscall    PlotIcon, auto_pop
000033C8  AD4C                     syscall    FlashMenuBar, auto_pop
000033CA  AD4D                     syscall    AppendResMenu/AddResMenu, auto_pop
000033CC  AD50                     syscall    CountMItems, auto_pop
000033CE  AD51                     syscall    InsertResMenu, auto_pop
000033D0  AD4E                     syscall    PinRect, auto_pop
000033D2  AD4F                     syscall    DeltaPoint, auto_pop
export_129:
000033D4  AD54                     syscall    NewControl, auto_pop
000033D6  AD55                     syscall    DisposeControl, auto_pop
000033D8  AD56                     syscall    KillControls, auto_pop
000033DA  AD57                     syscall    ShowControl, auto_pop
000033DC  AD58                     syscall    HideControl, auto_pop
000033DE  AD59                     syscall    MoveControl, auto_pop
000033E0  AD5A                     syscall    GetControlReference/GetCRefCon, auto_pop
000033E2  AD5B                     syscall    SetControlReference/SetCRefCon, auto_pop
000033E4  AD5C                     syscall    SizeControl, auto_pop
export_140:
000033E6  AD5D                     syscall    HiliteControl, auto_pop
000033E8  AD5E                     syscall    GetControlTitle/GetCTitle, auto_pop
000033EA  AD5F                     syscall    SetControlTitle/SetCTitle, auto_pop
export_150:
000033EC  AD60                     syscall    GetControlValue/GetCtlValue, auto_pop
export_149:
000033EE  AD61                     syscall    GetControlMinimum/GetMinCtl, auto_pop
000033F0  AD62                     syscall    GetControlMaximum/GetMaxCtl, auto_pop
export_113:
000033F2  AD63                     syscall    SetControlValue/SetCtlValue, auto_pop
export_114:
000033F4  AD64                     syscall    SetControlMinimum/SetMinCtl, auto_pop
export_115:
000033F6  AD65                     syscall    SetControlMaximum/SetMaxCtl, auto_pop
000033F8  AD66                     syscall    TestControl, auto_pop
000033FA  AD67                     syscall    DragControl, auto_pop
000033FC  AD68                     syscall    TrackControl, auto_pop
export_171:
000033FE  AD69                     syscall    DrawControls, auto_pop
00003400  AD6A                     syscall    GetControlAction/GetCtlAction, auto_pop
00003402  AD6B                     syscall    SetControlAction/SetCtlAction, auto_pop
00003404  AD6C                     syscall    FindControl, auto_pop
fn00003406:
00003406  AD70                     syscall    GetNextEvent, auto_pop
fn00003408:
00003408  AD71                     syscall    EventAvail, auto_pop
0000340A  AD72                     syscall    GetMouse, auto_pop
0000340C  AD73                     syscall    StillDown, auto_pop
0000340E  AD74                     syscall    Button, auto_pop
fn00003410:
00003410  AD75                     syscall    TickCount, auto_pop
00003412  AD76                     syscall    GetKeys, auto_pop
00003414  AD77                     syscall    WaitMouseUp, auto_pop
00003416  AD7B                     syscall    InitDialogs, auto_pop
00003418  AD7C                     syscall    GetNewDialog, auto_pop
0000341A  AD7D                     syscall    NewDialog, auto_pop
0000341C  AD7E                     syscall    SelectDialogItemText/SelIText, auto_pop
fn0000341E:
0000341E  AD7F                     syscall    IsDialogEvent, auto_pop
00003420  AD80                     syscall    DialogSelect, auto_pop
export_168:
00003422  AD81                     syscall    DrawDialog, auto_pop
00003424  AD82                     syscall    CloseDialog, auto_pop
00003426  AD83                     syscall    DisposeDialog, auto_pop
00003428  AD85                     syscall    Alert, auto_pop
0000342A  AD86                     syscall    StopAlert, auto_pop
0000342C  AD87                     syscall    NoteAlert, auto_pop
0000342E  AD88                     syscall    CautionAlert, auto_pop
00003430  AD89                     syscall    CouldAlert, auto_pop
00003432  AD8A                     syscall    FreeAlert, auto_pop
00003434  AD8B                     syscall    ParamText, auto_pop
00003436  AD8C                     syscall    ErrorSound, auto_pop
fn00003438:
00003438  AD8D                     syscall    GetDialogItem/GetDItem, auto_pop
0000343A  AD8E                     syscall    SetDialogItem/SetDItem, auto_pop
0000343C  AD8F                     syscall    SetDialogItemText/SetIText, auto_pop
0000343E  AD90                     syscall    GetDialogItemText/GetIText, auto_pop
00003440  AD91                     syscall    ModalDialog, auto_pop
00003442  AD92                     syscall    DetachResource, auto_pop
00003444  AD93                     syscall    SetResPurge, auto_pop
fn00003446:
00003446  AD94                     syscall    CurResFile, auto_pop
00003448  AD95                     syscall    InitResources, auto_pop
0000344A  AD96                     syscall    RsrcZoneInit, auto_pop
0000344C  AD97                     syscall    OpenResFile, auto_pop
fn0000344E:
0000344E  AD98                     syscall    UseResFile, auto_pop
00003450  AD99                     syscall    UpdateResFile, auto_pop
00003452  AD9A                     syscall    CloseResFile, auto_pop
00003454  AD9B                     syscall    SetResLoad, auto_pop
00003456  AD9C                     syscall    CountResources, auto_pop
00003458  AD9D                     syscall    GetIndResource, auto_pop
0000345A  AD9E                     syscall    CountTypes, auto_pop
0000345C  AD9F                     syscall    GetIndType, auto_pop
0000345E  ADA0                     syscall    GetResource, auto_pop
00003460  ADA1                     syscall    GetNamedResource, auto_pop
00003462  ADA2                     syscall    LoadResource, auto_pop
00003464  ADA3                     syscall    ReleaseResource, auto_pop
00003466  ADA4                     syscall    HomeResFile, auto_pop
00003468  ADA6                     syscall    GetResAttrs, auto_pop
0000346A  ADA7                     syscall    SetResAttrs, auto_pop
0000346C  ADA8                     syscall    GetResInfo, auto_pop
0000346E  ADA9                     syscall    SetResInfo, auto_pop
00003470  ADAA                     syscall    ChangedResource, auto_pop
00003472  ADAB                     syscall    AddResource, auto_pop
00003474  ADAC                     syscall    AddReference, auto_pop
00003476  ADAD                     syscall    RemoveResource/RmveResource, auto_pop
00003478  ADAE                     syscall    RmveReference, auto_pop
0000347A  ADAF                     syscall    ResError, auto_pop
0000347C  ADB0                     syscall    WriteResource, auto_pop
0000347E  ADB1                     syscall    CreateResFile, auto_pop
00003480  ADB2                     syscall    SystemEvent, auto_pop
fn00003482:
00003482  ADB3                     syscall    SystemClick, auto_pop
fn00003484:
00003484  ADB4                     syscall    SystemTask, auto_pop
00003486  ADB5                     syscall    SystemMenu, auto_pop
00003488  ADB6                     syscall    OpenDeskAcc, auto_pop
0000348A  ADB7                     syscall    CloseDeskAcc, auto_pop
0000348C  ADB8                     syscall    GetPattern, auto_pop
0000348E  ADB9                     syscall    GetCursor, auto_pop
00003490  ADBA                     syscall    GetString, auto_pop
00003492  ADBB                     syscall    GetIcon, auto_pop
00003494  ADBC                     syscall    GetPicture, auto_pop
00003496  ADBD                     syscall    GetNewWindow, auto_pop
00003498  ADBE                     syscall    GetNewControl, auto_pop
0000349A  ADBF                     syscall    GetRMenu, auto_pop
0000349C  ADC0                     syscall    GetNewMBar, auto_pop
0000349E  ADC1                     syscall    UniqueID, auto_pop
fn000034A0:
000034A0  ADC2                     syscall    SysEdit, auto_pop
000034A2  ADC4                     syscall    OpenRFPerm, auto_pop
000034A4  ADC5                     syscall    RsrcMapEntry, auto_pop
000034A6  ADC6                     syscall    SecondsToDate/Secs2Date, auto_pop
000034A8  ADC7                     syscall    DateToSeconds/Date2Secs, auto_pop
000034AA  ADC8                     syscall    SysBeep, auto_pop
000034AC  ADC9                     syscall    SysError, auto_pop
000034AE  ADCA                     syscall    PutIcon, auto_pop
000034B0  ADCB                     syscall    TEGetText, auto_pop
000034B2  ADCC                     syscall    TEInit, auto_pop
000034B4  ADCD                     syscall    TEDispose, auto_pop
000034B6  ADCE                     syscall    TETextBox/TextBox, auto_pop
000034B8  ADCF                     syscall    TESetText, auto_pop
000034BA  ADD0                     syscall    TECalText, auto_pop
000034BC  ADD1                     syscall    TESetSelect, auto_pop
000034BE  ADD2                     syscall    TENew, auto_pop
000034C0  ADD3                     syscall    TEUpdate, auto_pop
000034C2  ADD4                     syscall    TEClick, auto_pop
fn000034C4:
000034C4  ADD5                     syscall    TECopy, auto_pop
fn000034C6:
000034C6  ADD6                     syscall    TECut, auto_pop
fn000034C8:
000034C8  ADD7                     syscall    TEDelete, auto_pop
000034CA  ADD8                     syscall    TEActivate, auto_pop
000034CC  ADD9                     syscall    TEDeactivate, auto_pop
fn000034CE:
000034CE  ADDA                     syscall    TEIdle, auto_pop
fn000034D0:
000034D0  ADDB                     syscall    TEPaste, auto_pop
fn000034D2:
000034D2  ADDC                     syscall    TEKey, auto_pop
000034D4  ADDD                     syscall    TEScroll, auto_pop
000034D6  ADDE                     syscall    TEInsert, auto_pop
000034D8  ADDF                     syscall    TESetAlignment/TESetJust, auto_pop
000034DA  ADE0                     syscall    Munger, auto_pop
000034DC  ADE5                     syscall    InitPack, auto_pop
000034DE  ADE6                     syscall    InitAllPacks, auto_pop
000034E0  ADE7                     syscall    Pack0/ListManager, auto_pop
000034E2  ADE8                     syscall    Pack1, auto_pop
000034E4  ADE9                     syscall    Pack2, auto_pop
000034E6  ADEA                     syscall    Pack3, auto_pop
000034E8  ADEB                     syscall    Pack4/FP68K, auto_pop
000034EA  ADEC                     syscall    Pack5/Elems68K, auto_pop
000034EC  ADED                     syscall    Pack6, auto_pop
000034EE  ADEE                     syscall    Pack7/DecStr68K, auto_pop
000034F0  ADF0                     syscall    LoadSeg, auto_pop
export_101:
000034F2  ADF1                     syscall    UnloadSeg, auto_pop
000034F4  ADF2                     syscall    Launch/LaunchApplication, auto_pop
000034F6  ADF3                     syscall    Chain, auto_pop
fn000034F8:
000034F8  ADF4                     syscall    ExitToShell, auto_pop
000034FA  ADF5                     syscall    GetAppParms, auto_pop
000034FC  ADF6                     syscall    GetResFileAttrs, auto_pop
000034FE  ADF7                     syscall    SetResFileAttrs, auto_pop
00003500  ADF9                     syscall    InfoScrap, auto_pop
00003502  ADFA                     syscall    UnloadScrap/UnlodeScrap, auto_pop
00003504  ADFB                     syscall    LoadScrap/LodeScrap, auto_pop
00003506  ADFC                     syscall    ZeroScrap, auto_pop
00003508  ADFD                     syscall    GetScrap, auto_pop
0000350A  ADFE                     syscall    PutScrap, auto_pop
0000350C  0000 0000                ori.b      D0, 0x0
00003510  0000 0000                ori.b      D0, 0x0
00003514  A02C                     syscall    InitApplZone
00003516  4EBA 01AA                jsr        [PC + 0x1AA /* 000036C2 */]
0000351A  4E75                     rts
0000351C  4E56 0000                link       A6, 0
00003520  2F2E 0004                move.l     -[A7], [A6 + 0x4]
00003524  3F2E 0008                move.w     -[A7], [A6 + 0x8]
00003528  2F2E 000A                move.l     -[A7], [A6 + 0xA]
0000352C  2F3B E0F2                move.l     -[A7], [PC + A6.w - 0xE]
00003530  204F                     movea.l    A0, A7
00003532  A019                     syscall    InitZone
00003534  4EBA 018C                jsr        [PC + 0x18C /* 000036C2 */]
00003538  4E5E                     unlink     A6
0000353A  4E75                     rts
0000353C  225F                     movea.l    A1, [A7]+
0000353E  A11A                     syscall    GetZone, flags=1
00003540  2E88                     move.l     [A7], A0
00003542  4EBA 017E                jsr        [PC + 0x17E /* 000036C2 */]
00003546  4ED1                     jmp        [A1]
00003548  225F                     movea.l    A1, [A7]+
0000354A  205F                     movea.l    A0, [A7]+
0000354C  A01B                     syscall    SetZone
0000354E  4EBA 0172                jsr        [PC + 0x172 /* 000036C2 */]
00003552  4ED1                     jmp        [A1]
00003554  225F                     movea.l    A1, [A7]+
00003556  2EB8 02AA                move.l     [A7], [0x000002AA /* ApplZone */]
0000355A  7000                     moveq.l    D0, 0x00
0000355C  4EBA 0164                jsr        [PC + 0x164 /* 000036C2 */]
00003560  4ED1                     jmp        [A1]
00003562  225F                     movea.l    A1, [A7]+
00003564  2EB8 02AA                move.l     [A7], [0x000002AA /* ApplZone */]
00003568  7000                     moveq.l    D0, 0x00
0000356A  4EBA 0156                jsr        [PC + 0x156 /* 000036C2 */]
0000356E  4ED1                     jmp        [A1]
00003570  225F                     movea.l    A1, [A7]+
00003572  201F                     move.l     D0, [A7]+
00003574  A14C                     syscall    CompactMem, flags=1
00003576  2208                     move.l     D1, A0
00003578  205F                     movea.l    A0, [A7]+
0000357A  2081                     move.l     [A0], D1
0000357C  2E80                     move.l     [A7], D0
0000357E  2041                     movea.l    A0, D1
00003580  4EBA 0140                jsr        [PC + 0x140 /* 000036C2 */]
00003584  4ED1                     jmp        [A1]
00003586  225F                     movea.l    A1, [A7]+
00003588  201F                     move.l     D0, [A7]+
0000358A  A14D                     syscall    PurgeMem, flags=1
0000358C  2E88                     move.l     [A7], A0
0000358E  4EBA 0132                jsr        [PC + 0x132 /* 000036C2 */]
00003592  4ED1                     jmp        [A1]
00003594  A01C                     syscall    FreeMem
00003596  2E80                     move.l     [A7], D0
00003598  4EBA 0128                jsr        [PC + 0x128 /* 000036C2 */]
0000359C  4E75                     rts
0000359E  225F                     movea.l    A1, [A7]+
000035A0  A11D                     syscall    MaxMem, flags=1
000035A2  2208                     move.l     D1, A0
000035A4  205F                     movea.l    A0, [A7]+
000035A6  2081                     move.l     [A0], D1
000035A8  2E80                     move.l     [A7], D0
000035AA  2041                     movea.l    A0, D1
000035AC  4EBA 0114                jsr        [PC + 0x114 /* 000036C2 */]
000035B0  4ED1                     jmp        [A1]
000035B2  225F                     movea.l    A1, [A7]+
000035B4  2078 0108                movea.l    A0, [0x00000108 /* MemTop */]
000035B8  2E88                     move.l     [A7], A0
000035BA  7000                     moveq.l    D0, 0x00
000035BC  4EBA 0104                jsr        [PC + 0x104 /* 000036C2 */]
000035C0  4ED1                     jmp        [A1]
000035C2  225F                     movea.l    A1, [A7]+
000035C4  205F                     movea.l    A0, [A7]+
000035C6  A04B                     syscall    SetGrowZone
000035C8  4EBA 00F8                jsr        [PC + 0xF8 /* 000036C2 */]
000035CC  4ED1                     jmp        [A1]
000035CE  225F                     movea.l    A1, [A7]+
000035D0  205F                     movea.l    A0, [A7]+
000035D2  A02D                     syscall    SetApplLimit
000035D4  4EBA 00EC                jsr        [PC + 0xEC /* 000036C2 */]
000035D8  4ED1                     jmp        [A1]
000035DA  A040                     syscall    ResrvMem/ReserveMem
000035DC  4EBA 00E4                jsr        [PC + 0xE4 /* 000036C2 */]
000035E0  4E75                     rts
000035E2  225F                     movea.l    A1, [A7]+
000035E4  201F                     move.l     D0, [A7]+
000035E6  A11E                     syscall    NewPtr, flags=1
000035E8  2E88                     move.l     [A7], A0
000035EA  4EBA 00D6                jsr        [PC + 0xD6 /* 000036C2 */]
000035EE  4ED1                     jmp        [A1]
000035F0  225F                     movea.l    A1, [A7]+
000035F2  205F                     movea.l    A0, [A7]+
000035F4  A01F                     syscall    DisposPtr/DisposePtr
000035F6  4EBA 00CA                jsr        [PC + 0xCA /* 000036C2 */]
000035FA  4ED1                     jmp        [A1]
000035FC  225F                     movea.l    A1, [A7]+
000035FE  205F                     movea.l    A0, [A7]+
00003600  A021                     syscall    GetPtrSize
00003602  2E80                     move.l     [A7], D0
00003604  4EBA 00BC                jsr        [PC + 0xBC /* 000036C2 */]
00003608  4ED1                     jmp        [A1]
0000360A  225F                     movea.l    A1, [A7]+
0000360C  201F                     move.l     D0, [A7]+
0000360E  205F                     movea.l    A0, [A7]+
00003610  A020                     syscall    SetPtrSize
00003612  4EBA 00AE                jsr        [PC + 0xAE /* 000036C2 */]
00003616  4ED1                     jmp        [A1]
00003618  225F                     movea.l    A1, [A7]+
0000361A  205F                     movea.l    A0, [A7]+
0000361C  A148                     syscall    PtrZone, flags=1
0000361E  2E88                     move.l     [A7], A0
00003620  4EBA 00A0                jsr        [PC + 0xA0 /* 000036C2 */]
00003624  4ED1                     jmp        [A1]
00003626  225F                     movea.l    A1, [A7]+
00003628  201F                     move.l     D0, [A7]+
0000362A  A122                     syscall    NewHandle, flags=1
0000362C  2E88                     move.l     [A7], A0
0000362E  4EBA 0092                jsr        [PC + 0x92 /* 000036C2 */]
00003632  4ED1                     jmp        [A1]
00003634  225F                     movea.l    A1, [A7]+
00003636  205F                     movea.l    A0, [A7]+
00003638  A023                     syscall    DisposHandle/DisposeHandle
0000363A  4EBA 0086                jsr        [PC + 0x86 /* 000036C2 */]
0000363E  4ED1                     jmp        [A1]
00003640  225F                     movea.l    A1, [A7]+
00003642  205F                     movea.l    A0, [A7]+
00003644  A025                     syscall    GetHandleSize
00003646  2E80                     move.l     [A7], D0
00003648  4EBA 0078                jsr        [PC + 0x78 /* 000036C2 */]
0000364C  4ED1                     jmp        [A1]
0000364E  225F                     movea.l    A1, [A7]+
00003650  201F                     move.l     D0, [A7]+
00003652  205F                     movea.l    A0, [A7]+
00003654  A024                     syscall    SetHandleSize
00003656  4EBA 006A                jsr        [PC + 0x6A /* 000036C2 */]
0000365A  4ED1                     jmp        [A1]
0000365C  225F                     movea.l    A1, [A7]+
0000365E  205F                     movea.l    A0, [A7]+
00003660  A126                     syscall    HandleZone, flags=1
00003662  2E88                     move.l     [A7], A0
00003664  4EBA 005C                jsr        [PC + 0x5C /* 000036C2 */]
00003668  4ED1                     jmp        [A1]
0000366A  225F                     movea.l    A1, [A7]+
0000366C  205F                     movea.l    A0, [A7]+
0000366E  A128                     syscall    RecoverHandle, flags=1
00003670  2E88                     move.l     [A7], A0
00003672  4EBA 004E                jsr        [PC + 0x4E /* 000036C2 */]
00003676  4ED1                     jmp        [A1]
00003678  225F                     movea.l    A1, [A7]+
0000367A  205F                     movea.l    A0, [A7]+
0000367C  A02B                     syscall    EmptyHandle
0000367E  4EBA 0042                jsr        [PC + 0x42 /* 000036C2 */]
00003682  4ED1                     jmp        [A1]
00003684  225F                     movea.l    A1, [A7]+
00003686  201F                     move.l     D0, [A7]+
00003688  205F                     movea.l    A0, [A7]+
0000368A  A027                     syscall    ReallocateHandle
0000368C  4EBA 0034                jsr        [PC + 0x34 /* 000036C2 */]
00003690  4ED1                     jmp        [A1]
00003692  225F                     movea.l    A1, [A7]+
00003694  205F                     movea.l    A0, [A7]+
00003696  A029                     syscall    HLock
00003698  4EBA 0028                jsr        [PC + 0x28 /* 000036C2 */]
0000369C  4ED1                     jmp        [A1]
0000369E  225F                     movea.l    A1, [A7]+
000036A0  205F                     movea.l    A0, [A7]+
000036A2  A02A                     syscall    HUnlock
000036A4  4EBA 001C                jsr        [PC + 0x1C /* 000036C2 */]
000036A8  4ED1                     jmp        [A1]
000036AA  225F                     movea.l    A1, [A7]+
000036AC  205F                     movea.l    A0, [A7]+
000036AE  A049                     syscall    HPurge
000036B0  4EBA 0010                jsr        [PC + 0x10 /* 000036C2 */]
000036B4  4ED1                     jmp        [A1]
000036B6  225F                     movea.l    A1, [A7]+
000036B8  205F                     movea.l    A0, [A7]+
000036BA  A04A                     syscall    HNoPurge
000036BC  4EBA 0004                jsr        [PC + 0x4 /* 000036C2 */]
000036C0  4ED1                     jmp        [A1]
fn000036C2:
000036C2  2F09                     move.l     -[A7], A1
000036C4  43FA FE4A                lea.l      A1, [PC - 0x1B6 /* 00003510, value 0x0, cstring "" */]
000036C8  2288                     move.l     [A1], A0
000036CA  43FA FE40                lea.l      A1, [PC - 0x1C0 /* 0000350C, value 0x0, cstring "" */]
000036CE  2280                     move.l     [A1], D0
000036D0  225F                     movea.l    A1, [A7]+
000036D2  4E75                     rts
000036D4  225F                     movea.l    A1, [A7]+
000036D6  2EBA FE34                move.l     [A7], [PC - 0x1CC /* 0000350C, value 0x0, cstring "" */]
000036DA  4ED1                     jmp        [A1]
000036DC  225F                     movea.l    A1, [A7]+
000036DE  2EBA FE30                move.l     [A7], [PC - 0x1D0 /* 00003510, value 0x0, cstring "" */]
000036E2  4ED1                     jmp        [A1]
000036E4  9EFC 001E                sub.w      A7, 0x1E
000036E8  42AF 0012                clr.l      [A7 + 0x12]
000036EC  426F 0016                clr.w      [A7 + 0x16]
000036F0  204F                     movea.l    A0, A7
000036F2  A013                     syscall    FlushVol
000036F4  DEFC 001E                add.w      A7, 0x1E
000036F8  4E75                     rts
000036FA  225F                     movea.l    A1, [A7]+
000036FC  201F                     move.l     D0, [A7]+
000036FE  305F                     movea.w    A0, [A7]+
00003700  2F09                     move.l     -[A7], A1
00003702  A02F                     syscall    PostEvent/PPostEvent
00003704  4E75                     rts
00003706  225F                     movea.l    A1, [A7]+
00003708  201F                     move.l     D0, [A7]+
0000370A  2F09                     move.l     -[A7], A1
0000370C  A032                     syscall    FlushEvents
0000370E  4E75                     rts
00003710  225F                     movea.l    A1, [A7]+
00003712  31DF 0144                move.w     [0x00000144 /* SysEvtMask */], [A7]+
00003716  4ED1                     jmp        [A1]
00003718  203C 0000 FFFF           move.l     D0, 0xFFFF
0000371E  A032                     syscall    FlushEvents
00003720  4E75                     rts
00003722  2F78 016A 0004           move.l     [A7 + 0x4], [0x0000016A /* Ticks */]
00003728  4E75                     rts
0000372A  302F 0004                move.w     D0, [A7 + 0x4]
0000372E  206F 0006                movea.l    A0, [A7 + 0x6]
00003732  A03D                     syscall    DrvrInstall
00003734  205F                     movea.l    A0, [A7]+
00003736  5C4F                     addq.w     A7, 6
00003738  4ED0                     jmp        [A0]
0000373A  206F 0004                movea.l    A0, [A7 + 0x4]
0000373E  426F 0008                clr.w      [A7 + 0x8]
00003742  9EFC 0020                sub.w      A7, 0x20 /* ' ' */
00003746  2F48 0012                move.l     [A7 + 0x12], A0
0000374A  426F 0016                clr.w      [A7 + 0x16]
0000374E  426F 001A                clr.w      [A7 + 0x1A]
00003752  42AF 001C                clr.l      [A7 + 0x1C]
00003756  204F                     movea.l    A0, A7
00003758  A000                     syscall    Open/PBHOpen/HOpen
0000375A  6610                     bne        +0x12 /* 0000376C */
0000375C  302F 0018                move.w     D0, [A7 + 0x18]
label00003760:
00003760  DEFC 0020                add.w      A7, 0x20 /* ' ' */
00003764  3F40 0008                move.w     [A7 + 0x8], D0
00003768  2E9F                     move.l     [A7], [A7]+
0000376A  4E75                     rts
label0000376C:
0000376C  7000                     moveq.l    D0, 0x00
0000376E  60F0                     bra        -0xE /* 00003760 */
00003770  302F 0004                move.w     D0, [A7 + 0x4]
00003774  9EFC 001E                sub.w      A7, 0x1E
00003778  3F40 0018                move.w     [A7 + 0x18], D0
0000377C  204F                     movea.l    A0, A7
0000377E  A001                     syscall    Close
00003780  DEFC 001E                add.w      A7, 0x1E
00003784  205F                     movea.l    A0, [A7]+
00003786  544F                     addq.w     A7, 2
00003788  4ED0                     jmp        [A0]
0000378A  205F                     movea.l    A0, [A7]+
0000378C  201F                     move.l     D0, [A7]+
0000378E  2F08                     move.l     -[A7], A0
00003790  A03A                     syscall    SetDateTime
00003792  4E75                     rts
