# near model CODE resource
# jump table entries: 192-258 (67 of them)
export_55:
fn00000000:
00000000  4A6F EEE0                tst.w      [A7 - 0x1120]
00000004  4E56 FEE0                link       A6, -0x0120
00000008  48E7 0118                movem.l    -[A7], D7,A3,A4
0000000C  206E 0016                movea.l    A0, [A6 + 0x16]
00000010  43EE FF00                lea.l      A1, [A6 - 0x100]
00000014  4A10                     tst.b      [A0]
00000016  7040                     moveq.l    D0, 0x40
label00000018:
00000018  22D8                     move.l     [A1]+, [A0]+
0000001A  5340                     subq.w     D0, 1
0000001C  6EFA                     bgt        -0x4 /* 00000018 */
0000001E  206E 0008                movea.l    A0, [A6 + 0x8]
00000022  43EE FEF8                lea.l      A1, [A6 - 0x108]
00000026  4A10                     tst.b      [A0]
00000028  22D8                     move.l     [A1]+, [A0]+
0000002A  22D8                     move.l     [A1]+, [A0]+
0000002C  42A7                     clr.l      -[A7]
0000002E  4EAD 032A                jsr        [A5 + 0x32A /* export_97, CODE:3 @ 0000310A */]
00000032  285F                     movea.l    A4, [A7]+
00000034  200C                     move.l     D0, A4
00000036  6604                     bne        +0x6 /* 0000003C */
00000038  6000 00CC                bra        +0xCE /* 00000106 */
label0000003C:
0000003C  486E FEF4                pea.l      [A6 - 0x10C]
00000040  4EAD 04AA                jsr        [A5 + 0x4AA /* export_145, CODE:3 @ 0000322A */]
00000044  42A7                     clr.l      -[A7]
00000046  2F0C                     move.l     -[A7], A4
00000048  486E FEF8                pea.l      [A6 - 0x108]
0000004C  486E FF00                pea.l      [A6 - 0x100]
00000050  1F2E 000E                move.b     -[A7], [A6 + 0xE]
00000054  4267                     clr.w      -[A7]
00000056  70FF                     moveq.l    D0, 0xFFFFFFFF
00000058  2F00                     move.l     -[A7], D0
0000005A  1F3C 0001                move.b     -[A7], 0x1
0000005E  42A7                     clr.l      -[A7]
00000060  4EAD 0422                jsr        [A5 + 0x422 /* export_128, CODE:3 @ 00003356 */]
00000064  285F                     movea.l    A4, [A7]+
00000066  2F0C                     move.l     -[A7], A4
00000068  4EAD 036A                jsr        [A5 + 0x36A /* export_105, CODE:3 @ 00003228 */]
0000006C  4EAD 0362                jsr        [A5 + 0x362 /* export_104, CODE:3 @ 00002F20 */]
00000070  486E FEE8                pea.l      [A6 - 0x118]
00000074  4267                     clr.w      -[A7]
00000076  4267                     clr.w      -[A7]
00000078  4267                     clr.w      -[A7]
0000007A  4267                     clr.w      -[A7]
0000007C  4EAD 0392                jsr        [A5 + 0x392 /* export_110, CODE:3 @ 0000328A */]
00000080  486E FEE8                pea.l      [A6 - 0x118]
00000084  4EAD 05A2                jsr        [A5 + 0x5A2 /* export_176, CODE:3 @ 00003238 */]
00000088  102E 000C                move.b     D0, [A6 + 0xC]
0000008C  6748                     beq        +0x4A /* 000000D6 */
0000008E  42A7                     clr.l      -[A7]
00000090  2F0C                     move.l     -[A7], A4
00000092  486E FEF8                pea.l      [A6 - 0x108]
00000096  487A 007E                pea.l      [PC + 0x7E /* 00000116, value 0x4A6F 'Jo', cstring "" */]
0000009A  4267                     clr.w      -[A7]
0000009C  4267                     clr.w      -[A7]
0000009E  4267                     clr.w      -[A7]
000000A0  3F3C 0001                move.w     -[A7], 0x1
000000A4  3F3C 0010                move.w     -[A7], 0x10
000000A8  7002                     moveq.l    D0, 0x02
000000AA  2F00                     move.l     -[A7], D0
000000AC  4EAD 042A                jsr        [A5 + 0x42A /* export_129, CODE:3 @ 000033D4 */]
000000B0  2E1F                     move.l     D7, [A7]+
000000B2  42A7                     clr.l      -[A7]
000000B4  2F0C                     move.l     -[A7], A4
000000B6  486E FEF8                pea.l      [A6 - 0x108]
000000BA  487A 0058                pea.l      [PC + 0x58 /* 00000114, value 0x0, cstring "" */]
000000BE  4267                     clr.w      -[A7]
000000C0  4267                     clr.w      -[A7]
000000C2  4267                     clr.w      -[A7]
000000C4  3F3C 0001                move.w     -[A7], 0x1
000000C8  3F3C 0010                move.w     -[A7], 0x10
000000CC  7001                     moveq.l    D0, 0x01
000000CE  2F00                     move.l     -[A7], D0
000000D0  4EAD 042A                jsr        [A5 + 0x42A /* export_129, CODE:3 @ 000033D4 */]
000000D4  2E1F                     move.l     D7, [A7]+
label000000D6:
000000D6  264C                     movea.l    A3, A4
000000D8  376E 0014 006C           move.w     [A3 + 0x6C], [A6 + 0x14]
000000DE  276E 0010 0098           move.l     [A3 + 0x98], [A6 + 0x10]
000000E4  102E 000C                move.b     D0, [A6 + 0xC]
000000E8  6710                     beq        +0x12 /* 000000FA */
000000EA  2F0C                     move.l     -[A7], A4
000000EC  4EAD 04FA                jsr        [A5 + 0x4FA /* export_155, CODE:3 @ 0000269A */]
000000F0  2F0C                     move.l     -[A7], A4
000000F2  4EBA 0024                jsr        [PC + 0x24 /* 00000118 */]
000000F6  4EAD 058A                jsr        [A5 + 0x58A /* export_173, CODE:3 @ 000022C2 */]
label000000FA:
000000FA  2F2E FEF4                move.l     -[A7], [A6 - 0x10C]
000000FE  4EAD 036A                jsr        [A5 + 0x36A /* export_105, CODE:3 @ 00003228 */]
00000102  2D4C 001A                move.l     [A6 + 0x1A], A4
label00000106:
00000106  4CDF 1880                movem.l    D7,A3,A4, [A7]+
0000010A  4E5E                     unlink     A6
0000010C  205F                     movea.l    A0, [A7]+
0000010E  DEFC 0012                add.w      A7, 0x12
00000112  4ED0                     jmp        [A0]
00000114  0000 0000                ori.b      D0, 0x0
fn00000118:
00000118  4A6F EFF4                tst.w      [A7 - 0x100C]
0000011C  4E56 FFF4                link       A6, -0x000C
00000120  48E7 0318                movem.l    -[A7], D6,D7,A3,A4
00000124  266E 0008                movea.l    A3, [A6 + 0x8]
00000128  4267                     clr.w      -[A7]
0000012A  2F0B                     move.l     -[A7], A3
0000012C  4EAD 031A                jsr        [A5 + 0x31A /* export_95, CODE:3 @ 00001D0C */]
00000130  0C5F 0010                cmpi.w     [A7]+, 0x10
00000134  665E                     bne        +0x60 /* 00000194 */
00000136  2C0B                     move.l     D6, A3
00000138  2046                     movea.l    A0, D6
0000013A  2868 0098                movea.l    A4, [A0 + 0x98]
0000013E  4267                     clr.w      -[A7]
00000140  4EBA 005C                jsr        [PC + 0x5C /* 0000019E */]
00000144  2054                     movea.l    A0, [A4]
00000146  3028 000A                move.w     D0, [A0 + 0xA]
0000014A  48C0                     ext.l      D0
0000014C  81FC 0100                divs.w     D0, 0x100
00000150  0C40 0001                cmpi.w     D0, 0x1
00000154  6626                     bne        +0x28 /* 0000017C */
00000156  42A7                     clr.l      -[A7]
00000158  2F0B                     move.l     -[A7], A3
0000015A  4EAD 047A                jsr        [A5 + 0x47A /* export_139, CODE:3 @ 00002AAA */]
0000015E  2054                     movea.l    A0, [A4]
00000160  3F28 0036                move.w     -[A7], [A0 + 0x36]
00000164  4EAD 03AA                jsr        [A5 + 0x3AA /* export_113, CODE:3 @ 000033F2 */]
00000168  42A7                     clr.l      -[A7]
0000016A  2F0B                     move.l     -[A7], A3
0000016C  4EAD 0332                jsr        [A5 + 0x332 /* export_98, CODE:3 @ 000030F2 */]
00000170  2054                     movea.l    A0, [A4]
00000172  3F28 0034                move.w     -[A7], [A0 + 0x34]
00000176  4EAD 03AA                jsr        [A5 + 0x3AA /* export_113, CODE:3 @ 000033F2 */]
0000017A  6018                     bra        +0x1A /* 00000194 */
label0000017C:
0000017C  42A7                     clr.l      -[A7]
0000017E  2F0B                     move.l     -[A7], A3
00000180  4EAD 0332                jsr        [A5 + 0x332 /* export_98, CODE:3 @ 000030F2 */]
00000184  2E1F                     move.l     D7, [A7]+
00000186  2F07                     move.l     -[A7], D7
00000188  4267                     clr.w      -[A7]
0000018A  2F07                     move.l     -[A7], D7
0000018C  4EAD 04CA                jsr        [A5 + 0x4CA /* export_149, CODE:3 @ 000033EE */]
00000190  4EAD 03AA                jsr        [A5 + 0x3AA /* export_113, CODE:3 @ 000033F2 */]
label00000194:
00000194  4CDF 18C0                movem.l    D6,D7,A3,A4, [A7]+
00000198  4E5E                     unlink     A6
0000019A  2E9F                     move.l     [A7], [A7]+
0000019C  4E75                     rts
fn0000019E:
0000019E  4A6F EFD4                tst.w      [A7 - 0x102C]
000001A2  4E56 FFD4                link       A6, -0x002C
000001A6  48E7 0F18                movem.l    -[A7], D4,D5,D6,D7,A3,A4
000001AA  486E FFFC                pea.l      [A6 - 0x4]
000001AE  4EAD 04AA                jsr        [A5 + 0x4AA /* export_145, CODE:3 @ 0000322A */]
000001B2  4267                     clr.w      -[A7]
000001B4  2F2E FFFC                move.l     -[A7], [A6 - 0x4]
000001B8  4EAD 031A                jsr        [A5 + 0x31A /* export_95, CODE:3 @ 00001D0C */]
000001BC  0C5F 0010                cmpi.w     [A7]+, 0x10
000001C0  6600 01BC                bne        +0x1BE /* 0000037E */
000001C4  2D6E FFFC FFF8           move.l     [A6 - 0x8], [A6 - 0x4]
000001CA  206E FFF8                movea.l    A0, [A6 - 0x8]
000001CE  2C28 0098                move.l     D6, [A0 + 0x98]
000001D2  2046                     movea.l    A0, D6
000001D4  2050                     movea.l    A0, [A0]
000001D6  3028 000A                move.w     D0, [A0 + 0xA]
000001DA  48C0                     ext.l      D0
000001DC  81FC 0100                divs.w     D0, 0x100
000001E0  0C40 0001                cmpi.w     D0, 0x1
000001E4  57C0                     seq        D0
000001E6  4400                     neg.b      D0
000001E8  1A00                     move.b     D5, D0
000001EA  BCAD FE6C                cmp.l      D6, [A5 - 0x194]
000001EE  6604                     bne        +0x6 /* 000001F4 */
000001F0  6000 018C                bra        +0x18E /* 0000037E */
label000001F4:
000001F4  486E FFEA                pea.l      [A6 - 0x16]
000001F8  2F06                     move.l     -[A7], D6
000001FA  4EBA 1BEC                jsr        [PC + 0x1BEC /* 00001DE8 */]
000001FE  206E FFFC                movea.l    A0, [A6 - 0x4]
00000202  43EE FFE2                lea.l      A1, [A6 - 0x1E]
00000206  41E8 0010                lea.l      A0, [A0 + 0x10]
0000020A  22D8                     move.l     [A1]+, [A0]+
0000020C  22D8                     move.l     [A1]+, [A0]+
0000020E  2046                     movea.l    A0, D6
00000210  2850                     movea.l    A4, [A0]
00000212  41EC 002C                lea.l      A0, [A4 + 0x2C]
00000216  43EE FFE2                lea.l      A1, [A6 - 0x1E]
0000021A  20D9                     move.l     [A0]+, [A1]+
0000021C  20D9                     move.l     [A0]+, [A1]+
0000021E  486C 002C                pea.l      [A4 + 0x2C]
00000222  4EAD 0492                jsr        [A5 + 0x492 /* export_142, CODE:3 @ 000029AC */]
00000226  302E FFE8                move.w     D0, [A6 - 0x18]
0000022A  906E FFE4                sub.w      D0, [A6 - 0x1C]
0000022E  907C 000F                sub.w      D0, 0xF
00000232  3D40 FFDA                move.w     [A6 - 0x26], D0
00000236  302E FFE6                move.w     D0, [A6 - 0x1A]
0000023A  906E FFE2                sub.w      D0, [A6 - 0x1E]
0000023E  907C 0023                sub.w      D0, 0x23 /* '#' */
00000242  3D40 FFDC                move.w     [A6 - 0x24], D0
00000246  42A7                     clr.l      -[A7]
00000248  2F2E FFFC                move.l     -[A7], [A6 - 0x4]
0000024C  4EAD 0332                jsr        [A5 + 0x332 /* export_98, CODE:3 @ 000030F2 */]
00000250  265F                     movea.l    A3, [A7]+
00000252  4267                     clr.w      -[A7]
00000254  2F0B                     move.l     -[A7], A3
00000256  4EAD 04D2                jsr        [A5 + 0x4D2 /* export_150, CODE:3 @ 000033EC */]
0000025A  3E1F                     move.w     D7, [A7]+
0000025C  1005                     move.b     D0, D5
0000025E  670C                     beq        +0xE /* 0000026C */
00000260  302E FFEA                move.w     D0, [A6 - 0x16]
00000264  907C 000C                sub.w      D0, 0xC
00000268  3D40 FFEA                move.w     [A6 - 0x16], D0
label0000026C:
0000026C  BE6E FFEA                cmp.w      D7, [A6 - 0x16]
00000270  5DC0                     slt        D0
00000272  C02E 0008                and.b      D0, [A6 + 0x8]
00000276  6704                     beq        +0x6 /* 0000027C */
00000278  3D47 FFEA                move.w     [A6 - 0x16], D7
label0000027C:
0000027C  302E FFEE                move.w     D0, [A6 - 0x12]
00000280  906E FFDC                sub.w      D0, [A6 - 0x24]
00000284  3D40 FFEE                move.w     [A6 - 0x12], D0
00000288  BE6E FFEE                cmp.w      D7, [A6 - 0x12]
0000028C  5EC0                     sgt        D0
0000028E  C02E 0008                and.b      D0, [A6 + 0x8]
00000292  6704                     beq        +0x6 /* 00000298 */
00000294  3D47 FFEE                move.w     [A6 - 0x12], D7
label00000298:
00000298  302E FFEE                move.w     D0, [A6 - 0x12]
0000029C  B06E FFEA                cmp.w      D0, [A6 - 0x16]
000002A0  6C06                     bge        +0x8 /* 000002A8 */
000002A2  3D6E FFEA FFEE           move.w     [A6 - 0x12], [A6 - 0x16]
label000002A8:
000002A8  2005                     move.l     D0, D5
000002AA  0A00 0001                xori.b     D0, 0x1
000002AE  6722                     beq        +0x24 /* 000002D2 */
000002B0  302E FFEE                move.w     D0, [A6 - 0x12]
000002B4  48C0                     ext.l      D0
000002B6  81FC 0010                divs.w     D0, 0x10
000002BA  4840                     swap.w     D0
000002BC  4A40                     tst.w      D0
000002BE  3800                     move.w     D4, D0
000002C0  4A44                     tst.w      D4
000002C2  670E                     beq        +0x10 /* 000002D2 */
000002C4  302E FFEE                move.w     D0, [A6 - 0x12]
000002C8  D07C 0010                add.w      D0, 0x10
000002CC  9044                     sub.w      D0, D4
000002CE  3D40 FFEE                move.w     [A6 - 0x12], D0
label000002D2:
000002D2  2F0B                     move.l     -[A7], A3
000002D4  3F2E FFEE                move.w     -[A7], [A6 - 0x12]
000002D8  4EAD 03BA                jsr        [A5 + 0x3BA /* export_115, CODE:3 @ 000033F6 */]
000002DC  2F0B                     move.l     -[A7], A3
000002DE  3F2E FFEA                move.w     -[A7], [A6 - 0x16]
000002E2  4EAD 03B2                jsr        [A5 + 0x3B2 /* export_114, CODE:3 @ 000033F4 */]
000002E6  42A7                     clr.l      -[A7]
000002E8  2F2E FFFC                move.l     -[A7], [A6 - 0x4]
000002EC  4EAD 047A                jsr        [A5 + 0x47A /* export_139, CODE:3 @ 00002AAA */]
000002F0  265F                     movea.l    A3, [A7]+
000002F2  1005                     move.b     D0, D5
000002F4  676E                     beq        +0x70 /* 00000364 */
000002F6  2F0B                     move.l     -[A7], A3
000002F8  4267                     clr.w      -[A7]
000002FA  4EAD 0482                jsr        [A5 + 0x482 /* export_140, CODE:3 @ 000033E6 */]
000002FE  4267                     clr.w      -[A7]
00000300  2F0B                     move.l     -[A7], A3
00000302  4EAD 04D2                jsr        [A5 + 0x4D2 /* export_150, CODE:3 @ 000033EC */]
00000306  3E1F                     move.w     D7, [A7]+
00000308  302E FFEC                move.w     D0, [A6 - 0x14]
0000030C  5140                     subq.w     D0, 8
0000030E  3D40 FFEC                move.w     [A6 - 0x14], D0
00000312  BE6E FFEC                cmp.w      D7, [A6 - 0x14]
00000316  5DC0                     slt        D0
00000318  C02E 0008                and.b      D0, [A6 + 0x8]
0000031C  6704                     beq        +0x6 /* 00000322 */
0000031E  3D47 FFEC                move.w     [A6 - 0x14], D7
label00000322:
00000322  2F0B                     move.l     -[A7], A3
00000324  3F2E FFEC                move.w     -[A7], [A6 - 0x14]
00000328  4EAD 03B2                jsr        [A5 + 0x3B2 /* export_114, CODE:3 @ 000033F4 */]
0000032C  302E FFF0                move.w     D0, [A6 - 0x10]
00000330  906E FFDA                sub.w      D0, [A6 - 0x26]
00000334  3D40 FFF0                move.w     [A6 - 0x10], D0
00000338  BE6E FFF0                cmp.w      D7, [A6 - 0x10]
0000033C  5EC0                     sgt        D0
0000033E  C02E 0008                and.b      D0, [A6 + 0x8]
00000342  6704                     beq        +0x6 /* 00000348 */
00000344  3D47 FFF0                move.w     [A6 - 0x10], D7
label00000348:
00000348  302E FFF0                move.w     D0, [A6 - 0x10]
0000034C  B06E FFEC                cmp.w      D0, [A6 - 0x14]
00000350  6C06                     bge        +0x8 /* 00000358 */
00000352  3D6E FFEC FFF0           move.w     [A6 - 0x10], [A6 - 0x14]
label00000358:
00000358  2F0B                     move.l     -[A7], A3
0000035A  3F2E FFF0                move.w     -[A7], [A6 - 0x10]
0000035E  4EAD 03BA                jsr        [A5 + 0x3BA /* export_115, CODE:3 @ 000033F6 */]
00000362  601A                     bra        +0x1C /* 0000037E */
label00000364:
00000364  2F0B                     move.l     -[A7], A3
00000366  3F3C 00FF                move.w     -[A7], 0xFF
0000036A  4EAD 0482                jsr        [A5 + 0x482 /* export_140, CODE:3 @ 000033E6 */]
0000036E  2F0B                     move.l     -[A7], A3
00000370  4267                     clr.w      -[A7]
00000372  4EAD 03BA                jsr        [A5 + 0x3BA /* export_115, CODE:3 @ 000033F6 */]
00000376  2F0B                     move.l     -[A7], A3
00000378  4267                     clr.w      -[A7]
0000037A  4EAD 03B2                jsr        [A5 + 0x3B2 /* export_114, CODE:3 @ 000033F4 */]
label0000037E:
0000037E  4CDF 18F0                movem.l    D4,D5,D6,D7,A3,A4, [A7]+
00000382  4E5E                     unlink     A6
00000384  205F                     movea.l    A0, [A7]+
00000386  544F                     addq.w     A7, 2
00000388  4ED0                     jmp        [A0]
export_26:
fn0000038A:
0000038A  4A6F EFE2                tst.w      [A7 - 0x101E]
0000038E  4E56 FFE2                link       A6, -0x001E
00000392  48E7 0118                movem.l    -[A7], D7,A3,A4
00000396  286E 0008                movea.l    A4, [A6 + 0x8]
0000039A  486E FFF6                pea.l      [A6 - 0xA]
0000039E  4EAD 04AA                jsr        [A5 + 0x4AA /* export_145, CODE:3 @ 0000322A */]
000003A2  2F0C                     move.l     -[A7], A4
000003A4  4EAD 036A                jsr        [A5 + 0x36A /* export_105, CODE:3 @ 00003228 */]
000003A8  4267                     clr.w      -[A7]
000003AA  2F0C                     move.l     -[A7], A4
000003AC  4EAD 031A                jsr        [A5 + 0x31A /* export_95, CODE:3 @ 00001D0C */]
000003B0  3E1F                     move.w     D7, [A7]+
000003B2  4EAD 0582                jsr        [A5 + 0x582 /* export_172, CODE:3 @ 000022C6 */]
000003B6  42A7                     clr.l      -[A7]
000003B8  4EAD 04BA                jsr        [A5 + 0x4BA /* export_147, CODE:3 @ 00003378 */]
000003BC  B9DF                     cmpa.l     A4, [A7]+
000003BE  6608                     bne        +0xA /* 000003C8 */
000003C0  1F3C 0001                move.b     -[A7], 0x1
000003C4  4EBA FDD8                jsr        [PC - 0x228 /* 0000019E */]
label000003C8:
000003C8  2F0C                     move.l     -[A7], A4
000003CA  4EAD 05DA                jsr        [A5 + 0x5DA /* export_183, CODE:3 @ 00003374 */]
000003CE  41EE FFEE                lea.l      A0, [A6 - 0x12]
000003D2  43EC 0010                lea.l      A1, [A4 + 0x10]
000003D6  20D9                     move.l     [A0]+, [A1]+
000003D8  20D9                     move.l     [A0]+, [A1]+
000003DA  302E FFF2                move.w     D0, [A6 - 0xE]
000003DE  907C 0010                sub.w      D0, 0x10
000003E2  5240                     addq.w     D0, 1
000003E4  3D40 FFF2                move.w     [A6 - 0xE], D0
000003E8  486E FFEE                pea.l      [A6 - 0x12]
000003EC  4EAD 053A                jsr        [A5 + 0x53A /* export_163, CODE:3 @ 00003282 */]
000003F0  3007                     move.w     D0, D7
000003F2  5540                     subq.w     D0, 2
000003F4  6770                     beq        +0x72 /* 00000466 */
000003F6  0440 000E                subi.w     D0, 0xE
000003FA  6706                     beq        +0x8 /* 00000402 */
000003FC  5340                     subq.w     D0, 1
000003FE  6756                     beq        +0x58 /* 00000456 */
00000400  606A                     bra        +0x6C /* 0000046C */
label00000402:
00000402  42A7                     clr.l      -[A7]
00000404  2F0C                     move.l     -[A7], A4
00000406  4EAD 0302                jsr        [A5 + 0x302 /* export_92, CODE:3 @ 00001D2A */]
0000040A  265F                     movea.l    A3, [A7]+
0000040C  4EAD 058A                jsr        [A5 + 0x58A /* export_173, CODE:3 @ 000022C2 */]
00000410  206C 0018                movea.l    A0, [A4 + 0x18]
00000414  2050                     movea.l    A0, [A0]
00000416  43EE FFE6                lea.l      A1, [A6 - 0x1A]
0000041A  5488                     addq.l     A0, 2
0000041C  22D8                     move.l     [A1]+, [A0]+
0000041E  22D8                     move.l     [A1]+, [A0]+
00000420  486E FFE6                pea.l      [A6 - 0x1A]
00000424  2F0B                     move.l     -[A7], A3
00000426  4EBA 18F0                jsr        [PC + 0x18F0 /* 00001D18 */]
0000042A  4EAD 0582                jsr        [A5 + 0x582 /* export_172, CODE:3 @ 000022C6 */]
0000042E  B9ED FF14                cmpa.l     A4, [A5 - 0xEC]
00000432  671C                     beq        +0x1E /* 00000450 */
00000434  2F0B                     move.l     -[A7], A3
00000436  4EBA 1594                jsr        [PC + 0x1594 /* 000019CC */]
0000043A  2F0C                     move.l     -[A7], A4
0000043C  4EAD 056A                jsr        [A5 + 0x56A /* export_169, CODE:3 @ 0000244A */]
00000440  42A7                     clr.l      -[A7]
00000442  4EAD 04BA                jsr        [A5 + 0x4BA /* export_147, CODE:3 @ 00003378 */]
00000446  B9DF                     cmpa.l     A4, [A7]+
00000448  6606                     bne        +0x8 /* 00000450 */
0000044A  2F0C                     move.l     -[A7], A4
0000044C  4EAD 057A                jsr        [A5 + 0x57A /* export_171, CODE:3 @ 000033FE */]
label00000450:
00000450  4EAD 058A                jsr        [A5 + 0x58A /* export_173, CODE:3 @ 000022C2 */]
00000454  6016                     bra        +0x18 /* 0000046C */
label00000456:
00000456  2F0C                     move.l     -[A7], A4
00000458  4EAD 056A                jsr        [A5 + 0x56A /* export_169, CODE:3 @ 0000244A */]
0000045C  4EAD 058A                jsr        [A5 + 0x58A /* export_173, CODE:3 @ 000022C2 */]
00000460  4EAD 055A                jsr        [A5 + 0x55A /* export_167, CODE:3 @ 0000247E */]
00000464  6006                     bra        +0x8 /* 0000046C */
label00000466:
00000466  2F0C                     move.l     -[A7], A4
00000468  4EAD 0562                jsr        [A5 + 0x562 /* export_168, CODE:3 @ 00003422 */]
label0000046C:
0000046C  2F0C                     move.l     -[A7], A4
0000046E  4EAD 0542                jsr        [A5 + 0x542 /* export_164, CODE:3 @ 00003376 */]
00000472  2F2E FFF6                move.l     -[A7], [A6 - 0xA]
00000476  4EAD 036A                jsr        [A5 + 0x36A /* export_105, CODE:3 @ 00003228 */]
0000047A  4CDF 1880                movem.l    D7,A3,A4, [A7]+
0000047E  4E5E                     unlink     A6
00000480  2E9F                     move.l     [A7], [A7]+
00000482  4E75                     rts
fn00000484:
00000484  4A6F EECC                tst.w      [A7 - 0x1134]
00000488  4E56 FECC                link       A6, -0x0134
0000048C  48E7 0F18                movem.l    -[A7], D4,D5,D6,D7,A3,A4
00000490  266E 0008                movea.l    A3, [A6 + 0x8]
00000494  486E FED8                pea.l      [A6 - 0x128]
00000498  4EAD 04AA                jsr        [A5 + 0x4AA /* export_145, CODE:3 @ 0000322A */]
0000049C  2853                     movea.l    A4, [A3]
0000049E  41EE FFEC                lea.l      A0, [A6 - 0x14]
000004A2  43EC 002C                lea.l      A1, [A4 + 0x2C]
000004A6  20D9                     move.l     [A0]+, [A1]+
000004A8  20D9                     move.l     [A0]+, [A1]+
000004AA  486E FEE4                pea.l      [A6 - 0x11C]
000004AE  2F0B                     move.l     -[A7], A3
000004B0  4EBA 1E42                jsr        [PC + 0x1E42 /* 000022F4 */]
000004B4  42A7                     clr.l      -[A7]
000004B6  486E FEE4                pea.l      [A6 - 0x11C]
000004BA  3F3C 0010                move.w     -[A7], 0x10
000004BE  2F0B                     move.l     -[A7], A3
000004C0  4267                     clr.w      -[A7]
000004C2  1F3C 0001                move.b     -[A7], 0x1
000004C6  486E FFEC                pea.l      [A6 - 0x14]
000004CA  4EBA FB34                jsr        [PC - 0x4CC /* 00000000 */]
000004CE  2E1F                     move.l     D7, [A7]+
000004D0  4A87                     tst.l      D7
000004D2  6700 00A0                beq        +0xA2 /* 00000574 */
000004D6  2053                     movea.l    A0, [A3]
000004D8  4868 000A                pea.l      [A0 + 0xA]
000004DC  3F3C 0080                move.w     -[A7], 0x80
000004E0  4EAD 03C2                jsr        [A5 + 0x3C2 /* export_116, CODE:3 @ 00001C08 */]
000004E4  42A7                     clr.l      -[A7]
000004E6  2F0B                     move.l     -[A7], A3
000004E8  4EBA 1C40                jsr        [PC + 0x1C40 /* 0000212A */]
000004EC  2C1F                     move.l     D6, [A7]+
000004EE  2F06                     move.l     -[A7], D6
000004F0  4EBA 3A2A                jsr        [PC + 0x3A2A /* 00003F1C */]
000004F4  4267                     clr.w      -[A7]
000004F6  2F0B                     move.l     -[A7], A3
000004F8  4EBA 4360                jsr        [PC + 0x4360 /* 0000485A */]
000004FC  101F                     move.b     D0, [A7]+
000004FE  6726                     beq        +0x28 /* 00000526 */
00000500  2053                     movea.l    A0, [A3]
00000502  2A28 000E                move.l     D5, [A0 + 0xE]
00000506  2045                     movea.l    A0, D5
00000508  2050                     movea.l    A0, [A0]
0000050A  3028 000A                move.w     D0, [A0 + 0xA]
0000050E  48C0                     ext.l      D0
00000510  81FC 0100                divs.w     D0, 0x100
00000514  0C40 0001                cmpi.w     D0, 0x1
00000518  660C                     bne        +0xE /* 00000526 */
0000051A  2F0B                     move.l     -[A7], A3
0000051C  4EBA 1662                jsr        [PC + 0x1662 /* 00001B80 */]
00000520  2F0B                     move.l     -[A7], A3
00000522  4EBA 2062                jsr        [PC + 0x2062 /* 00002586 */]
label00000526:
00000526  102E 000C                move.b     D0, [A6 + 0xC]
0000052A  6726                     beq        +0x28 /* 00000552 */
0000052C  486E FFE4                pea.l      [A6 - 0x1C]
00000530  486E FFF4                pea.l      [A6 - 0xC]
00000534  2F06                     move.l     -[A7], D6
00000536  4EBA 368E                jsr        [PC + 0x368E /* 00003BC6 */]
0000053A  486E FFE4                pea.l      [A6 - 0x1C]
0000053E  4EAD 0492                jsr        [A5 + 0x492 /* export_142, CODE:3 @ 000029AC */]
00000542  486E FFE4                pea.l      [A6 - 0x1C]
00000546  486E FFEC                pea.l      [A6 - 0x14]
0000054A  1F3C 0001                move.b     -[A7], 0x1
0000054E  4EAD 04F2                jsr        [A5 + 0x4F2 /* export_154, CODE:3 @ 00001B70 */]
label00000552:
00000552  2F07                     move.l     -[A7], D7
00000554  4EAD 037A                jsr        [A5 + 0x37A /* export_107, CODE:3 @ 0000335A */]
00000558  2053                     movea.l    A0, [A3]
0000055A  2147 0028                move.l     [A0 + 0x28], D7
0000055E  2053                     movea.l    A0, [A3]
00000560  3028 000A                move.w     D0, [A0 + 0xA]
00000564  48C0                     ext.l      D0
00000566  81FC 0100                divs.w     D0, 0x100
0000056A  3800                     move.w     D4, D0
0000056C  3F04                     move.w     -[A7], D4
0000056E  2F0B                     move.l     -[A7], A3
00000570  4EBA 3DD2                jsr        [PC + 0x3DD2 /* 00004344 */]
label00000574:
00000574  4CDF 18F0                movem.l    D4,D5,D6,D7,A3,A4, [A7]+
00000578  4E5E                     unlink     A6
0000057A  205F                     movea.l    A0, [A7]+
0000057C  5C4F                     addq.w     A7, 6
0000057E  4ED0                     jmp        [A0]
fn00000580:
00000580  205F                     movea.l    A0, [A7]+
00000582  4E56 FFF6                link       A6, -0x000A
00000586  48E7 3F38                movem.l    -[A7], D2,D3,D4,D5,D6,D7,A2,A3,A4
0000058A  2F08                     move.l     -[A7], A0
0000058C  6018                     bra        +0x1A /* 000005A6 */
fn0000058E:
0000058E  205F                     movea.l    A0, [A7]+
00000590  4E56 FE82                link       A6, -0x017E
00000594  48E7 3F38                movem.l    -[A7], D2,D3,D4,D5,D6,D7,A2,A3,A4
00000598  2F08                     move.l     -[A7], A0
0000059A  41EE FFA6                lea.l      A0, [A6 - 0x5A]
0000059E  7013                     moveq.l    D0, 0x13
label000005A0:
000005A0  4298                     clr.l      [A0]+
000005A2  51C8 FFFC                dbf        D0, -0x6 /* 000005A0 */
label000005A6:
000005A6  286E 0008                movea.l    A4, [A6 + 0x8]
000005AA  6134                     bsr        +0x36 /* 000005E0 */
000005AC  0C53 0000                cmpi.w     [A3], 0x0
000005B0  670A                     beq        +0xC /* 000005BC */
000005B2  45EB 003A                lea.l      A2, [A3 + 0x3A]
000005B6  3C2B 0038                move.w     D6, [A3 + 0x38]
000005BA  4E75                     rts
label000005BC:
000005BC  7C00                     moveq.l    D6, 0x00
000005BE  4E75                     rts
label000005C0:
000005C0  4AAE FFFC                tst.l      [A6 - 0x4]
000005C4  6B08                     bmi        +0xA /* 000005CE */
000005C6  286E 0008                movea.l    A4, [A6 + 0x8]
000005CA  0894 0007                bclr.b     [A4], 0x7
label000005CE:
000005CE  31EE FFFA 0A5A           move.w     [0x00000A5A /* CurMap */], [A6 - 0x6]
000005D4  4CDF 1CFC                movem.l    D2,D3,D4,D5,D6,D7,A2,A3,A4, [A7]+
000005D8  4E5E                     unlink     A6
label000005DA:
000005DA  205F                     movea.l    A0, [A7]+
000005DC  DEC0                     add.w      A7, D0
000005DE  4ED0                     jmp        [A0]
fn000005E0:
000005E0  2654                     movea.l    A3, [A4]
000005E2  2D4B FFFC                move.l     [A6 - 0x4], A3
000005E6  08D4 0007                bset.b     [A4], 0x7
000005EA  3D78 0A5A FFFA           move.w     [A6 - 0x6], [0x00000A5A /* CurMap */]
000005F0  302B 0024                move.w     D0, [A3 + 0x24]
000005F4  B06D FE5A                cmp.w      D0, [A5 - 0x1A6]
000005F8  6604                     bne        +0x6 /* 000005FE */
000005FA  302D FE5C                move.w     D0, [A5 - 0x1A4]
label000005FE:
000005FE  31C0 0A5A                move.w     [0x00000A5A /* CurMap */], D0
00000602  4E75                     rts
fn00000604:
00000604  205F                     movea.l    A0, [A7]+
00000606  4E56 FE82                link       A6, -0x017E
0000060A  48E7 3F38                movem.l    -[A7], D2,D3,D4,D5,D6,D7,A2,A3,A4
0000060E  2448                     movea.l    A2, A0
00000610  594F                     subq.w     A7, 4
00000612  2F0F                     move.l     -[A7], A7
00000614  A874                     syscall    GetPort
00000616  3D78 0A5A FFFA           move.w     [A6 - 0x6], [0x00000A5A /* CurMap */]
0000061C  2F0A                     move.l     -[A7], A2
0000061E  4A2D FE26                tst.b      [A5 - 0x1DA]
00000622  670C                     beq        +0xE /* 00000630 */
00000624  286D FE28                movea.l    A4, [A5 - 0x1D8]
00000628  61B6                     bsr        -0x48 /* 000005E0 */
0000062A  2F0C                     move.l     -[A7], A4
0000062C  6100 38EE                bsr        +0x38F0 /* 00003F1C */
label00000630:
00000630  4E75                     rts
label00000632:
00000632  A873                     syscall    SetPort
00000634  4A2D FE26                tst.b      [A5 - 0x1DA]
00000638  6794                     beq        -0x6A /* 000005CE */
0000063A  4AAE FFFC                tst.l      [A6 - 0x4]
0000063E  6B8E                     bmi        -0x70 /* 000005CE */
00000640  286D FE28                movea.l    A4, [A5 - 0x1D8]
00000644  0894 0007                bclr.b     [A4], 0x7
00000648  6084                     bra        -0x7A /* 000005CE */
0000064A  0000 6100                ori.b      D0, 0x0
// begin alternate branch 0000064C-00000650
fn0000064C:
0000064C  6100 FF40                bsr        -0xBE /* 0000058E */
// end alternate branch 0000064C-00000650
fn0000064C: // (misaligned)
0000064E  FF40                     .extension 0xF40 <<F/4-5/7>> // unimplemented
00000650  246E 000C                movea.l    A2, [A6 + 0xC]
00000654  554F                     subq.w     A7, 2
00000656  2F2D FE68                move.l     -[A7], [A5 - 0x198]
0000065A  2F0A                     move.l     -[A7], A2
0000065C  6100 2034                bsr        +0x2036 /* 00002692 */
00000660  161F                     move.b     D3, [A7]+
00000662  554F                     subq.w     A7, 2
00000664  51E7                     sf         -[A7]
00000666  2F0C                     move.l     -[A7], A4
00000668  6100 1C28                bsr        +0x1C2A /* 00002292 */
0000066C  3C1F                     move.w     D6, [A7]+
0000066E  4A2E 0010                tst.b      [A6 + 0x10]
00000672  6622                     bne        +0x24 /* 00000696 */
00000674  B5ED FE6C                cmpa.l     A2, [A5 - 0x194]
00000678  6700 0082                beq        +0x84 /* 000006FC */
0000067C  B5EB 000E                cmpa.l     A2, [A3 + 0xE]
00000680  6700 007A                beq        +0x7C /* 000006FC */
00000684  554F                     subq.w     A7, 2
00000686  2F0C                     move.l     -[A7], A4
00000688  2F0A                     move.l     -[A7], A2
0000068A  6100 2006                bsr        +0x2008 /* 00002692 */
0000068E  7E30                     moveq.l    D7, 0x30
00000690  4A1F                     tst.b      [A7]+
00000692  6600 006A                bne        +0x6C /* 000006FE */
label00000696:
00000696  4A03                     tst.b      D3
00000698  6744                     beq        +0x46 /* 000006DE */
0000069A  7E5E                     moveq.l    D7, 0x5E
0000069C  0806 0007                btst.b     D6, 0x7
000006A0  665C                     bne        +0x5E /* 000006FE */
000006A2  0806 0002                btst.b     D6, 0x2
000006A6  6656                     bne        +0x58 /* 000006FE */
000006A8  7E9F                     moveq.l    D7, 0xFFFFFF9F
000006AA  0806 0004                btst.b     D6, 0x4
000006AE  664E                     bne        +0x50 /* 000006FE */
000006B0  554F                     subq.w     A7, 2
000006B2  51E7                     sf         -[A7]
000006B4  2F0C                     move.l     -[A7], A4
000006B6  6100 1BA4                bsr        +0x1BA6 /* 0000225C */
000006BA  301F                     move.w     D0, [A7]+
000006BC  7E62                     moveq.l    D7, 0x62
000006BE  0800 0007                btst.b     D0, 0x7
000006C2  663A                     bne        +0x3C /* 000006FE */
000006C4  554F                     subq.w     A7, 2
000006C6  51E7                     sf         -[A7]
000006C8  594F                     subq.w     A7, 4
000006CA  2F0C                     move.l     -[A7], A4
000006CC  6100 10E2                bsr        +0x10E4 /* 000017B0 */
000006D0  6100 1BC0                bsr        +0x1BC2 /* 00002292 */
000006D4  301F                     move.w     D0, [A7]+
000006D6  7E62                     moveq.l    D7, 0x62
000006D8  0800 0007                btst.b     D0, 0x7
000006DC  6620                     bne        +0x22 /* 000006FE */
label000006DE:
000006DE  3813                     move.w     D4, [A3]
000006E0  6620                     bne        +0x22 /* 00000702 */
000006E2  7E5C                     moveq.l    D7, 0x5C
000006E4  0806 0003                btst.b     D6, 0x3
000006E8  6614                     bne        +0x16 /* 000006FE */
000006EA  4A03                     tst.b      D3
000006EC  670E                     beq        +0x10 /* 000006FC */
000006EE  7EA0                     moveq.l    D7, 0xFFFFFFA0
000006F0  202B 0028                move.l     D0, [A3 + 0x28]
000006F4  0C80 4150 504C           cmpi.l     D0, 0x4150504C /* 'APPL' */
000006FA  6702                     beq        +0x4 /* 000006FE */
label000006FC:
000006FC  7E00                     moveq.l    D7, 0x00
label000006FE:
000006FE  6000 00A8                bra        +0xAA /* 000007A8 */
label00000702:
00000702  0C44 0008                cmpi.w     D4, 0x8
00000706  6646                     bne        +0x48 /* 0000074E */
00000708  554F                     subq.w     A7, 2
0000070A  50E7                     st         -[A7]
0000070C  2F0C                     move.l     -[A7], A4
0000070E  6100 1B82                bsr        +0x1B84 /* 00002292 */
00000712  341F                     move.w     D2, [A7]+
00000714  7E5B                     moveq.l    D7, 0x5B
00000716  0802 0003                btst.b     D2, 0x3
0000071A  6600 008C                bne        +0x8E /* 000007A8 */
0000071E  4A03                     tst.b      D3
00000720  67DA                     beq        -0x24 /* 000006FC */
00000722  7E5D                     moveq.l    D7, 0x5D
00000724  0802 0007                btst.b     D2, 0x7
00000728  66D4                     bne        -0x2A /* 000006FE */
0000072A  0802 0002                btst.b     D2, 0x2
0000072E  66CE                     bne        -0x30 /* 000006FE */
00000730  7E9D                     moveq.l    D7, 0xFFFFFF9D
00000732  0802 0004                btst.b     D2, 0x4
00000736  66C6                     bne        -0x38 /* 000006FE */
00000738  554F                     subq.w     A7, 2
0000073A  2F3C 4150 504C           move.l     -[A7], 0x4150504C /* 'APPL' */
00000740  2F0C                     move.l     -[A7], A4
00000742  6100 0E0A                bsr        +0xE0C /* 0000154E */
00000746  7EA1                     moveq.l    D7, 0xFFFFFFA1
00000748  4A5F                     tst.w      [A7]+
0000074A  66B2                     bne        -0x4C /* 000006FE */
0000074C  60AE                     bra        -0x50 /* 000006FC */
label0000074E:
0000074E  0C44 0004                cmpi.w     D4, 0x4
00000752  6646                     bne        +0x48 /* 0000079A */
00000754  4A03                     tst.b      D3
00000756  6742                     beq        +0x44 /* 0000079A */
00000758  082B 0002 000B           btst.b     [A3 + 0xB], 0x2
0000075E  6742                     beq        +0x44 /* 000007A2 */
00000760  362B 0022                move.w     D3, [A3 + 0x22]
00000764  B678 0210                cmp.w      D3, [0x00000210 /* BootDrive */]
00000768  660A                     bne        +0xC /* 00000774 */
0000076A  3F3C 0064                move.w     -[A7], 0x64 /* 'd' */
0000076E  4EAD 0532                jsr        [A5 + 0x532 /* export_162, CODE:3 @ 00002640 */]
00000772  602E                     bra        +0x30 /* 000007A2 */
label00000774:
00000774  6100 03FE                bsr        +0x400 /* 00000B74 */
00000778  2654                     movea.l    A3, [A4]
0000077A  08EB 0007 0027           bset.b     [A3 + 0x27], 0x7
00000780  2F0C                     move.l     -[A7], A4
00000782  6100 0C60                bsr        +0xC62 /* 000013E4 */
00000786  6100 3FA2                bsr        +0x3FA4 /* 0000472A */
0000078A  41EE FFA6                lea.l      A0, [A6 - 0x5A]
0000078E  42A8 0012                clr.l      [A0 + 0x12]
00000792  3143 0016                move.w     [A0 + 0x16], D3
00000796  A00E                     syscall    UnmountVol/HUnmountVol
00000798  600C                     bra        +0xE /* 000007A6 */
label0000079A:
0000079A  B5ED FE6C                cmpa.l     A2, [A5 - 0x194]
0000079E  6700 FF5C                beq        -0xA2 /* 000006FC */
label000007A2:
000007A2  7EFF                     moveq.l    D7, 0xFFFFFFFF
000007A4  6002                     bra        +0x4 /* 000007A8 */
label000007A6:
000007A6  7EFE                     moveq.l    D7, 0xFFFFFFFE
label000007A8:
000007A8  3D47 0012                move.w     [A6 + 0x12], D7
000007AC  6000 379E                bra        +0x37A0 /* 00003F4C */
export_69:
fn000007B0:
000007B0  6100 FDCE                bsr        -0x230 /* 00000580 */
000007B4  594F                     subq.w     A7, 4
000007B6  2F0C                     move.l     -[A7], A4
000007B8  6100 1954                bsr        +0x1956 /* 0000210E */
000007BC  285F                     movea.l    A4, [A7]+
000007BE  2654                     movea.l    A3, [A4]
000007C0  B9ED FE6C                cmpa.l     A4, [A5 - 0x194]
000007C4  6706                     beq        +0x8 /* 000007CC */
000007C6  2F2B 0028                move.l     -[A7], [A3 + 0x28]
000007CA  A91F                     syscall    SelectWindow
label000007CC:
000007CC  2F2B 0028                move.l     -[A7], [A3 + 0x28]
000007D0  A873                     syscall    SetPort
000007D2  4EAD 058A                jsr        [A5 + 0x58A /* export_173, CODE:3 @ 000022C2 */]
000007D6  6000 029C                bra        +0x29E /* 00000A74 */
export_90:
fn000007DA:
000007DA  4E56 FFF0                link       A6, -0x0010
000007DE  48E7 0038                movem.l    -[A7], A2,A3,A4
000007E2  286E 0008                movea.l    A4, [A6 + 0x8]
000007E6  2F0C                     move.l     -[A7], A4
000007E8  A873                     syscall    SetPort
000007EA  4EAD 0582                jsr        [A5 + 0x582 /* export_172, CODE:3 @ 000022C6 */]
000007EE  486E FFF8                pea.l      [A6 - 0x8]
000007F2  486E FFF0                pea.l      [A6 - 0x10]
000007F6  4EAD 04A2                jsr        [A5 + 0x4A2 /* export_144, CODE:3 @ 00002912 */]
000007FA  486E FFF8                pea.l      [A6 - 0x8]
000007FE  A928                     syscall    InvalRect
00000800  486E FFF0                pea.l      [A6 - 0x10]
00000804  A928                     syscall    InvalRect
00000806  4EAD 058A                jsr        [A5 + 0x58A /* export_173, CODE:3 @ 000022C2 */]
0000080A  4CDF 1C00                movem.l    A2,A3,A4, [A7]+
0000080E  4E5E                     unlink     A6
00000810  205F                     movea.l    A0, [A7]+
00000812  584F                     addq.w     A7, 4
00000814  4ED0                     jmp        [A0]
fn00000816:
00000816  6100 FD68                bsr        -0x296 /* 00000580 */
0000081A  554F                     subq.w     A7, 2
0000081C  2F0C                     move.l     -[A7], A4
0000081E  6100 1C36                bsr        +0x1C38 /* 00002456 */
00000822  4A1F                     tst.b      [A7]+
00000824  6706                     beq        +0x8 /* 0000082C */
00000826  08EB 0004 0026           bset.b     [A3 + 0x26], 0x4
label0000082C:
0000082C  302B 000C                move.w     D0, [A3 + 0xC]
00000830  6724                     beq        +0x26 /* 00000856 */
00000832  246D FE6C                movea.l    A2, [A5 - 0x194]
00000836  0C40 FFFE                cmpi.w     D0, 0xFFFE
0000083A  671E                     beq        +0x20 /* 0000085A */
0000083C  594F                     subq.w     A7, 4
0000083E  2F3C 464F 424A           move.l     -[A7], 0x464F424A /* 'FOBJ' */
00000844  3F00                     move.w     -[A7], D0
00000846  4EAD 007A                jsr        [A5 + 0x7A /* export_11, CODE:1 @ 00000B14 */]
0000084A  2457                     movea.l    A2, [A7]
0000084C  4A9F                     tst.l      [A7]+
0000084E  660A                     bne        +0xC /* 0000085A */
00000850  08AB 0000 0026           bclr.b     [A3 + 0x26], 0x0
label00000856:
00000856  246E 000C                movea.l    A2, [A6 + 0xC]
label0000085A:
0000085A  2F0C                     move.l     -[A7], A4
0000085C  2F0A                     move.l     -[A7], A2
0000085E  6104                     bsr        +0x6 /* 00000864 */
00000860  6000 354A                bra        +0x354C /* 00003DAC */
export_87:
fn00000864:
00000864  6100 FD28                bsr        -0x2D6 /* 0000058E */
00000868  0894 0007                bclr.b     [A4], 0x7
0000086C  204C                     movea.l    A0, A4
0000086E  526B 0038                addq.w     [A3 + 0x38], 1
00000872  7600                     moveq.l    D3, 0x00
00000874  362B 0038                move.w     D3, [A3 + 0x38]
00000878  3E03                     move.w     D7, D3
0000087A  E543                     asl        D3.w, 2
0000087C  0683 0000 003A           addi.l     D3, 0x3A /* ':' */
00000882  2003                     move.l     D0, D3
00000884  A024                     syscall    SetHandleSize
00000886  08D4 0007                bset.b     [A4], 0x7
0000088A  2654                     movea.l    A3, [A4]
0000088C  202E 000C                move.l     D0, [A6 + 0xC]
00000890  2780 30FC                move.l     [A3 + D3.w - 0x4], D0
00000894  2F0C                     move.l     -[A7], A4
00000896  486E FF8A                pea.l      [A6 - 0x76]
0000089A  42A7                     clr.l      -[A7]
0000089C  486E FE82                pea.l      [A6 - 0x17E]
000008A0  A9A8                     syscall    GetResInfo
000008A2  200C                     move.l     D0, A4
000008A4  286E 000C                movea.l    A4, [A6 + 0xC]
000008A8  2654                     movea.l    A3, [A4]
000008AA  3747 0006                move.w     [A3 + 0x6], D7
000008AE  222B 000E                move.l     D1, [A3 + 0xE]
000008B2  671C                     beq        +0x1E /* 000008D0 */
000008B4  342D FE5A                move.w     D2, [A5 - 0x1A6]
000008B8  2041                     movea.l    A0, D1
000008BA  2050                     movea.l    A0, [A0]
000008BC  B468 0024                cmp.w      D2, [A0 + 0x24]
000008C0  670E                     beq        +0x10 /* 000008D0 */
000008C2  2040                     movea.l    A0, D0
000008C4  2050                     movea.l    A0, [A0]
000008C6  B468 0024                cmp.w      D2, [A0 + 0x24]
000008CA  6604                     bne        +0x6 /* 000008D0 */
000008CC  2741 0012                move.l     [A3 + 0x12], D1
label000008D0:
000008D0  2740 000E                move.l     [A3 + 0xE], D0
000008D4  376E FF8A 000C           move.w     [A3 + 0xC], [A6 - 0x76]
000008DA  70FF                     moveq.l    D0, 0xFFFFFFFF
000008DC  B0AB 0002                cmp.l      D0, [A3 + 0x2]
000008E0  6606                     bne        +0x8 /* 000008E8 */
000008E2  2F0C                     move.l     -[A7], A4
000008E4  6100 3304                bsr        +0x3306 /* 00003BEA */
label000008E8:
000008E8  6000 34C2                bra        +0x34C4 /* 00003DAC */
export_89:
000008EC  6100 FCA0                bsr        -0x35E /* 0000058E */
000008F0  0C6B 0000 000A           cmpi.w     [A3 + 0xA], 0x0
000008F6  670C                     beq        +0xE /* 00000904 */
000008F8  4EAD 02FA                jsr        [A5 + 0x2FA /* export_91, CODE:3 @ 000030E2 */]
000008FC  2F2B 0028                move.l     -[A7], [A3 + 0x28]
00000900  A873                     syscall    SetPort
00000902  4A46                     tst.w      D6
label00000904:
00000904  6700 0124                beq        +0x126 /* 00000A2A */
label00000908:
00000908  2852                     movea.l    A4, [A2]
0000090A  08D4 0007                bset.b     [A4], 0x7
0000090E  2654                     movea.l    A3, [A4]
00000910  6100 1A16                bsr        +0x1A18 /* 00002328 */
00000914  49EB 0002                lea.l      A4, [A3 + 0x2]
00000918  2E14                     move.l     D7, [A4]
0000091A  4282                     clr.l      D2
0000091C  202E 0008                move.l     D0, [A6 + 0x8]
00000920  B0AD FE6C                cmp.l      D0, [A5 - 0x194]
00000924  660E                     bne        +0x10 /* 00000934 */
00000926  243C 001C 0008           move.l     D2, 0x1C0008
0000092C  0454 001C                subi.w     [A4], 0x1C
00000930  956C 0002                sub.w      [A4 + 0x2], D2
label00000934:
00000934  2F0C                     move.l     -[A7], A4
00000936  4EAD 048A                jsr        [A5 + 0x48A /* export_141, CODE:3 @ 000028D8 */]
0000093A  D56C 0002                add.w      [A4 + 0x2], D2
0000093E  4842                     swap.w     D2
00000940  D554                     add.w      [A4], D2
00000942  554F                     subq.w     A7, 2
00000944  2F14                     move.l     -[A7], [A4]
00000946  2055                     movea.l    A0, [A5]
00000948  2050                     movea.l    A0, [A0]
0000094A  41E8 0010                lea.l      A0, [A0 + 0x10]
0000094E  43EE FF8E                lea.l      A1, [A6 - 0x72]
00000952  2F09                     move.l     -[A7], A1
00000954  22D8                     move.l     [A1]+, [A0]+
00000956  2298                     move.l     [A1], [A0]+
00000958  7010                     moveq.l    D0, 0x10
0000095A  9159                     sub.w      [A1]+, D0
0000095C  9159                     sub.w      [A1]+, D0
0000095E  A8AD                     syscall    PtInRect
00000960  43EE FF8E                lea.l      A1, [A6 - 0x72]
00000964  41EE FF96                lea.l      A0, [A6 - 0x6A]
00000968  22D8                     move.l     [A1]+, [A0]+
0000096A  22D8                     move.l     [A1]+, [A0]+
0000096C  4A1F                     tst.b      [A7]+
0000096E  6606                     bne        +0x8 /* 00000976 */
00000970  2F12                     move.l     -[A7], [A2]
00000972  6100 3276                bsr        +0x3278 /* 00003BEA */
label00000976:
00000976  7A02                     moveq.l    D5, 0x02
label00000978:
00000978  3805                     move.w     D4, D5
0000097A  E244                     asr        D4.w, 1
0000097C  7601                     moveq.l    D3, 0x01
label0000097E:
0000097E  2055                     movea.l    A0, [A5]
00000980  2050                     movea.l    A0, [A0]
00000982  4CA8 0107 0010           movem.w    D0,D1,D2,A0, [A0 + 0x10]
00000988  B054                     cmp.w      D0, [A4]
0000098A  6C6E                     bge        +0x70 /* 000009FA */
0000098C  B26C 0002                cmp.w      D1, [A4 + 0x2]
00000990  6C68                     bge        +0x6A /* 000009FA */
00000992  3008                     move.w     D0, A0
00000994  0440 0020                subi.w     D0, 0x20 /* ' ' */
00000998  B06C 0002                cmp.w      D0, [A4 + 0x2]
0000099C  6D5C                     blt        +0x5E /* 000009FA */
0000099E  BE94                     cmp.l      D7, [A4]
000009A0  6778                     beq        +0x7A /* 00000A1A */
000009A2  554F                     subq.w     A7, 2
000009A4  2F12                     move.l     -[A7], [A2]
000009A6  2F2E 0008                move.l     -[A7], [A6 + 0x8]
000009AA  6100 2B76                bsr        +0x2B78 /* 00003522 */
000009AE  4A1F                     tst.b      [A7]+
000009B0  6748                     beq        +0x4A /* 000009FA */
000009B2  2F14                     move.l     -[A7], [A4]
000009B4  2887                     move.l     [A4], D7
000009B6  2F12                     move.l     -[A7], [A2]
000009B8  6100 1490                bsr        +0x1492 /* 00001E4A */
000009BC  2F12                     move.l     -[A7], [A2]
000009BE  6100 1B88                bsr        +0x1B8A /* 00002548 */
000009C2  289F                     move.l     [A4], [A7]+
000009C4  2852                     movea.l    A4, [A2]
000009C6  6100 1960                bsr        +0x1962 /* 00002328 */
000009CA  486E FF96                pea.l      [A6 - 0x6A]
000009CE  2F17                     move.l     -[A7], [A7]
000009D0  4EAD 0492                jsr        [A5 + 0x492 /* export_142, CODE:3 @ 000029AC */]
000009D4  486E FF8E                pea.l      [A6 - 0x72]
000009D8  2F17                     move.l     -[A7], [A7]
000009DA  4EAD 0492                jsr        [A5 + 0x492 /* export_142, CODE:3 @ 000029AC */]
000009DE  4267                     clr.w      -[A7]
000009E0  4EAD 030A                jsr        [A5 + 0x30A /* export_93, CODE:3 @ 00001DB8 */]
000009E4  6100 0366                bsr        +0x368 /* 00000D4C */
000009E8  2F0C                     move.l     -[A7], A4
000009EA  6100 1B5C                bsr        +0x1B5E /* 00002548 */
000009EE  2F0C                     move.l     -[A7], A4
000009F0  6100 0548                bsr        +0x54A /* 00000F3A */
000009F4  6100 3D34                bsr        +0x3D36 /* 0000472A */
000009F8  6020                     bra        +0x22 /* 00000A1A */
label000009FA:
000009FA  3005                     move.w     D0, D5
000009FC  0240 0003                andi.w     D0, 0x3
00000A00  D040                     add.w      D0, D0
00000A02  41FB 002A                lea.l      A0, [PC + D0.w + 0x2A]
00000A06  2F10                     move.l     -[A7], [A0]
00000A08  2F0C                     move.l     -[A7], A4
00000A0A  A87E                     syscall    AddPt
00000A0C  5243                     addq.w     D3, 1
00000A0E  B843                     cmp.w      D4, D3
00000A10  6C00 FF6C                bge        -0x92 /* 0000097E */
00000A14  5245                     addq.w     D5, 1
00000A16  6000 FF60                bra        -0x9E /* 00000978 */
label00000A1A:
00000A1A  285A                     movea.l    A4, [A2]+
00000A1C  0894 0007                bclr.b     [A4], 0x7
00000A20  5346                     subq.w     D6, 1
00000A22  6600 FEE4                bne        -0x11A /* 00000908 */
00000A26  4EAD 0342                jsr        [A5 + 0x342 /* export_100, CODE:3 @ 000030DA */]
label00000A2A:
00000A2A  6000 0048                bra        +0x4A /* 00000A74 */
00000A2E  0000 0040                ori.b      D0, 0x40 /* '@' */
00000A32  0000 FFC0                ori.b      D0, 0xC0
00000A36  0000 6100                ori.b      D0, 0x0
// begin alternate branch 00000A38-00000A3C
fn00000A38:
00000A38  6100 FB46                bsr        -0x4B8 /* 00000580 */
// end alternate branch 00000A38-00000A3C
fn00000A38: // (misaligned)
00000A3A  FB46                     .extension 0xB46 <<F/4-5/5>> // unimplemented
00000A3C  246B 000E                movea.l    A2, [A3 + 0xE]
00000A40  2452                     movea.l    A2, [A2]
00000A42  45EA 0038                lea.l      A2, [A2 + 0x38]
00000A46  381A                     move.w     D4, [A2]+
00000A48  3A04                     move.w     D5, D4
00000A4A  5245                     addq.w     D5, 1
00000A4C  554F                     subq.w     A7, 2
00000A4E  2F0C                     move.l     -[A7], A4
00000A50  6100 2A4C                bsr        +0x2A4E /* 0000349E */
00000A54  9A5F                     sub.w      D5, [A7]+
00000A56  5344                     subq.w     D4, 1
00000A58  3005                     move.w     D0, D5
00000A5A  5340                     subq.w     D0, 1
00000A5C  E540                     asl        D0.w, 2
label00000A5E:
00000A5E  2232 0004                move.l     D1, [A2 + D0.w + 0x4]
00000A62  2581 0000                move.l     [A2 + D0.w], D1
00000A66  5840                     addq.w     D0, 4
00000A68  5245                     addq.w     D5, 1
00000A6A  BA44                     cmp.w      D5, D4
00000A6C  6FF0                     ble        -0xE /* 00000A5E */
00000A6E  E544                     asl        D4.w, 2
00000A70  258C 4000                move.l     [A2 + D4.w], A4
label00000A74:
00000A74  7004                     moveq.l    D0, 0x04
00000A76  6000 FB48                bra        -0x4B6 /* 000005C0 */
fn00000A7A:
00000A7A  6100 FB12                bsr        -0x4EC /* 0000058E */
00000A7E  41EE FFA6                lea.l      A0, [A6 - 0x5A]
00000A82  4268 001C                clr.w      [A0 + 0x1C]
00000A86  43EE FE82                lea.l      A1, [A6 - 0x17E]
00000A8A  2149 0012                move.l     [A0 + 0x12], A1
00000A8E  316B 0022 0016           move.w     [A0 + 0x16], [A3 + 0x22]
00000A94  A007                     syscall    GetVolInfo/PBHGetVInfo/HGetVInfo
00000A96  4EAD 05B2                jsr        [A5 + 0x5B2 /* export_178, CODE:3 @ 0000200E */]
00000A9A  2628 0030                move.l     D3, [A0 + 0x30]
00000A9E  3028 003E                move.w     D0, [A0 + 0x3E]
00000AA2  C7C0                     muls.w     D3, D0
00000AA4  2D43 000C                move.l     [A6 + 0xC], D3
00000AA8  60CA                     bra        -0x34 /* 00000A74 */
export_81:
fn00000AAA:
00000AAA  6100 FB58                bsr        -0x4A6 /* 00000604 */
00000AAE  4A2D FE26                tst.b      [A5 - 0x1DA]
00000AB2  6708                     beq        +0xA /* 00000ABC */
00000AB4  6100 1872                bsr        +0x1874 /* 00002328 */
00000AB8  4A2D FE27                tst.b      [A5 - 0x1D9]
label00000ABC:
00000ABC  6700 00B4                beq        +0xB6 /* 00000B72 */
00000AC0  6100 184A                bsr        +0x184C /* 0000230C */
00000AC4  594F                     subq.w     A7, 4
00000AC6  204F                     movea.l    A0, A7
00000AC8  554F                     subq.w     A7, 2
00000ACA  2F09                     move.l     -[A7], A1
00000ACC  2F08                     move.l     -[A7], A0
00000ACE  2F0C                     move.l     -[A7], A4
00000AD0  6100 1F02                bsr        +0x1F04 /* 000029D4 */
00000AD4  301F                     move.w     D0, [A7]+
00000AD6  245F                     movea.l    A2, [A7]+
00000AD8  0C40 0001                cmpi.w     D0, 0x1
00000ADC  6710                     beq        +0x12 /* 00000AEE */
00000ADE  2052                     movea.l    A0, [A2]
00000AE0  0C68 FFFD 000C           cmpi.w     [A0 + 0xC], 0xFFFD
00000AE6  6650                     bne        +0x52 /* 00000B38 */
00000AE8  2F0A                     move.l     -[A7], A2
00000AEA  6100 1BCC                bsr        +0x1BCE /* 000026B8 */
label00000AEE:
00000AEE  6100 181C                bsr        +0x181E /* 0000230C */
00000AF2  4A11                     tst.b      [A1]
00000AF4  674A                     beq        +0x4C /* 00000B40 */
00000AF6  3013                     move.w     D0, [A3]
00000AF8  6714                     beq        +0x16 /* 00000B0E */
00000AFA  0C40 0004                cmpi.w     D0, 0x4
00000AFE  666E                     bne        +0x70 /* 00000B6E */
00000B00  554F                     subq.w     A7, 2
00000B02  3F2B 0022                move.w     -[A7], [A3 + 0x22]
00000B06  2F09                     move.l     -[A7], A1
00000B08  4EAD 040A                jsr        [A5 + 0x40A /* export_125, CODE:3 @ 00002DFE */]
00000B0C  6014                     bra        +0x16 /* 00000B22 */
label00000B0E:
00000B0E  554F                     subq.w     A7, 2
00000B10  3F2B 0022                move.w     -[A7], [A3 + 0x22]
00000B14  3F2B 003C                move.w     -[A7], [A3 + 0x3C]
00000B18  486D FD26                pea.l      [A5 - 0x2DA]
00000B1C  2F09                     move.l     -[A7], A1
00000B1E  4EAD 0402                jsr        [A5 + 0x402 /* export_124, CODE:3 @ 00002E46 */]
label00000B22:
00000B22  594F                     subq.w     A7, 4
00000B24  2F0C                     move.l     -[A7], A4
00000B26  6100 0C88                bsr        +0xC8A /* 000017B0 */
00000B2A  6100 3C6A                bsr        +0x3C6C /* 00004796 */
00000B2E  301F                     move.w     D0, [A7]+
00000B30  673C                     beq        +0x3E /* 00000B6E */
00000B32  4EAD 05B2                jsr        [A5 + 0x5B2 /* export_178, CODE:3 @ 0000200E */]
00000B36  6008                     bra        +0xA /* 00000B40 */
label00000B38:
00000B38  3F3C 0041                move.w     -[A7], 0x41 /* 'A' */
00000B3C  4EAD 0532                jsr        [A5 + 0x532 /* export_162, CODE:3 @ 00002640 */]
label00000B40:
00000B40  082B 0007 000B           btst.b     [A3 + 0xB], 0x7
00000B46  670A                     beq        +0xC /* 00000B52 */
00000B48  2F2B 0028                move.l     -[A7], [A3 + 0x28]
00000B4C  486D FD26                pea.l      [A5 - 0x2DA]
00000B50  A91A                     syscall    SetWTitle
label00000B52:
00000B52  486E FF9E                pea.l      [A6 - 0x62]
00000B56  A928                     syscall    InvalRect
00000B58  486D FD26                pea.l      [A5 - 0x2DA]
00000B5C  2F0C                     move.l     -[A7], A4
00000B5E  6100 3544                bsr        +0x3546 /* 000040A4 */
00000B62  2654                     movea.l    A3, [A4]
00000B64  6100 17C2                bsr        +0x17C4 /* 00002328 */
00000B68  486E FF9E                pea.l      [A6 - 0x62]
00000B6C  A928                     syscall    InvalRect
label00000B6E:
00000B6E  51ED FE27                sf         [A5 - 0x1D9]
label00000B72:
00000B72  6040                     bra        +0x42 /* 00000BB4 */
export_78:
fn00000B74:
00000B74  6100 FA8E                bsr        -0x570 /* 00000604 */
00000B78  4A2D FE26                tst.b      [A5 - 0x1DA]
00000B7C  6736                     beq        +0x38 /* 00000BB4 */
00000B7E  6100 FF2A                bsr        -0xD4 /* 00000AAA */
00000B82  6100 012C                bsr        +0x12E /* 00000CB0 */
00000B86  2F2D FE2C                move.l     -[A7], [A5 - 0x1D4]
00000B8A  A9D9                     syscall    TEDeactivate
00000B8C  6100 01AE                bsr        +0x1B0 /* 00000D3C */
00000B90  51ED FE26                sf         [A5 - 0x1DA]
00000B94  082B 0001 000B           btst.b     [A3 + 0xB], 0x1
00000B9A  670A                     beq        +0xC /* 00000BA6 */
00000B9C  6100 178A                bsr        +0x178C /* 00002328 */
00000BA0  486E FF9E                pea.l      [A6 - 0x62]
00000BA4  A8A4                     syscall    InvertRect
label00000BA6:
00000BA6  42AD FE28                clr.l      [A5 - 0x1D8]
00000BAA  4AAE FFFC                tst.l      [A6 - 0x4]
00000BAE  6B04                     bmi        +0x6 /* 00000BB4 */
00000BB0  0894 0007                bclr.b     [A4], 0x7
label00000BB4:
00000BB4  7000                     moveq.l    D0, 0x00
00000BB6  6000 FA7A                bra        -0x584 /* 00000632 */
export_46:
00000BBA  6100 FA48                bsr        -0x5B6 /* 00000604 */
00000BBE  426E 000E                clr.w      [A6 + 0xE]
00000BC2  4A2D FE26                tst.b      [A5 - 0x1DA]
00000BC6  6762                     beq        +0x64 /* 00000C2A */
00000BC8  6100 175E                bsr        +0x1760 /* 00002328 */
00000BCC  3E2E 0008                move.w     D7, [A6 + 0x8]
00000BD0  226E 000A                movea.l    A1, [A6 + 0xA]
00000BD4  1811                     move.b     D4, [A1]
00000BD6  0C04 0008                cmpi.b     D4, 0x8
00000BDA  6602                     bne        +0x4 /* 00000BDE */
00000BDC  7E00                     moveq.l    D7, 0x00
label00000BDE:
00000BDE  226D FE2C                movea.l    A1, [A5 - 0x1D4]
00000BE2  2251                     movea.l    A1, [A1]
00000BE4  2869 003E                movea.l    A4, [A1 + 0x3E]
00000BE8  3029 003C                move.w     D0, [A1 + 0x3C]
00000BEC  4CA9 0060 0020           movem.w    D5,D6, [A1 + 0x20]
00000BF2  4A45                     tst.w      D5
00000BF4  6606                     bne        +0x8 /* 00000BFC */
00000BF6  0C04 0020                cmpi.b     D4, 0x20 /* ' ' */
00000BFA  672E                     beq        +0x30 /* 00000C2A */
label00000BFC:
00000BFC  D047                     add.w      D0, D7
00000BFE  D045                     add.w      D0, D5
00000C00  9046                     sub.w      D0, D6
00000C02  721B                     moveq.l    D1, 0x1B
00000C04  0C53 0004                cmpi.w     [A3], 0x4
00000C08  6714                     beq        +0x16 /* 00000C1E */
00000C0A  0C53 0000                cmpi.w     [A3], 0x0
00000C0E  660A                     bne        +0xC /* 00000C1A */
00000C10  0CAB 4150 504C 0028      cmpi.l     [A3 + 0x28], 0x4150504C /* 'APPL' */
00000C18  6704                     beq        +0x6 /* 00000C1E */
label00000C1A:
00000C1A  323C 003F                move.w     D1, 0x3F /* '?' */
label00000C1E:
00000C1E  B041                     cmp.w      D0, D1
00000C20  6F0C                     ble        +0xE /* 00000C2E */
00000C22  3F3C 0042                move.w     -[A7], 0x42 /* 'B' */
00000C26  4EAD 0532                jsr        [A5 + 0x532 /* export_162, CODE:3 @ 00002640 */]
label00000C2A:
00000C2A  6000 007E                bra        +0x80 /* 00000CAA */
label00000C2E:
00000C2E  594F                     subq.w     A7, 4
00000C30  A8D8                     syscall    NewRgn
00000C32  2B57 FD22                move.l     [A5 - 0x2DE], [A7]
00000C36  2F17                     move.l     -[A7], [A7]
00000C38  A87A                     syscall    GetClip
00000C3A  2F2E 000A                move.l     -[A7], [A6 + 0xA]
00000C3E  3F07                     move.w     -[A7], D7
00000C40  4EAD 05C2                jsr        [A5 + 0x5C2 /* export_180, CODE:3 @ 000020B0 */]
00000C44  554F                     subq.w     A7, 2
00000C46  2F09                     move.l     -[A7], A1
00000C48  4267                     clr.w      -[A7]
00000C4A  3F07                     move.w     -[A7], D7
00000C4C  A886                     syscall    TextWidth
00000C4E  3617                     move.w     D3, [A7]
00000C50  08D4 0007                bset.b     [A4], 0x7
00000C54  2F14                     move.l     -[A7], [A4]
00000C56  3F05                     move.w     -[A7], D5
00000C58  3F06                     move.w     -[A7], D6
00000C5A  9B57                     sub.w      [A7], D5
00000C5C  A886                     syscall    TextWidth
00000C5E  965F                     sub.w      D3, [A7]+
00000C60  4214                     clr.b      [A4]
00000C62  3403                     move.w     D2, D3
00000C64  E242                     asr        D2.w, 1
00000C66  43EE FF9E                lea.l      A1, [A6 - 0x62]
00000C6A  41EE FF96                lea.l      A0, [A6 - 0x6A]
00000C6E  20D9                     move.l     [A0]+, [A1]+
00000C70  9568 FFFE                sub.w      [A0 - 0x2], D2
00000C74  20D9                     move.l     [A0]+, [A1]+
00000C76  D760                     add.w      -[A0], D3
00000C78  9550                     sub.w      [A0], D2
00000C7A  4A43                     tst.w      D3
00000C7C  6D06                     blt        +0x8 /* 00000C84 */
00000C7E  486E FF96                pea.l      [A6 - 0x6A]
00000C82  6004                     bra        +0x6 /* 00000C88 */
label00000C84:
00000C84  486E FF9E                pea.l      [A6 - 0x62]
label00000C88:
00000C88  A87B                     syscall    ClipRect
00000C8A  4EAD 049A                jsr        [A5 + 0x49A /* export_143, CODE:3 @ 000027C4 */]
00000C8E  2F29 001C                move.l     -[A7], [A1 + 0x1C]
00000C92  2F17                     move.l     -[A7], [A7]
00000C94  A8E4                     syscall    SectRgn
00000C96  486E FF9E                pea.l      [A6 - 0x62]
00000C9A  2F17                     move.l     -[A7], [A7]
00000C9C  2F3C 0000 FFF8           move.l     -[A7], 0xFFF8
00000CA2  A8A9                     syscall    InsetRect
00000CA4  A928                     syscall    InvalRect
00000CA6  522E 000E                addq.b     [A6 + 0xE], 1
label00000CAA:
00000CAA  7006                     moveq.l    D0, 0x06
00000CAC  6000 F984                bra        -0x67A /* 00000632 */
fn00000CB0:
00000CB0  6100 F952                bsr        -0x6AC /* 00000604 */
00000CB4  594F                     subq.w     A7, 4
00000CB6  A8D8                     syscall    NewRgn
00000CB8  2B57 FD22                move.l     [A5 - 0x2DE], [A7]
00000CBC  2F17                     move.l     -[A7], [A7]
00000CBE  A87A                     syscall    GetClip
00000CC0  6100 1666                bsr        +0x1668 /* 00002328 */
00000CC4  486E FF9E                pea.l      [A6 - 0x62]
00000CC8  A87B                     syscall    ClipRect
00000CCA  4EAD 049A                jsr        [A5 + 0x49A /* export_143, CODE:3 @ 000027C4 */]
00000CCE  2F29 001C                move.l     -[A7], [A1 + 0x1C]
00000CD2  2F17                     move.l     -[A7], [A7]
00000CD4  A8E4                     syscall    SectRgn
label00000CD6:
00000CD6  6000 FEDC                bra        -0x122 /* 00000BB4 */
export_45:
00000CDA  6100 F928                bsr        -0x6D6 /* 00000604 */
00000CDE  2F2D FD22                move.l     -[A7], [A5 - 0x2DE]
00000CE2  2F17                     move.l     -[A7], [A7]
00000CE4  A879                     syscall    SetClip
00000CE6  A8D9                     syscall    DisposRgn/DisposeRgn
00000CE8  43EE FE82                lea.l      A1, [A6 - 0x17E]
00000CEC  206D FE2C                movea.l    A0, [A5 - 0x1D4]
00000CF0  2050                     movea.l    A0, [A0]
00000CF2  7000                     moveq.l    D0, 0x00
00000CF4  3028 003C                move.w     D0, [A0 + 0x3C]
00000CF8  12C0                     move.b     [A1]+, D0
00000CFA  2068 003E                movea.l    A0, [A0 + 0x3E]
00000CFE  2050                     movea.l    A0, [A0]
00000D00  A02E                     syscall    BlockMove/BlockMoveData
00000D02  486E FE82                pea.l      [A6 - 0x17E]
00000D06  2F0C                     move.l     -[A7], A4
00000D08  6100 339A                bsr        +0x339C /* 000040A4 */
00000D0C  2654                     movea.l    A3, [A4]
00000D0E  6100 1618                bsr        +0x161A /* 00002328 */
00000D12  486E FF9E                pea.l      [A6 - 0x62]
00000D16  A92A                     syscall    ValidRect
00000D18  082B 0007 000B           btst.b     [A3 + 0xB], 0x7
00000D1E  671A                     beq        +0x1C /* 00000D3A */
00000D20  554F                     subq.w     A7, 2
00000D22  3F3C 0028                move.w     -[A7], 0x28 /* '(' */
00000D26  486E FF02                pea.l      [A6 - 0xFE]
00000D2A  A971                     syscall    EventAvail
00000D2C  4A1F                     tst.b      [A7]+
00000D2E  660A                     bne        +0xC /* 00000D3A */
00000D30  2F2B 0028                move.l     -[A7], [A3 + 0x28]
00000D34  486E FE82                pea.l      [A6 - 0x17E]
00000D38  A91A                     syscall    SetWTitle
label00000D3A:
00000D3A  609A                     bra        -0x64 /* 00000CD6 */
fn00000D3C:
00000D3C  6100 F8C6                bsr        -0x738 /* 00000604 */
00000D40  2F2D FD22                move.l     -[A7], [A5 - 0x2DE]
00000D44  2F17                     move.l     -[A7], [A7]
00000D46  A879                     syscall    SetClip
00000D48  A8D9                     syscall    DisposRgn/DisposeRgn
label00000D4A:
00000D4A  60EE                     bra        -0x10 /* 00000D3A */
export_47:
fn00000D4C:
00000D4C  6100 F8B6                bsr        -0x748 /* 00000604 */
00000D50  4A2D FE26                tst.b      [A5 - 0x1DA]
00000D54  67F4                     beq        -0xA /* 00000D4A */
00000D56  6100 15D0                bsr        +0x15D2 /* 00002328 */
00000D5A  226D FE2C                movea.l    A1, [A5 - 0x1D4]
00000D5E  2251                     movea.l    A1, [A1]
00000D60  2055                     movea.l    A0, [A5]
00000D62  2350 0052                move.l     [A1 + 0x52], [A0]
00000D66  41EE FF9E                lea.l      A0, [A6 - 0x62]
00000D6A  0468 03E8 0002           subi.w     [A0 + 0x2], 0x3E8
00000D70  0668 03E8 0006           addi.w     [A0 + 0x6], 0x3E8
00000D76  22D8                     move.l     [A1]+, [A0]+
00000D78  22D0                     move.l     [A1]+, [A0]
00000D7A  22E0                     move.l     [A1]+, -[A0]
00000D7C  22E8 0004                move.l     [A1]+, [A0 + 0x4]
00000D80  60C8                     bra        -0x36 /* 00000D4A */
fn00000D82:
00000D82  6100 F80A                bsr        -0x7F4 /* 0000058E */
00000D86  302B 0024                move.w     D0, [A3 + 0x24]
00000D8A  B06D FE5A                cmp.w      D0, [A5 - 0x1A6]
00000D8E  6770                     beq        +0x72 /* 00000E00 */
00000D90  B9ED FE28                cmpa.l     A4, [A5 - 0x1D8]
00000D94  676A                     beq        +0x6C /* 00000E00 */
00000D96  554F                     subq.w     A7, 2
00000D98  50E7                     st         -[A7]
00000D9A  2F0C                     move.l     -[A7], A4
00000D9C  6100 14BE                bsr        +0x14C0 /* 0000225C */
00000DA0  301F                     move.w     D0, [A7]+
00000DA2  0800 0007                btst.b     D0, 0x7
00000DA6  6658                     bne        +0x5A /* 00000E00 */
00000DA8  082B 0004 0026           btst.b     [A3 + 0x26], 0x4
00000DAE  6650                     bne        +0x52 /* 00000E00 */
00000DB0  2B4C FE28                move.l     [A5 - 0x1D8], A4
00000DB4  50ED FE26                st         [A5 - 0x1DA]
00000DB8  51ED FE27                sf         [A5 - 0x1D9]
00000DBC  6100 154E                bsr        +0x1550 /* 0000230C */
00000DC0  2649                     movea.l    A3, A1
00000DC2  41ED FD26                lea.l      A0, [A5 - 0x2DA]
00000DC6  C149                     exg        A0, A1
00000DC8  203C 0000 0100           move.l     D0, 0x100
00000DCE  A02E                     syscall    BlockMove/BlockMoveData
00000DD0  6100 FF7A                bsr        -0x84 /* 00000D4C */
00000DD4  6100 FEDA                bsr        -0x124 /* 00000CB0 */
00000DD8  246D FE2C                movea.l    A2, [A5 - 0x1D4]
00000DDC  7000                     moveq.l    D0, 0x00
00000DDE  101B                     move.b     D0, [A3]+
00000DE0  2F0B                     move.l     -[A7], A3
00000DE2  2F00                     move.l     -[A7], D0
00000DE4  2F0A                     move.l     -[A7], A2
00000DE6  A9CF                     syscall    TESetText
00000DE8  2252                     movea.l    A1, [A2]
00000DEA  4A2E 000C                tst.b      [A6 + 0xC]
00000DEE  6604                     bne        +0x6 /* 00000DF4 */
00000DF0  4269 0020                clr.w      [A1 + 0x20]
label00000DF4:
00000DF4  51E9 0039                sf         [A1 + 0x39]
00000DF8  2F0A                     move.l     -[A7], A2
00000DFA  A9D8                     syscall    TEActivate
00000DFC  6100 FF3E                bsr        -0xC0 /* 00000D3C */
label00000E00:
00000E00  6000 3824                bra        +0x3826 /* 00004626 */
export_49:
fn00000E04:
00000E04  6100 F77A                bsr        -0x884 /* 00000580 */
00000E08  6100 2E82                bsr        +0x2E84 /* 00003C8C */
00000E0C  6646                     bne        +0x48 /* 00000E54 */
00000E0E  4AAB 0028                tst.l      [A3 + 0x28]
00000E12  6740                     beq        +0x42 /* 00000E54 */
00000E14  7800                     moveq.l    D4, 0x00
00000E16  4A46                     tst.w      D6
00000E18  673A                     beq        +0x3C /* 00000E54 */
label00000E1A:
00000E1A  285A                     movea.l    A4, [A2]+
00000E1C  2054                     movea.l    A0, [A4]
00000E1E  0828 0001 000B           btst.b     [A0 + 0xB], 0x1
00000E24  670C                     beq        +0xE /* 00000E32 */
00000E26  0828 0002 000B           btst.b     [A0 + 0xB], 0x2
00000E2C  6604                     bne        +0x6 /* 00000E32 */
00000E2E  5244                     addq.w     D4, 1
00000E30  2E0C                     move.l     D7, A4
label00000E32:
00000E32  5346                     subq.w     D6, 1
00000E34  66E4                     bne        -0x1A /* 00000E1A */
00000E36  5344                     subq.w     D4, 1
00000E38  661A                     bne        +0x1C /* 00000E54 */
00000E3A  594F                     subq.w     A7, 4
00000E3C  2F0F                     move.l     -[A7], A7
00000E3E  A874                     syscall    GetPort
00000E40  2F2B 0028                move.l     -[A7], [A3 + 0x28]
00000E44  A873                     syscall    SetPort
00000E46  A896                     syscall    HidePen
00000E48  51E7                     sf         -[A7]
00000E4A  2F07                     move.l     -[A7], D7
00000E4C  6100 FF34                bsr        -0xCA /* 00000D82 */
00000E50  A897                     syscall    ShowPen
00000E52  A873                     syscall    SetPort
label00000E54:
00000E54  6000 FC1E                bra        -0x3E0 /* 00000A74 */
fn00000E58:
00000E58  6100 F726                bsr        -0x8D8 /* 00000580 */
00000E5C  7E00                     moveq.l    D7, 0x00
00000E5E  7600                     moveq.l    D3, 0x00
00000E60  302B 0022                move.w     D0, [A3 + 0x22]
00000E64  B078 0210                cmp.w      D0, [0x00000210 /* BootDrive */]
00000E68  56C4                     sne        D4
00000E6A  6616                     bne        +0x18 /* 00000E82 */
00000E6C  514F                     subq.w     A7, 8
00000E6E  2F3C 5245 5323           move.l     -[A7], 0x52455323 /* 'RES#' */
00000E74  3F3C 0080                move.w     -[A7], 0x80
00000E78  A9A0                     syscall    GetResource
00000E7A  2A17                     move.l     D5, [A7]
00000E7C  4EAD 00C2                jsr        [A5 + 0xC2 /* export_20, CODE:1 @ 00000186 */]
00000E80  261F                     move.l     D3, [A7]+
label00000E82:
00000E82  5D4F                     subq.w     A7, 6
00000E84  2F0C                     move.l     -[A7], A4
00000E86  4EBA 339C                jsr        [PC + 0x339C /* 00004224 */]
00000E8A  D797                     add.l      [A7], D3
00000E8C  4EAD 05CA                jsr        [A5 + 0x5CA /* export_181, CODE:3 @ 00002028 */]
00000E90  4A04                     tst.b      D4
00000E92  6606                     bne        +0x8 /* 00000E9A */
00000E94  2F05                     move.l     -[A7], D5
00000E96  4EAD 004A                jsr        [A5 + 0x4A /* export_5, CODE:1 @ 0000021E */]
label00000E9A:
00000E9A  4A1F                     tst.b      [A7]+
00000E9C  56EE 000C                sne        [A6 + 0xC]
00000EA0  6700 0094                beq        +0x96 /* 00000F36 */
00000EA4  601E                     bra        +0x20 /* 00000EC4 */
fn00000EA6:
00000EA6  6100 F6D8                bsr        -0x926 /* 00000580 */
00000EAA  082B 0007 0027           btst.b     [A3 + 0x27], 0x7
00000EB0  6610                     bne        +0x12 /* 00000EC2 */
00000EB2  554F                     subq.w     A7, 2
00000EB4  3F2B 0024                move.w     -[A7], [A3 + 0x24]
00000EB8  4EAD 03E2                jsr        [A5 + 0x3E2 /* export_120, CODE:3 @ 00002E80 */]
00000EBC  301F                     move.w     D0, [A7]+
00000EBE  4EAD 05B2                jsr        [A5 + 0x5B2 /* export_178, CODE:3 @ 0000200E */]
label00000EC2:
00000EC2  7E01                     moveq.l    D7, 0x01
label00000EC4:
00000EC4  3F38 0A5E                move.w     -[A7], [0x00000A5E /* ResLoad */]
00000EC8  4278 0A5E                clr.w      [0x00000A5E /* ResLoad */]
00000ECC  3C2B 0024                move.w     D6, [A3 + 0x24]
00000ED0  554F                     subq.w     A7, 2
00000ED2  A99E                     syscall    CountTypes
00000ED4  3A1F                     move.w     D5, [A7]+
label00000ED6:
00000ED6  5D4F                     subq.w     A7, 6
00000ED8  2F0F                     move.l     -[A7], A7
00000EDA  3F05                     move.w     -[A7], D5
00000EDC  A99F                     syscall    GetIndType
00000EDE  2817                     move.l     D4, [A7]
00000EE0  A99C                     syscall    CountResources
00000EE2  361F                     move.w     D3, [A7]+
label00000EE4:
00000EE4  5D4F                     subq.w     A7, 6
00000EE6  2F04                     move.l     -[A7], D4
00000EE8  3F03                     move.w     -[A7], D3
00000EEA  A99D                     syscall    GetIndResource
00000EEC  2457                     movea.l    A2, [A7]
00000EEE  A9A4                     syscall    HomeResFile
00000EF0  BC5F                     cmp.w      D6, [A7]+
00000EF2  661E                     bne        +0x20 /* 00000F12 */
00000EF4  554F                     subq.w     A7, 2
00000EF6  2F0A                     move.l     -[A7], A2
00000EF8  A9A6                     syscall    GetResAttrs
00000EFA  321F                     move.w     D1, [A7]+
00000EFC  204A                     movea.l    A0, A2
00000EFE  4A47                     tst.w      D7
00000F00  6608                     bne        +0xA /* 00000F0A */
00000F02  2F08                     move.l     -[A7], A0
00000F04  A9A2                     syscall    LoadResource
00000F06  A04A                     syscall    HNoPurge
00000F08  6008                     bra        +0xA /* 00000F12 */
label00000F0A:
00000F0A  0801 0005                btst.b     D1, 0x5
00000F0E  6702                     beq        +0x4 /* 00000F12 */
00000F10  A049                     syscall    HPurge
label00000F12:
00000F12  5343                     subq.w     D3, 1
00000F14  66CE                     bne        -0x30 /* 00000EE4 */
00000F16  5345                     subq.w     D5, 1
00000F18  66BC                     bne        -0x42 /* 00000ED6 */
00000F1A  31DF 0A5E                move.w     [0x00000A5E /* ResLoad */], [A7]+
00000F1E  302B 0022                move.w     D0, [A3 + 0x22]
00000F22  B078 0210                cmp.w      D0, [0x00000210 /* BootDrive */]
00000F26  660E                     bne        +0x10 /* 00000F36 */
00000F28  4A07                     tst.b      D7
00000F2A  6606                     bne        +0x8 /* 00000F32 */
00000F2C  4EAD 05D2                jsr        [A5 + 0x5D2 /* export_182, CODE:3 @ 00001F8C */]
00000F30  6004                     bra        +0x6 /* 00000F36 */
label00000F32:
00000F32  4EAD 0412                jsr        [A5 + 0x412 /* export_126, CODE:3 @ 00001F9A */]
label00000F36:
00000F36  6000 FB3C                bra        -0x4C2 /* 00000A74 */
export_88:
fn00000F3A:
00000F3A  6100 F644                bsr        -0x9BA /* 00000580 */
00000F3E  3E2B 0024                move.w     D7, [A3 + 0x24]
00000F42  0C53 0000                cmpi.w     [A3], 0x0
00000F46  6706                     beq        +0x8 /* 00000F4E */
00000F48  2F0C                     move.l     -[A7], A4
00000F4A  A9AA                     syscall    ChangedResource
00000F4C  6006                     bra        +0x8 /* 00000F54 */
label00000F4E:
00000F4E  08EB 0001 0026           bset.b     [A3 + 0x26], 0x1
label00000F54:
00000F54  6000 FB1E                bra        -0x4E0 /* 00000A74 */
export_86:
fn00000F58:
00000F58  6100 F634                bsr        -0x9CA /* 0000058E */
00000F5C  3E2B 0024                move.w     D7, [A3 + 0x24]
00000F60  286B 0016                movea.l    A4, [A3 + 0x16]
label00000F64:
00000F64  200C                     move.l     D0, A4
00000F66  6752                     beq        +0x54 /* 00000FBA */
00000F68  2654                     movea.l    A3, [A4]
00000F6A  2A2B 002C                move.l     D5, [A3 + 0x2C]
00000F6E  6742                     beq        +0x44 /* 00000FB2 */
00000F70  0C85 3F3F 3F3F           cmpi.l     D5, 0x3F3F3F3F /* '????' */
00000F76  673A                     beq        +0x3C /* 00000FB2 */
00000F78  594F                     subq.w     A7, 4
00000F7A  2F05                     move.l     -[A7], D5
00000F7C  4267                     clr.w      -[A7]
00000F7E  4EAD 007A                jsr        [A5 + 0x7A /* export_11, CODE:1 @ 00000B14 */]
00000F82  4A9F                     tst.l      [A7]+
00000F84  662C                     bne        +0x2E /* 00000FB2 */
00000F86  594F                     subq.w     A7, 4
00000F88  2F0C                     move.l     -[A7], A4
00000F8A  6100 0F8A                bsr        +0xF8C /* 00001F16 */
00000F8E  245F                     movea.l    A2, [A7]+
00000F90  200A                     move.l     D0, A2
00000F92  671E                     beq        +0x20 /* 00000FB2 */
00000F94  486E FE82                pea.l      [A6 - 0x17E]
00000F98  2F0A                     move.l     -[A7], A2
00000F9A  6100 1358                bsr        +0x135A /* 000022F4 */
00000F9E  2252                     movea.l    A1, [A2]
00000FA0  3F29 0022                move.w     -[A7], [A1 + 0x22]
00000FA4  3F07                     move.w     -[A7], D7
00000FA6  2F29 002C                move.l     -[A7], [A1 + 0x2C]
00000FAA  486E FE82                pea.l      [A6 - 0x17E]
00000FAE  4EAD 045A                jsr        [A5 + 0x45A /* export_135, CODE:3 @ 00002ABE */]
label00000FB2:
00000FB2  2654                     movea.l    A3, [A4]
00000FB4  286B 0016                movea.l    A4, [A3 + 0x16]
00000FB8  60AA                     bra        -0x54 /* 00000F64 */
label00000FBA:
00000FBA  6000 FAB8                bra        -0x546 /* 00000A74 */
export_85:
00000FBE  6100 F5CE                bsr        -0xA30 /* 0000058E */
00000FC2  6100 00EE                bsr        +0xF0 /* 000010B2 */
00000FC6  554F                     subq.w     A7, 2
00000FC8  2F2E 000C                move.l     -[A7], [A6 + 0xC]
00000FCC  2F0A                     move.l     -[A7], A2
00000FCE  A8AD                     syscall    PtInRect
00000FD0  4A1F                     tst.b      [A7]+
00000FD2  6700 01AA                beq        +0x1AC /* 0000117E */
00000FD6  554F                     subq.w     A7, 2
00000FD8  2F2E 000C                move.l     -[A7], [A6 + 0xC]
00000FDC  486E FF8A                pea.l      [A6 - 0x76]
00000FE0  486E FF86                pea.l      [A6 - 0x7A]
00000FE4  2F0C                     move.l     -[A7], A4
00000FE6  6100 107A                bsr        +0x107C /* 00002062 */
00000FEA  266E FF8A                movea.l    A3, [A6 - 0x76]
00000FEE  161F                     move.b     D3, [A7]+
00000FF0  4A05                     tst.b      D5
00000FF2  6600 00D6                bne        +0xD8 /* 000010CA */
00000FF6  2D6E 000C FFF6           move.l     [A6 - 0xA], [A6 + 0xC]
00000FFC  78F0                     moveq.l    D4, 0xFFFFFFF0
00000FFE  6010                     bra        +0x12 /* 00001010 */
label00001000:
00001000  554F                     subq.w     A7, 2
00001002  A974                     syscall    Button
00001004  4A1F                     tst.b      [A7]+
00001006  6700 0088                beq        +0x8A /* 00001090 */
0000100A  486E FFF6                pea.l      [A6 - 0xA]
0000100E  A972                     syscall    GetMouse
label00001010:
00001010  6100 00A0                bsr        +0xA2 /* 000010B2 */
00001014  302E FFF6                move.w     D0, [A6 - 0xA]
00001018  7414                     moveq.l    D2, 0x14
0000101A  3212                     move.w     D1, [A2]
0000101C  B041                     cmp.w      D0, D1
0000101E  6D0A                     blt        +0xC /* 0000102A */
00001020  5242                     addq.w     D2, 1
00001022  322A 0004                move.w     D1, [A2 + 0x4]
00001026  B041                     cmp.w      D0, D1
00001028  6D1C                     blt        +0x1E /* 00001046 */
label0000102A:
0000102A  2F09                     move.l     -[A7], A1
0000102C  594F                     subq.w     A7, 4
0000102E  2F09                     move.l     -[A7], A1
00001030  4EAD 0332                jsr        [A5 + 0x332 /* export_98, CODE:3 @ 000030F2 */]
00001034  3F02                     move.w     -[A7], D2
00001036  3B42 FF22                move.w     [A5 - 0xDE], D2
0000103A  4EAD 0582                jsr        [A5 + 0x582 /* export_172, CODE:3 @ 000022C6 */]
0000103E  4EAD 03DA                jsr        [A5 + 0x3DA /* export_119, CODE:3 @ 000018C4 */]
00001042  4EBA F346                jsr        [PC - 0xCBA /* 0000038A */]
label00001046:
00001046  41EE FFA6                lea.l      A0, [A6 - 0x5A]
0000104A  322E FFF6                move.w     D1, [A6 - 0xA]
0000104E  3001                     move.w     D0, D1
00001050  9044                     sub.w      D0, D4
00001052  6A02                     bpl        +0x4 /* 00001056 */
00001054  4440                     neg.w      D0
label00001056:
00001056  0C40 0010                cmpi.w     D0, 0x10
0000105A  6DA4                     blt        -0x5A /* 00001000 */
0000105C  3801                     move.w     D4, D1
0000105E  302E 000C                move.w     D0, [A6 + 0xC]
00001062  B240                     cmp.w      D1, D0
00001064  6602                     bne        +0x4 /* 00001068 */
00001066  5241                     addq.w     D1, 1
label00001068:
00001068  B240                     cmp.w      D1, D0
0000106A  6E02                     bgt        +0x4 /* 0000106E */
0000106C  C141                     exg        D0, D1
label0000106E:
0000106E  313C 0200                move.w     -[A0], 0x200
00001072  3101                     move.w     -[A0], D1
00001074  4260                     clr.w      -[A0]
00001076  3100                     move.w     -[A0], D0
00001078  1F2E 0012                move.b     -[A7], [A6 + 0x12]
0000107C  2F08                     move.l     -[A7], A0
0000107E  2F0C                     move.l     -[A7], A4
00001080  6100 2ED0                bsr        +0x2ED2 /* 00003F52 */
00001084  4A2E 0012                tst.b      [A6 + 0x12]
00001088  6600 00F4                bne        +0xF6 /* 0000117E */
0000108C  6000 FF72                bra        -0x8C /* 00001000 */
label00001090:
00001090  4A03                     tst.b      D3
00001092  6700 00F2                beq        +0xF4 /* 00001186 */
00001096  4A2E 0010                tst.b      [A6 + 0x10]
0000109A  6700 00EA                beq        +0xEC /* 00001186 */
label0000109E:
0000109E  4A2E 0012                tst.b      [A6 + 0x12]
000010A2  6600 00E2                bne        +0xE4 /* 00001186 */
000010A6  50E7                     st         -[A7]
000010A8  2F0B                     move.l     -[A7], A3
000010AA  6100 2A38                bsr        +0x2A3A /* 00003AE4 */
000010AE  6000 00D6                bra        +0xD8 /* 00001186 */
fn000010B2:
000010B2  6100 2BD8                bsr        +0x2BDA /* 00003C8C */
000010B6  57C5                     seq        D5
000010B8  41E9 0018                lea.l      A0, [A1 + 0x18]
000010BC  45EE FF96                lea.l      A2, [A6 - 0x6A]
000010C0  2520                     move.l     -[A2], -[A0]
000010C2  2520                     move.l     -[A2], -[A0]
000010C4  0652 0014                addi.w     [A2], 0x14
000010C8  4E75                     rts
label000010CA:
000010CA  4A03                     tst.b      D3
000010CC  6760                     beq        +0x62 /* 0000112E */
000010CE  1F2E FF86                move.b     -[A7], [A6 - 0x7A]
000010D2  1F2E 0012                move.b     -[A7], [A6 + 0x12]
000010D6  2F0B                     move.l     -[A7], A3
000010D8  6100 00E8                bsr        +0xEA /* 000011C2 */
000010DC  2453                     movea.l    A2, [A3]
000010DE  082A 0001 000B           btst.b     [A2 + 0xB], 0x1
000010E4  6700 0098                beq        +0x9A /* 0000117E */
000010E8  4A2E FF86                tst.b      [A6 - 0x7A]
000010EC  6606                     bne        +0x8 /* 000010F4 */
000010EE  4A2E 0010                tst.b      [A6 + 0x10]
000010F2  66AA                     bne        -0x54 /* 0000109E */
label000010F4:
000010F4  4A2E FF86                tst.b      [A6 - 0x7A]
000010F8  671E                     beq        +0x20 /* 00001118 */
000010FA  4A2D FE26                tst.b      [A5 - 0x1DA]
000010FE  6718                     beq        +0x1A /* 00001118 */
00001100  6100 FBAE                bsr        -0x450 /* 00000CB0 */
00001104  2F2E 000C                move.l     -[A7], [A6 + 0xC]
00001108  4227                     clr.b      -[A7]
0000110A  2F2D FE2C                move.l     -[A7], [A5 - 0x1D4]
0000110E  A9D4                     syscall    TEClick
00001110  6100 FC2A                bsr        -0x3D4 /* 00000D3C */
00001114  6000 0070                bra        +0x72 /* 00001186 */
label00001118:
00001118  554F                     subq.w     A7, 2
0000111A  4EAD 03CA                jsr        [A5 + 0x3CA /* export_117, CODE:3 @ 00001964 */]
0000111E  4A5F                     tst.w      [A7]+
00001120  6F0C                     ble        +0xE /* 0000112E */
00001122  2F2E 000C                move.l     -[A7], [A6 + 0xC]
00001126  2F0C                     move.l     -[A7], A4
00001128  6100 0734                bsr        +0x736 /* 0000185E */
0000112C  6058                     bra        +0x5A /* 00001186 */
label0000112E:
0000112E  1F2E 0012                move.b     -[A7], [A6 + 0x12]
00001132  B7ED FE28                cmpa.l     A3, [A5 - 0x1D8]
00001136  56E7                     sne        -[A7]
00001138  6100 0052                bsr        +0x54 /* 0000118C */
0000113C  2F2E 000C                move.l     -[A7], [A6 + 0xC]
00001140  486E FF8E                pea.l      [A6 - 0x72]
00001144  4EAD 041A                jsr        [A5 + 0x41A /* export_127, CODE:3 @ 00002CE4 */]
00001148  1F2E 0012                move.b     -[A7], [A6 + 0x12]
0000114C  486E FF8E                pea.l      [A6 - 0x72]
00001150  2F0C                     move.l     -[A7], A4
00001152  6100 2DFE                bsr        +0x2E00 /* 00003F52 */
00001156  554F                     subq.w     A7, 2
00001158  4EAD 03CA                jsr        [A5 + 0x3CA /* export_117, CODE:3 @ 00001964 */]
0000115C  4A5F                     tst.w      [A7]+
0000115E  6626                     bne        +0x28 /* 00001186 */
00001160  B9ED FE6C                cmpa.l     A4, [A5 - 0x194]
00001164  6720                     beq        +0x22 /* 00001186 */
00001166  554F                     subq.w     A7, 2
00001168  2F0C                     move.l     -[A7], A4
0000116A  6100 36EE                bsr        +0x36F0 /* 0000485A */
0000116E  4A1F                     tst.b      [A7]+
00001170  6714                     beq        +0x16 /* 00001186 */
00001172  51E7                     sf         -[A7]
00001174  51E7                     sf         -[A7]
00001176  2F0C                     move.l     -[A7], A4
00001178  6100 0048                bsr        +0x4A /* 000011C2 */
0000117C  6008                     bra        +0xA /* 00001186 */
label0000117E:
0000117E  554F                     subq.w     A7, 2
00001180  A974                     syscall    Button
00001182  4A1F                     tst.b      [A7]+
00001184  66F8                     bne        -0x6 /* 0000117E */
label00001186:
00001186  700C                     moveq.l    D0, 0x0C
00001188  6000 F436                bra        -0xBC8 /* 000005C0 */
export_33:
fn0000118C:
0000118C  2F0A                     move.l     -[A7], A2
0000118E  4A2F 000A                tst.b      [A7 + 0xA]
00001192  661C                     bne        +0x1E /* 000011B0 */
00001194  594F                     subq.w     A7, 4
00001196  2F0F                     move.l     -[A7], A7
00001198  A874                     syscall    GetPort
0000119A  246D FE5E                movea.l    A2, [A5 - 0x1A2]
0000119E  2052                     movea.l    A0, [A2]
000011A0  2F28 0028                move.l     -[A7], [A0 + 0x28]
000011A4  A873                     syscall    SetPort
000011A6  4227                     clr.b      -[A7]
000011A8  2F0A                     move.l     -[A7], A2
000011AA  6100 2E4E                bsr        +0x2E50 /* 00003FFA */
000011AE  A873                     syscall    SetPort
label000011B0:
000011B0  4A2F 0008                tst.b      [A7 + 0x8]
000011B4  6704                     beq        +0x6 /* 000011BA */
000011B6  6100 F9BC                bsr        -0x642 /* 00000B74 */
label000011BA:
000011BA  245F                     movea.l    A2, [A7]+
000011BC  205F                     movea.l    A0, [A7]+
000011BE  584F                     addq.w     A7, 4
000011C0  4ED0                     jmp        [A0]
export_34:
fn000011C2:
000011C2  6100 F3BC                bsr        -0xC42 /* 00000580 */
000011C6  2F0C                     move.l     -[A7], A4
000011C8  6100 2D52                bsr        +0x2D54 /* 00003F1C */
000011CC  6100 2ABE                bsr        +0x2AC0 /* 00003C8C */
000011D0  56C5                     sne        D5
000011D2  082B 0001 000B           btst.b     [A3 + 0xB], 0x1
000011D8  6644                     bne        +0x46 /* 0000121E */
000011DA  1F2E 000C                move.b     -[A7], [A6 + 0xC]
000011DE  B9ED FE28                cmpa.l     A4, [A5 - 0x1D8]
000011E2  56E7                     sne        -[A7]
000011E4  61A6                     bsr        -0x58 /* 0000118C */
000011E6  2B6B 000E FE5E           move.l     [A5 - 0x1A2], [A3 + 0xE]
000011EC  4A05                     tst.b      D5
000011EE  6622                     bne        +0x24 /* 00001212 */
000011F0  2F0C                     move.l     -[A7], A4
000011F2  6100 F844                bsr        -0x7BA /* 00000A38 */
000011F6  082B 0002 000B           btst.b     [A3 + 0xB], 0x2
000011FC  6614                     bne        +0x16 /* 00001212 */
000011FE  554F                     subq.w     A7, 2
00001200  4EAD 03CA                jsr        [A5 + 0x3CA /* export_117, CODE:3 @ 00001964 */]
00001204  4A5F                     tst.w      [A7]+
00001206  6E0A                     bgt        +0xC /* 00001212 */
00001208  1F2E 000E                move.b     -[A7], [A6 + 0xE]
0000120C  2F0C                     move.l     -[A7], A4
0000120E  6100 FB72                bsr        -0x48C /* 00000D82 */
label00001212:
00001212  1F3C 0001                move.b     -[A7], 0x1
00001216  2F0C                     move.l     -[A7], A4
00001218  6100 2DA4                bsr        +0x2DA6 /* 00003FBE */
0000121C  6012                     bra        +0x14 /* 00001230 */
label0000121E:
0000121E  4A2E 000C                tst.b      [A6 + 0xC]
00001222  670C                     beq        +0xE /* 00001230 */
00001224  6100 F94E                bsr        -0x6B0 /* 00000B74 */
00001228  4227                     clr.b      -[A7]
0000122A  2F0C                     move.l     -[A7], A4
0000122C  6100 2D90                bsr        +0x2D92 /* 00003FBE */
label00001230:
00001230  6000 2B7A                bra        +0x2B7C /* 00003DAC */
export_84:
00001234  6100 F34A                bsr        -0xCB4 /* 00000580 */
00001238  6738                     beq        +0x3A /* 00001272 */
0000123A  6100 F938                bsr        -0x6C6 /* 00000B74 */
0000123E  554F                     subq.w     A7, 2
00001240  4EAD 03CA                jsr        [A5 + 0x3CA /* export_117, CODE:3 @ 00001964 */]
00001244  3A1F                     move.w     D5, [A7]+
00001246  514F                     subq.w     A7, 8
00001248  2F0C                     move.l     -[A7], A4
0000124A  6100 0EF8                bsr        +0xEFA /* 00002144 */
0000124E  6100 0560                bsr        +0x562 /* 000017B0 */
00001252  2E1F                     move.l     D7, [A7]+
00001254  554F                     subq.w     A7, 2
00001256  50E7                     st         -[A7]
00001258  2F07                     move.l     -[A7], D7
0000125A  2F0C                     move.l     -[A7], A4
0000125C  6100 214A                bsr        +0x214C /* 000033A8 */
00001260  4A1F                     tst.b      [A7]+
00001262  670E                     beq        +0x10 /* 00001272 */
00001264  554F                     subq.w     A7, 2
00001266  51E7                     sf         -[A7]
00001268  2F07                     move.l     -[A7], D7
0000126A  2F0C                     move.l     -[A7], A4
0000126C  6100 1F42                bsr        +0x1F44 /* 000031B0 */
00001270  4A1F                     tst.b      [A7]+
label00001272:
00001272  6700 00B2                beq        +0xB4 /* 00001326 */
00001276  204C                     movea.l    A0, A4
00001278  A9E1                     syscall    HandToHand
0000127A  2D48 FFF6                move.l     [A6 - 0xA], A0
0000127E  08D0 0007                bset.b     [A0], 0x7
00001282  2450                     movea.l    A2, [A0]
00001284  45EA 003A                lea.l      A2, [A2 + 0x3A]
label00001288:
00001288  285A                     movea.l    A4, [A2]+
0000128A  2654                     movea.l    A3, [A4]
0000128C  082B 0001 000B           btst.b     [A3 + 0xB], 0x1
00001292  6700 006E                beq        +0x70 /* 00001302 */
00001296  0C53 0000                cmpi.w     [A3], 0x0
0000129A  6708                     beq        +0xA /* 000012A4 */
0000129C  0C53 0008                cmpi.w     [A3], 0x8
000012A0  6600 0060                bne        +0x62 /* 00001302 */
label000012A4:
000012A4  08AB 0001 000B           bclr.b     [A3 + 0xB], 0x1
000012AA  2F0C                     move.l     -[A7], A4
000012AC  6100 129A                bsr        +0x129C /* 00002548 */
000012B0  554F                     subq.w     A7, 2
000012B2  50E7                     st         -[A7]
000012B4  2F07                     move.l     -[A7], D7
000012B6  2F0C                     move.l     -[A7], A4
000012B8  6100 F392                bsr        -0xC6C /* 0000064C */
000012BC  301F                     move.w     D0, [A7]+
000012BE  6F0A                     ble        +0xC /* 000012CA */
000012C0  3F00                     move.w     -[A7], D0
000012C2  4EAD 0532                jsr        [A5 + 0x532 /* export_162, CODE:3 @ 00002640 */]
000012C6  6000 003A                bra        +0x3C /* 00001302 */
label000012CA:
000012CA  594F                     subq.w     A7, 4
000012CC  50E7                     st         -[A7]
000012CE  2F2E 0008                move.l     -[A7], [A6 + 0x8]
000012D2  2F0C                     move.l     -[A7], A4
000012D4  6100 1826                bsr        +0x1828 /* 00002AFC */
000012D8  285F                     movea.l    A4, [A7]+
000012DA  2654                     movea.l    A3, [A4]
000012DC  2F3C 0010 0020           move.l     -[A7], 0x100020
000012E2  486B 0002                pea.l      [A3 + 0x2]
000012E6  A87E                     syscall    AddPt
000012E8  08EB 0001 000B           bset.b     [A3 + 0xB], 0x1
000012EE  2F0C                     move.l     -[A7], A4
000012F0  6100 1256                bsr        +0x1258 /* 00002548 */
000012F4  50E7                     st         -[A7]
000012F6  2F2E 0008                move.l     -[A7], [A6 + 0x8]
000012FA  6100 3330                bsr        +0x3332 /* 0000462C */
000012FE  6100 342A                bsr        +0x342C /* 0000472A */
label00001302:
00001302  0C45 0001                cmpi.w     D5, 0x1
00001306  670A                     beq        +0xC /* 00001312 */
00001308  554F                     subq.w     A7, 2
0000130A  4EAD 00CA                jsr        [A5 + 0xCA /* export_21, CODE:1 @ 0000014E */]
0000130E  4A1F                     tst.b      [A7]+
00001310  6606                     bne        +0x8 /* 00001318 */
label00001312:
00001312  5346                     subq.w     D6, 1
00001314  6600 FF72                bne        -0x8C /* 00001288 */
label00001318:
00001318  206E FFF6                movea.l    A0, [A6 - 0xA]
0000131C  A023                     syscall    DisposHandle/DisposeHandle
0000131E  2F2E 0008                move.l     -[A7], [A6 + 0x8]
00001322  6100 FAE0                bsr        -0x51E /* 00000E04 */
label00001326:
00001326  6000 F74C                bra        -0x8B2 /* 00000A74 */
export_82:
fn0000132A:
0000132A  4E56 FF00                link       A6, -0x0100
0000132E  48E7 0038                movem.l    -[A7], A2,A3,A4
00001332  286E 000A                movea.l    A4, [A6 + 0xA]
00001336  266C 0098                movea.l    A3, [A4 + 0x98]
0000133A  2F0C                     move.l     -[A7], A4
0000133C  3F3C 000F                move.w     -[A7], 0xF
00001340  4EAD 04B2                jsr        [A5 + 0x4B2 /* export_146, CODE:3 @ 000028EA */]
00001344  486E FF00                pea.l      [A6 - 0x100]
00001348  A990                     syscall    GetDialogItemText/GetIText
0000134A  486E FF00                pea.l      [A6 - 0x100]
0000134E  2F0B                     move.l     -[A7], A3
00001350  6100 2CBE                bsr        +0x2CC0 /* 00004010 */
00001354  4A2E 0008                tst.b      [A6 + 0x8]
00001358  6708                     beq        +0xA /* 00001362 */
0000135A  2F0C                     move.l     -[A7], A4
0000135C  2F0B                     move.l     -[A7], A3
0000135E  6100 3554                bsr        +0x3556 /* 000048B4 */
label00001362:
00001362  246C 009C                movea.l    A2, [A4 + 0x9C]
00001366  2F0C                     move.l     -[A7], A4
00001368  A982                     syscall    CloseDialog
0000136A  204A                     movea.l    A0, A2
0000136C  A023                     syscall    DisposHandle/DisposeHandle
0000136E  2F0C                     move.l     -[A7], A4
00001370  4EAD 0322                jsr        [A5 + 0x322 /* export_96, CODE:3 @ 00003132 */]
00001374  4CDF 1C00                movem.l    A2,A3,A4, [A7]+
00001378  4E5E                     unlink     A6
0000137A  205F                     movea.l    A0, [A7]+
0000137C  5C4F                     addq.w     A7, 6
0000137E  4ED0                     jmp        [A0]
fn00001380:
00001380  48E7 1F38                movem.l    -[A7], D3,D4,D5,D6,D7,A2,A3,A4
00001384  99CC                     sub.l      A4, A4
00001386  2F2D FE5E                move.l     -[A7], [A5 - 0x1A2]
0000138A  4EBA 1078                jsr        [PC + 0x1078 /* 00002404 */]
0000138E  4EAD 04DA                jsr        [A5 + 0x4DA /* export_151, CODE:3 @ 00000C34 */]
00001392  206D FE6C                movea.l    A0, [A5 - 0x194]
00001396  2050                     movea.l    A0, [A0]
00001398  3E28 0038                move.w     D7, [A0 + 0x38]
0000139C  4268 0038                clr.w      [A0 + 0x38]
000013A0  4267                     clr.w      -[A7]
000013A2  6100 046E                bsr        +0x470 /* 00001812 */
000013A6  206D FE6C                movea.l    A0, [A5 - 0x194]
000013AA  2050                     movea.l    A0, [A0]
000013AC  3147 0038                move.w     [A0 + 0x38], D7
000013B0  554F                     subq.w     A7, 2
000013B2  2F3C 464F 424A           move.l     -[A7], 0x464F424A /* 'FOBJ' */
000013B8  A99C                     syscall    CountResources
000013BA  3E1F                     move.w     D7, [A7]+
label000013BC:
000013BC  594F                     subq.w     A7, 4
000013BE  2F3C 464F 424A           move.l     -[A7], 0x464F424A /* 'FOBJ' */
000013C4  3F07                     move.w     -[A7], D7
000013C6  A99D                     syscall    GetIndResource
000013C8  245F                     movea.l    A2, [A7]+
000013CA  200A                     move.l     D0, A2
000013CC  670C                     beq        +0xE /* 000013DA */
000013CE  2052                     movea.l    A0, [A2]
000013D0  0C50 0004                cmpi.w     [A0], 0x4
000013D4  6604                     bne        +0x6 /* 000013DA */
000013D6  2F0A                     move.l     -[A7], A2
000013D8  610A                     bsr        +0xC /* 000013E4 */
label000013DA:
000013DA  5347                     subq.w     D7, 1
000013DC  66DE                     bne        -0x20 /* 000013BC */
000013DE  4CDF 1CF8                movem.l    D3,D4,D5,D6,D7,A2,A3,A4, [A7]+
000013E2  4E75                     rts
fn000013E4:
000013E4  6100 F19A                bsr        -0xE64 /* 00000580 */
000013E8  B9ED FE28                cmpa.l     A4, [A5 - 0x1D8]
000013EC  6604                     bne        +0x6 /* 000013F2 */
000013EE  6100 F784                bsr        -0x87A /* 00000B74 */
label000013F2:
000013F2  2F0C                     move.l     -[A7], A4
000013F4  6100 2A28                bsr        +0x2A2A /* 00003E1E */
000013F8  2F0C                     move.l     -[A7], A4
000013FA  6100 31F8                bsr        +0x31FA /* 000045F4 */
000013FE  50E7                     st         -[A7]
00001400  487A 002C                pea.l      [PC + 0x2C /* 0000142E, value 0x6100F150, cstring "a" */]
00001404  42A7                     clr.l      -[A7]
00001406  486E 0008                pea.l      [A6 + 0x8]
0000140A  2F2D FE6C                move.l     -[A7], [A5 - 0x194]
0000140E  6100 0D54                bsr        +0xD56 /* 00002164 */
00001412  2654                     movea.l    A3, [A4]
00001414  362B 0024                move.w     D3, [A3 + 0x24]
00001418  3F03                     move.w     -[A7], D3
0000141A  A99A                     syscall    CloseResFile
0000141C  B66D FE5C                cmp.w      D3, [A5 - 0x1A4]
00001420  6606                     bne        +0x8 /* 00001428 */
00001422  3B78 0A5A FE5C           move.w     [A5 - 0x1A4], [0x00000A5A /* CurMap */]
label00001428:
00001428  7004                     moveq.l    D0, 0x04
0000142A  6000 F1A2                bra        -0xE5C /* 000005CE */
0000142E  6100 F150                bsr        -0xEAE /* 00000580 */
00001432  426E 0012                clr.w      [A6 + 0x12]
00001436  246E 000E                movea.l    A2, [A6 + 0xE]
0000143A  2052                     movea.l    A0, [A2]
0000143C  2050                     movea.l    A0, [A0]
0000143E  3028 0022                move.w     D0, [A0 + 0x22]
00001442  B06B 0022                cmp.w      D0, [A3 + 0x22]
00001446  661C                     bne        +0x1E /* 00001464 */
00001448  2F0C                     move.l     -[A7], A4
0000144A  6100 121A                bsr        +0x121C /* 00002666 */
0000144E  2F0C                     move.l     -[A7], A4
00001450  6100 2960                bsr        +0x2962 /* 00003DB2 */
00001454  202B 0028                move.l     D0, [A3 + 0x28]
00001458  670A                     beq        +0xC /* 00001464 */
0000145A  2F00                     move.l     -[A7], D0
0000145C  2F00                     move.l     -[A7], D0
0000145E  A92D                     syscall    CloseWindow
00001460  4EAD 0322                jsr        [A5 + 0x322 /* export_96, CODE:3 @ 00003132 */]
label00001464:
00001464  594F                     subq.w     A7, 4
00001466  3F3C 0002                move.w     -[A7], 0x2
0000146A  2F0C                     move.l     -[A7], A4
0000146C  4EAD 03D2                jsr        [A5 + 0x3D2 /* export_118, CODE:3 @ 00002EFC */]
00001470  201F                     move.l     D0, [A7]+
00001472  6708                     beq        +0xA /* 0000147C */
00001474  2F00                     move.l     -[A7], D0
00001476  51E7                     sf         -[A7]
00001478  6100 FEB0                bsr        -0x14E /* 0000132A */
label0000147C:
0000147C  6000 2ACE                bra        +0x2AD0 /* 00003F4C */
export_83:
fn00001480:
00001480  6100 F0FE                bsr        -0xF00 /* 00000580 */
00001484  082B 0007 000B           btst.b     [A3 + 0xB], 0x7
0000148A  6744                     beq        +0x46 /* 000014D0 */
0000148C  246B 0028                movea.l    A2, [A3 + 0x28]
00001490  B9ED FE5E                cmpa.l     A4, [A5 - 0x1A2]
00001494  6608                     bne        +0xA /* 0000149E */
00001496  51E7                     sf         -[A7]
00001498  50E7                     st         -[A7]
0000149A  6100 FCF0                bsr        -0x30E /* 0000118C */
label0000149E:
0000149E  2F2D FE5E                move.l     -[A7], [A5 - 0x1A2]
000014A2  6100 0F60                bsr        +0xF62 /* 00002404 */
000014A6  2F2B 000E                move.l     -[A7], [A3 + 0xE]
000014AA  6100 F304                bsr        -0xCFA /* 000007B0 */
000014AE  2F0A                     move.l     -[A7], A2
000014B0  2F0C                     move.l     -[A7], A4
000014B2  4EBA 3400                jsr        [PC + 0x3400 /* 000048B4 */]
000014B6  42AB 0028                clr.l      [A3 + 0x28]
000014BA  08AB 0007 000B           bclr.b     [A3 + 0xB], 0x7
000014C0  2F0A                     move.l     -[A7], A2
000014C2  A92D                     syscall    CloseWindow
000014C4  2F0A                     move.l     -[A7], A2
000014C6  4EAD 0322                jsr        [A5 + 0x322 /* export_96, CODE:3 @ 00003132 */]
000014CA  2F0C                     move.l     -[A7], A4
000014CC  6100 FA6C                bsr        -0x592 /* 00000F3A */
label000014D0:
000014D0  6000 F5A2                bra        -0xA5C /* 00000A74 */
fn000014D4:
000014D4  6100 F0AA                bsr        -0xF54 /* 00000580 */
000014D8  426E 0014                clr.w      [A6 + 0x14]
000014DC  4A46                     tst.w      D6
000014DE  6738                     beq        +0x3A /* 00001518 */
000014E0  70FF                     moveq.l    D0, 0xFFFFFFFF
label000014E2:
000014E2  205A                     movea.l    A0, [A2]+
000014E4  2050                     movea.l    A0, [A0]
000014E6  0C50 0000                cmpi.w     [A0], 0x0
000014EA  6628                     bne        +0x2A /* 00001514 */
000014EC  0828 0001 000B           btst.b     [A0 + 0xB], 0x1
000014F2  6720                     beq        +0x22 /* 00001514 */
000014F4  222E 000C                move.l     D1, [A6 + 0xC]
000014F8  B280                     cmp.l      D1, D0
000014FA  6706                     beq        +0x8 /* 00001502 */
000014FC  B2A8 002C                cmp.l      D1, [A0 + 0x2C]
00001500  6612                     bne        +0x14 /* 00001514 */
label00001502:
00001502  222E 0010                move.l     D1, [A6 + 0x10]
00001506  B280                     cmp.l      D1, D0
00001508  6706                     beq        +0x8 /* 00001510 */
0000150A  B2A8 0028                cmp.l      D1, [A0 + 0x28]
0000150E  6604                     bne        +0x6 /* 00001514 */
label00001510:
00001510  526E 0014                addq.w     [A6 + 0x14], 1
label00001514:
00001514  5346                     subq.w     D6, 1
00001516  66CA                     bne        -0x34 /* 000014E2 */
label00001518:
00001518  6000 FC6C                bra        -0x392 /* 00001186 */
export_80:
fn0000151C:
0000151C  6100 F062                bsr        -0xF9C /* 00000580 */
00001520  426E 000E                clr.w      [A6 + 0xE]
00001524  4A46                     tst.w      D6
00001526  6722                     beq        +0x24 /* 0000154A */
00001528  70FF                     moveq.l    D0, 0xFFFFFFFF
label0000152A:
0000152A  205A                     movea.l    A0, [A2]+
0000152C  2050                     movea.l    A0, [A0]
0000152E  0828 0001 000B           btst.b     [A0 + 0xB], 0x1
00001534  6710                     beq        +0x12 /* 00001546 */
00001536  322E 000C                move.w     D1, [A6 + 0xC]
0000153A  B240                     cmp.w      D1, D0
0000153C  6704                     beq        +0x6 /* 00001542 */
0000153E  B250                     cmp.w      D1, [A0]
00001540  6604                     bne        +0x6 /* 00001546 */
label00001542:
00001542  526E 000E                addq.w     [A6 + 0xE], 1
label00001546:
00001546  5346                     subq.w     D6, 1
00001548  66E0                     bne        -0x1E /* 0000152A */
label0000154A:
0000154A  6000 30DA                bra        +0x30DC /* 00004626 */
fn0000154E:
0000154E  6100 F030                bsr        -0xFCE /* 00000580 */
00001552  426E 0010                clr.w      [A6 + 0x10]
00001556  50E7                     st         -[A7]
00001558  487A 0012                pea.l      [PC + 0x12 /* 0000156C, value 0x6100F012, cstring "a" */]
0000155C  42A7                     clr.l      -[A7]
0000155E  486E 000C                pea.l      [A6 + 0xC]
00001562  2F0C                     move.l     -[A7], A4
00001564  6100 0BFE                bsr        +0xC00 /* 00002164 */
00001568  6000 2842                bra        +0x2844 /* 00003DAC */
0000156C  6100 F012                bsr        -0xFEC /* 00000580 */
00001570  4A53                     tst.w      [A3]
00001572  660E                     bne        +0x10 /* 00001582 */
00001574  246E 000E                movea.l    A2, [A6 + 0xE]
00001578  2E1A                     move.l     D7, [A2]+
0000157A  BEAB 0028                cmp.l      D7, [A3 + 0x28]
0000157E  6602                     bne        +0x4 /* 00001582 */
00001580  5252                     addq.w     [A2], 1
label00001582:
00001582  426E 0012                clr.w      [A6 + 0x12]
00001586  6000 29C4                bra        +0x29C6 /* 00003F4C */
fn0000158A:
0000158A  6100 EFF4                bsr        -0x100A /* 00000580 */
0000158E  7E00                     moveq.l    D7, 0x00
00001590  4A46                     tst.w      D6
00001592  6710                     beq        +0x12 /* 000015A4 */
label00001594:
00001594  554F                     subq.w     A7, 2
00001596  2F2E 000C                move.l     -[A7], [A6 + 0xC]
0000159A  2F1A                     move.l     -[A7], [A2]+
0000159C  61EC                     bsr        -0x12 /* 0000158A */
0000159E  8E5F                     or.w       D7, [A7]+
000015A0  5346                     subq.w     D6, 1
000015A2  66F0                     bne        -0xE /* 00001594 */
label000015A4:
000015A4  302B 0024                move.w     D0, [A3 + 0x24]
000015A8  B06D FE5A                cmp.w      D0, [A5 - 0x1A6]
000015AC  671E                     beq        +0x20 /* 000015CC */
000015AE  206E 000C                movea.l    A0, [A6 + 0xC]
000015B2  2050                     movea.l    A0, [A0]
000015B4  B068 0024                cmp.w      D0, [A0 + 0x24]
000015B8  6612                     bne        +0x14 /* 000015CC */
000015BA  08EB 0006 000B           bset.b     [A3 + 0xB], 0x6
000015C0  554F                     subq.w     A7, 2
000015C2  51E7                     sf         -[A7]
000015C4  2F0C                     move.l     -[A7], A4
000015C6  6100 0CCA                bsr        +0xCCC /* 00002292 */
000015CA  8E5F                     or.w       D7, [A7]+
label000015CC:
000015CC  3D47 0010                move.w     [A6 + 0x10], D7
000015D0  6000 27DA                bra        +0x27DC /* 00003DAC */
export_79:
fn000015D4:
000015D4  6100 EFAA                bsr        -0x1054 /* 00000580 */
000015D8  487A F070                pea.l      [PC - 0xF90 /* 0000064A, value 0x6100 'a\0', cstring "" */]
000015DC  2F0C                     move.l     -[A7], A4
000015DE  6100 2A30                bsr        +0x2A32 /* 00004010 */
000015E2  0C53 0000                cmpi.w     [A3], 0x0
000015E6  56C7                     sne        D7
000015E8  671E                     beq        +0x20 /* 00001608 */
000015EA  554F                     subq.w     A7, 2
000015EC  2F0C                     move.l     -[A7], A4
000015EE  A9A4                     syscall    HomeResFile
000015F0  31DF 0A5A                move.w     [0x00000A5A /* CurMap */], [A7]+
000015F4  4A46                     tst.w      D6
000015F6  6702                     beq        +0x4 /* 000015FA */
000015F8  FACE 2654                .extension 0xACE <<F/2-3/5>> // unimplemented
// begin alternate branch 000015FA-000015FC
label000015FA:
000015FA  2654                     movea.l    A3, [A4]
// end alternate branch 000015FA-000015FC
label000015FA: // (misaligned)
000015FC  4AAB 0028                tst.l      [A3 + 0x28]
00001600  6706                     beq        +0x8 /* 00001608 */
00001602  2F0C                     move.l     -[A7], A4
00001604  4EBA FE7A                jsr        [PC - 0x186 /* 00001480 */]
label00001608:
00001608  594F                     subq.w     A7, 4
0000160A  3F3C 0002                move.w     -[A7], 0x2
0000160E  2F0C                     move.l     -[A7], A4
00001610  4EAD 03D2                jsr        [A5 + 0x3D2 /* export_118, CODE:3 @ 00002EFC */]
00001614  201F                     move.l     D0, [A7]+
00001616  6708                     beq        +0xA /* 00001620 */
00001618  2F00                     move.l     -[A7], D0
0000161A  51E7                     sf         -[A7]
0000161C  6100 FD0C                bsr        -0x2F2 /* 0000132A */
label00001620:
00001620  2F0C                     move.l     -[A7], A4
00001622  6100 1042                bsr        +0x1044 /* 00002666 */
00001626  B9ED FE5E                cmpa.l     A4, [A5 - 0x1A2]
0000162A  6608                     bne        +0xA /* 00001634 */
0000162C  51E7                     sf         -[A7]
0000162E  50E7                     st         -[A7]
00001630  6100 FB5A                bsr        -0x4A4 /* 0000118C */
label00001634:
00001634  2F0C                     move.l     -[A7], A4
00001636  6100 277A                bsr        +0x277C /* 00003DB2 */
0000163A  4A07                     tst.b      D7
0000163C  6706                     beq        +0x8 /* 00001644 */
0000163E  2F0C                     move.l     -[A7], A4
00001640  A9AD                     syscall    RemoveResource/RmveResource
00001642  6006                     bra        +0x8 /* 0000164A */
label00001644:
00001644  2F0C                     move.l     -[A7], A4
00001646  6100 1116                bsr        +0x1118 /* 0000275E */
label0000164A:
0000164A  50E7                     st         -[A7]
0000164C  487A 001A                pea.l      [PC + 0x1A /* 00001668, value 0x6100EF16, cstring "a" */]
00001650  42A7                     clr.l      -[A7]
00001652  2F0C                     move.l     -[A7], A4
00001654  2F2D FE6C                move.l     -[A7], [A5 - 0x194]
00001658  6100 0B0A                bsr        +0xB0C /* 00002164 */
0000165C  204C                     movea.l    A0, A4
0000165E  A02A                     syscall    HUnlock
00001660  A023                     syscall    DisposHandle/DisposeHandle
00001662  7004                     moveq.l    D0, 0x04
00001664  6000 EF68                bra        -0x1096 /* 000005CE */
00001668  6100 EF16                bsr        -0x10E8 /* 00000580 */
0000166C  426E 0012                clr.w      [A6 + 0x12]
00001670  246E 000E                movea.l    A2, [A6 + 0xE]
00001674  B5EB 0012                cmpa.l     A2, [A3 + 0x12]
00001678  6606                     bne        +0x8 /* 00001680 */
0000167A  276B 000E 0012           move.l     [A3 + 0x12], [A3 + 0xE]
label00001680:
00001680  6000 28CA                bra        +0x28CC /* 00003F4C */
fn00001684:
00001684  6100 EEFA                bsr        -0x1104 /* 00000580 */
00001688  50E7                     st         -[A7]
0000168A  487A 0014                pea.l      [PC + 0x14 /* 000016A0, value 0x6100EEDE, cstring "a" */]
0000168E  42A7                     clr.l      -[A7]
00001690  486E 0008                pea.l      [A6 + 0x8]
00001694  2F2D FE6C                move.l     -[A7], [A5 - 0x194]
00001698  6100 0ACA                bsr        +0xACC /* 00002164 */
0000169C  6000 2F88                bra        +0x2F8A /* 00004626 */
000016A0  6100 EEDE                bsr        -0x1120 /* 00000580 */
000016A4  426E 0012                clr.w      [A6 + 0x12]
000016A8  246E 000E                movea.l    A2, [A6 + 0xE]
000016AC  2052                     movea.l    A0, [A2]
000016AE  2050                     movea.l    A0, [A0]
000016B0  3028 0022                move.w     D0, [A0 + 0x22]
000016B4  B06B 0022                cmp.w      D0, [A3 + 0x22]
000016B8  661A                     bne        +0x1C /* 000016D4 */
000016BA  4A2A 0004                tst.b      [A2 + 0x4]
000016BE  6708                     beq        +0xA /* 000016C8 */
000016C0  08EB 0002 000B           bset.b     [A3 + 0xB], 0x2
000016C6  6006                     bra        +0x8 /* 000016CE */
label000016C8:
000016C8  08AB 0002 000B           bclr.b     [A3 + 0xB], 0x2
label000016CE:
000016CE  2F0C                     move.l     -[A7], A4
000016D0  6100 0F94                bsr        +0xF96 /* 00002666 */
label000016D4:
000016D4  6000 2876                bra        +0x2878 /* 00003F4C */
export_77:
fn000016D8:
000016D8  6100 EEA6                bsr        -0x1158 /* 00000580 */
000016DC  7629                     moveq.l    D3, 0x29
000016DE  554F                     subq.w     A7, 2
000016E0  3F2B 0022                move.w     -[A7], [A3 + 0x22]
000016E4  486E FFF6                pea.l      [A6 - 0xA]
000016E8  4EAD 0552                jsr        [A5 + 0x552 /* export_166, CODE:3 @ 000025A6 */]
000016EC  301F                     move.w     D0, [A7]+
000016EE  4A2E FFF6                tst.b      [A6 - 0xA]
000016F2  660E                     bne        +0x10 /* 00001702 */
000016F4  5243                     addq.w     D3, 1
000016F6  5340                     subq.w     D0, 1
000016F8  6708                     beq        +0xA /* 00001702 */
000016FA  5243                     addq.w     D3, 1
000016FC  5340                     subq.w     D0, 1
000016FE  6702                     beq        +0x4 /* 00001702 */
00001700  5243                     addq.w     D3, 1
label00001702:
00001702  2F2E 000C                move.l     -[A7], [A6 + 0xC]
00001706  3F03                     move.w     -[A7], D3
00001708  4EAD 0462                jsr        [A5 + 0x462 /* export_136, CODE:3 @ 00002968 */]
0000170C  6000 269E                bra        +0x26A0 /* 00003DAC */
fn00001710:
00001710  6100 EE7C                bsr        -0x1182 /* 0000058E */
00001714  4EAD 02FA                jsr        [A5 + 0x2FA /* export_91, CODE:3 @ 000030E2 */]
00001718  362B 0022                move.w     D3, [A3 + 0x22]
0000171C  554F                     subq.w     A7, 2
0000171E  3F03                     move.w     -[A7], D3
00001720  4EAD 04E2                jsr        [A5 + 0x4E2 /* export_152, CODE:3 @ 0000278E */]
00001724  381F                     move.w     D4, [A7]+
00001726  486E FE82                pea.l      [A6 - 0x17E]
0000172A  2F0C                     move.l     -[A7], A4
0000172C  6100 0BC6                bsr        +0xBC8 /* 000022F4 */
00001730  2F0C                     move.l     -[A7], A4
00001732  6100 FCB0                bsr        -0x34E /* 000013E4 */
00001736  6100 2FF2                bsr        +0x2FF4 /* 0000472A */
0000173A  41EE FFA6                lea.l      A0, [A6 - 0x5A]
0000173E  42A8 0012                clr.l      [A0 + 0x12]
00001742  3143 0016                move.w     [A0 + 0x16], D3
00001746  A00E                     syscall    UnmountVol/HUnmountVol
00001748  4A2E 000C                tst.b      [A6 + 0xC]
0000174C  670C                     beq        +0xE /* 0000175A */
0000174E  554F                     subq.w     A7, 2
00001750  3F04                     move.w     -[A7], D4
00001752  3F3C 0006                move.w     -[A7], 0x6
00001756  A9E9                     syscall    Pack2
00001758  301F                     move.w     D0, [A7]+
label0000175A:
0000175A  554F                     subq.w     A7, 2
0000175C  3F04                     move.w     -[A7], D4
0000175E  486E FE82                pea.l      [A6 - 0x17E]
00001762  3F3C 000A                move.w     -[A7], 0xA /* '\n' */
00001766  A9E9                     syscall    Pack2
00001768  301F                     move.w     D0, [A7]+
0000176A  2F2D FD1C                move.l     -[A7], [A5 - 0x2E4]
0000176E  3F04                     move.w     -[A7], D4
00001770  4EAD 0312                jsr        [A5 + 0x312 /* export_94, CODE:3 @ 00003142 */]
00001774  3004                     move.w     D0, D4
00001776  6100 0C70                bsr        +0xC72 /* 000023E8 */
0000177A  3828 0016                move.w     D4, [A0 + 0x16]
0000177E  594F                     subq.w     A7, 4
00001780  3F04                     move.w     -[A7], D4
00001782  2F2D FE6C                move.l     -[A7], [A5 - 0x194]
00001786  6100 1F6A                bsr        +0x1F6C /* 000036F2 */
0000178A  245F                     movea.l    A2, [A7]+
0000178C  2D4A 000E                move.l     [A6 + 0xE], A2
00001790  2252                     movea.l    A1, [A2]
00001792  41EE FFA6                lea.l      A0, [A6 - 0x5A]
00001796  3169 0024 0018           move.w     [A0 + 0x18], [A1 + 0x24]
0000179C  217C 0000 0FA0 0024      move.l     [A0 + 0x24], 0xFA0
000017A4  A010                     syscall    Allocate/PBAllocContig/AllocContig
000017A6  4EAD 0342                jsr        [A5 + 0x342 /* export_100, CODE:3 @ 000030DA */]
000017AA  7006                     moveq.l    D0, 0x06
000017AC  6000 EE20                bra        -0x11DE /* 000005CE */
export_76:
fn000017B0:
000017B0  6100 EDCE                bsr        -0x1230 /* 00000580 */
000017B4  3C2B 0022                move.w     D6, [A3 + 0x22]
000017B8  6108                     bsr        +0xA /* 000017C2 */
000017BA  2D4B 000C                move.l     [A6 + 0xC], A3
000017BE  6000 F2B4                bra        -0xD4A /* 00000A74 */
fn000017C2:
000017C2  554F                     subq.w     A7, 2
000017C4  2F3C 464F 424A           move.l     -[A7], 0x464F424A /* 'FOBJ' */
000017CA  A99C                     syscall    CountResources
000017CC  341F                     move.w     D2, [A7]+
000017CE  6720                     beq        +0x22 /* 000017F0 */
label000017D0:
000017D0  594F                     subq.w     A7, 4
000017D2  2F3C 464F 424A           move.l     -[A7], 0x464F424A /* 'FOBJ' */
000017D8  3F02                     move.w     -[A7], D2
000017DA  A99D                     syscall    GetIndResource
000017DC  265F                     movea.l    A3, [A7]+
000017DE  2053                     movea.l    A0, [A3]
000017E0  0C50 0004                cmpi.w     [A0], 0x4
000017E4  6606                     bne        +0x8 /* 000017EC */
000017E6  BC68 0022                cmp.w      D6, [A0 + 0x22]
000017EA  6706                     beq        +0x8 /* 000017F2 */
label000017EC:
000017EC  5342                     subq.w     D2, 1
000017EE  66E0                     bne        -0x1E /* 000017D0 */
label000017F0:
000017F0  97CB                     sub.l      A3, A3
label000017F2:
000017F2  4E75                     rts
export_72:
fn000017F4:
000017F4  4E56 0000                link       A6, 0
000017F8  48E7 1F38                movem.l    -[A7], D3,D4,D5,D6,D7,A2,A3,A4
000017FC  3C2E 0008                move.w     D6, [A6 + 0x8]
00001800  61C0                     bsr        -0x3E /* 000017C2 */
00001802  2D4B 000A                move.l     [A6 + 0xA], A3
00001806  4CDF 1CF8                movem.l    D3,D4,D5,D6,D7,A2,A3,A4, [A7]+
0000180A  4E5E                     unlink     A6
0000180C  205F                     movea.l    A0, [A7]+
0000180E  544F                     addq.w     A7, 2
00001810  4ED0                     jmp        [A0]
export_75:
fn00001812:
00001812  4E56 0000                link       A6, 0
00001816  48E7 1F38                movem.l    -[A7], D3,D4,D5,D6,D7,A2,A3,A4
0000181A  286D FE68                movea.l    A4, [A5 - 0x198]
0000181E  3E2E 0008                move.w     D7, [A6 + 0x8]
00001822  2054                     movea.l    A0, [A4]
00001824  4A68 0038                tst.w      [A0 + 0x38]
00001828  6724                     beq        +0x26 /* 0000184E */
0000182A  3F07                     move.w     -[A7], D7
0000182C  2F0C                     move.l     -[A7], A4
0000182E  6100 0EF2                bsr        +0xEF4 /* 00002722 */
00001832  3F07                     move.w     -[A7], D7
00001834  4EAD 044A                jsr        [A5 + 0x44A /* export_133, CODE:3 @ 00002C72 */]
00001838  2054                     movea.l    A0, [A4]
0000183A  2028 0028                move.l     D0, [A0 + 0x28]
0000183E  6706                     beq        +0x8 /* 00001846 */
00001840  2F00                     move.l     -[A7], D0
00001842  4EAD 0452                jsr        [A5 + 0x452 /* export_134, CODE:3 @ 00002BFA */]
label00001846:
00001846  2F2D FE6C                move.l     -[A7], [A5 - 0x194]
0000184A  6100 2F6C                bsr        +0x2F6E /* 000047B8 */
label0000184E:
0000184E  4CDF 1CF8                movem.l    D3,D4,D5,D6,D7,A2,A3,A4, [A7]+
00001852  4E5E                     unlink     A6
00001854  205F                     movea.l    A0, [A7]+
00001856  544F                     addq.w     A7, 2
00001858  4ED0                     jmp        [A0]
0000185A  0000 0000                ori.b      D0, 0x0
fn0000185E:
0000185E  6100 ED2E                bsr        -0x12D0 /* 0000058E */
00001862  41FA FFF6                lea.l      A0, [PC - 0xA /* 0000185A, value 0x0, cstring "" */]
00001866  208E                     move.l     [A0], A6
00001868  42AE FF8A                clr.l      [A6 - 0x76]
0000186C  45EE FFF6                lea.l      A2, [A6 - 0xA]
00001870  24AE 000C                move.l     [A2], [A6 + 0xC]
label00001874:
00001874  554F                     subq.w     A7, 2
00001876  A974                     syscall    Button
00001878  4A1F                     tst.b      [A7]+
0000187A  6700 00D8                beq        +0xDA /* 00001954 */
0000187E  5D4F                     subq.w     A7, 6
00001880  2F0F                     move.l     -[A7], A7
00001882  A972                     syscall    GetMouse
00001884  2817                     move.l     D4, [A7]
00001886  2F12                     move.l     -[A7], [A2]
00001888  4EAD 05EA                jsr        [A5 + 0x5EA /* export_185, CODE:3 @ 00001F48 */]
0000188C  595F                     subq.w     [A7]+, 4
0000188E  6BE4                     bmi        -0x1A /* 00001874 */
00001890  554F                     subq.w     A7, 2
00001892  4EAD 03CA                jsr        [A5 + 0x3CA /* export_117, CODE:3 @ 00001964 */]
00001896  7000                     moveq.l    D0, 0x00
00001898  301F                     move.w     D0, [A7]+
0000189A  E180                     asl        D0, 8
0000189C  A122                     syscall    NewHandle, flags=1
0000189E  6B00 00AC                bmi        +0xAE /* 0000194C */
000018A2  A023                     syscall    DisposHandle/DisposeHandle
000018A4  2F0A                     move.l     -[A7], A2
000018A6  A870                     syscall    LocalToGlobal
000018A8  486E FF82                pea.l      [A6 - 0x7E]
000018AC  A874                     syscall    GetPort
000018AE  594F                     subq.w     A7, 4
000018B0  A8D8                     syscall    NewRgn
000018B2  2D57 FF86                move.l     [A6 - 0x7A], [A7]
000018B6  2F17                     move.l     -[A7], [A7]
000018B8  A8DA                     syscall    OpenRgn
000018BA  2F0C                     move.l     -[A7], A4
000018BC  6100 22F6                bsr        +0x22F8 /* 00003BB4 */
000018C0  A8DB                     syscall    CloseRgn
000018C2  2F38 09DE                move.l     -[A7], [0x000009DE /* WMgrPort */]
000018C6  A873                     syscall    SetPort
000018C8  2F38 09EE                move.l     -[A7], [0x000009EE /* GrayRgn */]
000018CC  A879                     syscall    SetClip
000018CE  206E FF82                movea.l    A0, [A6 - 0x7E]
000018D2  2F28 0008                move.l     -[A7], [A0 + 0x8]
000018D6  4457                     neg.w      [A7]
000018D8  446F 0002                neg.w      [A7 + 0x2]
000018DC  A8E0                     syscall    OffsetRgn/OfsetRgn
000018DE  41EE FF8E                lea.l      A0, [A6 - 0x72]
000018E2  20F8 0834                move.l     [A0]+, [0x00000834 /* CrsrPin */]
000018E6  20F8 0838                move.l     [A0]+, [0x00000838]
000018EA  226E FF86                movea.l    A1, [A6 - 0x7A]
000018EE  2251                     movea.l    A1, [A1]
000018F0  43E9 000A                lea.l      A1, [A1 + 0xA]
000018F4  6162                     bsr        +0x64 /* 00001958 */
000018F6  6160                     bsr        +0x62 /* 00001958 */
000018F8  0650 0014                addi.w     [A0], 0x14
000018FC  594F                     subq.w     A7, 4
000018FE  2F2E FF86                move.l     -[A7], [A6 - 0x7A]
00001902  2F12                     move.l     -[A7], [A2]
00001904  2F08                     move.l     -[A7], A0
00001906  2055                     movea.l    A0, [A5]
00001908  4868 FF72                pea.l      [A0 - 0x8E]
0000190C  4267                     clr.w      -[A7]
0000190E  487A 005A                pea.l      [PC + 0x5A /* 0000196A, value 0x48E71F3E */]
00001912  A905                     syscall    DragGrayRgn
00001914  281F                     move.l     D4, [A7]+
00001916  2F2E FF86                move.l     -[A7], [A6 - 0x7A]
0000191A  A8D9                     syscall    DisposRgn/DisposeRgn
0000191C  2F2E FF82                move.l     -[A7], [A6 - 0x7E]
00001920  A873                     syscall    SetPort
00001922  202E FF8A                move.l     D0, [A6 - 0x76]
00001926  6706                     beq        +0x8 /* 0000192E */
00001928  2F00                     move.l     -[A7], D0
0000192A  6100 0BDE                bsr        +0xBE0 /* 0000250A */
label0000192E:
0000192E  554F                     subq.w     A7, 2
00001930  2F2E FF8A                move.l     -[A7], [A6 - 0x76]
00001934  2F0C                     move.l     -[A7], A4
00001936  6100 1522                bsr        +0x1524 /* 00002E5A */
0000193A  2F04                     move.l     -[A7], D4
0000193C  2F2E FF8A                move.l     -[A7], [A6 - 0x76]
00001940  2F0C                     move.l     -[A7], A4
00001942  6100 159E                bsr        +0x15A0 /* 00002EE2 */
00001946  6100 F404                bsr        -0xBFA /* 00000D4C */
0000194A  6008                     bra        +0xA /* 00001954 */
label0000194C:
0000194C  3F3C 0043                move.w     -[A7], 0x43 /* 'C' */
00001950  4EAD 0532                jsr        [A5 + 0x532 /* export_162, CODE:3 @ 00002640 */]
label00001954:
00001954  6000 2456                bra        +0x2458 /* 00003DAC */
fn00001958:
00001958  302A 0002                move.w     D0, [A2 + 0x2]
0000195C  6100 0004                bsr        +0x6 /* 00001962 */
00001960  3012                     move.w     D0, [A2]
fn00001962:
00001962  D160                     add.w      -[A0], D0
00001964  3021                     move.w     D0, -[A1]
00001966  9150                     sub.w      [A0], D0
00001968  4E75                     rts
0000196A  48E7 1F3E                movem.l    -[A7], D3,D4,D5,D6,D7,A2,A3,A4,A5,A6
0000196E  41FA FEEA                lea.l      A0, [PC - 0x116 /* 0000185A, value 0x0, cstring "" */]
00001972  2C50                     movea.l    A6, [A0]
00001974  594F                     subq.w     A7, 4
00001976  2F0F                     move.l     -[A7], A7
00001978  A874                     syscall    GetPort
0000197A  514F                     subq.w     A7, 8
0000197C  2F0F                     move.l     -[A7], A7
0000197E  2F17                     move.l     -[A7], [A7]
00001980  A972                     syscall    GetMouse
00001982  A870                     syscall    LocalToGlobal
00001984  2B57 FD18                move.l     [A5 - 0x2E8], [A7]
00001988  45EE FF8A                lea.l      A2, [A6 - 0x76]
0000198C  4878 09FA                push.l     0x9FA
00001990  2F2D FE6C                move.l     -[A7], [A5 - 0x194]
00001994  6100 061C                bsr        +0x61E /* 00001FB2 */
00001998  265F                     movea.l    A3, [A7]+
0000199A  B7D2                     cmpa.l     A3, [A2]
0000199C  6718                     beq        +0x1A /* 000019B6 */
0000199E  4A92                     tst.l      [A2]
000019A0  6708                     beq        +0xA /* 000019AA */
000019A2  2F12                     move.l     -[A7], [A2]
000019A4  6100 0B64                bsr        +0xB66 /* 0000250A */
000019A8  4292                     clr.l      [A2]
label000019AA:
000019AA  200B                     move.l     D0, A3
000019AC  6708                     beq        +0xA /* 000019B6 */
000019AE  2F0B                     move.l     -[A7], A3
000019B0  6100 0B58                bsr        +0xB5A /* 0000250A */
000019B4  248B                     move.l     [A2], A3
label000019B6:
000019B6  A873                     syscall    SetPort
000019B8  4CDF 7CF8                movem.l    D3,D4,D5,D6,D7,A2,A3,A4,A5,A6, [A7]+
000019BC  4E75                     rts
fn000019BE:
000019BE  4267                     clr.w      -[A7]
000019C0  3F03                     move.w     -[A7], D3
000019C2  A893                     syscall    MoveTo
000019C4  3F07                     move.w     -[A7], D7
000019C6  3F03                     move.w     -[A7], D3
000019C8  A891                     syscall    LineTo
000019CA  4E75                     rts
fn000019CC:
000019CC  6100 EBC0                bsr        -0x143E /* 0000058E */
000019D0  6100 22BA                bsr        +0x22BC /* 00003C8C */
000019D4  2A01                     move.l     D5, D1
000019D6  3E29 0016                move.w     D7, [A1 + 0x16]
000019DA  45EE FF8E                lea.l      A2, [A6 - 0x72]
000019DE  7611                     moveq.l    D3, 0x11
000019E0  3483                     move.w     [A2], D3
000019E2  61DA                     bsr        -0x24 /* 000019BE */
000019E4  7613                     moveq.l    D3, 0x13
000019E6  3543 0004                move.w     [A2 + 0x4], D3
000019EA  61D2                     bsr        -0x2C /* 000019BE */
000019EC  3F3C 0001                move.w     -[A7], 0x1
000019F0  A888                     syscall    TextFace
000019F2  4267                     clr.w      -[A7]
000019F4  3F3C 000C                move.w     -[A7], 0xC
000019F8  A893                     syscall    MoveTo
000019FA  45EE FE82                lea.l      A2, [A6 - 0x17E]
000019FE  4212                     clr.b      [A2]
00001A00  0C45 0001                cmpi.w     D5, 0x1
00001A04  6600 00B0                bne        +0xB2 /* 00001AB6 */
00001A08  3606                     move.w     D3, D6
00001A0A  6100 00FC                bsr        +0xFE /* 00001B08 */
00001A0E  7819                     moveq.l    D4, 0x19
00001A10  0C46 0001                cmpi.w     D6, 0x1
00001A14  6702                     beq        +0x4 /* 00001A18 */
00001A16  5244                     addq.w     D4, 1
label00001A18:
00001A18  6100 00FA                bsr        +0xFC /* 00001B14 */
00001A1C  7606                     moveq.l    D3, 0x06
00001A1E  6100 013E                bsr        +0x140 /* 00001B5E */
00001A22  5C43                     addq.w     D3, 6
00001A24  3A03                     move.w     D5, D3
00001A26  594F                     subq.w     A7, 4
00001A28  2F0C                     move.l     -[A7], A4
00001A2A  6100 287E                bsr        +0x2880 /* 000042AA */
00001A2E  261F                     move.l     D3, [A7]+
00001A30  6100 00C0                bsr        +0xC2 /* 00001AF2 */
00001A34  781B                     moveq.l    D4, 0x1B
00001A36  6100 00DC                bsr        +0xDE /* 00001B14 */
00001A3A  7620                     moveq.l    D3, 0x20
00001A3C  6100 00EC                bsr        +0xEE /* 00001B2A */
00001A40  486E FF02                pea.l      [A6 - 0xFE]
00001A44  2F0C                     move.l     -[A7], A4
00001A46  6100 1A7A                bsr        +0x1A7C /* 000034C2 */
00001A4A  2F0A                     move.l     -[A7], A2
00001A4C  486E FF02                pea.l      [A6 - 0xFE]
00001A50  4EAD 0592                jsr        [A5 + 0x592 /* export_174, CODE:3 @ 00002284 */]
00001A54  554F                     subq.w     A7, 2
00001A56  2F0A                     move.l     -[A7], A2
00001A58  A88C                     syscall    StringWidth
00001A5A  3607                     move.w     D3, D7
00001A5C  965F                     sub.w      D3, [A7]+
00001A5E  E243                     asr        D3.w, 1
00001A60  BA43                     cmp.w      D5, D3
00001A62  6F02                     ble        +0x4 /* 00001A66 */
00001A64  3605                     move.w     D3, D5
label00001A66:
00001A66  6100 00F6                bsr        +0xF8 /* 00001B5E */
00001A6A  5C43                     addq.w     D3, 6
00001A6C  3A03                     move.w     D5, D3
00001A6E  2054                     movea.l    A0, [A4]
00001A70  3028 0024                move.w     D0, [A0 + 0x24]
00001A74  B06D FE5A                cmp.w      D0, [A5 - 0x1A6]
00001A78  6700 0070                beq        +0x72 /* 00001AEA */
00001A7C  594F                     subq.w     A7, 4
00001A7E  2F0C                     move.l     -[A7], A4
00001A80  6100 EFF8                bsr        -0x1006 /* 00000A7A */
00001A84  261F                     move.l     D3, [A7]+
00001A86  6100 006A                bsr        +0x6C /* 00001AF2 */
00001A8A  781C                     moveq.l    D4, 0x1C
00001A8C  6100 0086                bsr        +0x88 /* 00001B14 */
00001A90  554F                     subq.w     A7, 2
00001A92  2F0A                     move.l     -[A7], A2
00001A94  A88C                     syscall    StringWidth
00001A96  3607                     move.w     D3, D7
00001A98  965F                     sub.w      D3, [A7]+
00001A9A  5D43                     subq.w     D3, 6
00001A9C  BA43                     cmp.w      D5, D3
00001A9E  6F02                     ble        +0x4 /* 00001AA2 */
00001AA0  3605                     move.w     D3, D5
label00001AA2:
00001AA2  6100 00BA                bsr        +0xBC /* 00001B5E */
00001AA6  6042                     bra        +0x44 /* 00001AEA */
fn00001AA8:
00001AA8  7201                     moveq.l    D1, 0x01
00001AAA  BA40                     cmp.w      D5, D0
00001AAC  6602                     bne        +0x4 /* 00001AB0 */
00001AAE  5841                     addq.w     D1, 4
label00001AB0:
00001AB0  3F01                     move.w     -[A7], D1
00001AB2  A888                     syscall    TextFace
00001AB4  4E75                     rts
label00001AB6:
00001AB6  7815                     moveq.l    D4, 0x15
00001AB8  6100 005A                bsr        +0x5C /* 00001B14 */
00001ABC  7004                     moveq.l    D0, 0x04
00001ABE  61E8                     bsr        -0x16 /* 00001AA8 */
00001AC0  7600                     moveq.l    D3, 0x00
00001AC2  6100 0074                bsr        +0x76 /* 00001B38 */
00001AC6  5244                     addq.w     D4, 1
00001AC8  614A                     bsr        +0x4C /* 00001B14 */
00001ACA  7002                     moveq.l    D0, 0x02
00001ACC  61DA                     bsr        -0x24 /* 00001AA8 */
00001ACE  7601                     moveq.l    D3, 0x01
00001AD0  6166                     bsr        +0x68 /* 00001B38 */
00001AD2  5244                     addq.w     D4, 1
00001AD4  613E                     bsr        +0x40 /* 00001B14 */
00001AD6  7005                     moveq.l    D0, 0x05
00001AD8  61CE                     bsr        -0x30 /* 00001AA8 */
00001ADA  7602                     moveq.l    D3, 0x02
00001ADC  615A                     bsr        +0x5C /* 00001B38 */
00001ADE  5244                     addq.w     D4, 1
00001AE0  6132                     bsr        +0x34 /* 00001B14 */
00001AE2  7003                     moveq.l    D0, 0x03
00001AE4  61C2                     bsr        -0x3C /* 00001AA8 */
00001AE6  7603                     moveq.l    D3, 0x03
00001AE8  614E                     bsr        +0x50 /* 00001B38 */
label00001AEA:
00001AEA  4267                     clr.w      -[A7]
00001AEC  A888                     syscall    TextFace
00001AEE  6000 EF84                bra        -0x107A /* 00000A74 */
fn00001AF2:
00001AF2  86FC 03E8                divu.w     D3, 0x3E8
00001AF6  48C3                     ext.l      D3
00001AF8  610E                     bsr        +0x10 /* 00001B08 */
00001AFA  7000                     moveq.l    D0, 0x00
00001AFC  5212                     addq.b     [A2], 1
00001AFE  1012                     move.b     D0, [A2]
00001B00  15BC 004B 0000           move.b     [A2 + D0.w], 0x4B /* 'K' */
00001B06  4E75                     rts
fn00001B08:
00001B08  2003                     move.l     D0, D3
00001B0A  41EE FF02                lea.l      A0, [A6 - 0xFE]
00001B0E  4EAD 05E2                jsr        [A5 + 0x5E2 /* export_184, CODE:3 @ 00001F68 */]
00001B12  600A                     bra        +0xC /* 00001B1E */
fn00001B14:
00001B14  486E FF02                pea.l      [A6 - 0xFE]
00001B18  3F04                     move.w     -[A7], D4
00001B1A  4EAD 0462                jsr        [A5 + 0x462 /* export_136, CODE:3 @ 00002968 */]
label00001B1E:
00001B1E  2F0A                     move.l     -[A7], A2
00001B20  486E FF02                pea.l      [A6 - 0xFE]
00001B24  4EAD 0592                jsr        [A5 + 0x592 /* export_174, CODE:3 @ 00002284 */]
00001B28  4E75                     rts
fn00001B2A:
00001B2A  7000                     moveq.l    D0, 0x00
00001B2C  1012                     move.b     D0, [A2]
00001B2E  5200                     addq.b     D0, 1
00001B30  1480                     move.b     [A2], D0
00001B32  1583 0000                move.b     [A2 + D0.w], D3
00001B36  4E75                     rts
fn00001B38:
00001B38  594F                     subq.w     A7, 4
00001B3A  2F3C 5441 4223           move.l     -[A7], 0x54414223 /* 'TAB#' */
00001B40  3F3C 0080                move.w     -[A7], 0x80
00001B44  A9A0                     syscall    GetResource
00001B46  205F                     movea.l    A0, [A7]+
00001B48  2050                     movea.l    A0, [A0]
00001B4A  D643                     add.w      D3, D3
00001B4C  3430 3002                move.w     D2, [A0 + D3.w + 0x2]
00001B50  3630 3000                move.w     D3, [A0 + D3.w]
00001B54  9443                     sub.w      D2, D3
00001B56  2F0A                     move.l     -[A7], A2
00001B58  3F02                     move.w     -[A7], D2
00001B5A  4EAD 035A                jsr        [A5 + 0x35A /* export_103, CODE:3 @ 00003084 */]
fn00001B5E:
00001B5E  3F03                     move.w     -[A7], D3
00001B60  594F                     subq.w     A7, 4
00001B62  2F0F                     move.l     -[A7], A7
00001B64  A89A                     syscall    GetPen
00001B66  3F43 0002                move.w     [A7 + 0x2], D3
00001B6A  A893                     syscall    MoveTo
00001B6C  2F0A                     move.l     -[A7], A2
00001B6E  A884                     syscall    DrawString
00001B70  594F                     subq.w     A7, 4
00001B72  2F0F                     move.l     -[A7], A7
00001B74  A89A                     syscall    GetPen
00001B76  544F                     addq.w     A7, 2
00001B78  361F                     move.w     D3, [A7]+
00001B7A  4212                     clr.b      [A2]
00001B7C  341F                     move.w     D2, [A7]+
00001B7E  4E75                     rts
export_74:
fn00001B80:
00001B80  6100 EA0C                bsr        -0x15F2 /* 0000058E */
00001B84  2F0C                     move.l     -[A7], A4
00001B86  6100 2394                bsr        +0x2396 /* 00003F1C */
00001B8A  6100 2100                bsr        +0x2102 /* 00003C8C */
00001B8E  6700 00B8                beq        +0xBA /* 00001C48 */
00001B92  6100 0794                bsr        +0x796 /* 00002328 */
00001B96  486E FF9E                pea.l      [A6 - 0x62]
00001B9A  A8A3                     syscall    EraseRect
00001B9C  4267                     clr.w      -[A7]
00001B9E  3F2E FFA2                move.w     -[A7], [A6 - 0x5E]
00001BA2  5957                     subq.w     [A7], 4
00001BA4  A893                     syscall    MoveTo
00001BA6  45EE FE82                lea.l      A2, [A6 - 0x17E]
00001BAA  4212                     clr.b      [A2]
00001BAC  7601                     moveq.l    D3, 0x01
00001BAE  6188                     bsr        -0x76 /* 00001B38 */
00001BB0  2E03                     move.l     D7, D3
00001BB2  594F                     subq.w     A7, 4
00001BB4  2F0C                     move.l     -[A7], A4
00001BB6  6100 26F2                bsr        +0x26F4 /* 000042AA */
00001BBA  261F                     move.l     D3, [A7]+
00001BBC  6100 FF34                bsr        -0xCA /* 00001AF2 */
00001BC0  554F                     subq.w     A7, 2
00001BC2  2F0A                     move.l     -[A7], A2
00001BC4  A88C                     syscall    StringWidth
00001BC6  2607                     move.l     D3, D7
00001BC8  965F                     sub.w      D3, [A7]+
00001BCA  0443 0010                subi.w     D3, 0x10
00001BCE  618E                     bsr        -0x70 /* 00001B5E */
00001BD0  3F3C 0001                move.w     -[A7], 0x1
00001BD4  A888                     syscall    TextFace
00001BD6  2F0A                     move.l     -[A7], A2
00001BD8  2F0C                     move.l     -[A7], A4
00001BDA  6100 0718                bsr        +0x71A /* 000022F4 */
00001BDE  7601                     moveq.l    D3, 0x01
00001BE0  6100 FF56                bsr        -0xA8 /* 00001B38 */
00001BE4  2C03                     move.l     D6, D3
00001BE6  4267                     clr.w      -[A7]
00001BE8  A888                     syscall    TextFace
00001BEA  2F0A                     move.l     -[A7], A2
00001BEC  2F0C                     move.l     -[A7], A4
00001BEE  6100 18D2                bsr        +0x18D4 /* 000034C2 */
00001BF2  7602                     moveq.l    D3, 0x02
00001BF4  6100 FF42                bsr        -0xBC /* 00001B38 */
00001BF8  2F2B 001E                move.l     -[A7], [A3 + 0x1E]
00001BFC  3F3C 0200                move.w     -[A7], 0x200
00001C00  486E FE82                pea.l      [A6 - 0x17E]
00001C04  4EAD 043A                jsr        [A5 + 0x43A /* export_131, CODE:3 @ 00000000 */]
00001C08  7603                     moveq.l    D3, 0x03
00001C0A  6100 FF2C                bsr        -0xD2 /* 00001B38 */
00001C0E  082B 0002 000B           btst.b     [A3 + 0xB], 0x2
00001C14  6720                     beq        +0x22 /* 00001C36 */
00001C16  3F3C 000B                move.w     -[A7], 0xB
00001C1A  A89C                     syscall    PenMode
00001C1C  2055                     movea.l    A0, [A5]
00001C1E  4868 FFE0                pea.l      [A0 - 0x20]
00001C22  A89D                     syscall    PenPat
00001C24  41EE FF9E                lea.l      A0, [A6 - 0x62]
00001C28  3146 0006                move.w     [A0 + 0x6], D6
00001C2C  3147 0002                move.w     [A0 + 0x2], D7
00001C30  2F08                     move.l     -[A7], A0
00001C32  A8A2                     syscall    PaintRect
00001C34  A89E                     syscall    PenNormal
label00001C36:
00001C36  082B 0001 000B           btst.b     [A3 + 0xB], 0x1
00001C3C  6706                     beq        +0x8 /* 00001C44 */
00001C3E  486E FF96                pea.l      [A6 - 0x6A]
00001C42  A8A4                     syscall    InvertRect
label00001C44:
00001C44  6000 00CC                bra        +0xCE /* 00001D12 */
label00001C48:
00001C48  6100 06DE                bsr        +0x6E0 /* 00002328 */
00001C4C  7E01                     moveq.l    D7, 0x01
00001C4E  1C2B 000B                move.b     D6, [A3 + 0xB]
00001C52  6716                     beq        +0x18 /* 00001C6A */
00001C54  0806 0002                btst.b     D6, 0x2
00001C58  6606                     bne        +0x8 /* 00001C60 */
00001C5A  0806 0000                btst.b     D6, 0x0
00001C5E  6702                     beq        +0x4 /* 00001C62 */
label00001C60:
00001C60  7E02                     moveq.l    D7, 0x02
label00001C62:
00001C62  0806 0007                btst.b     D6, 0x7
00001C66  6702                     beq        +0x4 /* 00001C6A */
00001C68  7E04                     moveq.l    D7, 0x04
label00001C6A:
00001C6A  4868 FFE0                pea.l      [A0 - 0x20]
00001C6E  A89D                     syscall    PenPat
00001C70  3F3C 000A                move.w     -[A7], 0xA /* '\n' */
00001C74  A89C                     syscall    PenMode
00001C76  0807 0000                btst.b     D7, 0x0
00001C7A  6606                     bne        +0x8 /* 00001C82 */
00001C7C  486E FF96                pea.l      [A6 - 0x6A]
00001C80  A8A2                     syscall    PaintRect
label00001C82:
00001C82  3F2B 0008                move.w     -[A7], [A3 + 0x8]
00001C86  3F3C 0080                move.w     -[A7], 0x80
00001C8A  486E FF96                pea.l      [A6 - 0x6A]
00001C8E  3F3C 0003                move.w     -[A7], 0x3
00001C92  4EAD 0572                jsr        [A5 + 0x572 /* export_170, CODE:3 @ 000023EE */]
00001C96  0807 0000                btst.b     D7, 0x0
00001C9A  6606                     bne        +0x8 /* 00001CA2 */
00001C9C  486E FF96                pea.l      [A6 - 0x6A]
00001CA0  A8A2                     syscall    PaintRect
label00001CA2:
00001CA2  0C47 0003                cmpi.w     D7, 0x3
00001CA6  6C12                     bge        +0x14 /* 00001CBA */
00001CA8  3F2B 0008                move.w     -[A7], [A3 + 0x8]
00001CAC  4267                     clr.w      -[A7]
00001CAE  486E FF96                pea.l      [A6 - 0x6A]
00001CB2  3F3C 0001                move.w     -[A7], 0x1
00001CB6  4EAD 0572                jsr        [A5 + 0x572 /* export_170, CODE:3 @ 000023EE */]
label00001CBA:
00001CBA  B9ED FE28                cmpa.l     A4, [A5 - 0x1D8]
00001CBE  671A                     beq        +0x1C /* 00001CDA */
00001CC0  6100 064A                bsr        +0x64C /* 0000230C */
00001CC4  7000                     moveq.l    D0, 0x00
00001CC6  1019                     move.b     D0, [A1]+
00001CC8  2055                     movea.l    A0, [A5]
00001CCA  2F09                     move.l     -[A7], A1
00001CCC  2F00                     move.l     -[A7], D0
00001CCE  486E FF9E                pea.l      [A6 - 0x62]
00001CD2  3F3C 0001                move.w     -[A7], 0x1
00001CD6  A9CE                     syscall    TETextBox/TextBox
00001CD8  6012                     bra        +0x14 /* 00001CEC */
label00001CDA:
00001CDA  6100 EFD4                bsr        -0x102A /* 00000CB0 */
00001CDE  486E FF9E                pea.l      [A6 - 0x62]
00001CE2  2F2D FE2C                move.l     -[A7], [A5 - 0x1D4]
00001CE6  A9D3                     syscall    TEUpdate
00001CE8  6100 F052                bsr        -0xFAC /* 00000D3C */
label00001CEC:
00001CEC  0806 0001                btst.b     D6, 0x1
00001CF0  6720                     beq        +0x22 /* 00001D12 */
00001CF2  4A2D FE26                tst.b      [A5 - 0x1DA]
00001CF6  6606                     bne        +0x8 /* 00001CFE */
00001CF8  486E FF9E                pea.l      [A6 - 0x62]
00001CFC  A8A4                     syscall    InvertRect
label00001CFE:
00001CFE  3F2B 0008                move.w     -[A7], [A3 + 0x8]
00001D02  3F3C 0080                move.w     -[A7], 0x80
00001D06  486E FF96                pea.l      [A6 - 0x6A]
00001D0A  3F3C 0002                move.w     -[A7], 0x2
00001D0E  4EAD 0572                jsr        [A5 + 0x572 /* export_170, CODE:3 @ 000023EE */]
label00001D12:
00001D12  A89E                     syscall    PenNormal
00001D14  6000 ED5E                bra        -0x12A0 /* 00000A74 */
export_73:
fn00001D18:
00001D18  6100 E874                bsr        -0x178A /* 0000058E */
00001D1C  6748                     beq        +0x4A /* 00001D66 */
00001D1E  6100 1F6C                bsr        +0x1F6E /* 00003C8C */
00001D22  57C7                     seq        D7
label00001D24:
00001D24  285A                     movea.l    A4, [A2]+
00001D26  1F14                     move.b     -[A7], [A4]
00001D28  08D4 0007                bset.b     [A4], 0x7
00001D2C  2654                     movea.l    A3, [A4]
00001D2E  6100 05F8                bsr        +0x5FA /* 00002328 */
00001D32  4A07                     tst.b      D7
00001D34  6614                     bne        +0x16 /* 00001D4A */
00001D36  554F                     subq.w     A7, 2
00001D38  2F2E 000C                move.l     -[A7], [A6 + 0xC]
00001D3C  486E FF9E                pea.l      [A6 - 0x62]
00001D40  2F17                     move.l     -[A7], [A7]
00001D42  A8AA                     syscall    SectRect
00001D44  4A1F                     tst.b      [A7]+
00001D46  6718                     beq        +0x1A /* 00001D60 */
00001D48  6010                     bra        +0x12 /* 00001D5A */
label00001D4A:
00001D4A  554F                     subq.w     A7, 2
00001D4C  2F2E 000C                move.l     -[A7], [A6 + 0xC]
00001D50  2F0C                     move.l     -[A7], A4
00001D52  6100 2022                bsr        +0x2024 /* 00003D76 */
00001D56  4A1F                     tst.b      [A7]+
00001D58  6706                     beq        +0x8 /* 00001D60 */
label00001D5A:
00001D5A  2F0C                     move.l     -[A7], A4
00001D5C  6100 FE22                bsr        -0x1DC /* 00001B80 */
label00001D60:
00001D60  189F                     move.b     [A4], [A7]+
00001D62  5346                     subq.w     D6, 1
00001D64  66BE                     bne        -0x40 /* 00001D24 */
label00001D66:
00001D66  6000 2044                bra        +0x2046 /* 00003DAC */
fn00001D6A:
00001D6A  6100 E822                bsr        -0x17DC /* 0000058E */
00001D6E  31EE 000C 0A5A           move.w     [0x00000A5A /* CurMap */], [A6 + 0xC]
00001D74  6100 0596                bsr        +0x598 /* 0000230C */
00001D78  2E09                     move.l     D7, A1
00001D7A  204C                     movea.l    A0, A4
00001D7C  A9E1                     syscall    HandToHand
00001D7E  2448                     movea.l    A2, A0
00001D80  2652                     movea.l    A3, [A2]
00001D82  3013                     move.w     D0, [A3]
00001D84  0C40 0000                cmpi.w     D0, 0x0
00001D88  6756                     beq        +0x58 /* 00001DE0 */
00001D8A  486B 002C                pea.l      [A3 + 0x2C]
00001D8E  2F3C 0014 0014           move.l     -[A7], 0x140014
00001D94  A8A8                     syscall    OffsetRect
00001D96  41EB 002C                lea.l      A0, [A3 + 0x2C]
00001D9A  43ED FE70                lea.l      A1, [A5 - 0x190]
label00001D9E:
00001D9E  3010                     move.w     D0, [A0]
00001DA0  3229 0004                move.w     D1, [A1 + 0x4]
00001DA4  B041                     cmp.w      D0, D1
00001DA6  6D06                     blt        +0x8 /* 00001DAE */
00001DA8  E241                     asr        D1.w, 1
00001DAA  9350                     sub.w      [A0], D1
00001DAC  60F0                     bra        -0xE /* 00001D9E */
label00001DAE:
00001DAE  3028 0002                move.w     D0, [A0 + 0x2]
00001DB2  3229 0006                move.w     D1, [A1 + 0x6]
00001DB6  B041                     cmp.w      D0, D1
00001DB8  6D08                     blt        +0xA /* 00001DC2 */
00001DBA  E241                     asr        D1.w, 1
00001DBC  9368 0002                sub.w      [A0 + 0x2], D1
00001DC0  60EC                     bra        -0x12 /* 00001DAE */
label00001DC2:
00001DC2  426B 0038                clr.w      [A3 + 0x38]
00001DC6  2F0A                     move.l     -[A7], A2
00001DC8  2F3C 464F 424A           move.l     -[A7], 0x464F424A /* 'FOBJ' */
00001DCE  554F                     subq.w     A7, 2
00001DD0  2F2F 0002                move.l     -[A7], [A7 + 0x2]
00001DD4  A9C1                     syscall    UniqueID
00001DD6  2F07                     move.l     -[A7], D7
00001DD8  A9AB                     syscall    AddResource
00001DDA  2F0A                     move.l     -[A7], A2
00001DDC  4EAD 03A2                jsr        [A5 + 0x3A2 /* export_112, CODE:3 @ 00002F3A */]
label00001DE0:
00001DE0  2D4A 000E                move.l     [A6 + 0xE], A2
00001DE4  6000 2840                bra        +0x2842 /* 00004626 */
fn00001DE8:
00001DE8  6100 E7A4                bsr        -0x185A /* 0000058E */
00001DEC  206E 000C                movea.l    A0, [A6 + 0xC]
00001DF0  0C2B 0001 000A           cmpi.b     [A3 + 0xA], 0x1
00001DF6  670C                     beq        +0xE /* 00001E04 */
00001DF8  4298                     clr.l      [A0]+
00001DFA  E946                     asl        D6.w, 4
00001DFC  30C6                     move.w     [A0]+, D6
00001DFE  30BC 0200                move.w     [A0], 0x200
00001E02  6042                     bra        +0x44 /* 00001E46 */
label00001E04:
00001E04  4A46                     tst.w      D6
00001E06  6606                     bne        +0x8 /* 00001E0E */
00001E08  4298                     clr.l      [A0]+
00001E0A  4298                     clr.l      [A0]+
00001E0C  6038                     bra        +0x3A /* 00001E46 */
label00001E0E:
00001E0E  20FC 7FFF 7FFF           move.l     [A0]+, 0x7FFF7FFF
00001E14  20FC 8001 8001           move.l     [A0]+, 0x80018001
label00001E1A:
00001E1A  285A                     movea.l    A4, [A2]+
00001E1C  1F14                     move.b     -[A7], [A4]
00001E1E  08D4 0007                bset.b     [A4], 0x7
00001E22  2654                     movea.l    A3, [A4]
00001E24  6100 0502                bsr        +0x504 /* 00002328 */
00001E28  266E 000C                movea.l    A3, [A6 + 0xC]
00001E2C  2F0B                     move.l     -[A7], A3
00001E2E  486E FF9E                pea.l      [A6 - 0x62]
00001E32  2F0B                     move.l     -[A7], A3
00001E34  A8AB                     syscall    UnionRect
00001E36  2F0B                     move.l     -[A7], A3
00001E38  486E FF96                pea.l      [A6 - 0x6A]
00001E3C  2F0B                     move.l     -[A7], A3
00001E3E  A8AB                     syscall    UnionRect
00001E40  189F                     move.b     [A4], [A7]+
00001E42  5346                     subq.w     D6, 1
00001E44  66D4                     bne        -0x2A /* 00001E1A */
label00001E46:
00001E46  6000 1F64                bra        +0x1F66 /* 00003DAC */
export_71:
fn00001E4A:
00001E4A  6100 E742                bsr        -0x18BC /* 0000058E */
00001E4E  6100 04D8                bsr        +0x4DA /* 00002328 */
00001E52  2F0C                     move.l     -[A7], A4
00001E54  6100 20C6                bsr        +0x20C8 /* 00003F1C */
00001E58  47FA 002C                lea.l      A3, [PC + 0x2C /* 00001E86, value 0x245FA8A3 */]
00001E5C  4EAD 049A                jsr        [A5 + 0x49A /* export_143, CODE:3 @ 000027C4 */]
00001E60  B3ED FF14                cmpa.l     A1, [A5 - 0xEC]
00001E64  6604                     bne        +0x6 /* 00001E6A */
00001E66  47FA 001A                lea.l      A3, [PC + 0x1A /* 00001E82, value 0x4EED0522 */]
label00001E6A:
00001E6A  486E FF96                pea.l      [A6 - 0x6A]
00001E6E  2F17                     move.l     -[A7], [A7]
00001E70  A928                     syscall    InvalRect
00001E72  4E93                     jsr        [A3]
00001E74  486E FF9E                pea.l      [A6 - 0x62]
00001E78  2F17                     move.l     -[A7], [A7]
00001E7A  A928                     syscall    InvalRect
00001E7C  4E93                     jsr        [A3]
00001E7E  6000 EBF4                bra        -0x140A /* 00000A74 */
00001E82  4EED 0522                jmp        [A5 + 0x522 /* export_160, CODE:3 @ 0000261C */]
00001E86  245F                     movea.l    A2, [A7]+
00001E88  A8A3                     syscall    EraseRect
00001E8A  4ED2                     jmp        [A2]
export_70:
00001E8C  4E56 0000                link       A6, 0
00001E90  48E7 0060                movem.l    -[A7], A1,A2
00001E94  426E 000C                clr.w      [A6 + 0xC]
00001E98  246E 0008                movea.l    A2, [A6 + 0x8]
00001E9C  204A                     movea.l    A0, A2
00001E9E  A025                     syscall    GetHandleSize
00001EA0  6B2A                     bmi        +0x2C /* 00001ECC */
00001EA2  2252                     movea.l    A1, [A2]
00001EA4  3029 0024                move.w     D0, [A1 + 0x24]
00001EA8  6722                     beq        +0x24 /* 00001ECC */
00001EAA  3F38 0A5A                move.w     -[A7], [0x00000A5A /* CurMap */]
00001EAE  2F38 0AF2                move.l     -[A7], [0x00000AF2 /* ResErrProc */]
00001EB2  42B8 0AF2                clr.l      [0x00000AF2 /* ResErrProc */]
00001EB6  3F00                     move.w     -[A7], D0
00001EB8  A998                     syscall    UseResFile
00001EBA  21DF 0AF2                move.l     [0x00000AF2 /* ResErrProc */], [A7]+
00001EBE  31DF 0A5A                move.w     [0x00000A5A /* CurMap */], [A7]+
00001EC2  4A78 0A60                tst.w      [0x00000A60 /* ResErr */]
00001EC6  6B04                     bmi        +0x6 /* 00001ECC */
00001EC8  522E 000C                addq.b     [A6 + 0xC], 1
label00001ECC:
00001ECC  4CDF 0600                movem.l    A1,A2, [A7]+
00001ED0  4E5E                     unlink     A6
00001ED2  2E9F                     move.l     [A7], [A7]+
00001ED4  4E75                     rts
fn00001ED6:
00001ED6  6100 E6A8                bsr        -0x1956 /* 00000580 */
00001EDA  7E00                     moveq.l    D7, 0x00
00001EDC  0C53 0000                cmpi.w     [A3], 0x0
00001EE0  662C                     bne        +0x2E /* 00001F0E */
00001EE2  242B 0038                move.l     D2, [A3 + 0x38]
00001EE6  362B 0022                move.w     D3, [A3 + 0x22]
00001EEA  2278 034E                movea.l    A1, [0x0000034E /* FCBSPtr */]
00001EEE  7202                     moveq.l    D1, 0x02
label00001EF0:
00001EF0  B4B1 1000                cmp.l      D2, [A1 + D1.w]
00001EF4  660A                     bne        +0xC /* 00001F00 */
00001EF6  2071 1014                movea.l    A0, [A1 + D1.w + 0x14]
00001EFA  B668 004E                cmp.w      D3, [A0 + 0x4E]
00001EFE  670A                     beq        +0xC /* 00001F0A */
label00001F00:
00001F00  0641 001E                addi.w     D1, 0x1E
00001F04  B251                     cmp.w      D1, [A1]
00001F06  65E8                     bcs        -0x16 /* 00001EF0 */
00001F08  6004                     bra        +0x6 /* 00001F0E */
label00001F0A:
00001F0A  08C7 0002                bset.b     D7, 0x2
label00001F0E:
00001F0E  3D47 000C                move.w     [A6 + 0xC], D7
00001F12  6000 EB60                bra        -0x149E /* 00000A74 */
fn00001F16:
00001F16  6100 E668                bsr        -0x1996 /* 00000580 */
00001F1A  42AE 000C                clr.l      [A6 + 0xC]
00001F1E  2E2B 002C                move.l     D7, [A3 + 0x2C]
00001F22  675A                     beq        +0x5C /* 00001F7E */
00001F24  0C87 3F3F 3F3F           cmpi.l     D7, 0x3F3F3F3F /* '????' */
00001F2A  6752                     beq        +0x54 /* 00001F7E */
00001F2C  594F                     subq.w     A7, 4
00001F2E  3F38 0210                move.w     -[A7], [0x00000210 /* BootDrive */]
00001F32  6100 F8C0                bsr        -0x73E /* 000017F4 */
00001F36  265F                     movea.l    A3, [A7]+
00001F38  6148                     bsr        +0x4A /* 00001F82 */
00001F3A  663E                     bne        +0x40 /* 00001F7A */
00001F3C  594F                     subq.w     A7, 4
00001F3E  2F0C                     move.l     -[A7], A4
00001F40  6100 F86E                bsr        -0x790 /* 000017B0 */
00001F44  265F                     movea.l    A3, [A7]+
00001F46  613A                     bsr        +0x3C /* 00001F82 */
00001F48  6630                     bne        +0x32 /* 00001F7A */
00001F4A  554F                     subq.w     A7, 2
00001F4C  2F3C 464F 424A           move.l     -[A7], 0x464F424A /* 'FOBJ' */
00001F52  A99C                     syscall    CountResources
00001F54  3C1F                     move.w     D6, [A7]+
00001F56  6726                     beq        +0x28 /* 00001F7E */
label00001F58:
00001F58  594F                     subq.w     A7, 4
00001F5A  2F3C 464F 424A           move.l     -[A7], 0x464F424A /* 'FOBJ' */
00001F60  3F06                     move.w     -[A7], D6
00001F62  A99D                     syscall    GetIndResource
00001F64  265F                     movea.l    A3, [A7]+
00001F66  2453                     movea.l    A2, [A3]
00001F68  0C52 0004                cmpi.w     [A2], 0x4
00001F6C  6606                     bne        +0x8 /* 00001F74 */
00001F6E  6100 0012                bsr        +0x14 /* 00001F82 */
00001F72  6606                     bne        +0x8 /* 00001F7A */
label00001F74:
00001F74  5346                     subq.w     D6, 1
00001F76  66E0                     bne        -0x1E /* 00001F58 */
00001F78  97CB                     sub.l      A3, A3
label00001F7A:
00001F7A  2D4B 000C                move.l     [A6 + 0xC], A3
label00001F7E:
00001F7E  6000 EAF4                bra        -0x150A /* 00000A74 */
fn00001F82:
00001F82  2453                     movea.l    A2, [A3]
00001F84  266A 0016                movea.l    A3, [A2 + 0x16]
label00001F88:
00001F88  200B                     move.l     D0, A3
00001F8A  6722                     beq        +0x24 /* 00001FAE */
00001F8C  2453                     movea.l    A2, [A3]
00001F8E  082A 0005 0026           btst.b     [A2 + 0x26], 0x5
00001F94  6712                     beq        +0x14 /* 00001FA8 */
00001F96  262A 002C                move.l     D3, [A2 + 0x2C]
00001F9A  670C                     beq        +0xE /* 00001FA8 */
00001F9C  0C83 3F3F 3F3F           cmpi.l     D3, 0x3F3F3F3F /* '????' */
00001FA2  6704                     beq        +0x6 /* 00001FA8 */
00001FA4  BE83                     cmp.l      D7, D3
00001FA6  6706                     beq        +0x8 /* 00001FAE */
label00001FA8:
00001FA8  266A 0016                movea.l    A3, [A2 + 0x16]
00001FAC  60DA                     bra        -0x24 /* 00001F88 */
label00001FAE:
00001FAE  200B                     move.l     D0, A3
00001FB0  4E75                     rts
fn00001FB2:
00001FB2  6100 E5DA                bsr        -0x1A24 /* 0000058E */
00001FB6  47EE FF8A                lea.l      A3, [A6 - 0x76]
00001FBA  286E 000C                movea.l    A4, [A6 + 0xC]
00001FBE  4254                     clr.w      [A4]
00001FC0  594F                     subq.w     A7, 4
00001FC2  2F0F                     move.l     -[A7], A7
00001FC4  A874                     syscall    GetPort
00001FC6  7E00                     moveq.l    D7, 0x00
00001FC8  554F                     subq.w     A7, 2
00001FCA  2F2E 0010                move.l     -[A7], [A6 + 0x10]
00001FCE  2F0B                     move.l     -[A7], A3
00001FD0  A92C                     syscall    FindWindow
00001FD2  301F                     move.w     D0, [A7]+
00001FD4  5540                     subq.w     D0, 2
00001FD6  6606                     bne        +0x8 /* 00001FDE */
00001FD8  26AD FF14                move.l     [A3], [A5 - 0xEC]
00001FDC  6004                     bra        +0x6 /* 00001FE2 */
label00001FDE:
00001FDE  5340                     subq.w     D0, 1
00001FE0  6650                     bne        +0x52 /* 00002032 */
label00001FE2:
00001FE2  2053                     movea.l    A0, [A3]
00001FE4  0C68 0010 006C           cmpi.w     [A0 + 0x6C], 0x10
00001FEA  6646                     bne        +0x48 /* 00002032 */
00001FEC  2468 0098                movea.l    A2, [A0 + 0x98]
00001FF0  2252                     movea.l    A1, [A2]
00001FF2  0829 0001 000B           btst.b     [A1 + 0xB], 0x1
00001FF8  6638                     bne        +0x3A /* 00002032 */
00001FFA  2F08                     move.l     -[A7], A0
00001FFC  A873                     syscall    SetPort
00001FFE  486E 0010                pea.l      [A6 + 0x10]
00002002  A871                     syscall    GlobalToLocal
00002004  2E0A                     move.l     D7, A2
00002006  554F                     subq.w     A7, 2
00002008  2F2E 0010                move.l     -[A7], [A6 + 0x10]
0000200C  2F0B                     move.l     -[A7], A3
0000200E  486E FF86                pea.l      [A6 - 0x7A]
00002012  2F0A                     move.l     -[A7], A2
00002014  614C                     bsr        +0x4E /* 00002062 */
00002016  4A1F                     tst.b      [A7]+
00002018  6718                     beq        +0x1A /* 00002032 */
0000201A  2253                     movea.l    A1, [A3]
0000201C  2051                     movea.l    A0, [A1]
0000201E  0C50 0000                cmpi.w     [A0], 0x0
00002022  670E                     beq        +0x10 /* 00002032 */
00002024  1028 000B                move.b     D0, [A0 + 0xB]
00002028  0200 0082                andi.b     D0, 0x82
0000202C  6604                     bne        +0x6 /* 00002032 */
0000202E  2E09                     move.l     D7, A1
00002030  5214                     addq.b     [A4], 1
label00002032:
00002032  A873                     syscall    SetPort
00002034  2D47 0014                move.l     [A6 + 0x14], D7
00002038  6000 F14C                bra        -0xEB2 /* 00001186 */
fn0000203C:
0000203C  6100 E542                bsr        -0x1ABC /* 00000580 */
00002040  2E2E 000C                move.l     D7, [A6 + 0xC]
00002044  266B 0016                movea.l    A3, [A3 + 0x16]
label00002048:
00002048  200B                     move.l     D0, A3
0000204A  670E                     beq        +0x10 /* 0000205A */
0000204C  2453                     movea.l    A2, [A3]
0000204E  BEAA 0038                cmp.l      D7, [A2 + 0x38]
00002052  6706                     beq        +0x8 /* 0000205A */
00002054  266A 0016                movea.l    A3, [A2 + 0x16]
00002058  60EE                     bra        -0x10 /* 00002048 */
label0000205A:
0000205A  2D4B 0010                move.l     [A6 + 0x10], A3
0000205E  6000 1D4C                bra        +0x1D4E /* 00003DAC */
export_67:
fn00002062:
00002062  6100 E52A                bsr        -0x1AD4 /* 0000058E */
00002066  426E 0018                clr.w      [A6 + 0x18]
0000206A  4A46                     tst.w      D6
0000206C  6700 008C                beq        +0x8E /* 000020FA */
00002070  3E06                     move.w     D7, D6
00002072  3C3C 0001                move.w     D6, 0x1
00002076  3007                     move.w     D0, D7
00002078  E540                     asl        D0.w, 2
0000207A  D4C0                     add.w      A2, D0
label0000207C:
0000207C  2862                     movea.l    A4, -[A2]
0000207E  1F14                     move.b     -[A7], [A4]
00002080  08D4 0007                bset.b     [A4], 0x7
00002084  2654                     movea.l    A3, [A4]
00002086  6100 02A0                bsr        +0x2A2 /* 00002328 */
0000208A  554F                     subq.w     A7, 2
0000208C  2F2E 0014                move.l     -[A7], [A6 + 0x14]
00002090  486E FF9E                pea.l      [A6 - 0x62]
00002094  A8AD                     syscall    PtInRect
00002096  226E 000C                movea.l    A1, [A6 + 0xC]
0000209A  129F                     move.b     [A1], [A7]+
0000209C  6662                     bne        +0x64 /* 00002100 */
0000209E  554F                     subq.w     A7, 2
000020A0  2F2E 0014                move.l     -[A7], [A6 + 0x14]
000020A4  486E FF96                pea.l      [A6 - 0x6A]
000020A8  A8AD                     syscall    PtInRect
000020AA  4A1F                     tst.b      [A7]+
000020AC  6744                     beq        +0x46 /* 000020F2 */
000020AE  6100 1BDC                bsr        +0x1BDE /* 00003C8C */
000020B2  664C                     bne        +0x4E /* 00002100 */
000020B4  594F                     subq.w     A7, 4
000020B6  2F3C 4943 4E23           move.l     -[A7], 0x49434E23 /* 'ICN#' */
000020BC  3F2B 0008                move.w     -[A7], [A3 + 0x8]
000020C0  A9A0                     syscall    GetResource
000020C2  225F                     movea.l    A1, [A7]+
000020C4  2811                     move.l     D4, [A1]
000020C6  0684 0000 0080           addi.l     D4, 0x80
000020CC  362E 0014                move.w     D3, [A6 + 0x14]
000020D0  966B 0002                sub.w      D3, [A3 + 0x2]
label000020D4:
000020D4  6706                     beq        +0x8 /* 000020DC */
000020D6  5884                     addq.l     D4, 4
000020D8  5343                     subq.w     D3, 1
000020DA  60F8                     bra        -0x6 /* 000020D4 */
label000020DC:
000020DC  7600                     moveq.l    D3, 0x00
000020DE  362E 0016                move.w     D3, [A6 + 0x16]
000020E2  966B 0004                sub.w      D3, [A3 + 0x4]
000020E6  554F                     subq.w     A7, 2
000020E8  2F04                     move.l     -[A7], D4
000020EA  2F03                     move.l     -[A7], D3
000020EC  A85D                     syscall    BitTst
000020EE  4A1F                     tst.b      [A7]+
000020F0  660E                     bne        +0x10 /* 00002100 */
label000020F2:
000020F2  189F                     move.b     [A4], [A7]+
000020F4  5246                     addq.w     D6, 1
000020F6  5347                     subq.w     D7, 1
000020F8  6682                     bne        -0x7C /* 0000207C */
label000020FA:
000020FA  7010                     moveq.l    D0, 0x10
000020FC  6000 E4C2                bra        -0x1B3C /* 000005C0 */
label00002100:
00002100  189F                     move.b     [A4], [A7]+
00002102  206E 0010                movea.l    A0, [A6 + 0x10]
00002106  208C                     move.l     [A0], A4
00002108  522E 0018                addq.b     [A6 + 0x18], 1
0000210C  60EC                     bra        -0x12 /* 000020FA */
fn0000210E:
0000210E  6100 E470                bsr        -0x1B8E /* 00000580 */
label00002112:
00002112  4AAB 0028                tst.l      [A3 + 0x28]
00002116  660A                     bne        +0xC /* 00002122 */
00002118  2654                     movea.l    A3, [A4]
0000211A  286B 000E                movea.l    A4, [A3 + 0xE]
0000211E  2654                     movea.l    A3, [A4]
00002120  60F0                     bra        -0xE /* 00002112 */
label00002122:
00002122  2D4C 000C                move.l     [A6 + 0xC], A4
00002126  6000 E94C                bra        -0x16B2 /* 00000A74 */
export_68:
fn0000212A:
0000212A  6100 E454                bsr        -0x1BAA /* 00000580 */
label0000212E:
0000212E  2D4C 000C                move.l     [A6 + 0xC], A4
00002132  2654                     movea.l    A3, [A4]
00002134  286B 000E                movea.l    A4, [A3 + 0xE]
00002138  2654                     movea.l    A3, [A4]
0000213A  4AAB 0028                tst.l      [A3 + 0x28]
0000213E  67EE                     beq        -0x10 /* 0000212E */
00002140  6000 E932                bra        -0x16CC /* 00000A74 */
fn00002144:
00002144  6100 E43A                bsr        -0x1BC4 /* 00000580 */
00002148  6710                     beq        +0x12 /* 0000215A */
label0000214A:
0000214A  285A                     movea.l    A4, [A2]+
0000214C  2654                     movea.l    A3, [A4]
0000214E  082B 0001 000B           btst.b     [A3 + 0xB], 0x1
00002154  6606                     bne        +0x8 /* 0000215C */
00002156  5346                     subq.w     D6, 1
00002158  66F0                     bne        -0xE /* 0000214A */
label0000215A:
0000215A  99CC                     sub.l      A4, A4
label0000215C:
0000215C  2D4C 000C                move.l     [A6 + 0xC], A4
00002160  6000 E912                bra        -0x16EC /* 00000A74 */
export_66:
fn00002164:
00002164  6100 E41A                bsr        -0x1BE4 /* 00000580 */
00002168  204C                     movea.l    A0, A4
0000216A  A025                     syscall    GetHandleSize
0000216C  A040                     syscall    ResrvMem/ReserveMem
0000216E  A9E1                     syscall    HandToHand
00002170  2848                     movea.l    A4, A0
00002172  2654                     movea.l    A3, [A4]
00002174  08D4 0007                bset.b     [A4], 0x7
00002178  45EB 003A                lea.l      A2, [A3 + 0x3A]
0000217C  4A46                     tst.w      D6
0000217E  674A                     beq        +0x4C /* 000021CA */
00002180  7A01                     moveq.l    D5, 0x01
label00002182:
00002182  2E1A                     move.l     D7, [A2]+
00002184  41EE 0018                lea.l      A0, [A6 + 0x18]
00002188  4A10                     tst.b      [A0]
0000218A  670C                     beq        +0xE /* 00002198 */
0000218C  3F10                     move.w     -[A7], [A0]
0000218E  2F20                     move.l     -[A7], -[A0]
00002190  2F20                     move.l     -[A7], -[A0]
00002192  2F20                     move.l     -[A7], -[A0]
00002194  2F07                     move.l     -[A7], D7
00002196  61CC                     bsr        -0x32 /* 00002164 */
label00002198:
00002198  2F0A                     move.l     -[A7], A2
0000219A  554F                     subq.w     A7, 2
0000219C  2F2E 000C                move.l     -[A7], [A6 + 0xC]
000021A0  3F05                     move.w     -[A7], D5
000021A2  2F07                     move.l     -[A7], D7
000021A4  206E 0014                movea.l    A0, [A6 + 0x14]
000021A8  4E90                     jsr        [A0]
000021AA  4A1F                     tst.b      [A7]+
000021AC  6710                     beq        +0x12 /* 000021BE */
000021AE  2F2E 000C                move.l     -[A7], [A6 + 0xC]
000021B2  3F05                     move.w     -[A7], D5
000021B4  2F07                     move.l     -[A7], D7
000021B6  206E 0010                movea.l    A0, [A6 + 0x10]
000021BA  4E90                     jsr        [A0]
000021BC  5245                     addq.w     D5, 1
label000021BE:
000021BE  245F                     movea.l    A2, [A7]+
000021C0  4A2D FF20                tst.b      [A5 - 0xE0]
000021C4  6604                     bne        +0x6 /* 000021CA */
000021C6  5346                     subq.w     D6, 1
000021C8  66B8                     bne        -0x46 /* 00002182 */
label000021CA:
000021CA  204C                     movea.l    A0, A4
000021CC  A023                     syscall    DisposHandle/DisposeHandle
000021CE  7012                     moveq.l    D0, 0x12
000021D0  6000 E3EE                bra        -0x1C10 /* 000005C0 */
export_65:
fn000021D4:
000021D4  6100 E3B8                bsr        -0x1C46 /* 0000058E */
000021D8  3E2B 0024                move.w     D7, [A3 + 0x24]
000021DC  0C53 0000                cmpi.w     [A3], 0x0
000021E0  6606                     bne        +0x8 /* 000021E8 */
000021E2  2C2B 0038                move.l     D6, [A3 + 0x38]
000021E6  6018                     bra        +0x1A /* 00002200 */
label000021E8:
000021E8  2F0C                     move.l     -[A7], A4
000021EA  486E FF86                pea.l      [A6 - 0x7A]
000021EE  486E FE82                pea.l      [A6 - 0x17E]
000021F2  486E FE82                pea.l      [A6 - 0x17E]
000021F6  A9A8                     syscall    GetResInfo
000021F8  3C2E FF86                move.w     D6, [A6 - 0x7A]
000021FC  5346                     subq.w     D6, 1
000021FE  48C6                     ext.l      D6
label00002200:
00002200  2A3C 4643 4D54           move.l     D5, 0x46434D54 /* 'FCMT' */
00002206  554F                     subq.w     A7, 2
00002208  2F05                     move.l     -[A7], D5
0000220A  A99C                     syscall    CountResources
0000220C  381F                     move.w     D4, [A7]+
0000220E  671A                     beq        +0x1C /* 0000222A */
label00002210:
00002210  5D4F                     subq.w     A7, 6
00002212  2F05                     move.l     -[A7], D5
00002214  3F04                     move.w     -[A7], D4
00002216  A99D                     syscall    GetIndResource
00002218  2457                     movea.l    A2, [A7]
0000221A  A9A4                     syscall    HomeResFile
0000221C  BE5F                     cmp.w      D7, [A7]+
0000221E  6606                     bne        +0x8 /* 00002226 */
00002220  2052                     movea.l    A0, [A2]
00002222  BC98                     cmp.l      D6, [A0]+
00002224  670C                     beq        +0xE /* 00002232 */
label00002226:
00002226  5344                     subq.w     D4, 1
00002228  66E6                     bne        -0x18 /* 00002210 */
label0000222A:
0000222A  206E 000C                movea.l    A0, [A6 + 0xC]
0000222E  4210                     clr.b      [A0]
00002230  6022                     bra        +0x24 /* 00002254 */
label00002232:
00002232  7000                     moveq.l    D0, 0x00
00002234  1010                     move.b     D0, [A0]
00002236  5240                     addq.w     D0, 1
00002238  226E 000C                movea.l    A1, [A6 + 0xC]
0000223C  A02E                     syscall    BlockMove/BlockMoveData
0000223E  2F0A                     move.l     -[A7], A2
00002240  486E FF86                pea.l      [A6 - 0x7A]
00002244  486E FE82                pea.l      [A6 - 0x17E]
00002248  486E FE82                pea.l      [A6 - 0x17E]
0000224C  A9A8                     syscall    GetResInfo
0000224E  3C2E FF86                move.w     D6, [A6 - 0x7A]
00002252  48C6                     ext.l      D6
label00002254:
00002254  2D46 0010                move.l     [A6 + 0x10], D6
00002258  6000 1B52                bra        +0x1B54 /* 00003DAC */
export_64:
fn0000225C:
0000225C  6100 E322                bsr        -0x1CDC /* 00000580 */
00002260  7E00                     moveq.l    D7, 0x00
00002262  B9ED FE6C                cmpa.l     A4, [A5 - 0x194]
00002266  6722                     beq        +0x24 /* 0000228A */
00002268  4A2E 000C                tst.b      [A6 + 0xC]
0000226C  6604                     bne        +0x6 /* 00002272 */
0000226E  286B 000E                movea.l    A4, [A3 + 0xE]
label00002272:
00002272  2654                     movea.l    A3, [A4]
00002274  B9ED FE6C                cmpa.l     A4, [A5 - 0x194]
00002278  6710                     beq        +0x12 /* 0000228A */
0000227A  554F                     subq.w     A7, 2
0000227C  51E7                     sf         -[A7]
0000227E  2F0C                     move.l     -[A7], A4
00002280  6110                     bsr        +0x12 /* 00002292 */
00002282  8E5F                     or.w       D7, [A7]+
00002284  286B 000E                movea.l    A4, [A3 + 0xE]
00002288  60E8                     bra        -0x16 /* 00002272 */
label0000228A:
0000228A  3D47 000E                move.w     [A6 + 0xE], D7
0000228E  6000 2396                bra        +0x2398 /* 00004626 */
fn00002292:
00002292  6100 E2EC                bsr        -0x1D12 /* 00000580 */
00002296  7E00                     moveq.l    D7, 0x00
00002298  4A2E 000C                tst.b      [A6 + 0xC]
0000229C  6714                     beq        +0x16 /* 000022B2 */
0000229E  4A46                     tst.w      D6
000022A0  6710                     beq        +0x12 /* 000022B2 */
label000022A2:
000022A2  554F                     subq.w     A7, 2
000022A4  1F2E 000C                move.b     -[A7], [A6 + 0xC]
000022A8  2F1A                     move.l     -[A7], [A2]+
000022AA  61E6                     bsr        -0x18 /* 00002292 */
000022AC  8E5F                     or.w       D7, [A7]+
000022AE  5346                     subq.w     D6, 1
000022B0  66F0                     bne        -0xE /* 000022A2 */
label000022B2:
000022B2  0C53 0000                cmpi.w     [A3], 0x0
000022B6  6614                     bne        +0x16 /* 000022CC */
000022B8  8E2B 0026                or.b       D7, [A3 + 0x26]
000022BC  0887 0002                bclr.b     D7, 0x2
000022C0  554F                     subq.w     A7, 2
000022C2  2F0C                     move.l     -[A7], A4
000022C4  6100 FC10                bsr        -0x3EE /* 00001ED6 */
000022C8  8E5F                     or.w       D7, [A7]+
000022CA  6020                     bra        +0x22 /* 000022EC */
label000022CC:
000022CC  0C53 0008                cmpi.w     [A3], 0x8
000022D0  6606                     bne        +0x8 /* 000022D8 */
000022D2  8E2B 0026                or.b       D7, [A3 + 0x26]
000022D6  6014                     bra        +0x16 /* 000022EC */
label000022D8:
000022D8  0C53 0004                cmpi.w     [A3], 0x4
000022DC  660E                     bne        +0x10 /* 000022EC */
000022DE  082B 0007 0027           btst.b     [A3 + 0x27], 0x7
000022E4  6704                     beq        +0x6 /* 000022EA */
000022E6  08C7 0007                bset.b     D7, 0x7
label000022EA:
000022EA  4E71                     nop
label000022EC:
000022EC  3D47 000E                move.w     [A6 + 0xE], D7
000022F0  6000 2334                bra        +0x2336 /* 00004626 */
export_63:
fn000022F4:
000022F4  6100 E298                bsr        -0x1D66 /* 0000058E */
000022F8  6112                     bsr        +0x14 /* 0000230C */
000022FA  2049                     movea.l    A0, A1
000022FC  226E 000C                movea.l    A1, [A6 + 0xC]
00002300  7000                     moveq.l    D0, 0x00
00002302  1010                     move.b     D0, [A0]
00002304  5280                     addq.l     D0, 1
00002306  A02E                     syscall    BlockMove/BlockMoveData
00002308  6000 1AA2                bra        +0x1AA4 /* 00003DAC */
fn0000230C:
0000230C  0C53 0000                cmpi.w     [A3], 0x0
00002310  6710                     beq        +0x12 /* 00002322 */
00002312  43EE FE82                lea.l      A1, [A6 - 0x17E]
00002316  2F0C                     move.l     -[A7], A4
00002318  42A7                     clr.l      -[A7]
0000231A  42A7                     clr.l      -[A7]
0000231C  2F09                     move.l     -[A7], A1
0000231E  A9A8                     syscall    GetResInfo
00002320  4E75                     rts
label00002322:
00002322  43EB 003E                lea.l      A1, [A3 + 0x3E]
00002326  4E75                     rts
fn00002328:
00002328  48E7 1E20                movem.l    -[A7], D3,D4,D5,D6,A2
0000232C  4EAD 049A                jsr        [A5 + 0x49A /* export_143, CODE:3 @ 000027C4 */]
00002330  2F29 0044                move.l     -[A7], [A1 + 0x44]
00002334  2F29 0048                move.l     -[A7], [A1 + 0x48]
00002338  514F                     subq.w     A7, 8
0000233A  2F0F                     move.l     -[A7], A7
0000233C  A88B                     syscall    GetFontInfo
0000233E  3C1F                     move.w     D6, [A7]+
00002340  DC5F                     add.w      D6, [A7]+
00002342  544F                     addq.w     A7, 2
00002344  DC5F                     add.w      D6, [A7]+
00002346  B3F8 09DE                cmpa.l     A1, [0x000009DE /* WMgrPort */]
0000234A  672A                     beq        +0x2C /* 00002376 */
0000234C  6100 193E                bsr        +0x1940 /* 00003C8C */
00002350  6724                     beq        +0x26 /* 00002376 */
00002352  302B 0006                move.w     D0, [A3 + 0x6]
00002356  5340                     subq.w     D0, 1
00002358  E940                     asl        D0.w, 4
0000235A  41EE FF9E                lea.l      A0, [A6 - 0x62]
0000235E  30C0                     move.w     [A0]+, D0
00002360  4258                     clr.w      [A0]+
00002362  0640 0010                addi.w     D0, 0x10
00002366  30C0                     move.w     [A0]+, D0
00002368  30E9 0016                move.w     [A0]+, [A1 + 0x16]
0000236C  43EE FF9E                lea.l      A1, [A6 - 0x62]
00002370  2320                     move.l     -[A1], -[A0]
00002372  2320                     move.l     -[A1], -[A0]
00002374  6060                     bra        +0x62 /* 000023D6 */
label00002376:
00002376  4CAB 0018 0002           movem.w    D3,D4, [A3 + 0x2]
0000237C  45EE FF96                lea.l      A2, [A6 - 0x6A]
00002380  34C3                     move.w     [A2]+, D3
00002382  34C4                     move.w     [A2]+, D4
00002384  0643 0020                addi.w     D3, 0x20 /* ' ' */
00002388  34C3                     move.w     [A2]+, D3
0000238A  3484                     move.w     [A2], D4
0000238C  065A 0020                addi.w     [A2]+, 0x20 /* ' ' */
00002390  6100 FF7A                bsr        -0x84 /* 0000230C */
00002394  2A09                     move.l     D5, A1
00002396  554F                     subq.w     A7, 2
00002398  2F09                     move.l     -[A7], A1
0000239A  A88C                     syscall    StringWidth
0000239C  2245                     movea.l    A1, D5
0000239E  7001                     moveq.l    D0, 0x01
000023A0  D011                     add.b      D0, [A1]
000023A2  D2C0                     add.w      A1, D0
label000023A4:
000023A4  1021                     move.b     D0, -[A1]
000023A6  0C00 0020                cmpi.b     D0, 0x20 /* ' ' */
000023AA  6610                     bne        +0x12 /* 000023BC */
000023AC  2A09                     move.l     D5, A1
000023AE  554F                     subq.w     A7, 2
000023B0  3F00                     move.w     -[A7], D0
000023B2  A88D                     syscall    CharWidth
000023B4  301F                     move.w     D0, [A7]+
000023B6  D157                     add.w      [A7], D0
000023B8  2245                     movea.l    A1, D5
000023BA  60E8                     bra        -0x16 /* 000023A4 */
label000023BC:
000023BC  5857                     addq.w     [A7], 4
000023BE  3017                     move.w     D0, [A7]
000023C0  E240                     asr        D0.w, 1
000023C2  9840                     sub.w      D4, D0
000023C4  0644 000F                addi.w     D4, 0xF
000023C8  34C3                     move.w     [A2]+, D3
000023CA  34C4                     move.w     [A2]+, D4
000023CC  D646                     add.w      D3, D6
000023CE  5444                     addq.w     D4, 2
000023D0  D85F                     add.w      D4, [A7]+
000023D2  34C3                     move.w     [A2]+, D3
000023D4  34C4                     move.w     [A2]+, D4
label000023D6:
000023D6  4EAD 049A                jsr        [A5 + 0x49A /* export_143, CODE:3 @ 000027C4 */]
000023DA  235F 0048                move.l     [A1 + 0x48], [A7]+
000023DE  235F 0044                move.l     [A1 + 0x44], [A7]+
000023E2  4CDF 0478                movem.l    D3,D4,D5,D6,A2, [A7]+
000023E6  4E75                     rts
fn000023E8:
000023E8  41EE FFA6                lea.l      A0, [A6 - 0x5A]
000023EC  3140 0016                move.w     [A0 + 0x16], D0
000023F0  4268 001C                clr.w      [A0 + 0x1C]
000023F4  43EE FE82                lea.l      A1, [A6 - 0x17E]
000023F8  2149 0012                move.l     [A0 + 0x12], A1
000023FC  A007                     syscall    GetVolInfo/PBHGetVInfo/HGetVInfo
000023FE  4EAD 05B2                jsr        [A5 + 0x5B2 /* export_178, CODE:3 @ 0000200E */]
00002402  4E75                     rts
export_62:
fn00002404:
00002404  6100 E17A                bsr        -0x1E84 /* 00000580 */
00002408  6000 E66A                bra        -0x1994 /* 00000A74 */
export_61:
fn0000240C:
0000240C  4E56 FFF0                link       A6, -0x0010
00002410  48E7 0038                movem.l    -[A7], A2,A3,A4
00002414  286E 0008                movea.l    A4, [A6 + 0x8]
00002418  594F                     subq.w     A7, 4
0000241A  2F0F                     move.l     -[A7], A7
0000241C  A874                     syscall    GetPort
0000241E  2F0C                     move.l     -[A7], A4
00002420  A873                     syscall    SetPort
00002422  4EAD 0582                jsr        [A5 + 0x582 /* export_172, CODE:3 @ 000022C6 */]
00002426  486E FFF8                pea.l      [A6 - 0x8]
0000242A  486E FFF0                pea.l      [A6 - 0x10]
0000242E  4EAD 04A2                jsr        [A5 + 0x4A2 /* export_144, CODE:3 @ 00002912 */]
00002432  486E FFF8                pea.l      [A6 - 0x8]
00002436  A8A3                     syscall    EraseRect
00002438  486E FFF0                pea.l      [A6 - 0x10]
0000243C  A8A3                     syscall    EraseRect
0000243E  2F0C                     move.l     -[A7], A4
00002440  4EAD 056A                jsr        [A5 + 0x56A /* export_169, CODE:3 @ 0000244A */]
00002444  4EAD 058A                jsr        [A5 + 0x58A /* export_173, CODE:3 @ 000022C2 */]
00002448  A873                     syscall    SetPort
0000244A  4CDF 1C00                movem.l    A2,A3,A4, [A7]+
0000244E  4E5E                     unlink     A6
00002450  205F                     movea.l    A0, [A7]+
00002452  584F                     addq.w     A7, 4
00002454  4ED0                     jmp        [A0]
fn00002456:
00002456  6100 E128                bsr        -0x1ED6 /* 00000580 */
0000245A  51C0                     sf         D0
0000245C  6006                     bra        +0x8 /* 00002464 */
0000245E  6100 E120                bsr        -0x1EDE /* 00000580 */
00002462  50C0                     st         D0
label00002464:
00002464  42AE 000C                clr.l      [A6 + 0xC]
00002468  2E3C 424E 444C           move.l     D7, 0x424E444C /* 'BNDL' */
0000246E  2C3C 4652 4546           move.l     D6, 0x46524546 /* 'FREF' */
00002474  4A00                     tst.b      D0
00002476  6616                     bne        +0x18 /* 0000248E */
00002478  31F8 0A58 0A5A           move.w     [0x00000A5A /* CurMap */], [0x00000A58 /* SysMap */]
0000247E  594F                     subq.w     A7, 4
00002480  2F3C 424E 444C           move.l     -[A7], 0x424E444C /* 'BNDL' */
00002486  4267                     clr.w      -[A7]
00002488  A9A0                     syscall    GetResource
0000248A  265F                     movea.l    A3, [A7]+
0000248C  602A                     bra        +0x2C /* 000024B8 */
label0000248E:
0000248E  594F                     subq.w     A7, 4
00002490  2F2B 002C                move.l     -[A7], [A3 + 0x2C]
00002494  4267                     clr.w      -[A7]
00002496  4EAD 007A                jsr        [A5 + 0x7A /* export_11, CODE:1 @ 00000B14 */]
0000249A  201F                     move.l     D0, [A7]+
0000249C  6768                     beq        +0x6A /* 00002506 */
0000249E  594F                     subq.w     A7, 4
000024A0  2F3C 424E 444C           move.l     -[A7], 0x424E444C /* 'BNDL' */
000024A6  554F                     subq.w     A7, 2
000024A8  2F00                     move.l     -[A7], D0
000024AA  4EAD 00A2                jsr        [A5 + 0xA2 /* export_16, CODE:1 @ 0000097E */]
000024AE  4EAD 007A                jsr        [A5 + 0x7A /* export_11, CODE:1 @ 00000B14 */]
000024B2  2657                     movea.l    A3, [A7]
000024B4  4A9F                     tst.l      [A7]+
000024B6  674E                     beq        +0x50 /* 00002506 */
label000024B8:
000024B8  554F                     subq.w     A7, 2
000024BA  2F06                     move.l     -[A7], D6
000024BC  2F0B                     move.l     -[A7], A3
000024BE  4EAD 008A                jsr        [A5 + 0x8A /* export_13, CODE:1 @ 00000AA8 */]
000024C2  3A1F                     move.w     D5, [A7]+
000024C4  6740                     beq        +0x42 /* 00002506 */
label000024C6:
000024C6  594F                     subq.w     A7, 4
000024C8  2F06                     move.l     -[A7], D6
000024CA  554F                     subq.w     A7, 2
000024CC  2F06                     move.l     -[A7], D6
000024CE  3F05                     move.w     -[A7], D5
000024D0  2F0B                     move.l     -[A7], A3
000024D2  4EAD 006A                jsr        [A5 + 0x6A /* export_9, CODE:1 @ 00000B8C */]
000024D6  4EAD 007A                jsr        [A5 + 0x7A /* export_11, CODE:1 @ 00000B14 */]
000024DA  205F                     movea.l    A0, [A7]+
000024DC  2050                     movea.l    A0, [A0]
000024DE  5C88                     addq.l     A0, 6
000024E0  2254                     movea.l    A1, [A4]
000024E2  43E9 003E                lea.l      A1, [A1 + 0x3E]
000024E6  7000                     moveq.l    D0, 0x00
000024E8  1018                     move.b     D0, [A0]+
000024EA  4840                     swap.w     D0
000024EC  1019                     move.b     D0, [A1]+
000024EE  A03C                     syscall    CmpString
000024F0  6706                     beq        +0x8 /* 000024F8 */
000024F2  5345                     subq.w     D5, 1
000024F4  66D0                     bne        -0x2E /* 000024C6 */
000024F6  6006                     bra        +0x8 /* 000024FE */
label000024F8:
000024F8  51EE 000C                sf         [A6 + 0xC]
000024FC  6004                     bra        +0x6 /* 00002502 */
label000024FE:
000024FE  50EE 000C                st         [A6 + 0xC]
label00002502:
00002502  522E 000C                addq.b     [A6 + 0xC], 1
label00002506:
00002506  6000 E56C                bra        -0x1A92 /* 00000A74 */
fn0000250A:
0000250A  6100 E082                bsr        -0x1F7C /* 0000058E */
0000250E  B9ED FE6C                cmpa.l     A4, [A5 - 0x194]
00002512  6730                     beq        +0x32 /* 00002544 */
00002514  4AAB 0028                tst.l      [A3 + 0x28]
00002518  662A                     bne        +0x2C /* 00002544 */
0000251A  2F0C                     move.l     -[A7], A4
0000251C  6100 19FE                bsr        +0x1A00 /* 00003F1C */
00002520  6100 FE06                bsr        -0x1F8 /* 00002328 */
00002524  486E FF9E                pea.l      [A6 - 0x62]
00002528  A8A4                     syscall    InvertRect
0000252A  6100 1760                bsr        +0x1762 /* 00003C8C */
0000252E  6614                     bne        +0x16 /* 00002544 */
00002530  3F2B 0008                move.w     -[A7], [A3 + 0x8]
00002534  3F3C 0080                move.w     -[A7], 0x80
00002538  486E FF96                pea.l      [A6 - 0x6A]
0000253C  3F3C 0002                move.w     -[A7], 0x2
00002540  4EAD 0572                jsr        [A5 + 0x572 /* export_170, CODE:3 @ 000023EE */]
label00002544:
00002544  6000 E52E                bra        -0x1AD0 /* 00000A74 */
export_58:
fn00002548:
00002548  6100 E044                bsr        -0x1FBA /* 0000058E */
0000254C  6100 173E                bsr        +0x1740 /* 00003C8C */
00002550  6716                     beq        +0x18 /* 00002568 */
00002552  2269 0098                movea.l    A1, [A1 + 0x98]
00002556  2051                     movea.l    A0, [A1]
00002558  7000                     moveq.l    D0, 0x00
0000255A  1028 000A                move.b     D0, [A0 + 0xA]
0000255E  3F00                     move.w     -[A7], D0
00002560  2F09                     move.l     -[A7], A1
00002562  6100 2288                bsr        +0x228A /* 000047EC */
00002566  6032                     bra        +0x34 /* 0000259A */
label00002568:
00002568  6100 FDBE                bsr        -0x240 /* 00002328 */
0000256C  486E FF9E                pea.l      [A6 - 0x62]
00002570  2F3C 0000 FFF8           move.l     -[A7], 0xFFF8
00002576  A8A9                     syscall    InsetRect
00002578  486E FF9E                pea.l      [A6 - 0x62]
0000257C  A928                     syscall    InvalRect
0000257E  486E FF96                pea.l      [A6 - 0x6A]
00002582  A928                     syscall    InvalRect
00002584  6014                     bra        +0x16 /* 0000259A */
fn00002586:
00002586  6100 E006                bsr        -0x1FF8 /* 0000058E */
0000258A  6100 FD9C                bsr        -0x262 /* 00002328 */
0000258E  486E FF9E                pea.l      [A6 - 0x62]
00002592  A92A                     syscall    ValidRect
00002594  486E FF96                pea.l      [A6 - 0x6A]
00002598  A92A                     syscall    ValidRect
label0000259A:
0000259A  6000 E4D8                bra        -0x1B26 /* 00000A74 */
export_60:
0000259E  6100 DFE0                bsr        -0x201E /* 00000580 */
000025A2  4A46                     tst.w      D6
000025A4  6746                     beq        +0x48 /* 000025EC */
000025A6  554F                     subq.w     A7, 2
000025A8  3F3C FFFF                move.w     -[A7], 0xFFFF
000025AC  2F0C                     move.l     -[A7], A4
000025AE  6100 EF6C                bsr        -0x1092 /* 0000151C */
000025B2  3A17                     move.w     D5, [A7]
000025B4  3F3C 0004                move.w     -[A7], 0x4
000025B8  2F0C                     move.l     -[A7], A4
000025BA  6100 EF60                bsr        -0x109E /* 0000151C */
000025BE  BA5F                     cmp.w      D5, [A7]+
000025C0  6704                     beq        +0x6 /* 000025C6 */
000025C2  7040                     moveq.l    D0, 0x40
000025C4  6020                     bra        +0x22 /* 000025E6 */
label000025C6:
000025C6  225A                     movea.l    A1, [A2]+
000025C8  2051                     movea.l    A0, [A1]
000025CA  0828 0001 000B           btst.b     [A0 + 0xB], 0x1
000025D0  6704                     beq        +0x6 /* 000025D6 */
000025D2  2F09                     move.l     -[A7], A1
000025D4  611A                     bsr        +0x1C /* 000025F0 */
label000025D6:
000025D6  554F                     subq.w     A7, 2
000025D8  4EAD 00CA                jsr        [A5 + 0xCA /* export_21, CODE:1 @ 0000014E */]
000025DC  4A1F                     tst.b      [A7]+
000025DE  660C                     bne        +0xE /* 000025EC */
000025E0  5346                     subq.w     D6, 1
000025E2  66E2                     bne        -0x1C /* 000025C6 */
000025E4  6006                     bra        +0x8 /* 000025EC */
label000025E6:
000025E6  3F00                     move.w     -[A7], D0
000025E8  4EAD 0532                jsr        [A5 + 0x532 /* export_162, CODE:3 @ 00002640 */]
label000025EC:
000025EC  6000 E486                bra        -0x1B78 /* 00000A74 */
fn000025F0:
000025F0  6100 DF8E                bsr        -0x2070 /* 00000580 */
000025F4  0C53 0004                cmpi.w     [A3], 0x4
000025F8  66F2                     bne        -0xC /* 000025EC */
000025FA  7051                     moveq.l    D0, 0x51
000025FC  3238 0210                move.w     D1, [0x00000210 /* BootDrive */]
00002600  B26B 0022                cmp.w      D1, [A3 + 0x22]
00002604  67E0                     beq        -0x1E /* 000025E6 */
00002606  704B                     moveq.l    D0, 0x4B
00002608  082B 0007 0027           btst.b     [A3 + 0x27], 0x7
0000260E  66D6                     bne        -0x28 /* 000025E6 */
00002610  4E56 FF38                link       A6, -0x00C8
00002614  486E FF38                pea.l      [A6 - 0xC8]
00002618  2F0C                     move.l     -[A7], A4
0000261A  6100 FCD8                bsr        -0x326 /* 000022F4 */
0000261E  486E FF9C                pea.l      [A6 - 0x64]
00002622  2F0C                     move.l     -[A7], A4
00002624  6100 F0B2                bsr        -0xF4C /* 000016D8 */
00002628  486E FF38                pea.l      [A6 - 0xC8]
0000262C  486E FF9C                pea.l      [A6 - 0x64]
00002630  42A7                     clr.l      -[A7]
00002632  42A7                     clr.l      -[A7]
00002634  A98B                     syscall    ParamText
00002636  4E5E                     unlink     A6
00002638  554F                     subq.w     A7, 2
0000263A  3F3C 0085                move.w     -[A7], 0x85
0000263E  42A7                     clr.l      -[A7]
00002640  A985                     syscall    Alert
00002642  6100 20E6                bsr        +0x20E8 /* 0000472A */
00002646  555F                     subq.w     [A7]+, 2
00002648  67A2                     beq        -0x5C /* 000025EC */
0000264A  594F                     subq.w     A7, 4
0000264C  50E7                     st         -[A7]
0000264E  2F0C                     move.l     -[A7], A4
00002650  6100 F0BE                bsr        -0xF40 /* 00001710 */
00002654  4A9F                     tst.l      [A7]+
00002656  57C0                     seq        D0
00002658  812D FF20                or.b       [A5 - 0xE0], D0
0000265C  608E                     bra        -0x70 /* 000025EC */
0000265E  6100 DF20                bsr        -0x20DE /* 00000580 */
00002662  50C7                     st         D7
00002664  6006                     bra        +0x8 /* 0000266C */
export_59:
fn00002666:
00002666  6100 DF18                bsr        -0x20E6 /* 00000580 */
0000266A  51C7                     sf         D7
label0000266C:
0000266C  554F                     subq.w     A7, 2
0000266E  2F0C                     move.l     -[A7], A4
00002670  6100 21E8                bsr        +0x21EA /* 0000485A */
00002674  4A1F                     tst.b      [A7]+
00002676  6716                     beq        +0x18 /* 0000268E */
00002678  2F0C                     move.l     -[A7], A4
0000267A  6100 18A0                bsr        +0x18A2 /* 00003F1C */
0000267E  2F0C                     move.l     -[A7], A4
00002680  4A07                     tst.b      D7
00002682  6706                     beq        +0x8 /* 0000268A */
00002684  6100 FF00                bsr        -0xFE /* 00002586 */
00002688  6004                     bra        +0x6 /* 0000268E */
label0000268A:
0000268A  6100 FEBC                bsr        -0x142 /* 00002548 */
label0000268E:
0000268E  6000 E3E4                bra        -0x1C1A /* 00000A74 */
export_56:
fn00002692:
00002692  6100 DEEC                bsr        -0x2112 /* 00000580 */
00002696  2E2E 000C                move.l     D7, [A6 + 0xC]
0000269A  426E 0010                clr.w      [A6 + 0x10]
label0000269E:
0000269E  B9ED FE6C                cmpa.l     A4, [A5 - 0x194]
000026A2  6710                     beq        +0x12 /* 000026B4 */
000026A4  B9C7                     cmpa.l     A4, D7
000026A6  6708                     beq        +0xA /* 000026B0 */
000026A8  2654                     movea.l    A3, [A4]
000026AA  286B 000E                movea.l    A4, [A3 + 0xE]
000026AE  60EE                     bra        -0x10 /* 0000269E */
label000026B0:
000026B0  50EE 0010                st         [A6 + 0x10]
label000026B4:
000026B4  6000 16F6                bra        +0x16F8 /* 00003DAC */
export_57:
fn000026B8:
000026B8  6100 DEC6                bsr        -0x2138 /* 00000580 */
000026BC  50EE 000C                st         [A6 + 0xC]
000026C0  B9ED FE28                cmpa.l     A4, [A5 - 0x1D8]
000026C4  6604                     bne        +0x6 /* 000026CA */
000026C6  6100 E4AC                bsr        -0x1B52 /* 00000B74 */
label000026CA:
000026CA  4A46                     tst.w      D6
000026CC  6716                     beq        +0x18 /* 000026E4 */
label000026CE:
000026CE  554F                     subq.w     A7, 2
000026D0  2F1A                     move.l     -[A7], [A2]+
000026D2  61E4                     bsr        -0x1A /* 000026B8 */
000026D4  4A1F                     tst.b      [A7]+
000026D6  6606                     bne        +0x8 /* 000026DE */
000026D8  51EE 000C                sf         [A6 + 0xC]
000026DC  6002                     bra        +0x4 /* 000026E0 */
label000026DE:
000026DE  594A                     subq.w     A2, 4
label000026E0:
000026E0  5346                     subq.w     D6, 1
000026E2  66EA                     bne        -0x14 /* 000026CE */
label000026E4:
000026E4  4A2E 000C                tst.b      [A6 + 0xC]
000026E8  6732                     beq        +0x34 /* 0000271C */
000026EA  2654                     movea.l    A3, [A4]
000026EC  0C53 0000                cmpi.w     [A3], 0x0
000026F0  6624                     bne        +0x26 /* 00002716 */
000026F2  554F                     subq.w     A7, 2
000026F4  3F2B 0022                move.w     -[A7], [A3 + 0x22]
000026F8  3F2B 003C                move.w     -[A7], [A3 + 0x3C]
000026FC  486B 003E                pea.l      [A3 + 0x3E]
00002700  4EAD 03FA                jsr        [A5 + 0x3FA /* export_123, CODE:3 @ 00002DD6 */]
00002704  301F                     move.w     D0, [A7]+
00002706  4EAD 05B2                jsr        [A5 + 0x5B2 /* export_178, CODE:3 @ 0000200E */]
0000270A  670A                     beq        +0xC /* 00002716 */
0000270C  51EE 000C                sf         [A6 + 0xC]
00002710  0894 0007                bclr.b     [A4], 0x7
00002714  6006                     bra        +0x8 /* 0000271C */
label00002716:
00002716  2F0C                     move.l     -[A7], A4
00002718  6100 EEBA                bsr        -0x1144 /* 000015D4 */
label0000271C:
0000271C  7004                     moveq.l    D0, 0x04
0000271E  6000 DEAE                bra        -0x2150 /* 000005CE */
fn00002722:
00002722  6100 DE5C                bsr        -0x21A2 /* 00000580 */
00002726  6732                     beq        +0x34 /* 0000275A */
00002728  3E2E 000C                move.w     D7, [A6 + 0xC]
0000272C  594F                     subq.w     A7, 4
0000272E  2F0F                     move.l     -[A7], A7
00002730  A874                     syscall    GetPort
00002732  2F2B 0028                move.l     -[A7], [A3 + 0x28]
00002736  A873                     syscall    SetPort
label00002738:
00002738  285A                     movea.l    A4, [A2]+
0000273A  2654                     movea.l    A3, [A4]
0000273C  4A47                     tst.w      D7
0000273E  6706                     beq        +0x8 /* 00002746 */
00002740  BE6B 0022                cmp.w      D7, [A3 + 0x22]
00002744  660E                     bne        +0x10 /* 00002754 */
label00002746:
00002746  554F                     subq.w     A7, 2
00002748  2F0C                     move.l     -[A7], A4
0000274A  6100 FF6C                bsr        -0x92 /* 000026B8 */
0000274E  4A1F                     tst.b      [A7]+
00002750  6702                     beq        +0x4 /* 00002754 */
00002752  594A                     subq.w     A2, 4
label00002754:
00002754  5346                     subq.w     D6, 1
00002756  66E0                     bne        -0x1E /* 00002738 */
00002758  A873                     syscall    SetPort
label0000275A:
0000275A  6000 1ECA                bra        +0x1ECC /* 00004626 */
fn0000275E:
0000275E  6100 DE20                bsr        -0x21DE /* 00000580 */
00002762  7E01                     moveq.l    D7, 0x01
00002764  6006                     bra        +0x8 /* 0000276C */
fn00002766:
00002766  6100 DE18                bsr        -0x21E6 /* 00000580 */
0000276A  7E00                     moveq.l    D7, 0x00
label0000276C:
0000276C  0C53 0000                cmpi.w     [A3], 0x0
00002770  6640                     bne        +0x42 /* 000027B2 */
00002772  594F                     subq.w     A7, 4
00002774  2F0C                     move.l     -[A7], A4
00002776  6100 F038                bsr        -0xFC6 /* 000017B0 */
0000277A  245F                     movea.l    A2, [A7]+
0000277C  224A                     movea.l    A1, A2
0000277E  2051                     movea.l    A0, [A1]
label00002780:
00002780  2028 0016                move.l     D0, [A0 + 0x16]
00002784  670A                     beq        +0xC /* 00002790 */
00002786  B9C0                     cmpa.l     A4, D0
00002788  6706                     beq        +0x8 /* 00002790 */
0000278A  2240                     movea.l    A1, D0
0000278C  2051                     movea.l    A0, [A1]
0000278E  60F0                     bra        -0xE /* 00002780 */
label00002790:
00002790  4A80                     tst.l      D0
00002792  670C                     beq        +0xE /* 000027A0 */
00002794  4A07                     tst.b      D7
00002796  671A                     beq        +0x1C /* 000027B2 */
00002798  216B 0016 0016           move.l     [A0 + 0x16], [A3 + 0x16]
0000279E  6012                     bra        +0x14 /* 000027B2 */
label000027A0:
000027A0  4A07                     tst.b      D7
000027A2  660E                     bne        +0x10 /* 000027B2 */
000027A4  2252                     movea.l    A1, [A2]
000027A6  2029 0016                move.l     D0, [A1 + 0x16]
000027AA  2740 0016                move.l     [A3 + 0x16], D0
000027AE  234C 0016                move.l     [A1 + 0x16], A4
label000027B2:
000027B2  6000 E2C0                bra        -0x1D3E /* 00000A74 */
fn000027B6:
000027B6  6100 DDD6                bsr        -0x2228 /* 0000058E */
000027BA  486E FE82                pea.l      [A6 - 0x17E]
000027BE  2F0C                     move.l     -[A7], A4
000027C0  6100 FB32                bsr        -0x4CC /* 000022F4 */
000027C4  286E 000C                movea.l    A4, [A6 + 0xC]
000027C8  08D4 0007                bset.b     [A4], 0x7
000027CC  2654                     movea.l    A3, [A4]
000027CE  2F0C                     move.l     -[A7], A4
000027D0  6100 174A                bsr        +0x174C /* 00003F1C */
000027D4  6100 FB52                bsr        -0x4AC /* 00002328 */
000027D8  486E FF96                pea.l      [A6 - 0x6A]
000027DC  4EAD 0492                jsr        [A5 + 0x492 /* export_142, CODE:3 @ 000029AC */]
000027E0  0894 0007                bclr.b     [A4], 0x7
000027E4  2478 09DE                movea.l    A2, [0x000009DE /* WMgrPort */]
000027E8  2F0A                     move.l     -[A7], A2
000027EA  A873                     syscall    SetPort
000027EC  486E FF96                pea.l      [A6 - 0x6A]
000027F0  486A 0010                pea.l      [A2 + 0x10]
000027F4  50E7                     st         -[A7]
000027F6  4EAD 04F2                jsr        [A5 + 0x4F2 /* export_154, CODE:3 @ 00001B70 */]
000027FA  4EAD 038A                jsr        [A5 + 0x38A /* export_109, CODE:3 @ 00002F94 */]
000027FE  41ED FE78                lea.l      A0, [A5 - 0x188]
00002802  45EE FF96                lea.l      A2, [A6 - 0x6A]
00002806  2520                     move.l     -[A2], -[A0]
00002808  2520                     move.l     -[A2], -[A0]
0000280A  506A 0002                addq.w     [A2 + 0x2], 8
0000280E  516A 0006                subq.w     [A2 + 0x6], 8
00002812  357C 0012 0004           move.w     [A2 + 0x4], 0x12
00002818  2F0A                     move.l     -[A7], A2
0000281A  A8A3                     syscall    EraseRect
0000281C  5452                     addq.w     [A2], 2
0000281E  41EE FE82                lea.l      A0, [A6 - 0x17E]
00002822  7000                     moveq.l    D0, 0x00
00002824  1018                     move.b     D0, [A0]+
00002826  2F08                     move.l     -[A7], A0
00002828  2F00                     move.l     -[A7], D0
0000282A  2F0A                     move.l     -[A7], A2
0000282C  3F3C 0001                move.w     -[A7], 0x1
00002830  A9CE                     syscall    TETextBox/TextBox
00002832  4EAD 02FA                jsr        [A5 + 0x2FA /* export_91, CODE:3 @ 000030E2 */]
00002836  286E 0008                movea.l    A4, [A6 + 0x8]
0000283A  2654                     movea.l    A3, [A4]
0000283C  08AB 0001 000B           bclr.b     [A3 + 0xB], 0x1
00002842  3F3C 0001                move.w     -[A7], 0x1
00002846  2F2D FE5E                move.l     -[A7], [A5 - 0x1A2]
0000284A  6100 1AF8                bsr        +0x1AFA /* 00004344 */
0000284E  2F38 0AEC                move.l     -[A7], [0x00000AEC /* AppParmHandle */]
00002852  2F2D FE5E                move.l     -[A7], [A5 - 0x1A2]
00002856  615E                     bsr        +0x60 /* 000028B6 */
00002858  2078 0AEC                movea.l    A0, [0x00000AEC /* AppParmHandle */]
0000285C  2050                     movea.l    A0, [A0]
0000285E  30AE 0010                move.w     [A0], [A6 + 0x10]
00002862  3E2B 0022                move.w     D7, [A3 + 0x22]
00002866  4267                     clr.w      -[A7]
00002868  A999                     syscall    UpdateResFile
0000286A  3C38 0210                move.w     D6, [0x00000210 /* BootDrive */]
0000286E  554F                     subq.w     A7, 2
00002870  4878 02E0                push.l     0x2E0
00002874  42A7                     clr.l      -[A7]
00002876  2F0C                     move.l     -[A7], A4
00002878  6100 015A                bsr        +0x15C /* 000029D4 */
0000287C  4A5F                     tst.w      [A7]+
0000287E  6714                     beq        +0x16 /* 00002894 */
00002880  554F                     subq.w     A7, 2
00002882  4878 0AD8                push.l     0xAD8
00002886  42A7                     clr.l      -[A7]
00002888  2F0C                     move.l     -[A7], A4
0000288A  6100 0148                bsr        +0x14A /* 000029D4 */
0000288E  4A5F                     tst.w      [A7]+
00002890  6702                     beq        +0x4 /* 00002894 */
00002892  3C07                     move.w     D6, D7
label00002894:
00002894  91C8                     sub.l      A0, A0
00002896  A04B                     syscall    SetGrowZone
00002898  42B8 0338                clr.l      [0x00000338 /* EjectNotify */]
0000289C  42B8 0A6C                clr.l      [0x00000A6C /* DeskHook */]
000028A0  6100 EADE                bsr        -0x1520 /* 00001380 */
000028A4  31ED FE5A 0A5A           move.w     [0x00000A5A /* CurMap */], [A5 - 0x1A6]
000028AA  3F06                     move.w     -[A7], D6
000028AC  3F07                     move.w     -[A7], D7
000028AE  486E FE82                pea.l      [A6 - 0x17E]
000028B2  4EAD 0032                jsr        [A5 + 0x32 /* export_2, CODE:1 @ 00000280 */]
fn000028B6:
000028B6  6100 DCC8                bsr        -0x2336 /* 00000580 */
000028BA  206E 000C                movea.l    A0, [A6 + 0xC]
000028BE  7004                     moveq.l    D0, 0x04
000028C0  A024                     syscall    SetHandleSize
000028C2  2050                     movea.l    A0, [A0]
000028C4  4268 0002                clr.w      [A0 + 0x2]
000028C8  4A46                     tst.w      D6
000028CA  6754                     beq        +0x56 /* 00002920 */
000028CC  7A04                     moveq.l    D5, 0x04
000028CE  7800                     moveq.l    D4, 0x00
label000028D0:
000028D0  285A                     movea.l    A4, [A2]+
000028D2  2654                     movea.l    A3, [A4]
000028D4  082B 0001 000B           btst.b     [A3 + 0xB], 0x1
000028DA  6740                     beq        +0x42 /* 0000291C */
000028DC  0C53 0000                cmpi.w     [A3], 0x0
000028E0  663A                     bne        +0x3C /* 0000291C */
000028E2  43EB 003E                lea.l      A1, [A3 + 0x3E]
000028E6  7000                     moveq.l    D0, 0x00
000028E8  1011                     move.b     D0, [A1]
000028EA  5440                     addq.w     D0, 2
000028EC  0240 FFFE                andi.w     D0, 0xFFFE
000028F0  2200                     move.l     D1, D0
000028F2  2405                     move.l     D2, D5
000028F4  5040                     addq.w     D0, 8
000028F6  D085                     add.l      D0, D5
000028F8  2A00                     move.l     D5, D0
000028FA  206E 000C                movea.l    A0, [A6 + 0xC]
000028FE  A024                     syscall    SetHandleSize
00002900  2050                     movea.l    A0, [A0]
00002902  5244                     addq.w     D4, 1
00002904  3144 0002                move.w     [A0 + 0x2], D4
00002908  D1C2                     add.l      A0, D2
0000290A  30EB 0022                move.w     [A0]+, [A3 + 0x22]
0000290E  20EB 0028                move.l     [A0]+, [A3 + 0x28]
00002912  30EB 003C                move.w     [A0]+, [A3 + 0x3C]
00002916  C149                     exg        A0, A1
00002918  2001                     move.l     D0, D1
0000291A  A02E                     syscall    BlockMove/BlockMoveData
label0000291C:
0000291C  5346                     subq.w     D6, 1
0000291E  66B0                     bne        -0x4E /* 000028D0 */
label00002920:
00002920  6000 148A                bra        +0x148C /* 00003DAC */
fn00002924:
00002924  6100 DC68                bsr        -0x2396 /* 0000058E */
00002928  3C2B 0022                move.w     D6, [A3 + 0x22]
0000292C  3006                     move.w     D0, D6
0000292E  4EBA FAB8                jsr        [PC - 0x548 /* 000023E8 */]
00002932  3A28 0028                move.w     D5, [A0 + 0x28]
00002936  3768 0026 0026           move.w     [A3 + 0x26], [A0 + 0x26]
0000293C  2768 001E 001A           move.l     [A3 + 0x1A], [A0 + 0x1E]
00002942  2768 0022 001E           move.l     [A3 + 0x1E], [A0 + 0x22]
00002948  7601                     moveq.l    D3, 0x01
0000294A  4A2E 000C                tst.b      [A6 + 0xC]
0000294E  670E                     beq        +0x10 /* 0000295E */
00002950  2F09                     move.l     -[A7], A1
00002952  2F0C                     move.l     -[A7], A4
00002954  6100 174E                bsr        +0x1750 /* 000040A4 */
00002958  2F0C                     move.l     -[A7], A4
0000295A  6100 FD0A                bsr        -0x2F4 /* 00002666 */
label0000295E:
0000295E  41EE FFA6                lea.l      A0, [A6 - 0x5A]
00002962  3146 0016                move.w     [A0 + 0x16], D6
00002966  3143 001C                move.w     [A0 + 0x1C], D3
0000296A  A00C                     syscall    GetFileInfo/PBHGetFInfo/HGetFileInfo
0000296C  1168 001F 001A           move.b     [A0 + 0x1A], [A0 + 0x1F]
00002972  0828 0006 0028           btst.b     [A0 + 0x28], 0x6
00002978  660E                     bne        +0x10 /* 00002988 */
0000297A  594F                     subq.w     A7, 4
0000297C  486E FFA6                pea.l      [A6 - 0x5A]
00002980  2F0C                     move.l     -[A7], A4
00002982  6100 0632                bsr        +0x634 /* 00002FB6 */
00002986  584F                     addq.w     A7, 4
label00002988:
00002988  5243                     addq.w     D3, 1
0000298A  BA43                     cmp.w      D5, D3
0000298C  6CD0                     bge        -0x2E /* 0000295E */
0000298E  2654                     movea.l    A3, [A4]
00002990  266B 0016                movea.l    A3, [A3 + 0x16]
label00002994:
00002994  200B                     move.l     D0, A3
00002996  6710                     beq        +0x12 /* 000029A8 */
00002998  2F0C                     move.l     -[A7], A4
0000299A  2F0B                     move.l     -[A7], A3
0000299C  6100 DE78                bsr        -0x2186 /* 00000816 */
000029A0  2453                     movea.l    A2, [A3]
000029A2  266A 0016                movea.l    A3, [A2 + 0x16]
000029A6  60EC                     bra        -0x12 /* 00002994 */
label000029A8:
000029A8  2654                     movea.l    A3, [A4]
000029AA  266B 0016                movea.l    A3, [A3 + 0x16]
label000029AE:
000029AE  200B                     move.l     D0, A3
000029B0  671E                     beq        +0x20 /* 000029D0 */
000029B2  2453                     movea.l    A2, [A3]
000029B4  08EA 0000 0026           bset.b     [A2 + 0x26], 0x0
000029BA  6606                     bne        +0x8 /* 000029C2 */
000029BC  2F0B                     move.l     -[A7], A3
000029BE  6100 122A                bsr        +0x122C /* 00003BEA */
label000029C2:
000029C2  2F0B                     move.l     -[A7], A3
000029C4  6100 FCA0                bsr        -0x35E /* 00002666 */
000029C8  2453                     movea.l    A2, [A3]
000029CA  266A 0016                movea.l    A3, [A2 + 0x16]
000029CE  60DE                     bra        -0x20 /* 000029AE */
label000029D0:
000029D0  6000 1C54                bra        +0x1C56 /* 00004626 */
fn000029D4:
000029D4  6100 DBAA                bsr        -0x2454 /* 00000580 */
000029D8  426E 0014                clr.w      [A6 + 0x14]
000029DC  50E7                     st         -[A7]
000029DE  487A 0014                pea.l      [PC + 0x14 /* 000029F4, value 0x6100DB98, cstring "a" */]
000029E2  42A7                     clr.l      -[A7]
000029E4  486E 0008                pea.l      [A6 + 0x8]
000029E8  2F2D FE6C                move.l     -[A7], [A5 - 0x194]
000029EC  6100 F776                bsr        -0x888 /* 00002164 */
000029F0  6000 E794                bra        -0x186A /* 00001186 */
000029F4  6100 DB98                bsr        -0x2466 /* 0000058E */
000029F8  6100 F912                bsr        -0x6EC /* 0000230C */
000029FC  246E 000E                movea.l    A2, [A6 + 0xE]
00002A00  205A                     movea.l    A0, [A2]+
00002A02  2E08                     move.l     D7, A0
00002A04  2050                     movea.l    A0, [A0]
00002A06  3028 0022                move.w     D0, [A0 + 0x22]
00002A0A  B06B 0022                cmp.w      D0, [A3 + 0x22]
00002A0E  6618                     bne        +0x1A /* 00002A28 */
00002A10  265A                     movea.l    A3, [A2]+
00002A12  205A                     movea.l    A0, [A2]+
00002A14  7000                     moveq.l    D0, 0x00
00002A16  1018                     move.b     D0, [A0]+
00002A18  4840                     swap.w     D0
00002A1A  1019                     move.b     D0, [A1]+
00002A1C  A03C                     syscall    CmpString
00002A1E  6608                     bne        +0xA /* 00002A28 */
00002A20  BE8C                     cmp.l      D7, A4
00002A22  6702                     beq        +0x4 /* 00002A26 */
00002A24  268C                     move.l     [A3], A4
label00002A26:
00002A26  5252                     addq.w     [A2], 1
label00002A28:
00002A28  426E 0012                clr.w      [A6 + 0x12]
00002A2C  6000 151E                bra        +0x1520 /* 00003F4C */
fn00002A30:
00002A30  6100 DB5C                bsr        -0x24A2 /* 0000058E */
label00002A34:
00002A34  486E FE82                pea.l      [A6 - 0x17E]
00002A38  3F3C 0026                move.w     -[A7], 0x26 /* '&' */
00002A3C  4EAD 0462                jsr        [A5 + 0x462 /* export_136, CODE:3 @ 00002968 */]
00002A40  41EE FE82                lea.l      A0, [A6 - 0x17E]
00002A44  1010                     move.b     D0, [A0]
00002A46  5240                     addq.w     D0, 1
00002A48  A9E3                     syscall    PtrToHand
00002A4A  2448                     movea.l    A2, A0
00002A4C  7000                     moveq.l    D0, 0x00
00002A4E  226E 000C                movea.l    A1, [A6 + 0xC]
00002A52  4EAD 05BA                jsr        [A5 + 0x5BA /* export_179, CODE:3 @ 0000208A */]
00002A56  204A                     movea.l    A0, A2
00002A58  A025                     syscall    GetHandleSize
00002A5A  2052                     movea.l    A0, [A2]
00002A5C  1080                     move.b     [A0], D0
00002A5E  5310                     subq.b     [A0], 1
00002A60  226E 000C                movea.l    A1, [A6 + 0xC]
00002A64  A02E                     syscall    BlockMove/BlockMoveData
00002A66  204A                     movea.l    A0, A2
00002A68  A023                     syscall    DisposHandle/DisposeHandle
label00002A6A:
00002A6A  226E 000C                movea.l    A1, [A6 + 0xC]
00002A6E  1411                     move.b     D2, [A1]
00002A70  4A02                     tst.b      D2
00002A72  6710                     beq        +0x12 /* 00002A84 */
00002A74  0C02 003F                cmpi.b     D2, 0x3F /* '?' */
00002A78  636C                     bls        +0x6E /* 00002AE6 */
00002A7A  206E 000C                movea.l    A0, [A6 + 0xC]
00002A7E  303C 0032                move.w     D0, 0x32 /* '2' */
00002A82  6008                     bra        +0xA /* 00002A8C */
label00002A84:
00002A84  41FA DBC4                lea.l      A0, [PC - 0x243C /* 0000064A, value 0x6100 'a\0', cstring "" */]
00002A88  303C 0034                move.w     D0, 0x34 /* '4' */
label00002A8C:
00002A8C  2F08                     move.l     -[A7], A0
00002A8E  486E FE82                pea.l      [A6 - 0x17E]
00002A92  3F00                     move.w     -[A7], D0
00002A94  4EAD 0462                jsr        [A5 + 0x462 /* export_136, CODE:3 @ 00002968 */]
00002A98  486E FE82                pea.l      [A6 - 0x17E]
00002A9C  42A7                     clr.l      -[A7]
00002A9E  42A7                     clr.l      -[A7]
00002AA0  A98B                     syscall    ParamText
00002AA2  594F                     subq.w     A7, 4
00002AA4  3F3C 00C2                move.w     -[A7], 0xC2
00002AA8  42A7                     clr.l      -[A7]
00002AAA  2F38 0A06                move.l     -[A7], [0x00000A06 /* MinusOne */]
00002AAE  A97C                     syscall    GetNewDialog
00002AB0  42A7                     clr.l      -[A7]
00002AB2  42A7                     clr.l      -[A7]
00002AB4  A991                     syscall    ModalDialog
00002AB6  2F17                     move.l     -[A7], [A7]
00002AB8  3F3C 0003                move.w     -[A7], 0x3
00002ABC  42A7                     clr.l      -[A7]
00002ABE  486E FFF6                pea.l      [A6 - 0xA]
00002AC2  4878 09FA                push.l     0x9FA
00002AC6  A98D                     syscall    GetDialogItem/GetDItem
00002AC8  2F2E FFF6                move.l     -[A7], [A6 - 0xA]
00002ACC  2F2E 000C                move.l     -[A7], [A6 + 0xC]
00002AD0  A990                     syscall    GetDialogItemText/GetIText
00002AD2  206E 000C                movea.l    A0, [A6 + 0xC]
00002AD6  7000                     moveq.l    D0, 0x00
00002AD8  1018                     move.b     D0, [A0]+
00002ADA  2F08                     move.l     -[A7], A0
00002ADC  3F00                     move.w     -[A7], D0
00002ADE  4EAD 05C2                jsr        [A5 + 0x5C2 /* export_180, CODE:3 @ 000020B0 */]
00002AE2  A983                     syscall    DisposeDialog
00002AE4  6084                     bra        -0x7A /* 00002A6A */
label00002AE6:
00002AE6  554F                     subq.w     A7, 2
00002AE8  2F09                     move.l     -[A7], A1
00002AEA  42A7                     clr.l      -[A7]
00002AEC  2F0C                     move.l     -[A7], A4
00002AEE  6100 FEE4                bsr        -0x11A /* 000029D4 */
00002AF2  4A5F                     tst.w      [A7]+
00002AF4  6600 FF3E                bne        -0xC0 /* 00002A34 */
00002AF8  6000 12B2                bra        +0x12B4 /* 00003DAC */
fn00002AFC:
00002AFC  6100 DA90                bsr        -0x256E /* 0000058E */
00002B00  2A2E 000C                move.l     D5, [A6 + 0xC]
00002B04  2245                     movea.l    A1, D5
00002B06  2251                     movea.l    A1, [A1]
00002B08  3E29 0024                move.w     D7, [A1 + 0x24]
00002B0C  3829 0022                move.w     D4, [A1 + 0x22]
00002B10  362B 0022                move.w     D3, [A3 + 0x22]
00002B14  4A2E 0010                tst.b      [A6 + 0x10]
00002B18  6706                     beq        +0x8 /* 00002B20 */
00002B1A  3803                     move.w     D4, D3
00002B1C  3E2B 0024                move.w     D7, [A3 + 0x24]
label00002B20:
00002B20  6100 E052                bsr        -0x1FAC /* 00000B74 */
00002B24  486D FD26                pea.l      [A5 - 0x2DA]
00002B28  2F0C                     move.l     -[A7], A4
00002B2A  6100 F7C8                bsr        -0x836 /* 000022F4 */
00002B2E  594F                     subq.w     A7, 4
00002B30  3F07                     move.w     -[A7], D7
00002B32  2F0C                     move.l     -[A7], A4
00002B34  6100 F234                bsr        -0xDCA /* 00001D6A */
00002B38  08AB 0001 000B           bclr.b     [A3 + 0xB], 0x1
00002B3E  4A2E 0010                tst.b      [A6 + 0x10]
00002B42  6628                     bne        +0x2A /* 00002B6C */
00002B44  0C53 0008                cmpi.w     [A3], 0x8
00002B48  6622                     bne        +0x24 /* 00002B6C */
00002B4A  2F0C                     move.l     -[A7], A4
00002B4C  486E FFF6                pea.l      [A6 - 0xA]
00002B50  42A7                     clr.l      -[A7]
00002B52  486E FE82                pea.l      [A6 - 0x17E]
00002B56  A9A8                     syscall    GetResInfo
00002B58  0C6E FFFF FFF6           cmpi.w     [A6 - 0xA], 0xFFFF
00002B5E  660C                     bne        +0xE /* 00002B6C */
00002B60  2F17                     move.l     -[A7], [A7]
00002B62  3F3C FFFF                move.w     -[A7], 0xFFFF
00002B66  486E FE82                pea.l      [A6 - 0x17E]
00002B6A  A9A9                     syscall    SetResInfo
label00002B6C:
00002B6C  285F                     movea.l    A4, [A7]+
00002B6E  1F14                     move.b     -[A7], [A4]
00002B70  08D4 0007                bset.b     [A4], 0x7
00002B74  2654                     movea.l    A3, [A4]
00002B76  2F05                     move.l     -[A7], D5
00002B78  486B 000C                pea.l      [A3 + 0xC]
00002B7C  42A7                     clr.l      -[A7]
00002B7E  486E FE82                pea.l      [A6 - 0x17E]
00002B82  A9A8                     syscall    GetResInfo
00002B84  3744 0022                move.w     [A3 + 0x22], D4
00002B88  3747 0024                move.w     [A3 + 0x24], D7
00002B8C  2745 000E                move.l     [A3 + 0xE], D5
00002B90  2F0C                     move.l     -[A7], A4
00002B92  6100 FBD2                bsr        -0x42C /* 00002766 */
00002B96  4A2E 0010                tst.b      [A6 + 0x10]
00002B9A  6724                     beq        +0x26 /* 00002BC0 */
00002B9C  022B 0079 0026           andi.b     [A3 + 0x26], 0x79 /* 'y' */
00002BA2  486E FE82                pea.l      [A6 - 0x17E]
00002BA6  2F17                     move.l     -[A7], [A7]
00002BA8  2F17                     move.l     -[A7], [A7]
00002BAA  2F0C                     move.l     -[A7], A4
00002BAC  6100 F746                bsr        -0x8B8 /* 000022F4 */
00002BB0  2F0C                     move.l     -[A7], A4
00002BB2  6100 FE7C                bsr        -0x182 /* 00002A30 */
00002BB6  2F0C                     move.l     -[A7], A4
00002BB8  6100 14EA                bsr        +0x14EC /* 000040A4 */
00002BBC  2654                     movea.l    A3, [A4]
00002BBE  6020                     bra        +0x22 /* 00002BE0 */
label00002BC0:
00002BC0  2745 0012                move.l     [A3 + 0x12], D5
00002BC4  022B 00E9 0026           andi.b     [A3 + 0x26], 0xE9
00002BCA  2245                     movea.l    A1, D5
00002BCC  2251                     movea.l    A1, [A1]
00002BCE  7002                     moveq.l    D0, 0x02
00002BD0  0129 000B                btst       [A1 + 0xB], D0
00002BD4  6706                     beq        +0x8 /* 00002BDC */
00002BD6  01EB                     .incomplete
00002BD8  000B 6004                ori.b      A3, 0x4
label00002BDC:
00002BDC  01AB 000B                bclr       [A3 + 0xB], D0
label00002BE0:
00002BE0  2F0C                     move.l     -[A7], A4
00002BE2  2F05                     move.l     -[A7], D5
00002BE4  6100 DC7E                bsr        -0x2380 /* 00000864 */
00002BE8  0C53 0000                cmpi.w     [A3], 0x0
00002BEC  6628                     bne        +0x2A /* 00002C16 */
00002BEE  4A2E 0010                tst.b      [A6 + 0x10]
00002BF2  671A                     beq        +0x1C /* 00002C0E */
00002BF4  554F                     subq.w     A7, 2
00002BF6  486D FD26                pea.l      [A5 - 0x2DA]
00002BFA  2F0C                     move.l     -[A7], A4
00002BFC  4EAD 05AA                jsr        [A5 + 0x5AA /* export_177, CODE:3 @ 0000211E */]
00002C00  301F                     move.w     D0, [A7]+
00002C02  4EAD 05B2                jsr        [A5 + 0x5B2 /* export_178, CODE:3 @ 0000200E */]
00002C06  2F0C                     move.l     -[A7], A4
00002C08  6100 E330                bsr        -0x1CCE /* 00000F3A */
00002C0C  6006                     bra        +0x8 /* 00002C14 */
label00002C0E:
00002C0E  2F0C                     move.l     -[A7], A4
00002C10  4EAD 00B2                jsr        [A5 + 0xB2 /* export_18, CODE:1 @ 000002F4 */]
label00002C14:
00002C14  6032                     bra        +0x34 /* 00002C48 */
label00002C16:
00002C16  0C53 0008                cmpi.w     [A3], 0x8
00002C1A  6636                     bne        +0x38 /* 00002C52 */
00002C1C  4A46                     tst.w      D6
00002C1E  6728                     beq        +0x2A /* 00002C48 */
00002C20  204C                     movea.l    A0, A4
00002C22  A9E1                     syscall    HandToHand
00002C24  2F08                     move.l     -[A7], A0
00002C26  08D0 0007                bset.b     [A0], 0x7
00002C2A  2650                     movea.l    A3, [A0]
00002C2C  45EB 003A                lea.l      A2, [A3 + 0x3A]
label00002C30:
00002C30  594F                     subq.w     A7, 4
00002C32  3F2E 0010                move.w     -[A7], [A6 + 0x10]
00002C36  2F0C                     move.l     -[A7], A4
00002C38  2F1A                     move.l     -[A7], [A2]+
00002C3A  6100 FEC0                bsr        -0x13E /* 00002AFC */
00002C3E  584F                     addq.w     A7, 4
00002C40  5346                     subq.w     D6, 1
00002C42  66EC                     bne        -0x12 /* 00002C30 */
00002C44  205F                     movea.l    A0, [A7]+
00002C46  A023                     syscall    DisposHandle/DisposeHandle
label00002C48:
00002C48  2D4C 0012                move.l     [A6 + 0x12], A4
00002C4C  189F                     move.b     [A4], [A7]+
00002C4E  6000 12FC                bra        +0x12FE /* 00003F4C */
label00002C52:
00002C52  FADE 6100                .extension 0xADE <<F/2-3/5>> // unimplemented
// begin alternate branch 00002C54-00002C5E
fn00002C54:
00002C54  6100 D92A                bsr        -0x26D4 /* 00000580 */
00002C58  426E 0018                clr.w      [A6 + 0x18]
00002C5C  4A46                     tst.w      D6
// end alternate branch 00002C54-00002C5E
fn00002C54: // (misaligned)
00002C56  D92A 426E                add.b      [A2 + 0x426E], D4
00002C5A  0018 4A46                ori.b      [A0]+, 0x46 /* 'F' */
00002C5E  6730                     beq        +0x32 /* 00002C90 */
label00002C60:
00002C60  205A                     movea.l    A0, [A2]+
00002C62  2050                     movea.l    A0, [A0]
00002C64  0828 0001 000B           btst.b     [A0 + 0xB], 0x1
00002C6A  6720                     beq        +0x22 /* 00002C8C */
00002C6C  226E 000C                movea.l    A1, [A6 + 0xC]
00002C70  2251                     movea.l    A1, [A1]
00002C72  3029 0024                move.w     D0, [A1 + 0x24]
00002C76  B06D FE5A                cmp.w      D0, [A5 - 0x1A6]
00002C7A  6710                     beq        +0x12 /* 00002C8C */
00002C7C  3029 0024                move.w     D0, [A1 + 0x24]
00002C80  B068 0024                cmp.w      D0, [A0 + 0x24]
00002C84  6706                     beq        +0x8 /* 00002C8C */
00002C86  1D7C 0001 0018           move.b     [A6 + 0x18], 0x1
label00002C8C:
00002C8C  5346                     subq.w     D6, 1
00002C8E  66D0                     bne        -0x2E /* 00002C60 */
label00002C90:
00002C90  514F                     subq.w     A7, 8
00002C92  2F0C                     move.l     -[A7], A4
00002C94  6100 F4AE                bsr        -0xB50 /* 00002144 */
00002C98  6100 EB16                bsr        -0x14E8 /* 000017B0 */
00002C9C  206E 0010                movea.l    A0, [A6 + 0x10]
00002CA0  2097                     move.l     [A0], [A7]
00002CA2  2F2E 000C                move.l     -[A7], [A6 + 0xC]
00002CA6  6100 EB08                bsr        -0x14F6 /* 000017B0 */
00002CAA  206E 0014                movea.l    A0, [A6 + 0x14]
00002CAE  209F                     move.l     [A0], [A7]+
00002CB0  6000 F448                bra        -0xBB6 /* 000020FA */
fn00002CB4:
00002CB4  6100 D8D8                bsr        -0x2726 /* 0000058E */
00002CB8  6700 019C                beq        +0x19E /* 00002E56 */
00002CBC  594F                     subq.w     A7, 4
00002CBE  2F0F                     move.l     -[A7], A7
00002CC0  A874                     syscall    GetPort
00002CC2  204C                     movea.l    A0, A4
00002CC4  A9E1                     syscall    HandToHand
00002CC6  2D48 FF82                move.l     [A6 - 0x7E], A0
00002CCA  08D0 0007                bset.b     [A0], 0x7
00002CCE  2450                     movea.l    A2, [A0]
00002CD0  45EA 003A                lea.l      A2, [A2 + 0x3A]
00002CD4  7600                     moveq.l    D3, 0x00
00002CD6  4A87                     tst.l      D7
00002CD8  6730                     beq        +0x32 /* 00002D0A */
00002CDA  554F                     subq.w     A7, 2
00002CDC  42A7                     clr.l      -[A7]
00002CDE  42A7                     clr.l      -[A7]
00002CE0  2F07                     move.l     -[A7], D7
00002CE2  2F0C                     move.l     -[A7], A4
00002CE4  6100 FF6E                bsr        -0x90 /* 00002C54 */
00002CE8  4A1F                     tst.b      [A7]+
00002CEA  56C3                     sne        D3
00002CEC  2047                     movea.l    A0, D7
00002CEE  2050                     movea.l    A0, [A0]
00002CF0  2828 0028                move.l     D4, [A0 + 0x28]
00002CF4  B8AB 0028                cmp.l      D4, [A3 + 0x28]
00002CF8  6710                     beq        +0x12 /* 00002D0A */
00002CFA  1F03                     move.b     -[A7], D3
00002CFC  2F0C                     move.l     -[A7], A4
00002CFE  6100 192C                bsr        +0x192E /* 0000462C */
00002D02  1F03                     move.b     -[A7], D3
00002D04  2F07                     move.l     -[A7], D7
00002D06  6100 1924                bsr        +0x1926 /* 0000462C */
label00002D0A:
00002D0A  285A                     movea.l    A4, [A2]+
00002D0C  2654                     movea.l    A3, [A4]
00002D0E  082B 0001 000B           btst.b     [A3 + 0xB], 0x1
00002D14  6700 0124                beq        +0x126 /* 00002E3A */
00002D18  08D4 0007                bset.b     [A4], 0x7
00002D1C  2F0C                     move.l     -[A7], A4
00002D1E  6100 11FC                bsr        +0x11FE /* 00003F1C */
00002D22  4A87                     tst.l      D7
00002D24  662E                     bne        +0x30 /* 00002D54 */
00002D26  6000 0014                bra        +0x16 /* 00002D3C */
label00002D2A:
00002D2A  B9ED FE28                cmpa.l     A4, [A5 - 0x1D8]
00002D2E  670C                     beq        +0xE /* 00002D3C */
00002D30  08AB 0001 000B           bclr.b     [A3 + 0xB], 0x1
00002D36  2F0C                     move.l     -[A7], A4
00002D38  6100 F80E                bsr        -0x7F0 /* 00002548 */
label00002D3C:
00002D3C  51E7                     sf         -[A7]
00002D3E  41EE FF92                lea.l      A0, [A6 - 0x6E]
00002D42  20AD FD18                move.l     [A0], [A5 - 0x2E8]
00002D46  2110                     move.l     -[A0], [A0]
00002D48  2F08                     move.l     -[A7], A0
00002D4A  2F0C                     move.l     -[A7], A4
00002D4C  6100 1B26                bsr        +0x1B28 /* 00004874 */
00002D50  6000 00E8                bra        +0xEA /* 00002E3A */
label00002D54:
00002D54  554F                     subq.w     A7, 2
00002D56  51E7                     sf         -[A7]
00002D58  2F07                     move.l     -[A7], D7
00002D5A  2F0C                     move.l     -[A7], A4
00002D5C  6100 D8EE                bsr        -0x2710 /* 0000064C */
00002D60  3A1F                     move.w     D5, [A7]+
00002D62  6736                     beq        +0x38 /* 00002D9A */
00002D64  6E2C                     bgt        +0x2E /* 00002D92 */
00002D66  0C45 FFFF                cmpi.w     D5, 0xFFFF
00002D6A  67BE                     beq        -0x40 /* 00002D2A */
00002D6C  0C45 FFFE                cmpi.w     D5, 0xFFFE
00002D70  6700 00C8                beq        +0xCA /* 00002E3A */
00002D74  486E FE82                pea.l      [A6 - 0x17E]
00002D78  2F0C                     move.l     -[A7], A4
00002D7A  6100 F578                bsr        -0xA86 /* 000022F4 */
00002D7E  554F                     subq.w     A7, 2
00002D80  486E FE82                pea.l      [A6 - 0x17E]
00002D84  4445                     neg.w      D5
00002D86  3F05                     move.w     -[A7], D5
00002D88  4EAD 059A                jsr        [A5 + 0x59A /* export_175, CODE:3 @ 00002344 */]
00002D8C  4A1F                     tst.b      [A7]+
00002D8E  660A                     bne        +0xC /* 00002D9A */
00002D90  6098                     bra        -0x66 /* 00002D2A */
label00002D92:
00002D92  3F05                     move.w     -[A7], D5
00002D94  4EAD 0532                jsr        [A5 + 0x532 /* export_162, CODE:3 @ 00002640 */]
00002D98  6090                     bra        -0x6E /* 00002D2A */
label00002D9A:
00002D9A  2F0C                     move.l     -[A7], A4
00002D9C  6100 F7AA                bsr        -0x854 /* 00002548 */
00002DA0  7800                     moveq.l    D4, 0x00
00002DA2  2047                     movea.l    A0, D7
00002DA4  2050                     movea.l    A0, [A0]
00002DA6  4AA8 0028                tst.l      [A0 + 0x28]
00002DAA  670C                     beq        +0xE /* 00002DB8 */
00002DAC  7801                     moveq.l    D4, 0x01
00002DAE  0C28 0001 000A           cmpi.b     [A0 + 0xA], 0x1
00002DB4  670C                     beq        +0xE /* 00002DC2 */
00002DB6  78FF                     moveq.l    D4, 0xFFFFFFFF
label00002DB8:
00002DB8  08AB 0001 000B           bclr.b     [A3 + 0xB], 0x1
00002DBE  6100 DDB4                bsr        -0x224A /* 00000B74 */
label00002DC2:
00002DC2  4A03                     tst.b      D3
00002DC4  6610                     bne        +0x12 /* 00002DD6 */
00002DC6  2F0C                     move.l     -[A7], A4
00002DC8  6100 0FE8                bsr        +0xFEA /* 00003DB2 */
00002DCC  2F0C                     move.l     -[A7], A4
00002DCE  2F07                     move.l     -[A7], D7
00002DD0  6100 DA92                bsr        -0x256C /* 00000864 */
00002DD4  6018                     bra        +0x1A /* 00002DEE */
label00002DD6:
00002DD6  0894 0007                bclr.b     [A4], 0x7
00002DDA  594F                     subq.w     A7, 4
00002DDC  51E7                     sf         -[A7]
00002DDE  2F07                     move.l     -[A7], D7
00002DE0  2F0C                     move.l     -[A7], A4
00002DE2  6100 FD18                bsr        -0x2E6 /* 00002AFC */
00002DE6  285F                     movea.l    A4, [A7]+
00002DE8  2654                     movea.l    A3, [A4]
00002DEA  08D4 0007                bset.b     [A4], 0x7
label00002DEE:
00002DEE  2F2E 0010                move.l     -[A7], [A6 + 0x10]
00002DF2  486B 0002                pea.l      [A3 + 0x2]
00002DF6  2F17                     move.l     -[A7], [A7]
00002DF8  A870                     syscall    LocalToGlobal
00002DFA  A87E                     syscall    AddPt
00002DFC  2A2B 0002                move.l     D5, [A3 + 0x2]
00002E00  4A84                     tst.l      D4
00002E02  6E0A                     bgt        +0xC /* 00002E0E */
00002E04  2F0C                     move.l     -[A7], A4
00002E06  6100 0DE2                bsr        +0xDE4 /* 00003BEA */
00002E0A  4A44                     tst.w      D4
00002E0C  671E                     beq        +0x20 /* 00002E2C */
label00002E0E:
00002E0E  2B47 FE5E                move.l     [A5 - 0x1A2], D7
00002E12  2F0C                     move.l     -[A7], A4
00002E14  6100 1106                bsr        +0x1108 /* 00003F1C */
00002E18  4A44                     tst.w      D4
00002E1A  6B0A                     bmi        +0xC /* 00002E26 */
00002E1C  2745 0002                move.l     [A3 + 0x2], D5
00002E20  486B 0002                pea.l      [A3 + 0x2]
00002E24  A871                     syscall    GlobalToLocal
label00002E26:
00002E26  2F0C                     move.l     -[A7], A4
00002E28  6100 F71E                bsr        -0x8E0 /* 00002548 */
label00002E2C:
00002E2C  2054                     movea.l    A0, [A4]
00002E2E  0C50 0004                cmpi.w     [A0], 0x4
00002E32  6706                     beq        +0x8 /* 00002E3A */
00002E34  2F0C                     move.l     -[A7], A4
00002E36  6100 E102                bsr        -0x1EFC /* 00000F3A */
label00002E3A:
00002E3A  0894 0007                bclr.b     [A4], 0x7
00002E3E  5346                     subq.w     D6, 1
00002E40  6600 FEC8                bne        -0x136 /* 00002D0A */
00002E44  206E FF82                movea.l    A0, [A6 - 0x7E]
00002E48  A023                     syscall    DisposHandle/DisposeHandle
00002E4A  A873                     syscall    SetPort
00002E4C  4A87                     tst.l      D7
00002E4E  6706                     beq        +0x8 /* 00002E56 */
00002E50  2F07                     move.l     -[A7], D7
00002E52  6100 DFB0                bsr        -0x204E /* 00000E04 */
label00002E56:
00002E56  6000 E32E                bra        -0x1CD0 /* 00001186 */
fn00002E5A:
00002E5A  6100 D724                bsr        -0x28DA /* 00000580 */
00002E5E  426E 0010                clr.w      [A6 + 0x10]
00002E62  2E2E 000C                move.l     D7, [A6 + 0xC]
00002E66  672A                     beq        +0x2C /* 00002E92 */
00002E68  2047                     movea.l    A0, D7
00002E6A  2050                     movea.l    A0, [A0]
00002E6C  0C50 0004                cmpi.w     [A0], 0x4
00002E70  6620                     bne        +0x22 /* 00002E92 */
00002E72  554F                     subq.w     A7, 2
00002E74  4EAD 03CA                jsr        [A5 + 0x3CA /* export_117, CODE:3 @ 00001964 */]
00002E78  535F                     subq.w     [A7]+, 1
00002E7A  6616                     bne        +0x18 /* 00002E92 */
00002E7C  594F                     subq.w     A7, 4
00002E7E  2F0C                     move.l     -[A7], A4
00002E80  6100 F2C2                bsr        -0xD3C /* 00002144 */
00002E84  205F                     movea.l    A0, [A7]+
00002E86  2050                     movea.l    A0, [A0]
00002E88  0C50 0004                cmpi.w     [A0], 0x4
00002E8C  6604                     bne        +0x6 /* 00002E92 */
00002E8E  522E 0010                addq.b     [A6 + 0x10], 1
label00002E92:
00002E92  6000 0F18                bra        +0xF1A /* 00003DAC */
fn00002E96:
00002E96  6100 D6E8                bsr        -0x2916 /* 00000580 */
00002E9A  50ED FF24                st         [A5 - 0xDC]
00002E9E  2F0C                     move.l     -[A7], A4
00002EA0  6100 0F7C                bsr        +0xF7E /* 00003E1E */
00002EA4  302B 0022                move.w     D0, [A3 + 0x22]
00002EA8  B078 0210                cmp.w      D0, [0x00000210 /* BootDrive */]
00002EAC  670A                     beq        +0xC /* 00002EB8 */
00002EAE  554F                     subq.w     A7, 2
00002EB0  2F0C                     move.l     -[A7], A4
00002EB2  6100 DFA4                bsr        -0x205A /* 00000E58 */
00002EB6  544F                     addq.w     A7, 2
label00002EB8:
00002EB8  51ED FF24                sf         [A5 - 0xDC]
00002EBC  6000 DBB6                bra        -0x2448 /* 00000A74 */
fn00002EC0:
00002EC0  6100 D6BE                bsr        -0x2940 /* 00000580 */
00002EC4  594F                     subq.w     A7, 4
00002EC6  3F2B 0022                move.w     -[A7], [A3 + 0x22]
00002ECA  42A7                     clr.l      -[A7]
00002ECC  4EAD 0552                jsr        [A5 + 0x552 /* export_166, CODE:3 @ 000025A6 */]
00002ED0  4EAD 03F2                jsr        [A5 + 0x3F2 /* export_122, CODE:3 @ 00002D60 */]
00002ED4  3C1F                     move.w     D6, [A7]+
00002ED6  6100 E8EA                bsr        -0x1714 /* 000017C2 */
00002EDA  2F0B                     move.l     -[A7], A3
00002EDC  61B8                     bsr        -0x46 /* 00002E96 */
00002EDE  6000 DB94                bra        -0x246A /* 00000A74 */
fn00002EE2:
00002EE2  6100 D6AA                bsr        -0x2954 /* 0000058E */
00002EE6  2F38 0338                move.l     -[A7], [0x00000338 /* EjectNotify */]
00002EEA  42B8 0338                clr.l      [0x00000338 /* EjectNotify */]
00002EEE  2E2E 000C                move.l     D7, [A6 + 0xC]
00002EF2  675A                     beq        +0x5C /* 00002F4E */
00002EF4  554F                     subq.w     A7, 2
00002EF6  51E7                     sf         -[A7]
00002EF8  2F07                     move.l     -[A7], D7
00002EFA  2F0C                     move.l     -[A7], A4
00002EFC  6100 04AA                bsr        +0x4AC /* 000033A8 */
00002F00  4A1F                     tst.b      [A7]+
00002F02  674A                     beq        +0x4C /* 00002F4E */
00002F04  514F                     subq.w     A7, 8
00002F06  554F                     subq.w     A7, 2
00002F08  486F 0002                pea.l      [A7 + 0x2]
00002F0C  486F 000A                pea.l      [A7 + 0xA]
00002F10  2F07                     move.l     -[A7], D7
00002F12  2F0C                     move.l     -[A7], A4
00002F14  6100 FD3E                bsr        -0x2C0 /* 00002C54 */
00002F18  1A1F                     move.b     D5, [A7]+
00002F1A  281F                     move.l     D4, [A7]+
00002F1C  261F                     move.l     D3, [A7]+
00002F1E  4A2E 0014                tst.b      [A6 + 0x14]
00002F22  6712                     beq        +0x14 /* 00002F36 */
00002F24  594F                     subq.w     A7, 4
00002F26  2F07                     move.l     -[A7], D7
00002F28  2F0C                     move.l     -[A7], A4
00002F2A  6100 01B0                bsr        +0x1B2 /* 000030DC */
00002F2E  2E1F                     move.l     D7, [A7]+
00002F30  671C                     beq        +0x1E /* 00002F4E */
00002F32  2807                     move.l     D4, D7
00002F34  6026                     bra        +0x28 /* 00002F5C */
label00002F36:
00002F36  4A87                     tst.l      D7
00002F38  6716                     beq        +0x18 /* 00002F50 */
00002F3A  4A05                     tst.b      D5
00002F3C  6712                     beq        +0x14 /* 00002F50 */
00002F3E  554F                     subq.w     A7, 2
00002F40  50E7                     st         -[A7]
00002F42  2F07                     move.l     -[A7], D7
00002F44  2F0C                     move.l     -[A7], A4
00002F46  6100 0268                bsr        +0x26A /* 000031B0 */
00002F4A  4A1F                     tst.b      [A7]+
00002F4C  6602                     bne        +0x4 /* 00002F50 */
label00002F4E:
00002F4E  7E00                     moveq.l    D7, 0x00
label00002F50:
00002F50  2F2E 0010                move.l     -[A7], [A6 + 0x10]
00002F54  2F07                     move.l     -[A7], D7
00002F56  2F0C                     move.l     -[A7], A4
00002F58  6100 FD5A                bsr        -0x2A4 /* 00002CB4 */
label00002F5C:
00002F5C  4A87                     tst.l      D7
00002F5E  6748                     beq        +0x4A /* 00002FA8 */
00002F60  4A05                     tst.b      D5
00002F62  6706                     beq        +0x8 /* 00002F6A */
00002F64  2F04                     move.l     -[A7], D4
00002F66  6100 0F6C                bsr        +0xF6E /* 00003ED4 */
label00002F6A:
00002F6A  4A6D F664                tst.w      [A5 - 0x99C]
00002F6E  6F00 0038                ble        +0x3A /* 00002FA8 */
00002F72  4EAD 0442                jsr        [A5 + 0x442 /* export_132, CODE:3 @ 00002CBE */]
00002F76  4EBA 17B2                jsr        [PC + 0x17B2 /* 0000472A */]
00002F7A  4EAD 0052                jsr        [A5 + 0x52 /* export_6, CODE:1 @ 00000310 */]
00002F7E  2B43 F65A                move.l     [A5 - 0x9A6], D3
00002F82  2B44 F656                move.l     [A5 - 0x9AA], D4
00002F86  0894 0007                bclr.b     [A4], 0x7
00002F8A  2F04                     move.l     -[A7], D4
00002F8C  6100 FF32                bsr        -0xCC /* 00002EC0 */
00002F90  2F03                     move.l     -[A7], D3
00002F92  6100 FF2C                bsr        -0xD2 /* 00002EC0 */
00002F96  2F03                     move.l     -[A7], D3
00002F98  6100 FEFC                bsr        -0x102 /* 00002E96 */
00002F9C  2B78 0A06 F652           move.l     [A5 - 0x9AE], [0x00000A06 /* MinusOne */]
00002FA2  3B7C 0002 F672           move.w     [A5 - 0x98E], 0x2
label00002FA8:
00002FA8  08D4 0007                bset.b     [A4], 0x7
00002FAC  21DF 0338                move.l     [0x00000338 /* EjectNotify */], [A7]+
label00002FB0:
00002FB0  700E                     moveq.l    D0, 0x0E
00002FB2  6000 D60C                bra        -0x29F2 /* 000005C0 */
fn00002FB6:
00002FB6  4E56 0000                link       A6, 0
00002FBA  48E7 7F78                movem.l    -[A7], D1,D2,D3,D4,D5,D6,D7,A1,A2,A3,A4
00002FBE  705E                     moveq.l    D0, 0x5E
00002FC0  A122                     syscall    NewHandle, flags=1
00002FC2  2848                     movea.l    A4, A0
00002FC4  2654                     movea.l    A3, [A4]
00002FC6  246E 000C                movea.l    A2, [A6 + 0xC]
00002FCA  425B                     clr.w      [A3]+
00002FCC  162A 0028                move.b     D3, [A2 + 0x28]
00002FD0  142A 001E                move.b     D2, [A2 + 0x1E]
00002FD4  4A2A 0029                tst.b      [A2 + 0x29]
00002FD8  6706                     beq        +0x8 /* 00002FE0 */
00002FDA  7600                     moveq.l    D3, 0x00
00002FDC  426A 0028                clr.w      [A2 + 0x28]
label00002FE0:
00002FE0  0203 00E1                andi.b     D3, 0xE1
00002FE4  0802 0007                btst.b     D2, 0x7
00002FE8  6704                     beq        +0x6 /* 00002FEE */
00002FEA  08C3 0002                bset.b     D3, 0x2
label00002FEE:
00002FEE  0802 0006                btst.b     D2, 0x6
00002FF2  6704                     beq        +0x6 /* 00002FF8 */
00002FF4  08C3 0003                bset.b     D3, 0x3
label00002FF8:
00002FF8  4A2D FE62                tst.b      [A5 - 0x19E]
00002FFC  6704                     beq        +0x6 /* 00003002 */
00002FFE  0883 0000                bclr.b     D3, 0x0
label00003002:
00003002  1543 0028                move.b     [A2 + 0x28], D3
00003006  26EA 002A                move.l     [A3]+, [A2 + 0x2A]
0000300A  425B                     clr.w      [A3]+
0000300C  425B                     clr.w      [A3]+
0000300E  425B                     clr.w      [A3]+
00003010  206E 0008                movea.l    A0, [A6 + 0x8]
00003014  36EA 002E                move.w     [A3]+, [A2 + 0x2E]
00003018  26C8                     move.l     [A3]+, A0
0000301A  26C8                     move.l     [A3]+, A0
0000301C  429B                     clr.l      [A3]+
0000301E  26EA 0048                move.l     [A3]+, [A2 + 0x48]
00003022  26EA 004C                move.l     [A3]+, [A2 + 0x4C]
00003026  2050                     movea.l    A0, [A0]
00003028  26E8 0022                move.l     [A3]+, [A0 + 0x22]
0000302C  36EA 0028                move.w     [A3]+, [A2 + 0x28]
00003030  26EA 0020                move.l     [A3]+, [A2 + 0x20]
00003034  26EA 0024                move.l     [A3]+, [A2 + 0x24]
00003038  202A 0044                move.l     D0, [A2 + 0x44]
0000303C  D0AA 003A                add.l      D0, [A2 + 0x3A]
00003040  26C0                     move.l     [A3]+, D0
00003042  202A 0040                move.l     D0, [A2 + 0x40]
00003046  D0AA 0036                add.l      D0, [A2 + 0x36]
0000304A  26C0                     move.l     [A3]+, D0
0000304C  26EA 0030                move.l     [A3]+, [A2 + 0x30]
00003050  16EA 001F                move.b     [A3]+, [A2 + 0x1F]
00003054  421B                     clr.b      [A3]+
00003056  226A 0012                movea.l    A1, [A2 + 0x12]
0000305A  6100 1094                bsr        +0x1096 /* 000040F0 */
0000305E  266E 0008                movea.l    A3, [A6 + 0x8]
00003062  2453                     movea.l    A2, [A3]
00003064  202A 0016                move.l     D0, [A2 + 0x16]
00003068  254C 0016                move.l     [A2 + 0x16], A4
0000306C  2454                     movea.l    A2, [A4]
0000306E  2540 0016                move.l     [A2 + 0x16], D0
00003072  2D4C 0010                move.l     [A6 + 0x10], A4
00003076  4CDF 1EFE                movem.l    D1,D2,D3,D4,D5,D6,D7,A1,A2,A3,A4, [A7]+
0000307A  4E5E                     unlink     A6
0000307C  7008                     moveq.l    D0, 0x08
0000307E  6000 D55A                bra        -0x2AA4 /* 000005DA */
export_44:
fn00003082:
00003082  4E56 0000                link       A6, 0
00003086  203C 0000 009E           move.l     D0, 0x9E
0000308C  A322                     syscall    NewHandleClear, flags=3
0000308E  2248                     movea.l    A1, A0
00003090  2D49 000A                move.l     [A6 + 0xA], A1
00003094  2F09                     move.l     -[A7], A1
00003096  2F3C 464F 424A           move.l     -[A7], 0x464F424A /* 'FOBJ' */
0000309C  3F2E 0008                move.w     -[A7], [A6 + 0x8]
000030A0  487A D5A8                pea.l      [PC - 0x2A58 /* 0000064A, value 0x6100 'a\0', cstring "" */]
000030A4  A9AB                     syscall    AddResource
000030A6  2051                     movea.l    A0, [A1]
000030A8  2178 020C 001A           move.l     [A0 + 0x1A], [0x0000020C /* Time */]
000030AE  2178 020C 001E           move.l     [A0 + 0x1E], [0x0000020C /* Time */]
000030B4  4E5E                     unlink     A6
000030B6  205F                     movea.l    A0, [A7]+
000030B8  544F                     addq.w     A7, 2
000030BA  4ED0                     jmp        [A0]
fn000030BC:
000030BC  6100 D4C2                bsr        -0x2B3C /* 00000580 */
000030C0  6714                     beq        +0x16 /* 000030D6 */
label000030C2:
000030C2  594F                     subq.w     A7, 4
000030C4  51E7                     sf         -[A7]
000030C6  2F2E 000C                move.l     -[A7], [A6 + 0xC]
000030CA  2F1A                     move.l     -[A7], [A2]+
000030CC  6100 FA2E                bsr        -0x5D0 /* 00002AFC */
000030D0  584F                     addq.w     A7, 4
000030D2  5346                     subq.w     D6, 1
000030D4  66EC                     bne        -0x12 /* 000030C2 */
label000030D6:
000030D6  6000 0CD4                bra        +0xCD6 /* 00003DAC */
000030DA  60FA                     bra        -0x4 /* 000030D6 */
fn000030DC:
000030DC  6100 D4B0                bsr        -0x2B4E /* 0000058E */
000030E0  246E 000C                movea.l    A2, [A6 + 0xC]
000030E4  2252                     movea.l    A1, [A2]
000030E6  724B                     moveq.l    D1, 0x4B
000030E8  0829 0007 0027           btst.b     [A1 + 0x27], 0x7
000030EE  6600 00B6                bne        +0xB8 /* 000031A6 */
000030F2  7252                     moveq.l    D1, 0x52
000030F4  3038 0210                move.w     D0, [0x00000210 /* BootDrive */]
000030F8  B069 0022                cmp.w      D0, [A1 + 0x22]
000030FC  6700 00A8                beq        +0xAA /* 000031A6 */
00003100  554F                     subq.w     A7, 2
00003102  50E7                     st         -[A7]
00003104  2F0C                     move.l     -[A7], A4
00003106  6100 F18A                bsr        -0xE74 /* 00002292 */
0000310A  301F                     move.w     D0, [A7]+
0000310C  725B                     moveq.l    D1, 0x5B
0000310E  0800 0003                btst.b     D0, 0x3
00003112  6600 0092                bne        +0x94 /* 000031A6 */
00003116  7A00                     moveq.l    D5, 0x00
00003118  594F                     subq.w     A7, 4
0000311A  2F0C                     move.l     -[A7], A4
0000311C  6100 F026                bsr        -0xFD8 /* 00002144 */
00003120  285F                     movea.l    A4, [A7]+
00003122  4E56 FE70                link       A6, -0x0190
00003126  486E FE70                pea.l      [A6 - 0x190]
0000312A  2F0C                     move.l     -[A7], A4
0000312C  6100 F1C6                bsr        -0xE38 /* 000022F4 */
00003130  486E FED4                pea.l      [A6 - 0x12C]
00003134  2F0C                     move.l     -[A7], A4
00003136  6100 E5A0                bsr        -0x1A5E /* 000016D8 */
0000313A  486E FF38                pea.l      [A6 - 0xC8]
0000313E  2F0A                     move.l     -[A7], A2
00003140  6100 F1B2                bsr        -0xE4C /* 000022F4 */
00003144  486E FF9C                pea.l      [A6 - 0x64]
00003148  2F0A                     move.l     -[A7], A2
0000314A  6100 E58C                bsr        -0x1A72 /* 000016D8 */
0000314E  486E FE70                pea.l      [A6 - 0x190]
00003152  486E FED4                pea.l      [A6 - 0x12C]
00003156  486E FF38                pea.l      [A6 - 0xC8]
0000315A  486E FF9C                pea.l      [A6 - 0x64]
0000315E  A98B                     syscall    ParamText
00003160  4E5E                     unlink     A6
00003162  554F                     subq.w     A7, 2
00003164  3F3C 0084                move.w     -[A7], 0x84
00003168  42A7                     clr.l      -[A7]
0000316A  A985                     syscall    Alert
0000316C  6100 15BC                bsr        +0x15BE /* 0000472A */
00003170  555F                     subq.w     [A7]+, 2
00003172  6700 002A                beq        +0x2C /* 0000319E */
00003176  594F                     subq.w     A7, 4
00003178  51E7                     sf         -[A7]
0000317A  2F0A                     move.l     -[A7], A2
0000317C  6100 E592                bsr        -0x1A6C /* 00001710 */
00003180  245F                     movea.l    A2, [A7]+
00003182  7250                     moveq.l    D1, 0x50
00003184  200A                     move.l     D0, A2
00003186  671E                     beq        +0x20 /* 000031A6 */
00003188  4267                     clr.w      -[A7]
0000318A  2F0A                     move.l     -[A7], A2
0000318C  6100 F594                bsr        -0xA6A /* 00002722 */
00003190  6100 1598                bsr        +0x159A /* 0000472A */
00003194  2F0A                     move.l     -[A7], A2
00003196  2F0C                     move.l     -[A7], A4
00003198  6100 FF22                bsr        -0xDC /* 000030BC */
0000319C  2A0A                     move.l     D5, A2
label0000319E:
0000319E  2D45 0010                move.l     [A6 + 0x10], D5
000031A2  6000 0C08                bra        +0xC0A /* 00003DAC */
label000031A6:
000031A6  3F01                     move.w     -[A7], D1
000031A8  4EAD 0532                jsr        [A5 + 0x532 /* export_162, CODE:3 @ 00002640 */]
000031AC  7A00                     moveq.l    D5, 0x00
000031AE  60EE                     bra        -0x10 /* 0000319E */
fn000031B0:
000031B0  6100 D3DC                bsr        -0x2C22 /* 0000058E */
000031B4  426E 0012                clr.w      [A6 + 0x12]
000031B8  246E 000C                movea.l    A2, [A6 + 0xC]
000031BC  554F                     subq.w     A7, 2
000031BE  486E FF8A                pea.l      [A6 - 0x76]
000031C2  486E FF82                pea.l      [A6 - 0x7E]
000031C6  2F0A                     move.l     -[A7], A2
000031C8  2F0C                     move.l     -[A7], A4
000031CA  6100 FA88                bsr        -0x576 /* 00002C54 */
000031CE  544F                     addq.w     A7, 2
000031D0  262E FF8A                move.l     D3, [A6 - 0x76]
000031D4  7E00                     moveq.l    D7, 0x00
000031D6  7A00                     moveq.l    D5, 0x00
000031D8  4A2E 0010                tst.b      [A6 + 0x10]
000031DC  674A                     beq        +0x4C /* 00003228 */
000031DE  554F                     subq.w     A7, 2
000031E0  50E7                     st         -[A7]
000031E2  486E FFF6                pea.l      [A6 - 0xA]
000031E6  2F03                     move.l     -[A7], D3
000031E8  2F0C                     move.l     -[A7], A4
000031EA  6100 00AA                bsr        +0xAC /* 00003296 */
000031EE  3E1F                     move.w     D7, [A7]+
000031F0  6A08                     bpl        +0xA /* 000031FA */
000031F2  3F3C 003C                move.w     -[A7], 0x3C /* '<' */
000031F6  6000 0090                bra        +0x92 /* 00003288 */
label000031FA:
000031FA  B5ED FE68                cmpa.l     A2, [A5 - 0x198]
000031FE  670E                     beq        +0x10 /* 0000320E */
00003200  554F                     subq.w     A7, 2
00003202  2F03                     move.l     -[A7], D3
00003204  2F2D FE68                move.l     -[A7], [A5 - 0x198]
00003208  6100 E380                bsr        -0x1C7E /* 0000158A */
0000320C  544F                     addq.w     A7, 2
label0000320E:
0000320E  594F                     subq.w     A7, 4
00003210  2F03                     move.l     -[A7], D3
00003212  6100 10DE                bsr        +0x10E0 /* 000042F2 */
00003216  2A1F                     move.l     D5, [A7]+
00003218  2052                     movea.l    A0, [A2]
0000321A  0828 0006 000B           btst.b     [A0 + 0xB], 0x6
00003220  6706                     beq        +0x8 /* 00003228 */
00003222  3F3C 0046                move.w     -[A7], 0x46 /* 'F' */
00003226  6060                     bra        +0x62 /* 00003288 */
label00003228:
00003228  594F                     subq.w     A7, 4
0000322A  2F2E FF82                move.l     -[A7], [A6 - 0x7E]
0000322E  6100 10C2                bsr        +0x10C4 /* 000042F2 */
00003232  281F                     move.l     D4, [A7]+
00003234  594F                     subq.w     A7, 4
00003236  2F03                     move.l     -[A7], D3
00003238  6100 D840                bsr        -0x27BE /* 00000A7A */
0000323C  201F                     move.l     D0, [A7]+
0000323E  D085                     add.l      D0, D5
00003240  9084                     sub.l      D0, D4
00003242  6B40                     bmi        +0x42 /* 00003284 */
00003244  5D4F                     subq.w     A7, 6
00003246  2F2E FF82                move.l     -[A7], [A6 - 0x7E]
0000324A  6100 100C                bsr        +0x100E /* 00004258 */
0000324E  4EAD 05CA                jsr        [A5 + 0x5CA /* export_181, CODE:3 @ 00002028 */]
00003252  4A1F                     tst.b      [A7]+
00003254  6728                     beq        +0x2A /* 0000327E */
00003256  4A85                     tst.l      D5
00003258  671E                     beq        +0x20 /* 00003278 */
0000325A  4A2E FFF6                tst.b      [A6 - 0xA]
0000325E  6612                     bne        +0x14 /* 00003272 */
00003260  554F                     subq.w     A7, 2
00003262  487A D3E6                pea.l      [PC - 0x2C1A /* 0000064A, value 0x6100 'a\0', cstring "" */]
00003266  3F3C 002F                move.w     -[A7], 0x2F /* '/' */
0000326A  4EAD 059A                jsr        [A5 + 0x59A /* export_175, CODE:3 @ 00002344 */]
0000326E  4A1F                     tst.b      [A7]+
00003270  671A                     beq        +0x1C /* 0000328C */
label00003272:
00003272  2F03                     move.l     -[A7], D3
00003274  6100 00BE                bsr        +0xC0 /* 00003334 */
label00003278:
00003278  522E 0012                addq.b     [A6 + 0x12], 1
0000327C  6014                     bra        +0x16 /* 00003292 */
label0000327E:
0000327E  3F3C 0045                move.w     -[A7], 0x45 /* 'E' */
00003282  6004                     bra        +0x6 /* 00003288 */
label00003284:
00003284  3F3C 0044                move.w     -[A7], 0x44 /* 'D' */
label00003288:
00003288  4EAD 0532                jsr        [A5 + 0x532 /* export_162, CODE:3 @ 00002640 */]
label0000328C:
0000328C  2F03                     move.l     -[A7], D3
0000328E  6100 00EC                bsr        +0xEE /* 0000337C */
label00003292:
00003292  6000 0CB8                bra        +0xCBA /* 00003F4C */
fn00003296:
00003296  6100 D2F6                bsr        -0x2D08 /* 0000058E */
0000329A  7800                     moveq.l    D4, 0x00
0000329C  7E00                     moveq.l    D7, 0x00
0000329E  206E 0010                movea.l    A0, [A6 + 0x10]
000032A2  50D0                     st         [A0]
000032A4  4A46                     tst.w      D6
000032A6  6776                     beq        +0x78 /* 0000331E */
label000032A8:
000032A8  285A                     movea.l    A4, [A2]+
000032AA  2654                     movea.l    A3, [A4]
000032AC  4A2E 0014                tst.b      [A6 + 0x14]
000032B0  6708                     beq        +0xA /* 000032BA */
000032B2  082B 0001 000B           btst.b     [A3 + 0xB], 0x1
000032B8  6760                     beq        +0x62 /* 0000331A */
label000032BA:
000032BA  554F                     subq.w     A7, 2
000032BC  51E7                     sf         -[A7]
000032BE  486E FFF6                pea.l      [A6 - 0xA]
000032C2  2F2E 000C                move.l     -[A7], [A6 + 0xC]
000032C6  2F0C                     move.l     -[A7], A4
000032C8  61CC                     bsr        -0x32 /* 00003296 */
000032CA  301F                     move.w     D0, [A7]+
000032CC  6B04                     bmi        +0x6 /* 000032D2 */
000032CE  D840                     add.w      D4, D0
000032D0  6006                     bra        +0x8 /* 000032D8 */
label000032D2:
000032D2  9840                     sub.w      D4, D0
000032D4  08C7 0007                bset.b     D7, 0x7
label000032D8:
000032D8  6100 F032                bsr        -0xFCC /* 0000230C */
000032DC  554F                     subq.w     A7, 2
000032DE  2F09                     move.l     -[A7], A1
000032E0  486E FF8A                pea.l      [A6 - 0x76]
000032E4  2F2E 000C                move.l     -[A7], [A6 + 0xC]
000032E8  6100 F6EA                bsr        -0x914 /* 000029D4 */
000032EC  301F                     move.w     D0, [A7]+
000032EE  672A                     beq        +0x2C /* 0000331A */
000032F0  226E FF8A                movea.l    A1, [A6 - 0x76]
000032F4  2051                     movea.l    A0, [A1]
000032F6  0C50 0004                cmpi.w     [A0], 0x4
000032FA  671E                     beq        +0x20 /* 0000331A */
000032FC  0C68 FFFD 000C           cmpi.w     [A0 + 0xC], 0xFFFD
00003302  6706                     beq        +0x8 /* 0000330A */
00003304  206E 0010                movea.l    A0, [A6 + 0x10]
00003308  51D0                     sf         [A0]
label0000330A:
0000330A  554F                     subq.w     A7, 2
0000330C  2F2E 000C                move.l     -[A7], [A6 + 0xC]
00003310  2F09                     move.l     -[A7], A1
00003312  6100 E276                bsr        -0x1D88 /* 0000158A */
00003316  8E5F                     or.w       D7, [A7]+
00003318  5244                     addq.w     D4, 1
label0000331A:
0000331A  5346                     subq.w     D6, 1
0000331C  668A                     bne        -0x74 /* 000032A8 */
label0000331E:
0000331E  0807 0007                btst.b     D7, 0x7
00003322  6606                     bne        +0x8 /* 0000332A */
00003324  0807 0002                btst.b     D7, 0x2
00003328  6702                     beq        +0x4 /* 0000332C */
label0000332A:
0000332A  4444                     neg.w      D4
label0000332C:
0000332C  3D44 0016                move.w     [A6 + 0x16], D4
00003330  6000 FC7E                bra        -0x380 /* 00002FB0 */
fn00003334:
00003334  6100 D24A                bsr        -0x2DB4 /* 00000580 */
00003338  50E7                     st         -[A7]
0000333A  487A 0012                pea.l      [PC + 0x12 /* 0000334E, value 0x6100D230, cstring "a" */]
0000333E  42A7                     clr.l      -[A7]
00003340  2F0C                     move.l     -[A7], A4
00003342  2F2D FE6C                move.l     -[A7], [A5 - 0x194]
00003346  6100 EE1C                bsr        -0x11E2 /* 00002164 */
0000334A  6000 D728                bra        -0x28D6 /* 00000A74 */
0000334E  6100 D230                bsr        -0x2DCE /* 00000580 */
00003352  082B 0006 000B           btst.b     [A3 + 0xB], 0x6
00003358  671A                     beq        +0x1C /* 00003374 */
0000335A  246E 000E                movea.l    A2, [A6 + 0xE]
0000335E  2052                     movea.l    A0, [A2]
00003360  3028 0022                move.w     D0, [A0 + 0x22]
00003364  B06B 0022                cmp.w      D0, [A3 + 0x22]
00003368  660A                     bne        +0xC /* 00003374 */
0000336A  554F                     subq.w     A7, 2
0000336C  2F0C                     move.l     -[A7], A4
0000336E  6100 E264                bsr        -0x1D9A /* 000015D4 */
00003372  544F                     addq.w     A7, 2
label00003374:
00003374  426E 0012                clr.w      [A6 + 0x12]
00003378  6000 0BD2                bra        +0xBD4 /* 00003F4C */
fn0000337C:
0000337C  6100 D202                bsr        -0x2DFC /* 00000580 */
00003380  50E7                     st         -[A7]
00003382  487A 0012                pea.l      [PC + 0x12 /* 00003396, value 0x6100D1E8, cstring "a" */]
00003386  42A7                     clr.l      -[A7]
00003388  2F0C                     move.l     -[A7], A4
0000338A  2F2D FE6C                move.l     -[A7], [A5 - 0x194]
0000338E  6100 EDD4                bsr        -0x122A /* 00002164 */
00003392  6000 D6E0                bra        -0x291E /* 00000A74 */
00003396  6100 D1E8                bsr        -0x2E16 /* 00000580 */
0000339A  08AB 0006 000B           bclr.b     [A3 + 0xB], 0x6
000033A0  426E 0012                clr.w      [A6 + 0x12]
000033A4  6000 0BA6                bra        +0xBA8 /* 00003F4C */
fn000033A8:
000033A8  6100 D1D6                bsr        -0x2E28 /* 00000580 */
000033AC  426E 0012                clr.w      [A6 + 0x12]
000033B0  594F                     subq.w     A7, 4
000033B2  2F0C                     move.l     -[A7], A4
000033B4  6100 ED8E                bsr        -0x1270 /* 00002144 */
000033B8  205F                     movea.l    A0, [A7]+
000033BA  2E08                     move.l     D7, A0
000033BC  2050                     movea.l    A0, [A0]
000033BE  3428 0022                move.w     D2, [A0 + 0x22]
000033C2  7A00                     moveq.l    D5, 0x00
000033C4  7800                     moveq.l    D4, 0x00
000033C6  7600                     moveq.l    D3, 0x00
000033C8  7200                     moveq.l    D1, 0x00
000033CA  4A46                     tst.w      D6
000033CC  672A                     beq        +0x2C /* 000033F8 */
label000033CE:
000033CE  225A                     movea.l    A1, [A2]+
000033D0  2051                     movea.l    A0, [A1]
000033D2  0828 0001 000B           btst.b     [A0 + 0xB], 0x1
000033D8  671A                     beq        +0x1C /* 000033F4 */
000033DA  5243                     addq.w     D3, 1
000033DC  0C50 000C                cmpi.w     [A0], 0xC
000033E0  6602                     bne        +0x4 /* 000033E4 */
000033E2  50C1                     st         D1
label000033E4:
000033E4  0C50 0004                cmpi.w     [A0], 0x4
000033E8  6602                     bne        +0x4 /* 000033EC */
000033EA  5244                     addq.w     D4, 1
label000033EC:
000033EC  B468 0022                cmp.w      D2, [A0 + 0x22]
000033F0  6702                     beq        +0x4 /* 000033F4 */
000033F2  50C5                     st         D5
label000033F4:
000033F4  5346                     subq.w     D6, 1
000033F6  66D6                     bne        -0x28 /* 000033CE */
label000033F8:
000033F8  246E 000C                movea.l    A2, [A6 + 0xC]
000033FC  4A01                     tst.b      D1
000033FE  6710                     beq        +0x12 /* 00003410 */
00003400  4A2E 0010                tst.b      [A6 + 0x10]
00003404  6606                     bne        +0x8 /* 0000340C */
00003406  B5ED FE6C                cmpa.l     A2, [A5 - 0x194]
0000340A  6704                     beq        +0x6 /* 00003410 */
label0000340C:
0000340C  7265                     moveq.l    D1, 0x65
0000340E  6022                     bra        +0x24 /* 00003432 */
label00003410:
00003410  554F                     subq.w     A7, 2
00003412  2F2D FE68                move.l     -[A7], [A5 - 0x198]
00003416  2F0A                     move.l     -[A7], A2
00003418  6100 F278                bsr        -0xD86 /* 00002692 */
0000341C  4A1F                     tst.b      [A7]+
0000341E  6714                     beq        +0x16 /* 00003434 */
00003420  554F                     subq.w     A7, 2
00003422  50E7                     st         -[A7]
00003424  2F0C                     move.l     -[A7], A4
00003426  6100 EE34                bsr        -0x11CA /* 0000225C */
0000342A  301F                     move.w     D0, [A7]+
0000342C  7262                     moveq.l    D1, 0x62
0000342E  0800 0007                btst.b     D0, 0x7
label00003432:
00003432  6662                     bne        +0x64 /* 00003496 */
label00003434:
00003434  B9CA                     cmpa.l     A4, A2
00003436  6728                     beq        +0x2A /* 00003460 */
00003438  2252                     movea.l    A1, [A2]
0000343A  0C51 0004                cmpi.w     [A1], 0x4
0000343E  660C                     bne        +0xE /* 0000344C */
00003440  4A2E 0010                tst.b      [A6 + 0x10]
00003444  6606                     bne        +0x8 /* 0000344C */
00003446  B469 0022                cmp.w      D2, [A1 + 0x22]
0000344A  6714                     beq        +0x16 /* 00003460 */
label0000344C:
0000344C  554F                     subq.w     A7, 2
0000344E  50E7                     st         -[A7]
00003450  2F0A                     move.l     -[A7], A2
00003452  6100 EE08                bsr        -0x11F6 /* 0000225C */
00003456  301F                     move.w     D0, [A7]+
00003458  724B                     moveq.l    D1, 0x4B
0000345A  0800 0007                btst.b     D0, 0x7
0000345E  66D2                     bne        -0x2C /* 00003432 */
label00003460:
00003460  B5ED FE6C                cmpa.l     A2, [A5 - 0x194]
00003464  6728                     beq        +0x2A /* 0000348E */
00003466  724C                     moveq.l    D1, 0x4C
00003468  5344                     subq.w     D4, 1
0000346A  6D16                     blt        +0x18 /* 00003482 */
0000346C  6E28                     bgt        +0x2A /* 00003496 */
0000346E  5343                     subq.w     D3, 1
00003470  6624                     bne        +0x26 /* 00003496 */
00003472  7266                     moveq.l    D1, 0x66
00003474  2252                     movea.l    A1, [A2]
00003476  0C51 000C                cmpi.w     [A1], 0xC
0000347A  6706                     beq        +0x8 /* 00003482 */
0000347C  0C51 0004                cmpi.w     [A1], 0x4
00003480  6614                     bne        +0x16 /* 00003496 */
label00003482:
00003482  725A                     moveq.l    D1, 0x5A
00003484  4A05                     tst.b      D5
00003486  6706                     beq        +0x8 /* 0000348E */
00003488  B4ED FE68                cmpa.w     A2, [A5 - 0x198]
0000348C  6608                     bne        +0xA /* 00003496 */
label0000348E:
0000348E  522E 0012                addq.b     [A6 + 0x12], 1
label00003492:
00003492  6000 0AB8                bra        +0xABA /* 00003F4C */
label00003496:
00003496  3F01                     move.w     -[A7], D1
00003498  4EAD 0532                jsr        [A5 + 0x532 /* export_162, CODE:3 @ 00002640 */]
0000349C  60F4                     bra        -0xA /* 00003492 */
fn0000349E:
0000349E  6100 D0E0                bsr        -0x2F1E /* 00000580 */
000034A2  2A0C                     move.l     D5, A4
000034A4  286B 000E                movea.l    A4, [A3 + 0xE]
000034A8  2654                     movea.l    A3, [A4]
000034AA  45EB 003A                lea.l      A2, [A3 + 0x3A]
000034AE  3C2B 0038                move.w     D6, [A3 + 0x38]
label000034B2:
000034B2  BA9A                     cmp.l      D5, [A2]+
000034B4  6704                     beq        +0x6 /* 000034BA */
000034B6  5346                     subq.w     D6, 1
000034B8  66F8                     bne        -0x6 /* 000034B2 */
label000034BA:
000034BA  3D46 000C                move.w     [A6 + 0xC], D6
000034BE  6000 D5B4                bra        -0x2A4A /* 00000A74 */
export_54:
fn000034C2:
000034C2  6100 D0CA                bsr        -0x2F34 /* 0000058E */
000034C6  246E 000C                movea.l    A2, [A6 + 0xC]
000034CA  4212                     clr.b      [A2]
000034CC  222B 0028                move.l     D1, [A3 + 0x28]
000034D0  7805                     moveq.l    D4, 0x05
000034D2  0C53 000C                cmpi.w     [A3], 0xC
000034D6  6742                     beq        +0x44 /* 0000351A */
000034D8  780C                     moveq.l    D4, 0x0C
000034DA  0C53 0004                cmpi.w     [A3], 0x4
000034DE  673A                     beq        +0x3C /* 0000351A */
000034E0  0C53 0010                cmpi.w     [A3], 0x10
000034E4  6734                     beq        +0x36 /* 0000351A */
000034E6  5244                     addq.w     D4, 1
000034E8  0C53 0008                cmpi.w     [A3], 0x8
000034EC  672C                     beq        +0x2E /* 0000351A */
000034EE  5244                     addq.w     D4, 1
000034F0  0C81 4150 504C           cmpi.l     D1, 0x4150504C /* 'APPL' */
000034F6  6722                     beq        +0x24 /* 0000351A */
000034F8  5444                     addq.w     D4, 2
000034FA  4A81                     tst.l      D1
000034FC  671C                     beq        +0x1E /* 0000351A */
000034FE  2F0A                     move.l     -[A7], A2
00003500  594F                     subq.w     A7, 4
00003502  2F0C                     move.l     -[A7], A4
00003504  6100 EA10                bsr        -0x15EE /* 00001F16 */
00003508  4A97                     tst.l      [A7]
0000350A  6604                     bne        +0x6 /* 00003510 */
0000350C  504F                     addq.w     A7, 8
0000350E  600A                     bra        +0xC /* 0000351A */
label00003510:
00003510  6100 EDE2                bsr        -0x121C /* 000022F4 */
00003514  7620                     moveq.l    D3, 0x20
00003516  6100 E612                bsr        -0x19EC /* 00001B2A */
label0000351A:
0000351A  6100 E5F8                bsr        -0x1A06 /* 00001B14 */
0000351E  6000 088C                bra        +0x88E /* 00003DAC */
fn00003522:
00003522  6100 D06A                bsr        -0x2F94 /* 0000058E */
00003526  1F2B 000A                move.b     -[A7], [A3 + 0xA]
0000352A  177C 0001 000A           move.b     [A3 + 0xA], 0x1
00003530  426E 0010                clr.w      [A6 + 0x10]
00003534  286E 000C                movea.l    A4, [A6 + 0xC]
00003538  1F14                     move.b     -[A7], [A4]
0000353A  08D4 0007                bset.b     [A4], 0x7
0000353E  2654                     movea.l    A3, [A4]
00003540  6100 EDE6                bsr        -0x1218 /* 00002328 */
00003544  189F                     move.b     [A4], [A7]+
00003546  4A46                     tst.w      D6
00003548  671A                     beq        +0x1C /* 00003564 */
label0000354A:
0000354A  2A1A                     move.l     D5, [A2]+
0000354C  B9C5                     cmpa.l     A4, D5
0000354E  6710                     beq        +0x12 /* 00003560 */
00003550  554F                     subq.w     A7, 2
00003552  486E FF96                pea.l      [A6 - 0x6A]
00003556  2F05                     move.l     -[A7], D5
00003558  6100 081C                bsr        +0x81E /* 00003D76 */
0000355C  4A1F                     tst.b      [A7]+
0000355E  6608                     bne        +0xA /* 00003568 */
label00003560:
00003560  5346                     subq.w     D6, 1
00003562  66E6                     bne        -0x18 /* 0000354A */
label00003564:
00003564  522E 0010                addq.b     [A6 + 0x10], 1
label00003568:
00003568  206E 0008                movea.l    A0, [A6 + 0x8]
0000356C  2050                     movea.l    A0, [A0]
0000356E  115F 000A                move.b     [A0 + 0xA], [A7]+
00003572  6000 0838                bra        +0x83A /* 00003DAC */
export_53:
fn00003576:
00003576  6100 D016                bsr        -0x2FE8 /* 0000058E */
0000357A  426E 000E                clr.w      [A6 + 0xE]
0000357E  4EAD 02FA                jsr        [A5 + 0x2FA /* export_91, CODE:3 @ 000030E2 */]
00003582  382B 0022                move.w     D4, [A3 + 0x22]
00003586  3A2B 0024                move.w     D5, [A3 + 0x24]
0000358A  1E2E 000C                move.b     D7, [A6 + 0xC]
0000358E  6100 D51A                bsr        -0x2AE4 /* 00000AAA */
00003592  3F04                     move.w     -[A7], D4
00003594  6100 E27C                bsr        -0x1D82 /* 00001812 */
00003598  B878 0210                cmp.w      D4, [0x00000210 /* BootDrive */]
0000359C  6604                     bne        +0x6 /* 000035A2 */
0000359E  4EAD 0442                jsr        [A5 + 0x442 /* export_132, CODE:3 @ 00002CBE */]
label000035A2:
000035A2  2F0C                     move.l     -[A7], A4
000035A4  6100 0878                bsr        +0x87A /* 00003E1E */
000035A8  554F                     subq.w     A7, 2
000035AA  2F0C                     move.l     -[A7], A4
000035AC  6100 D8AA                bsr        -0x2754 /* 00000E58 */
000035B0  4A1F                     tst.b      [A7]+
000035B2  6640                     bne        +0x42 /* 000035F4 */
000035B4  B878 0210                cmp.w      D4, [0x00000210 /* BootDrive */]
000035B8  660A                     bne        +0xC /* 000035C4 */
000035BA  3F3C 003B                move.w     -[A7], 0x3B /* ';' */
000035BE  4EAD 0532                jsr        [A5 + 0x532 /* export_162, CODE:3 @ 00002640 */]
000035C2  6048                     bra        +0x4A /* 0000360C */
label000035C4:
000035C4  3F3C 0038                move.w     -[A7], 0x38 /* '8' */
000035C8  4EAD 0532                jsr        [A5 + 0x532 /* export_162, CODE:3 @ 00002640 */]
000035CC  2F0C                     move.l     -[A7], A4
000035CE  6100 DE14                bsr        -0x21EA /* 000013E4 */
000035D2  6100 1156                bsr        +0x1158 /* 0000472A */
000035D6  3F04                     move.w     -[A7], D4
000035D8  4EAD 054A                jsr        [A5 + 0x54A /* export_165, CODE:3 @ 000025DC */]
000035DC  41EE FFA6                lea.l      A0, [A6 - 0x5A]
000035E0  42A8 0012                clr.l      [A0 + 0x12]
000035E4  3144 0016                move.w     [A0 + 0x16], D4
000035E8  A00E                     syscall    UnmountVol/HUnmountVol
000035EA  522E 000E                addq.b     [A6 + 0xE], 1
000035EE  7006                     moveq.l    D0, 0x06
000035F0  6000 CFDC                bra        -0x3022 /* 000005CE */
label000035F4:
000035F4  50E7                     st         -[A7]
000035F6  2F0C                     move.l     -[A7], A4
000035F8  6100 E08A                bsr        -0x1F74 /* 00001684 */
000035FC  4A07                     tst.b      D7
000035FE  670C                     beq        +0xE /* 0000360C */
00003600  3F04                     move.w     -[A7], D4
00003602  4EAD 054A                jsr        [A5 + 0x54A /* export_165, CODE:3 @ 000025DC */]
00003606  2F0C                     move.l     -[A7], A4
00003608  6100 118C                bsr        +0x118E /* 00004796 */
label0000360C:
0000360C  4EAD 0342                jsr        [A5 + 0x342 /* export_100, CODE:3 @ 000030DA */]
00003610  6000 1014                bra        +0x1016 /* 00004626 */
fn00003614:
00003614  6100 CF78                bsr        -0x3086 /* 0000058E */
00003618  3C2E 000C                move.w     D6, [A6 + 0xC]
0000361C  51C5                     sf         D5
0000361E  554F                     subq.w     A7, 2
00003620  2F3C 464F 424A           move.l     -[A7], 0x464F424A /* 'FOBJ' */
00003626  A99C                     syscall    CountResources
00003628  3E1F                     move.w     D7, [A7]+
0000362A  6722                     beq        +0x24 /* 0000364E */
label0000362C:
0000362C  594F                     subq.w     A7, 4
0000362E  2F3C 464F 424A           move.l     -[A7], 0x464F424A /* 'FOBJ' */
00003634  3F07                     move.w     -[A7], D7
00003636  A99D                     syscall    GetIndResource
00003638  265F                     movea.l    A3, [A7]+
0000363A  2053                     movea.l    A0, [A3]
0000363C  0C50 0004                cmpi.w     [A0], 0x4
00003640  6608                     bne        +0xA /* 0000364A */
00003642  BC68 0022                cmp.w      D6, [A0 + 0x22]
00003646  6700 0058                beq        +0x5A /* 000036A0 */
label0000364A:
0000364A  5347                     subq.w     D7, 1
0000364C  66DE                     bne        -0x20 /* 0000362C */
label0000364E:
0000364E  554F                     subq.w     A7, 2
00003650  4EAD 0472                jsr        [A5 + 0x472 /* export_138, CODE:3 @ 00001B30 */]
00003654  101F                     move.b     D0, [A7]+
00003656  802D FE62                or.b       D0, [A5 - 0x19E]
0000365A  1B40 FE62                move.b     [A5 - 0x19E], D0
0000365E  BC78 0210                cmp.w      D6, [0x00000210 /* BootDrive */]
00003662  672A                     beq        +0x2C /* 0000368E */
00003664  203C 0000 0400           move.l     D0, 0x400
0000366A  A122                     syscall    NewHandle, flags=1
0000366C  2608                     move.l     D3, A0
0000366E  2F08                     move.l     -[A7], A0
00003670  3F06                     move.w     -[A7], D6
00003672  4EAD 03EA                jsr        [A5 + 0x3EA /* export_121, CODE:3 @ 0000313E */]
00003676  2043                     movea.l    A0, D3
00003678  2250                     movea.l    A1, [A0]
0000367A  3211                     move.w     D1, [A1]
0000367C  A023                     syscall    DisposHandle/DisposeHandle
0000367E  0C41 4C4B                cmpi.w     D1, 0x4C4B /* 'LK' */
00003682  670A                     beq        +0xC /* 0000368E */
00003684  2F2D FD1C                move.l     -[A7], [A5 - 0x2E4]
00003688  3F06                     move.w     -[A7], D6
0000368A  4EAD 0312                jsr        [A5 + 0x312 /* export_94, CODE:3 @ 00003142 */]
label0000368E:
0000368E  594F                     subq.w     A7, 4
00003690  3F06                     move.w     -[A7], D6
00003692  2F0C                     move.l     -[A7], A4
00003694  6100 005C                bsr        +0x5E /* 000036F2 */
00003698  265F                     movea.l    A3, [A7]+
0000369A  200B                     move.l     D0, A3
0000369C  6730                     beq        +0x32 /* 000036CE */
0000369E  50C5                     st         D5
label000036A0:
000036A0  2053                     movea.l    A0, [A3]
000036A2  3E28 0024                move.w     D7, [A0 + 0x24]
000036A6  3006                     move.w     D0, D6
000036A8  4EBA ED3E                jsr        [PC - 0x12C2 /* 000023E8 */]
000036AC  2253                     movea.l    A1, [A3]
000036AE  3368 0026 0026           move.w     [A1 + 0x26], [A0 + 0x26]
000036B4  4A05                     tst.b      D5
000036B6  660E                     bne        +0x10 /* 000036C6 */
000036B8  4267                     clr.w      -[A7]
000036BA  2F0B                     move.l     -[A7], A3
000036BC  6100 DFC6                bsr        -0x2038 /* 00001684 */
000036C0  2F0B                     move.l     -[A7], A3
000036C2  6100 D7E2                bsr        -0x281C /* 00000EA6 */
label000036C6:
000036C6  42A7                     clr.l      -[A7]
000036C8  2F0B                     move.l     -[A7], A3
000036CA  6100 DAF6                bsr        -0x2508 /* 000011C2 */
label000036CE:
000036CE  2D4B 000E                move.l     [A6 + 0xE], A3
000036D2  6000 0F52                bra        +0xF54 /* 00004626 */
000036D6  0028 0002 00D6           ori.b      [A0 + 0xD6], 0x2
000036DC  01AC 003E                bclr       [A4 + 0x3E], D0
000036E0  000E 00FA                ori.b      A6, 0xFA
000036E4  01A2                     bclr       -[A2], D0
000036E6  0A46 696E                xori.w     D6, 0x696E /* 'in' */
000036EA  6465                     bcc        +0x67 /* 00003751 */
000036EC  7220                     moveq.l    D1, 0x20
000036EE  312E 3020                move.w     -[A0], [A6 + 0x3020]
fn000036F2:
000036F2  6100 CE9A                bsr        -0x3164 /* 0000058E */
000036F6  2D78 0AF2 FF8E           move.l     [A6 - 0x72], [0x00000AF2 /* ResErrProc */]
000036FC  42B8 0AF2                clr.l      [0x00000AF2 /* ResErrProc */]
00003700  3C2E 000C                move.w     D6, [A6 + 0xC]
00003704  280C                     move.l     D4, A4
00003706  41EE FFA6                lea.l      A0, [A6 - 0x5A]
0000370A  42A8 0012                clr.l      [A0 + 0x12]
0000370E  A014                     syscall    GetVol/PBHGetVol/HGetVol
00003710  3D68 0016 FFF6           move.w     [A6 - 0xA], [A0 + 0x16]
00003716  3146 0016                move.w     [A0 + 0x16], D6
0000371A  A015                     syscall    SetVol/PBHSetVol/HSetVol
0000371C  594F                     subq.w     A7, 4
0000371E  3F3C 0001                move.w     -[A7], 0x1
00003722  4EAD 0062                jsr        [A5 + 0x62 /* export_8, CODE:1 @ 000001FC */]
00003726  261F                     move.l     D3, [A7]+
00003728  0683 0000 003E           addi.l     D3, 0x3E /* '>' */
0000372E  3006                     move.w     D0, D6
00003730  6100 ECB6                bsr        -0x1348 /* 000023E8 */
00003734  C7E8 0028                muls.w     D3, [A0 + 0x28]
00003738  594F                     subq.w     A7, 4
0000373A  3F3C 0002                move.w     -[A7], 0x2
0000373E  4EAD 0062                jsr        [A5 + 0x62 /* export_8, CODE:1 @ 000001FC */]
00003742  D69F                     add.l      D3, [A7]+
00003744  554F                     subq.w     A7, 2
00003746  2F03                     move.l     -[A7], D3
00003748  4EAD 05CA                jsr        [A5 + 0x5CA /* export_181, CODE:3 @ 00002028 */]
0000374C  7037                     moveq.l    D0, 0x37
0000374E  4A1F                     tst.b      [A7]+
00003750  6700 02A4                beq        +0x2A6 /* 000039F6 */
00003754  486E FE82                pea.l      [A6 - 0x17E]
00003758  3F3C 0001                move.w     -[A7], 0x1
0000375C  4EAD 0462                jsr        [A5 + 0x462 /* export_136, CODE:3 @ 00002968 */]
00003760  4A2D FE62                tst.b      [A5 - 0x19E]
00003764  665C                     bne        +0x5E /* 000037C2 */
00003766  554F                     subq.w     A7, 2
00003768  486E FE82                pea.l      [A6 - 0x17E]
0000376C  A997                     syscall    OpenResFile
0000376E  6004                     bra        +0x6 /* 00003774 */
00003770  4EAD 005A                jsr        [A5 + 0x5A /* export_7, CODE:1 @ 00000BBC */]
label00003774:
00003774  3E1F                     move.w     D7, [A7]+
00003776  3038 0A60                move.w     D0, [0x00000A60 /* ResErr */]
0000377A  6708                     beq        +0xA /* 00003784 */
0000377C  0C40 FFD5                cmpi.w     D0, 0xFFD5
00003780  6752                     beq        +0x54 /* 000037D4 */
00003782  6028                     bra        +0x2A /* 000037AC */
label00003784:
00003784  594F                     subq.w     A7, 4
00003786  2F3C 5354 5220           move.l     -[A7], 0x53545220 /* 'STR ' */
0000378C  4267                     clr.w      -[A7]
0000378E  4EAD 007A                jsr        [A5 + 0x7A /* export_11, CODE:1 @ 00000B14 */]
00003792  205F                     movea.l    A0, [A7]+
00003794  2008                     move.l     D0, A0
00003796  6714                     beq        +0x16 /* 000037AC */
00003798  7000                     moveq.l    D0, 0x00
0000379A  2050                     movea.l    A0, [A0]
0000379C  43FA FF48                lea.l      A1, [PC - 0xB8 /* 000036E6, value 0xA46696E '\nFin', pstring "Finder 1.0" */]
000037A0  1018                     move.b     D0, [A0]+
000037A2  4840                     swap.w     D0
000037A4  1019                     move.b     D0, [A1]+
000037A6  A03C                     syscall    CmpString
000037A8  6700 00A8                beq        +0xAA /* 00003852 */
label000037AC:
000037AC  3F07                     move.w     -[A7], D7
000037AE  A99A                     syscall    CloseResFile
000037B0  554F                     subq.w     A7, 2
000037B2  42A7                     clr.l      -[A7]
000037B4  3F3C 003D                move.w     -[A7], 0x3D /* '=' */
000037B8  4EAD 059A                jsr        [A5 + 0x59A /* export_175, CODE:3 @ 00002344 */]
000037BC  4A1F                     tst.b      [A7]+
000037BE  6700 023C                beq        +0x23E /* 000039FC */
label000037C2:
000037C2  554F                     subq.w     A7, 2
000037C4  3F06                     move.w     -[A7], D6
000037C6  4267                     clr.w      -[A7]
000037C8  486E FE82                pea.l      [A6 - 0x17E]
000037CC  4EAD 03FA                jsr        [A5 + 0x3FA /* export_123, CODE:3 @ 00002DD6 */]
000037D0  321F                     move.w     D1, [A7]+
000037D2  6B0C                     bmi        +0xE /* 000037E0 */
label000037D4:
000037D4  486E FE82                pea.l      [A6 - 0x17E]
000037D8  A9B1                     syscall    CreateResFile
000037DA  3238 0A60                move.w     D1, [0x00000A60 /* ResErr */]
000037DE  6716                     beq        +0x18 /* 000037F6 */
label000037E0:
000037E0  7054                     moveq.l    D0, 0x54
000037E2  0C41 FFD4                cmpi.w     D1, 0xFFD4
000037E6  670A                     beq        +0xC /* 000037F2 */
000037E8  7055                     moveq.l    D0, 0x55
000037EA  0C41 FFDE                cmpi.w     D1, 0xFFDE
000037EE  6702                     beq        +0x4 /* 000037F2 */
000037F0  7056                     moveq.l    D0, 0x56
label000037F2:
000037F2  6000 0202                bra        +0x204 /* 000039F6 */
label000037F6:
000037F6  41EE FFA6                lea.l      A0, [A6 - 0x5A]
000037FA  43EE FE82                lea.l      A1, [A6 - 0x17E]
000037FE  2149 0012                move.l     [A0 + 0x12], A1
00003802  3146 0016                move.w     [A0 + 0x16], D6
00003806  4228 001A                clr.b      [A0 + 0x1A]
0000380A  4268 001C                clr.w      [A0 + 0x1C]
0000380E  A00C                     syscall    GetFileInfo/PBHGetFInfo/HGetFileInfo
00003810  43E8 0020                lea.l      A1, [A0 + 0x20]
00003814  22FC 464E 4452           move.l     [A1]+, 0x464E4452 /* 'FNDR' */
0000381A  22FC 4552 494B           move.l     [A1]+, 0x4552494B /* 'ERIK' */
00003820  08D1 0006                bset.b     [A1], 0x6
00003824  A00D                     syscall    SetFileInfo/PBHSetFInfo/HSetFileInfo
00003826  554F                     subq.w     A7, 2
00003828  486E FE82                pea.l      [A6 - 0x17E]
0000382C  A997                     syscall    OpenResFile
0000382E  3E1F                     move.w     D7, [A7]+
00003830  7001                     moveq.l    D0, 0x01
00003832  41FA FEB2                lea.l      A0, [PC - 0x14E /* 000036E6, value 0xA46696E '\nFin', pstring "Finder 1.0" */]
00003836  D010                     add.b      D0, [A0]
00003838  A9E3                     syscall    PtrToHand
0000383A  2448                     movea.l    A2, A0
0000383C  2F0A                     move.l     -[A7], A2
0000383E  2F3C 5354 5220           move.l     -[A7], 0x53545220 /* 'STR ' */
00003844  4267                     clr.w      -[A7]
00003846  487A CE02                pea.l      [PC - 0x31FE /* 0000064A, value 0x6100 'a\0', cstring "" */]
0000384A  A9AB                     syscall    AddResource
0000384C  2F0A                     move.l     -[A7], A2
0000384E  4EAD 03A2                jsr        [A5 + 0x3A2 /* export_112, CODE:3 @ 00002F3A */]
label00003852:
00003852  21EE FF8E 0AF2           move.l     [0x00000AF2 /* ResErrProc */], [A6 - 0x72]
00003858  3B47 FE5C                move.w     [A5 - 0x1A4], D7
0000385C  3F3C 0007                move.w     -[A7], 0x7
00003860  50E7                     st         -[A7]
00003862  3F07                     move.w     -[A7], D7
00003864  4EAD 0382                jsr        [A5 + 0x382 /* export_108, CODE:3 @ 00002EC4 */]
00003868  594F                     subq.w     A7, 4
0000386A  2F3C 464F 424A           move.l     -[A7], 0x464F424A /* 'FOBJ' */
00003870  4267                     clr.w      -[A7]
00003872  4EAD 007A                jsr        [A5 + 0x7A /* export_11, CODE:1 @ 00000B14 */]
00003876  285F                     movea.l    A4, [A7]+
00003878  200C                     move.l     D0, A4
0000387A  57C3                     seq        D3
0000387C  663A                     bne        +0x3C /* 000038B8 */
0000387E  594F                     subq.w     A7, 4
00003880  4267                     clr.w      -[A7]
00003882  4EBA F7FE                jsr        [PC - 0x802 /* 00003082 */]
00003886  2857                     movea.l    A4, [A7]
00003888  4EAD 03A2                jsr        [A5 + 0x3A2 /* export_112, CODE:3 @ 00002F3A */]
0000388C  2054                     movea.l    A0, [A4]
0000388E  30FC 0004                move.w     [A0]+, 0x4
00003892  20F8 0A06                move.l     [A0]+, [0x00000A06 /* MinusOne */]
00003896  4258                     clr.w      [A0]+
00003898  30FC 0081                move.w     [A0]+, 0x81
0000389C  30FC 0100                move.w     [A0]+, 0x100
000038A0  30FC FFFE                move.w     [A0]+, 0xFFFE
000038A4  20C4                     move.l     [A0]+, D4
000038A6  20C4                     move.l     [A0]+, D4
000038A8  D0FC 0012                add.w      A0, 0x12
000038AC  4298                     clr.l      [A0]+
000038AE  20FA FE26                move.l     [A0]+, [PC - 0x1DA /* 000036D6, value 0x280002, cstring "" */]
000038B2  20FA FE26                move.l     [A0]+, [PC - 0x1DA /* 000036DA, value 0xD601AC, cstring "" */]
000038B6  4298                     clr.l      [A0]+
label000038B8:
000038B8  2054                     movea.l    A0, [A4]
000038BA  08A8 0001 000B           bclr.b     [A0 + 0xB], 0x1
000038C0  3146 0022                move.w     [A0 + 0x22], D6
000038C4  3147 0024                move.w     [A0 + 0x24], D7
000038C8  2178 0A06 0002           move.l     [A0 + 0x2], [0x00000A06 /* MinusOne */]
000038CE  594F                     subq.w     A7, 4
000038D0  2F3C 464F 424A           move.l     -[A7], 0x464F424A /* 'FOBJ' */
000038D6  3F3C FFFF                move.w     -[A7], 0xFFFF
000038DA  4EAD 007A                jsr        [A5 + 0x7A /* export_11, CODE:1 @ 00000B14 */]
000038DE  2457                     movea.l    A2, [A7]
000038E0  4A9F                     tst.l      [A7]+
000038E2  665C                     bne        +0x5E /* 00003940 */
000038E4  594F                     subq.w     A7, 4
000038E6  3F3C FFFF                move.w     -[A7], 0xFFFF
000038EA  6100 F796                bsr        -0x868 /* 00003082 */
000038EE  2457                     movea.l    A2, [A7]
000038F0  4EAD 03A2                jsr        [A5 + 0x3A2 /* export_112, CODE:3 @ 00002F3A */]
000038F4  2052                     movea.l    A0, [A2]
000038F6  30FC 0008                move.w     [A0]+, 0x8
000038FA  20F8 0A06                move.l     [A0]+, [0x00000A06 /* MinusOne */]
000038FE  4258                     clr.w      [A0]+
00003900  30FC 0083                move.w     [A0]+, 0x83
00003904  30FC 0100                move.w     [A0]+, 0x100
00003908  4258                     clr.w      [A0]+
0000390A  20CC                     move.l     [A0]+, A4
0000390C  20CC                     move.l     [A0]+, A4
0000390E  4298                     clr.l      [A0]+
00003910  20F8 020C                move.l     [A0]+, [0x0000020C /* Time */]
00003914  20F8 020C                move.l     [A0]+, [0x0000020C /* Time */]
00003918  30C6                     move.w     [A0]+, D6
0000391A  30C7                     move.w     [A0]+, D7
0000391C  4258                     clr.w      [A0]+
0000391E  4298                     clr.l      [A0]+
00003920  20FA FDBC                move.l     [A0]+, [PC - 0x244 /* 000036DE, value 0x3E000E, cstring "" */]
00003924  20FA FDBC                move.l     [A0]+, [PC - 0x244 /* 000036E2, value 0xFA01A2, cstring "" */]
00003928  4298                     clr.l      [A0]+
0000392A  486E FE82                pea.l      [A6 - 0x17E]
0000392E  3F3C 0003                move.w     -[A7], 0x3
00003932  4EAD 0462                jsr        [A5 + 0x462 /* export_136, CODE:3 @ 00002968 */]
00003936  486E FE82                pea.l      [A6 - 0x17E]
0000393A  2F0A                     move.l     -[A7], A2
0000393C  4EBA 0766                jsr        [PC + 0x766 /* 000040A4 */]
label00003940:
00003940  2052                     movea.l    A0, [A2]
00003942  214C 0012                move.l     [A0 + 0x12], A4
00003946  554F                     subq.w     A7, 2
00003948  2F3C 464F 424A           move.l     -[A7], 0x464F424A /* 'FOBJ' */
0000394E  A99C                     syscall    CountResources
00003950  3A1F                     move.w     D5, [A7]+
label00003952:
00003952  5D4F                     subq.w     A7, 6
00003954  2F3C 464F 424A           move.l     -[A7], 0x464F424A /* 'FOBJ' */
0000395A  3F05                     move.w     -[A7], D5
0000395C  A99D                     syscall    GetIndResource
0000395E  2457                     movea.l    A2, [A7]
00003960  A9A4                     syscall    HomeResFile
00003962  BE5F                     cmp.w      D7, [A7]+
00003964  662A                     bne        +0x2C /* 00003990 */
00003966  2052                     movea.l    A0, [A2]
00003968  08A8 0001 000B           bclr.b     [A0 + 0xB], 0x1
0000396E  08A8 0002 000B           bclr.b     [A0 + 0xB], 0x2
00003974  D0FC 000E                add.w      A0, 0xE
00003978  4298                     clr.l      [A0]+
0000397A  4298                     clr.l      [A0]+
0000397C  4290                     clr.l      [A0]
0000397E  D0FC 000C                add.w      A0, 0xC
00003982  30C6                     move.w     [A0]+, D6
00003984  3087                     move.w     [A0], D7
00003986  5848                     addq.w     A0, 4
00003988  4290                     clr.l      [A0]
0000398A  D0FC 0010                add.w      A0, 0x10
0000398E  4250                     clr.w      [A0]
label00003990:
00003990  5345                     subq.w     D5, 1
00003992  66BE                     bne        -0x40 /* 00003952 */
00003994  554F                     subq.w     A7, 2
00003996  2F3C 464F 424A           move.l     -[A7], 0x464F424A /* 'FOBJ' */
0000399C  A99C                     syscall    CountResources
0000399E  3A1F                     move.w     D5, [A7]+
label000039A0:
000039A0  5D4F                     subq.w     A7, 6
000039A2  2F3C 464F 424A           move.l     -[A7], 0x464F424A /* 'FOBJ' */
000039A8  3F05                     move.w     -[A7], D5
000039AA  A99D                     syscall    GetIndResource
000039AC  2457                     movea.l    A2, [A7]
000039AE  A9A4                     syscall    HomeResFile
000039B0  BE5F                     cmp.w      D7, [A7]+
000039B2  6624                     bne        +0x26 /* 000039D8 */
000039B4  2252                     movea.l    A1, [A2]
000039B6  3029 000C                move.w     D0, [A1 + 0xC]
000039BA  2F0A                     move.l     -[A7], A2
000039BC  594F                     subq.w     A7, 4
000039BE  2F3C 464F 424A           move.l     -[A7], 0x464F424A /* 'FOBJ' */
000039C4  3F00                     move.w     -[A7], D0
000039C6  A9A0                     syscall    GetResource
000039C8  6100 CE9A                bsr        -0x3164 /* 00000864 */
000039CC  2052                     movea.l    A0, [A2]
000039CE  214C 0012                move.l     [A0 + 0x12], A4
000039D2  2F0A                     move.l     -[A7], A2
000039D4  6100 EC90                bsr        -0x136E /* 00002666 */
label000039D8:
000039D8  5345                     subq.w     D5, 1
000039DA  66C4                     bne        -0x3A /* 000039A0 */
000039DC  1F03                     move.b     -[A7], D3
000039DE  2F0C                     move.l     -[A7], A4
000039E0  6100 EF42                bsr        -0x10BC /* 00002924 */
000039E4  2F0C                     move.l     -[A7], A4
000039E6  6100 D570                bsr        -0x2A8E /* 00000F58 */
000039EA  2F0C                     move.l     -[A7], A4
000039EC  6100 04E6                bsr        +0x4E8 /* 00003ED4 */
000039F0  2D4C 000E                move.l     [A6 + 0xE], A4
000039F4  601C                     bra        +0x1E /* 00003A12 */
label000039F6:
000039F6  3F00                     move.w     -[A7], D0
000039F8  4EAD 0532                jsr        [A5 + 0x532 /* export_162, CODE:3 @ 00002640 */]
label000039FC:
000039FC  41EE FFA6                lea.l      A0, [A6 - 0x5A]
00003A00  42A8 0012                clr.l      [A0 + 0x12]
00003A04  316E 000C 0016           move.w     [A0 + 0x16], [A6 + 0xC]
00003A0A  A017                     syscall    Eject
00003A0C  A00E                     syscall    UnmountVol/HUnmountVol
00003A0E  42AE 000E                clr.l      [A6 + 0xE]
label00003A12:
00003A12  21EE FF8E 0AF2           move.l     [0x00000AF2 /* ResErrProc */], [A6 - 0x72]
00003A18  41EE FFA6                lea.l      A0, [A6 - 0x5A]
00003A1C  42A8 0012                clr.l      [A0 + 0x12]
00003A20  316E FFF6 0016           move.w     [A0 + 0x16], [A6 - 0xA]
00003A26  A015                     syscall    SetVol/PBHSetVol/HSetVol
00003A28  6000 0BFC                bra        +0xBFE /* 00004626 */
export_51:
00003A2C  6100 CB52                bsr        -0x34AC /* 00000580 */
00003A30  4A46                     tst.w      D6
00003A32  6700 00AC                beq        +0xAE /* 00003AE0 */
00003A36  7E00                     moveq.l    D7, 0x00
00003A38  554F                     subq.w     A7, 2
00003A3A  2F38 0A06                move.l     -[A7], [0x00000A06 /* MinusOne */]
00003A3E  2F38 0A06                move.l     -[A7], [0x00000A06 /* MinusOne */]
00003A42  2F0C                     move.l     -[A7], A4
00003A44  6100 DA8E                bsr        -0x2570 /* 000014D4 */
00003A48  3A1F                     move.w     D5, [A7]+
00003A4A  675A                     beq        +0x5C /* 00003AA6 */
00003A4C  554F                     subq.w     A7, 2
00003A4E  3F3C FFFF                move.w     -[A7], 0xFFFF
00003A52  2F0C                     move.l     -[A7], A4
00003A54  6100 DAC6                bsr        -0x2538 /* 0000151C */
00003A58  BA5F                     cmp.w      D5, [A7]+
00003A5A  6704                     beq        +0x6 /* 00003A60 */
00003A5C  7048                     moveq.l    D0, 0x48
00003A5E  6076                     bra        +0x78 /* 00003AD6 */
label00003A60:
00003A60  554F                     subq.w     A7, 2
00003A62  2F3C 4150 504C           move.l     -[A7], 0x4150504C /* 'APPL' */
00003A68  2F38 0A06                move.l     -[A7], [0x00000A06 /* MinusOne */]
00003A6C  2F0C                     move.l     -[A7], A4
00003A6E  6100 DA64                bsr        -0x259A /* 000014D4 */
00003A72  381F                     move.w     D4, [A7]+
00003A74  670C                     beq        +0xE /* 00003A82 */
00003A76  0C44 0001                cmpi.w     D4, 0x1
00003A7A  57C7                     seq        D7
00003A7C  6728                     beq        +0x2A /* 00003AA6 */
00003A7E  7049                     moveq.l    D0, 0x49
00003A80  6054                     bra        +0x56 /* 00003AD6 */
label00003A82:
00003A82  594F                     subq.w     A7, 4
00003A84  2F0C                     move.l     -[A7], A4
00003A86  6100 E6BC                bsr        -0x1942 /* 00002144 */
00003A8A  225F                     movea.l    A1, [A7]+
00003A8C  2051                     movea.l    A0, [A1]
00003A8E  554F                     subq.w     A7, 2
00003A90  2F38 0A06                move.l     -[A7], [0x00000A06 /* MinusOne */]
00003A94  2F28 002C                move.l     -[A7], [A0 + 0x2C]
00003A98  2F0C                     move.l     -[A7], A4
00003A9A  6100 DA38                bsr        -0x25C6 /* 000014D4 */
00003A9E  BA5F                     cmp.w      D5, [A7]+
00003AA0  6704                     beq        +0x6 /* 00003AA6 */
00003AA2  704A                     moveq.l    D0, 0x4A
00003AA4  6030                     bra        +0x32 /* 00003AD6 */
label00003AA6:
00003AA6  225A                     movea.l    A1, [A2]+
00003AA8  2051                     movea.l    A0, [A1]
00003AAA  0828 0001 000B           btst.b     [A0 + 0xB], 0x1
00003AB0  6714                     beq        +0x16 /* 00003AC6 */
00003AB2  4A07                     tst.b      D7
00003AB4  670A                     beq        +0xC /* 00003AC0 */
00003AB6  0CA8 4150 504C 0028      cmpi.l     [A0 + 0x28], 0x4150504C /* 'APPL' */
00003ABE  6606                     bne        +0x8 /* 00003AC6 */
label00003AC0:
00003AC0  50E7                     st         -[A7]
00003AC2  2F09                     move.l     -[A7], A1
00003AC4  611E                     bsr        +0x20 /* 00003AE4 */
label00003AC6:
00003AC6  554F                     subq.w     A7, 2
00003AC8  4EAD 00CA                jsr        [A5 + 0xCA /* export_21, CODE:1 @ 0000014E */]
00003ACC  4A1F                     tst.b      [A7]+
00003ACE  6610                     bne        +0x12 /* 00003AE0 */
00003AD0  5346                     subq.w     D6, 1
00003AD2  66D2                     bne        -0x2C /* 00003AA6 */
00003AD4  600A                     bra        +0xC /* 00003AE0 */
label00003AD6:
00003AD6  3F00                     move.w     -[A7], D0
00003AD8  4EAD 0532                jsr        [A5 + 0x532 /* export_162, CODE:3 @ 00002640 */]
00003ADC  50ED FF20                st         [A5 - 0xE0]
label00003AE0:
00003AE0  6000 CF92                bra        -0x306C /* 00000A74 */
export_52:
fn00003AE4:
00003AE4  6100 CA9A                bsr        -0x3564 /* 00000580 */
00003AE8  0C53 0000                cmpi.w     [A3], 0x0
00003AEC  6666                     bne        +0x68 /* 00003B54 */
00003AEE  6100 CFBA                bsr        -0x3044 /* 00000AAA */
00003AF2  244C                     movea.l    A2, A4
00003AF4  554F                     subq.w     A7, 2
00003AF6  4EAD 0472                jsr        [A5 + 0x472 /* export_138, CODE:3 @ 00001B30 */]
00003AFA  4A1F                     tst.b      [A7]+
00003AFC  6628                     bne        +0x2A /* 00003B26 */
00003AFE  0CAB 4150 504C 0028      cmpi.l     [A3 + 0x28], 0x4150504C /* 'APPL' */
00003B06  671E                     beq        +0x20 /* 00003B26 */
00003B08  594F                     subq.w     A7, 4
00003B0A  2F0C                     move.l     -[A7], A4
00003B0C  6100 E408                bsr        -0x1BF6 /* 00001F16 */
00003B10  245F                     movea.l    A2, [A7]+
00003B12  200A                     move.l     D0, A2
00003B14  670C                     beq        +0xE /* 00003B22 */
00003B16  2252                     movea.l    A1, [A2]
00003B18  0CA9 4150 504C 0028      cmpi.l     [A1 + 0x28], 0x4150504C /* 'APPL' */
00003B20  6704                     beq        +0x6 /* 00003B26 */
label00003B22:
00003B22  703E                     moveq.l    D0, 0x3E
00003B24  605E                     bra        +0x60 /* 00003B84 */
label00003B26:
00003B26  554F                     subq.w     A7, 2
00003B28  2F2D FE68                move.l     -[A7], [A5 - 0x198]
00003B2C  2F0C                     move.l     -[A7], A4
00003B2E  6100 EB62                bsr        -0x149C /* 00002692 */
00003B32  4A1F                     tst.b      [A7]+
00003B34  6610                     bne        +0x12 /* 00003B46 */
00003B36  554F                     subq.w     A7, 2
00003B38  2F2D FE68                move.l     -[A7], [A5 - 0x198]
00003B3C  2F0A                     move.l     -[A7], A2
00003B3E  6100 EB52                bsr        -0x14AC /* 00002692 */
00003B42  4A1F                     tst.b      [A7]+
00003B44  6704                     beq        +0x6 /* 00003B4A */
label00003B46:
00003B46  704F                     moveq.l    D0, 0x4F
00003B48  603A                     bra        +0x3C /* 00003B84 */
label00003B4A:
00003B4A  4267                     clr.w      -[A7]
00003B4C  2F0C                     move.l     -[A7], A4
00003B4E  2F0A                     move.l     -[A7], A2
00003B50  6100 EC64                bsr        -0x139A /* 000027B6 */
label00003B54:
00003B54  594F                     subq.w     A7, 4
00003B56  3F3C 0010                move.w     -[A7], 0x10
00003B5A  2F0C                     move.l     -[A7], A4
00003B5C  4EAD 03D2                jsr        [A5 + 0x3D2 /* export_118, CODE:3 @ 00002EFC */]
00003B60  201F                     move.l     D0, [A7]+
00003B62  6706                     beq        +0x8 /* 00003B6A */
00003B64  2F00                     move.l     -[A7], D0
00003B66  A91F                     syscall    SelectWindow
00003B68  6024                     bra        +0x26 /* 00003B8E */
label00003B6A:
00003B6A  082B 0007 000B           btst.b     [A3 + 0xB], 0x7
00003B70  6606                     bne        +0x8 /* 00003B78 */
00003B72  2F0C                     move.l     -[A7], A4
00003B74  6100 D3C4                bsr        -0x2C3A /* 00000F3A */
label00003B78:
00003B78  1F2E 000C                move.b     -[A7], [A6 + 0xC]
00003B7C  2F0C                     move.l     -[A7], A4
00003B7E  4EBA C904                jsr        [PC - 0x36FC /* 00000484 */]
00003B82  600A                     bra        +0xC /* 00003B8E */
label00003B84:
00003B84  3F00                     move.w     -[A7], D0
00003B86  4EAD 0532                jsr        [A5 + 0x532 /* export_162, CODE:3 @ 00002640 */]
00003B8A  50ED FF20                st         [A5 - 0xE0]
label00003B8E:
00003B8E  6000 0A96                bra        +0xA98 /* 00004626 */
fn00003B92:
00003B92  6100 C9FA                bsr        -0x3604 /* 0000058E */
00003B96  082B 0001 000B           btst.b     [A3 + 0xB], 0x1
00003B9C  6712                     beq        +0x14 /* 00003BB0 */
00003B9E  6100 E788                bsr        -0x1876 /* 00002328 */
00003BA2  A89E                     syscall    PenNormal
00003BA4  486E FF9E                pea.l      [A6 - 0x62]
00003BA8  A8A1                     syscall    FrameRect
00003BAA  486E FF96                pea.l      [A6 - 0x6A]
00003BAE  A8A1                     syscall    FrameRect
label00003BB0:
00003BB0  6000 CEC2                bra        -0x313C /* 00000A74 */
fn00003BB4:
00003BB4  6100 C9CA                bsr        -0x3634 /* 00000580 */
00003BB8  6708                     beq        +0xA /* 00003BC2 */
label00003BBA:
00003BBA  2F1A                     move.l     -[A7], [A2]+
00003BBC  61D4                     bsr        -0x2A /* 00003B92 */
00003BBE  5346                     subq.w     D6, 1
00003BC0  66F8                     bne        -0x6 /* 00003BBA */
label00003BC2:
00003BC2  6000 CEB0                bra        -0x314E /* 00000A74 */
export_50:
fn00003BC6:
00003BC6  6100 C9C6                bsr        -0x3638 /* 0000058E */
00003BCA  6100 E75C                bsr        -0x18A2 /* 00002328 */
00003BCE  41EE FF9E                lea.l      A0, [A6 - 0x62]
00003BD2  226E 000C                movea.l    A1, [A6 + 0xC]
00003BD6  22D8                     move.l     [A1]+, [A0]+
00003BD8  22D8                     move.l     [A1]+, [A0]+
00003BDA  41EE FF96                lea.l      A0, [A6 - 0x6A]
00003BDE  226E 0010                movea.l    A1, [A6 + 0x10]
00003BE2  22D8                     move.l     [A1]+, [A0]+
00003BE4  22D8                     move.l     [A1]+, [A0]+
00003BE6  6000 D59E                bra        -0x2A60 /* 00001186 */
fn00003BEA:
00003BEA  6100 C9A2                bsr        -0x365C /* 0000058E */
00003BEE  266B 000E                movea.l    A3, [A3 + 0xE]
00003BF2  2E0B                     move.l     D7, A3
00003BF4  2653                     movea.l    A3, [A3]
00003BF6  3A2B 0032                move.w     D5, [A3 + 0x32]
00003BFA  9A6B 002E                sub.w      D5, [A3 + 0x2E]
00003BFE  0445 0038                subi.w     D5, 0x38 /* '8' */
00003C02  45EE FFF6                lea.l      A2, [A6 - 0xA]
00003C06  24AB 0034                move.l     [A2], [A3 + 0x34]
00003C0A  2F0A                     move.l     -[A7], A2
00003C0C  4EAD 048A                jsr        [A5 + 0x48A /* export_141, CODE:3 @ 000028D8 */]
00003C10  2812                     move.l     D4, [A2]
00003C12  DA44                     add.w      D5, D4
00003C14  BEAD FE6C                cmp.l      D7, [A5 - 0x194]
00003C18  6614                     bne        +0x16 /* 00003C2E */
00003C1A  781C                     moveq.l    D4, 0x1C
00003C1C  4844                     swap.w     D4
00003C1E  382B 0032                move.w     D4, [A3 + 0x32]
00003C22  0444 0038                subi.w     D4, 0x38 /* '8' */
00003C26  3A2B 0030                move.w     D5, [A3 + 0x30]
00003C2A  0445 0048                subi.w     D5, 0x48 /* 'H' */
label00003C2E:
00003C2E  2654                     movea.l    A3, [A4]
00003C30  2744 0002                move.l     [A3 + 0x2], D4
label00003C34:
00003C34  554F                     subq.w     A7, 2
00003C36  2F0C                     move.l     -[A7], A4
00003C38  2F07                     move.l     -[A7], D7
00003C3A  6100 F8E6                bsr        -0x718 /* 00003522 */
00003C3E  4A1F                     tst.b      [A7]+
00003C40  663A                     bne        +0x3C /* 00003C7C */
00003C42  BEAD FE6C                cmp.l      D7, [A5 - 0x194]
00003C46  6718                     beq        +0x1A /* 00003C60 */
00003C48  066B 0040 0004           addi.w     [A3 + 0x4], 0x40 /* '@' */
00003C4E  BA6B 0004                cmp.w      D5, [A3 + 0x4]
00003C52  6EE0                     bgt        -0x1E /* 00003C34 */
00003C54  3744 0004                move.w     [A3 + 0x4], D4
00003C58  066B 0040 0002           addi.w     [A3 + 0x2], 0x40 /* '@' */
00003C5E  60D4                     bra        -0x2A /* 00003C34 */
label00003C60:
00003C60  066B 0040 0002           addi.w     [A3 + 0x2], 0x40 /* '@' */
00003C66  BA6B 0002                cmp.w      D5, [A3 + 0x2]
00003C6A  6EC8                     bgt        -0x36 /* 00003C34 */
00003C6C  4844                     swap.w     D4
00003C6E  3744 0002                move.w     [A3 + 0x2], D4
00003C72  4844                     swap.w     D4
00003C74  046B 0040 0004           subi.w     [A3 + 0x4], 0x40 /* '@' */
00003C7A  60B8                     bra        -0x46 /* 00003C34 */
label00003C7C:
00003C7C  0C53 0004                cmpi.w     [A3], 0x4
00003C80  6706                     beq        +0x8 /* 00003C88 */
00003C82  2F0C                     move.l     -[A7], A4
00003C84  6100 D2B4                bsr        -0x2D4A /* 00000F3A */
label00003C88:
00003C88  6000 CDEA                bra        -0x3214 /* 00000A74 */
fn00003C8C:
00003C8C  4EAD 049A                jsr        [A5 + 0x49A /* export_143, CODE:3 @ 000027C4 */]
00003C90  2069 0098                movea.l    A0, [A1 + 0x98]
00003C94  2050                     movea.l    A0, [A0]
00003C96  3028 000A                move.w     D0, [A0 + 0xA]
00003C9A  3200                     move.w     D1, D0
00003C9C  E041                     asr        D1.w, 8
00003C9E  0C41 0001                cmpi.w     D1, 0x1
00003CA2  4E75                     rts
export_48:
00003CA4  6100 C8DA                bsr        -0x3724 /* 00000580 */
00003CA8  4A46                     tst.w      D6
00003CAA  6700 006E                beq        +0x70 /* 00003D1A */
00003CAE  554F                     subq.w     A7, 2
00003CB0  2F38 0A06                move.l     -[A7], [0x00000A06 /* MinusOne */]
00003CB4  2F38 0A06                move.l     -[A7], [0x00000A06 /* MinusOne */]
00003CB8  2F0C                     move.l     -[A7], A4
00003CBA  6100 D818                bsr        -0x27E6 /* 000014D4 */
00003CBE  3A1F                     move.w     D5, [A7]+
00003CC0  672E                     beq        +0x30 /* 00003CF0 */
00003CC2  554F                     subq.w     A7, 2
00003CC4  3F3C FFFF                move.w     -[A7], 0xFFFF
00003CC8  2F0C                     move.l     -[A7], A4
00003CCA  6100 D850                bsr        -0x27AE /* 0000151C */
00003CCE  BA5F                     cmp.w      D5, [A7]+
00003CD0  6704                     beq        +0x6 /* 00003CD6 */
00003CD2  704D                     moveq.l    D0, 0x4D
00003CD4  603A                     bra        +0x3C /* 00003D10 */
label00003CD6:
00003CD6  554F                     subq.w     A7, 2
00003CD8  2F3C 4150 504C           move.l     -[A7], 0x4150504C /* 'APPL' */
00003CDE  2F38 0A06                move.l     -[A7], [0x00000A06 /* MinusOne */]
00003CE2  2F0C                     move.l     -[A7], A4
00003CE4  6100 D7EE                bsr        -0x2810 /* 000014D4 */
00003CE8  381F                     move.w     D4, [A7]+
00003CEA  6704                     beq        +0x6 /* 00003CF0 */
00003CEC  704E                     moveq.l    D0, 0x4E
00003CEE  6020                     bra        +0x22 /* 00003D10 */
label00003CF0:
00003CF0  225A                     movea.l    A1, [A2]+
00003CF2  2051                     movea.l    A0, [A1]
00003CF4  0828 0001 000B           btst.b     [A0 + 0xB], 0x1
00003CFA  6704                     beq        +0x6 /* 00003D00 */
00003CFC  2F09                     move.l     -[A7], A1
00003CFE  611E                     bsr        +0x20 /* 00003D1E */
label00003D00:
00003D00  554F                     subq.w     A7, 2
00003D02  4EAD 00CA                jsr        [A5 + 0xCA /* export_21, CODE:1 @ 0000014E */]
00003D06  4A1F                     tst.b      [A7]+
00003D08  6610                     bne        +0x12 /* 00003D1A */
00003D0A  5346                     subq.w     D6, 1
00003D0C  66E2                     bne        -0x1C /* 00003CF0 */
00003D0E  600A                     bra        +0xC /* 00003D1A */
label00003D10:
00003D10  3F00                     move.w     -[A7], D0
00003D12  4EAD 0532                jsr        [A5 + 0x532 /* export_162, CODE:3 @ 00002640 */]
00003D16  50ED FF20                st         [A5 - 0xE0]
label00003D1A:
00003D1A  6000 CD58                bra        -0x32A6 /* 00000A74 */
fn00003D1E:
00003D1E  6100 C860                bsr        -0x379E /* 00000580 */
00003D22  0C53 0000                cmpi.w     [A3], 0x0
00003D26  6648                     bne        +0x4A /* 00003D70 */
00003D28  6100 CD80                bsr        -0x327E /* 00000AAA */
00003D2C  594F                     subq.w     A7, 4
00003D2E  2F0C                     move.l     -[A7], A4
00003D30  6100 E1E4                bsr        -0x1E1A /* 00001F16 */
00003D34  245F                     movea.l    A2, [A7]+
00003D36  200A                     move.l     D0, A2
00003D38  670C                     beq        +0xE /* 00003D46 */
00003D3A  2252                     movea.l    A1, [A2]
00003D3C  0CA9 4150 504C 0028      cmpi.l     [A1 + 0x28], 0x4150504C /* 'APPL' */
00003D44  6704                     beq        +0x6 /* 00003D4A */
label00003D46:
00003D46  703E                     moveq.l    D0, 0x3E
00003D48  60C6                     bra        -0x38 /* 00003D10 */
label00003D4A:
00003D4A  202B 000E                move.l     D0, [A3 + 0xE]
00003D4E  222D FE68                move.l     D1, [A5 - 0x198]
00003D52  B081                     cmp.l      D0, D1
00003D54  670A                     beq        +0xC /* 00003D60 */
00003D56  2252                     movea.l    A1, [A2]
00003D58  2029 000E                move.l     D0, [A1 + 0xE]
00003D5C  B081                     cmp.l      D0, D1
00003D5E  6604                     bne        +0x6 /* 00003D64 */
label00003D60:
00003D60  704F                     moveq.l    D0, 0x4F
00003D62  60AC                     bra        -0x52 /* 00003D10 */
label00003D64:
00003D64  3F3C 0001                move.w     -[A7], 0x1
00003D68  2F0C                     move.l     -[A7], A4
00003D6A  2F0A                     move.l     -[A7], A2
00003D6C  6100 EA48                bsr        -0x15B6 /* 000027B6 */
label00003D70:
00003D70  50ED FF20                st         [A5 - 0xE0]
00003D74  60A4                     bra        -0x5A /* 00003D1A */
fn00003D76:
00003D76  6100 C816                bsr        -0x37E8 /* 0000058E */
00003D7A  426E 0010                clr.w      [A6 + 0x10]
00003D7E  6100 E5A8                bsr        -0x1A56 /* 00002328 */
00003D82  554F                     subq.w     A7, 2
00003D84  486E FF96                pea.l      [A6 - 0x6A]
00003D88  2F2E 000C                move.l     -[A7], [A6 + 0xC]
00003D8C  4878 09FA                push.l     0x9FA
00003D90  A8AA                     syscall    SectRect
00003D92  1D5F 0010                move.b     [A6 + 0x10], [A7]+
00003D96  6614                     bne        +0x16 /* 00003DAC */
00003D98  554F                     subq.w     A7, 2
00003D9A  486E FF9E                pea.l      [A6 - 0x62]
00003D9E  2F2E 000C                move.l     -[A7], [A6 + 0xC]
00003DA2  4878 09FA                push.l     0x9FA
00003DA6  A8AA                     syscall    SectRect
00003DA8  1D5F 0010                move.b     [A6 + 0x10], [A7]+
label00003DAC:
00003DAC  7008                     moveq.l    D0, 0x08
00003DAE  6000 C810                bra        -0x37EE /* 000005C0 */
export_42:
fn00003DB2:
00003DB2  6100 C7CC                bsr        -0x3832 /* 00000580 */
00003DB6  282B 000E                move.l     D4, [A3 + 0xE]
00003DBA  6722                     beq        +0x24 /* 00003DDE */
00003DBC  2F0C                     move.l     -[A7], A4
00003DBE  2844                     movea.l    A4, D4
00003DC0  2654                     movea.l    A3, [A4]
00003DC2  536B 0038                subq.w     [A3 + 0x38], 1
00003DC6  594F                     subq.w     A7, 4
00003DC8  2F0C                     move.l     -[A7], A4
00003DCA  703A                     moveq.l    D0, 0x3A
00003DCC  2F00                     move.l     -[A7], D0
00003DCE  486F 000C                pea.l      [A7 + 0xC]
00003DD2  7004                     moveq.l    D0, 0x04
00003DD4  2F00                     move.l     -[A7], D0
00003DD6  2F00                     move.l     -[A7], D0
00003DD8  42A7                     clr.l      -[A7]
00003DDA  A9E0                     syscall    Munger
00003DDC  504F                     addq.w     A7, 8
label00003DDE:
00003DDE  6000 CC94                bra        -0x336A /* 00000A74 */
00003DE2  48E7 1020                movem.l    -[A7], D3,A2
00003DE6  554F                     subq.w     A7, 2
00003DE8  2F3C 464F 424A           move.l     -[A7], 0x464F424A /* 'FOBJ' */
00003DEE  A99C                     syscall    CountResources
00003DF0  361F                     move.w     D3, [A7]+
label00003DF2:
00003DF2  594F                     subq.w     A7, 4
00003DF4  2F3C 464F 424A           move.l     -[A7], 0x464F424A /* 'FOBJ' */
00003DFA  3F03                     move.w     -[A7], D3
00003DFC  A99D                     syscall    GetIndResource
00003DFE  245F                     movea.l    A2, [A7]+
00003E00  2052                     movea.l    A0, [A2]
00003E02  0C50 0004                cmpi.w     [A0], 0x4
00003E06  660C                     bne        +0xE /* 00003E14 */
00003E08  0828 0002 000B           btst.b     [A0 + 0xB], 0x2
00003E0E  6604                     bne        +0x6 /* 00003E14 */
00003E10  2F0A                     move.l     -[A7], A2
00003E12  610A                     bsr        +0xC /* 00003E1E */
label00003E14:
00003E14  5343                     subq.w     D3, 1
00003E16  66DA                     bne        -0x24 /* 00003DF2 */
00003E18  4CDF 0408                movem.l    D3,A2, [A7]+
00003E1C  4E75                     rts
export_43:
fn00003E1E:
00003E1E  6100 C76E                bsr        -0x3890 /* 0000058E */
00003E22  4EAD 02FA                jsr        [A5 + 0x2FA /* export_91, CODE:3 @ 000030E2 */]
00003E26  382B 0022                move.w     D4, [A3 + 0x22]
00003E2A  3A2B 0024                move.w     D5, [A3 + 0x24]
00003E2E  082B 0007 0027           btst.b     [A3 + 0x27], 0x7
00003E34  6600 0096                bne        +0x98 /* 00003ECC */
00003E38  266B 0016                movea.l    A3, [A3 + 0x16]
label00003E3C:
00003E3C  200B                     move.l     D0, A3
00003E3E  676C                     beq        +0x6E /* 00003EAC */
00003E40  2453                     movea.l    A2, [A3]
00003E42  082A 0001 0026           btst.b     [A2 + 0x26], 0x1
00003E48  675A                     beq        +0x5C /* 00003EA4 */
00003E4A  41EE FFA6                lea.l      A0, [A6 - 0x5A]
00003E4E  43EA 003E                lea.l      A1, [A2 + 0x3E]
00003E52  2149 0012                move.l     [A0 + 0x12], A1
00003E56  316A 0022 0016           move.w     [A0 + 0x16], [A2 + 0x22]
00003E5C  116A 003C 001A           move.b     [A0 + 0x1A], [A2 + 0x3C]
00003E62  4268 001C                clr.w      [A0 + 0x1C]
00003E66  A00C                     syscall    GetFileInfo/PBHGetFInfo/HGetFileInfo
00003E68  6B3A                     bmi        +0x3C /* 00003EA4 */
00003E6A  2453                     movea.l    A2, [A3]
00003E6C  43E8 0020                lea.l      A1, [A0 + 0x20]
00003E70  22EA 0028                move.l     [A1]+, [A2 + 0x28]
00003E74  22EA 002C                move.l     [A1]+, [A2 + 0x2C]
00003E78  3028 0028                move.w     D0, [A0 + 0x28]
00003E7C  322A 0026                move.w     D1, [A2 + 0x26]
00003E80  0241 F100                andi.w     D1, 0xF100
00003E84  0240 0E00                andi.w     D0, 0xE00
00003E88  8240                     or.w       D1, D0
00003E8A  32C1                     move.w     [A1]+, D1
00003E8C  22EA 0002                move.l     [A1]+, [A2 + 0x2]
00003E90  32EA 000C                move.w     [A1]+, [A2 + 0xC]
00003E94  41EE FFA6                lea.l      A0, [A6 - 0x5A]
00003E98  A00D                     syscall    SetFileInfo/PBHSetFInfo/HSetFileInfo
00003E9A  6B08                     bmi        +0xA /* 00003EA4 */
00003E9C  2453                     movea.l    A2, [A3]
00003E9E  08AA 0001 0026           bclr.b     [A2 + 0x26], 0x1
label00003EA4:
00003EA4  2453                     movea.l    A2, [A3]
00003EA6  266A 0016                movea.l    A3, [A2 + 0x16]
00003EAA  6090                     bra        -0x6E /* 00003E3C */
label00003EAC:
00003EAC  554F                     subq.w     A7, 2
00003EAE  3F05                     move.w     -[A7], D5
00003EB0  4EAD 03E2                jsr        [A5 + 0x3E2 /* export_120, CODE:3 @ 00002E80 */]
00003EB4  301F                     move.w     D0, [A7]+
00003EB6  6708                     beq        +0xA /* 00003EC0 */
00003EB8  3F3C 0053                move.w     -[A7], 0x53 /* 'S' */
00003EBC  4EAD 0532                jsr        [A5 + 0x532 /* export_162, CODE:3 @ 00002640 */]
label00003EC0:
00003EC0  3F04                     move.w     -[A7], D4
00003EC2  4EAD 04EA                jsr        [A5 + 0x4EA /* export_153, CODE:3 @ 00002770 */]
00003EC6  2F0C                     move.l     -[A7], A4
00003EC8  6100 08CC                bsr        +0x8CE /* 00004796 */
label00003ECC:
00003ECC  4EAD 0342                jsr        [A5 + 0x342 /* export_100, CODE:3 @ 000030DA */]
00003ED0  6000 CBA2                bra        -0x345C /* 00000A74 */
fn00003ED4:
00003ED4  6100 C6AA                bsr        -0x3954 /* 00000580 */
00003ED8  266B 0016                movea.l    A3, [A3 + 0x16]
label00003EDC:
00003EDC  200B                     move.l     D0, A3
00003EDE  671C                     beq        +0x1E /* 00003EFC */
00003EE0  2453                     movea.l    A2, [A3]
00003EE2  554F                     subq.w     A7, 2
00003EE4  2F2A 0028                move.l     -[A7], [A2 + 0x28]
00003EE8  2F2A 002C                move.l     -[A7], [A2 + 0x2C]
00003EEC  4EAD 04C2                jsr        [A5 + 0x4C2 /* export_148, CODE:3 @ 000027CA */]
00003EF0  2453                     movea.l    A2, [A3]
00003EF2  355F 0008                move.w     [A2 + 0x8], [A7]+
00003EF6  266A 0016                movea.l    A3, [A2 + 0x16]
00003EFA  60E0                     bra        -0x1E /* 00003EDC */
label00003EFC:
00003EFC  6000 CB76                bra        -0x3488 /* 00000A74 */
fn00003F00:
00003F00  6100 C67E                bsr        -0x3980 /* 00000580 */
00003F04  554F                     subq.w     A7, 2
00003F06  2F2B 0028                move.l     -[A7], [A3 + 0x28]
00003F0A  2F2B 002C                move.l     -[A7], [A3 + 0x2C]
00003F0E  4EAD 04C2                jsr        [A5 + 0x4C2 /* export_148, CODE:3 @ 000027CA */]
00003F12  2654                     movea.l    A3, [A4]
00003F14  375F 0008                move.w     [A3 + 0x8], [A7]+
00003F18  6000 CB5A                bra        -0x34A4 /* 00000A74 */
export_38:
fn00003F1C:
00003F1C  6100 C662                bsr        -0x399C /* 00000580 */
00003F20  206B 000E                movea.l    A0, [A3 + 0xE]
00003F24  2050                     movea.l    A0, [A0]
00003F26  4AA8 0028                tst.l      [A0 + 0x28]
00003F2A  6602                     bne        +0x4 /* 00003F2E */
00003F2C  FADE 2F28                .extension 0xADE <<F/2-3/5>> // unimplemented
// begin alternate branch 00003F2E-00003F38
label00003F2E:
00003F2E  2F28 0028                move.l     -[A7], [A0 + 0x28]
00003F32  A873                     syscall    SetPort
00003F34  6000 CB3E                bra        -0x34C0 /* 00000A74 */
// end alternate branch 00003F2E-00003F38
label00003F2E: // (misaligned)
00003F30  0028 A873 6000           ori.b      [A0 + 0x6000], 0x73 /* 's' */
00003F36  CB3E                     and.b      <<invalid special address>>, D5
export_29:
00003F38  4E75                     rts
export_40:
00003F3A  6100 C644                bsr        -0x39BA /* 00000580 */
00003F3E  082B 0001 000B           btst.b     [A3 + 0xB], 0x1
00003F44  57EE 0012                seq        [A6 + 0x12]
00003F48  522E 0012                addq.b     [A6 + 0x12], 1
label00003F4C:
00003F4C  700A                     moveq.l    D0, 0x0A
00003F4E  6000 C670                bra        -0x398E /* 000005C0 */
export_41:
fn00003F52:
00003F52  6100 C63A                bsr        -0x39C4 /* 0000058E */
00003F56  6764                     beq        +0x66 /* 00003FBC */
label00003F58:
00003F58  285A                     movea.l    A4, [A2]+
00003F5A  2654                     movea.l    A3, [A4]
00003F5C  6100 E3CA                bsr        -0x1C34 /* 00002328 */
00003F60  162B 000B                move.b     D3, [A3 + 0xB]
00003F64  554F                     subq.w     A7, 2
00003F66  486E FF96                pea.l      [A6 - 0x6A]
00003F6A  2F2E 000C                move.l     -[A7], [A6 + 0xC]
00003F6E  486E FF96                pea.l      [A6 - 0x6A]
00003F72  A8AA                     syscall    SectRect
00003F74  4A1F                     tst.b      [A7]+
00003F76  670E                     beq        +0x10 /* 00003F86 */
00003F78  4A2E 0010                tst.b      [A6 + 0x10]
00003F7C  671E                     beq        +0x20 /* 00003F9C */
00003F7E  0803 0001                btst.b     D3, 0x1
00003F82  6718                     beq        +0x1A /* 00003F9C */
00003F84  6606                     bne        +0x8 /* 00003F8C */
label00003F86:
00003F86  4A2E 0010                tst.b      [A6 + 0x10]
00003F8A  661E                     bne        +0x20 /* 00003FAA */
label00003F8C:
00003F8C  0803 0001                btst.b     D3, 0x1
00003F90  6718                     beq        +0x1A /* 00003FAA */
00003F92  51E7                     sf         -[A7]
00003F94  2F0C                     move.l     -[A7], A4
00003F96  6100 0026                bsr        +0x28 /* 00003FBE */
00003F9A  600E                     bra        +0x10 /* 00003FAA */
label00003F9C:
00003F9C  0803 0001                btst.b     D3, 0x1
00003FA0  6608                     bne        +0xA /* 00003FAA */
00003FA2  50E7                     st         -[A7]
00003FA4  2F0C                     move.l     -[A7], A4
00003FA6  6100 0016                bsr        +0x18 /* 00003FBE */
label00003FAA:
00003FAA  5346                     subq.w     D6, 1
00003FAC  66AA                     bne        -0x54 /* 00003F58 */
00003FAE  286E 0008                movea.l    A4, [A6 + 0x8]
00003FB2  2B4C FE5E                move.l     [A5 - 0x1A2], A4
00003FB6  2F0C                     move.l     -[A7], A4
00003FB8  6100 CE4A                bsr        -0x31B4 /* 00000E04 */
label00003FBC:
00003FBC  608E                     bra        -0x70 /* 00003F4C */
export_39:
fn00003FBE:
00003FBE  6100 C5CE                bsr        -0x3A30 /* 0000058E */
00003FC2  43EB 000B                lea.l      A1, [A3 + 0xB]
00003FC6  4A2E 000C                tst.b      [A6 + 0xC]
00003FCA  6708                     beq        +0xA /* 00003FD4 */
00003FCC  0811 0001                btst.b     [A1], 0x1
00003FD0  6624                     bne        +0x26 /* 00003FF6 */
00003FD2  6006                     bra        +0x8 /* 00003FDA */
label00003FD4:
00003FD4  0811 0001                btst.b     [A1], 0x1
00003FD8  671C                     beq        +0x1E /* 00003FF6 */
label00003FDA:
00003FDA  0851 0001                bchg.b     [A1], 0x1
00003FDE  6100 FCAC                bsr        -0x352 /* 00003C8C */
00003FE2  670C                     beq        +0xE /* 00003FF0 */
00003FE4  6100 E342                bsr        -0x1CBC /* 00002328 */
00003FE8  486E FF96                pea.l      [A6 - 0x6A]
00003FEC  A8A4                     syscall    InvertRect
00003FEE  6006                     bra        +0x8 /* 00003FF6 */
label00003FF0:
00003FF0  2F0C                     move.l     -[A7], A4
00003FF2  6100 DB8C                bsr        -0x2472 /* 00001B80 */
label00003FF6:
00003FF6  6000 062E                bra        +0x630 /* 00004626 */
fn00003FFA:
00003FFA  6100 C592                bsr        -0x3A6C /* 0000058E */
00003FFE  670C                     beq        +0xE /* 0000400C */
label00004000:
00004000  1F2E 000C                move.b     -[A7], [A6 + 0xC]
00004004  2F1A                     move.l     -[A7], [A2]+
00004006  61B6                     bsr        -0x48 /* 00003FBE */
00004008  5346                     subq.w     D6, 1
0000400A  66F4                     bne        -0xA /* 00004000 */
label0000400C:
0000400C  6000 0618                bra        +0x61A /* 00004626 */
fn00004010:
00004010  6100 C57C                bsr        -0x3A82 /* 0000058E */
00004014  3E2B 0024                move.w     D7, [A3 + 0x24]
00004018  594F                     subq.w     A7, 4
0000401A  486E FE82                pea.l      [A6 - 0x17E]
0000401E  2F0C                     move.l     -[A7], A4
00004020  6100 E1B2                bsr        -0x1E4C /* 000021D4 */
00004024  261F                     move.l     D3, [A7]+
00004026  266E 000C                movea.l    A3, [A6 + 0xC]
0000402A  41EE FE82                lea.l      A0, [A6 - 0x17E]
0000402E  224B                     movea.l    A1, A3
00004030  7000                     moveq.l    D0, 0x00
00004032  1018                     move.b     D0, [A0]+
00004034  4840                     swap.w     D0
00004036  1019                     move.b     D0, [A1]+
00004038  A03C                     syscall    CmpString
0000403A  6764                     beq        +0x66 /* 000040A0 */
0000403C  4A2E FE82                tst.b      [A6 - 0x17E]
00004040  6628                     bne        +0x2A /* 0000406A */
00004042  7004                     moveq.l    D0, 0x04
00004044  A122                     syscall    NewHandle, flags=1
00004046  2448                     movea.l    A2, A0
00004048  2050                     movea.l    A0, [A0]
0000404A  2083                     move.l     [A0], D3
0000404C  2F0A                     move.l     -[A7], A2
0000404E  2F3C 4643 4D54           move.l     -[A7], 0x46434D54 /* 'FCMT' */
00004054  554F                     subq.w     A7, 2
00004056  2F2F 0002                move.l     -[A7], [A7 + 0x2]
0000405A  A9C1                     syscall    UniqueID
0000405C  487A C5EC                pea.l      [PC - 0x3A14 /* 0000064A, value 0x6100 'a\0', cstring "" */]
00004060  A9AB                     syscall    AddResource
00004062  2F0A                     move.l     -[A7], A2
00004064  4EAD 039A                jsr        [A5 + 0x39A /* export_111, CODE:3 @ 00002F42 */]
00004068  601A                     bra        +0x1C /* 00004084 */
label0000406A:
0000406A  594F                     subq.w     A7, 4
0000406C  2F3C 4643 4D54           move.l     -[A7], 0x46434D54 /* 'FCMT' */
00004072  3F03                     move.w     -[A7], D3
00004074  4EAD 007A                jsr        [A5 + 0x7A /* export_11, CODE:1 @ 00000B14 */]
00004078  245F                     movea.l    A2, [A7]+
0000407A  4A13                     tst.b      [A3]
0000407C  6606                     bne        +0x8 /* 00004084 */
0000407E  2F0A                     move.l     -[A7], A2
00004080  A9AD                     syscall    RemoveResource/RmveResource
00004082  601C                     bra        +0x1E /* 000040A0 */
label00004084:
00004084  7400                     moveq.l    D2, 0x00
00004086  1413                     move.b     D2, [A3]
00004088  5242                     addq.w     D2, 1
0000408A  2002                     move.l     D0, D2
0000408C  5840                     addq.w     D0, 4
0000408E  204A                     movea.l    A0, A2
00004090  A024                     syscall    SetHandleSize
00004092  204B                     movea.l    A0, A3
00004094  2252                     movea.l    A1, [A2]
00004096  5849                     addq.w     A1, 4
00004098  2002                     move.l     D0, D2
0000409A  A02E                     syscall    BlockMove/BlockMoveData
0000409C  2F0A                     move.l     -[A7], A2
0000409E  A9AA                     syscall    ChangedResource
label000040A0:
000040A0  6000 FD0A                bra        -0x2F4 /* 00003DAC */
export_31:
fn000040A4:
000040A4  6100 C4E8                bsr        -0x3B16 /* 0000058E */
000040A8  43EE FE82                lea.l      A1, [A6 - 0x17E]
000040AC  206E 000C                movea.l    A0, [A6 + 0xC]
000040B0  7000                     moveq.l    D0, 0x00
000040B2  1010                     move.b     D0, [A0]
000040B4  5280                     addq.l     D0, 1
000040B6  A02E                     syscall    BlockMove/BlockMoveData
000040B8  4A53                     tst.w      [A3]
000040BA  6604                     bne        +0x6 /* 000040C0 */
000040BC  612E                     bsr        +0x30 /* 000040EC */
000040BE  6002                     bra        +0x4 /* 000040C2 */
label000040C0:
000040C0  6104                     bsr        +0x6 /* 000040C6 */
label000040C2:
000040C2  6000 FCE8                bra        -0x316 /* 00003DAC */
fn000040C6:
000040C6  9EFC 012C                sub.w      A7, 0x12C
000040CA  2F0C                     move.l     -[A7], A4
000040CC  486F 0004                pea.l      [A7 + 0x4]
000040D0  486F 000A                pea.l      [A7 + 0xA]
000040D4  486F 0012                pea.l      [A7 + 0x12]
000040D8  A9A8                     syscall    GetResInfo
000040DA  2F0C                     move.l     -[A7], A4
000040DC  3F2F 0004                move.w     -[A7], [A7 + 0x4]
000040E0  486E FE82                pea.l      [A6 - 0x17E]
000040E4  A9A9                     syscall    SetResInfo
000040E6  DEFC 012C                add.w      A7, 0x12C
000040EA  4E75                     rts
fn000040EC:
000040EC  43EE FE82                lea.l      A1, [A6 - 0x17E]
fn000040F0:
000040F0  7200                     moveq.l    D1, 0x00
000040F2  1211                     move.b     D1, [A1]
000040F4  5241                     addq.w     D1, 1
000040F6  1F14                     move.b     -[A7], [A4]
000040F8  4214                     clr.b      [A4]
000040FA  204C                     movea.l    A0, A4
000040FC  703E                     moveq.l    D0, 0x3E
000040FE  D081                     add.l      D0, D1
00004100  A024                     syscall    SetHandleSize
00004102  2848                     movea.l    A4, A0
00004104  189F                     move.b     [A4], [A7]+
00004106  2654                     movea.l    A3, [A4]
00004108  2001                     move.l     D0, D1
0000410A  41EB 003E                lea.l      A0, [A3 + 0x3E]
0000410E  C149                     exg        A0, A1
00004110  A02E                     syscall    BlockMove/BlockMoveData
00004112  4E75                     rts
export_37:
00004114  6100 C478                bsr        -0x3B86 /* 0000058E */
00004118  203C 0000 0400           move.l     D0, 0x400
0000411E  A122                     syscall    NewHandle, flags=1
00004120  2448                     movea.l    A2, A0
00004122  554F                     subq.w     A7, 2
00004124  3F3C FFFF                move.w     -[A7], 0xFFFF
00004128  2F0C                     move.l     -[A7], A4
0000412A  6100 D3F0                bsr        -0x2C0E /* 0000151C */
0000412E  321F                     move.w     D1, [A7]+
00004130  0C41 0001                cmpi.w     D1, 0x1
00004134  6600 0082                bne        +0x84 /* 000041B8 */
00004138  594F                     subq.w     A7, 4
0000413A  2F0C                     move.l     -[A7], A4
0000413C  6100 E006                bsr        -0x1FF8 /* 00002144 */
00004140  265F                     movea.l    A3, [A7]+
00004142  486E FE82                pea.l      [A6 - 0x17E]
00004146  2F0B                     move.l     -[A7], A3
00004148  6100 E1AA                bsr        -0x1E54 /* 000022F4 */
0000414C  2053                     movea.l    A0, [A3]
0000414E  3828 0022                move.w     D4, [A0 + 0x22]
00004152  2F0A                     move.l     -[A7], A2
00004154  3F04                     move.w     -[A7], D4
00004156  4EAD 03EA                jsr        [A5 + 0x3EA /* export_121, CODE:3 @ 0000313E */]
0000415A  2052                     movea.l    A0, [A2]
0000415C  D0FC 001A                add.w      A0, 0x1A
00004160  43EE FE82                lea.l      A1, [A6 - 0x17E]
00004164  7000                     moveq.l    D0, 0x00
00004166  1018                     move.b     D0, [A0]+
00004168  4840                     swap.w     D0
0000416A  1019                     move.b     D0, [A1]+
0000416C  A03C                     syscall    CmpString
0000416E  671C                     beq        +0x1E /* 0000418C */
00004170  2053                     movea.l    A0, [A3]
00004172  0C50 0000                cmpi.w     [A0], 0x0
00004176  6640                     bne        +0x42 /* 000041B8 */
00004178  0CA8 4150 504C 0028      cmpi.l     [A0 + 0x28], 0x4150504C /* 'APPL' */
00004180  6636                     bne        +0x38 /* 000041B8 */
00004182  7068                     moveq.l    D0, 0x68
00004184  0C2E 000F FE82           cmpi.b     [A6 - 0x17E], 0xF
0000418A  6E2E                     bgt        +0x30 /* 000041BA */
label0000418C:
0000418C  554F                     subq.w     A7, 2
0000418E  486E FE82                pea.l      [A6 - 0x17E]
00004192  3F3C 006C                move.w     -[A7], 0x6C /* 'l' */
00004196  4EAD 059A                jsr        [A5 + 0x59A /* export_175, CODE:3 @ 00002344 */]
0000419A  4A1F                     tst.b      [A7]+
0000419C  6722                     beq        +0x24 /* 000041C0 */
0000419E  41EE FE82                lea.l      A0, [A6 - 0x17E]
000041A2  2252                     movea.l    A1, [A2]
000041A4  D2FC 005A                add.w      A1, 0x5A /* 'Z' */
000041A8  7001                     moveq.l    D0, 0x01
000041AA  D010                     add.b      D0, [A0]
000041AC  A02E                     syscall    BlockMove/BlockMoveData
000041AE  2F0A                     move.l     -[A7], A2
000041B0  3F04                     move.w     -[A7], D4
000041B2  4EAD 0312                jsr        [A5 + 0x312 /* export_94, CODE:3 @ 00003142 */]
000041B6  6008                     bra        +0xA /* 000041C0 */
label000041B8:
000041B8  7067                     moveq.l    D0, 0x67
label000041BA:
000041BA  3F00                     move.w     -[A7], D0
000041BC  4EAD 0532                jsr        [A5 + 0x532 /* export_162, CODE:3 @ 00002640 */]
label000041C0:
000041C0  204A                     movea.l    A0, A2
000041C2  A023                     syscall    DisposHandle/DisposeHandle
000041C4  6000 C8AE                bra        -0x3750 /* 00000A74 */
export_36:
000041C8  6100 C3C4                bsr        -0x3C3A /* 0000058E */
000041CC  246B 0028                movea.l    A2, [A3 + 0x28]
000041D0  280A                     move.l     D4, A2
000041D2  674C                     beq        +0x4E /* 00004220 */
000041D4  594F                     subq.w     A7, 4
000041D6  2F0F                     move.l     -[A7], A7
000041D8  A874                     syscall    GetPort
000041DA  2F0A                     move.l     -[A7], A2
000041DC  A873                     syscall    SetPort
000041DE  41EA 0018                lea.l      A0, [A2 + 0x18]
000041E2  45EE FF96                lea.l      A2, [A6 - 0x6A]
000041E6  2520                     move.l     -[A2], -[A0]
000041E8  2520                     move.l     -[A2], -[A0]
000041EA  2F0A                     move.l     -[A7], A2
000041EC  4EAD 0492                jsr        [A5 + 0x492 /* export_142, CODE:3 @ 000029AC */]
000041F0  5D4F                     subq.w     A7, 6
000041F2  2F04                     move.l     -[A7], D4
000041F4  4EAD 047A                jsr        [A5 + 0x47A /* export_139, CODE:3 @ 00002AAA */]
000041F8  A960                     syscall    GetControlValue/GetCtlValue
000041FA  5D4F                     subq.w     A7, 6
000041FC  2F04                     move.l     -[A7], D4
000041FE  4EAD 0332                jsr        [A5 + 0x332 /* export_98, CODE:3 @ 000030F2 */]
00004202  A960                     syscall    GetControlValue/GetCtlValue
00004204  43EB 002C                lea.l      A1, [A3 + 0x2C]
00004208  22DA                     move.l     [A1]+, [A2]+
0000420A  22DA                     move.l     [A1]+, [A2]+
0000420C  201F                     move.l     D0, [A7]+
0000420E  0C2B 0001 000A           cmpi.b     [A3 + 0xA], 0x1
00004214  6602                     bne        +0x4 /* 00004218 */
00004216  22C0                     move.l     [A1]+, D0
label00004218:
00004218  A873                     syscall    SetPort
0000421A  2F0C                     move.l     -[A7], A4
0000421C  6100 CD1C                bsr        -0x32E2 /* 00000F3A */
label00004220:
00004220  6000 C852                bra        -0x37AC /* 00000A74 */
fn00004224:
00004224  6100 C35A                bsr        -0x3CA4 /* 00000580 */
00004228  7E00                     moveq.l    D7, 0x00
0000422A  554F                     subq.w     A7, 2
0000422C  2F0C                     move.l     -[A7], A4
0000422E  A9A4                     syscall    HomeResFile
00004230  3C1F                     move.w     D6, [A7]+
00004232  2038 0A50                move.l     D0, [0x00000A50 /* TopMapHndl */]
label00004236:
00004236  6718                     beq        +0x1A /* 00004250 */
00004238  2240                     movea.l    A1, D0
0000423A  2051                     movea.l    A0, [A1]
0000423C  BC68 0014                cmp.w      D6, [A0 + 0x14]
00004240  6706                     beq        +0x8 /* 00004248 */
00004242  2028 0010                move.l     D0, [A0 + 0x10]
00004246  60EE                     bra        -0x10 /* 00004236 */
label00004248:
00004248  2E28 0004                move.l     D7, [A0 + 0x4]
0000424C  DEA8 000C                add.l      D7, [A0 + 0xC]
label00004250:
00004250  2D47 000C                move.l     [A6 + 0xC], D7
00004254  6000 C81E                bra        -0x37E0 /* 00000A74 */
fn00004258:
00004258  6100 C326                bsr        -0x3CD8 /* 00000580 */
0000425C  42AE 000C                clr.l      [A6 + 0xC]
00004260  50E7                     st         -[A7]
00004262  487A 0014                pea.l      [PC + 0x14 /* 00004278, value 0x6100C306, cstring "a" */]
00004266  42A7                     clr.l      -[A7]
00004268  486E 0008                pea.l      [A6 + 0x8]
0000426C  2F2D FE6C                move.l     -[A7], [A5 - 0x194]
00004270  6100 DEF2                bsr        -0x210C /* 00002164 */
00004274  6000 C7FE                bra        -0x3800 /* 00000A74 */
00004278  6100 C306                bsr        -0x3CF8 /* 00000580 */
0000427C  246E 000E                movea.l    A2, [A6 + 0xE]
00004280  7042                     moveq.l    D0, 0x42
00004282  C02B 000B                and.b      D0, [A3 + 0xB]
00004286  671A                     beq        +0x1C /* 000042A2 */
00004288  205A                     movea.l    A0, [A2]+
0000428A  2050                     movea.l    A0, [A0]
0000428C  3028 0022                move.w     D0, [A0 + 0x22]
00004290  B06B 0022                cmp.w      D0, [A3 + 0x22]
00004294  660C                     bne        +0xE /* 000042A2 */
00004296  204C                     movea.l    A0, A4
00004298  A025                     syscall    GetHandleSize
0000429A  0680 0000 0040           addi.l     D0, 0x40 /* '@' */
000042A0  D192                     add.l      [A2], D0
label000042A2:
000042A2  426E 0012                clr.w      [A6 + 0x12]
000042A6  6000 FCA4                bra        -0x35A /* 00003F4C */
export_35:
fn000042AA:
000042AA  6100 C2E2                bsr        -0x3D1C /* 0000058E */
000042AE  7E00                     moveq.l    D7, 0x00
000042B0  0C53 0000                cmpi.w     [A3], 0x0
000042B4  6606                     bne        +0x8 /* 000042BC */
000042B6  2E2B 0030                move.l     D7, [A3 + 0x30]
000042BA  602E                     bra        +0x30 /* 000042EA */
label000042BC:
000042BC  0C53 0004                cmpi.w     [A3], 0x4
000042C0  6618                     bne        +0x1A /* 000042DA */
000042C2  302B 0022                move.w     D0, [A3 + 0x22]
000042C6  4EBA E120                jsr        [PC - 0x1EE0 /* 000023E8 */]
000042CA  2E28 0030                move.l     D7, [A0 + 0x30]
000042CE  3028 002E                move.w     D0, [A0 + 0x2E]
000042D2  9068 003E                sub.w      D0, [A0 + 0x3E]
000042D6  CFC0                     muls.w     D7, D0
000042D8  6010                     bra        +0x12 /* 000042EA */
label000042DA:
000042DA  4A46                     tst.w      D6
000042DC  670C                     beq        +0xE /* 000042EA */
label000042DE:
000042DE  594F                     subq.w     A7, 4
000042E0  2F1A                     move.l     -[A7], [A2]+
000042E2  61C6                     bsr        -0x38 /* 000042AA */
000042E4  DE9F                     add.l      D7, [A7]+
000042E6  5346                     subq.w     D6, 1
000042E8  66F4                     bne        -0xA /* 000042DE */
label000042EA:
000042EA  2D47 000C                move.l     [A6 + 0xC], D7
000042EE  6000 C784                bra        -0x387A /* 00000A74 */
fn000042F2:
000042F2  6100 C28C                bsr        -0x3D72 /* 00000580 */
000042F6  42AE 000C                clr.l      [A6 + 0xC]
000042FA  50E7                     st         -[A7]
000042FC  487A 0014                pea.l      [PC + 0x14 /* 00004312, value 0x6100C26C, cstring "a" */]
00004300  42A7                     clr.l      -[A7]
00004302  486E 0008                pea.l      [A6 + 0x8]
00004306  2F2D FE6C                move.l     -[A7], [A5 - 0x194]
0000430A  6100 DE58                bsr        -0x21A6 /* 00002164 */
0000430E  6000 C764                bra        -0x389A /* 00000A74 */
00004312  6100 C26C                bsr        -0x3D92 /* 00000580 */
00004316  246E 000E                movea.l    A2, [A6 + 0xE]
0000431A  7042                     moveq.l    D0, 0x42
0000431C  C02B 000B                and.b      D0, [A3 + 0xB]
00004320  671A                     beq        +0x1C /* 0000433C */
00004322  205A                     movea.l    A0, [A2]+
00004324  2050                     movea.l    A0, [A0]
00004326  3028 0022                move.w     D0, [A0 + 0x22]
0000432A  B06B 0022                cmp.w      D0, [A3 + 0x22]
0000432E  660C                     bne        +0xE /* 0000433C */
00004330  594F                     subq.w     A7, 4
00004332  2F0C                     move.l     -[A7], A4
00004334  6100 FF74                bsr        -0x8A /* 000042AA */
00004338  201F                     move.l     D0, [A7]+
0000433A  D192                     add.l      [A2], D0
label0000433C:
0000433C  426E 0012                clr.w      [A6 + 0x12]
00004340  6000 FC0A                bra        -0x3F4 /* 00003F4C */
fn00004344:
00004344  6100 C248                bsr        -0x3DB6 /* 0000058E */
00004348  0C46 0001                cmpi.w     D6, 0x1
0000434C  6F00 0108                ble        +0x10A /* 00004456 */
00004350  7A08                     moveq.l    D5, 0x08
label00004352:
00004352  286E 0008                movea.l    A4, [A6 + 0x8]
00004356  2654                     movea.l    A3, [A4]
00004358  45EB 003A                lea.l      A2, [A3 + 0x3A]
0000435C  3C2B 0038                move.w     D6, [A3 + 0x38]
00004360  5346                     subq.w     D6, 1
00004362  7E00                     moveq.l    D7, 0x00
label00004364:
00004364  2652                     movea.l    A3, [A2]
00004366  286A 0004                movea.l    A4, [A2 + 0x4]
0000436A  08D3 0007                bset.b     [A3], 0x7
0000436E  08D4 0007                bset.b     [A4], 0x7
00004372  2053                     movea.l    A0, [A3]
00004374  2254                     movea.l    A1, [A4]
00004376  302E 000C                move.w     D0, [A6 + 0xC]
0000437A  5340                     subq.w     D0, 1
0000437C  6638                     bne        +0x3A /* 000043B6 */
0000437E  2D68 0002 FFF6           move.l     [A6 - 0xA], [A0 + 0x2]
00004384  2D69 0002 FF8A           move.l     [A6 - 0x76], [A1 + 0x2]
0000438A  486E FFF6                pea.l      [A6 - 0xA]
0000438E  486E FF8A                pea.l      [A6 - 0x76]
00004392  4EAD 048A                jsr        [A5 + 0x48A /* export_141, CODE:3 @ 000028D8 */]
00004396  4EAD 048A                jsr        [A5 + 0x48A /* export_141, CODE:3 @ 000028D8 */]
0000439A  202E FFF6                move.l     D0, [A6 - 0xA]
0000439E  222E FF8A                move.l     D1, [A6 - 0x76]
000043A2  4840                     swap.w     D0
000043A4  4841                     swap.w     D1
000043A6  B240                     cmp.w      D1, D0
000043A8  6600 008A                bne        +0x8C /* 00004434 */
000043AC  4840                     swap.w     D0
000043AE  4841                     swap.w     D1
000043B0  B240                     cmp.w      D1, D0
000043B2  6000 0080                bra        +0x82 /* 00004434 */
label000043B6:
000043B6  5340                     subq.w     D0, 1
000043B8  663C                     bne        +0x3E /* 000043F6 */
000043BA  486E FE82                pea.l      [A6 - 0x17E]
000043BE  2F0B                     move.l     -[A7], A3
000043C0  6100 DF32                bsr        -0x20CC /* 000022F4 */
000043C4  486E FF02                pea.l      [A6 - 0xFE]
000043C8  2F0C                     move.l     -[A7], A4
000043CA  6100 DF28                bsr        -0x20D6 /* 000022F4 */
000043CE  7000                     moveq.l    D0, 0x00
000043D0  7200                     moveq.l    D1, 0x00
000043D2  41EE FE82                lea.l      A0, [A6 - 0x17E]
000043D6  1018                     move.b     D0, [A0]+
000043D8  43EE FF02                lea.l      A1, [A6 - 0xFE]
000043DC  1219                     move.b     D1, [A1]+
000043DE  554F                     subq.w     A7, 2
000043E0  2F09                     move.l     -[A7], A1
000043E2  2F08                     move.l     -[A7], A0
000043E4  3F01                     move.w     -[A7], D1
000043E6  3F00                     move.w     -[A7], D0
000043E8  4EAD 0432                jsr        [A5 + 0x432 /* export_130, CODE:3 @ 00000014 */]
000043EC  301F                     move.w     D0, [A7]+
000043EE  5240                     addq.w     D0, 1
000043F0  0C40 0001                cmpi.w     D0, 0x1
000043F4  603E                     bra        +0x40 /* 00004434 */
label000043F6:
000043F6  5340                     subq.w     D0, 1
000043F8  6610                     bne        +0x12 /* 0000440A */
000043FA  2028 001E                move.l     D0, [A0 + 0x1E]
000043FE  4200                     clr.b      D0
00004400  2229 001E                move.l     D1, [A1 + 0x1E]
00004404  4201                     clr.b      D1
00004406  B081                     cmp.l      D0, D1
00004408  602A                     bra        +0x2C /* 00004434 */
label0000440A:
0000440A  5340                     subq.w     D0, 1
0000440C  6616                     bne        +0x18 /* 00004424 */
0000440E  594F                     subq.w     A7, 4
00004410  2F0C                     move.l     -[A7], A4
00004412  6100 FE96                bsr        -0x168 /* 000042AA */
00004416  594F                     subq.w     A7, 4
00004418  2F0B                     move.l     -[A7], A3
0000441A  6100 FE8E                bsr        -0x170 /* 000042AA */
0000441E  201F                     move.l     D0, [A7]+
00004420  B09F                     cmp.l      D0, [A7]+
00004422  6010                     bra        +0x12 /* 00004434 */
label00004424:
00004424  BA50                     cmp.w      D5, [A0]
00004426  6718                     beq        +0x1A /* 00004440 */
00004428  BA51                     cmp.w      D5, [A1]
0000442A  670C                     beq        +0xE /* 00004438 */
0000442C  2029 0028                move.l     D0, [A1 + 0x28]
00004430  B0A8 0028                cmp.l      D0, [A0 + 0x28]
label00004434:
00004434  6400 000A                bcc        +0xC /* 00004440 */
label00004438:
00004438  50C7                     st         D7
0000443A  248C                     move.l     [A2], A4
0000443C  254B 0004                move.l     [A2 + 0x4], A3
label00004440:
00004440  0894 0007                bclr.b     [A4], 0x7
00004444  0893 0007                bclr.b     [A3], 0x7
00004448  584A                     addq.w     A2, 4
0000444A  5346                     subq.w     D6, 1
0000444C  6600 FF16                bne        -0xE8 /* 00004364 */
00004450  4A47                     tst.w      D7
00004452  6600 FEFE                bne        -0x100 /* 00004352 */
label00004456:
00004456  286E 0008                movea.l    A4, [A6 + 0x8]
0000445A  2654                     movea.l    A3, [A4]
0000445C  45EB 003A                lea.l      A2, [A3 + 0x3A]
00004460  3C2B 0038                move.w     D6, [A3 + 0x38]
00004464  6710                     beq        +0x12 /* 00004476 */
00004466  7E01                     moveq.l    D7, 0x01
label00004468:
00004468  205A                     movea.l    A0, [A2]+
0000446A  2050                     movea.l    A0, [A0]
0000446C  3147 0006                move.w     [A0 + 0x6], D7
00004470  5247                     addq.w     D7, 1
00004472  5346                     subq.w     D6, 1
00004474  66F2                     bne        -0xC /* 00004468 */
label00004476:
00004476  6000 01AE                bra        +0x1B0 /* 00004626 */
export_30:
0000447A  6100 C104                bsr        -0x3EFA /* 00000580 */
label0000447E:
0000447E  2678 0358                movea.l    A3, [0x00000358]
label00004482:
00004482  382B 004E                move.w     D4, [A3 + 0x4E]
00004486  3A2B 0048                move.w     D5, [A3 + 0x48]
0000448A  362B 004A                move.w     D3, [A3 + 0x4A]
0000448E  554F                     subq.w     A7, 2
00004490  2F3C 464F 424A           move.l     -[A7], 0x464F424A /* 'FOBJ' */
00004496  A99C                     syscall    CountResources
00004498  3E1F                     move.w     D7, [A7]+
0000449A  6758                     beq        +0x5A /* 000044F4 */
label0000449C:
0000449C  594F                     subq.w     A7, 4
0000449E  2F3C 464F 424A           move.l     -[A7], 0x464F424A /* 'FOBJ' */
000044A4  3F07                     move.w     -[A7], D7
000044A6  A99D                     syscall    GetIndResource
000044A8  245F                     movea.l    A2, [A7]+
000044AA  2252                     movea.l    A1, [A2]
000044AC  0C51 0004                cmpi.w     [A1], 0x4
000044B0  6606                     bne        +0x8 /* 000044B8 */
000044B2  B869 0022                cmp.w      D4, [A1 + 0x22]
000044B6  6706                     beq        +0x8 /* 000044BE */
label000044B8:
000044B8  5347                     subq.w     D7, 1
000044BA  66E0                     bne        -0x1E /* 0000449C */
000044BC  6036                     bra        +0x38 /* 000044F4 */
label000044BE:
000044BE  336B 0012 0026           move.w     [A1 + 0x26], [A3 + 0x12]
000044C4  4A45                     tst.w      D5
000044C6  6E24                     bgt        +0x26 /* 000044EC */
000044C8  4A43                     tst.w      D3
000044CA  6B20                     bmi        +0x22 /* 000044EC */
000044CC  0829 0002 000B           btst.b     [A1 + 0xB], 0x2
000044D2  6638                     bne        +0x3A /* 0000450C */
000044D4  4EAD 02FA                jsr        [A5 + 0x2FA /* export_91, CODE:3 @ 000030E2 */]
000044D8  554F                     subq.w     A7, 2
000044DA  51E7                     sf         -[A7]
000044DC  2F0A                     move.l     -[A7], A2
000044DE  6100 F096                bsr        -0xF68 /* 00003576 */
000044E2  4A1F                     tst.b      [A7]+
000044E4  6698                     bne        -0x66 /* 0000447E */
000044E6  4EAD 0342                jsr        [A5 + 0x342 /* export_100, CODE:3 @ 000030DA */]
000044EA  6020                     bra        +0x22 /* 0000450C */
label000044EC:
000044EC  0829 0002 000B           btst.b     [A1 + 0xB], 0x2
000044F2  6718                     beq        +0x1A /* 0000450C */
label000044F4:
000044F4  4EAD 02FA                jsr        [A5 + 0x2FA /* export_91, CODE:3 @ 000030E2 */]
000044F8  594F                     subq.w     A7, 4
000044FA  3F04                     move.w     -[A7], D4
000044FC  2F0C                     move.l     -[A7], A4
000044FE  6100 F114                bsr        -0xEEA /* 00003614 */
00004502  245F                     movea.l    A2, [A7]+
00004504  4EAD 0342                jsr        [A5 + 0x342 /* export_100, CODE:3 @ 000030DA */]
00004508  200A                     move.l     D0, A2
0000450A  6710                     beq        +0x12 /* 0000451C */
label0000450C:
0000450C  2252                     movea.l    A1, [A2]
0000450E  202B 000E                move.l     D0, [A3 + 0xE]
00004512  B0A9 001E                cmp.l      D0, [A1 + 0x1E]
00004516  6704                     beq        +0x6 /* 0000451C */
00004518  2F0A                     move.l     -[A7], A2
0000451A  610C                     bsr        +0xE /* 00004528 */
label0000451C:
0000451C  2653                     movea.l    A3, [A3]
0000451E  200B                     move.l     D0, A3
00004520  6600 FF60                bne        -0x9E /* 00004482 */
00004524  6000 C54E                bra        -0x3AB0 /* 00000A74 */
fn00004528:
00004528  6100 C064                bsr        -0x3F9A /* 0000058E */
0000452C  2F0C                     move.l     -[A7], A4
0000452E  6100 F8EE                bsr        -0x710 /* 00003E1E */
00004532  3C2B 0022                move.w     D6, [A3 + 0x22]
00004536  4EAD 02FA                jsr        [A5 + 0x2FA /* export_91, CODE:3 @ 000030E2 */]
0000453A  3006                     move.w     D0, D6
0000453C  4EBA DEAA                jsr        [PC - 0x2156 /* 000023E8 */]
00004540  3A28 0028                move.w     D5, [A0 + 0x28]
00004544  2768 0022 001E           move.l     [A3 + 0x1E], [A0 + 0x22]
0000454A  7601                     moveq.l    D3, 0x01
label0000454C:
0000454C  41EE FFA6                lea.l      A0, [A6 - 0x5A]
00004550  3146 0016                move.w     [A0 + 0x16], D6
00004554  3143 001C                move.w     [A0 + 0x1C], D3
00004558  A00C                     syscall    GetFileInfo/PBHGetFInfo/HGetFileInfo
0000455A  0828 0006 0028           btst.b     [A0 + 0x28], 0x6
00004560  665C                     bne        +0x5E /* 000045BE */
00004562  594F                     subq.w     A7, 4
00004564  2F28 0030                move.l     -[A7], [A0 + 0x30]
00004568  2F0C                     move.l     -[A7], A4
0000456A  6100 DAD0                bsr        -0x252E /* 0000203C */
0000456E  2457                     movea.l    A2, [A7]
00004570  4A9F                     tst.l      [A7]+
00004572  57C7                     seq        D7
00004574  6716                     beq        +0x18 /* 0000458C */
00004576  2252                     movea.l    A1, [A2]
00004578  2029 001E                move.l     D0, [A1 + 0x1E]
0000457C  41EE FFA6                lea.l      A0, [A6 - 0x5A]
00004580  B0A8 004C                cmp.l      D0, [A0 + 0x4C]
00004584  6730                     beq        +0x32 /* 000045B6 */
00004586  2F0A                     move.l     -[A7], A2
00004588  6100 D04A                bsr        -0x2FB4 /* 000015D4 */
label0000458C:
0000458C  594F                     subq.w     A7, 4
0000458E  486E FFA6                pea.l      [A6 - 0x5A]
00004592  2F0C                     move.l     -[A7], A4
00004594  6100 EA20                bsr        -0x15DE /* 00002FB6 */
00004598  2457                     movea.l    A2, [A7]
0000459A  6100 F964                bsr        -0x69A /* 00003F00 */
0000459E  2F0C                     move.l     -[A7], A4
000045A0  2F0A                     move.l     -[A7], A2
000045A2  6100 C272                bsr        -0x3D8C /* 00000816 */
000045A6  4A07                     tst.b      D7
000045A8  670C                     beq        +0xE /* 000045B6 */
000045AA  2F0A                     move.l     -[A7], A2
000045AC  2F0A                     move.l     -[A7], A2
000045AE  6100 F63A                bsr        -0x9C4 /* 00003BEA */
000045B2  6100 E0B2                bsr        -0x1F4C /* 00002666 */
label000045B6:
000045B6  2252                     movea.l    A1, [A2]
000045B8  08E9 0006 000B           bset.b     [A1 + 0xB], 0x6
label000045BE:
000045BE  5243                     addq.w     D3, 1
000045C0  BA43                     cmp.w      D5, D3
000045C2  6C88                     bge        -0x76 /* 0000454C */
000045C4  2654                     movea.l    A3, [A4]
000045C6  266B 0016                movea.l    A3, [A3 + 0x16]
label000045CA:
000045CA  200B                     move.l     D0, A3
000045CC  6718                     beq        +0x1A /* 000045E6 */
000045CE  2453                     movea.l    A2, [A3]
000045D0  262A 0016                move.l     D3, [A2 + 0x16]
000045D4  08AA 0006 000B           bclr.b     [A2 + 0xB], 0x6
000045DA  6606                     bne        +0x8 /* 000045E2 */
000045DC  2F0B                     move.l     -[A7], A3
000045DE  6100 CFF4                bsr        -0x300A /* 000015D4 */
label000045E2:
000045E2  2643                     movea.l    A3, D3
000045E4  60E4                     bra        -0x1A /* 000045CA */
label000045E6:
000045E6  3F06                     move.w     -[A7], D6
000045E8  4EAD 044A                jsr        [A5 + 0x44A /* export_133, CODE:3 @ 00002C72 */]
000045EC  4EAD 0342                jsr        [A5 + 0x342 /* export_100, CODE:3 @ 000030DA */]
000045F0  6000 C482                bra        -0x3B7C /* 00000A74 */
fn000045F4:
000045F4  6100 BF8A                bsr        -0x4074 /* 00000580 */
000045F8  266B 0016                movea.l    A3, [A3 + 0x16]
label000045FC:
000045FC  200B                     move.l     D0, A3
000045FE  6710                     beq        +0x12 /* 00004610 */
00004600  2453                     movea.l    A2, [A3]
00004602  262A 0016                move.l     D3, [A2 + 0x16]
00004606  2F0B                     move.l     -[A7], A3
00004608  6100 CFCA                bsr        -0x3034 /* 000015D4 */
0000460C  2643                     movea.l    A3, D3
0000460E  60EC                     bra        -0x12 /* 000045FC */
label00004610:
00004610  6000 C462                bra        -0x3B9C /* 00000A74 */
export_32:
00004614  6100 BF6A                bsr        -0x4094 /* 00000580 */
00004618  302E 000C                move.w     D0, [A6 + 0xC]
0000461C  5340                     subq.w     D0, 1
0000461E  E540                     asl        D0.w, 2
00004620  2D72 0000 000E           move.l     [A6 + 0xE], [A2 + D0.w]
label00004626:
00004626  7006                     moveq.l    D0, 0x06
00004628  6000 BF96                bra        -0x4068 /* 000005C0 */
export_28:
fn0000462C:
0000462C  6100 BF60                bsr        -0x409E /* 0000058E */
00004630  4A2E 000C                tst.b      [A6 + 0xC]
00004634  6736                     beq        +0x38 /* 0000466C */
00004636  382B 0022                move.w     D4, [A3 + 0x22]
0000463A  2038 09D6                move.l     D0, [0x000009D6 /* WindowList */]
label0000463E:
0000463E  672C                     beq        +0x2E /* 0000466C */
00004640  2440                     movea.l    A2, D0
00004642  0C6A 0010 006C           cmpi.w     [A2 + 0x6C], 0x10
00004648  661C                     bne        +0x1E /* 00004666 */
0000464A  226A 0098                movea.l    A1, [A2 + 0x98]
0000464E  2251                     movea.l    A1, [A1]
00004650  B869 0022                cmp.w      D4, [A1 + 0x22]
00004654  6610                     bne        +0x12 /* 00004666 */
00004656  1029 000A                move.b     D0, [A1 + 0xA]
0000465A  0C00 0001                cmpi.b     D0, 0x1
0000465E  6606                     bne        +0x8 /* 00004666 */
00004660  2F0A                     move.l     -[A7], A2
00004662  4EAD 0452                jsr        [A5 + 0x452 /* export_134, CODE:3 @ 00002BFA */]
label00004666:
00004666  202A 0090                move.l     D0, [A2 + 0x90]
0000466A  60D2                     bra        -0x2C /* 0000463E */
label0000466C:
0000466C  0C53 0008                cmpi.w     [A3], 0x8
00004670  660C                     bne        +0xE /* 0000467E */
00004672  2778 020C 001E           move.l     [A3 + 0x1E], [0x0000020C /* Time */]
00004678  7E03                     moveq.l    D7, 0x03
0000467A  7C03                     moveq.l    D6, 0x03
0000467C  6132                     bsr        +0x34 /* 000046B0 */
label0000467E:
0000467E  2654                     movea.l    A3, [A4]
00004680  B9ED FE6C                cmpa.l     A4, [A5 - 0x194]
00004684  6726                     beq        +0x28 /* 000046AC */
00004686  7E00                     moveq.l    D7, 0x00
00004688  7C04                     moveq.l    D6, 0x04
0000468A  6124                     bsr        +0x26 /* 000046B0 */
0000468C  082B 0007 000B           btst.b     [A3 + 0xB], 0x7
00004692  6712                     beq        +0x14 /* 000046A6 */
00004694  102B 000A                move.b     D0, [A3 + 0xA]
00004698  0C00 0001                cmpi.b     D0, 0x1
0000469C  6608                     bne        +0xA /* 000046A6 */
0000469E  2F2B 0028                move.l     -[A7], [A3 + 0x28]
000046A2  4EAD 0452                jsr        [A5 + 0x452 /* export_134, CODE:3 @ 00002BFA */]
label000046A6:
000046A6  286B 000E                movea.l    A4, [A3 + 0xE]
000046AA  60D2                     bra        -0x2C /* 0000467E */
label000046AC:
000046AC  6000 FF78                bra        -0x86 /* 00004626 */
fn000046B0:
000046B0  B9ED FE6C                cmpa.l     A4, [A5 - 0x194]
000046B4  673C                     beq        +0x3E /* 000046F2 */
000046B6  206B 000E                movea.l    A0, [A3 + 0xE]
000046BA  2050                     movea.l    A0, [A0]
000046BC  7600                     moveq.l    D3, 0x00
000046BE  1628 000A                move.b     D3, [A0 + 0xA]
000046C2  0C03 0001                cmpi.b     D3, 0x1
000046C6  672A                     beq        +0x2C /* 000046F2 */
000046C8  2F0C                     move.l     -[A7], A4
000046CA  6100 F850                bsr        -0x7AE /* 00003F1C */
000046CE  3F07                     move.w     -[A7], D7
000046D0  2F0C                     move.l     -[A7], A4
000046D2  6120                     bsr        +0x22 /* 000046F4 */
000046D4  B606                     cmp.b      D3, D6
000046D6  661A                     bne        +0x1C /* 000046F2 */
000046D8  382B 0006                move.w     D4, [A3 + 0x6]
000046DC  3F03                     move.w     -[A7], D3
000046DE  2F2B 000E                move.l     -[A7], [A3 + 0xE]
000046E2  6100 FC60                bsr        -0x39E /* 00004344 */
000046E6  B86B 0006                cmp.w      D4, [A3 + 0x6]
000046EA  6706                     beq        +0x8 /* 000046F2 */
000046EC  2F0C                     move.l     -[A7], A4
000046EE  6100 DE58                bsr        -0x21A6 /* 00002548 */
label000046F2:
000046F2  4E75                     rts
fn000046F4:
000046F4  6100 BE98                bsr        -0x4166 /* 0000058E */
000046F8  6100 DC2E                bsr        -0x23D0 /* 00002328 */
000046FC  594F                     subq.w     A7, 4
000046FE  2F3C 5441 4223           move.l     -[A7], 0x54414223 /* 'TAB#' */
00004704  3F3C 0080                move.w     -[A7], 0x80
00004708  A9A0                     syscall    GetResource
0000470A  205F                     movea.l    A0, [A7]+
0000470C  2050                     movea.l    A0, [A0]
0000470E  362E 000C                move.w     D3, [A6 + 0xC]
00004712  D643                     add.w      D3, D3
00004714  3D70 3000 FFA0           move.w     [A6 - 0x60], [A0 + D3.w]
0000471A  3D70 3002 FFA4           move.w     [A6 - 0x5C], [A0 + D3.w + 0x2]
00004720  486E FF9E                pea.l      [A6 - 0x62]
00004724  A928                     syscall    InvalRect
00004726  6000 FEFE                bra        -0x100 /* 00004626 */
export_27:
fn0000472A:
0000472A  594F                     subq.w     A7, 4
0000472C  2F0F                     move.l     -[A7], A7
0000472E  A874                     syscall    GetPort
00004730  4EAD 033A                jsr        [A5 + 0x33A /* export_99, CODE:3 @ 000008D0 */]
00004734  2F0B                     move.l     -[A7], A3
00004736  2038 09D6                move.l     D0, [0x000009D6 /* WindowList */]
label0000473A:
0000473A  6754                     beq        +0x56 /* 00004790 */
0000473C  2640                     movea.l    A3, D0
0000473E  4A6B 006C                tst.w      [A3 + 0x6C]
00004742  6B46                     bmi        +0x48 /* 0000478A */
00004744  2038 0A64                move.l     D0, [0x00000A64 /* CurActivate */]
00004748  6F14                     ble        +0x16 /* 0000475E */
0000474A  2040                     movea.l    A0, D0
0000474C  0C68 0010 006C           cmpi.w     [A0 + 0x6C], 0x10
00004752  660A                     bne        +0xC /* 0000475E */
00004754  42B8 0A64                clr.l      [0x00000A64 /* CurActivate */]
00004758  2F08                     move.l     -[A7], A0
0000475A  6100 C07E                bsr        -0x3F80 /* 000007DA */
label0000475E:
0000475E  2038 0A68                move.l     D0, [0x00000A68 /* CurDeactive */]
00004762  6F14                     ble        +0x16 /* 00004778 */
00004764  2040                     movea.l    A0, D0
00004766  0C68 0010 006C           cmpi.w     [A0 + 0x6C], 0x10
0000476C  660A                     bne        +0xC /* 00004778 */
0000476E  42B8 0A68                clr.l      [0x00000A68 /* CurDeactive */]
00004772  2F08                     move.l     -[A7], A0
00004774  6100 DC96                bsr        -0x2368 /* 0000240C */
label00004778:
00004778  554F                     subq.w     A7, 2
0000477A  2F2B 007A                move.l     -[A7], [A3 + 0x7A]
0000477E  A8E2                     syscall    EmptyRgn
00004780  4A1F                     tst.b      [A7]+
00004782  6606                     bne        +0x8 /* 0000478A */
00004784  2F0B                     move.l     -[A7], A3
00004786  4EBA BC02                jsr        [PC - 0x43FE /* 0000038A */]
label0000478A:
0000478A  202B 0090                move.l     D0, [A3 + 0x90]
0000478E  60AA                     bra        -0x54 /* 0000473A */
label00004790:
00004790  265F                     movea.l    A3, [A7]+
00004792  A873                     syscall    SetPort
00004794  4E75                     rts
fn00004796:
00004796  6100 BDF6                bsr        -0x4208 /* 0000058E */
0000479A  302B 0022                move.w     D0, [A3 + 0x22]
0000479E  4EBA DC48                jsr        [PC - 0x23B8 /* 000023E8 */]
000047A2  3768 0026 0026           move.w     [A3 + 0x26], [A0 + 0x26]
000047A8  2768 001E 001A           move.l     [A3 + 0x1A], [A0 + 0x1E]
000047AE  2768 0022 001E           move.l     [A3 + 0x1E], [A0 + 0x22]
000047B4  6000 C2BE                bra        -0x3D40 /* 00000A74 */
fn000047B8:
000047B8  6100 BDC6                bsr        -0x4238 /* 00000580 */
000047BC  554F                     subq.w     A7, 2
000047BE  2F3C 464F 424A           move.l     -[A7], 0x464F424A /* 'FOBJ' */
000047C4  A99C                     syscall    CountResources
000047C6  3E1F                     move.w     D7, [A7]+
000047C8  671E                     beq        +0x20 /* 000047E8 */
label000047CA:
000047CA  594F                     subq.w     A7, 4
000047CC  2F3C 464F 424A           move.l     -[A7], 0x464F424A /* 'FOBJ' */
000047D2  3F07                     move.w     -[A7], D7
000047D4  A99D                     syscall    GetIndResource
000047D6  245F                     movea.l    A2, [A7]+
000047D8  2252                     movea.l    A1, [A2]
000047DA  0C51 0004                cmpi.w     [A1], 0x4
000047DE  6604                     bne        +0x6 /* 000047E4 */
000047E0  2F0A                     move.l     -[A7], A2
000047E2  61B2                     bsr        -0x4C /* 00004796 */
label000047E4:
000047E4  5347                     subq.w     D7, 1
000047E6  66E2                     bne        -0x1C /* 000047CA */
label000047E8:
000047E8  6000 C28A                bra        -0x3D74 /* 00000A74 */
export_25:
fn000047EC:
000047EC  6100 BDA0                bsr        -0x425E /* 0000058E */
000047F0  6100 C382                bsr        -0x3C7C /* 00000B74 */
000047F4  2654                     movea.l    A3, [A4]
000047F6  246B 0028                movea.l    A2, [A3 + 0x28]
000047FA  302E 000C                move.w     D0, [A6 + 0xC]
000047FE  1740 000A                move.b     [A3 + 0xA], D0
00004802  3F00                     move.w     -[A7], D0
00004804  2F0C                     move.l     -[A7], A4
00004806  6100 FB3C                bsr        -0x4C2 /* 00004344 */
0000480A  2F0C                     move.l     -[A7], A4
0000480C  6100 C72C                bsr        -0x38D2 /* 00000F3A */
00004810  200A                     move.l     D0, A2
00004812  6742                     beq        +0x44 /* 00004856 */
00004814  594F                     subq.w     A7, 4
00004816  2F0F                     move.l     -[A7], A7
00004818  A874                     syscall    GetPort
0000481A  2F0A                     move.l     -[A7], A2
0000481C  A873                     syscall    SetPort
0000481E  4EAD 0582                jsr        [A5 + 0x582 /* export_172, CODE:3 @ 000022C6 */]
00004822  2F0A                     move.l     -[A7], A2
00004824  4EBA B8F2                jsr        [PC - 0x470E /* 00000118 */]
00004828  41EA 0018                lea.l      A0, [A2 + 0x18]
0000482C  43EE FF96                lea.l      A1, [A6 - 0x6A]
00004830  2320                     move.l     -[A1], -[A0]
00004832  2320                     move.l     -[A1], -[A0]
00004834  0651 0011                addi.w     [A1], 0x11
00004838  0469 000F 0006           subi.w     [A1 + 0x6], 0xF
0000483E  0469 000F 0004           subi.w     [A1 + 0x4], 0xF
00004844  486E FF8E                pea.l      [A6 - 0x72]
00004848  A928                     syscall    InvalRect
0000484A  2F0A                     move.l     -[A7], A2
0000484C  4EAD 0452                jsr        [A5 + 0x452 /* export_134, CODE:3 @ 00002BFA */]
00004850  4EAD 058A                jsr        [A5 + 0x58A /* export_173, CODE:3 @ 000022C2 */]
00004854  A873                     syscall    SetPort
label00004856:
00004856  6000 FDCE                bra        -0x230 /* 00004626 */
fn0000485A:
0000485A  6100 BD24                bsr        -0x42DA /* 00000580 */
0000485E  246B 000E                movea.l    A2, [A3 + 0xE]
00004862  2252                     movea.l    A1, [A2]
00004864  4AA9 0028                tst.l      [A1 + 0x28]
00004868  57EE 000C                seq        [A6 + 0xC]
0000486C  522E 000C                addq.b     [A6 + 0xC], 1
00004870  6000 C202                bra        -0x3DFC /* 00000A74 */
export_24:
fn00004874:
00004874  6100 BD18                bsr        -0x42E6 /* 0000058E */
00004878  3A2E 0010                move.w     D5, [A6 + 0x10]
0000487C  2E0C                     move.l     D7, A4
0000487E  594F                     subq.w     A7, 4
00004880  2F0C                     move.l     -[A7], A4
00004882  6100 D8A6                bsr        -0x2758 /* 0000212A */
00004886  2857                     movea.l    A4, [A7]
00004888  2654                     movea.l    A3, [A4]
0000488A  6100 F690                bsr        -0x96E /* 00003F1C */
0000488E  6100 DA98                bsr        -0x2566 /* 00002328 */
00004892  486E FF96                pea.l      [A6 - 0x6A]
00004896  2F17                     move.l     -[A7], [A7]
00004898  4EAD 0492                jsr        [A5 + 0x492 /* export_142, CODE:3 @ 000029AC */]
0000489C  2F2E 000C                move.l     -[A7], [A6 + 0xC]
000048A0  4227                     clr.b      -[A7]
000048A2  4A45                     tst.w      D5
000048A4  6706                     beq        +0x8 /* 000048AC */
000048A6  4EAD 04F2                jsr        [A5 + 0x4F2 /* export_154, CODE:3 @ 00001B70 */]
000048AA  6004                     bra        +0x6 /* 000048B0 */
label000048AC:
000048AC  4EAD 030A                jsr        [A5 + 0x30A /* export_93, CODE:3 @ 00001DB8 */]
label000048B0:
000048B0  6000 F69A                bra        -0x964 /* 00003F4C */
fn000048B4:
000048B4  6100 BCD8                bsr        -0x4326 /* 0000058E */
000048B8  246E 000C                movea.l    A2, [A6 + 0xC]
000048BC  206A 0076                movea.l    A0, [A2 + 0x76]
000048C0  2050                     movea.l    A0, [A0]
000048C2  41E8 0002                lea.l      A0, [A0 + 0x2]
000048C6  43EE FF8E                lea.l      A1, [A6 - 0x72]
000048CA  22D8                     move.l     [A1]+, [A0]+
000048CC  22D8                     move.l     [A1]+, [A0]+
000048CE  2F0A                     move.l     -[A7], A2
000048D0  A916                     syscall    HideWindow
000048D2  4EBA FE56                jsr        [PC - 0x1AA /* 0000472A */]
000048D6  50E7                     st         -[A7]
000048D8  486E FF8E                pea.l      [A6 - 0x72]
000048DC  594F                     subq.w     A7, 4
000048DE  2F0C                     move.l     -[A7], A4
000048E0  6100 D848                bsr        -0x27B6 /* 0000212A */
000048E4  618E                     bsr        -0x70 /* 00004874 */
000048E6  6000 F4C4                bra        -0xB3A /* 00003DAC */
